
EORS-CH32V307.elf:     file format elf32-littleriscv
EORS-CH32V307.elf
architecture: riscv:rv32, flags 0x00000112:
EXEC_P, HAS_SYMS, D_PAGED
start address 0x00000000

Program Header:
    LOAD off    0x00001000 vaddr 0x00000000 paddr 0x00000000 align 2**12
         filesz 0x000077a4 memsz 0x000077a4 flags r-x
    LOAD off    0x00009000 vaddr 0x20000000 paddr 0x000077a4 align 2**12
         filesz 0x00000088 memsz 0x0000297c flags rw-
    LOAD off    0x00009800 vaddr 0x2001f800 paddr 0x2001f800 align 2**12
         filesz 0x00000000 memsz 0x00000800 flags rw-

Sections:
Idx Name          Size      VMA       LMA       File off  Algn
  0 .init         00000038  00000000  00000000  00001000  2**1
                  CONTENTS, ALLOC, LOAD, READONLY, CODE
  1 .vector       000001c8  00000038  00000038  00001038  2**1
                  CONTENTS, ALLOC, LOAD, READONLY, CODE
  2 .text         000075a4  00000200  00000200  00001200  2**3
                  CONTENTS, ALLOC, LOAD, READONLY, CODE
  3 .fini         00000000  000077a4  000077a4  00009088  2**0
                  CONTENTS, ALLOC, LOAD, CODE
  4 .dalign       00000000  20000000  20000000  00009088  2**0
                  CONTENTS
  5 .dlalign      00000000  000077a4  000077a4  00009088  2**0
                  CONTENTS
  6 .data         00000088  20000000  000077a4  00009000  2**2
                  CONTENTS, ALLOC, LOAD, DATA
  7 .bss          000028f4  20000088  0000782c  00009088  2**2
                  ALLOC
  8 .stack        00000800  2001f800  2001f800  00009800  2**0
                  ALLOC
  9 .debug_info   00014fb0  00000000  00000000  00009088  2**0
                  CONTENTS, READONLY, DEBUGGING
 10 .debug_abbrev 00003323  00000000  00000000  0001e038  2**0
                  CONTENTS, READONLY, DEBUGGING
 11 .debug_loc    00005d40  00000000  00000000  0002135b  2**0
                  CONTENTS, READONLY, DEBUGGING
 12 .debug_aranges 00000738  00000000  00000000  000270a0  2**3
                  CONTENTS, READONLY, DEBUGGING
 13 .debug_ranges 00000aa8  00000000  00000000  000277d8  2**3
                  CONTENTS, READONLY, DEBUGGING
 14 .debug_line   0000dc57  00000000  00000000  00028280  2**0
                  CONTENTS, READONLY, DEBUGGING
 15 .debug_str    000020c9  00000000  00000000  00035ed7  2**0
                  CONTENTS, READONLY, DEBUGGING
 16 .comment      00000033  00000000  00000000  00037fa0  2**0
                  CONTENTS, READONLY
 17 .debug_frame  00001758  00000000  00000000  00037fd4  2**2
                  CONTENTS, READONLY, DEBUGGING
SYMBOL TABLE:
00000000 l    d  .init	00000000 .init
00000038 l    d  .vector	00000000 .vector
00000200 l    d  .text	00000000 .text
000077a4 l    d  .fini	00000000 .fini
20000000 l    d  .dalign	00000000 .dalign
000077a4 l    d  .dlalign	00000000 .dlalign
20000000 l    d  .data	00000000 .data
20000088 l    d  .bss	00000000 .bss
2001f800 l    d  .stack	00000000 .stack
00000000 l    d  .debug_info	00000000 .debug_info
00000000 l    d  .debug_abbrev	00000000 .debug_abbrev
00000000 l    d  .debug_loc	00000000 .debug_loc
00000000 l    d  .debug_aranges	00000000 .debug_aranges
00000000 l    d  .debug_ranges	00000000 .debug_ranges
00000000 l    d  .debug_line	00000000 .debug_line
00000000 l    d  .debug_str	00000000 .debug_str
00000000 l    d  .comment	00000000 .comment
00000000 l    d  .debug_frame	00000000 .debug_frame
00000000 l    df *ABS*	00000000 ./03_MCU/startup/startup_ch32v30x.o
00000038 l       .vector	00000000 _vector_base
00000000 l    df *ABS*	00000000 isr.c
20000088 l     O .bss	00000001 TimerCount.3510
00000000 l    df *ABS*	00000000 main.c
00000000 l    df *ABS*	00000000 modelPreprocess.c
00000000 l    df *ABS*	00000000 cam.c
2000008c l     O .bss	00001880 image16
00000000 l    df *ABS*	00000000 lcd.c
00006e48 l     O .text	00000600 nAsciiDot
00000000 l    df *ABS*	00000000 printf.c
00001e5a l     F .text	00000040 printk_putc
00001e9a l     F .text	00000072 printk_mknumstr
00001f0c l     F .text	00000034 printk_pad_space
00000000 l    df *ABS*	00000000 sccb.c
00000000 l    df *ABS*	00000000 user.c
00000000 l    df *ABS*	00000000 gec.c
00000000 l    df *ABS*	00000000 system_ch32v30x.c
00000000 l    df *ABS*	00000000 flash.c
00000000 l    df *ABS*	00000000 gpio.c
00000000 l    df *ABS*	00000000 spi.c
00000000 l    df *ABS*	00000000 timer.c
00000000 l    df *ABS*	00000000 uart.c
00000000 l    df *ABS*	00000000 core_riscv.c
00000000 l    df *ABS*	00000000 libgcc2.c
00000000 l    df *ABS*	00000000 libgcc2.c
00000000 l    df *ABS*	00000000 adddf3.c
00000000 l    df *ABS*	00000000 ledf2.c
00000000 l    df *ABS*	00000000 muldf3.c
00000000 l    df *ABS*	00000000 subdf3.c
00000000 l    df *ABS*	00000000 fixdfsi.c
00000000 l    df *ABS*	00000000 fixunsdfsi.c
00000000 l    df *ABS*	00000000 floatsidf.c
00000000 l    df *ABS*	00000000 floatunsidf.c
00000000 l    df *ABS*	00000000 fixunsdfdi.c
00000000 l    df *ABS*	00000000 addsf3.c
00000000 l    df *ABS*	00000000 divsf3.c
00000000 l    df *ABS*	00000000 gesf2.c
00000000 l    df *ABS*	00000000 mulsf3.c
00000000 l    df *ABS*	00000000 subsf3.c
00000000 l    df *ABS*	00000000 floatsisf.c
00000000 l    df *ABS*	00000000 floatunsisf.c
00000000 l    df *ABS*	00000000 libgcc2.c
00000000 l    df *ABS*	00000000 memcpy.c
00000000 l    df *ABS*	00000000 strlen.c
00000000 l    df *ABS*	00000000 libgcc2.c
00002c6e g     F .text	000000c4 flash_write
00001c14 g     F .text	0000001c LCD_DrawPoint
00002692 g     F .text	00000042 sccb_stop
00002e7e g     F .text	0000001c gpio_get_int
000025fa g     F .text	0000000c sdio_output
00002ba6 g     F .text	00000004 flash_read_physical
00000e4c g     F .text	00000008 cam_FIFO_RCK_1
000025ee g     F .text	0000000c sdio_input
00000e54 g     F .text	0000000c cam_FIFO_RRST_0
000005bb g       *ABS*	00000000 GEC_USER_SECTOR_END
000003b6 g     F .text	00000038 HardFault_Handler
20000014 g     O .data	0000001c table_irq_exti
20001910 g     O .bss	00000001 cam_rec_flag
00005e26 g     F .text	000002b2 .hidden __divsf3
00000c00 g     F .text	000000fc Morphology_Dilate
000026d4 g     F .text	0000005a sccb_send1
0000075e g     F .text	0000003c rgb565togray_256
00001968 g     F .text	00000044 LCD_Clear
00003ce8 g     F .text	0000004e uart_enable_re_int
20000088 g       .bss	00000000 _sbss
00000800 g       *ABS*	00000000 __stack_size
000018d2 g     F .text	00000034 LCD_WR_REG
000063ee g     F .text	00000388 .hidden __subsf3
00000000 g       *ABS*	00000000 GEC_USER_SECTOR_START
0000183a g     F .text	00000024 LCD_Delay_ms
20001911 g     O .bss	00000001 ov_sta
00006980 g     F .text	000000b6 memcpy
00005944 g     F .text	00000072 .hidden __floatsidf
00004bd4 g     F .text	000000b6 .hidden __ltdf2
00001e0a g     F .text	00000050 LCD_DrawSurface
0000044a g     F .text	00000138 LCD_show_first
20000080 g     O .data	00000004 SystemCoreClock
00001c30 g     F .text	000000b0 LCD_DrawLine
000010a8 g     F .text	000000bc cam_config_window
00002f9a g     F .text	000006a4 spi_init
00000038 g       .init	00000000 _einit
000058e8 g     F .text	0000005c .hidden __fixunsdfsi
00001004 g     F .text	0000008c cam_gpio_init
00002b42 g     F .text	00000054 flash_erase
00002bd6 g     F .text	00000098 flash_Best
00001090 g     F .text	0000000c cam_reg_write
20001914 g     O .bss	00000004 gcReccrc32
20001918 g     O .bss	00000001 gTimberFlag1s
00000cfc g     F .text	00000118 Model_GetInputImg_Gray
00000e80 g     F .text	00000184 cam_getimg_5656
000044a4 g     F .text	00000730 .hidden __adddf3
00004116 g     F .text	0000038e .hidden __umoddi3
00002606 g     F .text	00000020 SCCB_Init
00002b04 g     F .text	0000003e flash_init
00003d7e g     F .text	00000398 .hidden __udivdi3
000059b6 g     F .text	00000068 .hidden __floatunsidf
0000079a g     F .text	000002f0 Inter_Linear_gray
00001f4a g     F .text	000001d8 printk_mkfloatstr
00003914 g     F .text	00000058 timer_clear_int
2000297c g       .bss	00000000 _ebss
00000100 g       *ABS*	00000000 MCU_SECTORSIZE
00005880 g     F .text	00000068 .hidden __fixdfsi
00001892 g     F .text	00000040 LCD_WR_DATA
000036c6 g     F .text	000001a4 timer_init
00003d36 g     F .text	00000036 uart_get_re_int
000002a8 g     F .text	00000038 UART_User_Handler
00000a8a g     F .text	00000176 otsu_binarization
000060d8 g     F .text	00000086 .hidden __gtsf2
00004bd4 g     F .text	000000b6 .hidden __ledf2
20020000 g       *ABS*	00000000 GEC_USER_RAM_END
000025bc g     F .text	00000032 myprintf
0000690a g     F .text	00000076 .hidden __clzsi2
0000396c g     F .text	000002ea uart_init
00002e3c g     F .text	00000042 gpio_get
00000000 g       .init	00000000 _start
2000190c g     O .bss	00000004 component_fun
20000000 g       *ABS*	00000000 GEC_USER_RAM_START
00006776 g     F .text	000000c6 .hidden __floatsisf
000028bc g     F .text	00000008 EXTI15_10_IRQHandler
00000582 g     F .text	00000022 mdelay_ms
20001919 g     O .bss	00000001 cam_refresh_end
00000e2c g     F .text	0000000c cam_FIFO_WR_1
00003d72 g     F .text	00000006 __get_MCAUSE
000028c4 g     F .text	00000008 TIM7_IRQHandler
000002e0 g     F .text	0000006e Cam_User_Handler
2000191c g     O .bss	00000047 gShakeData
20000000 g       .dalign	00000000 _data_vma
0000363e g     F .text	00000088 spi_send1
00001f40 g     F .text	0000000a out_char
00000e6c g     F .text	0000000a cam_FIFO_OE_0
00002122 g     F .text	0000049a printk
00002b96 g     F .text	00000010 flash_read_logic
2000005c g     O .data	00000020 table_irq_uart
0000386a g     F .text	000000aa timer_get_int
00002eb0 g     F .text	0000002c GPIO_EXTILineConfig
00002626 g     F .text	0000002a Delay_ms
00004c8a g     F .text	000004b8 .hidden __muldf3
00003c96 g     F .text	00000052 uart_re1
00003d78 g     F .text	00000006 __get_MTVAL
00003d6c g     F .text	00000006 __get_MEPC
0000185e g     F .text	00000034 LCD_WR_DATA8
00002e9a g     F .text	00000016 gpio_clear_int
000019ac g     F .text	00000268 LCD_Init
00000200 g     F .text	000000a8 memset
000005a4 g     F .text	000001ba main
00000e20 g     F .text	0000000c cam_FIFO_WRST_0
00000e38 g     F .text	0000000c cam_FIFO_WR_0
0000615e g     F .text	00000290 .hidden __mulsf3
000029fe g     F .text	00000106 SystemInit
00002820 g     F .text	00000040 sccb_nack
00000e76 g     F .text	0000000a cam_FIFO_OE_1
00000e44 g     F .text	00000008 cam_FIFO_RCK_0
00005a1e g     F .text	0000009e .hidden __fixunsdfdi
20001963 g     O .bss	00000001 Rst_Count
0000109c g     F .text	0000000c cam_reg_read
000076a4 g     O .text	00000100 .hidden __clz_tab
00000000 g       .init	00000000 _sinit
000060d8 g     F .text	00000086 .hidden __gesf2
00001164 g     F .text	0000063c cam_reg_init
20001964 g     O .bss	00000002 gcRecvLen
00002d32 g     F .text	00000032 flash_write_physical
00002baa g     F .text	0000002c flash_isempty
00002edc g     F .text	000000be gpio_enable_int
00002860 g     F .text	00000054 SCCB_Read
20020000 g       *ABS*	00000000 _eusrstack
000028cc g     F .text	000000a8 Vectors_Init
20001966 g     O .bss	00000002 gcRecvDCLen
20000030 g     O .data	0000000c SPI_ARR
20000088 g       .data	00000000 _edata
00000e14 g     F .text	0000000c cam_FIFO_WRST_1
20001968 g     O .bss	00000002 gRecvdataLen
000003ee g     F .text	0000005c LCD_show_status
000077a4 g       .dlalign	00000000 _data_lma
000027b4 g     F .text	0000006c sccb_rec1
000028b4 g     F .text	00000008 USART2_IRQHandler
00001906 g     F .text	00000062 Address_set
20000000 g     O .data	00000014 GPIO_ARR
0000683c g     F .text	000000ce .hidden __floatunsisf
00002650 g     F .text	00000042 sccb_start
00002974  w      .text	00000000 handle_reset
0000272e g     F .text	0000004e sccb_waitAck
2000196a g     O .bss	00000001 cam_fifo_ready
00001d36 g     F .text	000000d4 LCD_ShowString
2000196b g     O .bss	00000001 gFunFlag
000017cc g     F .text	0000006e cam_init
2000196c g     O .bss	00000001 cam_ready
0000277c g     F .text	00000038 SCCB_Write
00006a36 g     F .text	00000012 strlen
00003c56 g     F .text	00000040 uart_send1
0000034e g     F .text	00000068 TIMER_USER_Handler
00002d64 g     F .text	0000002a gpio_set
2000003c g     O .data	00000020 USART_ARR
000017a0 g     F .text	0000002c Delay_us
00002d8e g     F .text	000000ae gpio_init
00005142 g     F .text	0000073e .hidden __subdf3
00000e60 g     F .text	0000000c cam_FIFO_RRST_1
20001970 g     O .bss	00001000 gcRecvBuf
00005abc g     F .text	0000036a .hidden __addsf3
20002970 g     O .bss	0000000a gcUpdateFlag
00000000 g       *ABS*	00000000 MCU_FLASH_ADDR_START
00001ce0 g     F .text	00000056 LCD_DrawRectangle



Disassembly of section .init:

00000000 <_sinit>:
   0:	1750206f          	j	2974 <handle_reset>
   4:	00000013          	nop
   8:	00000013          	nop
   c:	00000013          	nop
  10:	00000013          	nop
  14:	00000013          	nop
  18:	00000013          	nop
  1c:	00000013          	nop
  20:	00000013          	nop
  24:	00000013          	nop
  28:	00000013          	nop
  2c:	00000013          	nop
  30:	00000013          	nop
  34:	00100073          	ebreak

Disassembly of section .vector:

00000038 <_vector_base>:
	...
  44:	03b6                	slli	t2,t2,0xd
	...
 10e:	0000                	unimp
 110:	28b4                	fld	fa3,80(s1)
 112:	0000                	unimp
 114:	0000                	unimp
 116:	0000                	unimp
 118:	28bc                	fld	fa5,80(s1)
	...
 152:	0000                	unimp
 154:	28c4                	fld	fs1,144(s1)
	...

Disassembly of section .text:

00000200 <memset>:
     200:	433d                	li	t1,15
     202:	872a                	mv	a4,a0
     204:	02c37363          	bgeu	t1,a2,22a <memset+0x2a>
     208:	00f77793          	andi	a5,a4,15
     20c:	efbd                	bnez	a5,28a <memset+0x8a>
     20e:	e5ad                	bnez	a1,278 <memset+0x78>
     210:	ff067693          	andi	a3,a2,-16
     214:	8a3d                	andi	a2,a2,15
     216:	96ba                	add	a3,a3,a4
     218:	c30c                	sw	a1,0(a4)
     21a:	c34c                	sw	a1,4(a4)
     21c:	c70c                	sw	a1,8(a4)
     21e:	c74c                	sw	a1,12(a4)
     220:	0741                	addi	a4,a4,16
     222:	fed76be3          	bltu	a4,a3,218 <memset+0x18>
     226:	e211                	bnez	a2,22a <memset+0x2a>
     228:	8082                	ret
     22a:	40c306b3          	sub	a3,t1,a2
     22e:	068a                	slli	a3,a3,0x2
     230:	00000297          	auipc	t0,0x0
     234:	9696                	add	a3,a3,t0
     236:	00a68067          	jr	10(a3)
     23a:	00b70723          	sb	a1,14(a4)
     23e:	00b706a3          	sb	a1,13(a4)
     242:	00b70623          	sb	a1,12(a4)
     246:	00b705a3          	sb	a1,11(a4)
     24a:	00b70523          	sb	a1,10(a4)
     24e:	00b704a3          	sb	a1,9(a4)
     252:	00b70423          	sb	a1,8(a4)
     256:	00b703a3          	sb	a1,7(a4)
     25a:	00b70323          	sb	a1,6(a4)
     25e:	00b702a3          	sb	a1,5(a4)
     262:	00b70223          	sb	a1,4(a4)
     266:	00b701a3          	sb	a1,3(a4)
     26a:	00b70123          	sb	a1,2(a4)
     26e:	00b700a3          	sb	a1,1(a4)
     272:	00b70023          	sb	a1,0(a4)
     276:	8082                	ret
     278:	0ff5f593          	andi	a1,a1,255
     27c:	00859693          	slli	a3,a1,0x8
     280:	8dd5                	or	a1,a1,a3
     282:	01059693          	slli	a3,a1,0x10
     286:	8dd5                	or	a1,a1,a3
     288:	b761                	j	210 <memset+0x10>
     28a:	00279693          	slli	a3,a5,0x2
     28e:	00000297          	auipc	t0,0x0
     292:	9696                	add	a3,a3,t0
     294:	8286                	mv	t0,ra
     296:	fa8680e7          	jalr	-88(a3)
     29a:	8096                	mv	ra,t0
     29c:	17c1                	addi	a5,a5,-16
     29e:	8f1d                	sub	a4,a4,a5
     2a0:	963e                	add	a2,a2,a5
     2a2:	f8c374e3          	bgeu	t1,a2,22a <memset+0x2a>
     2a6:	b7a5                	j	20e <memset+0xe>

000002a8 <UART_User_Handler>:
     2a8:	1101                	addi	sp,sp,-32
     2aa:	ce06                	sw	ra,28(sp)
     2ac:	4781                	li	a5,0
     2ae:	30079073          	csrw	mstatus,a5
     2b2:	4509                	li	a0,2
     2b4:	283030ef          	jal	ra,3d36 <uart_get_re_int>
     2b8:	cd09                	beqz	a0,2d2 <UART_User_Handler+0x2a>
     2ba:	00f10593          	addi	a1,sp,15
     2be:	4509                	li	a0,2
     2c0:	1d7030ef          	jal	ra,3c96 <uart_re1>
     2c4:	00f14783          	lbu	a5,15(sp)
     2c8:	85aa                	mv	a1,a0
     2ca:	c781                	beqz	a5,2d2 <UART_User_Handler+0x2a>
     2cc:	4509                	li	a0,2
     2ce:	189030ef          	jal	ra,3c56 <uart_send1>
     2d2:	08800793          	li	a5,136
     2d6:	30079073          	csrw	mstatus,a5
     2da:	40f2                	lw	ra,28(sp)
     2dc:	6105                	addi	sp,sp,32
     2de:	8082                	ret

000002e0 <Cam_User_Handler>:
     2e0:	1141                	addi	sp,sp,-16
     2e2:	c606                	sw	ra,12(sp)
     2e4:	c422                	sw	s0,8(sp)
     2e6:	c226                	sw	s1,4(sp)
     2e8:	4781                	li	a5,0
     2ea:	30079073          	csrw	mstatus,a5
     2ee:	20c00513          	li	a0,524
     2f2:	38d020ef          	jal	ra,2e7e <gpio_get_int>
     2f6:	c51d                	beqz	a0,324 <Cam_User_Handler+0x44>
     2f8:	20c00513          	li	a0,524
     2fc:	39f020ef          	jal	ra,2e9a <gpio_clear_int>
     300:	200024b7          	lui	s1,0x20002
     304:	96c4c783          	lbu	a5,-1684(s1) # 2000196c <cam_ready>
     308:	20002437          	lui	s0,0x20002
     30c:	e78d                	bnez	a5,336 <Cam_User_Handler+0x56>
     30e:	313000ef          	jal	ra,e20 <cam_FIFO_WRST_0>
     312:	303000ef          	jal	ra,e14 <cam_FIFO_WRST_1>
     316:	317000ef          	jal	ra,e2c <cam_FIFO_WR_1>
     31a:	4785                	li	a5,1
     31c:	96f40523          	sb	a5,-1686(s0) # 2000196a <cam_fifo_ready>
     320:	96f48623          	sb	a5,-1684(s1)
     324:	08800793          	li	a5,136
     328:	30079073          	csrw	mstatus,a5
     32c:	40b2                	lw	ra,12(sp)
     32e:	4422                	lw	s0,8(sp)
     330:	4492                	lw	s1,4(sp)
     332:	0141                	addi	sp,sp,16
     334:	8082                	ret
     336:	96a44783          	lbu	a5,-1686(s0)
     33a:	4705                	li	a4,1
     33c:	fee794e3          	bne	a5,a4,324 <Cam_User_Handler+0x44>
     340:	20002737          	lui	a4,0x20002
     344:	90f70ca3          	sb	a5,-1767(a4) # 20001919 <cam_refresh_end>
     348:	2f1000ef          	jal	ra,e38 <cam_FIFO_WR_0>
     34c:	bfe1                	j	324 <Cam_User_Handler+0x44>

0000034e <TIMER_USER_Handler>:
     34e:	00007537          	lui	a0,0x7
     352:	1141                	addi	sp,sp,-16
     354:	a9450513          	addi	a0,a0,-1388 # 6a94 <strlen+0x5e>
     358:	c606                	sw	ra,12(sp)
     35a:	262020ef          	jal	ra,25bc <myprintf>
     35e:	4781                	li	a5,0
     360:	30079073          	csrw	mstatus,a5
     364:	451d                	li	a0,7
     366:	504030ef          	jal	ra,386a <timer_get_int>
     36a:	c505                	beqz	a0,392 <TIMER_USER_Handler+0x44>
     36c:	20000737          	lui	a4,0x20000
     370:	08870713          	addi	a4,a4,136 # 20000088 <_edata>
     374:	00074783          	lbu	a5,0(a4)
     378:	03100693          	li	a3,49
     37c:	0785                	addi	a5,a5,1
     37e:	0ff7f793          	andi	a5,a5,255
     382:	02f6e263          	bltu	a3,a5,3a6 <TIMER_USER_Handler+0x58>
     386:	00f70023          	sb	a5,0(a4)
     38a:	400017b7          	lui	a5,0x40001
     38e:	42079223          	sh	zero,1060(a5) # 40001424 <GEC_USER_RAM_END+0x1ffe1424>
     392:	451d                	li	a0,7
     394:	580030ef          	jal	ra,3914 <timer_clear_int>
     398:	08800793          	li	a5,136
     39c:	30079073          	csrw	mstatus,a5
     3a0:	40b2                	lw	ra,12(sp)
     3a2:	0141                	addi	sp,sp,16
     3a4:	8082                	ret
     3a6:	00070023          	sb	zero,0(a4)
     3aa:	200027b7          	lui	a5,0x20002
     3ae:	4705                	li	a4,1
     3b0:	90e78c23          	sb	a4,-1768(a5) # 20001918 <gTimberFlag1s>
     3b4:	bfd9                	j	38a <TIMER_USER_Handler+0x3c>

000003b6 <HardFault_Handler>:
     3b6:	1bd030ef          	jal	ra,3d72 <__get_MCAUSE>
     3ba:	85aa                	mv	a1,a0
     3bc:	00007537          	lui	a0,0x7
     3c0:	a6850513          	addi	a0,a0,-1432 # 6a68 <strlen+0x32>
     3c4:	1f8020ef          	jal	ra,25bc <myprintf>
     3c8:	1a5030ef          	jal	ra,3d6c <__get_MEPC>
     3cc:	85aa                	mv	a1,a0
     3ce:	00007537          	lui	a0,0x7
     3d2:	a7850513          	addi	a0,a0,-1416 # 6a78 <strlen+0x42>
     3d6:	1e6020ef          	jal	ra,25bc <myprintf>
     3da:	19f030ef          	jal	ra,3d78 <__get_MTVAL>
     3de:	85aa                	mv	a1,a0
     3e0:	00007537          	lui	a0,0x7
     3e4:	a8450513          	addi	a0,a0,-1404 # 6a84 <strlen+0x4e>
     3e8:	1d4020ef          	jal	ra,25bc <myprintf>
     3ec:	a001                	j	3ec <HardFault_Handler+0x36>

000003ee <LCD_show_status>:
     3ee:	7179                	addi	sp,sp,-48
     3f0:	659d                	lui	a1,0x7
     3f2:	d422                	sw	s0,40(sp)
     3f4:	02000613          	li	a2,32
     3f8:	842a                	mv	s0,a0
     3fa:	a4858593          	addi	a1,a1,-1464 # 6a48 <strlen+0x12>
     3fe:	850a                	mv	a0,sp
     400:	d606                	sw	ra,44(sp)
     402:	d226                	sw	s1,36(sp)
     404:	57c060ef          	jal	ra,6980 <memcpy>
     408:	64c1                	lui	s1,0x10
     40a:	fff48713          	addi	a4,s1,-1 # ffff <_data_lma+0x885b>
     40e:	14000693          	li	a3,320
     412:	0f000613          	li	a2,240
     416:	12c00593          	li	a1,300
     41a:	08200513          	li	a0,130
     41e:	1ed010ef          	jal	ra,1e0a <LCD_DrawSurface>
     422:	147d                	addi	s0,s0,-1
     424:	101c                	addi	a5,sp,32
     426:	040a                	slli	s0,s0,0x2
     428:	943e                	add	s0,s0,a5
     42a:	fe042703          	lw	a4,-32(s0)
     42e:	5422                	lw	s0,40(sp)
     430:	50b2                	lw	ra,44(sp)
     432:	fff48693          	addi	a3,s1,-1
     436:	80048613          	addi	a2,s1,-2048
     43a:	5492                	lw	s1,36(sp)
     43c:	12c00593          	li	a1,300
     440:	08200513          	li	a0,130
     444:	6145                	addi	sp,sp,48
     446:	0f10106f          	j	1d36 <LCD_ShowString>

0000044a <LCD_show_first>:
     44a:	1141                	addi	sp,sp,-16
     44c:	c422                	sw	s0,8(sp)
     44e:	00007437          	lui	s0,0x7
     452:	aa840513          	addi	a0,s0,-1368 # 6aa8 <strlen+0x72>
     456:	c606                	sw	ra,12(sp)
     458:	164020ef          	jal	ra,25bc <myprintf>
     45c:	00007537          	lui	a0,0x7
     460:	ae450513          	addi	a0,a0,-1308 # 6ae4 <strlen+0xae>
     464:	158020ef          	jal	ra,25bc <myprintf>
     468:	00007537          	lui	a0,0x7
     46c:	b1050513          	addi	a0,a0,-1264 # 6b10 <strlen+0xda>
     470:	14c020ef          	jal	ra,25bc <myprintf>
     474:	00007537          	lui	a0,0x7
     478:	b1c50513          	addi	a0,a0,-1252 # 6b1c <strlen+0xe6>
     47c:	140020ef          	jal	ra,25bc <myprintf>
     480:	00007537          	lui	a0,0x7
     484:	b5c50513          	addi	a0,a0,-1188 # 6b5c <strlen+0x126>
     488:	134020ef          	jal	ra,25bc <myprintf>
     48c:	00007537          	lui	a0,0x7
     490:	ba450513          	addi	a0,a0,-1116 # 6ba4 <strlen+0x16e>
     494:	128020ef          	jal	ra,25bc <myprintf>
     498:	00007537          	lui	a0,0x7
     49c:	bfc50513          	addi	a0,a0,-1028 # 6bfc <strlen+0x1c6>
     4a0:	11c020ef          	jal	ra,25bc <myprintf>
     4a4:	00007537          	lui	a0,0x7
     4a8:	c2450513          	addi	a0,a0,-988 # 6c24 <strlen+0x1ee>
     4ac:	110020ef          	jal	ra,25bc <myprintf>
     4b0:	00007537          	lui	a0,0x7
     4b4:	c4450513          	addi	a0,a0,-956 # 6c44 <strlen+0x20e>
     4b8:	104020ef          	jal	ra,25bc <myprintf>
     4bc:	00007537          	lui	a0,0x7
     4c0:	c5450513          	addi	a0,a0,-940 # 6c54 <strlen+0x21e>
     4c4:	0f8020ef          	jal	ra,25bc <myprintf>
     4c8:	00007537          	lui	a0,0x7
     4cc:	c8050513          	addi	a0,a0,-896 # 6c80 <strlen+0x24a>
     4d0:	0ec020ef          	jal	ra,25bc <myprintf>
     4d4:	aa840513          	addi	a0,s0,-1368
     4d8:	0e4020ef          	jal	ra,25bc <myprintf>
     4dc:	00007537          	lui	a0,0x7
     4e0:	c5050513          	addi	a0,a0,-944 # 6c50 <strlen+0x21a>
     4e4:	0d8020ef          	jal	ra,25bc <myprintf>
     4e8:	6441                	lui	s0,0x10
     4ea:	00007737          	lui	a4,0x7
     4ee:	fff40693          	addi	a3,s0,-1 # ffff <_data_lma+0x885b>
     4f2:	ca870713          	addi	a4,a4,-856 # 6ca8 <strlen+0x272>
     4f6:	467d                	li	a2,31
     4f8:	4589                	li	a1,2
     4fa:	4579                	li	a0,30
     4fc:	03b010ef          	jal	ra,1d36 <LCD_ShowString>
     500:	00007737          	lui	a4,0x7
     504:	fff40693          	addi	a3,s0,-1
     508:	cc070713          	addi	a4,a4,-832 # 6cc0 <strlen+0x28a>
     50c:	467d                	li	a2,31
     50e:	0d700593          	li	a1,215
     512:	4579                	li	a0,30
     514:	023010ef          	jal	ra,1d36 <LCD_ShowString>
     518:	00007737          	lui	a4,0x7
     51c:	fff40693          	addi	a3,s0,-1
     520:	80040613          	addi	a2,s0,-2048
     524:	cd070713          	addi	a4,a4,-816 # 6cd0 <strlen+0x29a>
     528:	0d700593          	li	a1,215
     52c:	08c00513          	li	a0,140
     530:	007010ef          	jal	ra,1d36 <LCD_ShowString>
     534:	00007737          	lui	a4,0x7
     538:	fff40693          	addi	a3,s0,-1
     53c:	cd870713          	addi	a4,a4,-808 # 6cd8 <strlen+0x2a2>
     540:	467d                	li	a2,31
     542:	0f500593          	li	a1,245
     546:	4579                	li	a0,30
     548:	7ee010ef          	jal	ra,1d36 <LCD_ShowString>
     54c:	4701                	li	a4,0
     54e:	12500693          	li	a3,293
     552:	0f000613          	li	a2,240
     556:	12500593          	li	a1,293
     55a:	4501                	li	a0,0
     55c:	6d4010ef          	jal	ra,1c30 <LCD_DrawLine>
     560:	00007737          	lui	a4,0x7
     564:	fff40693          	addi	a3,s0,-1
     568:	4529                	li	a0,10
     56a:	ce470713          	addi	a4,a4,-796 # 6ce4 <strlen+0x2ae>
     56e:	467d                	li	a2,31
     570:	12c00593          	li	a1,300
     574:	7c2010ef          	jal	ra,1d36 <LCD_ShowString>
     578:	4422                	lw	s0,8(sp)
     57a:	40b2                	lw	ra,12(sp)
     57c:	4505                	li	a0,1
     57e:	0141                	addi	sp,sp,16
     580:	b5bd                	j	3ee <LCD_show_status>

00000582 <mdelay_ms>:
     582:	6789                	lui	a5,0x2
     584:	c2078793          	addi	a5,a5,-992 # 1c20 <LCD_DrawPoint+0xc>
     588:	02f50533          	mul	a0,a0,a5
     58c:	1141                	addi	sp,sp,-16
     58e:	c602                	sw	zero,12(sp)
     590:	47b2                	lw	a5,12(sp)
     592:	00a7e463          	bltu	a5,a0,59a <mdelay_ms+0x18>
     596:	0141                	addi	sp,sp,16
     598:	8082                	ret
     59a:	0001                	nop
     59c:	47b2                	lw	a5,12(sp)
     59e:	0785                	addi	a5,a5,1
     5a0:	c63e                	sw	a5,12(sp)
     5a2:	b7fd                	j	590 <mdelay_ms+0xe>

000005a4 <main>:
     5a4:	bd010113          	addi	sp,sp,-1072
     5a8:	42112623          	sw	ra,1068(sp)
     5ac:	42812423          	sw	s0,1064(sp)
     5b0:	42912223          	sw	s1,1060(sp)
     5b4:	43212023          	sw	s2,1056(sp)
     5b8:	41312e23          	sw	s3,1052(sp)
     5bc:	41412c23          	sw	s4,1048(sp)
     5c0:	41512a23          	sw	s5,1044(sp)
     5c4:	41612823          	sw	s6,1040(sp)
     5c8:	41712623          	sw	s7,1036(sp)
     5cc:	41812423          	sw	s8,1032(sp)
     5d0:	41912223          	sw	s9,1028(sp)
     5d4:	41a12023          	sw	s10,1024(sp)
     5d8:	4781                	li	a5,0
     5da:	30079073          	csrw	mstatus,a5
     5de:	200027b7          	lui	a5,0x20002
     5e2:	90078823          	sb	zero,-1776(a5) # 20001910 <cam_rec_flag>
     5e6:	200027b7          	lui	a5,0x20002
     5ea:	96078623          	sb	zero,-1684(a5) # 2000196c <cam_ready>
     5ee:	200027b7          	lui	a5,0x20002
     5f2:	96078523          	sb	zero,-1686(a5) # 2000196a <cam_fifo_ready>
     5f6:	4605                	li	a2,1
     5f8:	200027b7          	lui	a5,0x20002
     5fc:	4585                	li	a1,1
     5fe:	20000513          	li	a0,512
     602:	90078ca3          	sb	zero,-1767(a5) # 20001919 <cam_refresh_end>
     606:	788020ef          	jal	ra,2d8e <gpio_init>
     60a:	4605                	li	a2,1
     60c:	4585                	li	a1,1
     60e:	20200513          	li	a0,514
     612:	77c020ef          	jal	ra,2d8e <gpio_init>
     616:	4605                	li	a2,1
     618:	4585                	li	a1,1
     61a:	20100513          	li	a0,513
     61e:	770020ef          	jal	ra,2d8e <gpio_init>
     622:	6471                	lui	s0,0x1c
     624:	20040593          	addi	a1,s0,512 # 1c200 <_data_lma+0x14a5c>
     628:	4505                	li	a0,1
     62a:	342030ef          	jal	ra,396c <uart_init>
     62e:	45d1                	li	a1,20
     630:	451d                	li	a0,7
     632:	094030ef          	jal	ra,36c6 <timer_init>
     636:	4601                	li	a2,0
     638:	4585                	li	a1,1
     63a:	20200513          	li	a0,514
     63e:	750020ef          	jal	ra,2d8e <gpio_init>
     642:	20040593          	addi	a1,s0,512
     646:	4509                	li	a0,2
     648:	324030ef          	jal	ra,396c <uart_init>
     64c:	360010ef          	jal	ra,19ac <LCD_Init>
     650:	00007537          	lui	a0,0x7
     654:	cf450513          	addi	a0,a0,-780 # 6cf4 <strlen+0x2be>
     658:	765010ef          	jal	ra,25bc <myprintf>
     65c:	170010ef          	jal	ra,17cc <cam_init>
     660:	00007437          	lui	s0,0x7
     664:	000074b7          	lui	s1,0x7
     668:	00007937          	lui	s2,0x7
     66c:	0c051563          	bnez	a0,736 <GEC_USER_SECTOR_END+0x17b>
     670:	00007537          	lui	a0,0x7
     674:	d8850513          	addi	a0,a0,-632 # 6d88 <strlen+0x352>
     678:	745010ef          	jal	ra,25bc <myprintf>
     67c:	4519                	li	a0,6
     67e:	3b85                	jal	3ee <LCD_show_status>
     680:	33e9                	jal	44a <LCD_show_first>
     682:	4509                	li	a0,2
     684:	664030ef          	jal	ra,3ce8 <uart_enable_re_int>
     688:	45b1                	li	a1,12
     68a:	20c00513          	li	a0,524
     68e:	04f020ef          	jal	ra,2edc <gpio_enable_int>
     692:	08800793          	li	a5,136
     696:	30079073          	csrw	mstatus,a5
     69a:	6941                	lui	s2,0x10
     69c:	80090993          	addi	s3,s2,-2048 # f800 <_data_lma+0x805c>
     6a0:	00007ab7          	lui	s5,0x7
     6a4:	00007b37          	lui	s6,0x7
     6a8:	00007bb7          	lui	s7,0x7
     6ac:	00007c37          	lui	s8,0x7
     6b0:	00007a37          	lui	s4,0x7
     6b4:	4515                	li	a0,5
     6b6:	3b25                	jal	3ee <LCD_show_status>
     6b8:	874e                	mv	a4,s3
     6ba:	0c300693          	li	a3,195
     6be:	0d600613          	li	a2,214
     6c2:	45e1                	li	a1,24
     6c4:	4579                	li	a0,30
     6c6:	61a010ef          	jal	ra,1ce0 <LCD_DrawRectangle>
     6ca:	450d                	li	a0,3
     6cc:	330d                	jal	3ee <LCD_show_status>
     6ce:	7b2000ef          	jal	ra,e80 <cam_getimg_5656>
     6d2:	842a                	mv	s0,a0
     6d4:	451d                	li	a0,7
     6d6:	3b21                	jal	3ee <LCD_show_status>
     6d8:	858a                	mv	a1,sp
     6da:	8522                	mv	a0,s0
     6dc:	2505                	jal	cfc <Model_GetInputImg_Gray>
     6de:	db4a8713          	addi	a4,s5,-588 # 6db4 <strlen+0x37e>
     6e2:	fff90693          	addi	a3,s2,-1
     6e6:	864e                	mv	a2,s3
     6e8:	0d700593          	li	a1,215
     6ec:	08c00513          	li	a0,140
     6f0:	646010ef          	jal	ra,1d36 <LCD_ShowString>
     6f4:	dbcb0513          	addi	a0,s6,-580 # 6dbc <strlen+0x386>
     6f8:	6c5010ef          	jal	ra,25bc <myprintf>
     6fc:	0084                	addi	s1,sp,64
     6fe:	3c010c93          	addi	s9,sp,960
     702:	4d79                	li	s10,30
     704:	4409                	li	s0,2
     706:	008487b3          	add	a5,s1,s0
     70a:	0007c583          	lbu	a1,0(a5)
     70e:	dc0b8513          	addi	a0,s7,-576 # 6dc0 <strlen+0x38a>
     712:	0405                	addi	s0,s0,1
     714:	6a9010ef          	jal	ra,25bc <myprintf>
     718:	ffa417e3          	bne	s0,s10,706 <GEC_USER_SECTOR_END+0x14b>
     71c:	b0cc0513          	addi	a0,s8,-1268 # 6b0c <strlen+0xd6>
     720:	02048493          	addi	s1,s1,32 # 7020 <nAsciiDot+0x1d8>
     724:	699010ef          	jal	ra,25bc <myprintf>
     728:	fd949ee3          	bne	s1,s9,704 <GEC_USER_SECTOR_END+0x149>
     72c:	dc4a0513          	addi	a0,s4,-572 # 6dc4 <strlen+0x38e>
     730:	68d010ef          	jal	ra,25bc <myprintf>
     734:	b741                	j	6b4 <GEC_USER_SECTOR_END+0xf9>
     736:	4509                	li	a0,2
     738:	395d                	jal	3ee <LCD_show_status>
     73a:	d1c40513          	addi	a0,s0,-740 # 6d1c <strlen+0x2e6>
     73e:	67f010ef          	jal	ra,25bc <myprintf>
     742:	d4048513          	addi	a0,s1,-704
     746:	677010ef          	jal	ra,25bc <myprintf>
     74a:	d5c90513          	addi	a0,s2,-676
     74e:	66f010ef          	jal	ra,25bc <myprintf>
     752:	0c800513          	li	a0,200
     756:	3535                	jal	582 <mdelay_ms>
     758:	074010ef          	jal	ra,17cc <cam_init>
     75c:	bf01                	j	66c <GEC_USER_SECTOR_END+0xb1>

0000075e <rgb565togray_256>:
     75e:	40855793          	srai	a5,a0,0x8
     762:	04d00713          	li	a4,77
     766:	0f87f793          	andi	a5,a5,248
     76a:	02e787b3          	mul	a5,a5,a4
     76e:	40355713          	srai	a4,a0,0x3
     772:	09600693          	li	a3,150
     776:	0fc77713          	andi	a4,a4,252
     77a:	050e                	slli	a0,a0,0x3
     77c:	0ff57513          	andi	a0,a0,255
     780:	02d70733          	mul	a4,a4,a3
     784:	97ba                	add	a5,a5,a4
     786:	4775                	li	a4,29
     788:	02e50533          	mul	a0,a0,a4
     78c:	953e                	add	a0,a0,a5
     78e:	08050513          	addi	a0,a0,128
     792:	8521                	srai	a0,a0,0x8
     794:	0ff57513          	andi	a0,a0,255
     798:	8082                	ret

0000079a <Inter_Linear_gray>:
     79a:	7131                	addi	sp,sp,-192
     79c:	d03e                	sw	a5,32(sp)
     79e:	000077b7          	lui	a5,0x7
     7a2:	d94a                	sw	s2,176(sp)
     7a4:	c76e                	sw	s11,140(sp)
     7a6:	e287a903          	lw	s2,-472(a5) # 6e28 <strlen+0x3f2>
     7aa:	e2c7ad83          	lw	s11,-468(a5)
     7ae:	fff60793          	addi	a5,a2,-1
     7b2:	dc3e                	sw	a5,56(sp)
     7b4:	000077b7          	lui	a5,0x7
     7b8:	da3a                	sw	a4,52(sp)
     7ba:	e307a703          	lw	a4,-464(a5) # 6e30 <strlen+0x3fa>
     7be:	e347a783          	lw	a5,-460(a5)
     7c2:	db26                	sw	s1,180(sp)
     7c4:	c96a                	sw	s10,144(sp)
     7c6:	c83e                	sw	a5,16(sp)
     7c8:	fff68793          	addi	a5,a3,-1
     7cc:	de3e                	sw	a5,60(sp)
     7ce:	df06                	sw	ra,188(sp)
     7d0:	dd22                	sw	s0,184(sp)
     7d2:	d74e                	sw	s3,172(sp)
     7d4:	d552                	sw	s4,168(sp)
     7d6:	d356                	sw	s5,164(sp)
     7d8:	d15a                	sw	s6,160(sp)
     7da:	cf5e                	sw	s7,156(sp)
     7dc:	cd62                	sw	s8,152(sp)
     7de:	cb66                	sw	s9,148(sp)
     7e0:	d62a                	sw	a0,44(sp)
     7e2:	d832                	sw	a2,48(sp)
     7e4:	ca2e                	sw	a1,20(sp)
     7e6:	c0ca                	sw	s2,64(sp)
     7e8:	c2ee                	sw	s11,68(sp)
     7ea:	c23a                	sw	a4,4(sp)
     7ec:	c4ca                	sw	s2,72(sp)
     7ee:	c6ee                	sw	s11,76(sp)
     7f0:	c8ca                	sw	s2,80(sp)
     7f2:	caee                	sw	s11,84(sp)
     7f4:	ccba                	sw	a4,88(sp)
     7f6:	47c2                	lw	a5,16(sp)
     7f8:	84b6                	mv	s1,a3
     7fa:	4d01                	li	s10,0
     7fc:	cebe                	sw	a5,92(sp)
     7fe:	47c2                	lw	a5,16(sp)
     800:	d0ba                	sw	a4,96(sp)
     802:	d4ba                	sw	a4,104(sp)
     804:	d2be                	sw	a5,100(sp)
     806:	47c2                	lw	a5,16(sp)
     808:	d6be                	sw	a5,108(sp)
     80a:	57d2                	lw	a5,52(sp)
     80c:	02fd4163          	blt	s10,a5,82e <__stack_size+0x2e>
     810:	50fa                	lw	ra,188(sp)
     812:	546a                	lw	s0,184(sp)
     814:	54da                	lw	s1,180(sp)
     816:	594a                	lw	s2,176(sp)
     818:	59ba                	lw	s3,172(sp)
     81a:	5a2a                	lw	s4,168(sp)
     81c:	5a9a                	lw	s5,164(sp)
     81e:	5b0a                	lw	s6,160(sp)
     820:	4bfa                	lw	s7,156(sp)
     822:	4c6a                	lw	s8,152(sp)
     824:	4cda                	lw	s9,148(sp)
     826:	4d4a                	lw	s10,144(sp)
     828:	4dba                	lw	s11,140(sp)
     82a:	6129                	addi	sp,sp,192
     82c:	8082                	ret
     82e:	856a                	mv	a0,s10
     830:	114050ef          	jal	ra,5944 <__floatsidf>
     834:	864a                	mv	a2,s2
     836:	86ee                	mv	a3,s11
     838:	46d030ef          	jal	ra,44a4 <__adddf3>
     83c:	57c2                	lw	a5,48(sp)
     83e:	5752                	lw	a4,52(sp)
     840:	8a2a                	mv	s4,a0
     842:	8aae                	mv	s5,a1
     844:	02e7c533          	div	a0,a5,a4
     848:	0fc050ef          	jal	ra,5944 <__floatsidf>
     84c:	862a                	mv	a2,a0
     84e:	86ae                	mv	a3,a1
     850:	8552                	mv	a0,s4
     852:	85d6                	mv	a1,s5
     854:	436040ef          	jal	ra,4c8a <__muldf3>
     858:	4606                	lw	a2,64(sp)
     85a:	4696                	lw	a3,68(sp)
     85c:	0e7040ef          	jal	ra,5142 <__subdf3>
     860:	4601                	li	a2,0
     862:	4681                	li	a3,0
     864:	89aa                	mv	s3,a0
     866:	842e                	mv	s0,a1
     868:	36c040ef          	jal	ra,4bd4 <__ledf2>
     86c:	00055463          	bgez	a0,874 <__stack_size+0x74>
     870:	4981                	li	s3,0
     872:	4401                	li	s0,0
     874:	5562                	lw	a0,56(sp)
     876:	0ce050ef          	jal	ra,5944 <__floatsidf>
     87a:	864e                	mv	a2,s3
     87c:	86a2                	mv	a3,s0
     87e:	8aaa                	mv	s5,a0
     880:	8a2e                	mv	s4,a1
     882:	352040ef          	jal	ra,4bd4 <__ledf2>
     886:	00a04463          	bgtz	a0,88e <__stack_size+0x8e>
     88a:	89d6                	mv	s3,s5
     88c:	8452                	mv	s0,s4
     88e:	85a2                	mv	a1,s0
     890:	854e                	mv	a0,s3
     892:	7ef040ef          	jal	ra,5880 <__fixdfsi>
     896:	8a2a                	mv	s4,a0
     898:	0ac050ef          	jal	ra,5944 <__floatsidf>
     89c:	862a                	mv	a2,a0
     89e:	86ae                	mv	a3,a1
     8a0:	854e                	mv	a0,s3
     8a2:	85a2                	mv	a1,s0
     8a4:	09f040ef          	jal	ra,5142 <__subdf3>
     8a8:	029a07b3          	mul	a5,s4,s1
     8ac:	4612                	lw	a2,4(sp)
     8ae:	46c2                	lw	a3,16(sp)
     8b0:	c42a                	sw	a0,8(sp)
     8b2:	c62e                	sw	a1,12(sp)
     8b4:	854e                	mv	a0,s3
     8b6:	85a2                	mv	a1,s0
     8b8:	4401                	li	s0,0
     8ba:	d23e                	sw	a5,36(sp)
     8bc:	3e9030ef          	jal	ra,44a4 <__adddf3>
     8c0:	7c1040ef          	jal	ra,5880 <__fixdfsi>
     8c4:	029507b3          	mul	a5,a0,s1
     8c8:	d43e                	sw	a5,40(sp)
     8ca:	5782                	lw	a5,32(sp)
     8cc:	00f44863          	blt	s0,a5,8dc <__stack_size+0xdc>
     8d0:	47d2                	lw	a5,20(sp)
     8d2:	5702                	lw	a4,32(sp)
     8d4:	0d05                	addi	s10,s10,1
     8d6:	97ba                	add	a5,a5,a4
     8d8:	ca3e                	sw	a5,20(sp)
     8da:	bf05                	j	80a <__stack_size+0xa>
     8dc:	8522                	mv	a0,s0
     8de:	066050ef          	jal	ra,5944 <__floatsidf>
     8e2:	4626                	lw	a2,72(sp)
     8e4:	46b6                	lw	a3,76(sp)
     8e6:	3bf030ef          	jal	ra,44a4 <__adddf3>
     8ea:	5782                	lw	a5,32(sp)
     8ec:	8a2a                	mv	s4,a0
     8ee:	8aae                	mv	s5,a1
     8f0:	02f4c533          	div	a0,s1,a5
     8f4:	050050ef          	jal	ra,5944 <__floatsidf>
     8f8:	862a                	mv	a2,a0
     8fa:	86ae                	mv	a3,a1
     8fc:	8552                	mv	a0,s4
     8fe:	85d6                	mv	a1,s5
     900:	38a040ef          	jal	ra,4c8a <__muldf3>
     904:	4646                	lw	a2,80(sp)
     906:	46d6                	lw	a3,84(sp)
     908:	03b040ef          	jal	ra,5142 <__subdf3>
     90c:	4601                	li	a2,0
     90e:	4681                	li	a3,0
     910:	8c2a                	mv	s8,a0
     912:	89ae                	mv	s3,a1
     914:	2c0040ef          	jal	ra,4bd4 <__ledf2>
     918:	00055463          	bgez	a0,920 <__stack_size+0x120>
     91c:	4c01                	li	s8,0
     91e:	4981                	li	s3,0
     920:	5572                	lw	a0,60(sp)
     922:	022050ef          	jal	ra,5944 <__floatsidf>
     926:	8662                	mv	a2,s8
     928:	86ce                	mv	a3,s3
     92a:	8aaa                	mv	s5,a0
     92c:	8a2e                	mv	s4,a1
     92e:	2a6040ef          	jal	ra,4bd4 <__ledf2>
     932:	00a04463          	bgtz	a0,93a <__stack_size+0x13a>
     936:	8c56                	mv	s8,s5
     938:	89d2                	mv	s3,s4
     93a:	85ce                	mv	a1,s3
     93c:	8562                	mv	a0,s8
     93e:	743040ef          	jal	ra,5880 <__fixdfsi>
     942:	8caa                	mv	s9,a0
     944:	000050ef          	jal	ra,5944 <__floatsidf>
     948:	862a                	mv	a2,a0
     94a:	86ae                	mv	a3,a1
     94c:	8562                	mv	a0,s8
     94e:	85ce                	mv	a1,s3
     950:	7f2040ef          	jal	ra,5142 <__subdf3>
     954:	4622                	lw	a2,8(sp)
     956:	46b2                	lw	a3,12(sp)
     958:	cc2a                	sw	a0,24(sp)
     95a:	ce2e                	sw	a1,28(sp)
     95c:	4566                	lw	a0,88(sp)
     95e:	45f6                	lw	a1,92(sp)
     960:	7e2040ef          	jal	ra,5142 <__subdf3>
     964:	8b2a                	mv	s6,a0
     966:	8bae                	mv	s7,a1
     968:	4662                	lw	a2,24(sp)
     96a:	46f2                	lw	a3,28(sp)
     96c:	5506                	lw	a0,96(sp)
     96e:	5596                	lw	a1,100(sp)
     970:	7d2040ef          	jal	ra,5142 <__subdf3>
     974:	5626                	lw	a2,104(sp)
     976:	56b6                	lw	a3,108(sp)
     978:	8a2a                	mv	s4,a0
     97a:	8aae                	mv	s5,a1
     97c:	8562                	mv	a0,s8
     97e:	85ce                	mv	a1,s3
     980:	325030ef          	jal	ra,44a4 <__adddf3>
     984:	6fd040ef          	jal	ra,5880 <__fixdfsi>
     988:	47d2                	lw	a5,20(sp)
     98a:	d8aa                	sw	a0,112(sp)
     98c:	008789b3          	add	s3,a5,s0
     990:	57b2                	lw	a5,44(sp)
     992:	0405                	addi	s0,s0,1
     994:	01978733          	add	a4,a5,s9
     998:	5792                	lw	a5,36(sp)
     99a:	deba                	sw	a4,124(sp)
     99c:	97ba                	add	a5,a5,a4
     99e:	0007c503          	lbu	a0,0(a5)
     9a2:	7a3040ef          	jal	ra,5944 <__floatsidf>
     9a6:	8c2a                	mv	s8,a0
     9a8:	8cae                	mv	s9,a1
     9aa:	8652                	mv	a2,s4
     9ac:	86d6                	mv	a3,s5
     9ae:	855a                	mv	a0,s6
     9b0:	85de                	mv	a1,s7
     9b2:	2d8040ef          	jal	ra,4c8a <__muldf3>
     9b6:	862a                	mv	a2,a0
     9b8:	86ae                	mv	a3,a1
     9ba:	8562                	mv	a0,s8
     9bc:	85e6                	mv	a1,s9
     9be:	2cc040ef          	jal	ra,4c8a <__muldf3>
     9c2:	5846                	lw	a6,112(sp)
     9c4:	57b2                	lw	a5,44(sp)
     9c6:	5712                	lw	a4,36(sp)
     9c8:	8c2a                	mv	s8,a0
     9ca:	97c2                	add	a5,a5,a6
     9cc:	00e786b3          	add	a3,a5,a4
     9d0:	0006c503          	lbu	a0,0(a3)
     9d4:	dcbe                	sw	a5,120(sp)
     9d6:	8cae                	mv	s9,a1
     9d8:	76d040ef          	jal	ra,5944 <__floatsidf>
     9dc:	4662                	lw	a2,24(sp)
     9de:	d8aa                	sw	a0,112(sp)
     9e0:	daae                	sw	a1,116(sp)
     9e2:	46f2                	lw	a3,28(sp)
     9e4:	855a                	mv	a0,s6
     9e6:	85de                	mv	a1,s7
     9e8:	2a2040ef          	jal	ra,4c8a <__muldf3>
     9ec:	5846                	lw	a6,112(sp)
     9ee:	58d6                	lw	a7,116(sp)
     9f0:	862a                	mv	a2,a0
     9f2:	86ae                	mv	a3,a1
     9f4:	8542                	mv	a0,a6
     9f6:	85c6                	mv	a1,a7
     9f8:	292040ef          	jal	ra,4c8a <__muldf3>
     9fc:	862a                	mv	a2,a0
     9fe:	86ae                	mv	a3,a1
     a00:	8562                	mv	a0,s8
     a02:	85e6                	mv	a1,s9
     a04:	2a1030ef          	jal	ra,44a4 <__adddf3>
     a08:	57a2                	lw	a5,40(sp)
     a0a:	5776                	lw	a4,124(sp)
     a0c:	8b2a                	mv	s6,a0
     a0e:	8bae                	mv	s7,a1
     a10:	973e                	add	a4,a4,a5
     a12:	00074503          	lbu	a0,0(a4)
     a16:	72f040ef          	jal	ra,5944 <__floatsidf>
     a1a:	4622                	lw	a2,8(sp)
     a1c:	46b2                	lw	a3,12(sp)
     a1e:	8c2a                	mv	s8,a0
     a20:	8cae                	mv	s9,a1
     a22:	8552                	mv	a0,s4
     a24:	85d6                	mv	a1,s5
     a26:	264040ef          	jal	ra,4c8a <__muldf3>
     a2a:	862a                	mv	a2,a0
     a2c:	86ae                	mv	a3,a1
     a2e:	8562                	mv	a0,s8
     a30:	85e6                	mv	a1,s9
     a32:	258040ef          	jal	ra,4c8a <__muldf3>
     a36:	862a                	mv	a2,a0
     a38:	86ae                	mv	a3,a1
     a3a:	855a                	mv	a0,s6
     a3c:	85de                	mv	a1,s7
     a3e:	267030ef          	jal	ra,44a4 <__adddf3>
     a42:	5722                	lw	a4,40(sp)
     a44:	57e6                	lw	a5,120(sp)
     a46:	8a2a                	mv	s4,a0
     a48:	8aae                	mv	s5,a1
     a4a:	97ba                	add	a5,a5,a4
     a4c:	0007c503          	lbu	a0,0(a5)
     a50:	6f5040ef          	jal	ra,5944 <__floatsidf>
     a54:	8b2a                	mv	s6,a0
     a56:	8bae                	mv	s7,a1
     a58:	4662                	lw	a2,24(sp)
     a5a:	46f2                	lw	a3,28(sp)
     a5c:	4522                	lw	a0,8(sp)
     a5e:	45b2                	lw	a1,12(sp)
     a60:	22a040ef          	jal	ra,4c8a <__muldf3>
     a64:	862a                	mv	a2,a0
     a66:	86ae                	mv	a3,a1
     a68:	855a                	mv	a0,s6
     a6a:	85de                	mv	a1,s7
     a6c:	21e040ef          	jal	ra,4c8a <__muldf3>
     a70:	862a                	mv	a2,a0
     a72:	86ae                	mv	a3,a1
     a74:	8552                	mv	a0,s4
     a76:	85d6                	mv	a1,s5
     a78:	22d030ef          	jal	ra,44a4 <__adddf3>
     a7c:	66d040ef          	jal	ra,58e8 <__fixunsdfsi>
     a80:	fff54513          	not	a0,a0
     a84:	00a98023          	sb	a0,0(s3)
     a88:	b589                	j	8ca <__stack_size+0xca>

00000a8a <otsu_binarization>:
     a8a:	02c587b3          	mul	a5,a1,a2
     a8e:	711d                	addi	sp,sp,-96
     a90:	cca2                	sw	s0,88(sp)
     a92:	c6ce                	sw	s3,76(sp)
     a94:	c0da                	sw	s6,64(sp)
     a96:	d66e                	sw	s11,44(sp)
     a98:	ce86                	sw	ra,92(sp)
     a9a:	caa6                	sw	s1,84(sp)
     a9c:	c8ca                	sw	s2,80(sp)
     a9e:	c4d2                	sw	s4,72(sp)
     aa0:	ca3e                	sw	a5,20(sp)
     aa2:	00000793          	li	a5,0
     aa6:	c63e                	sw	a5,12(sp)
     aa8:	000077b7          	lui	a5,0x7
     aac:	e387a783          	lw	a5,-456(a5) # 6e38 <strlen+0x402>
     ab0:	c2d6                	sw	s5,68(sp)
     ab2:	de5e                	sw	s7,60(sp)
     ab4:	dc62                	sw	s8,56(sp)
     ab6:	da66                	sw	s9,52(sp)
     ab8:	d86a                	sw	s10,48(sp)
     aba:	8daa                	mv	s11,a0
     abc:	8b2e                	mv	s6,a1
     abe:	89b2                	mv	s3,a2
     ac0:	c802                	sw	zero,16(sp)
     ac2:	4405                	li	s0,1
     ac4:	cc3e                	sw	a5,24(sp)
     ac6:	00000c93          	li	s9,0
     aca:	8bee                	mv	s7,s11
     acc:	8d6e                	mv	s10,s11
     ace:	4901                	li	s2,0
     ad0:	8c66                	mv	s8,s9
     ad2:	4481                	li	s1,0
     ad4:	4a01                	li	s4,0
     ad6:	a82d                	j	b10 <otsu_binarization+0x86>
     ad8:	015d07b3          	add	a5,s10,s5
     adc:	0007c783          	lbu	a5,0(a5)
     ae0:	853e                	mv	a0,a5
     ae2:	ce3e                	sw	a5,28(sp)
     ae4:	493050ef          	jal	ra,6776 <__floatsisf>
     ae8:	47f2                	lw	a5,28(sp)
     aea:	85aa                	mv	a1,a0
     aec:	0a87f963          	bgeu	a5,s0,b9e <otsu_binarization+0x114>
     af0:	8562                	mv	a0,s8
     af2:	0485                	addi	s1,s1,1
     af4:	04c2                	slli	s1,s1,0x10
     af6:	7c7040ef          	jal	ra,5abc <__addsf3>
     afa:	80c1                	srli	s1,s1,0x10
     afc:	8c2a                	mv	s8,a0
     afe:	0a85                	addi	s5,s5,1
     b00:	0ffaf793          	andi	a5,s5,255
     b04:	fd37eae3          	bltu	a5,s3,ad8 <otsu_binarization+0x4e>
     b08:	0a05                	addi	s4,s4,1
     b0a:	0ffa7a13          	andi	s4,s4,255
     b0e:	9d4e                	add	s10,s10,s3
     b10:	0b6a1063          	bne	s4,s6,bb0 <otsu_binarization+0x126>
     b14:	8526                	mv	a0,s1
     b16:	527050ef          	jal	ra,683c <__floatunsisf>
     b1a:	8aaa                	mv	s5,a0
     b1c:	00000a13          	li	s4,0
     b20:	c491                	beqz	s1,b2c <otsu_binarization+0xa2>
     b22:	85aa                	mv	a1,a0
     b24:	8562                	mv	a0,s8
     b26:	300050ef          	jal	ra,5e26 <__divsf3>
     b2a:	8a2a                	mv	s4,a0
     b2c:	4552                	lw	a0,20(sp)
     b2e:	449050ef          	jal	ra,6776 <__floatsisf>
     b32:	85aa                	mv	a1,a0
     b34:	8556                	mv	a0,s5
     b36:	2f0050ef          	jal	ra,5e26 <__divsf3>
     b3a:	84aa                	mv	s1,a0
     b3c:	00000593          	li	a1,0
     b40:	00090a63          	beqz	s2,b54 <otsu_binarization+0xca>
     b44:	854a                	mv	a0,s2
     b46:	4f7050ef          	jal	ra,683c <__floatunsisf>
     b4a:	85aa                	mv	a1,a0
     b4c:	8566                	mv	a0,s9
     b4e:	2d8050ef          	jal	ra,5e26 <__divsf3>
     b52:	85aa                	mv	a1,a0
     b54:	8552                	mv	a0,s4
     b56:	099050ef          	jal	ra,63ee <__subsf3>
     b5a:	892a                	mv	s2,a0
     b5c:	4562                	lw	a0,24(sp)
     b5e:	85a6                	mv	a1,s1
     b60:	08f050ef          	jal	ra,63ee <__subsf3>
     b64:	85a6                	mv	a1,s1
     b66:	5f8050ef          	jal	ra,615e <__mulsf3>
     b6a:	84aa                	mv	s1,a0
     b6c:	85ca                	mv	a1,s2
     b6e:	854a                	mv	a0,s2
     b70:	5ee050ef          	jal	ra,615e <__mulsf3>
     b74:	85aa                	mv	a1,a0
     b76:	8526                	mv	a0,s1
     b78:	5e6050ef          	jal	ra,615e <__mulsf3>
     b7c:	45b2                	lw	a1,12(sp)
     b7e:	84aa                	mv	s1,a0
     b80:	558050ef          	jal	ra,60d8 <__gesf2>
     b84:	00a05463          	blez	a0,b8c <otsu_binarization+0x102>
     b88:	c822                	sw	s0,16(sp)
     b8a:	c626                	sw	s1,12(sp)
     b8c:	0405                	addi	s0,s0,1
     b8e:	0ff47413          	andi	s0,s0,255
     b92:	0ff00793          	li	a5,255
     b96:	f2f418e3          	bne	s0,a5,ac6 <otsu_binarization+0x3c>
     b9a:	4781                	li	a5,0
     b9c:	a835                	j	bd8 <otsu_binarization+0x14e>
     b9e:	8566                	mv	a0,s9
     ba0:	0905                	addi	s2,s2,1
     ba2:	0942                	slli	s2,s2,0x10
     ba4:	719040ef          	jal	ra,5abc <__addsf3>
     ba8:	01095913          	srli	s2,s2,0x10
     bac:	8caa                	mv	s9,a0
     bae:	bf81                	j	afe <otsu_binarization+0x74>
     bb0:	4a81                	li	s5,0
     bb2:	b7b9                	j	b00 <otsu_binarization+0x76>
     bb4:	00064683          	lbu	a3,0(a2)
     bb8:	45c2                	lw	a1,16(sp)
     bba:	0705                	addi	a4,a4,1
     bbc:	0ff77713          	andi	a4,a4,255
     bc0:	00b6b6b3          	sltu	a3,a3,a1
     bc4:	16fd                	addi	a3,a3,-1
     bc6:	00d60023          	sb	a3,0(a2)
     bca:	0605                	addi	a2,a2,1
     bcc:	ff3714e3          	bne	a4,s3,bb4 <otsu_binarization+0x12a>
     bd0:	0785                	addi	a5,a5,1
     bd2:	0ff7f793          	andi	a5,a5,255
     bd6:	9bce                	add	s7,s7,s3
     bd8:	03679163          	bne	a5,s6,bfa <otsu_binarization+0x170>
     bdc:	40f6                	lw	ra,92(sp)
     bde:	4466                	lw	s0,88(sp)
     be0:	44d6                	lw	s1,84(sp)
     be2:	4946                	lw	s2,80(sp)
     be4:	49b6                	lw	s3,76(sp)
     be6:	4a26                	lw	s4,72(sp)
     be8:	4a96                	lw	s5,68(sp)
     bea:	4b06                	lw	s6,64(sp)
     bec:	5bf2                	lw	s7,60(sp)
     bee:	5c62                	lw	s8,56(sp)
     bf0:	5cd2                	lw	s9,52(sp)
     bf2:	5d42                	lw	s10,48(sp)
     bf4:	5db2                	lw	s11,44(sp)
     bf6:	6125                	addi	sp,sp,96
     bf8:	8082                	ret
     bfa:	865e                	mv	a2,s7
     bfc:	4701                	li	a4,0
     bfe:	b7f9                	j	bcc <otsu_binarization+0x142>

00000c00 <Morphology_Dilate>:
     c00:	c5010113          	addi	sp,sp,-944
     c04:	3a812423          	sw	s0,936(sp)
     c08:	3a912223          	sw	s1,932(sp)
     c0c:	3b212023          	sw	s2,928(sp)
     c10:	84aa                	mv	s1,a0
     c12:	892e                	mv	s2,a1
     c14:	8432                	mv	s0,a2
     c16:	4581                	li	a1,0
     c18:	38400613          	li	a2,900
     c1c:	0868                	addi	a0,sp,28
     c1e:	c636                	sw	a3,12(sp)
     c20:	3a112623          	sw	ra,940(sp)
     c24:	ddcff0ef          	jal	ra,200 <memset>
     c28:	46b2                	lw	a3,12(sp)
     c2a:	087c                	addi	a5,sp,28
     c2c:	85a6                	mv	a1,s1
     c2e:	4701                	li	a4,0
     c30:	05271663          	bne	a4,s2,c7c <Morphology_Dilate+0x7c>
     c34:	4881                	li	a7,0
     c36:	4379                	li	t1,30
     c38:	0fe00e13          	li	t3,254
     c3c:	5efd                	li	t4,-1
     c3e:	0ad89863          	bne	a7,a3,cee <Morphology_Dilate+0xee>
     c42:	3ac12083          	lw	ra,940(sp)
     c46:	3a812403          	lw	s0,936(sp)
     c4a:	3a412483          	lw	s1,932(sp)
     c4e:	3a012903          	lw	s2,928(sp)
     c52:	3b010113          	addi	sp,sp,944
     c56:	8082                	ret
     c58:	00c58833          	add	a6,a1,a2
     c5c:	00084803          	lbu	a6,0(a6)
     c60:	0605                	addi	a2,a2,1
     c62:	01050f23          	sb	a6,30(a0)
     c66:	0ff67813          	andi	a6,a2,255
     c6a:	0505                	addi	a0,a0,1
     c6c:	fe8866e3          	bltu	a6,s0,c58 <Morphology_Dilate+0x58>
     c70:	0705                	addi	a4,a4,1
     c72:	0ff77713          	andi	a4,a4,255
     c76:	07f9                	addi	a5,a5,30
     c78:	95a2                	add	a1,a1,s0
     c7a:	bf5d                	j	c30 <Morphology_Dilate+0x30>
     c7c:	853e                	mv	a0,a5
     c7e:	4601                	li	a2,0
     c80:	b7dd                	j	c66 <Morphology_Dilate+0x66>
     c82:	00e50633          	add	a2,a0,a4
     c86:	00e58833          	add	a6,a1,a4
     c8a:	c7c84803          	lbu	a6,-900(a6)
     c8e:	c7c64603          	lbu	a2,-900(a2)
     c92:	9642                	add	a2,a2,a6
     c94:	00e78833          	add	a6,a5,a4
     c98:	c7b84283          	lbu	t0,-901(a6)
     c9c:	c7d84803          	lbu	a6,-899(a6)
     ca0:	9616                	add	a2,a2,t0
     ca2:	9642                	add	a2,a2,a6
     ca4:	00ce7763          	bgeu	t3,a2,cb2 <Morphology_Dilate+0xb2>
     ca8:	00e48633          	add	a2,s1,a4
     cac:	967a                	add	a2,a2,t5
     cae:	01d60023          	sb	t4,0(a2)
     cb2:	0705                	addi	a4,a4,1
     cb4:	0ff77713          	andi	a4,a4,255
     cb8:	fce475e3          	bgeu	s0,a4,c82 <Morphology_Dilate+0x82>
     cbc:	0ffff793          	andi	a5,t6,255
     cc0:	02f96963          	bltu	s2,a5,cf2 <Morphology_Dilate+0xf2>
     cc4:	fff78613          	addi	a2,a5,-1
     cc8:	00178f93          	addi	t6,a5,1
     ccc:	02860733          	mul	a4,a2,s0
     cd0:	170c                	addi	a1,sp,928
     cd2:	02660633          	mul	a2,a2,t1
     cd6:	fff70f13          	addi	t5,a4,-1
     cda:	4705                	li	a4,1
     cdc:	026f8533          	mul	a0,t6,t1
     ce0:	026787b3          	mul	a5,a5,t1
     ce4:	952e                	add	a0,a0,a1
     ce6:	95b2                	add	a1,a1,a2
     ce8:	1710                	addi	a2,sp,928
     cea:	97b2                	add	a5,a5,a2
     cec:	b7f1                	j	cb8 <Morphology_Dilate+0xb8>
     cee:	4785                	li	a5,1
     cf0:	bfc1                	j	cc0 <Morphology_Dilate+0xc0>
     cf2:	00188793          	addi	a5,a7,1
     cf6:	0ff7f893          	andi	a7,a5,255
     cfa:	b791                	j	c3e <Morphology_Dilate+0x3e>

00000cfc <Model_GetInputImg_Gray>:
     cfc:	81010113          	addi	sp,sp,-2032
     d00:	7e812423          	sw	s0,2024(sp)
     d04:	7e912223          	sw	s1,2020(sp)
     d08:	7f212023          	sw	s2,2016(sp)
     d0c:	7d312e23          	sw	s3,2012(sp)
     d10:	7d612823          	sw	s6,2000(sp)
     d14:	7e112623          	sw	ra,2028(sp)
     d18:	7d412c23          	sw	s4,2008(sp)
     d1c:	7d512a23          	sw	s5,2004(sp)
     d20:	88010113          	addi	sp,sp,-1920
     d24:	84aa                	mv	s1,a0
     d26:	89ae                	mv	s3,a1
     d28:	31000613          	li	a2,784
     d2c:	4581                	li	a1,0
     d2e:	850a                	mv	a0,sp
     d30:	cd0ff0ef          	jal	ra,200 <memset>
     d34:	6785                	lui	a5,0x1
     d36:	747d                	lui	s0,0xfffff
     d38:	f5078793          	addi	a5,a5,-176 # f50 <cam_getimg_5656+0xd0>
     d3c:	6909                	lui	s2,0x2
     d3e:	3c040413          	addi	s0,s0,960 # fffff3c0 <GEC_USER_RAM_END+0xdffdf3c0>
     d42:	978a                	add	a5,a5,sp
     d44:	88090913          	addi	s2,s2,-1920 # 1880 <LCD_WR_DATA8+0x22>
     d48:	943e                	add	s0,s0,a5
     d4a:	9926                	add	s2,s2,s1
     d4c:	03800b13          	li	s6,56
     d50:	8aa6                	mv	s5,s1
     d52:	4a01                	li	s4,0
     d54:	000ad503          	lhu	a0,0(s5)
     d58:	0a89                	addi	s5,s5,2
     d5a:	a05ff0ef          	jal	ra,75e <rgb565togray_256>
     d5e:	014407b3          	add	a5,s0,s4
     d62:	00a78023          	sb	a0,0(a5)
     d66:	0a05                	addi	s4,s4,1
     d68:	ff6a16e3          	bne	s4,s6,d54 <Model_GetInputImg_Gray+0x58>
     d6c:	07048493          	addi	s1,s1,112
     d70:	03840413          	addi	s0,s0,56
     d74:	fd249ee3          	bne	s1,s2,d50 <Model_GetInputImg_Gray+0x54>
     d78:	6485                	lui	s1,0x1
     d7a:	757d                	lui	a0,0xfffff
     d7c:	f5048793          	addi	a5,s1,-176 # f50 <cam_getimg_5656+0xd0>
     d80:	0b050413          	addi	s0,a0,176 # fffff0b0 <GEC_USER_RAM_END+0xdffdf0b0>
     d84:	978a                	add	a5,a5,sp
     d86:	f5048493          	addi	s1,s1,-176
     d8a:	943e                	add	s0,s0,a5
     d8c:	3c050513          	addi	a0,a0,960
     d90:	948a                	add	s1,s1,sp
     d92:	4771                	li	a4,28
     d94:	47f1                	li	a5,28
     d96:	03800693          	li	a3,56
     d9a:	85a2                	mv	a1,s0
     d9c:	03800613          	li	a2,56
     da0:	9526                	add	a0,a0,s1
     da2:	9f9ff0ef          	jal	ra,79a <Inter_Linear_gray>
     da6:	8522                	mv	a0,s0
     da8:	4671                	li	a2,28
     daa:	45f1                	li	a1,28
     dac:	39f9                	jal	a8a <otsu_binarization>
     dae:	4671                	li	a2,28
     db0:	8522                	mv	a0,s0
     db2:	4685                	li	a3,1
     db4:	45f1                	li	a1,28
     db6:	35a9                	jal	c00 <Morphology_Dilate>
     db8:	04098713          	addi	a4,s3,64
     dbc:	03840413          	addi	s0,s0,56
     dc0:	3c098993          	addi	s3,s3,960
     dc4:	4679                	li	a2,30
     dc6:	86a2                	mv	a3,s0
     dc8:	4789                	li	a5,2
     dca:	fc86c503          	lbu	a0,-56(a3)
     dce:	00f705b3          	add	a1,a4,a5
     dd2:	0785                	addi	a5,a5,1
     dd4:	00a58023          	sb	a0,0(a1)
     dd8:	0685                	addi	a3,a3,1
     dda:	fec798e3          	bne	a5,a2,dca <Model_GetInputImg_Gray+0xce>
     dde:	02070713          	addi	a4,a4,32
     de2:	0471                	addi	s0,s0,28
     de4:	ff3711e3          	bne	a4,s3,dc6 <Model_GetInputImg_Gray+0xca>
     de8:	78010113          	addi	sp,sp,1920
     dec:	7ec12083          	lw	ra,2028(sp)
     df0:	4505                	li	a0,1
     df2:	7e812403          	lw	s0,2024(sp)
     df6:	7e412483          	lw	s1,2020(sp)
     dfa:	7e012903          	lw	s2,2016(sp)
     dfe:	7dc12983          	lw	s3,2012(sp)
     e02:	7d812a03          	lw	s4,2008(sp)
     e06:	7d412a83          	lw	s5,2004(sp)
     e0a:	7d012b03          	lw	s6,2000(sp)
     e0e:	7f010113          	addi	sp,sp,2032
     e12:	8082                	ret

00000e14 <cam_FIFO_WRST_1>:
     e14:	4605                	li	a2,1
     e16:	4585                	li	a1,1
     e18:	20900513          	li	a0,521
     e1c:	7730106f          	j	2d8e <gpio_init>

00000e20 <cam_FIFO_WRST_0>:
     e20:	4601                	li	a2,0
     e22:	4585                	li	a1,1
     e24:	20900513          	li	a0,521
     e28:	7670106f          	j	2d8e <gpio_init>

00000e2c <cam_FIFO_WR_1>:
     e2c:	4605                	li	a2,1
     e2e:	4585                	li	a1,1
     e30:	10800513          	li	a0,264
     e34:	75b0106f          	j	2d8e <gpio_init>

00000e38 <cam_FIFO_WR_0>:
     e38:	4601                	li	a2,0
     e3a:	4585                	li	a1,1
     e3c:	10800513          	li	a0,264
     e40:	74f0106f          	j	2d8e <gpio_init>

00000e44 <cam_FIFO_RCK_0>:
     e44:	4581                	li	a1,0
     e46:	453d                	li	a0,15
     e48:	71d0106f          	j	2d64 <gpio_set>

00000e4c <cam_FIFO_RCK_1>:
     e4c:	4585                	li	a1,1
     e4e:	453d                	li	a0,15
     e50:	7150106f          	j	2d64 <gpio_set>

00000e54 <cam_FIFO_RRST_0>:
     e54:	4601                	li	a2,0
     e56:	4585                	li	a1,1
     e58:	20800513          	li	a0,520
     e5c:	7330106f          	j	2d8e <gpio_init>

00000e60 <cam_FIFO_RRST_1>:
     e60:	4605                	li	a2,1
     e62:	4585                	li	a1,1
     e64:	20800513          	li	a0,520
     e68:	7270106f          	j	2d8e <gpio_init>

00000e6c <cam_FIFO_OE_0>:
     e6c:	4601                	li	a2,0
     e6e:	4585                	li	a1,1
     e70:	4521                	li	a0,8
     e72:	71d0106f          	j	2d8e <gpio_init>

00000e76 <cam_FIFO_OE_1>:
     e76:	4605                	li	a2,1
     e78:	4585                	li	a1,1
     e7a:	4521                	li	a0,8
     e7c:	7130106f          	j	2d8e <gpio_init>

00000e80 <cam_getimg_5656>:
     e80:	7139                	addi	sp,sp,-64
     e82:	d256                	sw	s5,36(sp)
     e84:	20002ab7          	lui	s5,0x20002
     e88:	919ac783          	lbu	a5,-1767(s5) # 20001919 <cam_refresh_end>
     e8c:	de06                	sw	ra,60(sp)
     e8e:	dc22                	sw	s0,56(sp)
     e90:	da26                	sw	s1,52(sp)
     e92:	d84a                	sw	s2,48(sp)
     e94:	d64e                	sw	s3,44(sp)
     e96:	d452                	sw	s4,40(sp)
     e98:	d05a                	sw	s6,32(sp)
     e9a:	ce5e                	sw	s7,28(sp)
     e9c:	cc62                	sw	s8,24(sp)
     e9e:	ca66                	sw	s9,20(sp)
     ea0:	c86a                	sw	s10,16(sp)
     ea2:	c66e                	sw	s11,12(sp)
     ea4:	12078863          	beqz	a5,fd4 <cam_getimg_5656+0x154>
     ea8:	37d1                	jal	e6c <cam_FIFO_OE_0>
     eaa:	376d                	jal	e54 <cam_FIFO_RRST_0>
     eac:	3f61                	jal	e44 <cam_FIFO_RCK_0>
     eae:	3f79                	jal	e4c <cam_FIFO_RCK_1>
     eb0:	3f51                	jal	e44 <cam_FIFO_RCK_0>
     eb2:	377d                	jal	e60 <cam_FIFO_RRST_1>
     eb4:	3f61                	jal	e4c <cam_FIFO_RCK_1>
     eb6:	0c000693          	li	a3,192
     eba:	0ce00613          	li	a2,206
     ebe:	45e5                	li	a1,25
     ec0:	02800513          	li	a0,40
     ec4:	243000ef          	jal	ra,1906 <Address_set>
     ec8:	6441                	lui	s0,0x10
     eca:	40011737          	lui	a4,0x40011
     ece:	20000db7          	lui	s11,0x20000
     ed2:	fdb40413          	addi	s0,s0,-37 # ffdb <_data_lma+0x8837>
     ed6:	4c81                	li	s9,0
     ed8:	4481                	li	s1,0
     eda:	80070c13          	addi	s8,a4,-2048 # 40010800 <GEC_USER_RAM_END+0x1fff0800>
     ede:	6d21                	lui	s10,0x8
     ee0:	66a1                	lui	a3,0x8
     ee2:	08cd8d93          	addi	s11,s11,140 # 2000008c <image16>
     ee6:	02540a13          	addi	s4,s0,37
     eea:	0a42                	slli	s4,s4,0x10
     eec:	010a5a13          	srli	s4,s4,0x10
     ef0:	478d                	li	a5,3
     ef2:	02fa7a33          	remu	s4,s4,a5
     ef6:	4981                	li	s3,0
     ef8:	0a600b13          	li	s6,166
     efc:	4b89                	li	s7,2
     efe:	00dc2a23          	sw	a3,20(s8)
     f02:	0e8b6c63          	bltu	s6,s0,ffa <cam_getimg_5656+0x17a>
     f06:	fb398793          	addi	a5,s3,-77
     f0a:	07c2                	slli	a5,a5,0x10
     f0c:	83c1                	srli	a5,a5,0x10
     f0e:	0efb6663          	bltu	s6,a5,ffa <cam_getimg_5656+0x17a>
     f12:	40070613          	addi	a2,a4,1024
     f16:	461c                	lw	a5,8(a2)
     f18:	01ac2823          	sw	s10,16(s8)
     f1c:	0001                	nop
     f1e:	01ac2a23          	sw	s10,20(s8)
     f22:	0001                	nop
     f24:	4604                	lw	s1,8(a2)
     f26:	07a2                	slli	a5,a5,0x8
     f28:	40012937          	lui	s2,0x40012
     f2c:	0ff4f493          	andi	s1,s1,255
     f30:	8cdd                	or	s1,s1,a5
     f32:	04c2                	slli	s1,s1,0x10
     f34:	4785                	li	a5,1
     f36:	80f92823          	sw	a5,-2032(s2) # 40011810 <GEC_USER_RAM_END+0x1fff1810>
     f3a:	80c1                	srli	s1,s1,0x10
     f3c:	0084d593          	srli	a1,s1,0x8
     f40:	81792a23          	sw	s7,-2028(s2)
     f44:	4509                	li	a0,2
     f46:	6f8020ef          	jal	ra,363e <spi_send1>
     f4a:	0ff4f593          	andi	a1,s1,255
     f4e:	4509                	li	a0,2
     f50:	6ee020ef          	jal	ra,363e <spi_send1>
     f54:	40011737          	lui	a4,0x40011
     f58:	81792823          	sw	s7,-2032(s2)
     f5c:	66a1                	lui	a3,0x8
     f5e:	01ac2823          	sw	s10,16(s8)
     f62:	037a1863          	bne	s4,s7,f92 <cam_getimg_5656+0x112>
     f66:	478d                	li	a5,3
     f68:	02f9f7b3          	remu	a5,s3,a5
     f6c:	03479363          	bne	a5,s4,f92 <cam_getimg_5656+0x112>
     f70:	028b6163          	bltu	s6,s0,f92 <cam_getimg_5656+0x112>
     f74:	fb398793          	addi	a5,s3,-77
     f78:	07c2                	slli	a5,a5,0x10
     f7a:	83c1                	srli	a5,a5,0x10
     f7c:	00fb6b63          	bltu	s6,a5,f92 <cam_getimg_5656+0x112>
     f80:	001c9793          	slli	a5,s9,0x1
     f84:	0c85                	addi	s9,s9,1
     f86:	97ee                	add	a5,a5,s11
     f88:	0cc2                	slli	s9,s9,0x10
     f8a:	00979023          	sh	s1,0(a5)
     f8e:	010cdc93          	srli	s9,s9,0x10
     f92:	0985                	addi	s3,s3,1
     f94:	09c2                	slli	s3,s3,0x10
     f96:	0109d993          	srli	s3,s3,0x10
     f9a:	14000793          	li	a5,320
     f9e:	f6f990e3          	bne	s3,a5,efe <cam_getimg_5656+0x7e>
     fa2:	0405                	addi	s0,s0,1
     fa4:	0442                	slli	s0,s0,0x10
     fa6:	8041                	srli	s0,s0,0x10
     fa8:	0cb00793          	li	a5,203
     fac:	f2f41de3          	bne	s0,a5,ee6 <cam_getimg_5656+0x66>
     fb0:	35d9                	jal	e76 <cam_FIFO_OE_1>
     fb2:	3d49                	jal	e44 <cam_FIFO_RCK_0>
     fb4:	3d61                	jal	e4c <cam_FIFO_RCK_1>
     fb6:	200027b7          	lui	a5,0x20002
     fba:	96078623          	sb	zero,-1684(a5) # 2000196c <cam_ready>
     fbe:	45b1                	li	a1,12
     fc0:	200027b7          	lui	a5,0x20002
     fc4:	20c00513          	li	a0,524
     fc8:	96078523          	sb	zero,-1686(a5) # 2000196a <cam_fifo_ready>
     fcc:	900a8ca3          	sb	zero,-1767(s5)
     fd0:	70d010ef          	jal	ra,2edc <gpio_enable_int>
     fd4:	50f2                	lw	ra,60(sp)
     fd6:	5462                	lw	s0,56(sp)
     fd8:	20000537          	lui	a0,0x20000
     fdc:	54d2                	lw	s1,52(sp)
     fde:	5942                	lw	s2,48(sp)
     fe0:	59b2                	lw	s3,44(sp)
     fe2:	5a22                	lw	s4,40(sp)
     fe4:	5a92                	lw	s5,36(sp)
     fe6:	5b02                	lw	s6,32(sp)
     fe8:	4bf2                	lw	s7,28(sp)
     fea:	4c62                	lw	s8,24(sp)
     fec:	4cd2                	lw	s9,20(sp)
     fee:	4d42                	lw	s10,16(sp)
     ff0:	4db2                	lw	s11,12(sp)
     ff2:	08c50513          	addi	a0,a0,140 # 2000008c <image16>
     ff6:	6121                	addi	sp,sp,64
     ff8:	8082                	ret
     ffa:	01ac2823          	sw	s10,16(s8)
     ffe:	01ac2a23          	sw	s10,20(s8)
    1002:	bfb1                	j	f5e <cam_getimg_5656+0xde>

00001004 <cam_gpio_init>:
    1004:	1141                	addi	sp,sp,-16
    1006:	4601                	li	a2,0
    1008:	4585                	li	a1,1
    100a:	453d                	li	a0,15
    100c:	c606                	sw	ra,12(sp)
    100e:	581010ef          	jal	ra,2d8e <gpio_init>
    1012:	4605                	li	a2,1
    1014:	4581                	li	a1,0
    1016:	20c00513          	li	a0,524
    101a:	575010ef          	jal	ra,2d8e <gpio_init>
    101e:	00007537          	lui	a0,0x7
    1022:	e3c50513          	addi	a0,a0,-452 # 6e3c <strlen+0x406>
    1026:	596010ef          	jal	ra,25bc <myprintf>
    102a:	4605                	li	a2,1
    102c:	4581                	li	a1,0
    102e:	30000513          	li	a0,768
    1032:	55d010ef          	jal	ra,2d8e <gpio_init>
    1036:	4605                	li	a2,1
    1038:	4581                	li	a1,0
    103a:	30100513          	li	a0,769
    103e:	551010ef          	jal	ra,2d8e <gpio_init>
    1042:	4605                	li	a2,1
    1044:	4581                	li	a1,0
    1046:	30200513          	li	a0,770
    104a:	545010ef          	jal	ra,2d8e <gpio_init>
    104e:	4605                	li	a2,1
    1050:	4581                	li	a1,0
    1052:	30300513          	li	a0,771
    1056:	539010ef          	jal	ra,2d8e <gpio_init>
    105a:	4605                	li	a2,1
    105c:	4581                	li	a1,0
    105e:	30400513          	li	a0,772
    1062:	52d010ef          	jal	ra,2d8e <gpio_init>
    1066:	4605                	li	a2,1
    1068:	4581                	li	a1,0
    106a:	30500513          	li	a0,773
    106e:	521010ef          	jal	ra,2d8e <gpio_init>
    1072:	4605                	li	a2,1
    1074:	4581                	li	a1,0
    1076:	30600513          	li	a0,774
    107a:	515010ef          	jal	ra,2d8e <gpio_init>
    107e:	4605                	li	a2,1
    1080:	4581                	li	a1,0
    1082:	30700513          	li	a0,775
    1086:	509010ef          	jal	ra,2d8e <gpio_init>
    108a:	40b2                	lw	ra,12(sp)
    108c:	0141                	addi	sp,sp,16
    108e:	bbf9                	j	e6c <cam_FIFO_OE_0>

00001090 <cam_reg_write>:
    1090:	862e                	mv	a2,a1
    1092:	85aa                	mv	a1,a0
    1094:	04200513          	li	a0,66
    1098:	6e40106f          	j	277c <SCCB_Write>

0000109c <cam_reg_read>:
    109c:	862e                	mv	a2,a1
    109e:	85aa                	mv	a1,a0
    10a0:	04200513          	li	a0,66
    10a4:	7bc0106f          	j	2860 <SCCB_Read>

000010a8 <cam_config_window>:
    10a8:	7179                	addi	sp,sp,-48
    10aa:	d422                	sw	s0,40(sp)
    10ac:	00169413          	slli	s0,a3,0x1
    10b0:	d226                	sw	s1,36(sp)
    10b2:	942e                	add	s0,s0,a1
    10b4:	00161493          	slli	s1,a2,0x1
    10b8:	94aa                	add	s1,s1,a0
    10ba:	0442                	slli	s0,s0,0x10
    10bc:	d04a                	sw	s2,32(sp)
    10be:	ce4e                	sw	s3,28(sp)
    10c0:	04c2                	slli	s1,s1,0x10
    10c2:	d606                	sw	ra,44(sp)
    10c4:	8041                	srli	s0,s0,0x10
    10c6:	31000793          	li	a5,784
    10ca:	89aa                	mv	s3,a0
    10cc:	892e                	mv	s2,a1
    10ce:	80c1                	srli	s1,s1,0x10
    10d0:	0087f663          	bgeu	a5,s0,10dc <cam_config_window+0x34>
    10d4:	cf040413          	addi	s0,s0,-784
    10d8:	0442                	slli	s0,s0,0x10
    10da:	8041                	srli	s0,s0,0x10
    10dc:	00e10593          	addi	a1,sp,14
    10e0:	450d                	li	a0,3
    10e2:	3f6d                	jal	109c <cam_reg_read>
    10e4:	00e14583          	lbu	a1,14(sp)
    10e8:	0039f793          	andi	a5,s3,3
    10ec:	450d                	li	a0,3
    10ee:	99c1                	andi	a1,a1,-16
    10f0:	8ddd                	or	a1,a1,a5
    10f2:	00249793          	slli	a5,s1,0x2
    10f6:	8bb1                	andi	a5,a5,12
    10f8:	8ddd                	or	a1,a1,a5
    10fa:	00b10723          	sb	a1,14(sp)
    10fe:	3f49                	jal	1090 <cam_reg_write>
    1100:	0029d593          	srli	a1,s3,0x2
    1104:	0ff5f593          	andi	a1,a1,255
    1108:	4565                	li	a0,25
    110a:	3759                	jal	1090 <cam_reg_write>
    110c:	0024d593          	srli	a1,s1,0x2
    1110:	0ff5f593          	andi	a1,a1,255
    1114:	4569                	li	a0,26
    1116:	3fad                	jal	1090 <cam_reg_write>
    1118:	00f10593          	addi	a1,sp,15
    111c:	03200513          	li	a0,50
    1120:	3fb5                	jal	109c <cam_reg_read>
    1122:	00f14783          	lbu	a5,15(sp)
    1126:	00797713          	andi	a4,s2,7
    112a:	00395593          	srli	a1,s2,0x3
    112e:	fc07f793          	andi	a5,a5,-64
    1132:	8fd9                	or	a5,a5,a4
    1134:	00341713          	slli	a4,s0,0x3
    1138:	03877713          	andi	a4,a4,56
    113c:	8fd9                	or	a5,a5,a4
    113e:	0ff5f593          	andi	a1,a1,255
    1142:	455d                	li	a0,23
    1144:	00f107a3          	sb	a5,15(sp)
    1148:	37a1                	jal	1090 <cam_reg_write>
    114a:	00345593          	srli	a1,s0,0x3
    114e:	0ff5f593          	andi	a1,a1,255
    1152:	4561                	li	a0,24
    1154:	3f35                	jal	1090 <cam_reg_write>
    1156:	50b2                	lw	ra,44(sp)
    1158:	5422                	lw	s0,40(sp)
    115a:	5492                	lw	s1,36(sp)
    115c:	5902                	lw	s2,32(sp)
    115e:	49f2                	lw	s3,28(sp)
    1160:	6145                	addi	sp,sp,48
    1162:	8082                	ret

00001164 <cam_reg_init>:
    1164:	1141                	addi	sp,sp,-16
    1166:	4591                	li	a1,4
    1168:	03a00513          	li	a0,58
    116c:	c606                	sw	ra,12(sp)
    116e:	370d                	jal	1090 <cam_reg_write>
    1170:	0d000593          	li	a1,208
    1174:	04000513          	li	a0,64
    1178:	3f21                	jal	1090 <cam_reg_write>
    117a:	45d1                	li	a1,20
    117c:	4549                	li	a0,18
    117e:	3f09                	jal	1090 <cam_reg_write>
    1180:	08000593          	li	a1,128
    1184:	03200513          	li	a0,50
    1188:	3721                	jal	1090 <cam_reg_write>
    118a:	45d9                	li	a1,22
    118c:	455d                	li	a0,23
    118e:	3709                	jal	1090 <cam_reg_write>
    1190:	4591                	li	a1,4
    1192:	4561                	li	a0,24
    1194:	3df5                	jal	1090 <cam_reg_write>
    1196:	4589                	li	a1,2
    1198:	4565                	li	a0,25
    119a:	3ddd                	jal	1090 <cam_reg_write>
    119c:	07b00593          	li	a1,123
    11a0:	4569                	li	a0,26
    11a2:	35fd                	jal	1090 <cam_reg_write>
    11a4:	4599                	li	a1,6
    11a6:	450d                	li	a0,3
    11a8:	35e5                	jal	1090 <cam_reg_write>
    11aa:	4581                	li	a1,0
    11ac:	4531                	li	a0,12
    11ae:	35cd                	jal	1090 <cam_reg_write>
    11b0:	4581                	li	a1,0
    11b2:	4555                	li	a0,21
    11b4:	3df1                	jal	1090 <cam_reg_write>
    11b6:	4581                	li	a1,0
    11b8:	03e00513          	li	a0,62
    11bc:	3dd1                	jal	1090 <cam_reg_write>
    11be:	03a00593          	li	a1,58
    11c2:	07000513          	li	a0,112
    11c6:	35e9                	jal	1090 <cam_reg_write>
    11c8:	03500593          	li	a1,53
    11cc:	07100513          	li	a0,113
    11d0:	35c1                	jal	1090 <cam_reg_write>
    11d2:	45c5                	li	a1,17
    11d4:	07200513          	li	a0,114
    11d8:	3d65                	jal	1090 <cam_reg_write>
    11da:	4581                	li	a1,0
    11dc:	07300513          	li	a0,115
    11e0:	3d45                	jal	1090 <cam_reg_write>
    11e2:	4589                	li	a1,2
    11e4:	0a200513          	li	a0,162
    11e8:	3565                	jal	1090 <cam_reg_write>
    11ea:	08100593          	li	a1,129
    11ee:	4545                	li	a0,17
    11f0:	3545                	jal	1090 <cam_reg_write>
    11f2:	02000593          	li	a1,32
    11f6:	07a00513          	li	a0,122
    11fa:	3d59                	jal	1090 <cam_reg_write>
    11fc:	45f1                	li	a1,28
    11fe:	07b00513          	li	a0,123
    1202:	3579                	jal	1090 <cam_reg_write>
    1204:	02800593          	li	a1,40
    1208:	07c00513          	li	a0,124
    120c:	3551                	jal	1090 <cam_reg_write>
    120e:	03c00593          	li	a1,60
    1212:	07d00513          	li	a0,125
    1216:	3dad                	jal	1090 <cam_reg_write>
    1218:	05500593          	li	a1,85
    121c:	07e00513          	li	a0,126
    1220:	3d85                	jal	1090 <cam_reg_write>
    1222:	06800593          	li	a1,104
    1226:	07f00513          	li	a0,127
    122a:	359d                	jal	1090 <cam_reg_write>
    122c:	07600593          	li	a1,118
    1230:	08000513          	li	a0,128
    1234:	3db1                	jal	1090 <cam_reg_write>
    1236:	08000593          	li	a1,128
    123a:	08100513          	li	a0,129
    123e:	3d89                	jal	1090 <cam_reg_write>
    1240:	08800593          	li	a1,136
    1244:	08200513          	li	a0,130
    1248:	35a1                	jal	1090 <cam_reg_write>
    124a:	08f00593          	li	a1,143
    124e:	08300513          	li	a0,131
    1252:	3d3d                	jal	1090 <cam_reg_write>
    1254:	09600593          	li	a1,150
    1258:	08400513          	li	a0,132
    125c:	3d15                	jal	1090 <cam_reg_write>
    125e:	0a300593          	li	a1,163
    1262:	08500513          	li	a0,133
    1266:	352d                	jal	1090 <cam_reg_write>
    1268:	0af00593          	li	a1,175
    126c:	08600513          	li	a0,134
    1270:	3505                	jal	1090 <cam_reg_write>
    1272:	0c400593          	li	a1,196
    1276:	08700513          	li	a0,135
    127a:	3d19                	jal	1090 <cam_reg_write>
    127c:	0d700593          	li	a1,215
    1280:	08800513          	li	a0,136
    1284:	3531                	jal	1090 <cam_reg_write>
    1286:	0e800593          	li	a1,232
    128a:	08900513          	li	a0,137
    128e:	3509                	jal	1090 <cam_reg_write>
    1290:	0e000593          	li	a1,224
    1294:	454d                	li	a0,19
    1296:	3bed                	jal	1090 <cam_reg_write>
    1298:	4581                	li	a1,0
    129a:	4501                	li	a0,0
    129c:	3bd5                	jal	1090 <cam_reg_write>
    129e:	4581                	li	a1,0
    12a0:	4541                	li	a0,16
    12a2:	33fd                	jal	1090 <cam_reg_write>
    12a4:	03000593          	li	a1,48
    12a8:	4535                	li	a0,13
    12aa:	33dd                	jal	1090 <cam_reg_write>
    12ac:	02800593          	li	a1,40
    12b0:	4551                	li	a0,20
    12b2:	3bf9                	jal	1090 <cam_reg_write>
    12b4:	4595                	li	a1,5
    12b6:	0a500513          	li	a0,165
    12ba:	3bd9                	jal	1090 <cam_reg_write>
    12bc:	459d                	li	a1,7
    12be:	0ab00513          	li	a0,171
    12c2:	33f9                	jal	1090 <cam_reg_write>
    12c4:	07500593          	li	a1,117
    12c8:	02400513          	li	a0,36
    12cc:	33d1                	jal	1090 <cam_reg_write>
    12ce:	06300593          	li	a1,99
    12d2:	02500513          	li	a0,37
    12d6:	3b6d                	jal	1090 <cam_reg_write>
    12d8:	0a500593          	li	a1,165
    12dc:	02600513          	li	a0,38
    12e0:	3b45                	jal	1090 <cam_reg_write>
    12e2:	07800593          	li	a1,120
    12e6:	09f00513          	li	a0,159
    12ea:	335d                	jal	1090 <cam_reg_write>
    12ec:	06800593          	li	a1,104
    12f0:	0a000513          	li	a0,160
    12f4:	3b71                	jal	1090 <cam_reg_write>
    12f6:	458d                	li	a1,3
    12f8:	0a100513          	li	a0,161
    12fc:	3b51                	jal	1090 <cam_reg_write>
    12fe:	0df00593          	li	a1,223
    1302:	0a600513          	li	a0,166
    1306:	3369                	jal	1090 <cam_reg_write>
    1308:	0df00593          	li	a1,223
    130c:	0a700513          	li	a0,167
    1310:	3341                	jal	1090 <cam_reg_write>
    1312:	0f000593          	li	a1,240
    1316:	0a800513          	li	a0,168
    131a:	3b9d                	jal	1090 <cam_reg_write>
    131c:	09000593          	li	a1,144
    1320:	0a900513          	li	a0,169
    1324:	33b5                	jal	1090 <cam_reg_write>
    1326:	09400593          	li	a1,148
    132a:	0aa00513          	li	a0,170
    132e:	338d                	jal	1090 <cam_reg_write>
    1330:	0e500593          	li	a1,229
    1334:	454d                	li	a0,19
    1336:	3ba9                	jal	1090 <cam_reg_write>
    1338:	06100593          	li	a1,97
    133c:	4539                	li	a0,14
    133e:	3b89                	jal	1090 <cam_reg_write>
    1340:	04b00593          	li	a1,75
    1344:	453d                	li	a0,15
    1346:	33a9                	jal	1090 <cam_reg_write>
    1348:	4589                	li	a1,2
    134a:	4559                	li	a0,22
    134c:	3391                	jal	1090 <cam_reg_write>
    134e:	03700593          	li	a1,55
    1352:	4579                	li	a0,30
    1354:	3b35                	jal	1090 <cam_reg_write>
    1356:	4589                	li	a1,2
    1358:	02100513          	li	a0,33
    135c:	3b15                	jal	1090 <cam_reg_write>
    135e:	09100593          	li	a1,145
    1362:	02200513          	li	a0,34
    1366:	332d                	jal	1090 <cam_reg_write>
    1368:	459d                	li	a1,7
    136a:	02900513          	li	a0,41
    136e:	330d                	jal	1090 <cam_reg_write>
    1370:	45ad                	li	a1,11
    1372:	03300513          	li	a0,51
    1376:	3b29                	jal	1090 <cam_reg_write>
    1378:	45ad                	li	a1,11
    137a:	03500513          	li	a0,53
    137e:	3b09                	jal	1090 <cam_reg_write>
    1380:	45f5                	li	a1,29
    1382:	03700513          	li	a0,55
    1386:	3329                	jal	1090 <cam_reg_write>
    1388:	07100593          	li	a1,113
    138c:	03800513          	li	a0,56
    1390:	3301                	jal	1090 <cam_reg_write>
    1392:	02a00593          	li	a1,42
    1396:	03900513          	li	a0,57
    139a:	39dd                	jal	1090 <cam_reg_write>
    139c:	07800593          	li	a1,120
    13a0:	03c00513          	li	a0,60
    13a4:	31f5                	jal	1090 <cam_reg_write>
    13a6:	04000593          	li	a1,64
    13aa:	04d00513          	li	a0,77
    13ae:	31cd                	jal	1090 <cam_reg_write>
    13b0:	02000593          	li	a1,32
    13b4:	04e00513          	li	a0,78
    13b8:	39e1                	jal	1090 <cam_reg_write>
    13ba:	4581                	li	a1,0
    13bc:	06900513          	li	a0,105
    13c0:	39c1                	jal	1090 <cam_reg_write>
    13c2:	04000593          	li	a1,64
    13c6:	06b00513          	li	a0,107
    13ca:	31d9                	jal	1090 <cam_reg_write>
    13cc:	45e5                	li	a1,25
    13ce:	07400513          	li	a0,116
    13d2:	397d                	jal	1090 <cam_reg_write>
    13d4:	04f00593          	li	a1,79
    13d8:	08d00513          	li	a0,141
    13dc:	3955                	jal	1090 <cam_reg_write>
    13de:	4581                	li	a1,0
    13e0:	08e00513          	li	a0,142
    13e4:	3175                	jal	1090 <cam_reg_write>
    13e6:	4581                	li	a1,0
    13e8:	08f00513          	li	a0,143
    13ec:	3155                	jal	1090 <cam_reg_write>
    13ee:	4581                	li	a1,0
    13f0:	09000513          	li	a0,144
    13f4:	3971                	jal	1090 <cam_reg_write>
    13f6:	4581                	li	a1,0
    13f8:	09100513          	li	a0,145
    13fc:	3951                	jal	1090 <cam_reg_write>
    13fe:	4581                	li	a1,0
    1400:	09200513          	li	a0,146
    1404:	3171                	jal	1090 <cam_reg_write>
    1406:	4581                	li	a1,0
    1408:	09600513          	li	a0,150
    140c:	3151                	jal	1090 <cam_reg_write>
    140e:	08000593          	li	a1,128
    1412:	09a00513          	li	a0,154
    1416:	39ad                	jal	1090 <cam_reg_write>
    1418:	08400593          	li	a1,132
    141c:	0b000513          	li	a0,176
    1420:	3985                	jal	1090 <cam_reg_write>
    1422:	45b1                	li	a1,12
    1424:	0b100513          	li	a0,177
    1428:	31a5                	jal	1090 <cam_reg_write>
    142a:	45b9                	li	a1,14
    142c:	0b200513          	li	a0,178
    1430:	3185                	jal	1090 <cam_reg_write>
    1432:	08200593          	li	a1,130
    1436:	0b300513          	li	a0,179
    143a:	3999                	jal	1090 <cam_reg_write>
    143c:	45a9                	li	a1,10
    143e:	0b800513          	li	a0,184
    1442:	31b9                	jal	1090 <cam_reg_write>
    1444:	45d1                	li	a1,20
    1446:	04300513          	li	a0,67
    144a:	3199                	jal	1090 <cam_reg_write>
    144c:	0f000593          	li	a1,240
    1450:	04400513          	li	a0,68
    1454:	3935                	jal	1090 <cam_reg_write>
    1456:	03400593          	li	a1,52
    145a:	04500513          	li	a0,69
    145e:	390d                	jal	1090 <cam_reg_write>
    1460:	05800593          	li	a1,88
    1464:	04600513          	li	a0,70
    1468:	3125                	jal	1090 <cam_reg_write>
    146a:	02800593          	li	a1,40
    146e:	04700513          	li	a0,71
    1472:	3939                	jal	1090 <cam_reg_write>
    1474:	03a00593          	li	a1,58
    1478:	04800513          	li	a0,72
    147c:	3911                	jal	1090 <cam_reg_write>
    147e:	08800593          	li	a1,136
    1482:	05900513          	li	a0,89
    1486:	3129                	jal	1090 <cam_reg_write>
    1488:	08800593          	li	a1,136
    148c:	05a00513          	li	a0,90
    1490:	3101                	jal	1090 <cam_reg_write>
    1492:	04400593          	li	a1,68
    1496:	05b00513          	li	a0,91
    149a:	3edd                	jal	1090 <cam_reg_write>
    149c:	06700593          	li	a1,103
    14a0:	05c00513          	li	a0,92
    14a4:	36f5                	jal	1090 <cam_reg_write>
    14a6:	04900593          	li	a1,73
    14aa:	05d00513          	li	a0,93
    14ae:	36cd                	jal	1090 <cam_reg_write>
    14b0:	45b9                	li	a1,14
    14b2:	05e00513          	li	a0,94
    14b6:	3ee9                	jal	1090 <cam_reg_write>
    14b8:	4591                	li	a1,4
    14ba:	06400513          	li	a0,100
    14be:	3ec9                	jal	1090 <cam_reg_write>
    14c0:	02000593          	li	a1,32
    14c4:	06500513          	li	a0,101
    14c8:	36e1                	jal	1090 <cam_reg_write>
    14ca:	4595                	li	a1,5
    14cc:	06600513          	li	a0,102
    14d0:	36c1                	jal	1090 <cam_reg_write>
    14d2:	4591                	li	a1,4
    14d4:	09400513          	li	a0,148
    14d8:	3e65                	jal	1090 <cam_reg_write>
    14da:	45a1                	li	a1,8
    14dc:	09500513          	li	a0,149
    14e0:	3e45                	jal	1090 <cam_reg_write>
    14e2:	45a9                	li	a1,10
    14e4:	06c00513          	li	a0,108
    14e8:	3665                	jal	1090 <cam_reg_write>
    14ea:	05500593          	li	a1,85
    14ee:	06d00513          	li	a0,109
    14f2:	3e79                	jal	1090 <cam_reg_write>
    14f4:	08000593          	li	a1,128
    14f8:	04f00513          	li	a0,79
    14fc:	3e51                	jal	1090 <cam_reg_write>
    14fe:	08000593          	li	a1,128
    1502:	05000513          	li	a0,80
    1506:	3669                	jal	1090 <cam_reg_write>
    1508:	4581                	li	a1,0
    150a:	05100513          	li	a0,81
    150e:	3649                	jal	1090 <cam_reg_write>
    1510:	02200593          	li	a1,34
    1514:	05200513          	li	a0,82
    1518:	3ea5                	jal	1090 <cam_reg_write>
    151a:	05e00593          	li	a1,94
    151e:	05300513          	li	a0,83
    1522:	36bd                	jal	1090 <cam_reg_write>
    1524:	08000593          	li	a1,128
    1528:	05400513          	li	a0,84
    152c:	3695                	jal	1090 <cam_reg_write>
    152e:	458d                	li	a1,3
    1530:	4525                	li	a0,9
    1532:	3eb9                	jal	1090 <cam_reg_write>
    1534:	45c5                	li	a1,17
    1536:	06e00513          	li	a0,110
    153a:	3e99                	jal	1090 <cam_reg_write>
    153c:	09f00593          	li	a1,159
    1540:	06f00513          	li	a0,111
    1544:	36b1                	jal	1090 <cam_reg_write>
    1546:	04000593          	li	a1,64
    154a:	05500513          	li	a0,85
    154e:	3689                	jal	1090 <cam_reg_write>
    1550:	04000593          	li	a1,64
    1554:	05600513          	li	a0,86
    1558:	3e25                	jal	1090 <cam_reg_write>
    155a:	04000593          	li	a1,64
    155e:	05700513          	li	a0,87
    1562:	363d                	jal	1090 <cam_reg_write>
    1564:	04000593          	li	a1,64
    1568:	06a00513          	li	a0,106
    156c:	3615                	jal	1090 <cam_reg_write>
    156e:	04000593          	li	a1,64
    1572:	4505                	li	a0,1
    1574:	3e31                	jal	1090 <cam_reg_write>
    1576:	04000593          	li	a1,64
    157a:	4509                	li	a0,2
    157c:	b15ff0ef          	jal	ra,1090 <cam_reg_write>
    1580:	0e700593          	li	a1,231
    1584:	454d                	li	a0,19
    1586:	b0bff0ef          	jal	ra,1090 <cam_reg_write>
    158a:	4581                	li	a1,0
    158c:	4555                	li	a0,21
    158e:	b03ff0ef          	jal	ra,1090 <cam_reg_write>
    1592:	09e00593          	li	a1,158
    1596:	05800513          	li	a0,88
    159a:	af7ff0ef          	jal	ra,1090 <cam_reg_write>
    159e:	45a1                	li	a1,8
    15a0:	04100513          	li	a0,65
    15a4:	aedff0ef          	jal	ra,1090 <cam_reg_write>
    15a8:	4581                	li	a1,0
    15aa:	03f00513          	li	a0,63
    15ae:	ae3ff0ef          	jal	ra,1090 <cam_reg_write>
    15b2:	4595                	li	a1,5
    15b4:	07500513          	li	a0,117
    15b8:	ad9ff0ef          	jal	ra,1090 <cam_reg_write>
    15bc:	0e100593          	li	a1,225
    15c0:	07600513          	li	a0,118
    15c4:	acdff0ef          	jal	ra,1090 <cam_reg_write>
    15c8:	4581                	li	a1,0
    15ca:	04c00513          	li	a0,76
    15ce:	ac3ff0ef          	jal	ra,1090 <cam_reg_write>
    15d2:	4585                	li	a1,1
    15d4:	07700513          	li	a0,119
    15d8:	ab9ff0ef          	jal	ra,1090 <cam_reg_write>
    15dc:	0c200593          	li	a1,194
    15e0:	03d00513          	li	a0,61
    15e4:	aadff0ef          	jal	ra,1090 <cam_reg_write>
    15e8:	45a5                	li	a1,9
    15ea:	04b00513          	li	a0,75
    15ee:	aa3ff0ef          	jal	ra,1090 <cam_reg_write>
    15f2:	06000593          	li	a1,96
    15f6:	0c900513          	li	a0,201
    15fa:	a97ff0ef          	jal	ra,1090 <cam_reg_write>
    15fe:	03800593          	li	a1,56
    1602:	04100513          	li	a0,65
    1606:	a8bff0ef          	jal	ra,1090 <cam_reg_write>
    160a:	45c5                	li	a1,17
    160c:	03400513          	li	a0,52
    1610:	a81ff0ef          	jal	ra,1090 <cam_reg_write>
    1614:	4589                	li	a1,2
    1616:	03b00513          	li	a0,59
    161a:	a77ff0ef          	jal	ra,1090 <cam_reg_write>
    161e:	08900593          	li	a1,137
    1622:	0a400513          	li	a0,164
    1626:	a6bff0ef          	jal	ra,1090 <cam_reg_write>
    162a:	4581                	li	a1,0
    162c:	09600513          	li	a0,150
    1630:	a61ff0ef          	jal	ra,1090 <cam_reg_write>
    1634:	03000593          	li	a1,48
    1638:	09700513          	li	a0,151
    163c:	a55ff0ef          	jal	ra,1090 <cam_reg_write>
    1640:	02000593          	li	a1,32
    1644:	09800513          	li	a0,152
    1648:	a49ff0ef          	jal	ra,1090 <cam_reg_write>
    164c:	03000593          	li	a1,48
    1650:	09900513          	li	a0,153
    1654:	a3dff0ef          	jal	ra,1090 <cam_reg_write>
    1658:	08400593          	li	a1,132
    165c:	09a00513          	li	a0,154
    1660:	a31ff0ef          	jal	ra,1090 <cam_reg_write>
    1664:	02900593          	li	a1,41
    1668:	09b00513          	li	a0,155
    166c:	a25ff0ef          	jal	ra,1090 <cam_reg_write>
    1670:	458d                	li	a1,3
    1672:	09c00513          	li	a0,156
    1676:	a1bff0ef          	jal	ra,1090 <cam_reg_write>
    167a:	04c00593          	li	a1,76
    167e:	09d00513          	li	a0,157
    1682:	a0fff0ef          	jal	ra,1090 <cam_reg_write>
    1686:	03f00593          	li	a1,63
    168a:	09e00513          	li	a0,158
    168e:	a03ff0ef          	jal	ra,1090 <cam_reg_write>
    1692:	4591                	li	a1,4
    1694:	07800513          	li	a0,120
    1698:	9f9ff0ef          	jal	ra,1090 <cam_reg_write>
    169c:	4585                	li	a1,1
    169e:	07900513          	li	a0,121
    16a2:	9efff0ef          	jal	ra,1090 <cam_reg_write>
    16a6:	0f000593          	li	a1,240
    16aa:	0c800513          	li	a0,200
    16ae:	9e3ff0ef          	jal	ra,1090 <cam_reg_write>
    16b2:	45bd                	li	a1,15
    16b4:	07900513          	li	a0,121
    16b8:	9d9ff0ef          	jal	ra,1090 <cam_reg_write>
    16bc:	4581                	li	a1,0
    16be:	0c800513          	li	a0,200
    16c2:	9cfff0ef          	jal	ra,1090 <cam_reg_write>
    16c6:	45c1                	li	a1,16
    16c8:	07900513          	li	a0,121
    16cc:	9c5ff0ef          	jal	ra,1090 <cam_reg_write>
    16d0:	07e00593          	li	a1,126
    16d4:	0c800513          	li	a0,200
    16d8:	9b9ff0ef          	jal	ra,1090 <cam_reg_write>
    16dc:	45a9                	li	a1,10
    16de:	07900513          	li	a0,121
    16e2:	9afff0ef          	jal	ra,1090 <cam_reg_write>
    16e6:	08000593          	li	a1,128
    16ea:	0c800513          	li	a0,200
    16ee:	9a3ff0ef          	jal	ra,1090 <cam_reg_write>
    16f2:	45ad                	li	a1,11
    16f4:	07900513          	li	a0,121
    16f8:	999ff0ef          	jal	ra,1090 <cam_reg_write>
    16fc:	4585                	li	a1,1
    16fe:	0c800513          	li	a0,200
    1702:	98fff0ef          	jal	ra,1090 <cam_reg_write>
    1706:	45b1                	li	a1,12
    1708:	07900513          	li	a0,121
    170c:	985ff0ef          	jal	ra,1090 <cam_reg_write>
    1710:	45bd                	li	a1,15
    1712:	0c800513          	li	a0,200
    1716:	97bff0ef          	jal	ra,1090 <cam_reg_write>
    171a:	45b5                	li	a1,13
    171c:	07900513          	li	a0,121
    1720:	971ff0ef          	jal	ra,1090 <cam_reg_write>
    1724:	02000593          	li	a1,32
    1728:	0c800513          	li	a0,200
    172c:	965ff0ef          	jal	ra,1090 <cam_reg_write>
    1730:	45a5                	li	a1,9
    1732:	07900513          	li	a0,121
    1736:	95bff0ef          	jal	ra,1090 <cam_reg_write>
    173a:	08000593          	li	a1,128
    173e:	0c800513          	li	a0,200
    1742:	94fff0ef          	jal	ra,1090 <cam_reg_write>
    1746:	4589                	li	a1,2
    1748:	07900513          	li	a0,121
    174c:	945ff0ef          	jal	ra,1090 <cam_reg_write>
    1750:	0c000593          	li	a1,192
    1754:	0c800513          	li	a0,200
    1758:	939ff0ef          	jal	ra,1090 <cam_reg_write>
    175c:	458d                	li	a1,3
    175e:	07900513          	li	a0,121
    1762:	92fff0ef          	jal	ra,1090 <cam_reg_write>
    1766:	04000593          	li	a1,64
    176a:	0c800513          	li	a0,200
    176e:	923ff0ef          	jal	ra,1090 <cam_reg_write>
    1772:	4595                	li	a1,5
    1774:	07900513          	li	a0,121
    1778:	919ff0ef          	jal	ra,1090 <cam_reg_write>
    177c:	03000593          	li	a1,48
    1780:	0c800513          	li	a0,200
    1784:	90dff0ef          	jal	ra,1090 <cam_reg_write>
    1788:	02600593          	li	a1,38
    178c:	07900513          	li	a0,121
    1790:	901ff0ef          	jal	ra,1090 <cam_reg_write>
    1794:	40b2                	lw	ra,12(sp)
    1796:	4581                	li	a1,0
    1798:	4525                	li	a0,9
    179a:	0141                	addi	sp,sp,16
    179c:	8f5ff06f          	j	1090 <cam_reg_write>

000017a0 <Delay_us>:
    17a0:	66e1                	lui	a3,0x18
    17a2:	4701                	li	a4,0
    17a4:	200005b7          	lui	a1,0x20000
    17a8:	3e800613          	li	a2,1000
    17ac:	6a068693          	addi	a3,a3,1696 # 186a0 <_data_lma+0x10efc>
    17b0:	0805a783          	lw	a5,128(a1) # 20000080 <SystemCoreClock>
    17b4:	02c7d7b3          	divu	a5,a5,a2
    17b8:	02a787b3          	mul	a5,a5,a0
    17bc:	02d7d7b3          	divu	a5,a5,a3
    17c0:	00f76363          	bltu	a4,a5,17c6 <Delay_us+0x26>
    17c4:	8082                	ret
    17c6:	0001                	nop
    17c8:	0705                	addi	a4,a4,1
    17ca:	b7dd                	j	17b0 <Delay_us+0x10>

000017cc <cam_init>:
    17cc:	1101                	addi	sp,sp,-32
    17ce:	ce06                	sw	ra,28(sp)
    17d0:	835ff0ef          	jal	ra,1004 <cam_gpio_init>
    17d4:	03200513          	li	a0,50
    17d8:	37e1                	jal	17a0 <Delay_us>
    17da:	62d000ef          	jal	ra,2606 <SCCB_Init>
    17de:	4505                	li	a0,1
    17e0:	37c1                	jal	17a0 <Delay_us>
    17e2:	08000593          	li	a1,128
    17e6:	4549                	li	a0,18
    17e8:	8a9ff0ef          	jal	ra,1090 <cam_reg_write>
    17ec:	03200513          	li	a0,50
    17f0:	3f45                	jal	17a0 <Delay_us>
    17f2:	973ff0ef          	jal	ra,1164 <cam_reg_init>
    17f6:	03200513          	li	a0,50
    17fa:	375d                	jal	17a0 <Delay_us>
    17fc:	14000693          	li	a3,320
    1800:	0f000613          	li	a2,240
    1804:	0ae00593          	li	a1,174
    1808:	4531                	li	a0,12
    180a:	89fff0ef          	jal	ra,10a8 <cam_config_window>
    180e:	07900513          	li	a0,121
    1812:	00f10593          	addi	a1,sp,15
    1816:	887ff0ef          	jal	ra,109c <cam_reg_read>
    181a:	00f14783          	lbu	a5,15(sp)
    181e:	02600713          	li	a4,38
    1822:	4501                	li	a0,0
    1824:	00e78863          	beq	a5,a4,1834 <cam_init+0x68>
    1828:	0ff00713          	li	a4,255
    182c:	4505                	li	a0,1
    182e:	00e78363          	beq	a5,a4,1834 <cam_init+0x68>
    1832:	4509                	li	a0,2
    1834:	40f2                	lw	ra,28(sp)
    1836:	6105                	addi	sp,sp,32
    1838:	8082                	ret

0000183a <LCD_Delay_ms>:
    183a:	66e1                	lui	a3,0x18
    183c:	4701                	li	a4,0
    183e:	20000637          	lui	a2,0x20000
    1842:	6a068693          	addi	a3,a3,1696 # 186a0 <_data_lma+0x10efc>
    1846:	08062783          	lw	a5,128(a2) # 20000080 <SystemCoreClock>
    184a:	02f507b3          	mul	a5,a0,a5
    184e:	02d7d7b3          	divu	a5,a5,a3
    1852:	00f76363          	bltu	a4,a5,1858 <LCD_Delay_ms+0x1e>
    1856:	8082                	ret
    1858:	0001                	nop
    185a:	0705                	addi	a4,a4,1
    185c:	b7ed                	j	1846 <LCD_Delay_ms+0xc>

0000185e <LCD_WR_DATA8>:
    185e:	1141                	addi	sp,sp,-16
    1860:	c422                	sw	s0,8(sp)
    1862:	4585                	li	a1,1
    1864:	842a                	mv	s0,a0
    1866:	40000513          	li	a0,1024
    186a:	c606                	sw	ra,12(sp)
    186c:	4f8010ef          	jal	ra,2d64 <gpio_set>
    1870:	4581                	li	a1,0
    1872:	40100513          	li	a0,1025
    1876:	4ee010ef          	jal	ra,2d64 <gpio_set>
    187a:	85a2                	mv	a1,s0
    187c:	4509                	li	a0,2
    187e:	5c1010ef          	jal	ra,363e <spi_send1>
    1882:	4422                	lw	s0,8(sp)
    1884:	40b2                	lw	ra,12(sp)
    1886:	4585                	li	a1,1
    1888:	40100513          	li	a0,1025
    188c:	0141                	addi	sp,sp,16
    188e:	4d60106f          	j	2d64 <gpio_set>

00001892 <LCD_WR_DATA>:
    1892:	1141                	addi	sp,sp,-16
    1894:	c422                	sw	s0,8(sp)
    1896:	4585                	li	a1,1
    1898:	842a                	mv	s0,a0
    189a:	40000513          	li	a0,1024
    189e:	c606                	sw	ra,12(sp)
    18a0:	4c4010ef          	jal	ra,2d64 <gpio_set>
    18a4:	4581                	li	a1,0
    18a6:	40100513          	li	a0,1025
    18aa:	4ba010ef          	jal	ra,2d64 <gpio_set>
    18ae:	00845593          	srli	a1,s0,0x8
    18b2:	4509                	li	a0,2
    18b4:	58b010ef          	jal	ra,363e <spi_send1>
    18b8:	0ff47593          	andi	a1,s0,255
    18bc:	4509                	li	a0,2
    18be:	581010ef          	jal	ra,363e <spi_send1>
    18c2:	4422                	lw	s0,8(sp)
    18c4:	40b2                	lw	ra,12(sp)
    18c6:	4585                	li	a1,1
    18c8:	40100513          	li	a0,1025
    18cc:	0141                	addi	sp,sp,16
    18ce:	4960106f          	j	2d64 <gpio_set>

000018d2 <LCD_WR_REG>:
    18d2:	1141                	addi	sp,sp,-16
    18d4:	c422                	sw	s0,8(sp)
    18d6:	4581                	li	a1,0
    18d8:	842a                	mv	s0,a0
    18da:	40000513          	li	a0,1024
    18de:	c606                	sw	ra,12(sp)
    18e0:	484010ef          	jal	ra,2d64 <gpio_set>
    18e4:	4581                	li	a1,0
    18e6:	40100513          	li	a0,1025
    18ea:	47a010ef          	jal	ra,2d64 <gpio_set>
    18ee:	85a2                	mv	a1,s0
    18f0:	4509                	li	a0,2
    18f2:	54d010ef          	jal	ra,363e <spi_send1>
    18f6:	4422                	lw	s0,8(sp)
    18f8:	40b2                	lw	ra,12(sp)
    18fa:	4585                	li	a1,1
    18fc:	40100513          	li	a0,1025
    1900:	0141                	addi	sp,sp,16
    1902:	4620106f          	j	2d64 <gpio_set>

00001906 <Address_set>:
    1906:	1101                	addi	sp,sp,-32
    1908:	c64e                	sw	s3,12(sp)
    190a:	89aa                	mv	s3,a0
    190c:	02a00513          	li	a0,42
    1910:	ce06                	sw	ra,28(sp)
    1912:	cc22                	sw	s0,24(sp)
    1914:	ca26                	sw	s1,20(sp)
    1916:	8436                	mv	s0,a3
    1918:	84ae                	mv	s1,a1
    191a:	c84a                	sw	s2,16(sp)
    191c:	8932                	mv	s2,a2
    191e:	3f55                	jal	18d2 <LCD_WR_REG>
    1920:	0089d513          	srli	a0,s3,0x8
    1924:	3f2d                	jal	185e <LCD_WR_DATA8>
    1926:	0ff9f513          	andi	a0,s3,255
    192a:	3f15                	jal	185e <LCD_WR_DATA8>
    192c:	00895513          	srli	a0,s2,0x8
    1930:	373d                	jal	185e <LCD_WR_DATA8>
    1932:	0ff97513          	andi	a0,s2,255
    1936:	3725                	jal	185e <LCD_WR_DATA8>
    1938:	02b00513          	li	a0,43
    193c:	3f59                	jal	18d2 <LCD_WR_REG>
    193e:	0084d513          	srli	a0,s1,0x8
    1942:	3f31                	jal	185e <LCD_WR_DATA8>
    1944:	0ff4f513          	andi	a0,s1,255
    1948:	3f19                	jal	185e <LCD_WR_DATA8>
    194a:	00845513          	srli	a0,s0,0x8
    194e:	3f01                	jal	185e <LCD_WR_DATA8>
    1950:	0ff47513          	andi	a0,s0,255
    1954:	3729                	jal	185e <LCD_WR_DATA8>
    1956:	4462                	lw	s0,24(sp)
    1958:	40f2                	lw	ra,28(sp)
    195a:	44d2                	lw	s1,20(sp)
    195c:	4942                	lw	s2,16(sp)
    195e:	49b2                	lw	s3,12(sp)
    1960:	02c00513          	li	a0,44
    1964:	6105                	addi	sp,sp,32
    1966:	b7b5                	j	18d2 <LCD_WR_REG>

00001968 <LCD_Clear>:
    1968:	1141                	addi	sp,sp,-16
    196a:	c04a                	sw	s2,0(sp)
    196c:	1df00693          	li	a3,479
    1970:	892a                	mv	s2,a0
    1972:	13f00613          	li	a2,319
    1976:	4581                	li	a1,0
    1978:	4501                	li	a0,0
    197a:	c226                	sw	s1,4(sp)
    197c:	c606                	sw	ra,12(sp)
    197e:	c422                	sw	s0,8(sp)
    1980:	14000493          	li	s1,320
    1984:	3749                	jal	1906 <Address_set>
    1986:	1e000413          	li	s0,480
    198a:	147d                	addi	s0,s0,-1
    198c:	0442                	slli	s0,s0,0x10
    198e:	854a                	mv	a0,s2
    1990:	8041                	srli	s0,s0,0x10
    1992:	f01ff0ef          	jal	ra,1892 <LCD_WR_DATA>
    1996:	f875                	bnez	s0,198a <LCD_Clear+0x22>
    1998:	14fd                	addi	s1,s1,-1
    199a:	04c2                	slli	s1,s1,0x10
    199c:	80c1                	srli	s1,s1,0x10
    199e:	f4e5                	bnez	s1,1986 <LCD_Clear+0x1e>
    19a0:	40b2                	lw	ra,12(sp)
    19a2:	4422                	lw	s0,8(sp)
    19a4:	4492                	lw	s1,4(sp)
    19a6:	4902                	lw	s2,0(sp)
    19a8:	0141                	addi	sp,sp,16
    19aa:	8082                	ret

000019ac <LCD_Init>:
    19ac:	1141                	addi	sp,sp,-16
    19ae:	4601                	li	a2,0
    19b0:	4585                	li	a1,1
    19b2:	10900513          	li	a0,265
    19b6:	c606                	sw	ra,12(sp)
    19b8:	3d6010ef          	jal	ra,2d8e <gpio_init>
    19bc:	4601                	li	a2,0
    19be:	4585                	li	a1,1
    19c0:	40000513          	li	a0,1024
    19c4:	3ca010ef          	jal	ra,2d8e <gpio_init>
    19c8:	4605                	li	a2,1
    19ca:	4585                	li	a1,1
    19cc:	40100513          	li	a0,1025
    19d0:	3be010ef          	jal	ra,2d8e <gpio_init>
    19d4:	6629                	lui	a2,0xa
    19d6:	4701                	li	a4,0
    19d8:	4681                	li	a3,0
    19da:	c4060613          	addi	a2,a2,-960 # 9c40 <_data_lma+0x249c>
    19de:	4585                	li	a1,1
    19e0:	4509                	li	a0,2
    19e2:	5b8010ef          	jal	ra,2f9a <spi_init>
    19e6:	4581                	li	a1,0
    19e8:	10900513          	li	a0,265
    19ec:	378010ef          	jal	ra,2d64 <gpio_set>
    19f0:	06400513          	li	a0,100
    19f4:	e47ff0ef          	jal	ra,183a <LCD_Delay_ms>
    19f8:	4585                	li	a1,1
    19fa:	10900513          	li	a0,265
    19fe:	366010ef          	jal	ra,2d64 <gpio_set>
    1a02:	03200513          	li	a0,50
    1a06:	e35ff0ef          	jal	ra,183a <LCD_Delay_ms>
    1a0a:	4545                	li	a0,17
    1a0c:	ec7ff0ef          	jal	ra,18d2 <LCD_WR_REG>
    1a10:	07800513          	li	a0,120
    1a14:	e27ff0ef          	jal	ra,183a <LCD_Delay_ms>
    1a18:	03600513          	li	a0,54
    1a1c:	eb7ff0ef          	jal	ra,18d2 <LCD_WR_REG>
    1a20:	04800513          	li	a0,72
    1a24:	e3bff0ef          	jal	ra,185e <LCD_WR_DATA8>
    1a28:	03a00513          	li	a0,58
    1a2c:	ea7ff0ef          	jal	ra,18d2 <LCD_WR_REG>
    1a30:	05500513          	li	a0,85
    1a34:	e2bff0ef          	jal	ra,185e <LCD_WR_DATA8>
    1a38:	0f000513          	li	a0,240
    1a3c:	e97ff0ef          	jal	ra,18d2 <LCD_WR_REG>
    1a40:	0c300513          	li	a0,195
    1a44:	e1bff0ef          	jal	ra,185e <LCD_WR_DATA8>
    1a48:	0f000513          	li	a0,240
    1a4c:	e87ff0ef          	jal	ra,18d2 <LCD_WR_REG>
    1a50:	09600513          	li	a0,150
    1a54:	e0bff0ef          	jal	ra,185e <LCD_WR_DATA8>
    1a58:	0b400513          	li	a0,180
    1a5c:	e77ff0ef          	jal	ra,18d2 <LCD_WR_REG>
    1a60:	4505                	li	a0,1
    1a62:	dfdff0ef          	jal	ra,185e <LCD_WR_DATA8>
    1a66:	0b700513          	li	a0,183
    1a6a:	e69ff0ef          	jal	ra,18d2 <LCD_WR_REG>
    1a6e:	0c600513          	li	a0,198
    1a72:	dedff0ef          	jal	ra,185e <LCD_WR_DATA8>
    1a76:	0c000513          	li	a0,192
    1a7a:	e59ff0ef          	jal	ra,18d2 <LCD_WR_REG>
    1a7e:	08000513          	li	a0,128
    1a82:	dddff0ef          	jal	ra,185e <LCD_WR_DATA8>
    1a86:	04500513          	li	a0,69
    1a8a:	dd5ff0ef          	jal	ra,185e <LCD_WR_DATA8>
    1a8e:	0c100513          	li	a0,193
    1a92:	e41ff0ef          	jal	ra,18d2 <LCD_WR_REG>
    1a96:	454d                	li	a0,19
    1a98:	dc7ff0ef          	jal	ra,185e <LCD_WR_DATA8>
    1a9c:	0c200513          	li	a0,194
    1aa0:	e33ff0ef          	jal	ra,18d2 <LCD_WR_REG>
    1aa4:	0a700513          	li	a0,167
    1aa8:	db7ff0ef          	jal	ra,185e <LCD_WR_DATA8>
    1aac:	0c500513          	li	a0,197
    1ab0:	e23ff0ef          	jal	ra,18d2 <LCD_WR_REG>
    1ab4:	4529                	li	a0,10
    1ab6:	da9ff0ef          	jal	ra,185e <LCD_WR_DATA8>
    1aba:	0e800513          	li	a0,232
    1abe:	e15ff0ef          	jal	ra,18d2 <LCD_WR_REG>
    1ac2:	04000513          	li	a0,64
    1ac6:	d99ff0ef          	jal	ra,185e <LCD_WR_DATA8>
    1aca:	08a00513          	li	a0,138
    1ace:	d91ff0ef          	jal	ra,185e <LCD_WR_DATA8>
    1ad2:	4501                	li	a0,0
    1ad4:	d8bff0ef          	jal	ra,185e <LCD_WR_DATA8>
    1ad8:	4501                	li	a0,0
    1ada:	d85ff0ef          	jal	ra,185e <LCD_WR_DATA8>
    1ade:	02900513          	li	a0,41
    1ae2:	d7dff0ef          	jal	ra,185e <LCD_WR_DATA8>
    1ae6:	4565                	li	a0,25
    1ae8:	d77ff0ef          	jal	ra,185e <LCD_WR_DATA8>
    1aec:	0a500513          	li	a0,165
    1af0:	d6fff0ef          	jal	ra,185e <LCD_WR_DATA8>
    1af4:	03300513          	li	a0,51
    1af8:	d67ff0ef          	jal	ra,185e <LCD_WR_DATA8>
    1afc:	0e000513          	li	a0,224
    1b00:	dd3ff0ef          	jal	ra,18d2 <LCD_WR_REG>
    1b04:	0d000513          	li	a0,208
    1b08:	d57ff0ef          	jal	ra,185e <LCD_WR_DATA8>
    1b0c:	4521                	li	a0,8
    1b0e:	d51ff0ef          	jal	ra,185e <LCD_WR_DATA8>
    1b12:	453d                	li	a0,15
    1b14:	d4bff0ef          	jal	ra,185e <LCD_WR_DATA8>
    1b18:	4519                	li	a0,6
    1b1a:	d45ff0ef          	jal	ra,185e <LCD_WR_DATA8>
    1b1e:	4519                	li	a0,6
    1b20:	d3fff0ef          	jal	ra,185e <LCD_WR_DATA8>
    1b24:	03300513          	li	a0,51
    1b28:	d37ff0ef          	jal	ra,185e <LCD_WR_DATA8>
    1b2c:	03000513          	li	a0,48
    1b30:	d2fff0ef          	jal	ra,185e <LCD_WR_DATA8>
    1b34:	03300513          	li	a0,51
    1b38:	d27ff0ef          	jal	ra,185e <LCD_WR_DATA8>
    1b3c:	04700513          	li	a0,71
    1b40:	d1fff0ef          	jal	ra,185e <LCD_WR_DATA8>
    1b44:	455d                	li	a0,23
    1b46:	d19ff0ef          	jal	ra,185e <LCD_WR_DATA8>
    1b4a:	454d                	li	a0,19
    1b4c:	d13ff0ef          	jal	ra,185e <LCD_WR_DATA8>
    1b50:	454d                	li	a0,19
    1b52:	d0dff0ef          	jal	ra,185e <LCD_WR_DATA8>
    1b56:	02b00513          	li	a0,43
    1b5a:	d05ff0ef          	jal	ra,185e <LCD_WR_DATA8>
    1b5e:	03100513          	li	a0,49
    1b62:	cfdff0ef          	jal	ra,185e <LCD_WR_DATA8>
    1b66:	0e100513          	li	a0,225
    1b6a:	d69ff0ef          	jal	ra,18d2 <LCD_WR_REG>
    1b6e:	0d000513          	li	a0,208
    1b72:	cedff0ef          	jal	ra,185e <LCD_WR_DATA8>
    1b76:	4529                	li	a0,10
    1b78:	ce7ff0ef          	jal	ra,185e <LCD_WR_DATA8>
    1b7c:	4545                	li	a0,17
    1b7e:	ce1ff0ef          	jal	ra,185e <LCD_WR_DATA8>
    1b82:	452d                	li	a0,11
    1b84:	cdbff0ef          	jal	ra,185e <LCD_WR_DATA8>
    1b88:	4525                	li	a0,9
    1b8a:	cd5ff0ef          	jal	ra,185e <LCD_WR_DATA8>
    1b8e:	451d                	li	a0,7
    1b90:	ccfff0ef          	jal	ra,185e <LCD_WR_DATA8>
    1b94:	02f00513          	li	a0,47
    1b98:	cc7ff0ef          	jal	ra,185e <LCD_WR_DATA8>
    1b9c:	03300513          	li	a0,51
    1ba0:	cbfff0ef          	jal	ra,185e <LCD_WR_DATA8>
    1ba4:	04700513          	li	a0,71
    1ba8:	cb7ff0ef          	jal	ra,185e <LCD_WR_DATA8>
    1bac:	03800513          	li	a0,56
    1bb0:	cafff0ef          	jal	ra,185e <LCD_WR_DATA8>
    1bb4:	4555                	li	a0,21
    1bb6:	ca9ff0ef          	jal	ra,185e <LCD_WR_DATA8>
    1bba:	4559                	li	a0,22
    1bbc:	ca3ff0ef          	jal	ra,185e <LCD_WR_DATA8>
    1bc0:	02c00513          	li	a0,44
    1bc4:	c9bff0ef          	jal	ra,185e <LCD_WR_DATA8>
    1bc8:	03200513          	li	a0,50
    1bcc:	c93ff0ef          	jal	ra,185e <LCD_WR_DATA8>
    1bd0:	0f000513          	li	a0,240
    1bd4:	cffff0ef          	jal	ra,18d2 <LCD_WR_REG>
    1bd8:	03c00513          	li	a0,60
    1bdc:	c83ff0ef          	jal	ra,185e <LCD_WR_DATA8>
    1be0:	0f000513          	li	a0,240
    1be4:	cefff0ef          	jal	ra,18d2 <LCD_WR_REG>
    1be8:	06900513          	li	a0,105
    1bec:	c73ff0ef          	jal	ra,185e <LCD_WR_DATA8>
    1bf0:	07800513          	li	a0,120
    1bf4:	c47ff0ef          	jal	ra,183a <LCD_Delay_ms>
    1bf8:	02100513          	li	a0,33
    1bfc:	cd7ff0ef          	jal	ra,18d2 <LCD_WR_REG>
    1c00:	02900513          	li	a0,41
    1c04:	ccfff0ef          	jal	ra,18d2 <LCD_WR_REG>
    1c08:	40b2                	lw	ra,12(sp)
    1c0a:	6541                	lui	a0,0x10
    1c0c:	157d                	addi	a0,a0,-1
    1c0e:	0141                	addi	sp,sp,16
    1c10:	d59ff06f          	j	1968 <LCD_Clear>

00001c14 <LCD_DrawPoint>:
    1c14:	1141                	addi	sp,sp,-16
    1c16:	c422                	sw	s0,8(sp)
    1c18:	86ae                	mv	a3,a1
    1c1a:	8432                	mv	s0,a2
    1c1c:	862a                	mv	a2,a0
    1c1e:	c606                	sw	ra,12(sp)
    1c20:	ce7ff0ef          	jal	ra,1906 <Address_set>
    1c24:	8522                	mv	a0,s0
    1c26:	4422                	lw	s0,8(sp)
    1c28:	40b2                	lw	ra,12(sp)
    1c2a:	0141                	addi	sp,sp,16
    1c2c:	c67ff06f          	j	1892 <LCD_WR_DATA>

00001c30 <LCD_DrawLine>:
    1c30:	7139                	addi	sp,sp,-64
    1c32:	dc22                	sw	s0,56(sp)
    1c34:	da26                	sw	s1,52(sp)
    1c36:	d05a                	sw	s6,32(sp)
    1c38:	ce5e                	sw	s7,28(sp)
    1c3a:	ca66                	sw	s9,20(sp)
    1c3c:	de06                	sw	ra,60(sp)
    1c3e:	d84a                	sw	s2,48(sp)
    1c40:	d64e                	sw	s3,44(sp)
    1c42:	d452                	sw	s4,40(sp)
    1c44:	d256                	sw	s5,36(sp)
    1c46:	cc62                	sw	s8,24(sp)
    1c48:	c86a                	sw	s10,16(sp)
    1c4a:	40a60433          	sub	s0,a2,a0
    1c4e:	8b2a                	mv	s6,a0
    1c50:	8cae                	mv	s9,a1
    1c52:	40b684b3          	sub	s1,a3,a1
    1c56:	4b85                	li	s7,1
    1c58:	00804763          	bgtz	s0,1c66 <LCD_DrawLine+0x36>
    1c5c:	4b81                	li	s7,0
    1c5e:	c401                	beqz	s0,1c66 <LCD_DrawLine+0x36>
    1c60:	40c50433          	sub	s0,a0,a2
    1c64:	5bfd                	li	s7,-1
    1c66:	4c05                	li	s8,1
    1c68:	00904763          	bgtz	s1,1c76 <LCD_DrawLine+0x46>
    1c6c:	4c01                	li	s8,0
    1c6e:	c481                	beqz	s1,1c76 <LCD_DrawLine+0x46>
    1c70:	40d584b3          	sub	s1,a1,a3
    1c74:	5c7d                	li	s8,-1
    1c76:	8922                	mv	s2,s0
    1c78:	00945363          	bge	s0,s1,1c7e <LCD_DrawLine+0x4e>
    1c7c:	8926                	mv	s2,s1
    1c7e:	4a81                	li	s5,0
    1c80:	4a01                	li	s4,0
    1c82:	4981                	li	s3,0
    1c84:	00190d13          	addi	s10,s2,1
    1c88:	033d5063          	bge	s10,s3,1ca8 <LCD_DrawLine+0x78>
    1c8c:	50f2                	lw	ra,60(sp)
    1c8e:	5462                	lw	s0,56(sp)
    1c90:	54d2                	lw	s1,52(sp)
    1c92:	5942                	lw	s2,48(sp)
    1c94:	59b2                	lw	s3,44(sp)
    1c96:	5a22                	lw	s4,40(sp)
    1c98:	5a92                	lw	s5,36(sp)
    1c9a:	5b02                	lw	s6,32(sp)
    1c9c:	4bf2                	lw	s7,28(sp)
    1c9e:	4c62                	lw	s8,24(sp)
    1ca0:	4cd2                	lw	s9,20(sp)
    1ca2:	4d42                	lw	s10,16(sp)
    1ca4:	6121                	addi	sp,sp,64
    1ca6:	8082                	ret
    1ca8:	010c9593          	slli	a1,s9,0x10
    1cac:	010b1513          	slli	a0,s6,0x10
    1cb0:	863a                	mv	a2,a4
    1cb2:	81c1                	srli	a1,a1,0x10
    1cb4:	8141                	srli	a0,a0,0x10
    1cb6:	c63a                	sw	a4,12(sp)
    1cb8:	9a22                	add	s4,s4,s0
    1cba:	f5bff0ef          	jal	ra,1c14 <LCD_DrawPoint>
    1cbe:	9aa6                	add	s5,s5,s1
    1cc0:	4732                	lw	a4,12(sp)
    1cc2:	01495563          	bge	s2,s4,1ccc <LCD_DrawLine+0x9c>
    1cc6:	412a0a33          	sub	s4,s4,s2
    1cca:	9b5e                	add	s6,s6,s7
    1ccc:	01595563          	bge	s2,s5,1cd6 <LCD_DrawLine+0xa6>
    1cd0:	412a8ab3          	sub	s5,s5,s2
    1cd4:	9ce2                	add	s9,s9,s8
    1cd6:	0985                	addi	s3,s3,1
    1cd8:	09c2                	slli	s3,s3,0x10
    1cda:	0109d993          	srli	s3,s3,0x10
    1cde:	b76d                	j	1c88 <LCD_DrawLine+0x58>

00001ce0 <LCD_DrawRectangle>:
    1ce0:	1101                	addi	sp,sp,-32
    1ce2:	cc22                	sw	s0,24(sp)
    1ce4:	8436                	mv	s0,a3
    1ce6:	86ae                	mv	a3,a1
    1ce8:	ce06                	sw	ra,28(sp)
    1cea:	ca26                	sw	s1,20(sp)
    1cec:	c84a                	sw	s2,16(sp)
    1cee:	c64e                	sw	s3,12(sp)
    1cf0:	c452                	sw	s4,8(sp)
    1cf2:	89aa                	mv	s3,a0
    1cf4:	8a32                	mv	s4,a2
    1cf6:	893a                	mv	s2,a4
    1cf8:	84ae                	mv	s1,a1
    1cfa:	f37ff0ef          	jal	ra,1c30 <LCD_DrawLine>
    1cfe:	874a                	mv	a4,s2
    1d00:	86a2                	mv	a3,s0
    1d02:	864e                	mv	a2,s3
    1d04:	85a6                	mv	a1,s1
    1d06:	854e                	mv	a0,s3
    1d08:	f29ff0ef          	jal	ra,1c30 <LCD_DrawLine>
    1d0c:	874a                	mv	a4,s2
    1d0e:	86a2                	mv	a3,s0
    1d10:	8652                	mv	a2,s4
    1d12:	85a2                	mv	a1,s0
    1d14:	854e                	mv	a0,s3
    1d16:	f1bff0ef          	jal	ra,1c30 <LCD_DrawLine>
    1d1a:	86a2                	mv	a3,s0
    1d1c:	4462                	lw	s0,24(sp)
    1d1e:	40f2                	lw	ra,28(sp)
    1d20:	49b2                	lw	s3,12(sp)
    1d22:	874a                	mv	a4,s2
    1d24:	8652                	mv	a2,s4
    1d26:	4942                	lw	s2,16(sp)
    1d28:	85a6                	mv	a1,s1
    1d2a:	8552                	mv	a0,s4
    1d2c:	44d2                	lw	s1,20(sp)
    1d2e:	4a22                	lw	s4,8(sp)
    1d30:	6105                	addi	sp,sp,32
    1d32:	effff06f          	j	1c30 <LCD_DrawLine>

00001d36 <LCD_ShowString>:
    1d36:	715d                	addi	sp,sp,-80
    1d38:	c2a6                	sw	s1,68(sp)
    1d3a:	00f58493          	addi	s1,a1,15
    1d3e:	c0ca                	sw	s2,64(sp)
    1d40:	04c2                	slli	s1,s1,0x10
    1d42:	691d                	lui	s2,0x7
    1d44:	de4e                	sw	s3,60(sp)
    1d46:	dc52                	sw	s4,56(sp)
    1d48:	da56                	sw	s5,52(sp)
    1d4a:	d65e                	sw	s7,44(sp)
    1d4c:	d462                	sw	s8,40(sp)
    1d4e:	d266                	sw	s9,36(sp)
    1d50:	d06a                	sw	s10,32(sp)
    1d52:	c686                	sw	ra,76(sp)
    1d54:	c4a2                	sw	s0,72(sp)
    1d56:	d85a                	sw	s6,48(sp)
    1d58:	ce6e                	sw	s11,28(sp)
    1d5a:	c22a                	sw	a0,4(sp)
    1d5c:	89ae                	mv	s3,a1
    1d5e:	c432                	sw	a2,8(sp)
    1d60:	c636                	sw	a3,12(sp)
    1d62:	8a3a                	mv	s4,a4
    1d64:	4a81                	li	s5,0
    1d66:	05e00b93          	li	s7,94
    1d6a:	07f00c13          	li	s8,127
    1d6e:	80c1                	srli	s1,s1,0x10
    1d70:	e4890913          	addi	s2,s2,-440 # 6e48 <nAsciiDot>
    1d74:	4ca1                	li	s9,8
    1d76:	4d75                	li	s10,29
    1d78:	000a0683          	lb	a3,0(s4)
    1d7c:	caa5                	beqz	a3,1dec <LCD_ShowString+0xb6>
    1d7e:	fe068613          	addi	a2,a3,-32
    1d82:	0ff67613          	andi	a2,a2,255
    1d86:	04cbee63          	bltu	s7,a2,1de2 <LCD_ShowString+0xac>
    1d8a:	4792                	lw	a5,4(sp)
    1d8c:	003a9513          	slli	a0,s5,0x3
    1d90:	86a6                	mv	a3,s1
    1d92:	953e                	add	a0,a0,a5
    1d94:	0542                	slli	a0,a0,0x10
    1d96:	8141                	srli	a0,a0,0x10
    1d98:	00750613          	addi	a2,a0,7 # 10007 <_data_lma+0x8863>
    1d9c:	0642                	slli	a2,a2,0x10
    1d9e:	8241                	srli	a2,a2,0x10
    1da0:	85ce                	mv	a1,s3
    1da2:	b65ff0ef          	jal	ra,1906 <Address_set>
    1da6:	000a0403          	lb	s0,0(s4)
    1daa:	1401                	addi	s0,s0,-32
    1dac:	0412                	slli	s0,s0,0x4
    1dae:	944a                	add	s0,s0,s2
    1db0:	01040d93          	addi	s11,s0,16
    1db4:	4b01                	li	s6,0
    1db6:	00040683          	lb	a3,0(s0)
    1dba:	4166d6b3          	sra	a3,a3,s6
    1dbe:	8a85                	andi	a3,a3,1
    1dc0:	ce99                	beqz	a3,1dde <LCD_ShowString+0xa8>
    1dc2:	4522                	lw	a0,8(sp)
    1dc4:	0b05                	addi	s6,s6,1
    1dc6:	acdff0ef          	jal	ra,1892 <LCD_WR_DATA>
    1dca:	ff9b16e3          	bne	s6,s9,1db6 <LCD_ShowString+0x80>
    1dce:	0405                	addi	s0,s0,1
    1dd0:	fe8d92e3          	bne	s11,s0,1db4 <LCD_ShowString+0x7e>
    1dd4:	001a8793          	addi	a5,s5,1
    1dd8:	0ff7fa93          	andi	s5,a5,255
    1ddc:	a029                	j	1de6 <LCD_ShowString+0xb0>
    1dde:	4532                	lw	a0,12(sp)
    1de0:	b7d5                	j	1dc4 <LCD_ShowString+0x8e>
    1de2:	ff8689e3          	beq	a3,s8,1dd4 <LCD_ShowString+0x9e>
    1de6:	0a05                	addi	s4,s4,1
    1de8:	f95d78e3          	bgeu	s10,s5,1d78 <LCD_ShowString+0x42>
    1dec:	40b6                	lw	ra,76(sp)
    1dee:	4426                	lw	s0,72(sp)
    1df0:	4496                	lw	s1,68(sp)
    1df2:	4906                	lw	s2,64(sp)
    1df4:	59f2                	lw	s3,60(sp)
    1df6:	5a62                	lw	s4,56(sp)
    1df8:	5ad2                	lw	s5,52(sp)
    1dfa:	5b42                	lw	s6,48(sp)
    1dfc:	5bb2                	lw	s7,44(sp)
    1dfe:	5c22                	lw	s8,40(sp)
    1e00:	5c92                	lw	s9,36(sp)
    1e02:	5d02                	lw	s10,32(sp)
    1e04:	4df2                	lw	s11,28(sp)
    1e06:	6161                	addi	sp,sp,80
    1e08:	8082                	ret

00001e0a <LCD_DrawSurface>:
    1e0a:	1101                	addi	sp,sp,-32
    1e0c:	cc22                	sw	s0,24(sp)
    1e0e:	c84a                	sw	s2,16(sp)
    1e10:	c64e                	sw	s3,12(sp)
    1e12:	c452                	sw	s4,8(sp)
    1e14:	c256                	sw	s5,4(sp)
    1e16:	ce06                	sw	ra,28(sp)
    1e18:	ca26                	sw	s1,20(sp)
    1e1a:	89aa                	mv	s3,a0
    1e1c:	842e                	mv	s0,a1
    1e1e:	8a32                	mv	s4,a2
    1e20:	8936                	mv	s2,a3
    1e22:	8aba                	mv	s5,a4
    1e24:	ae3ff0ef          	jal	ra,1906 <Address_set>
    1e28:	02897763          	bgeu	s2,s0,1e56 <LCD_DrawSurface+0x4c>
    1e2c:	40f2                	lw	ra,28(sp)
    1e2e:	4462                	lw	s0,24(sp)
    1e30:	44d2                	lw	s1,20(sp)
    1e32:	4942                	lw	s2,16(sp)
    1e34:	49b2                	lw	s3,12(sp)
    1e36:	4a22                	lw	s4,8(sp)
    1e38:	4a92                	lw	s5,4(sp)
    1e3a:	6105                	addi	sp,sp,32
    1e3c:	8082                	ret
    1e3e:	0485                	addi	s1,s1,1
    1e40:	8556                	mv	a0,s5
    1e42:	04c2                	slli	s1,s1,0x10
    1e44:	a4fff0ef          	jal	ra,1892 <LCD_WR_DATA>
    1e48:	80c1                	srli	s1,s1,0x10
    1e4a:	fe9a7ae3          	bgeu	s4,s1,1e3e <LCD_DrawSurface+0x34>
    1e4e:	0405                	addi	s0,s0,1
    1e50:	0442                	slli	s0,s0,0x10
    1e52:	8041                	srli	s0,s0,0x10
    1e54:	bfd1                	j	1e28 <LCD_DrawSurface+0x1e>
    1e56:	84ce                	mv	s1,s3
    1e58:	bfcd                	j	1e4a <LCD_DrawSurface+0x40>

00001e5a <printk_putc>:
    1e5a:	421c                	lw	a5,0(a2)
    1e5c:	4705                	li	a4,1
    1e5e:	00e78963          	beq	a5,a4,1e70 <printk_putc+0x16>
    1e62:	4709                	li	a4,2
    1e64:	02e78463          	beq	a5,a4,1e8c <printk_putc+0x32>
    1e68:	419c                	lw	a5,0(a1)
    1e6a:	0785                	addi	a5,a5,1
    1e6c:	c19c                	sw	a5,0(a1)
    1e6e:	8082                	ret
    1e70:	425c                	lw	a5,4(a2)
    1e72:	1101                	addi	sp,sp,-32
    1e74:	0562                	slli	a0,a0,0x18
    1e76:	ce06                	sw	ra,28(sp)
    1e78:	8561                	srai	a0,a0,0x18
    1e7a:	c62e                	sw	a1,12(sp)
    1e7c:	9782                	jalr	a5
    1e7e:	45b2                	lw	a1,12(sp)
    1e80:	40f2                	lw	ra,28(sp)
    1e82:	419c                	lw	a5,0(a1)
    1e84:	0785                	addi	a5,a5,1
    1e86:	c19c                	sw	a5,0(a1)
    1e88:	6105                	addi	sp,sp,32
    1e8a:	8082                	ret
    1e8c:	461c                	lw	a5,8(a2)
    1e8e:	00a78023          	sb	a0,0(a5)
    1e92:	461c                	lw	a5,8(a2)
    1e94:	0785                	addi	a5,a5,1
    1e96:	c61c                	sw	a5,8(a2)
    1e98:	bfc1                	j	1e68 <printk_putc+0xe>

00001e9a <printk_mknumstr>:
    1e9a:	00050023          	sb	zero,0(a0)
    1e9e:	419c                	lw	a5,0(a1)
    1ea0:	ce1d                	beqz	a2,1ede <printk_mknumstr+0x44>
    1ea2:	4705                	li	a4,1
    1ea4:	03000813          	li	a6,48
    1ea8:	eb81                	bnez	a5,1eb8 <printk_mknumstr+0x1e>
    1eaa:	03000793          	li	a5,48
    1eae:	00f500a3          	sb	a5,1(a0)
    1eb2:	4605                	li	a2,1
    1eb4:	8532                	mv	a0,a2
    1eb6:	8082                	ret
    1eb8:	02d7c5b3          	div	a1,a5,a3
    1ebc:	02d7e7b3          	rem	a5,a5,a3
    1ec0:	03078613          	addi	a2,a5,48
    1ec4:	0007d463          	bgez	a5,1ecc <printk_mknumstr+0x32>
    1ec8:	40f80633          	sub	a2,a6,a5
    1ecc:	00e507b3          	add	a5,a0,a4
    1ed0:	00c78023          	sb	a2,0(a5)
    1ed4:	863a                	mv	a2,a4
    1ed6:	87ae                	mv	a5,a1
    1ed8:	0705                	addi	a4,a4,1
    1eda:	fdf9                	bnez	a1,1eb8 <printk_mknumstr+0x1e>
    1edc:	bfe1                	j	1eb4 <printk_mknumstr+0x1a>
    1ede:	d7f1                	beqz	a5,1eaa <printk_mknumstr+0x10>
    1ee0:	4705                	li	a4,1
    1ee2:	48a5                	li	a7,9
    1ee4:	02d7f633          	remu	a2,a5,a3
    1ee8:	02d7d833          	divu	a6,a5,a3
    1eec:	03760593          	addi	a1,a2,55
    1ef0:	00c8e463          	bltu	a7,a2,1ef8 <printk_mknumstr+0x5e>
    1ef4:	03060593          	addi	a1,a2,48
    1ef8:	00e50633          	add	a2,a0,a4
    1efc:	00b60023          	sb	a1,0(a2)
    1f00:	863a                	mv	a2,a4
    1f02:	0705                	addi	a4,a4,1
    1f04:	fad7e8e3          	bltu	a5,a3,1eb4 <printk_mknumstr+0x1a>
    1f08:	87c2                	mv	a5,a6
    1f0a:	bfe9                	j	1ee4 <printk_mknumstr+0x4a>

00001f0c <printk_pad_space>:
    1f0c:	1101                	addi	sp,sp,-32
    1f0e:	cc22                	sw	s0,24(sp)
    1f10:	ca26                	sw	s1,20(sp)
    1f12:	c84a                	sw	s2,16(sp)
    1f14:	ce06                	sw	ra,28(sp)
    1f16:	842a                	mv	s0,a0
    1f18:	84ae                	mv	s1,a1
    1f1a:	8932                	mv	s2,a2
    1f1c:	00944863          	blt	s0,s1,1f2c <printk_pad_space+0x20>
    1f20:	40f2                	lw	ra,28(sp)
    1f22:	4462                	lw	s0,24(sp)
    1f24:	44d2                	lw	s1,20(sp)
    1f26:	4942                	lw	s2,16(sp)
    1f28:	6105                	addi	sp,sp,32
    1f2a:	8082                	ret
    1f2c:	8636                	mv	a2,a3
    1f2e:	85ca                	mv	a1,s2
    1f30:	02000513          	li	a0,32
    1f34:	c636                	sw	a3,12(sp)
    1f36:	f25ff0ef          	jal	ra,1e5a <printk_putc>
    1f3a:	0405                	addi	s0,s0,1
    1f3c:	46b2                	lw	a3,12(sp)
    1f3e:	bff9                	j	1f1c <printk_pad_space+0x10>

00001f40 <out_char>:
    1f40:	0ff57593          	andi	a1,a0,255
    1f44:	4505                	li	a0,1
    1f46:	5110106f          	j	3c56 <uart_send1>

00001f4a <printk_mkfloatstr>:
    1f4a:	7175                	addi	sp,sp,-144
    1f4c:	c522                	sw	s0,136(sp)
    1f4e:	c326                	sw	s1,132(sp)
    1f50:	dece                	sw	s3,124(sp)
    1f52:	84aa                	mv	s1,a0
    1f54:	89ae                	mv	s3,a1
    1f56:	8432                	mv	s0,a2
    1f58:	4581                	li	a1,0
    1f5a:	04c00613          	li	a2,76
    1f5e:	0848                	addi	a0,sp,20
    1f60:	c706                	sw	ra,140(sp)
    1f62:	dcd2                	sw	s4,120(sp)
    1f64:	dad6                	sw	s5,116(sp)
    1f66:	d4e2                	sw	s8,104(sp)
    1f68:	d2e6                	sw	s9,100(sp)
    1f6a:	d0ea                	sw	s10,96(sp)
    1f6c:	c14a                	sw	s2,128(sp)
    1f6e:	d8da                	sw	s6,112(sp)
    1f70:	d6de                	sw	s7,108(sp)
    1f72:	c002                	sw	zero,0(sp)
    1f74:	c202                	sw	zero,4(sp)
    1f76:	c402                	sw	zero,8(sp)
    1f78:	c602                	sw	zero,12(sp)
    1f7a:	c802                	sw	zero,16(sp)
    1f7c:	a84fe0ef          	jal	ra,200 <memset>
    1f80:	0004aa03          	lw	s4,0(s1)
    1f84:	0044aa83          	lw	s5,4(s1)
    1f88:	8552                	mv	a0,s4
    1f8a:	85d6                	mv	a1,s5
    1f8c:	15d030ef          	jal	ra,58e8 <__fixunsdfsi>
    1f90:	8c2a                	mv	s8,a0
    1f92:	225030ef          	jal	ra,59b6 <__floatunsidf>
    1f96:	862a                	mv	a2,a0
    1f98:	86ae                	mv	a3,a1
    1f9a:	8552                	mv	a0,s4
    1f9c:	85d6                	mv	a1,s5
    1f9e:	1a4030ef          	jal	ra,5142 <__subdf3>
    1fa2:	8d2a                	mv	s10,a0
    1fa4:	8cae                	mv	s9,a1
    1fa6:	e05d                	bnez	s0,204c <printk_mkfloatstr+0x102>
    1fa8:	000077b7          	lui	a5,0x7
    1fac:	4d07a603          	lw	a2,1232(a5) # 74d0 <nAsciiDot+0x688>
    1fb0:	4d47a683          	lw	a3,1236(a5)
    1fb4:	4d7020ef          	jal	ra,4c8a <__muldf3>
    1fb8:	267030ef          	jal	ra,5a1e <__fixunsdfdi>
    1fbc:	000077b7          	lui	a5,0x7
    1fc0:	e307aa03          	lw	s4,-464(a5) # 6e30 <strlen+0x3fa>
    1fc4:	e347aa83          	lw	s5,-460(a5)
    1fc8:	000077b7          	lui	a5,0x7
    1fcc:	4d87ab03          	lw	s6,1240(a5) # 74d8 <nAsciiDot+0x690>
    1fd0:	4dc7ab83          	lw	s7,1244(a5)
    1fd4:	84aa                	mv	s1,a0
    1fd6:	892e                	mv	s2,a1
    1fd8:	4401                	li	s0,0
    1fda:	8652                	mv	a2,s4
    1fdc:	86d6                	mv	a3,s5
    1fde:	856a                	mv	a0,s10
    1fe0:	85e6                	mv	a1,s9
    1fe2:	3f3020ef          	jal	ra,4bd4 <__ledf2>
    1fe6:	06054b63          	bltz	a0,205c <printk_mkfloatstr+0x112>
    1fea:	080c1363          	bnez	s8,2070 <printk_mkfloatstr+0x126>
    1fee:	03000793          	li	a5,48
    1ff2:	00f98023          	sb	a5,0(s3)
    1ff6:	4505                	li	a0,1
    1ff8:	02e00793          	li	a5,46
    1ffc:	00a98a33          	add	s4,s3,a0
    2000:	00fa0023          	sb	a5,0(s4)
    2004:	0124e7b3          	or	a5,s1,s2
    2008:	00150a93          	addi	s5,a0,1
    200c:	e3cd                	bnez	a5,20ae <printk_mkfloatstr+0x164>
    200e:	9ace                	add	s5,s5,s3
    2010:	03000793          	li	a5,48
    2014:	0509                	addi	a0,a0,2
    2016:	00fa8023          	sb	a5,0(s5)
    201a:	99aa                	add	s3,s3,a0
    201c:	00098023          	sb	zero,0(s3)
    2020:	40ba                	lw	ra,140(sp)
    2022:	442a                	lw	s0,136(sp)
    2024:	449a                	lw	s1,132(sp)
    2026:	490a                	lw	s2,128(sp)
    2028:	59f6                	lw	s3,124(sp)
    202a:	5a66                	lw	s4,120(sp)
    202c:	5ad6                	lw	s5,116(sp)
    202e:	5b46                	lw	s6,112(sp)
    2030:	5bb6                	lw	s7,108(sp)
    2032:	5c26                	lw	s8,104(sp)
    2034:	5c96                	lw	s9,100(sp)
    2036:	5d06                	lw	s10,96(sp)
    2038:	6149                	addi	sp,sp,144
    203a:	8082                	ret
    203c:	8652                	mv	a2,s4
    203e:	86d6                	mv	a3,s5
    2040:	44b020ef          	jal	ra,4c8a <__muldf3>
    2044:	147d                	addi	s0,s0,-1
    2046:	fe941be3          	bne	s0,s1,203c <printk_mkfloatstr+0xf2>
    204a:	b7bd                	j	1fb8 <printk_mkfloatstr+0x6e>
    204c:	000077b7          	lui	a5,0x7
    2050:	54fd                	li	s1,-1
    2052:	4d87aa03          	lw	s4,1240(a5) # 74d8 <nAsciiDot+0x690>
    2056:	4dc7aa83          	lw	s5,1244(a5)
    205a:	b7ed                	j	2044 <printk_mkfloatstr+0xfa>
    205c:	856a                	mv	a0,s10
    205e:	85e6                	mv	a1,s9
    2060:	865a                	mv	a2,s6
    2062:	86de                	mv	a3,s7
    2064:	427020ef          	jal	ra,4c8a <__muldf3>
    2068:	8d2a                	mv	s10,a0
    206a:	8cae                	mv	s9,a1
    206c:	0405                	addi	s0,s0,1
    206e:	b7b5                	j	1fda <printk_mkfloatstr+0x90>
    2070:	878a                	mv	a5,sp
    2072:	4501                	li	a0,0
    2074:	863e                	mv	a2,a5
    2076:	4729                	li	a4,10
    2078:	46a5                	li	a3,9
    207a:	02ec75b3          	remu	a1,s8,a4
    207e:	0505                	addi	a0,a0,1
    2080:	0791                	addi	a5,a5,4
    2082:	feb7ae23          	sw	a1,-4(a5)
    2086:	02ec55b3          	divu	a1,s8,a4
    208a:	0386e063          	bltu	a3,s8,20aa <printk_mkfloatstr+0x160>
    208e:	874e                	mv	a4,s3
    2090:	87aa                	mv	a5,a0
    2092:	17fd                	addi	a5,a5,-1
    2094:	00279693          	slli	a3,a5,0x2
    2098:	96b2                	add	a3,a3,a2
    209a:	4294                	lw	a3,0(a3)
    209c:	0705                	addi	a4,a4,1
    209e:	03068693          	addi	a3,a3,48
    20a2:	fed70fa3          	sb	a3,-1(a4) # 40010fff <GEC_USER_RAM_END+0x1fff0fff>
    20a6:	f7f5                	bnez	a5,2092 <printk_mkfloatstr+0x148>
    20a8:	bf81                	j	1ff8 <printk_mkfloatstr+0xae>
    20aa:	8c2e                	mv	s8,a1
    20ac:	b7f9                	j	207a <printk_mkfloatstr+0x130>
    20ae:	01410b93          	addi	s7,sp,20
    20b2:	4b01                	li	s6,0
    20b4:	4c25                	li	s8,9
    20b6:	4629                	li	a2,10
    20b8:	4681                	li	a3,0
    20ba:	8526                	mv	a0,s1
    20bc:	85ca                	mv	a1,s2
    20be:	058020ef          	jal	ra,4116 <__umoddi3>
    20c2:	00aba023          	sw	a0,0(s7)
    20c6:	4629                	li	a2,10
    20c8:	4681                	li	a3,0
    20ca:	8526                	mv	a0,s1
    20cc:	85ca                	mv	a1,s2
    20ce:	0b05                	addi	s6,s6,1
    20d0:	4af010ef          	jal	ra,3d7e <__udivdi3>
    20d4:	0b91                	addi	s7,s7,4
    20d6:	02091363          	bnez	s2,20fc <printk_mkfloatstr+0x1b2>
    20da:	029c6163          	bltu	s8,s1,20fc <printk_mkfloatstr+0x1b2>
    20de:	0858                	addi	a4,sp,20
    20e0:	fff40513          	addi	a0,s0,-1
    20e4:	002b1793          	slli	a5,s6,0x2
    20e8:	97ba                	add	a5,a5,a4
    20ea:	872a                	mv	a4,a0
    20ec:	eb19                	bnez	a4,2102 <printk_mkfloatstr+0x1b8>
    20ee:	955a                	add	a0,a0,s6
    20f0:	87d2                	mv	a5,s4
    20f2:	872a                	mv	a4,a0
    20f4:	0785                	addi	a5,a5,1
    20f6:	eb19                	bnez	a4,210c <printk_mkfloatstr+0x1c2>
    20f8:	9556                	add	a0,a0,s5
    20fa:	b705                	j	201a <printk_mkfloatstr+0xd0>
    20fc:	84aa                	mv	s1,a0
    20fe:	892e                	mv	s2,a1
    2100:	bf5d                	j	20b6 <printk_mkfloatstr+0x16c>
    2102:	0007a023          	sw	zero,0(a5)
    2106:	177d                	addi	a4,a4,-1
    2108:	0791                	addi	a5,a5,4
    210a:	b7cd                	j	20ec <printk_mkfloatstr+0x1a2>
    210c:	177d                	addi	a4,a4,-1
    210e:	00271693          	slli	a3,a4,0x2
    2112:	0850                	addi	a2,sp,20
    2114:	96b2                	add	a3,a3,a2
    2116:	4294                	lw	a3,0(a3)
    2118:	03068693          	addi	a3,a3,48
    211c:	00d78023          	sb	a3,0(a5)
    2120:	bfd1                	j	20f4 <printk_mkfloatstr+0x1aa>

00002122 <printk>:
    2122:	7119                	addi	sp,sp,-128
    2124:	dca2                	sw	s0,120(sp)
    2126:	daa6                	sw	s1,116(sp)
    2128:	d4d2                	sw	s4,104(sp)
    212a:	84aa                	mv	s1,a0
    212c:	8a2e                	mv	s4,a1
    212e:	8432                	mv	s0,a2
    2130:	4581                	li	a1,0
    2132:	02100613          	li	a2,33
    2136:	0868                	addi	a0,sp,28
    2138:	cede                	sw	s7,92(sp)
    213a:	cce2                	sw	s8,88(sp)
    213c:	cae6                	sw	s9,84(sp)
    213e:	de86                	sw	ra,124(sp)
    2140:	d8ca                	sw	s2,112(sp)
    2142:	d6ce                	sw	s3,108(sp)
    2144:	d2d6                	sw	s5,100(sp)
    2146:	d0da                	sw	s6,96(sp)
    2148:	c8ea                	sw	s10,80(sp)
    214a:	c6ee                	sw	s11,76(sp)
    214c:	8b4fe0ef          	jal	ra,200 <memset>
    2150:	03000793          	li	a5,48
    2154:	6c1d                	lui	s8,0x7
    2156:	00f10e23          	sb	a5,28(sp)
    215a:	c202                	sw	zero,4(sp)
    215c:	4c85                	li	s9,1
    215e:	4ba9                	li	s7,10
    2160:	448c0c13          	addi	s8,s8,1096 # 7448 <nAsciiDot+0x600>
    2164:	000a0503          	lb	a0,0(s4)
    2168:	e10d                	bnez	a0,218a <printk+0x68>
    216a:	50f6                	lw	ra,124(sp)
    216c:	5466                	lw	s0,120(sp)
    216e:	4512                	lw	a0,4(sp)
    2170:	54d6                	lw	s1,116(sp)
    2172:	5946                	lw	s2,112(sp)
    2174:	59b6                	lw	s3,108(sp)
    2176:	5a26                	lw	s4,104(sp)
    2178:	5a96                	lw	s5,100(sp)
    217a:	5b06                	lw	s6,96(sp)
    217c:	4bf6                	lw	s7,92(sp)
    217e:	4c66                	lw	s8,88(sp)
    2180:	4cd6                	lw	s9,84(sp)
    2182:	4d46                	lw	s10,80(sp)
    2184:	4db6                	lw	s11,76(sp)
    2186:	6109                	addi	sp,sp,128
    2188:	8082                	ret
    218a:	02500793          	li	a5,37
    218e:	0af50a63          	beq	a0,a5,2242 <printk+0x120>
    2192:	8626                	mv	a2,s1
    2194:	004c                	addi	a1,sp,4
    2196:	01750663          	beq	a0,s7,21a2 <printk+0x80>
    219a:	cc1ff0ef          	jal	ra,1e5a <printk_putc>
    219e:	8aa2                	mv	s5,s0
    21a0:	a4b9                	j	23ee <printk+0x2cc>
    21a2:	4535                	li	a0,13
    21a4:	cb7ff0ef          	jal	ra,1e5a <printk_putc>
    21a8:	8626                	mv	a2,s1
    21aa:	004c                	addi	a1,sp,4
    21ac:	4529                	li	a0,10
    21ae:	b7f5                	j	219a <printk+0x78>
    21b0:	00196913          	ori	s2,s2,1
    21b4:	8a32                	mv	s4,a2
    21b6:	001a0783          	lb	a5,1(s4)
    21ba:	001a0613          	addi	a2,s4,1
    21be:	06e78963          	beq	a5,a4,2230 <printk+0x10e>
    21c2:	08f74c63          	blt	a4,a5,225a <printk+0x138>
    21c6:	06a78863          	beq	a5,a0,2236 <printk+0x114>
    21ca:	07078963          	beq	a5,a6,223c <printk+0x11a>
    21ce:	4981                	li	s3,0
    21d0:	4625                	li	a2,9
    21d2:	001a0703          	lb	a4,1(s4)
    21d6:	001a0793          	addi	a5,s4,1
    21da:	fd070693          	addi	a3,a4,-48
    21de:	08d67563          	bgeu	a2,a3,2268 <printk+0x146>
    21e2:	02e00693          	li	a3,46
    21e6:	4b01                	li	s6,0
    21e8:	0ad70363          	beq	a4,a3,228e <printk+0x16c>
    21ec:	4c81                	li	s9,0
    21ee:	001a0703          	lb	a4,1(s4)
    21f2:	06800693          	li	a3,104
    21f6:	001a0793          	addi	a5,s4,1
    21fa:	00d70b63          	beq	a4,a3,2210 <printk+0xee>
    21fe:	06c00693          	li	a3,108
    2202:	00d70763          	beq	a4,a3,2210 <printk+0xee>
    2206:	04c00693          	li	a3,76
    220a:	00d70363          	beq	a4,a3,2210 <printk+0xee>
    220e:	87d2                	mv	a5,s4
    2210:	00178503          	lb	a0,1(a5)
    2214:	00178a13          	addi	s4,a5,1
    2218:	02000713          	li	a4,32
    221c:	fa850793          	addi	a5,a0,-88
    2220:	0ff7f793          	andi	a5,a5,255
    2224:	38f76663          	bltu	a4,a5,25b0 <printk+0x48e>
    2228:	078a                	slli	a5,a5,0x2
    222a:	97e2                	add	a5,a5,s8
    222c:	439c                	lw	a5,0(a5)
    222e:	8782                	jr	a5
    2230:	00296913          	ori	s2,s2,2
    2234:	b741                	j	21b4 <printk+0x92>
    2236:	00496913          	ori	s2,s2,4
    223a:	bfad                	j	21b4 <printk+0x92>
    223c:	01096913          	ori	s2,s2,16
    2240:	bf95                	j	21b4 <printk+0x92>
    2242:	4901                	li	s2,0
    2244:	02b00713          	li	a4,43
    2248:	02d00593          	li	a1,45
    224c:	03000693          	li	a3,48
    2250:	02000513          	li	a0,32
    2254:	02300813          	li	a6,35
    2258:	bfb9                	j	21b6 <printk+0x94>
    225a:	f4b78be3          	beq	a5,a1,21b0 <printk+0x8e>
    225e:	f6d798e3          	bne	a5,a3,21ce <printk+0xac>
    2262:	00896913          	ori	s2,s2,8
    2266:	b7b9                	j	21b4 <printk+0x92>
    2268:	037989b3          	mul	s3,s3,s7
    226c:	8a3e                	mv	s4,a5
    226e:	99b6                	add	s3,s3,a3
    2270:	b78d                	j	21d2 <printk+0xb0>
    2272:	037b0b33          	mul	s6,s6,s7
    2276:	87b2                	mv	a5,a2
    2278:	9b3a                	add	s6,s6,a4
    227a:	00178703          	lb	a4,1(a5)
    227e:	00178613          	addi	a2,a5,1
    2282:	fd070713          	addi	a4,a4,-48
    2286:	fee6f6e3          	bgeu	a3,a4,2272 <printk+0x150>
    228a:	8a3e                	mv	s4,a5
    228c:	b78d                	j	21ee <printk+0xcc>
    228e:	46a5                	li	a3,9
    2290:	b7ed                	j	227a <printk+0x158>
    2292:	401c                	lw	a5,0(s0)
    2294:	46a9                	li	a3,10
    2296:	4605                	li	a2,1
    2298:	002c                	addi	a1,sp,8
    229a:	0868                	addi	a0,sp,28
    229c:	c43e                	sw	a5,8(sp)
    229e:	bfdff0ef          	jal	ra,1e9a <printk_mknumstr>
    22a2:	087c                	addi	a5,sp,28
    22a4:	00a78d33          	add	s10,a5,a0
    22a8:	47a2                	lw	a5,8(sp)
    22aa:	00440a93          	addi	s5,s0,4
    22ae:	842a                	mv	s0,a0
    22b0:	0207d463          	bgez	a5,22d8 <printk+0x1b6>
    22b4:	00150413          	addi	s0,a0,1
    22b8:	02d00b13          	li	s6,45
    22bc:	00897793          	andi	a5,s2,8
    22c0:	c7a9                	beqz	a5,230a <printk+0x1e8>
    22c2:	000b0763          	beqz	s6,22d0 <printk+0x1ae>
    22c6:	8626                	mv	a2,s1
    22c8:	004c                	addi	a1,sp,4
    22ca:	855a                	mv	a0,s6
    22cc:	b8fff0ef          	jal	ra,1e5a <printk_putc>
    22d0:	03344563          	blt	s0,s3,22fa <printk+0x1d8>
    22d4:	844e                	mv	s0,s3
    22d6:	a271                	j	2462 <printk+0x340>
    22d8:	00297793          	andi	a5,s2,2
    22dc:	c791                	beqz	a5,22e8 <printk+0x1c6>
    22de:	00150413          	addi	s0,a0,1
    22e2:	02b00b13          	li	s6,43
    22e6:	bfd9                	j	22bc <printk+0x19a>
    22e8:	00497b13          	andi	s6,s2,4
    22ec:	fc0b08e3          	beqz	s6,22bc <printk+0x19a>
    22f0:	00150413          	addi	s0,a0,1
    22f4:	02000b13          	li	s6,32
    22f8:	b7d1                	j	22bc <printk+0x19a>
    22fa:	8626                	mv	a2,s1
    22fc:	004c                	addi	a1,sp,4
    22fe:	03000513          	li	a0,48
    2302:	b59ff0ef          	jal	ra,1e5a <printk_putc>
    2306:	0405                	addi	s0,s0,1
    2308:	b7e1                	j	22d0 <printk+0x1ae>
    230a:	00197793          	andi	a5,s2,1
    230e:	e799                	bnez	a5,231c <printk+0x1fa>
    2310:	86a6                	mv	a3,s1
    2312:	0050                	addi	a2,sp,4
    2314:	85ce                	mv	a1,s3
    2316:	8522                	mv	a0,s0
    2318:	bf5ff0ef          	jal	ra,1f0c <printk_pad_space>
    231c:	140b0363          	beqz	s6,2462 <printk+0x340>
    2320:	8626                	mv	a2,s1
    2322:	004c                	addi	a1,sp,4
    2324:	855a                	mv	a0,s6
    2326:	b35ff0ef          	jal	ra,1e5a <printk_putc>
    232a:	aa25                	j	2462 <printk+0x340>
    232c:	00442d03          	lw	s10,4(s0)
    2330:	00c40a93          	addi	s5,s0,12
    2334:	4400                	lw	s0,8(s0)
    2336:	4601                	li	a2,0
    2338:	4681                	li	a3,0
    233a:	856a                	mv	a0,s10
    233c:	85a2                	mv	a1,s0
    233e:	c86a                	sw	s10,16(sp)
    2340:	ca22                	sw	s0,20(sp)
    2342:	093020ef          	jal	ra,4bd4 <__ledf2>
    2346:	04055363          	bgez	a0,238c <printk+0x26a>
    234a:	800007b7          	lui	a5,0x80000
    234e:	8fa1                	xor	a5,a5,s0
    2350:	c86a                	sw	s10,16(sp)
    2352:	ca3e                	sw	a5,20(sp)
    2354:	02d00413          	li	s0,45
    2358:	865a                	mv	a2,s6
    235a:	000c9363          	bnez	s9,2360 <printk+0x23e>
    235e:	4619                	li	a2,6
    2360:	086c                	addi	a1,sp,28
    2362:	0808                	addi	a0,sp,16
    2364:	be7ff0ef          	jal	ra,1f4a <printk_mkfloatstr>
    2368:	00197d13          	andi	s10,s2,1
    236c:	00897913          	andi	s2,s2,8
    2370:	8b2a                	mv	s6,a0
    2372:	04090063          	beqz	s2,23b2 <printk+0x290>
    2376:	c411                	beqz	s0,2382 <printk+0x260>
    2378:	8626                	mv	a2,s1
    237a:	004c                	addi	a1,sp,4
    237c:	8522                	mv	a0,s0
    237e:	addff0ef          	jal	ra,1e5a <printk_putc>
    2382:	033b4063          	blt	s6,s3,23a2 <printk+0x280>
    2386:	8b4e                	mv	s6,s3
    2388:	0860                	addi	s0,sp,28
    238a:	a0b9                	j	23d8 <printk+0x2b6>
    238c:	00297793          	andi	a5,s2,2
    2390:	02b00413          	li	s0,43
    2394:	f3f1                	bnez	a5,2358 <printk+0x236>
    2396:	00497413          	andi	s0,s2,4
    239a:	dc5d                	beqz	s0,2358 <printk+0x236>
    239c:	02000413          	li	s0,32
    23a0:	bf65                	j	2358 <printk+0x236>
    23a2:	8626                	mv	a2,s1
    23a4:	004c                	addi	a1,sp,4
    23a6:	03000513          	li	a0,48
    23aa:	ab1ff0ef          	jal	ra,1e5a <printk_putc>
    23ae:	0b05                	addi	s6,s6,1
    23b0:	bfc9                	j	2382 <printk+0x260>
    23b2:	000d1763          	bnez	s10,23c0 <printk+0x29e>
    23b6:	86a6                	mv	a3,s1
    23b8:	0050                	addi	a2,sp,4
    23ba:	85ce                	mv	a1,s3
    23bc:	b51ff0ef          	jal	ra,1f0c <printk_pad_space>
    23c0:	d461                	beqz	s0,2388 <printk+0x266>
    23c2:	8626                	mv	a2,s1
    23c4:	004c                	addi	a1,sp,4
    23c6:	8522                	mv	a0,s0
    23c8:	a93ff0ef          	jal	ra,1e5a <printk_putc>
    23cc:	bf75                	j	2388 <printk+0x266>
    23ce:	8626                	mv	a2,s1
    23d0:	004c                	addi	a1,sp,4
    23d2:	0405                	addi	s0,s0,1
    23d4:	a87ff0ef          	jal	ra,1e5a <printk_putc>
    23d8:	00040503          	lb	a0,0(s0)
    23dc:	f96d                	bnez	a0,23ce <printk+0x2ac>
    23de:	000d0863          	beqz	s10,23ee <printk+0x2cc>
    23e2:	86a6                	mv	a3,s1
    23e4:	0050                	addi	a2,sp,4
    23e6:	85ce                	mv	a1,s3
    23e8:	855a                	mv	a0,s6
    23ea:	b23ff0ef          	jal	ra,1f0c <printk_pad_space>
    23ee:	0a05                	addi	s4,s4,1
    23f0:	8456                	mv	s0,s5
    23f2:	bb8d                	j	2164 <printk+0x42>
    23f4:	401c                	lw	a5,0(s0)
    23f6:	46c1                	li	a3,16
    23f8:	4601                	li	a2,0
    23fa:	006c                	addi	a1,sp,12
    23fc:	0868                	addi	a0,sp,28
    23fe:	c63e                	sw	a5,12(sp)
    2400:	a9bff0ef          	jal	ra,1e9a <printk_mknumstr>
    2404:	087c                	addi	a5,sp,28
    2406:	00a78d33          	add	s10,a5,a0
    240a:	00897793          	andi	a5,s2,8
    240e:	00440a93          	addi	s5,s0,4
    2412:	01097b13          	andi	s6,s2,16
    2416:	842a                	mv	s0,a0
    2418:	cbad                	beqz	a5,248a <printk+0x368>
    241a:	4d81                	li	s11,0
    241c:	000b0f63          	beqz	s6,243a <printk+0x318>
    2420:	8626                	mv	a2,s1
    2422:	004c                	addi	a1,sp,4
    2424:	03000513          	li	a0,48
    2428:	a33ff0ef          	jal	ra,1e5a <printk_putc>
    242c:	8626                	mv	a2,s1
    242e:	004c                	addi	a1,sp,4
    2430:	07800513          	li	a0,120
    2434:	a27ff0ef          	jal	ra,1e5a <printk_putc>
    2438:	4d85                	li	s11,1
    243a:	05344063          	blt	s0,s3,247a <printk+0x358>
    243e:	844e                	mv	s0,s3
    2440:	020b0163          	beqz	s6,2462 <printk+0x340>
    2444:	000d9f63          	bnez	s11,2462 <printk+0x340>
    2448:	8626                	mv	a2,s1
    244a:	004c                	addi	a1,sp,4
    244c:	03000513          	li	a0,48
    2450:	a0bff0ef          	jal	ra,1e5a <printk_putc>
    2454:	8626                	mv	a2,s1
    2456:	004c                	addi	a1,sp,4
    2458:	07800513          	li	a0,120
    245c:	9ffff0ef          	jal	ra,1e5a <printk_putc>
    2460:	0409                	addi	s0,s0,2
    2462:	000d0503          	lb	a0,0(s10) # 8000 <_data_lma+0x85c>
    2466:	e179                	bnez	a0,252c <printk+0x40a>
    2468:	00197913          	andi	s2,s2,1
    246c:	f80901e3          	beqz	s2,23ee <printk+0x2cc>
    2470:	86a6                	mv	a3,s1
    2472:	0050                	addi	a2,sp,4
    2474:	85ce                	mv	a1,s3
    2476:	8522                	mv	a0,s0
    2478:	bf8d                	j	23ea <printk+0x2c8>
    247a:	8626                	mv	a2,s1
    247c:	004c                	addi	a1,sp,4
    247e:	03000513          	li	a0,48
    2482:	9d9ff0ef          	jal	ra,1e5a <printk_putc>
    2486:	0405                	addi	s0,s0,1
    2488:	bf4d                	j	243a <printk+0x318>
    248a:	00197793          	andi	a5,s2,1
    248e:	12079463          	bnez	a5,25b6 <printk+0x494>
    2492:	000b0463          	beqz	s6,249a <printk+0x378>
    2496:	00250413          	addi	s0,a0,2
    249a:	86a6                	mv	a3,s1
    249c:	0050                	addi	a2,sp,4
    249e:	85ce                	mv	a1,s3
    24a0:	8522                	mv	a0,s0
    24a2:	a6bff0ef          	jal	ra,1f0c <printk_pad_space>
    24a6:	fa0b0ee3          	beqz	s6,2462 <printk+0x340>
    24aa:	8626                	mv	a2,s1
    24ac:	004c                	addi	a1,sp,4
    24ae:	03000513          	li	a0,48
    24b2:	9a9ff0ef          	jal	ra,1e5a <printk_putc>
    24b6:	8626                	mv	a2,s1
    24b8:	004c                	addi	a1,sp,4
    24ba:	07800513          	li	a0,120
    24be:	b5a5                	j	2326 <printk+0x204>
    24c0:	401c                	lw	a5,0(s0)
    24c2:	00440a93          	addi	s5,s0,4
    24c6:	46a1                	li	a3,8
    24c8:	c63e                	sw	a5,12(sp)
    24ca:	4601                	li	a2,0
    24cc:	006c                	addi	a1,sp,12
    24ce:	0868                	addi	a0,sp,28
    24d0:	9cbff0ef          	jal	ra,1e9a <printk_mknumstr>
    24d4:	087c                	addi	a5,sp,28
    24d6:	00a78d33          	add	s10,a5,a0
    24da:	00897793          	andi	a5,s2,8
    24de:	842a                	mv	s0,a0
    24e0:	cf8d                	beqz	a5,251a <printk+0x3f8>
    24e2:	df3459e3          	bge	s0,s3,22d4 <printk+0x1b2>
    24e6:	8626                	mv	a2,s1
    24e8:	004c                	addi	a1,sp,4
    24ea:	03000513          	li	a0,48
    24ee:	96dff0ef          	jal	ra,1e5a <printk_putc>
    24f2:	0405                	addi	s0,s0,1
    24f4:	b7fd                	j	24e2 <printk+0x3c0>
    24f6:	401c                	lw	a5,0(s0)
    24f8:	00440a93          	addi	s5,s0,4
    24fc:	4689                	li	a3,2
    24fe:	c63e                	sw	a5,12(sp)
    2500:	b7e9                	j	24ca <printk+0x3a8>
    2502:	401c                	lw	a5,0(s0)
    2504:	00440a93          	addi	s5,s0,4
    2508:	46c1                	li	a3,16
    250a:	c63e                	sw	a5,12(sp)
    250c:	bf7d                	j	24ca <printk+0x3a8>
    250e:	401c                	lw	a5,0(s0)
    2510:	00440a93          	addi	s5,s0,4
    2514:	46a9                	li	a3,10
    2516:	c63e                	sw	a5,12(sp)
    2518:	bf4d                	j	24ca <printk+0x3a8>
    251a:	00197793          	andi	a5,s2,1
    251e:	f3b1                	bnez	a5,2462 <printk+0x340>
    2520:	86a6                	mv	a3,s1
    2522:	0050                	addi	a2,sp,4
    2524:	85ce                	mv	a1,s3
    2526:	9e7ff0ef          	jal	ra,1f0c <printk_pad_space>
    252a:	bf25                	j	2462 <printk+0x340>
    252c:	1d7d                	addi	s10,s10,-1
    252e:	8626                	mv	a2,s1
    2530:	004c                	addi	a1,sp,4
    2532:	bbd5                	j	2326 <printk+0x204>
    2534:	00040503          	lb	a0,0(s0)
    2538:	8626                	mv	a2,s1
    253a:	004c                	addi	a1,sp,4
    253c:	00440a93          	addi	s5,s0,4
    2540:	91bff0ef          	jal	ra,1e5a <printk_putc>
    2544:	b56d                	j	23ee <printk+0x2cc>
    2546:	00440a93          	addi	s5,s0,4
    254a:	4000                	lw	s0,0(s0)
    254c:	ea0401e3          	beqz	s0,23ee <printk+0x2cc>
    2550:	8522                	mv	a0,s0
    2552:	4e4040ef          	jal	ra,6a36 <strlen>
    2556:	00197913          	andi	s2,s2,1
    255a:	8d2a                	mv	s10,a0
    255c:	00091763          	bnez	s2,256a <printk+0x448>
    2560:	86a6                	mv	a3,s1
    2562:	0050                	addi	a2,sp,4
    2564:	85ce                	mv	a1,s3
    2566:	9a7ff0ef          	jal	ra,1f0c <printk_pad_space>
    256a:	020b1363          	bnez	s6,2590 <printk+0x46e>
    256e:	00040503          	lb	a0,0(s0)
    2572:	c115                	beqz	a0,2596 <printk+0x474>
    2574:	8626                	mv	a2,s1
    2576:	004c                	addi	a1,sp,4
    2578:	0405                	addi	s0,s0,1
    257a:	8e1ff0ef          	jal	ra,1e5a <printk_putc>
    257e:	bfc5                	j	256e <printk+0x44c>
    2580:	000b0a63          	beqz	s6,2594 <printk+0x472>
    2584:	8626                	mv	a2,s1
    2586:	004c                	addi	a1,sp,4
    2588:	1b7d                	addi	s6,s6,-1
    258a:	0405                	addi	s0,s0,1
    258c:	8cfff0ef          	jal	ra,1e5a <printk_putc>
    2590:	00040503          	lb	a0,0(s0)
    2594:	f575                	bnez	a0,2580 <printk+0x45e>
    2596:	e4090ce3          	beqz	s2,23ee <printk+0x2cc>
    259a:	86a6                	mv	a3,s1
    259c:	0050                	addi	a2,sp,4
    259e:	85ce                	mv	a1,s3
    25a0:	856a                	mv	a0,s10
    25a2:	b5a1                	j	23ea <printk+0x2c8>
    25a4:	401c                	lw	a5,0(s0)
    25a6:	4712                	lw	a4,4(sp)
    25a8:	00440a93          	addi	s5,s0,4
    25ac:	c398                	sw	a4,0(a5)
    25ae:	b581                	j	23ee <printk+0x2cc>
    25b0:	8626                	mv	a2,s1
    25b2:	004c                	addi	a1,sp,4
    25b4:	b6dd                	j	219a <printk+0x78>
    25b6:	e80b19e3          	bnez	s6,2448 <printk+0x326>
    25ba:	b565                	j	2462 <printk+0x340>

000025bc <myprintf>:
    25bc:	7139                	addi	sp,sp,-64
    25be:	da3e                	sw	a5,52(sp)
    25c0:	4785                	li	a5,1
    25c2:	c23e                	sw	a5,4(sp)
    25c4:	000027b7          	lui	a5,0x2
    25c8:	d22e                	sw	a1,36(sp)
    25ca:	d432                	sw	a2,40(sp)
    25cc:	f4078793          	addi	a5,a5,-192 # 1f40 <out_char>
    25d0:	1050                	addi	a2,sp,36
    25d2:	85aa                	mv	a1,a0
    25d4:	0048                	addi	a0,sp,4
    25d6:	ce06                	sw	ra,28(sp)
    25d8:	d636                	sw	a3,44(sp)
    25da:	d83a                	sw	a4,48(sp)
    25dc:	dc42                	sw	a6,56(sp)
    25de:	de46                	sw	a7,60(sp)
    25e0:	c43e                	sw	a5,8(sp)
    25e2:	c032                	sw	a2,0(sp)
    25e4:	b3fff0ef          	jal	ra,2122 <printk>
    25e8:	40f2                	lw	ra,28(sp)
    25ea:	6121                	addi	sp,sp,64
    25ec:	8082                	ret

000025ee <sdio_input>:
    25ee:	4605                	li	a2,1
    25f0:	4581                	li	a1,0
    25f2:	40e00513          	li	a0,1038
    25f6:	7980006f          	j	2d8e <gpio_init>

000025fa <sdio_output>:
    25fa:	4605                	li	a2,1
    25fc:	4585                	li	a1,1
    25fe:	40e00513          	li	a0,1038
    2602:	78c0006f          	j	2d8e <gpio_init>

00002606 <SCCB_Init>:
    2606:	1141                	addi	sp,sp,-16
    2608:	4605                	li	a2,1
    260a:	4585                	li	a1,1
    260c:	40d00513          	li	a0,1037
    2610:	c606                	sw	ra,12(sp)
    2612:	77c000ef          	jal	ra,2d8e <gpio_init>
    2616:	40b2                	lw	ra,12(sp)
    2618:	4605                	li	a2,1
    261a:	4585                	li	a1,1
    261c:	40e00513          	li	a0,1038
    2620:	0141                	addi	sp,sp,16
    2622:	76c0006f          	j	2d8e <gpio_init>

00002626 <Delay_ms>:
    2626:	4701                	li	a4,0
    2628:	200005b7          	lui	a1,0x20000
    262c:	3e800613          	li	a2,1000
    2630:	06400693          	li	a3,100
    2634:	0805a783          	lw	a5,128(a1) # 20000080 <SystemCoreClock>
    2638:	02c7d7b3          	divu	a5,a5,a2
    263c:	02a787b3          	mul	a5,a5,a0
    2640:	02d7d7b3          	divu	a5,a5,a3
    2644:	00f76363          	bltu	a4,a5,264a <Delay_ms+0x24>
    2648:	8082                	ret
    264a:	0001                	nop
    264c:	0705                	addi	a4,a4,1
    264e:	b7dd                	j	2634 <Delay_ms+0xe>

00002650 <sccb_start>:
    2650:	1141                	addi	sp,sp,-16
    2652:	4585                	li	a1,1
    2654:	40d00513          	li	a0,1037
    2658:	c606                	sw	ra,12(sp)
    265a:	70a000ef          	jal	ra,2d64 <gpio_set>
    265e:	4585                	li	a1,1
    2660:	40e00513          	li	a0,1038
    2664:	700000ef          	jal	ra,2d64 <gpio_set>
    2668:	4505                	li	a0,1
    266a:	fbdff0ef          	jal	ra,2626 <Delay_ms>
    266e:	4581                	li	a1,0
    2670:	40e00513          	li	a0,1038
    2674:	6f0000ef          	jal	ra,2d64 <gpio_set>
    2678:	4505                	li	a0,1
    267a:	fadff0ef          	jal	ra,2626 <Delay_ms>
    267e:	40d00513          	li	a0,1037
    2682:	4581                	li	a1,0
    2684:	6e0000ef          	jal	ra,2d64 <gpio_set>
    2688:	40b2                	lw	ra,12(sp)
    268a:	4505                	li	a0,1
    268c:	0141                	addi	sp,sp,16
    268e:	f99ff06f          	j	2626 <Delay_ms>

00002692 <sccb_stop>:
    2692:	1141                	addi	sp,sp,-16
    2694:	4581                	li	a1,0
    2696:	40d00513          	li	a0,1037
    269a:	c606                	sw	ra,12(sp)
    269c:	6c8000ef          	jal	ra,2d64 <gpio_set>
    26a0:	4581                	li	a1,0
    26a2:	40e00513          	li	a0,1038
    26a6:	6be000ef          	jal	ra,2d64 <gpio_set>
    26aa:	4505                	li	a0,1
    26ac:	f7bff0ef          	jal	ra,2626 <Delay_ms>
    26b0:	4585                	li	a1,1
    26b2:	40d00513          	li	a0,1037
    26b6:	6ae000ef          	jal	ra,2d64 <gpio_set>
    26ba:	4505                	li	a0,1
    26bc:	f6bff0ef          	jal	ra,2626 <Delay_ms>
    26c0:	40e00513          	li	a0,1038
    26c4:	4585                	li	a1,1
    26c6:	69e000ef          	jal	ra,2d64 <gpio_set>
    26ca:	40b2                	lw	ra,12(sp)
    26cc:	4505                	li	a0,1
    26ce:	0141                	addi	sp,sp,16
    26d0:	f57ff06f          	j	2626 <Delay_ms>

000026d4 <sccb_send1>:
    26d4:	1141                	addi	sp,sp,-16
    26d6:	c422                	sw	s0,8(sp)
    26d8:	c226                	sw	s1,4(sp)
    26da:	c606                	sw	ra,12(sp)
    26dc:	84aa                	mv	s1,a0
    26de:	4421                	li	s0,8
    26e0:	01849793          	slli	a5,s1,0x18
    26e4:	87e1                	srai	a5,a5,0x18
    26e6:	4585                	li	a1,1
    26e8:	0007c363          	bltz	a5,26ee <sccb_send1+0x1a>
    26ec:	4581                	li	a1,0
    26ee:	40e00513          	li	a0,1038
    26f2:	2d8d                	jal	2d64 <gpio_set>
    26f4:	4505                	li	a0,1
    26f6:	f31ff0ef          	jal	ra,2626 <Delay_ms>
    26fa:	4585                	li	a1,1
    26fc:	40d00513          	li	a0,1037
    2700:	2595                	jal	2d64 <gpio_set>
    2702:	4505                	li	a0,1
    2704:	f23ff0ef          	jal	ra,2626 <Delay_ms>
    2708:	4581                	li	a1,0
    270a:	40d00513          	li	a0,1037
    270e:	2d99                	jal	2d64 <gpio_set>
    2710:	147d                	addi	s0,s0,-1
    2712:	0486                	slli	s1,s1,0x1
    2714:	4505                	li	a0,1
    2716:	0ff47413          	andi	s0,s0,255
    271a:	0ff4f493          	andi	s1,s1,255
    271e:	f09ff0ef          	jal	ra,2626 <Delay_ms>
    2722:	fc5d                	bnez	s0,26e0 <sccb_send1+0xc>
    2724:	40b2                	lw	ra,12(sp)
    2726:	4422                	lw	s0,8(sp)
    2728:	4492                	lw	s1,4(sp)
    272a:	0141                	addi	sp,sp,16
    272c:	8082                	ret

0000272e <sccb_waitAck>:
    272e:	1141                	addi	sp,sp,-16
    2730:	4585                	li	a1,1
    2732:	40e00513          	li	a0,1038
    2736:	c606                	sw	ra,12(sp)
    2738:	c422                	sw	s0,8(sp)
    273a:	252d                	jal	2d64 <gpio_set>
    273c:	4581                	li	a1,0
    273e:	40d00513          	li	a0,1037
    2742:	250d                	jal	2d64 <gpio_set>
    2744:	eabff0ef          	jal	ra,25ee <sdio_input>
    2748:	4529                	li	a0,10
    274a:	eddff0ef          	jal	ra,2626 <Delay_ms>
    274e:	4585                	li	a1,1
    2750:	40d00513          	li	a0,1037
    2754:	2d01                	jal	2d64 <gpio_set>
    2756:	40e00513          	li	a0,1038
    275a:	6e2000ef          	jal	ra,2e3c <gpio_get>
    275e:	842a                	mv	s0,a0
    2760:	4505                	li	a0,1
    2762:	ec5ff0ef          	jal	ra,2626 <Delay_ms>
    2766:	e95ff0ef          	jal	ra,25fa <sdio_output>
    276a:	40d00513          	li	a0,1037
    276e:	4581                	li	a1,0
    2770:	2bd5                	jal	2d64 <gpio_set>
    2772:	8522                	mv	a0,s0
    2774:	40b2                	lw	ra,12(sp)
    2776:	4422                	lw	s0,8(sp)
    2778:	0141                	addi	sp,sp,16
    277a:	8082                	ret

0000277c <SCCB_Write>:
    277c:	1101                	addi	sp,sp,-32
    277e:	ce06                	sw	ra,28(sp)
    2780:	c232                	sw	a2,4(sp)
    2782:	c42e                	sw	a1,8(sp)
    2784:	c62a                	sw	a0,12(sp)
    2786:	ecbff0ef          	jal	ra,2650 <sccb_start>
    278a:	4532                	lw	a0,12(sp)
    278c:	f49ff0ef          	jal	ra,26d4 <sccb_send1>
    2790:	f9fff0ef          	jal	ra,272e <sccb_waitAck>
    2794:	45a2                	lw	a1,8(sp)
    2796:	852e                	mv	a0,a1
    2798:	f3dff0ef          	jal	ra,26d4 <sccb_send1>
    279c:	f93ff0ef          	jal	ra,272e <sccb_waitAck>
    27a0:	4612                	lw	a2,4(sp)
    27a2:	8532                	mv	a0,a2
    27a4:	f31ff0ef          	jal	ra,26d4 <sccb_send1>
    27a8:	f87ff0ef          	jal	ra,272e <sccb_waitAck>
    27ac:	40f2                	lw	ra,28(sp)
    27ae:	6105                	addi	sp,sp,32
    27b0:	ee3ff06f          	j	2692 <sccb_stop>

000027b4 <sccb_rec1>:
    27b4:	1141                	addi	sp,sp,-16
    27b6:	c226                	sw	s1,4(sp)
    27b8:	4585                	li	a1,1
    27ba:	84aa                	mv	s1,a0
    27bc:	40e00513          	li	a0,1038
    27c0:	c606                	sw	ra,12(sp)
    27c2:	c422                	sw	s0,8(sp)
    27c4:	2345                	jal	2d64 <gpio_set>
    27c6:	4421                	li	s0,8
    27c8:	e27ff0ef          	jal	ra,25ee <sdio_input>
    27cc:	4585                	li	a1,1
    27ce:	40d00513          	li	a0,1037
    27d2:	2b49                	jal	2d64 <gpio_set>
    27d4:	4505                	li	a0,1
    27d6:	e51ff0ef          	jal	ra,2626 <Delay_ms>
    27da:	0004c783          	lbu	a5,0(s1)
    27de:	40e00513          	li	a0,1038
    27e2:	0786                	slli	a5,a5,0x1
    27e4:	00f48023          	sb	a5,0(s1)
    27e8:	2d91                	jal	2e3c <gpio_get>
    27ea:	c519                	beqz	a0,27f8 <sccb_rec1+0x44>
    27ec:	0004c783          	lbu	a5,0(s1)
    27f0:	0017e793          	ori	a5,a5,1
    27f4:	00f48023          	sb	a5,0(s1)
    27f8:	4581                	li	a1,0
    27fa:	40d00513          	li	a0,1037
    27fe:	239d                	jal	2d64 <gpio_set>
    2800:	147d                	addi	s0,s0,-1
    2802:	4505                	li	a0,1
    2804:	0ff47413          	andi	s0,s0,255
    2808:	e1fff0ef          	jal	ra,2626 <Delay_ms>
    280c:	f061                	bnez	s0,27cc <sccb_rec1+0x18>
    280e:	dedff0ef          	jal	ra,25fa <sdio_output>
    2812:	4422                	lw	s0,8(sp)
    2814:	40b2                	lw	ra,12(sp)
    2816:	4492                	lw	s1,4(sp)
    2818:	4505                	li	a0,1
    281a:	0141                	addi	sp,sp,16
    281c:	e0bff06f          	j	2626 <Delay_ms>

00002820 <sccb_nack>:
    2820:	1141                	addi	sp,sp,-16
    2822:	4581                	li	a1,0
    2824:	40d00513          	li	a0,1037
    2828:	c606                	sw	ra,12(sp)
    282a:	2b2d                	jal	2d64 <gpio_set>
    282c:	4505                	li	a0,1
    282e:	df9ff0ef          	jal	ra,2626 <Delay_ms>
    2832:	4585                	li	a1,1
    2834:	40e00513          	li	a0,1038
    2838:	2335                	jal	2d64 <gpio_set>
    283a:	4505                	li	a0,1
    283c:	debff0ef          	jal	ra,2626 <Delay_ms>
    2840:	4585                	li	a1,1
    2842:	40d00513          	li	a0,1037
    2846:	2b39                	jal	2d64 <gpio_set>
    2848:	4505                	li	a0,1
    284a:	dddff0ef          	jal	ra,2626 <Delay_ms>
    284e:	40d00513          	li	a0,1037
    2852:	4581                	li	a1,0
    2854:	2b01                	jal	2d64 <gpio_set>
    2856:	40b2                	lw	ra,12(sp)
    2858:	4505                	li	a0,1
    285a:	0141                	addi	sp,sp,16
    285c:	dcbff06f          	j	2626 <Delay_ms>

00002860 <SCCB_Read>:
    2860:	1101                	addi	sp,sp,-32
    2862:	ce06                	sw	ra,28(sp)
    2864:	c432                	sw	a2,8(sp)
    2866:	cc22                	sw	s0,24(sp)
    2868:	c62e                	sw	a1,12(sp)
    286a:	842a                	mv	s0,a0
    286c:	de5ff0ef          	jal	ra,2650 <sccb_start>
    2870:	8522                	mv	a0,s0
    2872:	e63ff0ef          	jal	ra,26d4 <sccb_send1>
    2876:	eb9ff0ef          	jal	ra,272e <sccb_waitAck>
    287a:	45b2                	lw	a1,12(sp)
    287c:	852e                	mv	a0,a1
    287e:	e57ff0ef          	jal	ra,26d4 <sccb_send1>
    2882:	eadff0ef          	jal	ra,272e <sccb_waitAck>
    2886:	e0dff0ef          	jal	ra,2692 <sccb_stop>
    288a:	dc7ff0ef          	jal	ra,2650 <sccb_start>
    288e:	00140513          	addi	a0,s0,1
    2892:	0ff57513          	andi	a0,a0,255
    2896:	e3fff0ef          	jal	ra,26d4 <sccb_send1>
    289a:	e95ff0ef          	jal	ra,272e <sccb_waitAck>
    289e:	4622                	lw	a2,8(sp)
    28a0:	8532                	mv	a0,a2
    28a2:	f13ff0ef          	jal	ra,27b4 <sccb_rec1>
    28a6:	f7bff0ef          	jal	ra,2820 <sccb_nack>
    28aa:	4462                	lw	s0,24(sp)
    28ac:	40f2                	lw	ra,28(sp)
    28ae:	6105                	addi	sp,sp,32
    28b0:	de3ff06f          	j	2692 <sccb_stop>

000028b4 <USART2_IRQHandler>:
    28b4:	9f5fd0ef          	jal	ra,2a8 <UART_User_Handler>
    28b8:	30200073          	mret

000028bc <EXTI15_10_IRQHandler>:
    28bc:	a25fd0ef          	jal	ra,2e0 <Cam_User_Handler>
    28c0:	30200073          	mret

000028c4 <TIM7_IRQHandler>:
    28c4:	a8bfd0ef          	jal	ra,34e <TIMER_USER_Handler>
    28c8:	30200073          	mret

000028cc <Vectors_Init>:
    28cc:	bf010113          	addi	sp,sp,-1040
    28d0:	45e1                	li	a1,24
    28d2:	77f00513          	li	a0,1919
    28d6:	40112623          	sw	ra,1036(sp)
    28da:	40812423          	sw	s0,1032(sp)
    28de:	40912223          	sw	s1,1028(sp)
    28e2:	24e1                	jal	2baa <flash_isempty>
    28e4:	c919                	beqz	a0,28fa <Vectors_Init+0x2e>
    28e6:	00007637          	lui	a2,0x7
    28ea:	08078537          	lui	a0,0x8078
    28ee:	4e060613          	addi	a2,a2,1248 # 74e0 <nAsciiDot+0x698>
    28f2:	45e1                	li	a1,24
    28f4:	f0050513          	addi	a0,a0,-256 # 8077f00 <_data_lma+0x807075c>
    28f8:	292d                	jal	2d32 <flash_write_physical>
    28fa:	0801c437          	lui	s0,0x801c
    28fe:	20000613          	li	a2,512
    2902:	40040593          	addi	a1,s0,1024 # 801c400 <_data_lma+0x8014c5c>
    2906:	850a                	mv	a0,sp
    2908:	2c79                	jal	2ba6 <flash_read_physical>
    290a:	080004b7          	lui	s1,0x8000
    290e:	10c4a703          	lw	a4,268(s1) # 800010c <_data_lma+0x7ff8968>
    2912:	10c12783          	lw	a5,268(sp)
    2916:	02f70863          	beq	a4,a5,2946 <Vectors_Init+0x7a>
    291a:	00007537          	lui	a0,0x7
    291e:	4fc50513          	addi	a0,a0,1276 # 74fc <nAsciiDot+0x6b4>
    2922:	c9bff0ef          	jal	ra,25bc <myprintf>
    2926:	1c400513          	li	a0,452
    292a:	2c21                	jal	2b42 <flash_erase>
    292c:	1c500513          	li	a0,453
    2930:	2c09                	jal	2b42 <flash_erase>
    2932:	10c4a783          	lw	a5,268(s1)
    2936:	860a                	mv	a2,sp
    2938:	20000593          	li	a1,512
    293c:	40040513          	addi	a0,s0,1024
    2940:	10f12623          	sw	a5,268(sp)
    2944:	26fd                	jal	2d32 <flash_write_physical>
    2946:	080117b7          	lui	a5,0x8011
    294a:	00007537          	lui	a0,0x7
    294e:	20002737          	lui	a4,0x20002
    2952:	40078793          	addi	a5,a5,1024 # 8011400 <_data_lma+0x8009c5c>
    2956:	51850513          	addi	a0,a0,1304 # 7518 <nAsciiDot+0x6d0>
    295a:	90f72623          	sw	a5,-1780(a4) # 2000190c <component_fun>
    295e:	c5fff0ef          	jal	ra,25bc <myprintf>
    2962:	40c12083          	lw	ra,1036(sp)
    2966:	40812403          	lw	s0,1032(sp)
    296a:	40412483          	lw	s1,1028(sp)
    296e:	41010113          	addi	sp,sp,1040
    2972:	8082                	ret

00002974 <handle_reset>:
    2974:	34129073          	csrw	mepc,t0
    2978:	2001d117          	auipc	sp,0x2001d
    297c:	68810113          	addi	sp,sp,1672 # 20020000 <GEC_USER_RAM_END>
    2980:	00005517          	auipc	a0,0x5
    2984:	e2450513          	addi	a0,a0,-476 # 77a4 <_data_lma>
    2988:	1fffd597          	auipc	a1,0x1fffd
    298c:	67858593          	addi	a1,a1,1656 # 20000000 <GEC_USER_RAM_START>
    2990:	1fffd617          	auipc	a2,0x1fffd
    2994:	6f860613          	addi	a2,a2,1784 # 20000088 <_edata>
    2998:	00c5fa63          	bgeu	a1,a2,29ac <handle_reset+0x38>
    299c:	00052283          	lw	t0,0(a0)
    29a0:	0055a023          	sw	t0,0(a1)
    29a4:	0511                	addi	a0,a0,4
    29a6:	0591                	addi	a1,a1,4
    29a8:	fec5eae3          	bltu	a1,a2,299c <handle_reset+0x28>
    29ac:	1fffd517          	auipc	a0,0x1fffd
    29b0:	6dc50513          	addi	a0,a0,1756 # 20000088 <_edata>
    29b4:	20000597          	auipc	a1,0x20000
    29b8:	fc858593          	addi	a1,a1,-56 # 2000297c <_ebss>
    29bc:	00b57763          	bgeu	a0,a1,29ca <handle_reset+0x56>
    29c0:	00052023          	sw	zero,0(a0)
    29c4:	0511                	addi	a0,a0,4
    29c6:	feb56de3          	bltu	a0,a1,29c0 <handle_reset+0x4c>
    29ca:	000082b7          	lui	t0,0x8
    29ce:	88828293          	addi	t0,t0,-1912 # 7888 <_data_lma+0xe4>
    29d2:	3002a073          	csrs	mstatus,t0
    29d6:	028000ef          	jal	ra,29fe <SystemInit>
    29da:	ef3ff0ef          	jal	ra,28cc <Vectors_Init>
    29de:	ffffd297          	auipc	t0,0xffffd
    29e2:	65a28293          	addi	t0,t0,1626 # 38 <_einit>
    29e6:	0032e293          	ori	t0,t0,3
    29ea:	30529073          	csrw	mtvec,t0
    29ee:	ffffe297          	auipc	t0,0xffffe
    29f2:	bb628293          	addi	t0,t0,-1098 # 5a4 <main>
    29f6:	34129073          	csrw	mepc,t0
    29fa:	30200073          	mret

000029fe <SystemInit>:
    29fe:	400217b7          	lui	a5,0x40021
    2a02:	4398                	lw	a4,0(a5)
    2a04:	f8ff06b7          	lui	a3,0xf8ff0
    2a08:	1141                	addi	sp,sp,-16
    2a0a:	00176713          	ori	a4,a4,1
    2a0e:	c398                	sw	a4,0(a5)
    2a10:	43d8                	lw	a4,4(a5)
    2a12:	00020637          	lui	a2,0x20
    2a16:	8f75                	and	a4,a4,a3
    2a18:	c3d8                	sw	a4,4(a5)
    2a1a:	4398                	lw	a4,0(a5)
    2a1c:	fef706b7          	lui	a3,0xfef70
    2a20:	16fd                	addi	a3,a3,-1
    2a22:	8f75                	and	a4,a4,a3
    2a24:	c398                	sw	a4,0(a5)
    2a26:	4398                	lw	a4,0(a5)
    2a28:	fffc06b7          	lui	a3,0xfffc0
    2a2c:	16fd                	addi	a3,a3,-1
    2a2e:	8f75                	and	a4,a4,a3
    2a30:	c398                	sw	a4,0(a5)
    2a32:	43d8                	lw	a4,4(a5)
    2a34:	ff8106b7          	lui	a3,0xff810
    2a38:	16fd                	addi	a3,a3,-1
    2a3a:	8f75                	and	a4,a4,a3
    2a3c:	c3d8                	sw	a4,4(a5)
    2a3e:	009f0737          	lui	a4,0x9f0
    2a42:	c798                	sw	a4,8(a5)
    2a44:	c402                	sw	zero,8(sp)
    2a46:	c602                	sw	zero,12(sp)
    2a48:	4398                	lw	a4,0(a5)
    2a4a:	66c1                	lui	a3,0x10
    2a4c:	8f55                	or	a4,a4,a3
    2a4e:	c398                	sw	a4,0(a5)
    2a50:	400216b7          	lui	a3,0x40021
    2a54:	50000713          	li	a4,1280
    2a58:	429c                	lw	a5,0(a3)
    2a5a:	8ff1                	and	a5,a5,a2
    2a5c:	c63e                	sw	a5,12(sp)
    2a5e:	47a2                	lw	a5,8(sp)
    2a60:	0785                	addi	a5,a5,1
    2a62:	c43e                	sw	a5,8(sp)
    2a64:	47b2                	lw	a5,12(sp)
    2a66:	e781                	bnez	a5,2a6e <SystemInit+0x70>
    2a68:	47a2                	lw	a5,8(sp)
    2a6a:	fee797e3          	bne	a5,a4,2a58 <SystemInit+0x5a>
    2a6e:	400217b7          	lui	a5,0x40021
    2a72:	439c                	lw	a5,0(a5)
    2a74:	00e79713          	slli	a4,a5,0xe
    2a78:	08075463          	bgez	a4,2b00 <SystemInit+0x102>
    2a7c:	4785                	li	a5,1
    2a7e:	c63e                	sw	a5,12(sp)
    2a80:	4732                	lw	a4,12(sp)
    2a82:	4785                	li	a5,1
    2a84:	06f71c63          	bne	a4,a5,2afc <SystemInit+0xfe>
    2a88:	400227b7          	lui	a5,0x40022
    2a8c:	4398                	lw	a4,0(a5)
    2a8e:	ffc106b7          	lui	a3,0xffc10
    2a92:	16fd                	addi	a3,a3,-1
    2a94:	01076713          	ori	a4,a4,16
    2a98:	c398                	sw	a4,0(a5)
    2a9a:	4398                	lw	a4,0(a5)
    2a9c:	9b71                	andi	a4,a4,-4
    2a9e:	c398                	sw	a4,0(a5)
    2aa0:	4398                	lw	a4,0(a5)
    2aa2:	00276713          	ori	a4,a4,2
    2aa6:	c398                	sw	a4,0(a5)
    2aa8:	400217b7          	lui	a5,0x40021
    2aac:	43d8                	lw	a4,4(a5)
    2aae:	c3d8                	sw	a4,4(a5)
    2ab0:	43d8                	lw	a4,4(a5)
    2ab2:	c3d8                	sw	a4,4(a5)
    2ab4:	43d8                	lw	a4,4(a5)
    2ab6:	40076713          	ori	a4,a4,1024
    2aba:	c3d8                	sw	a4,4(a5)
    2abc:	43d8                	lw	a4,4(a5)
    2abe:	8f75                	and	a4,a4,a3
    2ac0:	c3d8                	sw	a4,4(a5)
    2ac2:	43d8                	lw	a4,4(a5)
    2ac4:	001d06b7          	lui	a3,0x1d0
    2ac8:	8f55                	or	a4,a4,a3
    2aca:	c3d8                	sw	a4,4(a5)
    2acc:	4398                	lw	a4,0(a5)
    2ace:	010006b7          	lui	a3,0x1000
    2ad2:	8f55                	or	a4,a4,a3
    2ad4:	c398                	sw	a4,0(a5)
    2ad6:	4398                	lw	a4,0(a5)
    2ad8:	00671693          	slli	a3,a4,0x6
    2adc:	fe06dde3          	bgez	a3,2ad6 <SystemInit+0xd8>
    2ae0:	43d8                	lw	a4,4(a5)
    2ae2:	400216b7          	lui	a3,0x40021
    2ae6:	9b71                	andi	a4,a4,-4
    2ae8:	c3d8                	sw	a4,4(a5)
    2aea:	43d8                	lw	a4,4(a5)
    2aec:	00276713          	ori	a4,a4,2
    2af0:	c3d8                	sw	a4,4(a5)
    2af2:	4721                	li	a4,8
    2af4:	42dc                	lw	a5,4(a3)
    2af6:	8bb1                	andi	a5,a5,12
    2af8:	fee79ee3          	bne	a5,a4,2af4 <SystemInit+0xf6>
    2afc:	0141                	addi	sp,sp,16
    2afe:	8082                	ret
    2b00:	c602                	sw	zero,12(sp)
    2b02:	bfbd                	j	2a80 <SystemInit+0x82>

00002b04 <flash_init>:
    2b04:	400227b7          	lui	a5,0x40022
    2b08:	47d8                	lw	a4,12(a5)
    2b0a:	c7d8                	sw	a4,12(a5)
    2b0c:	4b98                	lw	a4,16(a5)
    2b0e:	08077713          	andi	a4,a4,128
    2b12:	cf09                	beqz	a4,2b2c <flash_init+0x28>
    2b14:	456706b7          	lui	a3,0x45670
    2b18:	12368693          	addi	a3,a3,291 # 45670123 <GEC_USER_RAM_END+0x25650123>
    2b1c:	cdef9737          	lui	a4,0xcdef9
    2b20:	c3d4                	sw	a3,4(a5)
    2b22:	9ab70713          	addi	a4,a4,-1621 # cdef89ab <GEC_USER_RAM_END+0xaded89ab>
    2b26:	c3d8                	sw	a4,4(a5)
    2b28:	d3d4                	sw	a3,36(a5)
    2b2a:	d3d8                	sw	a4,36(a5)
    2b2c:	400227b7          	lui	a5,0x40022
    2b30:	47d8                	lw	a4,12(a5)
    2b32:	8b05                	andi	a4,a4,1
    2b34:	ff75                	bnez	a4,2b30 <flash_init+0x2c>
    2b36:	4398                	lw	a4,0(a5)
    2b38:	9b3d                	andi	a4,a4,-17
    2b3a:	c398                	sw	a4,0(a5)
    2b3c:	4b98                	lw	a4,16(a5)
    2b3e:	cb98                	sw	a4,16(a5)
    2b40:	8082                	ret

00002b42 <flash_erase>:
    2b42:	1141                	addi	sp,sp,-16
    2b44:	c422                	sw	s0,8(sp)
    2b46:	00080437          	lui	s0,0x80
    2b4a:	942a                	add	s0,s0,a0
    2b4c:	c606                	sw	ra,12(sp)
    2b4e:	fb7ff0ef          	jal	ra,2b04 <flash_init>
    2b52:	0422                	slli	s0,s0,0x8
    2b54:	400227b7          	lui	a5,0x40022
    2b58:	47d8                	lw	a4,12(a5)
    2b5a:	8b05                	andi	a4,a4,1
    2b5c:	ff75                	bnez	a4,2b58 <flash_erase+0x16>
    2b5e:	4b98                	lw	a4,16(a5)
    2b60:	000206b7          	lui	a3,0x20
    2b64:	9b79                	andi	a4,a4,-2
    2b66:	cb98                	sw	a4,16(a5)
    2b68:	4b98                	lw	a4,16(a5)
    2b6a:	8f55                	or	a4,a4,a3
    2b6c:	cb98                	sw	a4,16(a5)
    2b6e:	cbc0                	sw	s0,20(a5)
    2b70:	4b98                	lw	a4,16(a5)
    2b72:	04076713          	ori	a4,a4,64
    2b76:	cb98                	sw	a4,16(a5)
    2b78:	400227b7          	lui	a5,0x40022
    2b7c:	47d8                	lw	a4,12(a5)
    2b7e:	8b05                	andi	a4,a4,1
    2b80:	ff75                	bnez	a4,2b7c <flash_erase+0x3a>
    2b82:	4b98                	lw	a4,16(a5)
    2b84:	7681                	lui	a3,0xfffe0
    2b86:	40b2                	lw	ra,12(sp)
    2b88:	4422                	lw	s0,8(sp)
    2b8a:	16fd                	addi	a3,a3,-1
    2b8c:	8f75                	and	a4,a4,a3
    2b8e:	cb98                	sw	a4,16(a5)
    2b90:	4501                	li	a0,0
    2b92:	0141                	addi	sp,sp,16
    2b94:	8082                	ret

00002b96 <flash_read_logic>:
    2b96:	000807b7          	lui	a5,0x80
    2b9a:	95be                	add	a1,a1,a5
    2b9c:	05a2                	slli	a1,a1,0x8
    2b9e:	95b2                	add	a1,a1,a2
    2ba0:	8636                	mv	a2,a3
    2ba2:	5df0306f          	j	6980 <memcpy>

00002ba6 <flash_read_physical>:
    2ba6:	5db0306f          	j	6980 <memcpy>

00002baa <flash_isempty>:
    2baa:	000807b7          	lui	a5,0x80
    2bae:	953e                	add	a0,a0,a5
    2bb0:	0522                	slli	a0,a0,0x8
    2bb2:	4781                	li	a5,0
    2bb4:	56fd                	li	a3,-1
    2bb6:	01079713          	slli	a4,a5,0x10
    2bba:	8341                	srli	a4,a4,0x10
    2bbc:	00b76463          	bltu	a4,a1,2bc4 <flash_isempty+0x1a>
    2bc0:	4505                	li	a0,1
    2bc2:	8082                	ret
    2bc4:	00279713          	slli	a4,a5,0x2
    2bc8:	972a                	add	a4,a4,a0
    2bca:	4318                	lw	a4,0(a4)
    2bcc:	0785                	addi	a5,a5,1
    2bce:	fed704e3          	beq	a4,a3,2bb6 <flash_isempty+0xc>
    2bd2:	4501                	li	a0,0
    2bd4:	8082                	ret

00002bd6 <flash_Best>:
    2bd6:	000807b7          	lui	a5,0x80
    2bda:	40022737          	lui	a4,0x40022
    2bde:	953e                	add	a0,a0,a5
    2be0:	4b1c                	lw	a5,16(a4)
    2be2:	0522                	slli	a0,a0,0x8
    2be4:	952e                	add	a0,a0,a1
    2be6:	65c1                	lui	a1,0x10
    2be8:	8fcd                	or	a5,a5,a1
    2bea:	cb1c                	sw	a5,16(a4)
    2bec:	475c                	lw	a5,12(a4)
    2bee:	8b85                	andi	a5,a5,1
    2bf0:	fff5                	bnez	a5,2bec <flash_Best+0x16>
    2bf2:	40022737          	lui	a4,0x40022
    2bf6:	475c                	lw	a5,12(a4)
    2bf8:	8b89                	andi	a5,a5,2
    2bfa:	fff5                	bnez	a5,2bf6 <flash_Best+0x20>
    2bfc:	65c1                	lui	a1,0x10
    2bfe:	4801                	li	a6,0
    2c00:	15fd                	addi	a1,a1,-1
    2c02:	40022337          	lui	t1,0x40022
    2c06:	01081793          	slli	a5,a6,0x10
    2c0a:	83c1                	srli	a5,a5,0x10
    2c0c:	02c7e563          	bltu	a5,a2,2c36 <flash_Best+0x60>
    2c10:	40022737          	lui	a4,0x40022
    2c14:	4b1c                	lw	a5,16(a4)
    2c16:	002006b7          	lui	a3,0x200
    2c1a:	8fd5                	or	a5,a5,a3
    2c1c:	cb1c                	sw	a5,16(a4)
    2c1e:	400227b7          	lui	a5,0x40022
    2c22:	47d8                	lw	a4,12(a5)
    2c24:	8b05                	andi	a4,a4,1
    2c26:	ff75                	bnez	a4,2c22 <flash_Best+0x4c>
    2c28:	4b98                	lw	a4,16(a5)
    2c2a:	76c1                	lui	a3,0xffff0
    2c2c:	16fd                	addi	a3,a3,-1
    2c2e:	8f75                	and	a4,a4,a3
    2c30:	cb98                	sw	a4,16(a5)
    2c32:	4501                	li	a0,0
    2c34:	8082                	ret
    2c36:	00b87733          	and	a4,a6,a1
    2c3a:	9736                	add	a4,a4,a3
    2c3c:	00174783          	lbu	a5,1(a4) # 40022001 <GEC_USER_RAM_END+0x20002001>
    2c40:	00274883          	lbu	a7,2(a4)
    2c44:	07a2                	slli	a5,a5,0x8
    2c46:	08c2                	slli	a7,a7,0x10
    2c48:	0117e7b3          	or	a5,a5,a7
    2c4c:	00074883          	lbu	a7,0(a4)
    2c50:	00374703          	lbu	a4,3(a4)
    2c54:	0117e7b3          	or	a5,a5,a7
    2c58:	0762                	slli	a4,a4,0x18
    2c5a:	8fd9                	or	a5,a5,a4
    2c5c:	00a80733          	add	a4,a6,a0
    2c60:	c31c                	sw	a5,0(a4)
    2c62:	00c32783          	lw	a5,12(t1) # 4002200c <GEC_USER_RAM_END+0x2000200c>
    2c66:	8b89                	andi	a5,a5,2
    2c68:	ffed                	bnez	a5,2c62 <flash_Best+0x8c>
    2c6a:	0811                	addi	a6,a6,4
    2c6c:	bf69                	j	2c06 <flash_Best+0x30>

00002c6e <flash_write>:
    2c6e:	712d                	addi	sp,sp,-288
    2c70:	10812c23          	sw	s0,280(sp)
    2c74:	10912a23          	sw	s1,276(sp)
    2c78:	11212823          	sw	s2,272(sp)
    2c7c:	11312623          	sw	s3,268(sp)
    2c80:	11412423          	sw	s4,264(sp)
    2c84:	10112e23          	sw	ra,284(sp)
    2c88:	00b607b3          	add	a5,a2,a1
    2c8c:	10000993          	li	s3,256
    2c90:	84aa                	mv	s1,a0
    2c92:	842e                	mv	s0,a1
    2c94:	8932                	mv	s2,a2
    2c96:	8a36                	mv	s4,a3
    2c98:	04f9d563          	bge	s3,a5,2ce2 <flash_write+0x74>
    2c9c:	10000613          	li	a2,256
    2ca0:	8e0d                	sub	a2,a2,a1
    2ca2:	0642                	slli	a2,a2,0x10
    2ca4:	8241                	srli	a2,a2,0x10
    2ca6:	37e1                	jal	2c6e <flash_write>
    2ca8:	f0090613          	addi	a2,s2,-256
    2cac:	9622                	add	a2,a2,s0
    2cae:	00148513          	addi	a0,s1,1
    2cb2:	408986b3          	sub	a3,s3,s0
    2cb6:	0642                	slli	a2,a2,0x10
    2cb8:	0542                	slli	a0,a0,0x10
    2cba:	96d2                	add	a3,a3,s4
    2cbc:	8241                	srli	a2,a2,0x10
    2cbe:	4581                	li	a1,0
    2cc0:	8141                	srli	a0,a0,0x10
    2cc2:	3775                	jal	2c6e <flash_write>
    2cc4:	11c12083          	lw	ra,284(sp)
    2cc8:	11812403          	lw	s0,280(sp)
    2ccc:	11412483          	lw	s1,276(sp)
    2cd0:	11012903          	lw	s2,272(sp)
    2cd4:	10c12983          	lw	s3,268(sp)
    2cd8:	10812a03          	lw	s4,264(sp)
    2cdc:	4501                	li	a0,0
    2cde:	6115                	addi	sp,sp,288
    2ce0:	8082                	ret
    2ce2:	00c5e7b3          	or	a5,a1,a2
    2ce6:	8b8d                	andi	a5,a5,3
    2ce8:	e781                	bnez	a5,2cf0 <flash_write+0x82>
    2cea:	eedff0ef          	jal	ra,2bd6 <flash_Best>
    2cee:	bfd9                	j	2cc4 <flash_write+0x56>
    2cf0:	85aa                	mv	a1,a0
    2cf2:	10000693          	li	a3,256
    2cf6:	4601                	li	a2,0
    2cf8:	850a                	mv	a0,sp
    2cfa:	e9dff0ef          	jal	ra,2b96 <flash_read_logic>
    2cfe:	0218                	addi	a4,sp,256
    2d00:	4781                	li	a5,0
    2d02:	943a                	add	s0,s0,a4
    2d04:	0127eb63          	bltu	a5,s2,2d1a <flash_write+0xac>
    2d08:	8526                	mv	a0,s1
    2d0a:	e39ff0ef          	jal	ra,2b42 <flash_erase>
    2d0e:	868a                	mv	a3,sp
    2d10:	10000613          	li	a2,256
    2d14:	4581                	li	a1,0
    2d16:	8526                	mv	a0,s1
    2d18:	bfc9                	j	2cea <flash_write+0x7c>
    2d1a:	00fa06b3          	add	a3,s4,a5
    2d1e:	0006c683          	lbu	a3,0(a3) # ffff0000 <GEC_USER_RAM_END+0xdffd0000>
    2d22:	00f40733          	add	a4,s0,a5
    2d26:	0785                	addi	a5,a5,1
    2d28:	f0d70023          	sb	a3,-256(a4)
    2d2c:	0ff7f793          	andi	a5,a5,255
    2d30:	bfd1                	j	2d04 <flash_write+0x96>

00002d32 <flash_write_physical>:
    2d32:	00851793          	slli	a5,a0,0x8
    2d36:	83c1                	srli	a5,a5,0x10
    2d38:	00879713          	slli	a4,a5,0x8
    2d3c:	8d19                	sub	a0,a0,a4
    2d3e:	86b2                	mv	a3,a2
    2d40:	862e                	mv	a2,a1
    2d42:	01051593          	slli	a1,a0,0x10
    2d46:	1141                	addi	sp,sp,-16
    2d48:	81c1                	srli	a1,a1,0x10
    2d4a:	853e                	mv	a0,a5
    2d4c:	c606                	sw	ra,12(sp)
    2d4e:	f21ff0ef          	jal	ra,2c6e <flash_write>
    2d52:	40022737          	lui	a4,0x40022
    2d56:	475c                	lw	a5,12(a4)
    2d58:	8b85                	andi	a5,a5,1
    2d5a:	fff5                	bnez	a5,2d56 <flash_write_physical+0x24>
    2d5c:	40b2                	lw	ra,12(sp)
    2d5e:	4501                	li	a0,0
    2d60:	0141                	addi	sp,sp,16
    2d62:	8082                	ret

00002d64 <gpio_set>:
    2d64:	00855793          	srli	a5,a0,0x8
    2d68:	00279713          	slli	a4,a5,0x2
    2d6c:	200007b7          	lui	a5,0x20000
    2d70:	00078793          	mv	a5,a5
    2d74:	97ba                	add	a5,a5,a4
    2d76:	4705                	li	a4,1
    2d78:	00a71533          	sll	a0,a4,a0
    2d7c:	0542                	slli	a0,a0,0x10
    2d7e:	439c                	lw	a5,0(a5)
    2d80:	8141                	srli	a0,a0,0x10
    2d82:	00e59463          	bne	a1,a4,2d8a <gpio_set+0x26>
    2d86:	cb88                	sw	a0,16(a5)
    2d88:	8082                	ret
    2d8a:	cbc8                	sw	a0,20(a5)
    2d8c:	8082                	ret

00002d8e <gpio_init>:
    2d8e:	00855893          	srli	a7,a0,0x8
    2d92:	20000837          	lui	a6,0x20000
    2d96:	00289713          	slli	a4,a7,0x2
    2d9a:	00080813          	mv	a6,a6
    2d9e:	983a                	add	a6,a6,a4
    2da0:	40021737          	lui	a4,0x40021
    2da4:	4f14                	lw	a3,24(a4)
    2da6:	4311                	li	t1,4
    2da8:	011318b3          	sll	a7,t1,a7
    2dac:	00d8e8b3          	or	a7,a7,a3
    2db0:	0ff57793          	andi	a5,a0,255
    2db4:	00082803          	lw	a6,0(a6) # 20000000 <GEC_USER_RAM_START>
    2db8:	00279693          	slli	a3,a5,0x2
    2dbc:	01172c23          	sw	a7,24(a4) # 40021018 <GEC_USER_RAM_END+0x20001018>
    2dc0:	4731                	li	a4,12
    2dc2:	00d71733          	sll	a4,a4,a3
    2dc6:	489d                	li	a7,7
    2dc8:	fff74713          	not	a4,a4
    2dcc:	04f8e363          	bltu	a7,a5,2e12 <gpio_init+0x84>
    2dd0:	00082783          	lw	a5,0(a6)
    2dd4:	488d                	li	a7,3
    2dd6:	00d898b3          	sll	a7,a7,a3
    2dda:	8f7d                	and	a4,a4,a5
    2ddc:	fff8c893          	not	a7,a7
    2de0:	4785                	li	a5,1
    2de2:	01177733          	and	a4,a4,a7
    2de6:	00f59a63          	bne	a1,a5,2dfa <gpio_init+0x6c>
    2dea:	00d596b3          	sll	a3,a1,a3
    2dee:	8f55                	or	a4,a4,a3
    2df0:	00e82023          	sw	a4,0(a6)
    2df4:	85b2                	mv	a1,a2
    2df6:	f6fff06f          	j	2d64 <gpio_set>
    2dfa:	00d316b3          	sll	a3,t1,a3
    2dfe:	8f55                	or	a4,a4,a3
    2e00:	00e82023          	sw	a4,0(a6)
    2e04:	8082                	ret
    2e06:	00f317b3          	sll	a5,t1,a5
    2e0a:	8fd9                	or	a5,a5,a4
    2e0c:	00f82223          	sw	a5,4(a6)
    2e10:	8082                	ret
    2e12:	00482683          	lw	a3,4(a6)
    2e16:	17e1                	addi	a5,a5,-8
    2e18:	078a                	slli	a5,a5,0x2
    2e1a:	488d                	li	a7,3
    2e1c:	00f898b3          	sll	a7,a7,a5
    2e20:	8f75                	and	a4,a4,a3
    2e22:	fff8c893          	not	a7,a7
    2e26:	4685                	li	a3,1
    2e28:	01177733          	and	a4,a4,a7
    2e2c:	fcd59de3          	bne	a1,a3,2e06 <gpio_init+0x78>
    2e30:	00f597b3          	sll	a5,a1,a5
    2e34:	8fd9                	or	a5,a5,a4
    2e36:	00f82223          	sw	a5,4(a6)
    2e3a:	bf6d                	j	2df4 <gpio_init+0x66>

00002e3c <gpio_get>:
    2e3c:	0ff57793          	andi	a5,a0,255
    2e40:	20000737          	lui	a4,0x20000
    2e44:	8121                	srli	a0,a0,0x8
    2e46:	00070713          	mv	a4,a4
    2e4a:	050a                	slli	a0,a0,0x2
    2e4c:	953a                	add	a0,a0,a4
    2e4e:	4114                	lw	a3,0(a0)
    2e50:	461d                	li	a2,7
    2e52:	4505                	li	a0,1
    2e54:	00f51733          	sll	a4,a0,a5
    2e58:	00f66e63          	bltu	a2,a5,2e74 <gpio_get+0x38>
    2e5c:	428c                	lw	a1,0(a3)
    2e5e:	078a                	slli	a5,a5,0x2
    2e60:	460d                	li	a2,3
    2e62:	00f617b3          	sll	a5,a2,a5
    2e66:	8fed                	and	a5,a5,a1
    2e68:	eb89                	bnez	a5,2e7a <gpio_get+0x3e>
    2e6a:	4688                	lw	a0,8(a3)
    2e6c:	8d79                	and	a0,a0,a4
    2e6e:	00a03533          	snez	a0,a0
    2e72:	8082                	ret
    2e74:	42cc                	lw	a1,4(a3)
    2e76:	17e1                	addi	a5,a5,-8
    2e78:	b7dd                	j	2e5e <gpio_get+0x22>
    2e7a:	46c8                	lw	a0,12(a3)
    2e7c:	bfc5                	j	2e6c <gpio_get+0x30>

00002e7e <gpio_get_int>:
    2e7e:	400107b7          	lui	a5,0x40010
    2e82:	40078793          	addi	a5,a5,1024 # 40010400 <GEC_USER_RAM_END+0x1fff0400>
    2e86:	4bdc                	lw	a5,20(a5)
    2e88:	4705                	li	a4,1
    2e8a:	00a71533          	sll	a0,a4,a0
    2e8e:	8fe9                	and	a5,a5,a0
    2e90:	40a78533          	sub	a0,a5,a0
    2e94:	00153513          	seqz	a0,a0
    2e98:	8082                	ret

00002e9a <gpio_clear_int>:
    2e9a:	40010737          	lui	a4,0x40010
    2e9e:	41472683          	lw	a3,1044(a4) # 40010414 <GEC_USER_RAM_END+0x1fff0414>
    2ea2:	4785                	li	a5,1
    2ea4:	00a79533          	sll	a0,a5,a0
    2ea8:	8d55                	or	a0,a0,a3
    2eaa:	40a72a23          	sw	a0,1044(a4)
    2eae:	8082                	ret

00002eb0 <GPIO_EXTILineConfig>:
    2eb0:	0fc5f713          	andi	a4,a1,252
    2eb4:	0035f793          	andi	a5,a1,3
    2eb8:	400105b7          	lui	a1,0x40010
    2ebc:	95ba                	add	a1,a1,a4
    2ebe:	4594                	lw	a3,8(a1)
    2ec0:	078a                	slli	a5,a5,0x2
    2ec2:	473d                	li	a4,15
    2ec4:	00f71733          	sll	a4,a4,a5
    2ec8:	fff74713          	not	a4,a4
    2ecc:	8f75                	and	a4,a4,a3
    2ece:	c598                	sw	a4,8(a1)
    2ed0:	4598                	lw	a4,8(a1)
    2ed2:	00f51533          	sll	a0,a0,a5
    2ed6:	8d59                	or	a0,a0,a4
    2ed8:	c588                	sw	a0,8(a1)
    2eda:	8082                	ret

00002edc <gpio_enable_int>:
    2edc:	40021737          	lui	a4,0x40021
    2ee0:	4f1c                	lw	a5,24(a4)
    2ee2:	1141                	addi	sp,sp,-16
    2ee4:	c422                	sw	s0,8(sp)
    2ee6:	c226                	sw	s1,4(sp)
    2ee8:	0ff57413          	andi	s0,a0,255
    2eec:	0017e793          	ori	a5,a5,1
    2ef0:	c606                	sw	ra,12(sp)
    2ef2:	cf1c                	sw	a5,24(a4)
    2ef4:	84ae                	mv	s1,a1
    2ef6:	8121                	srli	a0,a0,0x8
    2ef8:	85a2                	mv	a1,s0
    2efa:	fb7ff0ef          	jal	ra,2eb0 <GPIO_EXTILineConfig>
    2efe:	400106b7          	lui	a3,0x40010
    2f02:	4006a603          	lw	a2,1024(a3) # 40010400 <GEC_USER_RAM_END+0x1fff0400>
    2f06:	4785                	li	a5,1
    2f08:	008797b3          	sll	a5,a5,s0
    2f0c:	fff7c713          	not	a4,a5
    2f10:	8e79                	and	a2,a2,a4
    2f12:	40c6a023          	sw	a2,1024(a3)
    2f16:	40068593          	addi	a1,a3,1024
    2f1a:	41d0                	lw	a2,4(a1)
    2f1c:	8e79                	and	a2,a2,a4
    2f1e:	c1d0                	sw	a2,4(a1)
    2f20:	4590                	lw	a2,8(a1)
    2f22:	8e79                	and	a2,a2,a4
    2f24:	c590                	sw	a2,8(a1)
    2f26:	45d0                	lw	a2,12(a1)
    2f28:	8f71                	and	a4,a4,a2
    2f2a:	c5d8                	sw	a4,12(a1)
    2f2c:	4006a703          	lw	a4,1024(a3)
    2f30:	8f5d                	or	a4,a4,a5
    2f32:	40e6a023          	sw	a4,1024(a3)
    2f36:	4741                	li	a4,16
    2f38:	04e49363          	bne	s1,a4,2f7e <gpio_enable_int+0xa2>
    2f3c:	4598                	lw	a4,8(a1)
    2f3e:	8f5d                	or	a4,a4,a5
    2f40:	c598                	sw	a4,8(a1)
    2f42:	45d8                	lw	a4,12(a1)
    2f44:	8fd9                	or	a5,a5,a4
    2f46:	c5dc                	sw	a5,12(a1)
    2f48:	200007b7          	lui	a5,0x20000
    2f4c:	4711                	li	a4,4
    2f4e:	01478793          	addi	a5,a5,20 # 20000014 <table_irq_exti>
    2f52:	02876b63          	bltu	a4,s0,2f88 <gpio_enable_int+0xac>
    2f56:	040a                	slli	s0,s0,0x2
    2f58:	97a2                	add	a5,a5,s0
    2f5a:	4398                	lw	a4,0(a5)
    2f5c:	00575793          	srli	a5,a4,0x5
    2f60:	4685                	li	a3,1
    2f62:	04078793          	addi	a5,a5,64
    2f66:	00e696b3          	sll	a3,a3,a4
    2f6a:	40b2                	lw	ra,12(sp)
    2f6c:	4422                	lw	s0,8(sp)
    2f6e:	078a                	slli	a5,a5,0x2
    2f70:	e000e737          	lui	a4,0xe000e
    2f74:	97ba                	add	a5,a5,a4
    2f76:	c394                	sw	a3,0(a5)
    2f78:	4492                	lw	s1,4(sp)
    2f7a:	0141                	addi	sp,sp,16
    2f7c:	8082                	ret
    2f7e:	95a6                	add	a1,a1,s1
    2f80:	4198                	lw	a4,0(a1)
    2f82:	8fd9                	or	a5,a5,a4
    2f84:	c19c                	sw	a5,0(a1)
    2f86:	b7c9                	j	2f48 <gpio_enable_int+0x6c>
    2f88:	146d                	addi	s0,s0,-5
    2f8a:	0ff47413          	andi	s0,s0,255
    2f8e:	00876463          	bltu	a4,s0,2f96 <gpio_enable_int+0xba>
    2f92:	4bd8                	lw	a4,20(a5)
    2f94:	b7e1                	j	2f5c <gpio_enable_int+0x80>
    2f96:	4f98                	lw	a4,24(a5)
    2f98:	b7d1                	j	2f5c <gpio_enable_int+0x80>

00002f9a <spi_init>:
    2f9a:	4789                	li	a5,2
    2f9c:	00a7e763          	bltu	a5,a0,2faa <spi_init+0x10>
    2fa0:	4885                	li	a7,1
    2fa2:	2b150d63          	beq	a0,a7,325c <spi_init+0x2c2>
    2fa6:	48f50063          	beq	a0,a5,3426 <spi_init+0x48c>
    2faa:	400217b7          	lui	a5,0x40021
    2fae:	4f88                	lw	a0,24(a5)
    2fb0:	6805                	lui	a6,0x1
    2fb2:	01056533          	or	a0,a0,a6
    2fb6:	cf88                	sw	a0,24(a5)
    2fb8:	4f88                	lw	a0,24(a5)
    2fba:	00456513          	ori	a0,a0,4
    2fbe:	cf88                	sw	a0,24(a5)
    2fc0:	400117b7          	lui	a5,0x40011
    2fc4:	4505                	li	a0,1
    2fc6:	80078893          	addi	a7,a5,-2048 # 40010800 <GEC_USER_RAM_END+0x1fff0800>
    2fca:	1aa59863          	bne	a1,a0,317a <spi_init+0x1e0>
    2fce:	8007a503          	lw	a0,-2048(a5)
    2fd2:	fffd0837          	lui	a6,0xfffd0
    2fd6:	187d                	addi	a6,a6,-1
    2fd8:	01057533          	and	a0,a0,a6
    2fdc:	80a7a023          	sw	a0,-2048(a5)
    2fe0:	8007a503          	lw	a0,-2048(a5)
    2fe4:	00030837          	lui	a6,0x30
    2fe8:	01056533          	or	a0,a0,a6
    2fec:	80a7a023          	sw	a0,-2048(a5)
    2ff0:	8007a503          	lw	a0,-2048(a5)
    2ff4:	fff40837          	lui	a6,0xfff40
    2ff8:	187d                	addi	a6,a6,-1
    2ffa:	01057533          	and	a0,a0,a6
    2ffe:	80a7a023          	sw	a0,-2048(a5)
    3002:	4541                	li	a0,16
    3004:	00a8a823          	sw	a0,16(a7)
    3008:	8007a503          	lw	a0,-2048(a5)
    300c:	ffd00837          	lui	a6,0xffd00
    3010:	187d                	addi	a6,a6,-1
    3012:	01057533          	and	a0,a0,a6
    3016:	80a7a023          	sw	a0,-2048(a5)
    301a:	8007a503          	lw	a0,-2048(a5)
    301e:	00300837          	lui	a6,0x300
    3022:	01056533          	or	a0,a0,a6
    3026:	80a7a023          	sw	a0,-2048(a5)
    302a:	8007a503          	lw	a0,-2048(a5)
    302e:	ff400837          	lui	a6,0xff400
    3032:	187d                	addi	a6,a6,-1
    3034:	01057533          	and	a0,a0,a6
    3038:	80a7a023          	sw	a0,-2048(a5)
    303c:	8007a503          	lw	a0,-2048(a5)
    3040:	00800837          	lui	a6,0x800
    3044:	01056533          	or	a0,a0,a6
    3048:	80a7a023          	sw	a0,-2048(a5)
    304c:	8007a503          	lw	a0,-2048(a5)
    3050:	fd000837          	lui	a6,0xfd000
    3054:	187d                	addi	a6,a6,-1
    3056:	01057533          	and	a0,a0,a6
    305a:	80a7a023          	sw	a0,-2048(a5)
    305e:	8007a503          	lw	a0,-2048(a5)
    3062:	f4000837          	lui	a6,0xf4000
    3066:	187d                	addi	a6,a6,-1
    3068:	01057533          	and	a0,a0,a6
    306c:	80a7a023          	sw	a0,-2048(a5)
    3070:	8007a503          	lw	a0,-2048(a5)
    3074:	04000837          	lui	a6,0x4000
    3078:	01056533          	or	a0,a0,a6
    307c:	80a7a023          	sw	a0,-2048(a5)
    3080:	8007a503          	lw	a0,-2048(a5)
    3084:	d0000837          	lui	a6,0xd0000
    3088:	187d                	addi	a6,a6,-1
    308a:	01057533          	and	a0,a0,a6
    308e:	80a7a023          	sw	a0,-2048(a5)
    3092:	8007a503          	lw	a0,-2048(a5)
    3096:	30000837          	lui	a6,0x30000
    309a:	01056533          	or	a0,a0,a6
    309e:	80a7a023          	sw	a0,-2048(a5)
    30a2:	8007a503          	lw	a0,-2048(a5)
    30a6:	80000837          	lui	a6,0x80000
    30aa:	050a                	slli	a0,a0,0x2
    30ac:	8109                	srli	a0,a0,0x2
    30ae:	80a7a023          	sw	a0,-2048(a5)
    30b2:	8007a503          	lw	a0,-2048(a5)
    30b6:	01056533          	or	a0,a0,a6
    30ba:	80a7a023          	sw	a0,-2048(a5)
    30be:	4501                	li	a0,0
    30c0:	20000837          	lui	a6,0x20000
    30c4:	03080813          	addi	a6,a6,48 # 20000030 <SPI_ARR>
    30c8:	00251793          	slli	a5,a0,0x2
    30cc:	97c2                	add	a5,a5,a6
    30ce:	439c                	lw	a5,0(a5)
    30d0:	680d                	lui	a6,0x3
    30d2:	04080813          	addi	a6,a6,64 # 3040 <spi_init+0xa6>
    30d6:	0007d883          	lhu	a7,0(a5)
    30da:	0686                	slli	a3,a3,0x1
    30dc:	8ed9                	or	a3,a3,a4
    30de:	01187833          	and	a6,a6,a7
    30e2:	01079023          	sh	a6,0(a5)
    30e6:	0007d803          	lhu	a6,0(a5)
    30ea:	777d                	lui	a4,0xfffff
    30ec:	7ff70713          	addi	a4,a4,2047 # fffff7ff <GEC_USER_RAM_END+0xdffdf7ff>
    30f0:	0106e6b3          	or	a3,a3,a6
    30f4:	00d79023          	sh	a3,0(a5)
    30f8:	0007d683          	lhu	a3,0(a5)
    30fc:	8f75                	and	a4,a4,a3
    30fe:	00e79023          	sh	a4,0(a5)
    3102:	0007d703          	lhu	a4,0(a5)
    3106:	0742                	slli	a4,a4,0x10
    3108:	8341                	srli	a4,a4,0x10
    310a:	f7f77713          	andi	a4,a4,-129
    310e:	0742                	slli	a4,a4,0x10
    3110:	8341                	srli	a4,a4,0x10
    3112:	00e79023          	sh	a4,0(a5)
    3116:	0007d703          	lhu	a4,0(a5)
    311a:	20076713          	ori	a4,a4,512
    311e:	00e79023          	sh	a4,0(a5)
    3122:	4705                	li	a4,1
    3124:	4ee59b63          	bne	a1,a4,361a <spi_init+0x680>
    3128:	20000737          	lui	a4,0x20000
    312c:	08072703          	lw	a4,128(a4) # 20000080 <SystemCoreClock>
    3130:	4c051e63          	bnez	a0,360c <spi_init+0x672>
    3134:	8309                	srli	a4,a4,0x2
    3136:	02c75733          	divu	a4,a4,a2
    313a:	468d                	li	a3,3
    313c:	01071613          	slli	a2,a4,0x10
    3140:	8241                	srli	a2,a2,0x10
    3142:	4701                	li	a4,0
    3144:	4cc6e663          	bltu	a3,a2,3610 <spi_init+0x676>
    3148:	0007d683          	lhu	a3,0(a5)
    314c:	070e                	slli	a4,a4,0x3
    314e:	8f55                	or	a4,a4,a3
    3150:	00e79023          	sh	a4,0(a5)
    3154:	0007d703          	lhu	a4,0(a5)
    3158:	10076713          	ori	a4,a4,256
    315c:	00e79023          	sh	a4,0(a5)
    3160:	0007d703          	lhu	a4,0(a5)
    3164:	00476713          	ori	a4,a4,4
    3168:	00e79023          	sh	a4,0(a5)
    316c:	0007d703          	lhu	a4,0(a5)
    3170:	04076713          	ori	a4,a4,64
    3174:	00e79023          	sh	a4,0(a5)
    3178:	8082                	ret
    317a:	8007a503          	lw	a0,-2048(a5)
    317e:	fffd0837          	lui	a6,0xfffd0
    3182:	187d                	addi	a6,a6,-1
    3184:	01057533          	and	a0,a0,a6
    3188:	80a7a023          	sw	a0,-2048(a5)
    318c:	8007a503          	lw	a0,-2048(a5)
    3190:	fff40837          	lui	a6,0xfff40
    3194:	187d                	addi	a6,a6,-1
    3196:	01057533          	and	a0,a0,a6
    319a:	80a7a023          	sw	a0,-2048(a5)
    319e:	8007a503          	lw	a0,-2048(a5)
    31a2:	00080837          	lui	a6,0x80
    31a6:	01056533          	or	a0,a0,a6
    31aa:	80a7a023          	sw	a0,-2048(a5)
    31ae:	4541                	li	a0,16
    31b0:	00a8aa23          	sw	a0,20(a7)
    31b4:	8007a503          	lw	a0,-2048(a5)
    31b8:	ffd00837          	lui	a6,0xffd00
    31bc:	187d                	addi	a6,a6,-1
    31be:	01057533          	and	a0,a0,a6
    31c2:	80a7a023          	sw	a0,-2048(a5)
    31c6:	8007a503          	lw	a0,-2048(a5)
    31ca:	ff400837          	lui	a6,0xff400
    31ce:	187d                	addi	a6,a6,-1
    31d0:	01057533          	and	a0,a0,a6
    31d4:	80a7a023          	sw	a0,-2048(a5)
    31d8:	8007a503          	lw	a0,-2048(a5)
    31dc:	00400837          	lui	a6,0x400
    31e0:	400008b7          	lui	a7,0x40000
    31e4:	01056533          	or	a0,a0,a6
    31e8:	80a7a023          	sw	a0,-2048(a5)
    31ec:	8007a503          	lw	a0,-2048(a5)
    31f0:	fd000837          	lui	a6,0xfd000
    31f4:	187d                	addi	a6,a6,-1
    31f6:	01057533          	and	a0,a0,a6
    31fa:	80a7a023          	sw	a0,-2048(a5)
    31fe:	8007a503          	lw	a0,-2048(a5)
    3202:	03000837          	lui	a6,0x3000
    3206:	01056533          	or	a0,a0,a6
    320a:	80a7a023          	sw	a0,-2048(a5)
    320e:	8007a503          	lw	a0,-2048(a5)
    3212:	f4000837          	lui	a6,0xf4000
    3216:	187d                	addi	a6,a6,-1
    3218:	01057533          	and	a0,a0,a6
    321c:	80a7a023          	sw	a0,-2048(a5)
    3220:	8007a503          	lw	a0,-2048(a5)
    3224:	08000837          	lui	a6,0x8000
    3228:	01056533          	or	a0,a0,a6
    322c:	80a7a023          	sw	a0,-2048(a5)
    3230:	8007a503          	lw	a0,-2048(a5)
    3234:	d0000837          	lui	a6,0xd0000
    3238:	187d                	addi	a6,a6,-1
    323a:	01057533          	and	a0,a0,a6
    323e:	80a7a023          	sw	a0,-2048(a5)
    3242:	8007a803          	lw	a6,-2048(a5)
    3246:	fff88513          	addi	a0,a7,-1 # 3fffffff <GEC_USER_RAM_END+0x1ffdffff>
    324a:	00a87833          	and	a6,a6,a0
    324e:	8107a023          	sw	a6,-2048(a5)
    3252:	8007a503          	lw	a0,-2048(a5)
    3256:	01156533          	or	a0,a0,a7
    325a:	b585                	j	30ba <spi_init+0x120>
    325c:	400217b7          	lui	a5,0x40021
    3260:	01c7a803          	lw	a6,28(a5) # 4002101c <GEC_USER_RAM_END+0x2000101c>
    3264:	6891                	lui	a7,0x4
    3266:	01186833          	or	a6,a6,a7
    326a:	0107ae23          	sw	a6,28(a5)
    326e:	0187a803          	lw	a6,24(a5)
    3272:	00886813          	ori	a6,a6,8
    3276:	0107ac23          	sw	a6,24(a5)
    327a:	400117b7          	lui	a5,0x40011
    327e:	c0078793          	addi	a5,a5,-1024 # 40010c00 <GEC_USER_RAM_END+0x1fff0c00>
    3282:	0aa59f63          	bne	a1,a0,3340 <spi_init+0x3a6>
    3286:	43c8                	lw	a0,4(a5)
    3288:	fffd0837          	lui	a6,0xfffd0
    328c:	187d                	addi	a6,a6,-1
    328e:	01057533          	and	a0,a0,a6
    3292:	c3c8                	sw	a0,4(a5)
    3294:	43c8                	lw	a0,4(a5)
    3296:	00030837          	lui	a6,0x30
    329a:	01056533          	or	a0,a0,a6
    329e:	c3c8                	sw	a0,4(a5)
    32a0:	43c8                	lw	a0,4(a5)
    32a2:	fff40837          	lui	a6,0xfff40
    32a6:	187d                	addi	a6,a6,-1
    32a8:	01057533          	and	a0,a0,a6
    32ac:	c3c8                	sw	a0,4(a5)
    32ae:	6505                	lui	a0,0x1
    32b0:	cb88                	sw	a0,16(a5)
    32b2:	43c8                	lw	a0,4(a5)
    32b4:	ffd00837          	lui	a6,0xffd00
    32b8:	187d                	addi	a6,a6,-1
    32ba:	01057533          	and	a0,a0,a6
    32be:	c3c8                	sw	a0,4(a5)
    32c0:	43c8                	lw	a0,4(a5)
    32c2:	00300837          	lui	a6,0x300
    32c6:	01056533          	or	a0,a0,a6
    32ca:	c3c8                	sw	a0,4(a5)
    32cc:	43c8                	lw	a0,4(a5)
    32ce:	ff400837          	lui	a6,0xff400
    32d2:	187d                	addi	a6,a6,-1
    32d4:	01057533          	and	a0,a0,a6
    32d8:	c3c8                	sw	a0,4(a5)
    32da:	43c8                	lw	a0,4(a5)
    32dc:	00800837          	lui	a6,0x800
    32e0:	01056533          	or	a0,a0,a6
    32e4:	c3c8                	sw	a0,4(a5)
    32e6:	43c8                	lw	a0,4(a5)
    32e8:	fd000837          	lui	a6,0xfd000
    32ec:	187d                	addi	a6,a6,-1
    32ee:	01057533          	and	a0,a0,a6
    32f2:	c3c8                	sw	a0,4(a5)
    32f4:	43c8                	lw	a0,4(a5)
    32f6:	f4000837          	lui	a6,0xf4000
    32fa:	187d                	addi	a6,a6,-1
    32fc:	01057533          	and	a0,a0,a6
    3300:	c3c8                	sw	a0,4(a5)
    3302:	43c8                	lw	a0,4(a5)
    3304:	04000837          	lui	a6,0x4000
    3308:	01056533          	or	a0,a0,a6
    330c:	c3c8                	sw	a0,4(a5)
    330e:	43c8                	lw	a0,4(a5)
    3310:	d0000837          	lui	a6,0xd0000
    3314:	187d                	addi	a6,a6,-1
    3316:	01057533          	and	a0,a0,a6
    331a:	c3c8                	sw	a0,4(a5)
    331c:	43c8                	lw	a0,4(a5)
    331e:	30000837          	lui	a6,0x30000
    3322:	01056533          	or	a0,a0,a6
    3326:	c3c8                	sw	a0,4(a5)
    3328:	43c8                	lw	a0,4(a5)
    332a:	80000837          	lui	a6,0x80000
    332e:	050a                	slli	a0,a0,0x2
    3330:	8109                	srli	a0,a0,0x2
    3332:	c3c8                	sw	a0,4(a5)
    3334:	43c8                	lw	a0,4(a5)
    3336:	01056533          	or	a0,a0,a6
    333a:	c3c8                	sw	a0,4(a5)
    333c:	852e                	mv	a0,a1
    333e:	b349                	j	30c0 <spi_init+0x126>
    3340:	0047a803          	lw	a6,4(a5)
    3344:	fffd08b7          	lui	a7,0xfffd0
    3348:	18fd                	addi	a7,a7,-1
    334a:	01187833          	and	a6,a6,a7
    334e:	0107a223          	sw	a6,4(a5)
    3352:	0047a803          	lw	a6,4(a5)
    3356:	fff408b7          	lui	a7,0xfff40
    335a:	18fd                	addi	a7,a7,-1
    335c:	01187833          	and	a6,a6,a7
    3360:	0107a223          	sw	a6,4(a5)
    3364:	0047a803          	lw	a6,4(a5)
    3368:	000808b7          	lui	a7,0x80
    336c:	40000337          	lui	t1,0x40000
    3370:	01186833          	or	a6,a6,a7
    3374:	0107a223          	sw	a6,4(a5)
    3378:	6805                	lui	a6,0x1
    337a:	0107aa23          	sw	a6,20(a5)
    337e:	0047a803          	lw	a6,4(a5)
    3382:	ffd008b7          	lui	a7,0xffd00
    3386:	18fd                	addi	a7,a7,-1
    3388:	01187833          	and	a6,a6,a7
    338c:	0107a223          	sw	a6,4(a5)
    3390:	0047a803          	lw	a6,4(a5)
    3394:	ff4008b7          	lui	a7,0xff400
    3398:	18fd                	addi	a7,a7,-1
    339a:	01187833          	and	a6,a6,a7
    339e:	0107a223          	sw	a6,4(a5)
    33a2:	0047a803          	lw	a6,4(a5)
    33a6:	004008b7          	lui	a7,0x400
    33aa:	01186833          	or	a6,a6,a7
    33ae:	0107a223          	sw	a6,4(a5)
    33b2:	0047a803          	lw	a6,4(a5)
    33b6:	fd0008b7          	lui	a7,0xfd000
    33ba:	18fd                	addi	a7,a7,-1
    33bc:	01187833          	and	a6,a6,a7
    33c0:	0107a223          	sw	a6,4(a5)
    33c4:	0047a803          	lw	a6,4(a5)
    33c8:	030008b7          	lui	a7,0x3000
    33cc:	01186833          	or	a6,a6,a7
    33d0:	0107a223          	sw	a6,4(a5)
    33d4:	0047a803          	lw	a6,4(a5)
    33d8:	f40008b7          	lui	a7,0xf4000
    33dc:	18fd                	addi	a7,a7,-1
    33de:	01187833          	and	a6,a6,a7
    33e2:	0107a223          	sw	a6,4(a5)
    33e6:	0047a803          	lw	a6,4(a5)
    33ea:	080008b7          	lui	a7,0x8000
    33ee:	01186833          	or	a6,a6,a7
    33f2:	0107a223          	sw	a6,4(a5)
    33f6:	0047a803          	lw	a6,4(a5)
    33fa:	d00008b7          	lui	a7,0xd0000
    33fe:	18fd                	addi	a7,a7,-1
    3400:	01187833          	and	a6,a6,a7
    3404:	0107a223          	sw	a6,4(a5)
    3408:	0047a883          	lw	a7,4(a5)
    340c:	fff30813          	addi	a6,t1,-1 # 3fffffff <GEC_USER_RAM_END+0x1ffdffff>
    3410:	0108f8b3          	and	a7,a7,a6
    3414:	0117a223          	sw	a7,4(a5)
    3418:	0047a803          	lw	a6,4(a5)
    341c:	00686833          	or	a6,a6,t1
    3420:	0107a223          	sw	a6,4(a5)
    3424:	b971                	j	30c0 <spi_init+0x126>
    3426:	400217b7          	lui	a5,0x40021
    342a:	01c7a803          	lw	a6,28(a5) # 4002101c <GEC_USER_RAM_END+0x2000101c>
    342e:	6321                	lui	t1,0x8
    3430:	00686833          	or	a6,a6,t1
    3434:	0107ae23          	sw	a6,28(a5)
    3438:	0187a803          	lw	a6,24(a5)
    343c:	00c86813          	ori	a6,a6,12
    3440:	0107ac23          	sw	a6,24(a5)
    3444:	400117b7          	lui	a5,0x40011
    3448:	80078813          	addi	a6,a5,-2048 # 40010800 <GEC_USER_RAM_END+0x1fff0800>
    344c:	0f159663          	bne	a1,a7,3538 <spi_init+0x59e>
    3450:	00482883          	lw	a7,4(a6) # 1004 <cam_gpio_init>
    3454:	d0000e37          	lui	t3,0xd0000
    3458:	1e7d                	addi	t3,t3,-1
    345a:	01c8f8b3          	and	a7,a7,t3
    345e:	01182223          	sw	a7,4(a6)
    3462:	00482883          	lw	a7,4(a6)
    3466:	30000e37          	lui	t3,0x30000
    346a:	01c8e8b3          	or	a7,a7,t3
    346e:	01182223          	sw	a7,4(a6)
    3472:	00482883          	lw	a7,4(a6)
    3476:	088a                	slli	a7,a7,0x2
    3478:	0028d893          	srli	a7,a7,0x2
    347c:	01182223          	sw	a7,4(a6)
    3480:	00682823          	sw	t1,16(a6)
    3484:	c007a803          	lw	a6,-1024(a5)
    3488:	78f5                	lui	a7,0xffffd
    348a:	18fd                	addi	a7,a7,-1
    348c:	01187833          	and	a6,a6,a7
    3490:	c107a023          	sw	a6,-1024(a5)
    3494:	c007a803          	lw	a6,-1024(a5)
    3498:	688d                	lui	a7,0x3
    349a:	01186833          	or	a6,a6,a7
    349e:	c107a023          	sw	a6,-1024(a5)
    34a2:	c007a803          	lw	a6,-1024(a5)
    34a6:	78d1                	lui	a7,0xffff4
    34a8:	18fd                	addi	a7,a7,-1
    34aa:	01187833          	and	a6,a6,a7
    34ae:	c107a023          	sw	a6,-1024(a5)
    34b2:	c007a803          	lw	a6,-1024(a5)
    34b6:	fffd08b7          	lui	a7,0xfffd0
    34ba:	18fd                	addi	a7,a7,-1
    34bc:	00686333          	or	t1,a6,t1
    34c0:	c067a023          	sw	t1,-1024(a5)
    34c4:	c007a803          	lw	a6,-1024(a5)
    34c8:	01187833          	and	a6,a6,a7
    34cc:	c107a023          	sw	a6,-1024(a5)
    34d0:	c007a803          	lw	a6,-1024(a5)
    34d4:	fff408b7          	lui	a7,0xfff40
    34d8:	18fd                	addi	a7,a7,-1
    34da:	01187833          	and	a6,a6,a7
    34de:	c107a023          	sw	a6,-1024(a5)
    34e2:	c007a803          	lw	a6,-1024(a5)
    34e6:	000408b7          	lui	a7,0x40
    34ea:	01186833          	or	a6,a6,a7
    34ee:	c107a023          	sw	a6,-1024(a5)
    34f2:	c007a803          	lw	a6,-1024(a5)
    34f6:	ffd008b7          	lui	a7,0xffd00
    34fa:	18fd                	addi	a7,a7,-1
    34fc:	01187833          	and	a6,a6,a7
    3500:	c107a023          	sw	a6,-1024(a5)
    3504:	c007a803          	lw	a6,-1024(a5)
    3508:	003008b7          	lui	a7,0x300
    350c:	01186833          	or	a6,a6,a7
    3510:	c107a023          	sw	a6,-1024(a5)
    3514:	c007a803          	lw	a6,-1024(a5)
    3518:	ff4008b7          	lui	a7,0xff400
    351c:	18fd                	addi	a7,a7,-1
    351e:	01187833          	and	a6,a6,a7
    3522:	c107a023          	sw	a6,-1024(a5)
    3526:	c007a803          	lw	a6,-1024(a5)
    352a:	008008b7          	lui	a7,0x800
    352e:	01186833          	or	a6,a6,a7
    3532:	c107a023          	sw	a6,-1024(a5)
    3536:	b669                	j	30c0 <spi_init+0x126>
    3538:	00482883          	lw	a7,4(a6)
    353c:	d0000e37          	lui	t3,0xd0000
    3540:	1e7d                	addi	t3,t3,-1
    3542:	01c8f8b3          	and	a7,a7,t3
    3546:	01182223          	sw	a7,4(a6)
    354a:	00482883          	lw	a7,4(a6)
    354e:	80000e37          	lui	t3,0x80000
    3552:	088a                	slli	a7,a7,0x2
    3554:	0028d893          	srli	a7,a7,0x2
    3558:	01182223          	sw	a7,4(a6)
    355c:	00482883          	lw	a7,4(a6)
    3560:	01c8e8b3          	or	a7,a7,t3
    3564:	01182223          	sw	a7,4(a6)
    3568:	00682a23          	sw	t1,20(a6)
    356c:	c007a803          	lw	a6,-1024(a5)
    3570:	78f5                	lui	a7,0xffffd
    3572:	18fd                	addi	a7,a7,-1
    3574:	01187833          	and	a6,a6,a7
    3578:	c107a023          	sw	a6,-1024(a5)
    357c:	c007a803          	lw	a6,-1024(a5)
    3580:	78d1                	lui	a7,0xffff4
    3582:	18fd                	addi	a7,a7,-1
    3584:	01187833          	and	a6,a6,a7
    3588:	c107a023          	sw	a6,-1024(a5)
    358c:	c007a803          	lw	a6,-1024(a5)
    3590:	6891                	lui	a7,0x4
    3592:	01186833          	or	a6,a6,a7
    3596:	c107a023          	sw	a6,-1024(a5)
    359a:	c007a803          	lw	a6,-1024(a5)
    359e:	fffd08b7          	lui	a7,0xfffd0
    35a2:	18fd                	addi	a7,a7,-1
    35a4:	01187833          	and	a6,a6,a7
    35a8:	c107a023          	sw	a6,-1024(a5)
    35ac:	c007a803          	lw	a6,-1024(a5)
    35b0:	000308b7          	lui	a7,0x30
    35b4:	01186833          	or	a6,a6,a7
    35b8:	c107a023          	sw	a6,-1024(a5)
    35bc:	c007a803          	lw	a6,-1024(a5)
    35c0:	fff408b7          	lui	a7,0xfff40
    35c4:	18fd                	addi	a7,a7,-1
    35c6:	01187833          	and	a6,a6,a7
    35ca:	c107a023          	sw	a6,-1024(a5)
    35ce:	c007a803          	lw	a6,-1024(a5)
    35d2:	000808b7          	lui	a7,0x80
    35d6:	01186833          	or	a6,a6,a7
    35da:	c107a023          	sw	a6,-1024(a5)
    35de:	c007a803          	lw	a6,-1024(a5)
    35e2:	ffd008b7          	lui	a7,0xffd00
    35e6:	18fd                	addi	a7,a7,-1
    35e8:	01187833          	and	a6,a6,a7
    35ec:	c107a023          	sw	a6,-1024(a5)
    35f0:	c007a803          	lw	a6,-1024(a5)
    35f4:	ff4008b7          	lui	a7,0xff400
    35f8:	18fd                	addi	a7,a7,-1
    35fa:	01187833          	and	a6,a6,a7
    35fe:	c107a023          	sw	a6,-1024(a5)
    3602:	c007a803          	lw	a6,-1024(a5)
    3606:	004008b7          	lui	a7,0x400
    360a:	b715                	j	352e <spi_init+0x594>
    360c:	8305                	srli	a4,a4,0x1
    360e:	b625                	j	3136 <spi_init+0x19c>
    3610:	0705                	addi	a4,a4,1
    3612:	0ff77713          	andi	a4,a4,255
    3616:	8205                	srli	a2,a2,0x1
    3618:	b635                	j	3144 <spi_init+0x1aa>
    361a:	0007d703          	lhu	a4,0(a5)
    361e:	0742                	slli	a4,a4,0x10
    3620:	8341                	srli	a4,a4,0x10
    3622:	eff77713          	andi	a4,a4,-257
    3626:	0742                	slli	a4,a4,0x10
    3628:	8341                	srli	a4,a4,0x10
    362a:	00e79023          	sh	a4,0(a5)
    362e:	0007d703          	lhu	a4,0(a5)
    3632:	0742                	slli	a4,a4,0x10
    3634:	8341                	srli	a4,a4,0x10
    3636:	9b6d                	andi	a4,a4,-5
    3638:	0742                	slli	a4,a4,0x10
    363a:	8341                	srli	a4,a4,0x10
    363c:	b635                	j	3168 <spi_init+0x1ce>

0000363e <spi_send1>:
    363e:	1141                	addi	sp,sp,-16
    3640:	c602                	sw	zero,12(sp)
    3642:	4789                	li	a5,2
    3644:	00a7f563          	bgeu	a5,a0,364e <spi_send1+0x10>
    3648:	4501                	li	a0,0
    364a:	0141                	addi	sp,sp,16
    364c:	8082                	ret
    364e:	00251793          	slli	a5,a0,0x2
    3652:	20000537          	lui	a0,0x20000
    3656:	03050513          	addi	a0,a0,48 # 20000030 <SPI_ARR>
    365a:	953e                	add	a0,a0,a5
    365c:	411c                	lw	a5,0(a0)
    365e:	0007d703          	lhu	a4,0(a5)
    3662:	04077713          	andi	a4,a4,64
    3666:	e719                	bnez	a4,3674 <spi_send1+0x36>
    3668:	0007d703          	lhu	a4,0(a5)
    366c:	04076713          	ori	a4,a4,64
    3670:	00e79023          	sh	a4,0(a5)
    3674:	66c1                	lui	a3,0x10
    3676:	16f9                	addi	a3,a3,-2
    3678:	0087d703          	lhu	a4,8(a5)
    367c:	8b09                	andi	a4,a4,2
    367e:	c715                	beqz	a4,36aa <spi_send1+0x6c>
    3680:	00b78623          	sb	a1,12(a5)
    3684:	66c1                	lui	a3,0x10
    3686:	c602                	sw	zero,12(sp)
    3688:	16f9                	addi	a3,a3,-2
    368a:	0087d703          	lhu	a4,8(a5)
    368e:	8b05                	andi	a4,a4,1
    3690:	c705                	beqz	a4,36b8 <spi_send1+0x7a>
    3692:	00c7d703          	lhu	a4,12(a5)
    3696:	4505                	li	a0,1
    3698:	0742                	slli	a4,a4,0x10
    369a:	8341                	srli	a4,a4,0x10
    369c:	c63a                	sw	a4,12(sp)
    369e:	0087d783          	lhu	a5,8(a5)
    36a2:	07c2                	slli	a5,a5,0x10
    36a4:	83c1                	srli	a5,a5,0x10
    36a6:	c63e                	sw	a5,12(sp)
    36a8:	b74d                	j	364a <spi_send1+0xc>
    36aa:	4732                	lw	a4,12(sp)
    36ac:	0705                	addi	a4,a4,1
    36ae:	c63a                	sw	a4,12(sp)
    36b0:	4732                	lw	a4,12(sp)
    36b2:	fce6f3e3          	bgeu	a3,a4,3678 <spi_send1+0x3a>
    36b6:	bf49                	j	3648 <spi_send1+0xa>
    36b8:	4732                	lw	a4,12(sp)
    36ba:	0705                	addi	a4,a4,1
    36bc:	c63a                	sw	a4,12(sp)
    36be:	4732                	lw	a4,12(sp)
    36c0:	fce6f5e3          	bgeu	a3,a4,368a <spi_send1+0x4c>
    36c4:	b751                	j	3648 <spi_send1+0xa>

000036c6 <timer_init>:
    36c6:	157d                	addi	a0,a0,-1
    36c8:	0ff57513          	andi	a0,a0,255
    36cc:	479d                	li	a5,7
    36ce:	18a7ed63          	bltu	a5,a0,3868 <timer_init+0x1a2>
    36d2:	679d                	lui	a5,0x7
    36d4:	54878793          	addi	a5,a5,1352 # 7548 <nAsciiDot+0x700>
    36d8:	050a                	slli	a0,a0,0x2
    36da:	953e                	add	a0,a0,a5
    36dc:	411c                	lw	a5,0(a0)
    36de:	8782                	jr	a5
    36e0:	400216b7          	lui	a3,0x40021
    36e4:	4e9c                	lw	a5,24(a3)
    36e6:	6705                	lui	a4,0x1
    36e8:	80070713          	addi	a4,a4,-2048 # 800 <__stack_size>
    36ec:	8fd9                	or	a5,a5,a4
    36ee:	ce9c                	sw	a5,24(a3)
    36f0:	40013737          	lui	a4,0x40013
    36f4:	c0075783          	lhu	a5,-1024(a4) # 40012c00 <GEC_USER_RAM_END+0x1fff2c00>
    36f8:	15fd                	addi	a1,a1,-1
    36fa:	05c2                	slli	a1,a1,0x10
    36fc:	07c2                	slli	a5,a5,0x10
    36fe:	83c1                	srli	a5,a5,0x10
    3700:	c8f7f793          	andi	a5,a5,-881
    3704:	07c2                	slli	a5,a5,0x10
    3706:	83c1                	srli	a5,a5,0x10
    3708:	c0f71023          	sh	a5,-1024(a4)
    370c:	81c1                	srli	a1,a1,0x10
    370e:	678d                	lui	a5,0x3
    3710:	c2b71623          	sh	a1,-980(a4)
    3714:	27f78793          	addi	a5,a5,639 # 327f <spi_init+0x2e5>
    3718:	c2f71423          	sh	a5,-984(a4)
    371c:	c2071823          	sh	zero,-976(a4)
    3720:	4785                	li	a5,1
    3722:	c0f71a23          	sh	a5,-1004(a4)
    3726:	c0075783          	lhu	a5,-1024(a4)
    372a:	0017e793          	ori	a5,a5,1
    372e:	c0f71023          	sh	a5,-1024(a4)
    3732:	8082                	ret
    3734:	40021737          	lui	a4,0x40021
    3738:	4f1c                	lw	a5,24(a4)
    373a:	6689                	lui	a3,0x2
    373c:	15fd                	addi	a1,a1,-1
    373e:	8fd5                	or	a5,a5,a3
    3740:	cf1c                	sw	a5,24(a4)
    3742:	40013737          	lui	a4,0x40013
    3746:	40075783          	lhu	a5,1024(a4) # 40013400 <GEC_USER_RAM_END+0x1fff3400>
    374a:	05c2                	slli	a1,a1,0x10
    374c:	81c1                	srli	a1,a1,0x10
    374e:	07c2                	slli	a5,a5,0x10
    3750:	83c1                	srli	a5,a5,0x10
    3752:	c8f7f793          	andi	a5,a5,-881
    3756:	07c2                	slli	a5,a5,0x10
    3758:	83c1                	srli	a5,a5,0x10
    375a:	40f71023          	sh	a5,1024(a4)
    375e:	77f1                	lui	a5,0xffffc
    3760:	42b71623          	sh	a1,1068(a4)
    3764:	b7f78793          	addi	a5,a5,-1153 # ffffbb7f <GEC_USER_RAM_END+0xdffdbb7f>
    3768:	42f71423          	sh	a5,1064(a4)
    376c:	42071823          	sh	zero,1072(a4)
    3770:	4785                	li	a5,1
    3772:	40f71a23          	sh	a5,1044(a4)
    3776:	40075783          	lhu	a5,1024(a4)
    377a:	0017e793          	ori	a5,a5,1
    377e:	40f71023          	sh	a5,1024(a4)
    3782:	8082                	ret
    3784:	40021737          	lui	a4,0x40021
    3788:	4f5c                	lw	a5,28(a4)
    378a:	0017e793          	ori	a5,a5,1
    378e:	cf5c                	sw	a5,28(a4)
    3790:	400007b7          	lui	a5,0x40000
    3794:	0007d703          	lhu	a4,0(a5) # 40000000 <GEC_USER_RAM_END+0x1ffe0000>
    3798:	0742                	slli	a4,a4,0x10
    379a:	8341                	srli	a4,a4,0x10
    379c:	c8f77713          	andi	a4,a4,-881
    37a0:	0742                	slli	a4,a4,0x10
    37a2:	8341                	srli	a4,a4,0x10
    37a4:	00e79023          	sh	a4,0(a5)
    37a8:	7771                	lui	a4,0xffffc
    37aa:	b7f70713          	addi	a4,a4,-1153 # ffffbb7f <GEC_USER_RAM_END+0xdffdbb7f>
    37ae:	02e79623          	sh	a4,44(a5)
    37b2:	20000737          	lui	a4,0x20000
    37b6:	08072703          	lw	a4,128(a4) # 20000080 <SystemCoreClock>
    37ba:	177d                	addi	a4,a4,-1
    37bc:	0742                	slli	a4,a4,0x10
    37be:	8341                	srli	a4,a4,0x10
    37c0:	02e79423          	sh	a4,40(a5)
    37c4:	4705                	li	a4,1
    37c6:	00e79a23          	sh	a4,20(a5)
    37ca:	0007d703          	lhu	a4,0(a5)
    37ce:	00176713          	ori	a4,a4,1
    37d2:	00e79023          	sh	a4,0(a5)
    37d6:	8082                	ret
    37d8:	40021737          	lui	a4,0x40021
    37dc:	4f5c                	lw	a5,28(a4)
    37de:	15fd                	addi	a1,a1,-1
    37e0:	05c2                	slli	a1,a1,0x10
    37e2:	0027e793          	ori	a5,a5,2
    37e6:	cf5c                	sw	a5,28(a4)
    37e8:	40000737          	lui	a4,0x40000
    37ec:	40075783          	lhu	a5,1024(a4) # 40000400 <GEC_USER_RAM_END+0x1ffe0400>
    37f0:	81c1                	srli	a1,a1,0x10
    37f2:	07c2                	slli	a5,a5,0x10
    37f4:	83c1                	srli	a5,a5,0x10
    37f6:	c8f7f793          	andi	a5,a5,-881
    37fa:	07c2                	slli	a5,a5,0x10
    37fc:	83c1                	srli	a5,a5,0x10
    37fe:	40f71023          	sh	a5,1024(a4)
    3802:	77f1                	lui	a5,0xffffc
    3804:	42b71623          	sh	a1,1068(a4)
    3808:	b7f78793          	addi	a5,a5,-1153 # ffffbb7f <GEC_USER_RAM_END+0xdffdbb7f>
    380c:	42f71423          	sh	a5,1064(a4)
    3810:	b785                	j	3770 <timer_init+0xaa>
    3812:	40021737          	lui	a4,0x40021
    3816:	4f5c                	lw	a5,28(a4)
    3818:	15fd                	addi	a1,a1,-1
    381a:	05c2                	slli	a1,a1,0x10
    381c:	0107e793          	ori	a5,a5,16
    3820:	cf5c                	sw	a5,28(a4)
    3822:	81c1                	srli	a1,a1,0x10
    3824:	400017b7          	lui	a5,0x40001
    3828:	7771                	lui	a4,0xffffc
    382a:	02b79623          	sh	a1,44(a5) # 4000102c <GEC_USER_RAM_END+0x1ffe102c>
    382e:	b7f70713          	addi	a4,a4,-1153 # ffffbb7f <GEC_USER_RAM_END+0xdffdbb7f>
    3832:	b779                	j	37c0 <timer_init+0xfa>
    3834:	40021737          	lui	a4,0x40021
    3838:	4f5c                	lw	a5,28(a4)
    383a:	02700693          	li	a3,39
    383e:	0207e793          	ori	a5,a5,32
    3842:	cf5c                	sw	a5,28(a4)
    3844:	400017b7          	lui	a5,0x40001
    3848:	42d79623          	sh	a3,1068(a5) # 4000142c <GEC_USER_RAM_END+0x1ffe142c>
    384c:	76e5                	lui	a3,0xffff9
    384e:	c9f68693          	addi	a3,a3,-865 # ffff8c9f <GEC_USER_RAM_END+0xdffd8c9f>
    3852:	42d79423          	sh	a3,1064(a5)
    3856:	4685                	li	a3,1
    3858:	40d79a23          	sh	a3,1044(a5)
    385c:	4007d703          	lhu	a4,1024(a5)
    3860:	00176713          	ori	a4,a4,1
    3864:	40e79023          	sh	a4,1024(a5)
    3868:	8082                	ret

0000386a <timer_get_int>:
    386a:	4785                	li	a5,1
    386c:	02f51063          	bne	a0,a5,388c <timer_get_int+0x22>
    3870:	400137b7          	lui	a5,0x40013
    3874:	c107d683          	lhu	a3,-1008(a5) # 40012c10 <GEC_USER_RAM_END+0x1fff2c10>
    3878:	c0c7d703          	lhu	a4,-1012(a5)
    387c:	4781                	li	a5,0
    387e:	8a85                	andi	a3,a3,1
    3880:	0742                	slli	a4,a4,0x10
    3882:	8341                	srli	a4,a4,0x10
    3884:	c685                	beqz	a3,38ac <timer_get_int+0x42>
    3886:	00177793          	andi	a5,a4,1
    388a:	a00d                	j	38ac <timer_get_int+0x42>
    388c:	47a1                	li	a5,8
    388e:	02f51163          	bne	a0,a5,38b0 <timer_get_int+0x46>
    3892:	400137b7          	lui	a5,0x40013
    3896:	4107d703          	lhu	a4,1040(a5) # 40013410 <GEC_USER_RAM_END+0x1fff3410>
    389a:	40c7d503          	lhu	a0,1036(a5)
    389e:	4781                	li	a5,0
    38a0:	08077713          	andi	a4,a4,128
    38a4:	0542                	slli	a0,a0,0x10
    38a6:	8141                	srli	a0,a0,0x10
    38a8:	811d                	srli	a0,a0,0x7
    38aa:	e315                	bnez	a4,38ce <timer_get_int+0x64>
    38ac:	853e                	mv	a0,a5
    38ae:	8082                	ret
    38b0:	4789                	li	a5,2
    38b2:	02f51163          	bne	a0,a5,38d4 <timer_get_int+0x6a>
    38b6:	400007b7          	lui	a5,0x40000
    38ba:	0107d703          	lhu	a4,16(a5) # 40000010 <GEC_USER_RAM_END+0x1ffe0010>
    38be:	00c7d503          	lhu	a0,12(a5)
    38c2:	4781                	li	a5,0
    38c4:	8b09                	andi	a4,a4,2
    38c6:	0542                	slli	a0,a0,0x10
    38c8:	8141                	srli	a0,a0,0x10
    38ca:	d36d                	beqz	a4,38ac <timer_get_int+0x42>
    38cc:	8105                	srli	a0,a0,0x1
    38ce:	00157793          	andi	a5,a0,1
    38d2:	bfe9                	j	38ac <timer_get_int+0x42>
    38d4:	478d                	li	a5,3
    38d6:	00f51f63          	bne	a0,a5,38f4 <timer_get_int+0x8a>
    38da:	400007b7          	lui	a5,0x40000
    38de:	4107d703          	lhu	a4,1040(a5) # 40000410 <GEC_USER_RAM_END+0x1ffe0410>
    38e2:	40c7d503          	lhu	a0,1036(a5)
    38e6:	4781                	li	a5,0
    38e8:	8b11                	andi	a4,a4,4
    38ea:	0542                	slli	a0,a0,0x10
    38ec:	8141                	srli	a0,a0,0x10
    38ee:	8109                	srli	a0,a0,0x2
    38f0:	ff79                	bnez	a4,38ce <timer_get_int+0x64>
    38f2:	bf6d                	j	38ac <timer_get_int+0x42>
    38f4:	471d                	li	a4,7
    38f6:	4781                	li	a5,0
    38f8:	fae51ae3          	bne	a0,a4,38ac <timer_get_int+0x42>
    38fc:	40001737          	lui	a4,0x40001
    3900:	41075683          	lhu	a3,1040(a4) # 40001410 <GEC_USER_RAM_END+0x1ffe1410>
    3904:	40070713          	addi	a4,a4,1024
    3908:	00c75703          	lhu	a4,12(a4)
    390c:	8a85                	andi	a3,a3,1
    390e:	0742                	slli	a4,a4,0x10
    3910:	8341                	srli	a4,a4,0x10
    3912:	bf8d                	j	3884 <timer_get_int+0x1a>

00003914 <timer_clear_int>:
    3914:	157d                	addi	a0,a0,-1
    3916:	0ff57513          	andi	a0,a0,255
    391a:	479d                	li	a5,7
    391c:	02a7e563          	bltu	a5,a0,3946 <timer_clear_int+0x32>
    3920:	679d                	lui	a5,0x7
    3922:	56878793          	addi	a5,a5,1384 # 7568 <nAsciiDot+0x720>
    3926:	050a                	slli	a0,a0,0x2
    3928:	953e                	add	a0,a0,a5
    392a:	411c                	lw	a5,0(a0)
    392c:	8782                	jr	a5
    392e:	400137b7          	lui	a5,0x40013
    3932:	5779                	li	a4,-2
    3934:	c0e79823          	sh	a4,-1008(a5) # 40012c10 <GEC_USER_RAM_END+0x1fff2c10>
    3938:	8082                	ret
    393a:	400137b7          	lui	a5,0x40013
    393e:	f7f00713          	li	a4,-129
    3942:	40e79823          	sh	a4,1040(a5) # 40013410 <GEC_USER_RAM_END+0x1fff3410>
    3946:	8082                	ret
    3948:	400007b7          	lui	a5,0x40000
    394c:	576d                	li	a4,-5
    394e:	00e79823          	sh	a4,16(a5) # 40000010 <GEC_USER_RAM_END+0x1ffe0010>
    3952:	8082                	ret
    3954:	400007b7          	lui	a5,0x40000
    3958:	575d                	li	a4,-9
    395a:	b7e5                	j	3942 <timer_clear_int+0x2e>
    395c:	400017b7          	lui	a5,0x40001
    3960:	5779                	li	a4,-2
    3962:	b7f5                	j	394e <timer_clear_int+0x3a>
    3964:	400017b7          	lui	a5,0x40001
    3968:	5779                	li	a4,-2
    396a:	bfe1                	j	3942 <timer_clear_int+0x2e>

0000396c <uart_init>:
    396c:	fff50693          	addi	a3,a0,-1
    3970:	0ff6f713          	andi	a4,a3,255
    3974:	479d                	li	a5,7
    3976:	14e7ed63          	bltu	a5,a4,3ad0 <uart_init+0x164>
    397a:	1579                	addi	a0,a0,-2
    397c:	0ff57513          	andi	a0,a0,255
    3980:	4799                	li	a5,6
    3982:	00a7e963          	bltu	a5,a0,3994 <uart_init+0x28>
    3986:	679d                	lui	a5,0x7
    3988:	58878793          	addi	a5,a5,1416 # 7588 <nAsciiDot+0x740>
    398c:	050a                	slli	a0,a0,0x2
    398e:	953e                	add	a0,a0,a5
    3990:	411c                	lw	a5,0(a0)
    3992:	8782                	jr	a5
    3994:	400217b7          	lui	a5,0x40021
    3998:	4f98                	lw	a4,24(a5)
    399a:	6611                	lui	a2,0x4
    399c:	8f51                	or	a4,a4,a2
    399e:	cf98                	sw	a4,24(a5)
    39a0:	4f98                	lw	a4,24(a5)
    39a2:	767d                	lui	a2,0xfffff
    39a4:	063d                	addi	a2,a2,15
    39a6:	00176713          	ori	a4,a4,1
    39aa:	cf98                	sw	a4,24(a5)
    39ac:	4f98                	lw	a4,24(a5)
    39ae:	00476713          	ori	a4,a4,4
    39b2:	cf98                	sw	a4,24(a5)
    39b4:	400117b7          	lui	a5,0x40011
    39b8:	8047a703          	lw	a4,-2044(a5) # 40010804 <GEC_USER_RAM_END+0x1fff0804>
    39bc:	8f71                	and	a4,a4,a2
    39be:	80e7a223          	sw	a4,-2044(a5)
    39c2:	8047a703          	lw	a4,-2044(a5)
    39c6:	6605                	lui	a2,0x1
    39c8:	8a060613          	addi	a2,a2,-1888 # 8a0 <__stack_size+0xa0>
    39cc:	8f51                	or	a4,a4,a2
    39ce:	80e7a223          	sw	a4,-2044(a5)
    39d2:	400107b7          	lui	a5,0x40010
    39d6:	43d8                	lw	a4,4(a5)
    39d8:	c3d8                	sw	a4,4(a5)
    39da:	a835                	j	3a16 <uart_init+0xaa>
    39dc:	400217b7          	lui	a5,0x40021
    39e0:	4fd8                	lw	a4,28(a5)
    39e2:	00020637          	lui	a2,0x20
    39e6:	8f51                	or	a4,a4,a2
    39e8:	cfd8                	sw	a4,28(a5)
    39ea:	4f98                	lw	a4,24(a5)
    39ec:	7641                	lui	a2,0xffff0
    39ee:	0ff60613          	addi	a2,a2,255 # ffff00ff <GEC_USER_RAM_END+0xdffd00ff>
    39f2:	00476713          	ori	a4,a4,4
    39f6:	cf98                	sw	a4,24(a5)
    39f8:	400117b7          	lui	a5,0x40011
    39fc:	8007a703          	lw	a4,-2048(a5) # 40010800 <GEC_USER_RAM_END+0x1fff0800>
    3a00:	8f71                	and	a4,a4,a2
    3a02:	80e7a023          	sw	a4,-2048(a5)
    3a06:	8007a703          	lw	a4,-2048(a5)
    3a0a:	6615                	lui	a2,0x5
    3a0c:	b0060613          	addi	a2,a2,-1280 # 4b00 <__adddf3+0x65c>
    3a10:	8f51                	or	a4,a4,a2
    3a12:	80e7a023          	sw	a4,-2048(a5)
    3a16:	200007b7          	lui	a5,0x20000
    3a1a:	068a                	slli	a3,a3,0x2
    3a1c:	03c78793          	addi	a5,a5,60 # 2000003c <USART_ARR>
    3a20:	97b6                	add	a5,a5,a3
    3a22:	4398                	lw	a4,0(a5)
    3a24:	77f9                	lui	a5,0xffffe
    3a26:	17fd                	addi	a5,a5,-1
    3a28:	00c75683          	lhu	a3,12(a4)
    3a2c:	8ff5                	and	a5,a5,a3
    3a2e:	00f71623          	sh	a5,12(a4)
    3a32:	00c75603          	lhu	a2,12(a4)
    3a36:	400147b7          	lui	a5,0x40014
    3a3a:	80078793          	addi	a5,a5,-2048 # 40013800 <GEC_USER_RAM_END+0x1fff3800>
    3a3e:	0642                	slli	a2,a2,0x10
    3a40:	8241                	srli	a2,a2,0x10
    3a42:	9a4d                	andi	a2,a2,-13
    3a44:	0642                	slli	a2,a2,0x10
    3a46:	8241                	srli	a2,a2,0x10
    3a48:	00c71623          	sh	a2,12(a4)
    3a4c:	1cf71a63          	bne	a4,a5,3c20 <uart_init+0x2b4>
    3a50:	1ad277b7          	lui	a5,0x1ad27
    3a54:	48078793          	addi	a5,a5,1152 # 1ad27480 <_data_lma+0x1ad1fcdc>
    3a58:	02b7d7b3          	divu	a5,a5,a1
    3a5c:	06400693          	li	a3,100
    3a60:	0592                	slli	a1,a1,0x4
    3a62:	00100637          	lui	a2,0x100
    3a66:	1641                	addi	a2,a2,-16
    3a68:	02d7f7b3          	remu	a5,a5,a3
    3a6c:	0792                	slli	a5,a5,0x4
    3a6e:	03278793          	addi	a5,a5,50
    3a72:	02d7d7b3          	divu	a5,a5,a3
    3a76:	044aa6b7          	lui	a3,0x44aa
    3a7a:	20068693          	addi	a3,a3,512 # 44aa200 <_data_lma+0x44a2a5c>
    3a7e:	02b6d6b3          	divu	a3,a3,a1
    3a82:	0692                	slli	a3,a3,0x4
    3a84:	8ef1                	and	a3,a3,a2
    3a86:	8fd5                	or	a5,a5,a3
    3a88:	07c2                	slli	a5,a5,0x10
    3a8a:	83c1                	srli	a5,a5,0x10
    3a8c:	00f71423          	sh	a5,8(a4)
    3a90:	00071023          	sh	zero,0(a4)
    3a94:	01075683          	lhu	a3,16(a4)
    3a98:	77ed                	lui	a5,0xffffb
    3a9a:	7ff78793          	addi	a5,a5,2047 # ffffb7ff <GEC_USER_RAM_END+0xdffdb7ff>
    3a9e:	8ff5                	and	a5,a5,a3
    3aa0:	00f71823          	sh	a5,16(a4)
    3aa4:	01475783          	lhu	a5,20(a4)
    3aa8:	6689                	lui	a3,0x2
    3aaa:	07c2                	slli	a5,a5,0x10
    3aac:	83c1                	srli	a5,a5,0x10
    3aae:	fd57f793          	andi	a5,a5,-43
    3ab2:	07c2                	slli	a5,a5,0x10
    3ab4:	83c1                	srli	a5,a5,0x10
    3ab6:	00f71a23          	sh	a5,20(a4)
    3aba:	00c75783          	lhu	a5,12(a4)
    3abe:	00c7e793          	ori	a5,a5,12
    3ac2:	00f71623          	sh	a5,12(a4)
    3ac6:	00c75783          	lhu	a5,12(a4)
    3aca:	8fd5                	or	a5,a5,a3
    3acc:	00f71623          	sh	a5,12(a4)
    3ad0:	8082                	ret
    3ad2:	400217b7          	lui	a5,0x40021
    3ad6:	4fd8                	lw	a4,28(a5)
    3ad8:	00040637          	lui	a2,0x40
    3adc:	8f51                	or	a4,a4,a2
    3ade:	cfd8                	sw	a4,28(a5)
    3ae0:	4f98                	lw	a4,24(a5)
    3ae2:	7641                	lui	a2,0xffff0
    3ae4:	0ff60613          	addi	a2,a2,255 # ffff00ff <GEC_USER_RAM_END+0xdffd00ff>
    3ae8:	00876713          	ori	a4,a4,8
    3aec:	cf98                	sw	a4,24(a5)
    3aee:	400117b7          	lui	a5,0x40011
    3af2:	c047a703          	lw	a4,-1020(a5) # 40010c04 <GEC_USER_RAM_END+0x1fff0c04>
    3af6:	8f71                	and	a4,a4,a2
    3af8:	c0e7a223          	sw	a4,-1020(a5)
    3afc:	c047a703          	lw	a4,-1020(a5)
    3b00:	6615                	lui	a2,0x5
    3b02:	a0060613          	addi	a2,a2,-1536 # 4a00 <__adddf3+0x55c>
    3b06:	8f51                	or	a4,a4,a2
    3b08:	c0e7a223          	sw	a4,-1020(a5)
    3b0c:	b729                	j	3a16 <uart_init+0xaa>
    3b0e:	400217b7          	lui	a5,0x40021
    3b12:	4fd8                	lw	a4,28(a5)
    3b14:	00080637          	lui	a2,0x80
    3b18:	8f51                	or	a4,a4,a2
    3b1a:	cfd8                	sw	a4,28(a5)
    3b1c:	4f98                	lw	a4,24(a5)
    3b1e:	7641                	lui	a2,0xffff0
    3b20:	0ff60613          	addi	a2,a2,255 # ffff00ff <GEC_USER_RAM_END+0xdffd00ff>
    3b24:	01076713          	ori	a4,a4,16
    3b28:	cf98                	sw	a4,24(a5)
    3b2a:	400117b7          	lui	a5,0x40011
    3b2e:	43d8                	lw	a4,4(a5)
    3b30:	8f71                	and	a4,a4,a2
    3b32:	c3d8                	sw	a4,4(a5)
    3b34:	43d8                	lw	a4,4(a5)
    3b36:	6615                	lui	a2,0x5
    3b38:	a0060613          	addi	a2,a2,-1536 # 4a00 <__adddf3+0x55c>
    3b3c:	8f51                	or	a4,a4,a2
    3b3e:	bd69                	j	39d8 <uart_init+0x6c>
    3b40:	400217b7          	lui	a5,0x40021
    3b44:	4fd8                	lw	a4,28(a5)
    3b46:	00100637          	lui	a2,0x100
    3b4a:	8f51                	or	a4,a4,a2
    3b4c:	cfd8                	sw	a4,28(a5)
    3b4e:	4f98                	lw	a4,24(a5)
    3b50:	fff10637          	lui	a2,0xfff10
    3b54:	167d                	addi	a2,a2,-1
    3b56:	01076713          	ori	a4,a4,16
    3b5a:	cf98                	sw	a4,24(a5)
    3b5c:	4f98                	lw	a4,24(a5)
    3b5e:	02076713          	ori	a4,a4,32
    3b62:	cf98                	sw	a4,24(a5)
    3b64:	40011737          	lui	a4,0x40011
    3b68:	435c                	lw	a5,4(a4)
    3b6a:	8ff1                	and	a5,a5,a2
    3b6c:	c35c                	sw	a5,4(a4)
    3b6e:	40072783          	lw	a5,1024(a4) # 40011400 <GEC_USER_RAM_END+0x1fff1400>
    3b72:	767d                	lui	a2,0xfffff
    3b74:	0ff60613          	addi	a2,a2,255 # fffff0ff <GEC_USER_RAM_END+0xdffdf0ff>
    3b78:	8ff1                	and	a5,a5,a2
    3b7a:	40f72023          	sw	a5,1024(a4)
    3b7e:	435c                	lw	a5,4(a4)
    3b80:	000a0637          	lui	a2,0xa0
    3b84:	8fd1                	or	a5,a5,a2
    3b86:	c35c                	sw	a5,4(a4)
    3b88:	40072783          	lw	a5,1024(a4)
    3b8c:	6605                	lui	a2,0x1
    3b8e:	80060613          	addi	a2,a2,-2048 # 800 <__stack_size>
    3b92:	8fd1                	or	a5,a5,a2
    3b94:	40f72023          	sw	a5,1024(a4)
    3b98:	bdbd                	j	3a16 <uart_init+0xaa>
    3b9a:	400217b7          	lui	a5,0x40021
    3b9e:	4fd8                	lw	a4,28(a5)
    3ba0:	04076713          	ori	a4,a4,64
    3ba4:	cfd8                	sw	a4,28(a5)
    3ba6:	4f98                	lw	a4,24(a5)
    3ba8:	01076713          	ori	a4,a4,16
    3bac:	cf98                	sw	a4,24(a5)
    3bae:	400117b7          	lui	a5,0x40011
    3bb2:	4398                	lw	a4,0(a5)
    3bb4:	f0077713          	andi	a4,a4,-256
    3bb8:	c398                	sw	a4,0(a5)
    3bba:	4398                	lw	a4,0(a5)
    3bbc:	04a76713          	ori	a4,a4,74
    3bc0:	c398                	sw	a4,0(a5)
    3bc2:	bd91                	j	3a16 <uart_init+0xaa>
    3bc4:	400217b7          	lui	a5,0x40021
    3bc8:	4fd8                	lw	a4,28(a5)
    3bca:	7641                	lui	a2,0xffff0
    3bcc:	0ff60613          	addi	a2,a2,255 # ffff00ff <GEC_USER_RAM_END+0xdffd00ff>
    3bd0:	08076713          	ori	a4,a4,128
    3bd4:	cfd8                	sw	a4,28(a5)
    3bd6:	4f98                	lw	a4,24(a5)
    3bd8:	01076713          	ori	a4,a4,16
    3bdc:	cf98                	sw	a4,24(a5)
    3bde:	400117b7          	lui	a5,0x40011
    3be2:	4398                	lw	a4,0(a5)
    3be4:	8f71                	and	a4,a4,a2
    3be6:	c398                	sw	a4,0(a5)
    3be8:	4398                	lw	a4,0(a5)
    3bea:	6615                	lui	a2,0x5
    3bec:	a0060613          	addi	a2,a2,-1536 # 4a00 <__adddf3+0x55c>
    3bf0:	8f51                	or	a4,a4,a2
    3bf2:	b7f9                	j	3bc0 <uart_init+0x254>
    3bf4:	400217b7          	lui	a5,0x40021
    3bf8:	4fd8                	lw	a4,28(a5)
    3bfa:	ff010637          	lui	a2,0xff010
    3bfe:	167d                	addi	a2,a2,-1
    3c00:	10076713          	ori	a4,a4,256
    3c04:	cfd8                	sw	a4,28(a5)
    3c06:	4f98                	lw	a4,24(a5)
    3c08:	01076713          	ori	a4,a4,16
    3c0c:	cf98                	sw	a4,24(a5)
    3c0e:	400117b7          	lui	a5,0x40011
    3c12:	4398                	lw	a4,0(a5)
    3c14:	8f71                	and	a4,a4,a2
    3c16:	c398                	sw	a4,0(a5)
    3c18:	4398                	lw	a4,0(a5)
    3c1a:	004a0637          	lui	a2,0x4a0
    3c1e:	bfc9                	j	3bf0 <uart_init+0x284>
    3c20:	044aa7b7          	lui	a5,0x44aa
    3c24:	00559693          	slli	a3,a1,0x5
    3c28:	20078793          	addi	a5,a5,512 # 44aa200 <_data_lma+0x44a2a5c>
    3c2c:	02d7d7b3          	divu	a5,a5,a3
    3c30:	001006b7          	lui	a3,0x100
    3c34:	16c1                	addi	a3,a3,-16
    3c36:	06400613          	li	a2,100
    3c3a:	0792                	slli	a5,a5,0x4
    3c3c:	8ff5                	and	a5,a5,a3
    3c3e:	0d6946b7          	lui	a3,0xd694
    3c42:	a4068693          	addi	a3,a3,-1472 # d693a40 <_data_lma+0xd68c29c>
    3c46:	02b6d6b3          	divu	a3,a3,a1
    3c4a:	02c6f6b3          	remu	a3,a3,a2
    3c4e:	0692                	slli	a3,a3,0x4
    3c50:	02c6d6b3          	divu	a3,a3,a2
    3c54:	bd0d                	j	3a86 <uart_init+0x11a>

00003c56 <uart_send1>:
    3c56:	157d                	addi	a0,a0,-1
    3c58:	0ff57713          	andi	a4,a0,255
    3c5c:	479d                	li	a5,7
    3c5e:	02e7ea63          	bltu	a5,a4,3c92 <uart_send1+0x3c>
    3c62:	00251793          	slli	a5,a0,0x2
    3c66:	20000537          	lui	a0,0x20000
    3c6a:	03c50513          	addi	a0,a0,60 # 2000003c <USART_ARR>
    3c6e:	953e                	add	a0,a0,a5
    3c70:	4114                	lw	a3,0(a0)
    3c72:	67c1                	lui	a5,0x10
    3c74:	bbb78793          	addi	a5,a5,-1093 # fbbb <_data_lma+0x8417>
    3c78:	0006d703          	lhu	a4,0(a3)
    3c7c:	08077713          	andi	a4,a4,128
    3c80:	c719                	beqz	a4,3c8e <uart_send1+0x38>
    3c82:	05c2                	slli	a1,a1,0x10
    3c84:	81c1                	srli	a1,a1,0x10
    3c86:	00b69223          	sh	a1,4(a3)
    3c8a:	4505                	li	a0,1
    3c8c:	8082                	ret
    3c8e:	17fd                	addi	a5,a5,-1
    3c90:	f7e5                	bnez	a5,3c78 <uart_send1+0x22>
    3c92:	4501                	li	a0,0
    3c94:	8082                	ret

00003c96 <uart_re1>:
    3c96:	157d                	addi	a0,a0,-1
    3c98:	0ff57713          	andi	a4,a0,255
    3c9c:	479d                	li	a5,7
    3c9e:	00e7f663          	bgeu	a5,a4,3caa <uart_re1+0x14>
    3ca2:	00058023          	sb	zero,0(a1) # 40010000 <GEC_USER_RAM_END+0x1fff0000>
    3ca6:	4501                	li	a0,0
    3ca8:	8082                	ret
    3caa:	00251793          	slli	a5,a0,0x2
    3cae:	20000537          	lui	a0,0x20000
    3cb2:	03c50513          	addi	a0,a0,60 # 2000003c <USART_ARR>
    3cb6:	953e                	add	a0,a0,a5
    3cb8:	4114                	lw	a3,0(a0)
    3cba:	67c1                	lui	a5,0x10
    3cbc:	bbb78793          	addi	a5,a5,-1093 # fbbb <_data_lma+0x8417>
    3cc0:	0006d703          	lhu	a4,0(a3)
    3cc4:	02077713          	andi	a4,a4,32
    3cc8:	cb09                	beqz	a4,3cda <uart_re1+0x44>
    3cca:	0046d503          	lhu	a0,4(a3)
    3cce:	4785                	li	a5,1
    3cd0:	00f58023          	sb	a5,0(a1)
    3cd4:	0ff57513          	andi	a0,a0,255
    3cd8:	8082                	ret
    3cda:	17fd                	addi	a5,a5,-1
    3cdc:	f3f5                	bnez	a5,3cc0 <uart_re1+0x2a>
    3cde:	00058023          	sb	zero,0(a1)
    3ce2:	0ff00513          	li	a0,255
    3ce6:	8082                	ret

00003ce8 <uart_enable_re_int>:
    3ce8:	157d                	addi	a0,a0,-1
    3cea:	0ff57713          	andi	a4,a0,255
    3cee:	479d                	li	a5,7
    3cf0:	04e7e263          	bltu	a5,a4,3d34 <uart_enable_re_int+0x4c>
    3cf4:	20000737          	lui	a4,0x20000
    3cf8:	00251793          	slli	a5,a0,0x2
    3cfc:	03c70713          	addi	a4,a4,60 # 2000003c <USART_ARR>
    3d00:	973e                	add	a4,a4,a5
    3d02:	4314                	lw	a3,0(a4)
    3d04:	20000537          	lui	a0,0x20000
    3d08:	05c50513          	addi	a0,a0,92 # 2000005c <table_irq_uart>
    3d0c:	00c6d703          	lhu	a4,12(a3)
    3d10:	953e                	add	a0,a0,a5
    3d12:	02076713          	ori	a4,a4,32
    3d16:	00e69623          	sh	a4,12(a3)
    3d1a:	4118                	lw	a4,0(a0)
    3d1c:	4685                	li	a3,1
    3d1e:	00575793          	srli	a5,a4,0x5
    3d22:	04078793          	addi	a5,a5,64
    3d26:	00e696b3          	sll	a3,a3,a4
    3d2a:	078a                	slli	a5,a5,0x2
    3d2c:	e000e737          	lui	a4,0xe000e
    3d30:	97ba                	add	a5,a5,a4
    3d32:	c394                	sw	a3,0(a5)
    3d34:	8082                	ret

00003d36 <uart_get_re_int>:
    3d36:	157d                	addi	a0,a0,-1
    3d38:	0ff57713          	andi	a4,a0,255
    3d3c:	479d                	li	a5,7
    3d3e:	02e7e563          	bltu	a5,a4,3d68 <uart_get_re_int+0x32>
    3d42:	00251793          	slli	a5,a0,0x2
    3d46:	20000537          	lui	a0,0x20000
    3d4a:	03c50513          	addi	a0,a0,60 # 2000003c <USART_ARR>
    3d4e:	953e                	add	a0,a0,a5
    3d50:	4118                	lw	a4,0(a0)
    3d52:	4501                	li	a0,0
    3d54:	00075783          	lhu	a5,0(a4) # e000e000 <GEC_USER_RAM_END+0xbffee000>
    3d58:	0207f793          	andi	a5,a5,32
    3d5c:	c799                	beqz	a5,3d6a <uart_get_re_int+0x34>
    3d5e:	00c75503          	lhu	a0,12(a4)
    3d62:	8115                	srli	a0,a0,0x5
    3d64:	8905                	andi	a0,a0,1
    3d66:	8082                	ret
    3d68:	4501                	li	a0,0
    3d6a:	8082                	ret

00003d6c <__get_MEPC>:
    3d6c:	34102573          	csrr	a0,mepc
    3d70:	8082                	ret

00003d72 <__get_MCAUSE>:
    3d72:	34202573          	csrr	a0,mcause
    3d76:	8082                	ret

00003d78 <__get_MTVAL>:
    3d78:	34302573          	csrr	a0,mtval
    3d7c:	8082                	ret

00003d7e <__udivdi3>:
    3d7e:	87b6                	mv	a5,a3
    3d80:	88b2                	mv	a7,a2
    3d82:	832a                	mv	t1,a0
    3d84:	882e                	mv	a6,a1
    3d86:	14069d63          	bnez	a3,3ee0 <__udivdi3+0x162>
    3d8a:	0ac5f963          	bgeu	a1,a2,3e3c <__udivdi3+0xbe>
    3d8e:	6741                	lui	a4,0x10
    3d90:	1ae66e63          	bltu	a2,a4,3f4c <__udivdi3+0x1ce>
    3d94:	010007b7          	lui	a5,0x1000
    3d98:	34f66363          	bltu	a2,a5,40de <__udivdi3+0x360>
    3d9c:	01865693          	srli	a3,a2,0x18
    3da0:	47e1                	li	a5,24
    3da2:	00004717          	auipc	a4,0x4
    3da6:	90270713          	addi	a4,a4,-1790 # 76a4 <__clz_tab>
    3daa:	9736                	add	a4,a4,a3
    3dac:	00074703          	lbu	a4,0(a4)
    3db0:	97ba                	add	a5,a5,a4
    3db2:	02000713          	li	a4,32
    3db6:	8f1d                	sub	a4,a4,a5
    3db8:	cb19                	beqz	a4,3dce <__udivdi3+0x50>
    3dba:	00e59833          	sll	a6,a1,a4
    3dbe:	00f557b3          	srl	a5,a0,a5
    3dc2:	00e618b3          	sll	a7,a2,a4
    3dc6:	0107e833          	or	a6,a5,a6
    3dca:	00e51333          	sll	t1,a0,a4
    3dce:	0108d613          	srli	a2,a7,0x10
    3dd2:	02c85533          	divu	a0,a6,a2
    3dd6:	01089693          	slli	a3,a7,0x10
    3dda:	82c1                	srli	a3,a3,0x10
    3ddc:	01035793          	srli	a5,t1,0x10
    3de0:	02c87733          	remu	a4,a6,a2
    3de4:	02a685b3          	mul	a1,a3,a0
    3de8:	0742                	slli	a4,a4,0x10
    3dea:	00f76833          	or	a6,a4,a5
    3dee:	00b87a63          	bgeu	a6,a1,3e02 <__udivdi3+0x84>
    3df2:	9846                	add	a6,a6,a7
    3df4:	fff50793          	addi	a5,a0,-1
    3df8:	01186463          	bltu	a6,a7,3e00 <__udivdi3+0x82>
    3dfc:	30b86763          	bltu	a6,a1,410a <__udivdi3+0x38c>
    3e00:	853e                	mv	a0,a5
    3e02:	40b80833          	sub	a6,a6,a1
    3e06:	02c85733          	divu	a4,a6,a2
    3e0a:	0342                	slli	t1,t1,0x10
    3e0c:	01035313          	srli	t1,t1,0x10
    3e10:	02c87833          	remu	a6,a6,a2
    3e14:	02e686b3          	mul	a3,a3,a4
    3e18:	0842                	slli	a6,a6,0x10
    3e1a:	00686833          	or	a6,a6,t1
    3e1e:	00d87b63          	bgeu	a6,a3,3e34 <__udivdi3+0xb6>
    3e22:	9846                	add	a6,a6,a7
    3e24:	fff70793          	addi	a5,a4,-1
    3e28:	01186563          	bltu	a6,a7,3e32 <__udivdi3+0xb4>
    3e2c:	1779                	addi	a4,a4,-2
    3e2e:	00d86363          	bltu	a6,a3,3e34 <__udivdi3+0xb6>
    3e32:	873e                	mv	a4,a5
    3e34:	0542                	slli	a0,a0,0x10
    3e36:	8d59                	or	a0,a0,a4
    3e38:	4581                	li	a1,0
    3e3a:	8082                	ret
    3e3c:	e601                	bnez	a2,3e44 <__udivdi3+0xc6>
    3e3e:	4705                	li	a4,1
    3e40:	02c758b3          	divu	a7,a4,a2
    3e44:	6741                	lui	a4,0x10
    3e46:	0ee8ea63          	bltu	a7,a4,3f3a <__udivdi3+0x1bc>
    3e4a:	010007b7          	lui	a5,0x1000
    3e4e:	28f8ec63          	bltu	a7,a5,40e6 <__udivdi3+0x368>
    3e52:	0188d693          	srli	a3,a7,0x18
    3e56:	47e1                	li	a5,24
    3e58:	00004717          	auipc	a4,0x4
    3e5c:	84c70713          	addi	a4,a4,-1972 # 76a4 <__clz_tab>
    3e60:	9736                	add	a4,a4,a3
    3e62:	00074683          	lbu	a3,0(a4)
    3e66:	96be                	add	a3,a3,a5
    3e68:	02000793          	li	a5,32
    3e6c:	8f95                	sub	a5,a5,a3
    3e6e:	ebe5                	bnez	a5,3f5e <__udivdi3+0x1e0>
    3e70:	01089e93          	slli	t4,a7,0x10
    3e74:	41158733          	sub	a4,a1,a7
    3e78:	0108df13          	srli	t5,a7,0x10
    3e7c:	010ede93          	srli	t4,t4,0x10
    3e80:	4585                	li	a1,1
    3e82:	01035793          	srli	a5,t1,0x10
    3e86:	03e75533          	divu	a0,a4,t5
    3e8a:	03e77733          	remu	a4,a4,t5
    3e8e:	03d506b3          	mul	a3,a0,t4
    3e92:	0742                	slli	a4,a4,0x10
    3e94:	8fd9                	or	a5,a5,a4
    3e96:	00d7fa63          	bgeu	a5,a3,3eaa <__udivdi3+0x12c>
    3e9a:	97c6                	add	a5,a5,a7
    3e9c:	fff50713          	addi	a4,a0,-1
    3ea0:	0117e463          	bltu	a5,a7,3ea8 <__udivdi3+0x12a>
    3ea4:	26d7e663          	bltu	a5,a3,4110 <__udivdi3+0x392>
    3ea8:	853a                	mv	a0,a4
    3eaa:	8f95                	sub	a5,a5,a3
    3eac:	03e7d733          	divu	a4,a5,t5
    3eb0:	0342                	slli	t1,t1,0x10
    3eb2:	01035313          	srli	t1,t1,0x10
    3eb6:	03e7f7b3          	remu	a5,a5,t5
    3eba:	03d70eb3          	mul	t4,a4,t4
    3ebe:	07c2                	slli	a5,a5,0x10
    3ec0:	0067e7b3          	or	a5,a5,t1
    3ec4:	01d7fb63          	bgeu	a5,t4,3eda <__udivdi3+0x15c>
    3ec8:	97c6                	add	a5,a5,a7
    3eca:	fff70693          	addi	a3,a4,-1
    3ece:	0117e563          	bltu	a5,a7,3ed8 <__udivdi3+0x15a>
    3ed2:	1779                	addi	a4,a4,-2
    3ed4:	01d7e363          	bltu	a5,t4,3eda <__udivdi3+0x15c>
    3ed8:	8736                	mv	a4,a3
    3eda:	0542                	slli	a0,a0,0x10
    3edc:	8d59                	or	a0,a0,a4
    3ede:	8082                	ret
    3ee0:	04d5e263          	bltu	a1,a3,3f24 <__udivdi3+0x1a6>
    3ee4:	67c1                	lui	a5,0x10
    3ee6:	04f6e263          	bltu	a3,a5,3f2a <__udivdi3+0x1ac>
    3eea:	010007b7          	lui	a5,0x1000
    3eee:	1ef6e463          	bltu	a3,a5,40d6 <__udivdi3+0x358>
    3ef2:	0186d713          	srli	a4,a3,0x18
    3ef6:	4861                	li	a6,24
    3ef8:	00003797          	auipc	a5,0x3
    3efc:	7ac78793          	addi	a5,a5,1964 # 76a4 <__clz_tab>
    3f00:	97ba                	add	a5,a5,a4
    3f02:	0007c703          	lbu	a4,0(a5)
    3f06:	02000e13          	li	t3,32
    3f0a:	9742                	add	a4,a4,a6
    3f0c:	40ee0e33          	sub	t3,t3,a4
    3f10:	0c0e1a63          	bnez	t3,3fe4 <__udivdi3+0x266>
    3f14:	1cb6ed63          	bltu	a3,a1,40ee <__udivdi3+0x370>
    3f18:	00c53533          	sltu	a0,a0,a2
    3f1c:	00154513          	xori	a0,a0,1
    3f20:	4581                	li	a1,0
    3f22:	8082                	ret
    3f24:	4581                	li	a1,0
    3f26:	4501                	li	a0,0
    3f28:	8082                	ret
    3f2a:	0ff00793          	li	a5,255
    3f2e:	1cd7f363          	bgeu	a5,a3,40f4 <__udivdi3+0x376>
    3f32:	0086d713          	srli	a4,a3,0x8
    3f36:	4821                	li	a6,8
    3f38:	b7c1                	j	3ef8 <__udivdi3+0x17a>
    3f3a:	0ff00713          	li	a4,255
    3f3e:	86c6                	mv	a3,a7
    3f40:	f1177ce3          	bgeu	a4,a7,3e58 <__udivdi3+0xda>
    3f44:	0088d693          	srli	a3,a7,0x8
    3f48:	47a1                	li	a5,8
    3f4a:	b739                	j	3e58 <__udivdi3+0xda>
    3f4c:	0ff00713          	li	a4,255
    3f50:	86b2                	mv	a3,a2
    3f52:	e4c778e3          	bgeu	a4,a2,3da2 <__udivdi3+0x24>
    3f56:	00865693          	srli	a3,a2,0x8
    3f5a:	47a1                	li	a5,8
    3f5c:	b599                	j	3da2 <__udivdi3+0x24>
    3f5e:	00f898b3          	sll	a7,a7,a5
    3f62:	00d5d633          	srl	a2,a1,a3
    3f66:	0108df13          	srli	t5,a7,0x10
    3f6a:	03e65e33          	divu	t3,a2,t5
    3f6e:	00f59733          	sll	a4,a1,a5
    3f72:	00d556b3          	srl	a3,a0,a3
    3f76:	8f55                	or	a4,a4,a3
    3f78:	01089e93          	slli	t4,a7,0x10
    3f7c:	010ede93          	srli	t4,t4,0x10
    3f80:	00f51333          	sll	t1,a0,a5
    3f84:	01075593          	srli	a1,a4,0x10
    3f88:	03e676b3          	remu	a3,a2,t5
    3f8c:	03ce87b3          	mul	a5,t4,t3
    3f90:	06c2                	slli	a3,a3,0x10
    3f92:	8ecd                	or	a3,a3,a1
    3f94:	00f6fb63          	bgeu	a3,a5,3faa <__udivdi3+0x22c>
    3f98:	96c6                	add	a3,a3,a7
    3f9a:	fffe0613          	addi	a2,t3,-1 # 7fffffff <GEC_USER_RAM_END+0x5ffdffff>
    3f9e:	1716e463          	bltu	a3,a7,4106 <__udivdi3+0x388>
    3fa2:	16f6f263          	bgeu	a3,a5,4106 <__udivdi3+0x388>
    3fa6:	1e79                	addi	t3,t3,-2
    3fa8:	96c6                	add	a3,a3,a7
    3faa:	8e9d                	sub	a3,a3,a5
    3fac:	03e6d633          	divu	a2,a3,t5
    3fb0:	01071793          	slli	a5,a4,0x10
    3fb4:	83c1                	srli	a5,a5,0x10
    3fb6:	03e6f6b3          	remu	a3,a3,t5
    3fba:	02ce8533          	mul	a0,t4,a2
    3fbe:	01069713          	slli	a4,a3,0x10
    3fc2:	8f5d                	or	a4,a4,a5
    3fc4:	00a77b63          	bgeu	a4,a0,3fda <__udivdi3+0x25c>
    3fc8:	9746                	add	a4,a4,a7
    3fca:	fff60793          	addi	a5,a2,-1 # 49ffff <_data_lma+0x49885b>
    3fce:	13176863          	bltu	a4,a7,40fe <__udivdi3+0x380>
    3fd2:	12a77663          	bgeu	a4,a0,40fe <__udivdi3+0x380>
    3fd6:	1679                	addi	a2,a2,-2
    3fd8:	9746                	add	a4,a4,a7
    3fda:	010e1593          	slli	a1,t3,0x10
    3fde:	8f09                	sub	a4,a4,a0
    3fe0:	8dd1                	or	a1,a1,a2
    3fe2:	b545                	j	3e82 <__udivdi3+0x104>
    3fe4:	00e657b3          	srl	a5,a2,a4
    3fe8:	01c696b3          	sll	a3,a3,t3
    3fec:	8edd                	or	a3,a3,a5
    3fee:	00e5d333          	srl	t1,a1,a4
    3ff2:	0106df13          	srli	t5,a3,0x10
    3ff6:	03e357b3          	divu	a5,t1,t5
    3ffa:	01069e93          	slli	t4,a3,0x10
    3ffe:	010ede93          	srli	t4,t4,0x10
    4002:	01c59833          	sll	a6,a1,t3
    4006:	00e55733          	srl	a4,a0,a4
    400a:	01076833          	or	a6,a4,a6
    400e:	01085893          	srli	a7,a6,0x10
    4012:	01c61633          	sll	a2,a2,t3
    4016:	03e37333          	remu	t1,t1,t5
    401a:	02fe85b3          	mul	a1,t4,a5
    401e:	0342                	slli	t1,t1,0x10
    4020:	011368b3          	or	a7,t1,a7
    4024:	00b8fb63          	bgeu	a7,a1,403a <__udivdi3+0x2bc>
    4028:	98b6                	add	a7,a7,a3
    402a:	fff78713          	addi	a4,a5,-1
    402e:	0cd8ea63          	bltu	a7,a3,4102 <__udivdi3+0x384>
    4032:	0cb8f863          	bgeu	a7,a1,4102 <__udivdi3+0x384>
    4036:	17f9                	addi	a5,a5,-2
    4038:	98b6                	add	a7,a7,a3
    403a:	40b888b3          	sub	a7,a7,a1
    403e:	03e8d733          	divu	a4,a7,t5
    4042:	0842                	slli	a6,a6,0x10
    4044:	01085813          	srli	a6,a6,0x10
    4048:	03e8f8b3          	remu	a7,a7,t5
    404c:	02ee8333          	mul	t1,t4,a4
    4050:	08c2                	slli	a7,a7,0x10
    4052:	0108e5b3          	or	a1,a7,a6
    4056:	0065fb63          	bgeu	a1,t1,406c <__udivdi3+0x2ee>
    405a:	95b6                	add	a1,a1,a3
    405c:	fff70813          	addi	a6,a4,-1
    4060:	08d5ed63          	bltu	a1,a3,40fa <__udivdi3+0x37c>
    4064:	0865fb63          	bgeu	a1,t1,40fa <__udivdi3+0x37c>
    4068:	1779                	addi	a4,a4,-2
    406a:	95b6                	add	a1,a1,a3
    406c:	07c2                	slli	a5,a5,0x10
    406e:	6f41                	lui	t5,0x10
    4070:	8fd9                	or	a5,a5,a4
    4072:	ffff0713          	addi	a4,t5,-1 # ffff <_data_lma+0x885b>
    4076:	00e7f6b3          	and	a3,a5,a4
    407a:	0107d893          	srli	a7,a5,0x10
    407e:	8f71                	and	a4,a4,a2
    4080:	8241                	srli	a2,a2,0x10
    4082:	02e68eb3          	mul	t4,a3,a4
    4086:	406585b3          	sub	a1,a1,t1
    408a:	02c686b3          	mul	a3,a3,a2
    408e:	010ed813          	srli	a6,t4,0x10
    4092:	02e88733          	mul	a4,a7,a4
    4096:	96ba                	add	a3,a3,a4
    4098:	96c2                	add	a3,a3,a6
    409a:	02c88633          	mul	a2,a7,a2
    409e:	00e6f363          	bgeu	a3,a4,40a4 <__udivdi3+0x326>
    40a2:	967a                	add	a2,a2,t5
    40a4:	0106d893          	srli	a7,a3,0x10
    40a8:	9646                	add	a2,a2,a7
    40aa:	02c5e263          	bltu	a1,a2,40ce <__udivdi3+0x350>
    40ae:	00c58563          	beq	a1,a2,40b8 <__udivdi3+0x33a>
    40b2:	853e                	mv	a0,a5
    40b4:	4581                	li	a1,0
    40b6:	8082                	ret
    40b8:	6741                	lui	a4,0x10
    40ba:	177d                	addi	a4,a4,-1
    40bc:	8ef9                	and	a3,a3,a4
    40be:	06c2                	slli	a3,a3,0x10
    40c0:	00eefeb3          	and	t4,t4,a4
    40c4:	01c51533          	sll	a0,a0,t3
    40c8:	96f6                	add	a3,a3,t4
    40ca:	fed574e3          	bgeu	a0,a3,40b2 <__udivdi3+0x334>
    40ce:	fff78513          	addi	a0,a5,-1
    40d2:	4581                	li	a1,0
    40d4:	8082                	ret
    40d6:	0106d713          	srli	a4,a3,0x10
    40da:	4841                	li	a6,16
    40dc:	bd31                	j	3ef8 <__udivdi3+0x17a>
    40de:	01065693          	srli	a3,a2,0x10
    40e2:	47c1                	li	a5,16
    40e4:	b97d                	j	3da2 <__udivdi3+0x24>
    40e6:	0108d693          	srli	a3,a7,0x10
    40ea:	47c1                	li	a5,16
    40ec:	b3b5                	j	3e58 <__udivdi3+0xda>
    40ee:	4581                	li	a1,0
    40f0:	4505                	li	a0,1
    40f2:	8082                	ret
    40f4:	8736                	mv	a4,a3
    40f6:	4801                	li	a6,0
    40f8:	b501                	j	3ef8 <__udivdi3+0x17a>
    40fa:	8742                	mv	a4,a6
    40fc:	bf85                	j	406c <__udivdi3+0x2ee>
    40fe:	863e                	mv	a2,a5
    4100:	bde9                	j	3fda <__udivdi3+0x25c>
    4102:	87ba                	mv	a5,a4
    4104:	bf1d                	j	403a <__udivdi3+0x2bc>
    4106:	8e32                	mv	t3,a2
    4108:	b54d                	j	3faa <__udivdi3+0x22c>
    410a:	1579                	addi	a0,a0,-2
    410c:	9846                	add	a6,a6,a7
    410e:	b9d5                	j	3e02 <__udivdi3+0x84>
    4110:	1579                	addi	a0,a0,-2
    4112:	97c6                	add	a5,a5,a7
    4114:	bb59                	j	3eaa <__udivdi3+0x12c>

00004116 <__umoddi3>:
    4116:	87b6                	mv	a5,a3
    4118:	8832                	mv	a6,a2
    411a:	832a                	mv	t1,a0
    411c:	872e                	mv	a4,a1
    411e:	8e2e                	mv	t3,a1
    4120:	14069363          	bnez	a3,4266 <__umoddi3+0x150>
    4124:	0ac5f163          	bgeu	a1,a2,41c6 <__umoddi3+0xb0>
    4128:	6741                	lui	a4,0x10
    412a:	1ae67863          	bgeu	a2,a4,42da <__umoddi3+0x1c4>
    412e:	0ff00713          	li	a4,255
    4132:	86b2                	mv	a3,a2
    4134:	00c77563          	bgeu	a4,a2,413e <__umoddi3+0x28>
    4138:	00865693          	srli	a3,a2,0x8
    413c:	47a1                	li	a5,8
    413e:	00003717          	auipc	a4,0x3
    4142:	56670713          	addi	a4,a4,1382 # 76a4 <__clz_tab>
    4146:	9736                	add	a4,a4,a3
    4148:	00074703          	lbu	a4,0(a4)
    414c:	02000893          	li	a7,32
    4150:	97ba                	add	a5,a5,a4
    4152:	40f888b3          	sub	a7,a7,a5
    4156:	00088c63          	beqz	a7,416e <__umoddi3+0x58>
    415a:	011595b3          	sll	a1,a1,a7
    415e:	00f557b3          	srl	a5,a0,a5
    4162:	01161833          	sll	a6,a2,a7
    4166:	00b7ee33          	or	t3,a5,a1
    416a:	01151333          	sll	t1,a0,a7
    416e:	01085613          	srli	a2,a6,0x10
    4172:	02ce57b3          	divu	a5,t3,a2
    4176:	01081513          	slli	a0,a6,0x10
    417a:	8141                	srli	a0,a0,0x10
    417c:	01035693          	srli	a3,t1,0x10
    4180:	02ce7e33          	remu	t3,t3,a2
    4184:	02f507b3          	mul	a5,a0,a5
    4188:	0e42                	slli	t3,t3,0x10
    418a:	00de6733          	or	a4,t3,a3
    418e:	00f77863          	bgeu	a4,a5,419e <__umoddi3+0x88>
    4192:	9742                	add	a4,a4,a6
    4194:	01076563          	bltu	a4,a6,419e <__umoddi3+0x88>
    4198:	00f77363          	bgeu	a4,a5,419e <__umoddi3+0x88>
    419c:	9742                	add	a4,a4,a6
    419e:	8f1d                	sub	a4,a4,a5
    41a0:	02c756b3          	divu	a3,a4,a2
    41a4:	01031793          	slli	a5,t1,0x10
    41a8:	83c1                	srli	a5,a5,0x10
    41aa:	02c77733          	remu	a4,a4,a2
    41ae:	02d50533          	mul	a0,a0,a3
    41b2:	0742                	slli	a4,a4,0x10
    41b4:	8fd9                	or	a5,a5,a4
    41b6:	08a7ec63          	bltu	a5,a0,424e <__umoddi3+0x138>
    41ba:	40a78533          	sub	a0,a5,a0
    41be:	01155533          	srl	a0,a0,a7
    41c2:	4581                	li	a1,0
    41c4:	8082                	ret
    41c6:	e601                	bnez	a2,41ce <__umoddi3+0xb8>
    41c8:	4705                	li	a4,1
    41ca:	02c75833          	divu	a6,a4,a2
    41ce:	6741                	lui	a4,0x10
    41d0:	0ee86c63          	bltu	a6,a4,42c8 <__umoddi3+0x1b2>
    41d4:	010007b7          	lui	a5,0x1000
    41d8:	2af86563          	bltu	a6,a5,4482 <__umoddi3+0x36c>
    41dc:	01885693          	srli	a3,a6,0x18
    41e0:	47e1                	li	a5,24
    41e2:	00003717          	auipc	a4,0x3
    41e6:	4c270713          	addi	a4,a4,1218 # 76a4 <__clz_tab>
    41ea:	9736                	add	a4,a4,a3
    41ec:	00074703          	lbu	a4,0(a4)
    41f0:	02000893          	li	a7,32
    41f4:	97ba                	add	a5,a5,a4
    41f6:	40f888b3          	sub	a7,a7,a5
    41fa:	1e089a63          	bnez	a7,43ee <__umoddi3+0x2d8>
    41fe:	01081e13          	slli	t3,a6,0x10
    4202:	410585b3          	sub	a1,a1,a6
    4206:	01085613          	srli	a2,a6,0x10
    420a:	010e5e13          	srli	t3,t3,0x10
    420e:	01035713          	srli	a4,t1,0x10
    4212:	02c5d6b3          	divu	a3,a1,a2
    4216:	02c5f5b3          	remu	a1,a1,a2
    421a:	03c686b3          	mul	a3,a3,t3
    421e:	05c2                	slli	a1,a1,0x10
    4220:	8f4d                	or	a4,a4,a1
    4222:	00d77763          	bgeu	a4,a3,4230 <__umoddi3+0x11a>
    4226:	9742                	add	a4,a4,a6
    4228:	01076463          	bltu	a4,a6,4230 <__umoddi3+0x11a>
    422c:	26d76a63          	bltu	a4,a3,44a0 <__umoddi3+0x38a>
    4230:	8f15                	sub	a4,a4,a3
    4232:	02c75533          	divu	a0,a4,a2
    4236:	0342                	slli	t1,t1,0x10
    4238:	01035313          	srli	t1,t1,0x10
    423c:	02c77733          	remu	a4,a4,a2
    4240:	03c50533          	mul	a0,a0,t3
    4244:	0742                	slli	a4,a4,0x10
    4246:	006767b3          	or	a5,a4,t1
    424a:	00a7f863          	bgeu	a5,a0,425a <__umoddi3+0x144>
    424e:	97c2                	add	a5,a5,a6
    4250:	0107e563          	bltu	a5,a6,425a <__umoddi3+0x144>
    4254:	00a7f363          	bgeu	a5,a0,425a <__umoddi3+0x144>
    4258:	97c2                	add	a5,a5,a6
    425a:	40a78533          	sub	a0,a5,a0
    425e:	01155533          	srl	a0,a0,a7
    4262:	4581                	li	a1,0
    4264:	8082                	ret
    4266:	882a                	mv	a6,a0
    4268:	f4d5eee3          	bltu	a1,a3,41c4 <__umoddi3+0xae>
    426c:	67c1                	lui	a5,0x10
    426e:	04f6e563          	bltu	a3,a5,42b8 <__umoddi3+0x1a2>
    4272:	010007b7          	lui	a5,0x1000
    4276:	20f6e263          	bltu	a3,a5,447a <__umoddi3+0x364>
    427a:	0186d313          	srli	t1,a3,0x18
    427e:	48e1                	li	a7,24
    4280:	00003797          	auipc	a5,0x3
    4284:	42478793          	addi	a5,a5,1060 # 76a4 <__clz_tab>
    4288:	979a                	add	a5,a5,t1
    428a:	0007ce03          	lbu	t3,0(a5)
    428e:	02000313          	li	t1,32
    4292:	9e46                	add	t3,t3,a7
    4294:	41c30333          	sub	t1,t1,t3
    4298:	04031963          	bnez	t1,42ea <__umoddi3+0x1d4>
    429c:	00b6e463          	bltu	a3,a1,42a4 <__umoddi3+0x18e>
    42a0:	00c56963          	bltu	a0,a2,42b2 <__umoddi3+0x19c>
    42a4:	40c50833          	sub	a6,a0,a2
    42a8:	8d95                	sub	a1,a1,a3
    42aa:	01053733          	sltu	a4,a0,a6
    42ae:	40e58733          	sub	a4,a1,a4
    42b2:	8542                	mv	a0,a6
    42b4:	85ba                	mv	a1,a4
    42b6:	8082                	ret
    42b8:	0ff00793          	li	a5,255
    42bc:	1cd7fb63          	bgeu	a5,a3,4492 <__umoddi3+0x37c>
    42c0:	0086d313          	srli	t1,a3,0x8
    42c4:	48a1                	li	a7,8
    42c6:	bf6d                	j	4280 <__umoddi3+0x16a>
    42c8:	0ff00713          	li	a4,255
    42cc:	86c2                	mv	a3,a6
    42ce:	f1077ae3          	bgeu	a4,a6,41e2 <__umoddi3+0xcc>
    42d2:	00885693          	srli	a3,a6,0x8
    42d6:	47a1                	li	a5,8
    42d8:	b729                	j	41e2 <__umoddi3+0xcc>
    42da:	010007b7          	lui	a5,0x1000
    42de:	1af66663          	bltu	a2,a5,448a <__umoddi3+0x374>
    42e2:	01865693          	srli	a3,a2,0x18
    42e6:	47e1                	li	a5,24
    42e8:	bd99                	j	413e <__umoddi3+0x28>
    42ea:	01c657b3          	srl	a5,a2,t3
    42ee:	006696b3          	sll	a3,a3,t1
    42f2:	8edd                	or	a3,a3,a5
    42f4:	01c5d8b3          	srl	a7,a1,t3
    42f8:	0106d713          	srli	a4,a3,0x10
    42fc:	02e8deb3          	divu	t4,a7,a4
    4300:	01069f13          	slli	t5,a3,0x10
    4304:	01c557b3          	srl	a5,a0,t3
    4308:	010f5f13          	srli	t5,t5,0x10
    430c:	006595b3          	sll	a1,a1,t1
    4310:	8ddd                	or	a1,a1,a5
    4312:	0105d813          	srli	a6,a1,0x10
    4316:	00661633          	sll	a2,a2,t1
    431a:	00651533          	sll	a0,a0,t1
    431e:	02e8f8b3          	remu	a7,a7,a4
    4322:	03df07b3          	mul	a5,t5,t4
    4326:	08c2                	slli	a7,a7,0x10
    4328:	0108e833          	or	a6,a7,a6
    432c:	00f87b63          	bgeu	a6,a5,4342 <__umoddi3+0x22c>
    4330:	9836                	add	a6,a6,a3
    4332:	fffe8893          	addi	a7,t4,-1
    4336:	16d86363          	bltu	a6,a3,449c <__umoddi3+0x386>
    433a:	16f87163          	bgeu	a6,a5,449c <__umoddi3+0x386>
    433e:	1ef9                	addi	t4,t4,-2
    4340:	9836                	add	a6,a6,a3
    4342:	40f80833          	sub	a6,a6,a5
    4346:	02e857b3          	divu	a5,a6,a4
    434a:	05c2                	slli	a1,a1,0x10
    434c:	81c1                	srli	a1,a1,0x10
    434e:	02e87833          	remu	a6,a6,a4
    4352:	02ff0f33          	mul	t5,t5,a5
    4356:	01081713          	slli	a4,a6,0x10
    435a:	8f4d                	or	a4,a4,a1
    435c:	01e77b63          	bgeu	a4,t5,4372 <__umoddi3+0x25c>
    4360:	9736                	add	a4,a4,a3
    4362:	fff78593          	addi	a1,a5,-1 # ffffff <_data_lma+0xff885b>
    4366:	12d76963          	bltu	a4,a3,4498 <__umoddi3+0x382>
    436a:	13e77763          	bgeu	a4,t5,4498 <__umoddi3+0x382>
    436e:	17f9                	addi	a5,a5,-2
    4370:	9736                	add	a4,a4,a3
    4372:	0ec2                	slli	t4,t4,0x10
    4374:	62c1                	lui	t0,0x10
    4376:	00feeeb3          	or	t4,t4,a5
    437a:	fff28813          	addi	a6,t0,-1 # ffff <_data_lma+0x885b>
    437e:	010ef8b3          	and	a7,t4,a6
    4382:	01065593          	srli	a1,a2,0x10
    4386:	010ede93          	srli	t4,t4,0x10
    438a:	01067833          	and	a6,a2,a6
    438e:	03088fb3          	mul	t6,a7,a6
    4392:	41e70733          	sub	a4,a4,t5
    4396:	030e8833          	mul	a6,t4,a6
    439a:	010fd793          	srli	a5,t6,0x10
    439e:	02b888b3          	mul	a7,a7,a1
    43a2:	98c2                	add	a7,a7,a6
    43a4:	97c6                	add	a5,a5,a7
    43a6:	02be8eb3          	mul	t4,t4,a1
    43aa:	0107f363          	bgeu	a5,a6,43b0 <__umoddi3+0x29a>
    43ae:	9e96                	add	t4,t4,t0
    43b0:	6841                	lui	a6,0x10
    43b2:	187d                	addi	a6,a6,-1
    43b4:	0107d593          	srli	a1,a5,0x10
    43b8:	0107f7b3          	and	a5,a5,a6
    43bc:	07c2                	slli	a5,a5,0x10
    43be:	010fffb3          	and	t6,t6,a6
    43c2:	95f6                	add	a1,a1,t4
    43c4:	97fe                	add	a5,a5,t6
    43c6:	0ab76263          	bltu	a4,a1,446a <__umoddi3+0x354>
    43ca:	08b70e63          	beq	a4,a1,4466 <__umoddi3+0x350>
    43ce:	40f507b3          	sub	a5,a0,a5
    43d2:	00f53533          	sltu	a0,a0,a5
    43d6:	40b705b3          	sub	a1,a4,a1
    43da:	8d89                	sub	a1,a1,a0
    43dc:	01c59e33          	sll	t3,a1,t3
    43e0:	0067d533          	srl	a0,a5,t1
    43e4:	00ae6533          	or	a0,t3,a0
    43e8:	0065d5b3          	srl	a1,a1,t1
    43ec:	8082                	ret
    43ee:	01181833          	sll	a6,a6,a7
    43f2:	00f5d733          	srl	a4,a1,a5
    43f6:	01085613          	srli	a2,a6,0x10
    43fa:	02c756b3          	divu	a3,a4,a2
    43fe:	01081e13          	slli	t3,a6,0x10
    4402:	00f557b3          	srl	a5,a0,a5
    4406:	010e5e13          	srli	t3,t3,0x10
    440a:	011595b3          	sll	a1,a1,a7
    440e:	8ddd                	or	a1,a1,a5
    4410:	0105de93          	srli	t4,a1,0x10
    4414:	01151333          	sll	t1,a0,a7
    4418:	02c77733          	remu	a4,a4,a2
    441c:	02de07b3          	mul	a5,t3,a3
    4420:	01071693          	slli	a3,a4,0x10
    4424:	01d6e6b3          	or	a3,a3,t4
    4428:	00f6f863          	bgeu	a3,a5,4438 <__umoddi3+0x322>
    442c:	96c2                	add	a3,a3,a6
    442e:	0106e563          	bltu	a3,a6,4438 <__umoddi3+0x322>
    4432:	00f6f363          	bgeu	a3,a5,4438 <__umoddi3+0x322>
    4436:	96c2                	add	a3,a3,a6
    4438:	8e9d                	sub	a3,a3,a5
    443a:	02c6d733          	divu	a4,a3,a2
    443e:	01059793          	slli	a5,a1,0x10
    4442:	83c1                	srli	a5,a5,0x10
    4444:	02c6f6b3          	remu	a3,a3,a2
    4448:	02ee0733          	mul	a4,t3,a4
    444c:	01069593          	slli	a1,a3,0x10
    4450:	8ddd                	or	a1,a1,a5
    4452:	00e5f863          	bgeu	a1,a4,4462 <__umoddi3+0x34c>
    4456:	95c2                	add	a1,a1,a6
    4458:	0105e563          	bltu	a1,a6,4462 <__umoddi3+0x34c>
    445c:	00e5f363          	bgeu	a1,a4,4462 <__umoddi3+0x34c>
    4460:	95c2                	add	a1,a1,a6
    4462:	8d99                	sub	a1,a1,a4
    4464:	b36d                	j	420e <__umoddi3+0xf8>
    4466:	f6f574e3          	bgeu	a0,a5,43ce <__umoddi3+0x2b8>
    446a:	40c78633          	sub	a2,a5,a2
    446e:	00c7b7b3          	sltu	a5,a5,a2
    4472:	97b6                	add	a5,a5,a3
    4474:	8d9d                	sub	a1,a1,a5
    4476:	87b2                	mv	a5,a2
    4478:	bf99                	j	43ce <__umoddi3+0x2b8>
    447a:	0106d313          	srli	t1,a3,0x10
    447e:	48c1                	li	a7,16
    4480:	b501                	j	4280 <__umoddi3+0x16a>
    4482:	01085693          	srli	a3,a6,0x10
    4486:	47c1                	li	a5,16
    4488:	bba9                	j	41e2 <__umoddi3+0xcc>
    448a:	01065693          	srli	a3,a2,0x10
    448e:	47c1                	li	a5,16
    4490:	b17d                	j	413e <__umoddi3+0x28>
    4492:	8336                	mv	t1,a3
    4494:	4881                	li	a7,0
    4496:	b3ed                	j	4280 <__umoddi3+0x16a>
    4498:	87ae                	mv	a5,a1
    449a:	bde1                	j	4372 <__umoddi3+0x25c>
    449c:	8ec6                	mv	t4,a7
    449e:	b555                	j	4342 <__umoddi3+0x22c>
    44a0:	9742                	add	a4,a4,a6
    44a2:	b379                	j	4230 <__umoddi3+0x11a>

000044a4 <__adddf3>:
    44a4:	00100837          	lui	a6,0x100
    44a8:	1101                	addi	sp,sp,-32
    44aa:	187d                	addi	a6,a6,-1
    44ac:	00b87733          	and	a4,a6,a1
    44b0:	ca26                	sw	s1,20(sp)
    44b2:	00d87833          	and	a6,a6,a3
    44b6:	0145d493          	srli	s1,a1,0x14
    44ba:	0146d313          	srli	t1,a3,0x14
    44be:	00371e13          	slli	t3,a4,0x3
    44c2:	c64e                	sw	s3,12(sp)
    44c4:	01d55713          	srli	a4,a0,0x1d
    44c8:	080e                	slli	a6,a6,0x3
    44ca:	01d65793          	srli	a5,a2,0x1d
    44ce:	7ff4f493          	andi	s1,s1,2047
    44d2:	7ff37313          	andi	t1,t1,2047
    44d6:	ce06                	sw	ra,28(sp)
    44d8:	cc22                	sw	s0,24(sp)
    44da:	c84a                	sw	s2,16(sp)
    44dc:	01f5d993          	srli	s3,a1,0x1f
    44e0:	01f6de93          	srli	t4,a3,0x1f
    44e4:	01c76733          	or	a4,a4,t3
    44e8:	00351f13          	slli	t5,a0,0x3
    44ec:	0107e833          	or	a6,a5,a6
    44f0:	00361f93          	slli	t6,a2,0x3
    44f4:	40648e33          	sub	t3,s1,t1
    44f8:	19d98063          	beq	s3,t4,4678 <__adddf3+0x1d4>
    44fc:	13c05663          	blez	t3,4628 <__adddf3+0x184>
    4500:	1c030463          	beqz	t1,46c8 <__adddf3+0x224>
    4504:	008006b7          	lui	a3,0x800
    4508:	7ff00793          	li	a5,2047
    450c:	00d86833          	or	a6,a6,a3
    4510:	36f48f63          	beq	s1,a5,488e <__adddf3+0x3ea>
    4514:	03800793          	li	a5,56
    4518:	35c7c063          	blt	a5,t3,4858 <__adddf3+0x3b4>
    451c:	47fd                	li	a5,31
    451e:	47c7cd63          	blt	a5,t3,4998 <__adddf3+0x4f4>
    4522:	02000513          	li	a0,32
    4526:	41c50533          	sub	a0,a0,t3
    452a:	01cfd7b3          	srl	a5,t6,t3
    452e:	00a816b3          	sll	a3,a6,a0
    4532:	00af9933          	sll	s2,t6,a0
    4536:	8edd                	or	a3,a3,a5
    4538:	01203933          	snez	s2,s2
    453c:	01c857b3          	srl	a5,a6,t3
    4540:	0126e933          	or	s2,a3,s2
    4544:	8f1d                	sub	a4,a4,a5
    4546:	412f0933          	sub	s2,t5,s2
    454a:	012f37b3          	sltu	a5,t5,s2
    454e:	40f70633          	sub	a2,a4,a5
    4552:	00861793          	slli	a5,a2,0x8
    4556:	2407d463          	bgez	a5,479e <__adddf3+0x2fa>
    455a:	00800737          	lui	a4,0x800
    455e:	177d                	addi	a4,a4,-1
    4560:	00e67433          	and	s0,a2,a4
    4564:	2c040c63          	beqz	s0,483c <__adddf3+0x398>
    4568:	8522                	mv	a0,s0
    456a:	3a0020ef          	jal	ra,690a <__clzsi2>
    456e:	ff850713          	addi	a4,a0,-8
    4572:	02000793          	li	a5,32
    4576:	8f99                	sub	a5,a5,a4
    4578:	00f957b3          	srl	a5,s2,a5
    457c:	00e41633          	sll	a2,s0,a4
    4580:	8fd1                	or	a5,a5,a2
    4582:	00e91933          	sll	s2,s2,a4
    4586:	2a974163          	blt	a4,s1,4828 <__adddf3+0x384>
    458a:	40970533          	sub	a0,a4,s1
    458e:	00150613          	addi	a2,a0,1
    4592:	477d                	li	a4,31
    4594:	38c74d63          	blt	a4,a2,492e <__adddf3+0x48a>
    4598:	02000713          	li	a4,32
    459c:	8f11                	sub	a4,a4,a2
    459e:	00c956b3          	srl	a3,s2,a2
    45a2:	00e91933          	sll	s2,s2,a4
    45a6:	00e79733          	sll	a4,a5,a4
    45aa:	8f55                	or	a4,a4,a3
    45ac:	01203933          	snez	s2,s2
    45b0:	01276933          	or	s2,a4,s2
    45b4:	00c7d633          	srl	a2,a5,a2
    45b8:	4481                	li	s1,0
    45ba:	00797793          	andi	a5,s2,7
    45be:	cf81                	beqz	a5,45d6 <__adddf3+0x132>
    45c0:	00f97713          	andi	a4,s2,15
    45c4:	4791                	li	a5,4
    45c6:	00f70863          	beq	a4,a5,45d6 <__adddf3+0x132>
    45ca:	00490713          	addi	a4,s2,4
    45ce:	01273933          	sltu	s2,a4,s2
    45d2:	964a                	add	a2,a2,s2
    45d4:	893a                	mv	s2,a4
    45d6:	00861793          	slli	a5,a2,0x8
    45da:	1c07d663          	bgez	a5,47a6 <__adddf3+0x302>
    45de:	00148513          	addi	a0,s1,1
    45e2:	7ff00793          	li	a5,2047
    45e6:	85ce                	mv	a1,s3
    45e8:	20f50463          	beq	a0,a5,47f0 <__adddf3+0x34c>
    45ec:	ff8007b7          	lui	a5,0xff800
    45f0:	17fd                	addi	a5,a5,-1
    45f2:	8ff1                	and	a5,a5,a2
    45f4:	01d79893          	slli	a7,a5,0x1d
    45f8:	00395913          	srli	s2,s2,0x3
    45fc:	07a6                	slli	a5,a5,0x9
    45fe:	0128e8b3          	or	a7,a7,s2
    4602:	83b1                	srli	a5,a5,0xc
    4604:	7ff57513          	andi	a0,a0,2047
    4608:	00c79693          	slli	a3,a5,0xc
    460c:	0552                	slli	a0,a0,0x14
    460e:	40f2                	lw	ra,28(sp)
    4610:	4462                	lw	s0,24(sp)
    4612:	82b1                	srli	a3,a3,0xc
    4614:	05fe                	slli	a1,a1,0x1f
    4616:	8ec9                	or	a3,a3,a0
    4618:	8ecd                	or	a3,a3,a1
    461a:	44d2                	lw	s1,20(sp)
    461c:	4942                	lw	s2,16(sp)
    461e:	49b2                	lw	s3,12(sp)
    4620:	8546                	mv	a0,a7
    4622:	85b6                	mv	a1,a3
    4624:	6105                	addi	sp,sp,32
    4626:	8082                	ret
    4628:	0a0e1e63          	bnez	t3,46e4 <__adddf3+0x240>
    462c:	00148313          	addi	t1,s1,1
    4630:	7fe37313          	andi	t1,t1,2046
    4634:	22031763          	bnez	t1,4862 <__adddf3+0x3be>
    4638:	01e767b3          	or	a5,a4,t5
    463c:	01f868b3          	or	a7,a6,t6
    4640:	1a049d63          	bnez	s1,47fa <__adddf3+0x356>
    4644:	40078763          	beqz	a5,4a52 <__adddf3+0x5ae>
    4648:	44088663          	beqz	a7,4a94 <__adddf3+0x5f0>
    464c:	41ff0933          	sub	s2,t5,t6
    4650:	410707b3          	sub	a5,a4,a6
    4654:	012f3633          	sltu	a2,t5,s2
    4658:	40c78633          	sub	a2,a5,a2
    465c:	00861793          	slli	a5,a2,0x8
    4660:	4c07d663          	bgez	a5,4b2c <__adddf3+0x688>
    4664:	41ef8933          	sub	s2,t6,t5
    4668:	40e807b3          	sub	a5,a6,a4
    466c:	012fb633          	sltu	a2,t6,s2
    4670:	40c78633          	sub	a2,a5,a2
    4674:	89f6                	mv	s3,t4
    4676:	b791                	j	45ba <__adddf3+0x116>
    4678:	0fc05063          	blez	t3,4758 <__adddf3+0x2b4>
    467c:	0c030063          	beqz	t1,473c <__adddf3+0x298>
    4680:	008006b7          	lui	a3,0x800
    4684:	7ff00793          	li	a5,2047
    4688:	00d86833          	or	a6,a6,a3
    468c:	3af48a63          	beq	s1,a5,4a40 <__adddf3+0x59c>
    4690:	03800793          	li	a5,56
    4694:	13c7cb63          	blt	a5,t3,47ca <__adddf3+0x326>
    4698:	47fd                	li	a5,31
    469a:	35c7df63          	bge	a5,t3,49f8 <__adddf3+0x554>
    469e:	fe0e0913          	addi	s2,t3,-32
    46a2:	02000793          	li	a5,32
    46a6:	012856b3          	srl	a3,a6,s2
    46aa:	00fe0a63          	beq	t3,a5,46be <__adddf3+0x21a>
    46ae:	04000913          	li	s2,64
    46b2:	41c90933          	sub	s2,s2,t3
    46b6:	01281933          	sll	s2,a6,s2
    46ba:	012fefb3          	or	t6,t6,s2
    46be:	01f03933          	snez	s2,t6
    46c2:	00d96933          	or	s2,s2,a3
    46c6:	a231                	j	47d2 <__adddf3+0x32e>
    46c8:	01f867b3          	or	a5,a6,t6
    46cc:	1c078a63          	beqz	a5,48a0 <__adddf3+0x3fc>
    46d0:	fffe0793          	addi	a5,t3,-1
    46d4:	38078c63          	beqz	a5,4a6c <__adddf3+0x5c8>
    46d8:	7ff00693          	li	a3,2047
    46dc:	1ade0963          	beq	t3,a3,488e <__adddf3+0x3ea>
    46e0:	8e3e                	mv	t3,a5
    46e2:	bd0d                	j	4514 <__adddf3+0x70>
    46e4:	409305b3          	sub	a1,t1,s1
    46e8:	22049163          	bnez	s1,490a <__adddf3+0x466>
    46ec:	01e767b3          	or	a5,a4,t5
    46f0:	32078763          	beqz	a5,4a1e <__adddf3+0x57a>
    46f4:	fff58793          	addi	a5,a1,-1
    46f8:	44078163          	beqz	a5,4b3a <__adddf3+0x696>
    46fc:	7ff00693          	li	a3,2047
    4700:	20d58c63          	beq	a1,a3,4918 <__adddf3+0x474>
    4704:	85be                	mv	a1,a5
    4706:	03800793          	li	a5,56
    470a:	2ab7cc63          	blt	a5,a1,49c2 <__adddf3+0x51e>
    470e:	47fd                	li	a5,31
    4710:	3cb7cf63          	blt	a5,a1,4aee <__adddf3+0x64a>
    4714:	02000793          	li	a5,32
    4718:	8f8d                	sub	a5,a5,a1
    471a:	00f71933          	sll	s2,a4,a5
    471e:	00bf56b3          	srl	a3,t5,a1
    4722:	00ff17b3          	sll	a5,t5,a5
    4726:	00d96933          	or	s2,s2,a3
    472a:	00f037b3          	snez	a5,a5
    472e:	00b75733          	srl	a4,a4,a1
    4732:	00f96933          	or	s2,s2,a5
    4736:	40e80833          	sub	a6,a6,a4
    473a:	ac41                	j	49ca <__adddf3+0x526>
    473c:	01f867b3          	or	a5,a6,t6
    4740:	34078063          	beqz	a5,4a80 <__adddf3+0x5dc>
    4744:	fffe0793          	addi	a5,t3,-1
    4748:	20078a63          	beqz	a5,495c <__adddf3+0x4b8>
    474c:	7ff00693          	li	a3,2047
    4750:	2ede0863          	beq	t3,a3,4a40 <__adddf3+0x59c>
    4754:	8e3e                	mv	t3,a5
    4756:	bf2d                	j	4690 <__adddf3+0x1ec>
    4758:	140e1e63          	bnez	t3,48b4 <__adddf3+0x410>
    475c:	00148693          	addi	a3,s1,1
    4760:	7fe6f793          	andi	a5,a3,2046
    4764:	34079163          	bnez	a5,4aa6 <__adddf3+0x602>
    4768:	01e767b3          	or	a5,a4,t5
    476c:	2c049563          	bnez	s1,4a36 <__adddf3+0x592>
    4770:	3e078063          	beqz	a5,4b50 <__adddf3+0x6ac>
    4774:	01f867b3          	or	a5,a6,t6
    4778:	30078e63          	beqz	a5,4a94 <__adddf3+0x5f0>
    477c:	01ff0933          	add	s2,t5,t6
    4780:	010707b3          	add	a5,a4,a6
    4784:	01e93f33          	sltu	t5,s2,t5
    4788:	01e78633          	add	a2,a5,t5
    478c:	00861793          	slli	a5,a2,0x8
    4790:	0007d763          	bgez	a5,479e <__adddf3+0x2fa>
    4794:	ff8007b7          	lui	a5,0xff800
    4798:	17fd                	addi	a5,a5,-1
    479a:	8e7d                	and	a2,a2,a5
    479c:	4485                	li	s1,1
    479e:	00797793          	andi	a5,s2,7
    47a2:	e0079fe3          	bnez	a5,45c0 <__adddf3+0x11c>
    47a6:	01d61793          	slli	a5,a2,0x1d
    47aa:	00395893          	srli	a7,s2,0x3
    47ae:	00f8e8b3          	or	a7,a7,a5
    47b2:	00365793          	srli	a5,a2,0x3
    47b6:	7ff00713          	li	a4,2047
    47ba:	04e48d63          	beq	s1,a4,4814 <__adddf3+0x370>
    47be:	07b2                	slli	a5,a5,0xc
    47c0:	83b1                	srli	a5,a5,0xc
    47c2:	7ff4f513          	andi	a0,s1,2047
    47c6:	85ce                	mv	a1,s3
    47c8:	b581                	j	4608 <__adddf3+0x164>
    47ca:	01f86933          	or	s2,a6,t6
    47ce:	01203933          	snez	s2,s2
    47d2:	997a                	add	s2,s2,t5
    47d4:	01e937b3          	sltu	a5,s2,t5
    47d8:	00e78633          	add	a2,a5,a4
    47dc:	00861793          	slli	a5,a2,0x8
    47e0:	fa07dfe3          	bgez	a5,479e <__adddf3+0x2fa>
    47e4:	0485                	addi	s1,s1,1
    47e6:	7ff00793          	li	a5,2047
    47ea:	18f49663          	bne	s1,a5,4976 <__adddf3+0x4d2>
    47ee:	85ce                	mv	a1,s3
    47f0:	7ff00513          	li	a0,2047
    47f4:	4781                	li	a5,0
    47f6:	4881                	li	a7,0
    47f8:	bd01                	j	4608 <__adddf3+0x164>
    47fa:	ebc1                	bnez	a5,488a <__adddf3+0x3e6>
    47fc:	3a088463          	beqz	a7,4ba4 <__adddf3+0x700>
    4800:	00361693          	slli	a3,a2,0x3
    4804:	01d81793          	slli	a5,a6,0x1d
    4808:	828d                	srli	a3,a3,0x3
    480a:	00d7e8b3          	or	a7,a5,a3
    480e:	89f6                	mv	s3,t4
    4810:	00385793          	srli	a5,a6,0x3
    4814:	00f8e7b3          	or	a5,a7,a5
    4818:	dbf9                	beqz	a5,47ee <__adddf3+0x34a>
    481a:	4581                	li	a1,0
    481c:	7ff00513          	li	a0,2047
    4820:	000807b7          	lui	a5,0x80
    4824:	4881                	li	a7,0
    4826:	b3cd                	j	4608 <__adddf3+0x164>
    4828:	ff800637          	lui	a2,0xff800
    482c:	167d                	addi	a2,a2,-1
    482e:	8e7d                	and	a2,a2,a5
    4830:	00797793          	andi	a5,s2,7
    4834:	8c99                	sub	s1,s1,a4
    4836:	d80795e3          	bnez	a5,45c0 <__adddf3+0x11c>
    483a:	b7b5                	j	47a6 <__adddf3+0x302>
    483c:	854a                	mv	a0,s2
    483e:	0cc020ef          	jal	ra,690a <__clzsi2>
    4842:	01850713          	addi	a4,a0,24
    4846:	47fd                	li	a5,31
    4848:	d2e7d5e3          	bge	a5,a4,4572 <__adddf3+0xce>
    484c:	ff850613          	addi	a2,a0,-8
    4850:	00c917b3          	sll	a5,s2,a2
    4854:	4901                	li	s2,0
    4856:	bb05                	j	4586 <__adddf3+0xe2>
    4858:	01f86933          	or	s2,a6,t6
    485c:	01203933          	snez	s2,s2
    4860:	b1dd                	j	4546 <__adddf3+0xa2>
    4862:	41ff0933          	sub	s2,t5,t6
    4866:	41070633          	sub	a2,a4,a6
    486a:	012f3433          	sltu	s0,t5,s2
    486e:	40860433          	sub	s0,a2,s0
    4872:	00841793          	slli	a5,s0,0x8
    4876:	2407cd63          	bltz	a5,4ad0 <__adddf3+0x62c>
    487a:	008968b3          	or	a7,s2,s0
    487e:	ce0893e3          	bnez	a7,4564 <__adddf3+0xc0>
    4882:	4781                	li	a5,0
    4884:	4981                	li	s3,0
    4886:	4481                	li	s1,0
    4888:	bf1d                	j	47be <__adddf3+0x31a>
    488a:	f80898e3          	bnez	a7,481a <__adddf3+0x376>
    488e:	050e                	slli	a0,a0,0x3
    4890:	01d71793          	slli	a5,a4,0x1d
    4894:	810d                	srli	a0,a0,0x3
    4896:	00a7e8b3          	or	a7,a5,a0
    489a:	00375793          	srli	a5,a4,0x3
    489e:	bf9d                	j	4814 <__adddf3+0x370>
    48a0:	050e                	slli	a0,a0,0x3
    48a2:	01d71793          	slli	a5,a4,0x1d
    48a6:	810d                	srli	a0,a0,0x3
    48a8:	00a7e8b3          	or	a7,a5,a0
    48ac:	84f2                	mv	s1,t3
    48ae:	00375793          	srli	a5,a4,0x3
    48b2:	b711                	j	47b6 <__adddf3+0x312>
    48b4:	40930533          	sub	a0,t1,s1
    48b8:	12048263          	beqz	s1,49dc <__adddf3+0x538>
    48bc:	008006b7          	lui	a3,0x800
    48c0:	7ff00793          	li	a5,2047
    48c4:	8f55                	or	a4,a4,a3
    48c6:	2ef30d63          	beq	t1,a5,4bc0 <__adddf3+0x71c>
    48ca:	03800793          	li	a5,56
    48ce:	20a7cb63          	blt	a5,a0,4ae4 <__adddf3+0x640>
    48d2:	47fd                	li	a5,31
    48d4:	2aa7c363          	blt	a5,a0,4b7a <__adddf3+0x6d6>
    48d8:	02000793          	li	a5,32
    48dc:	8f89                	sub	a5,a5,a0
    48de:	00f71933          	sll	s2,a4,a5
    48e2:	00af56b3          	srl	a3,t5,a0
    48e6:	00ff17b3          	sll	a5,t5,a5
    48ea:	00d96933          	or	s2,s2,a3
    48ee:	00f037b3          	snez	a5,a5
    48f2:	00a75733          	srl	a4,a4,a0
    48f6:	00f96933          	or	s2,s2,a5
    48fa:	983a                	add	a6,a6,a4
    48fc:	997e                	add	s2,s2,t6
    48fe:	01f937b3          	sltu	a5,s2,t6
    4902:	01078633          	add	a2,a5,a6
    4906:	849a                	mv	s1,t1
    4908:	bdd1                	j	47dc <__adddf3+0x338>
    490a:	008006b7          	lui	a3,0x800
    490e:	7ff00793          	li	a5,2047
    4912:	8f55                	or	a4,a4,a3
    4914:	def319e3          	bne	t1,a5,4706 <__adddf3+0x262>
    4918:	00361793          	slli	a5,a2,0x3
    491c:	838d                	srli	a5,a5,0x3
    491e:	01d81893          	slli	a7,a6,0x1d
    4922:	0117e8b3          	or	a7,a5,a7
    4926:	89f6                	mv	s3,t4
    4928:	00385793          	srli	a5,a6,0x3
    492c:	b5e5                	j	4814 <__adddf3+0x370>
    492e:	fe150713          	addi	a4,a0,-31
    4932:	02000693          	li	a3,32
    4936:	00e7d733          	srl	a4,a5,a4
    493a:	00d60a63          	beq	a2,a3,494e <__adddf3+0x4aa>
    493e:	04000693          	li	a3,64
    4942:	40c68633          	sub	a2,a3,a2
    4946:	00c79633          	sll	a2,a5,a2
    494a:	00c96933          	or	s2,s2,a2
    494e:	01203933          	snez	s2,s2
    4952:	00e96933          	or	s2,s2,a4
    4956:	4601                	li	a2,0
    4958:	4481                	li	s1,0
    495a:	b591                	j	479e <__adddf3+0x2fa>
    495c:	01ff0933          	add	s2,t5,t6
    4960:	010707b3          	add	a5,a4,a6
    4964:	01e93633          	sltu	a2,s2,t5
    4968:	963e                	add	a2,a2,a5
    496a:	00861793          	slli	a5,a2,0x8
    496e:	4485                	li	s1,1
    4970:	e207d7e3          	bgez	a5,479e <__adddf3+0x2fa>
    4974:	4489                	li	s1,2
    4976:	ff8007b7          	lui	a5,0xff800
    497a:	17fd                	addi	a5,a5,-1
    497c:	8ff1                	and	a5,a5,a2
    497e:	00195713          	srli	a4,s2,0x1
    4982:	00197913          	andi	s2,s2,1
    4986:	01276933          	or	s2,a4,s2
    498a:	01f79893          	slli	a7,a5,0x1f
    498e:	0128e933          	or	s2,a7,s2
    4992:	0017d613          	srli	a2,a5,0x1
    4996:	b115                	j	45ba <__adddf3+0x116>
    4998:	fe0e0913          	addi	s2,t3,-32
    499c:	02000793          	li	a5,32
    49a0:	012856b3          	srl	a3,a6,s2
    49a4:	00fe0a63          	beq	t3,a5,49b8 <__adddf3+0x514>
    49a8:	04000913          	li	s2,64
    49ac:	41c90933          	sub	s2,s2,t3
    49b0:	01281933          	sll	s2,a6,s2
    49b4:	012fefb3          	or	t6,t6,s2
    49b8:	01f03933          	snez	s2,t6
    49bc:	00d96933          	or	s2,s2,a3
    49c0:	b659                	j	4546 <__adddf3+0xa2>
    49c2:	01e76933          	or	s2,a4,t5
    49c6:	01203933          	snez	s2,s2
    49ca:	412f8933          	sub	s2,t6,s2
    49ce:	012fb7b3          	sltu	a5,t6,s2
    49d2:	40f80633          	sub	a2,a6,a5
    49d6:	849a                	mv	s1,t1
    49d8:	89f6                	mv	s3,t4
    49da:	bea5                	j	4552 <__adddf3+0xae>
    49dc:	01e767b3          	or	a5,a4,t5
    49e0:	18078263          	beqz	a5,4b64 <__adddf3+0x6c0>
    49e4:	fff50793          	addi	a5,a0,-1
    49e8:	1c078463          	beqz	a5,4bb0 <__adddf3+0x70c>
    49ec:	7ff00693          	li	a3,2047
    49f0:	12d50463          	beq	a0,a3,4b18 <__adddf3+0x674>
    49f4:	853e                	mv	a0,a5
    49f6:	bdd1                	j	48ca <__adddf3+0x426>
    49f8:	02000793          	li	a5,32
    49fc:	41c787b3          	sub	a5,a5,t3
    4a00:	00f816b3          	sll	a3,a6,a5
    4a04:	00ff9933          	sll	s2,t6,a5
    4a08:	01cfd633          	srl	a2,t6,t3
    4a0c:	8ed1                	or	a3,a3,a2
    4a0e:	01203933          	snez	s2,s2
    4a12:	01c857b3          	srl	a5,a6,t3
    4a16:	0126e933          	or	s2,a3,s2
    4a1a:	973e                	add	a4,a4,a5
    4a1c:	bb5d                	j	47d2 <__adddf3+0x32e>
    4a1e:	00361793          	slli	a5,a2,0x3
    4a22:	838d                	srli	a5,a5,0x3
    4a24:	01d81893          	slli	a7,a6,0x1d
    4a28:	0117e8b3          	or	a7,a5,a7
    4a2c:	84ae                	mv	s1,a1
    4a2e:	00385793          	srli	a5,a6,0x3
    4a32:	89f6                	mv	s3,t4
    4a34:	b349                	j	47b6 <__adddf3+0x312>
    4a36:	c3ed                	beqz	a5,4b18 <__adddf3+0x674>
    4a38:	01f86933          	or	s2,a6,t6
    4a3c:	dc091fe3          	bnez	s2,481a <__adddf3+0x376>
    4a40:	050e                	slli	a0,a0,0x3
    4a42:	01d71793          	slli	a5,a4,0x1d
    4a46:	810d                	srli	a0,a0,0x3
    4a48:	00f568b3          	or	a7,a0,a5
    4a4c:	00375793          	srli	a5,a4,0x3
    4a50:	b3d1                	j	4814 <__adddf3+0x370>
    4a52:	0e088163          	beqz	a7,4b34 <__adddf3+0x690>
    4a56:	00361693          	slli	a3,a2,0x3
    4a5a:	01d81793          	slli	a5,a6,0x1d
    4a5e:	828d                	srli	a3,a3,0x3
    4a60:	00d7e8b3          	or	a7,a5,a3
    4a64:	89f6                	mv	s3,t4
    4a66:	00385793          	srli	a5,a6,0x3
    4a6a:	bb91                	j	47be <__adddf3+0x31a>
    4a6c:	41ff0933          	sub	s2,t5,t6
    4a70:	410707b3          	sub	a5,a4,a6
    4a74:	012f3f33          	sltu	t5,t5,s2
    4a78:	41e78633          	sub	a2,a5,t5
    4a7c:	4485                	li	s1,1
    4a7e:	bcd1                	j	4552 <__adddf3+0xae>
    4a80:	050e                	slli	a0,a0,0x3
    4a82:	01d71793          	slli	a5,a4,0x1d
    4a86:	810d                	srli	a0,a0,0x3
    4a88:	00f568b3          	or	a7,a0,a5
    4a8c:	84f2                	mv	s1,t3
    4a8e:	00375793          	srli	a5,a4,0x3
    4a92:	b315                	j	47b6 <__adddf3+0x312>
    4a94:	050e                	slli	a0,a0,0x3
    4a96:	01d71793          	slli	a5,a4,0x1d
    4a9a:	810d                	srli	a0,a0,0x3
    4a9c:	00a7e8b3          	or	a7,a5,a0
    4aa0:	00375793          	srli	a5,a4,0x3
    4aa4:	bb29                	j	47be <__adddf3+0x31a>
    4aa6:	7ff00793          	li	a5,2047
    4aaa:	d4f682e3          	beq	a3,a5,47ee <__adddf3+0x34a>
    4aae:	01ff0933          	add	s2,t5,t6
    4ab2:	01e93633          	sltu	a2,s2,t5
    4ab6:	010707b3          	add	a5,a4,a6
    4aba:	97b2                	add	a5,a5,a2
    4abc:	01f79893          	slli	a7,a5,0x1f
    4ac0:	00195913          	srli	s2,s2,0x1
    4ac4:	0128e933          	or	s2,a7,s2
    4ac8:	0017d613          	srli	a2,a5,0x1
    4acc:	84b6                	mv	s1,a3
    4ace:	b9c1                	j	479e <__adddf3+0x2fa>
    4ad0:	41ef8933          	sub	s2,t6,t5
    4ad4:	40e80733          	sub	a4,a6,a4
    4ad8:	012fb633          	sltu	a2,t6,s2
    4adc:	40c70433          	sub	s0,a4,a2
    4ae0:	89f6                	mv	s3,t4
    4ae2:	b449                	j	4564 <__adddf3+0xc0>
    4ae4:	01e76933          	or	s2,a4,t5
    4ae8:	01203933          	snez	s2,s2
    4aec:	bd01                	j	48fc <__adddf3+0x458>
    4aee:	fe058793          	addi	a5,a1,-32
    4af2:	02000693          	li	a3,32
    4af6:	00f757b3          	srl	a5,a4,a5
    4afa:	00d58a63          	beq	a1,a3,4b0e <__adddf3+0x66a>
    4afe:	04000693          	li	a3,64
    4b02:	40b685b3          	sub	a1,a3,a1
    4b06:	00b71733          	sll	a4,a4,a1
    4b0a:	00ef6f33          	or	t5,t5,a4
    4b0e:	01e03933          	snez	s2,t5
    4b12:	00f96933          	or	s2,s2,a5
    4b16:	bd55                	j	49ca <__adddf3+0x526>
    4b18:	00361793          	slli	a5,a2,0x3
    4b1c:	838d                	srli	a5,a5,0x3
    4b1e:	01d81893          	slli	a7,a6,0x1d
    4b22:	0117e8b3          	or	a7,a5,a7
    4b26:	00385793          	srli	a5,a6,0x3
    4b2a:	b1ed                	j	4814 <__adddf3+0x370>
    4b2c:	00c968b3          	or	a7,s2,a2
    4b30:	c60897e3          	bnez	a7,479e <__adddf3+0x2fa>
    4b34:	4781                	li	a5,0
    4b36:	4981                	li	s3,0
    4b38:	b159                	j	47be <__adddf3+0x31a>
    4b3a:	41ef8933          	sub	s2,t6,t5
    4b3e:	40e807b3          	sub	a5,a6,a4
    4b42:	012fb633          	sltu	a2,t6,s2
    4b46:	40c78633          	sub	a2,a5,a2
    4b4a:	89f6                	mv	s3,t4
    4b4c:	4485                	li	s1,1
    4b4e:	b411                	j	4552 <__adddf3+0xae>
    4b50:	00361693          	slli	a3,a2,0x3
    4b54:	01d81793          	slli	a5,a6,0x1d
    4b58:	828d                	srli	a3,a3,0x3
    4b5a:	00d7e8b3          	or	a7,a5,a3
    4b5e:	00385793          	srli	a5,a6,0x3
    4b62:	b9b1                	j	47be <__adddf3+0x31a>
    4b64:	00361693          	slli	a3,a2,0x3
    4b68:	01d81793          	slli	a5,a6,0x1d
    4b6c:	828d                	srli	a3,a3,0x3
    4b6e:	00d7e8b3          	or	a7,a5,a3
    4b72:	84aa                	mv	s1,a0
    4b74:	00385793          	srli	a5,a6,0x3
    4b78:	b93d                	j	47b6 <__adddf3+0x312>
    4b7a:	fe050793          	addi	a5,a0,-32
    4b7e:	02000693          	li	a3,32
    4b82:	00f757b3          	srl	a5,a4,a5
    4b86:	00d50a63          	beq	a0,a3,4b9a <__adddf3+0x6f6>
    4b8a:	04000693          	li	a3,64
    4b8e:	40a68533          	sub	a0,a3,a0
    4b92:	00a71733          	sll	a4,a4,a0
    4b96:	00ef6f33          	or	t5,t5,a4
    4b9a:	01e03933          	snez	s2,t5
    4b9e:	00f96933          	or	s2,s2,a5
    4ba2:	bba9                	j	48fc <__adddf3+0x458>
    4ba4:	4581                	li	a1,0
    4ba6:	7ff00513          	li	a0,2047
    4baa:	000807b7          	lui	a5,0x80
    4bae:	bca9                	j	4608 <__adddf3+0x164>
    4bb0:	01ff0933          	add	s2,t5,t6
    4bb4:	010707b3          	add	a5,a4,a6
    4bb8:	01f93633          	sltu	a2,s2,t6
    4bbc:	963e                	add	a2,a2,a5
    4bbe:	b375                	j	496a <__adddf3+0x4c6>
    4bc0:	00361693          	slli	a3,a2,0x3
    4bc4:	01d81793          	slli	a5,a6,0x1d
    4bc8:	828d                	srli	a3,a3,0x3
    4bca:	00d7e8b3          	or	a7,a5,a3
    4bce:	00385793          	srli	a5,a6,0x3
    4bd2:	b189                	j	4814 <__adddf3+0x370>

00004bd4 <__ledf2>:
    4bd4:	0145d713          	srli	a4,a1,0x14
    4bd8:	001007b7          	lui	a5,0x100
    4bdc:	17fd                	addi	a5,a5,-1
    4bde:	0146d813          	srli	a6,a3,0x14
    4be2:	7ff77713          	andi	a4,a4,2047
    4be6:	7ff00893          	li	a7,2047
    4bea:	00b7fe33          	and	t3,a5,a1
    4bee:	8eaa                	mv	t4,a0
    4bf0:	8ff5                	and	a5,a5,a3
    4bf2:	81fd                	srli	a1,a1,0x1f
    4bf4:	8f32                	mv	t5,a2
    4bf6:	7ff87813          	andi	a6,a6,2047
    4bfa:	82fd                	srli	a3,a3,0x1f
    4bfc:	03170e63          	beq	a4,a7,4c38 <__ledf2+0x64>
    4c00:	01180d63          	beq	a6,a7,4c1a <__ledf2+0x46>
    4c04:	e329                	bnez	a4,4c46 <__ledf2+0x72>
    4c06:	00ae68b3          	or	a7,t3,a0
    4c0a:	00081f63          	bnez	a6,4c28 <__ledf2+0x54>
    4c0e:	8e5d                	or	a2,a2,a5
    4c10:	ee01                	bnez	a2,4c28 <__ledf2+0x54>
    4c12:	4301                	li	t1,0
    4c14:	04088c63          	beqz	a7,4c6c <__ledf2+0x98>
    4c18:	a821                	j	4c30 <__ledf2+0x5c>
    4c1a:	00c7e8b3          	or	a7,a5,a2
    4c1e:	4309                	li	t1,2
    4c20:	04089663          	bnez	a7,4c6c <__ledf2+0x98>
    4c24:	d36d                	beqz	a4,4c06 <__ledf2+0x32>
    4c26:	a005                	j	4c46 <__ledf2+0x72>
    4c28:	04088463          	beqz	a7,4c70 <__ledf2+0x9c>
    4c2c:	02d58563          	beq	a1,a3,4c56 <__ledf2+0x82>
    4c30:	4305                	li	t1,1
    4c32:	cd8d                	beqz	a1,4c6c <__ledf2+0x98>
    4c34:	537d                	li	t1,-1
    4c36:	a81d                	j	4c6c <__ledf2+0x98>
    4c38:	00ae68b3          	or	a7,t3,a0
    4c3c:	4309                	li	t1,2
    4c3e:	02089763          	bnez	a7,4c6c <__ledf2+0x98>
    4c42:	02e80a63          	beq	a6,a4,4c76 <__ledf2+0xa2>
    4c46:	00081463          	bnez	a6,4c4e <__ledf2+0x7a>
    4c4a:	8e5d                	or	a2,a2,a5
    4c4c:	d275                	beqz	a2,4c30 <__ledf2+0x5c>
    4c4e:	fed591e3          	bne	a1,a3,4c30 <__ledf2+0x5c>
    4c52:	fce84fe3          	blt	a6,a4,4c30 <__ledf2+0x5c>
    4c56:	01074963          	blt	a4,a6,4c68 <__ledf2+0x94>
    4c5a:	fdc7ebe3          	bltu	a5,t3,4c30 <__ledf2+0x5c>
    4c5e:	00fe0f63          	beq	t3,a5,4c7c <__ledf2+0xa8>
    4c62:	4301                	li	t1,0
    4c64:	00fe7463          	bgeu	t3,a5,4c6c <__ledf2+0x98>
    4c68:	d5f1                	beqz	a1,4c34 <__ledf2+0x60>
    4c6a:	4305                	li	t1,1
    4c6c:	851a                	mv	a0,t1
    4c6e:	8082                	ret
    4c70:	feed                	bnez	a3,4c6a <__ledf2+0x96>
    4c72:	537d                	li	t1,-1
    4c74:	bfe5                	j	4c6c <__ledf2+0x98>
    4c76:	8e5d                	or	a2,a2,a5
    4c78:	da79                	beqz	a2,4c4e <__ledf2+0x7a>
    4c7a:	bfcd                	j	4c6c <__ledf2+0x98>
    4c7c:	fbdf6ae3          	bltu	t5,t4,4c30 <__ledf2+0x5c>
    4c80:	4301                	li	t1,0
    4c82:	ffeef5e3          	bgeu	t4,t5,4c6c <__ledf2+0x98>
    4c86:	f1f5                	bnez	a1,4c6a <__ledf2+0x96>
    4c88:	b775                	j	4c34 <__ledf2+0x60>

00004c8a <__muldf3>:
    4c8a:	7139                	addi	sp,sp,-64
    4c8c:	d84a                	sw	s2,48(sp)
    4c8e:	0145d913          	srli	s2,a1,0x14
    4c92:	d64e                	sw	s3,44(sp)
    4c94:	d452                	sw	s4,40(sp)
    4c96:	d256                	sw	s5,36(sp)
    4c98:	00c59993          	slli	s3,a1,0xc
    4c9c:	de06                	sw	ra,60(sp)
    4c9e:	dc22                	sw	s0,56(sp)
    4ca0:	da26                	sw	s1,52(sp)
    4ca2:	d05a                	sw	s6,32(sp)
    4ca4:	ce5e                	sw	s7,28(sp)
    4ca6:	7ff97913          	andi	s2,s2,2047
    4caa:	8a2a                	mv	s4,a0
    4cac:	00c9d993          	srli	s3,s3,0xc
    4cb0:	01f5da93          	srli	s5,a1,0x1f
    4cb4:	0e090d63          	beqz	s2,4dae <__muldf3+0x124>
    4cb8:	7ff00793          	li	a5,2047
    4cbc:	18f90663          	beq	s2,a5,4e48 <__muldf3+0x1be>
    4cc0:	01d55413          	srli	s0,a0,0x1d
    4cc4:	098e                	slli	s3,s3,0x3
    4cc6:	013469b3          	or	s3,s0,s3
    4cca:	00800437          	lui	s0,0x800
    4cce:	0089e433          	or	s0,s3,s0
    4cd2:	00351493          	slli	s1,a0,0x3
    4cd6:	c0190913          	addi	s2,s2,-1023
    4cda:	4981                	li	s3,0
    4cdc:	4b81                	li	s7,0
    4cde:	0146d713          	srli	a4,a3,0x14
    4ce2:	00c69a13          	slli	s4,a3,0xc
    4ce6:	7ff77713          	andi	a4,a4,2047
    4cea:	85b2                	mv	a1,a2
    4cec:	00ca5a13          	srli	s4,s4,0xc
    4cf0:	01f6db13          	srli	s6,a3,0x1f
    4cf4:	10070b63          	beqz	a4,4e0a <__muldf3+0x180>
    4cf8:	7ff00793          	li	a5,2047
    4cfc:	04f70363          	beq	a4,a5,4d42 <__muldf3+0xb8>
    4d00:	01d65793          	srli	a5,a2,0x1d
    4d04:	0a0e                	slli	s4,s4,0x3
    4d06:	0147ea33          	or	s4,a5,s4
    4d0a:	c0170713          	addi	a4,a4,-1023 # 7ffc01 <_data_lma+0x7f845d>
    4d0e:	008007b7          	lui	a5,0x800
    4d12:	00fa67b3          	or	a5,s4,a5
    4d16:	00361593          	slli	a1,a2,0x3
    4d1a:	993a                	add	s2,s2,a4
    4d1c:	4881                	li	a7,0
    4d1e:	016ac733          	xor	a4,s5,s6
    4d22:	46bd                	li	a3,15
    4d24:	853a                	mv	a0,a4
    4d26:	00190813          	addi	a6,s2,1
    4d2a:	1736e863          	bltu	a3,s3,4e9a <__muldf3+0x210>
    4d2e:	00003617          	auipc	a2,0x3
    4d32:	87660613          	addi	a2,a2,-1930 # 75a4 <nAsciiDot+0x75c>
    4d36:	098a                	slli	s3,s3,0x2
    4d38:	99b2                	add	s3,s3,a2
    4d3a:	0009a683          	lw	a3,0(s3)
    4d3e:	96b2                	add	a3,a3,a2
    4d40:	8682                	jr	a3
    4d42:	00ca67b3          	or	a5,s4,a2
    4d46:	7ff90913          	addi	s2,s2,2047
    4d4a:	12079963          	bnez	a5,4e7c <__muldf3+0x1f2>
    4d4e:	0029e993          	ori	s3,s3,2
    4d52:	4581                	li	a1,0
    4d54:	4889                	li	a7,2
    4d56:	b7e1                	j	4d1e <__muldf3+0x94>
    4d58:	4701                	li	a4,0
    4d5a:	7ff00793          	li	a5,2047
    4d5e:	00080437          	lui	s0,0x80
    4d62:	4481                	li	s1,0
    4d64:	0432                	slli	s0,s0,0xc
    4d66:	07d2                	slli	a5,a5,0x14
    4d68:	8031                	srli	s0,s0,0xc
    4d6a:	077e                	slli	a4,a4,0x1f
    4d6c:	8c5d                	or	s0,s0,a5
    4d6e:	8c59                	or	s0,s0,a4
    4d70:	85a2                	mv	a1,s0
    4d72:	50f2                	lw	ra,60(sp)
    4d74:	5462                	lw	s0,56(sp)
    4d76:	8526                	mv	a0,s1
    4d78:	5942                	lw	s2,48(sp)
    4d7a:	54d2                	lw	s1,52(sp)
    4d7c:	59b2                	lw	s3,44(sp)
    4d7e:	5a22                	lw	s4,40(sp)
    4d80:	5a92                	lw	s5,36(sp)
    4d82:	5b02                	lw	s6,32(sp)
    4d84:	4bf2                	lw	s7,28(sp)
    4d86:	6121                	addi	sp,sp,64
    4d88:	8082                	ret
    4d8a:	855a                	mv	a0,s6
    4d8c:	843e                	mv	s0,a5
    4d8e:	84ae                	mv	s1,a1
    4d90:	8bc6                	mv	s7,a7
    4d92:	4789                	li	a5,2
    4d94:	0efb8d63          	beq	s7,a5,4e8e <__muldf3+0x204>
    4d98:	478d                	li	a5,3
    4d9a:	fafb8fe3          	beq	s7,a5,4d58 <__muldf3+0xce>
    4d9e:	4785                	li	a5,1
    4da0:	872a                	mv	a4,a0
    4da2:	38fb9e63          	bne	s7,a5,513e <__muldf3+0x4b4>
    4da6:	4781                	li	a5,0
    4da8:	4401                	li	s0,0
    4daa:	4481                	li	s1,0
    4dac:	bf65                	j	4d64 <__muldf3+0xda>
    4dae:	00a9e433          	or	s0,s3,a0
    4db2:	c061                	beqz	s0,4e72 <__muldf3+0x1e8>
    4db4:	c636                	sw	a3,12(sp)
    4db6:	c432                	sw	a2,8(sp)
    4db8:	2a098c63          	beqz	s3,5070 <__muldf3+0x3e6>
    4dbc:	854e                	mv	a0,s3
    4dbe:	34d010ef          	jal	ra,690a <__clzsi2>
    4dc2:	4622                	lw	a2,8(sp)
    4dc4:	46b2                	lw	a3,12(sp)
    4dc6:	87aa                	mv	a5,a0
    4dc8:	ff550713          	addi	a4,a0,-11
    4dcc:	4475                	li	s0,29
    4dce:	ff878493          	addi	s1,a5,-8 # 7ffff8 <_data_lma+0x7f8854>
    4dd2:	8c19                	sub	s0,s0,a4
    4dd4:	009999b3          	sll	s3,s3,s1
    4dd8:	008a5433          	srl	s0,s4,s0
    4ddc:	01346433          	or	s0,s0,s3
    4de0:	009a14b3          	sll	s1,s4,s1
    4de4:	0146d713          	srli	a4,a3,0x14
    4de8:	c0d00913          	li	s2,-1011
    4dec:	00c69a13          	slli	s4,a3,0xc
    4df0:	7ff77713          	andi	a4,a4,2047
    4df4:	40f90933          	sub	s2,s2,a5
    4df8:	4981                	li	s3,0
    4dfa:	4b81                	li	s7,0
    4dfc:	85b2                	mv	a1,a2
    4dfe:	00ca5a13          	srli	s4,s4,0xc
    4e02:	01f6db13          	srli	s6,a3,0x1f
    4e06:	ee0719e3          	bnez	a4,4cf8 <__muldf3+0x6e>
    4e0a:	00ca67b3          	or	a5,s4,a2
    4e0e:	c7b1                	beqz	a5,4e5a <__muldf3+0x1d0>
    4e10:	220a0f63          	beqz	s4,504e <__muldf3+0x3c4>
    4e14:	8552                	mv	a0,s4
    4e16:	c432                	sw	a2,8(sp)
    4e18:	2f3010ef          	jal	ra,690a <__clzsi2>
    4e1c:	4622                	lw	a2,8(sp)
    4e1e:	872a                	mv	a4,a0
    4e20:	ff550693          	addi	a3,a0,-11
    4e24:	47f5                	li	a5,29
    4e26:	ff870593          	addi	a1,a4,-8
    4e2a:	8f95                	sub	a5,a5,a3
    4e2c:	00ba1a33          	sll	s4,s4,a1
    4e30:	00f657b3          	srl	a5,a2,a5
    4e34:	0147e7b3          	or	a5,a5,s4
    4e38:	00b615b3          	sll	a1,a2,a1
    4e3c:	40e90933          	sub	s2,s2,a4
    4e40:	c0d90913          	addi	s2,s2,-1011
    4e44:	4881                	li	a7,0
    4e46:	bde1                	j	4d1e <__muldf3+0x94>
    4e48:	00a9e433          	or	s0,s3,a0
    4e4c:	ec01                	bnez	s0,4e64 <__muldf3+0x1da>
    4e4e:	49a1                	li	s3,8
    4e50:	4481                	li	s1,0
    4e52:	7ff00913          	li	s2,2047
    4e56:	4b89                	li	s7,2
    4e58:	b559                	j	4cde <__muldf3+0x54>
    4e5a:	0019e993          	ori	s3,s3,1
    4e5e:	4581                	li	a1,0
    4e60:	4885                	li	a7,1
    4e62:	bd75                	j	4d1e <__muldf3+0x94>
    4e64:	844e                	mv	s0,s3
    4e66:	84aa                	mv	s1,a0
    4e68:	49b1                	li	s3,12
    4e6a:	7ff00913          	li	s2,2047
    4e6e:	4b8d                	li	s7,3
    4e70:	b5bd                	j	4cde <__muldf3+0x54>
    4e72:	4991                	li	s3,4
    4e74:	4481                	li	s1,0
    4e76:	4901                	li	s2,0
    4e78:	4b85                	li	s7,1
    4e7a:	b595                	j	4cde <__muldf3+0x54>
    4e7c:	0039e993          	ori	s3,s3,3
    4e80:	87d2                	mv	a5,s4
    4e82:	488d                	li	a7,3
    4e84:	bd69                	j	4d1e <__muldf3+0x94>
    4e86:	4789                	li	a5,2
    4e88:	8556                	mv	a0,s5
    4e8a:	f0fb97e3          	bne	s7,a5,4d98 <__muldf3+0x10e>
    4e8e:	872a                	mv	a4,a0
    4e90:	7ff00793          	li	a5,2047
    4e94:	4401                	li	s0,0
    4e96:	4481                	li	s1,0
    4e98:	b5f1                	j	4d64 <__muldf3+0xda>
    4e9a:	6ec1                	lui	t4,0x10
    4e9c:	fffe8613          	addi	a2,t4,-1 # ffff <_data_lma+0x885b>
    4ea0:	0104d693          	srli	a3,s1,0x10
    4ea4:	0105de13          	srli	t3,a1,0x10
    4ea8:	8cf1                	and	s1,s1,a2
    4eaa:	8df1                	and	a1,a1,a2
    4eac:	02958633          	mul	a2,a1,s1
    4eb0:	02b68333          	mul	t1,a3,a1
    4eb4:	01065893          	srli	a7,a2,0x10
    4eb8:	029e0533          	mul	a0,t3,s1
    4ebc:	951a                	add	a0,a0,t1
    4ebe:	98aa                	add	a7,a7,a0
    4ec0:	03c682b3          	mul	t0,a3,t3
    4ec4:	0068f363          	bgeu	a7,t1,4eca <__muldf3+0x240>
    4ec8:	92f6                	add	t0,t0,t4
    4eca:	6fc1                	lui	t6,0x10
    4ecc:	ffff8313          	addi	t1,t6,-1 # ffff <_data_lma+0x885b>
    4ed0:	0067f533          	and	a0,a5,t1
    4ed4:	0107d393          	srli	t2,a5,0x10
    4ed8:	0068f7b3          	and	a5,a7,t1
    4edc:	07c2                	slli	a5,a5,0x10
    4ede:	00667333          	and	t1,a2,t1
    4ee2:	933e                	add	t1,t1,a5
    4ee4:	02950633          	mul	a2,a0,s1
    4ee8:	0108d893          	srli	a7,a7,0x10
    4eec:	02a687b3          	mul	a5,a3,a0
    4ef0:	01065f13          	srli	t5,a2,0x10
    4ef4:	029384b3          	mul	s1,t2,s1
    4ef8:	94be                	add	s1,s1,a5
    4efa:	94fa                	add	s1,s1,t5
    4efc:	02768eb3          	mul	t4,a3,t2
    4f00:	00f4f363          	bgeu	s1,a5,4f06 <__muldf3+0x27c>
    4f04:	9efe                	add	t4,t4,t6
    4f06:	6a41                	lui	s4,0x10
    4f08:	fffa0793          	addi	a5,s4,-1 # ffff <_data_lma+0x885b>
    4f0c:	01045f93          	srli	t6,s0,0x10
    4f10:	00f476b3          	and	a3,s0,a5
    4f14:	00f4f9b3          	and	s3,s1,a5
    4f18:	8e7d                	and	a2,a2,a5
    4f1a:	80c1                	srli	s1,s1,0x10
    4f1c:	02d58433          	mul	s0,a1,a3
    4f20:	09c2                	slli	s3,s3,0x10
    4f22:	01d48f33          	add	t5,s1,t4
    4f26:	99b2                	add	s3,s3,a2
    4f28:	98ce                	add	a7,a7,s3
    4f2a:	02de07b3          	mul	a5,t3,a3
    4f2e:	01045e93          	srli	t4,s0,0x10
    4f32:	02bf85b3          	mul	a1,t6,a1
    4f36:	97ae                	add	a5,a5,a1
    4f38:	9ebe                	add	t4,t4,a5
    4f3a:	03fe0e33          	mul	t3,t3,t6
    4f3e:	00bef363          	bgeu	t4,a1,4f44 <__muldf3+0x2ba>
    4f42:	9e52                	add	t3,t3,s4
    4f44:	67c1                	lui	a5,0x10
    4f46:	fff78593          	addi	a1,a5,-1 # ffff <_data_lma+0x885b>
    4f4a:	00bef633          	and	a2,t4,a1
    4f4e:	8c6d                	and	s0,s0,a1
    4f50:	0642                	slli	a2,a2,0x10
    4f52:	9622                	add	a2,a2,s0
    4f54:	010ede93          	srli	t4,t4,0x10
    4f58:	02d505b3          	mul	a1,a0,a3
    4f5c:	9e76                	add	t3,t3,t4
    4f5e:	02af8533          	mul	a0,t6,a0
    4f62:	0105d413          	srli	s0,a1,0x10
    4f66:	02d386b3          	mul	a3,t2,a3
    4f6a:	96aa                	add	a3,a3,a0
    4f6c:	96a2                	add	a3,a3,s0
    4f6e:	03f38fb3          	mul	t6,t2,t6
    4f72:	00a6f363          	bgeu	a3,a0,4f78 <__muldf3+0x2ee>
    4f76:	9fbe                	add	t6,t6,a5
    4f78:	6541                	lui	a0,0x10
    4f7a:	157d                	addi	a0,a0,-1
    4f7c:	00a6f7b3          	and	a5,a3,a0
    4f80:	07c2                	slli	a5,a5,0x10
    4f82:	8d6d                	and	a0,a0,a1
    4f84:	97aa                	add	a5,a5,a0
    4f86:	005885b3          	add	a1,a7,t0
    4f8a:	0135b9b3          	sltu	s3,a1,s3
    4f8e:	97fa                	add	a5,a5,t5
    4f90:	95b2                	add	a1,a1,a2
    4f92:	01378433          	add	s0,a5,s3
    4f96:	00c5b633          	sltu	a2,a1,a2
    4f9a:	01c40eb3          	add	t4,s0,t3
    4f9e:	00ce8533          	add	a0,t4,a2
    4fa2:	01343433          	sltu	s0,s0,s3
    4fa6:	01e7b7b3          	sltu	a5,a5,t5
    4faa:	8fc1                	or	a5,a5,s0
    4fac:	01cebe33          	sltu	t3,t4,t3
    4fb0:	0106d413          	srli	s0,a3,0x10
    4fb4:	00c53633          	sltu	a2,a0,a2
    4fb8:	943e                	add	s0,s0,a5
    4fba:	00ce6633          	or	a2,t3,a2
    4fbe:	00959493          	slli	s1,a1,0x9
    4fc2:	9432                	add	s0,s0,a2
    4fc4:	947e                	add	s0,s0,t6
    4fc6:	0064e4b3          	or	s1,s1,t1
    4fca:	0426                	slli	s0,s0,0x9
    4fcc:	01755693          	srli	a3,a0,0x17
    4fd0:	009034b3          	snez	s1,s1
    4fd4:	81dd                	srli	a1,a1,0x17
    4fd6:	00951793          	slli	a5,a0,0x9
    4fda:	8ccd                	or	s1,s1,a1
    4fdc:	8c55                	or	s0,s0,a3
    4fde:	8cdd                	or	s1,s1,a5
    4fe0:	00741793          	slli	a5,s0,0x7
    4fe4:	0007db63          	bgez	a5,4ffa <__muldf3+0x370>
    4fe8:	0014d793          	srli	a5,s1,0x1
    4fec:	8885                	andi	s1,s1,1
    4fee:	01f41693          	slli	a3,s0,0x1f
    4ff2:	8cdd                	or	s1,s1,a5
    4ff4:	8cd5                	or	s1,s1,a3
    4ff6:	8005                	srli	s0,s0,0x1
    4ff8:	8942                	mv	s2,a6
    4ffa:	3ff90793          	addi	a5,s2,1023
    4ffe:	08f05963          	blez	a5,5090 <__muldf3+0x406>
    5002:	0074f693          	andi	a3,s1,7
    5006:	ce81                	beqz	a3,501e <__muldf3+0x394>
    5008:	00f4f693          	andi	a3,s1,15
    500c:	4611                	li	a2,4
    500e:	00c68863          	beq	a3,a2,501e <__muldf3+0x394>
    5012:	00448693          	addi	a3,s1,4
    5016:	0096b4b3          	sltu	s1,a3,s1
    501a:	9426                	add	s0,s0,s1
    501c:	84b6                	mv	s1,a3
    501e:	00741693          	slli	a3,s0,0x7
    5022:	0006d863          	bgez	a3,5032 <__muldf3+0x3a8>
    5026:	ff0007b7          	lui	a5,0xff000
    502a:	17fd                	addi	a5,a5,-1
    502c:	8c7d                	and	s0,s0,a5
    502e:	40090793          	addi	a5,s2,1024
    5032:	7fe00693          	li	a3,2046
    5036:	0ef6cf63          	blt	a3,a5,5134 <__muldf3+0x4aa>
    503a:	0034d693          	srli	a3,s1,0x3
    503e:	01d41493          	slli	s1,s0,0x1d
    5042:	0426                	slli	s0,s0,0x9
    5044:	8cd5                	or	s1,s1,a3
    5046:	8031                	srli	s0,s0,0xc
    5048:	7ff7f793          	andi	a5,a5,2047
    504c:	bb21                	j	4d64 <__muldf3+0xda>
    504e:	8532                	mv	a0,a2
    5050:	c432                	sw	a2,8(sp)
    5052:	0b9010ef          	jal	ra,690a <__clzsi2>
    5056:	01550693          	addi	a3,a0,21 # 10015 <_data_lma+0x8871>
    505a:	47f1                	li	a5,28
    505c:	02050713          	addi	a4,a0,32
    5060:	4622                	lw	a2,8(sp)
    5062:	dcd7d1e3          	bge	a5,a3,4e24 <__muldf3+0x19a>
    5066:	1561                	addi	a0,a0,-8
    5068:	00a617b3          	sll	a5,a2,a0
    506c:	4581                	li	a1,0
    506e:	b3f9                	j	4e3c <__muldf3+0x1b2>
    5070:	09b010ef          	jal	ra,690a <__clzsi2>
    5074:	01550713          	addi	a4,a0,21
    5078:	45f1                	li	a1,28
    507a:	02050793          	addi	a5,a0,32
    507e:	4622                	lw	a2,8(sp)
    5080:	46b2                	lw	a3,12(sp)
    5082:	d4e5d5e3          	bge	a1,a4,4dcc <__muldf3+0x142>
    5086:	1561                	addi	a0,a0,-8
    5088:	00aa1433          	sll	s0,s4,a0
    508c:	4481                	li	s1,0
    508e:	bb99                	j	4de4 <__muldf3+0x15a>
    5090:	4685                	li	a3,1
    5092:	8e9d                	sub	a3,a3,a5
    5094:	e7b1                	bnez	a5,50e0 <__muldf3+0x456>
    5096:	41e90913          	addi	s2,s2,1054
    509a:	012497b3          	sll	a5,s1,s2
    509e:	00d4d4b3          	srl	s1,s1,a3
    50a2:	01241933          	sll	s2,s0,s2
    50a6:	00f037b3          	snez	a5,a5
    50aa:	009964b3          	or	s1,s2,s1
    50ae:	8cdd                	or	s1,s1,a5
    50b0:	0074f793          	andi	a5,s1,7
    50b4:	00d456b3          	srl	a3,s0,a3
    50b8:	cf81                	beqz	a5,50d0 <__muldf3+0x446>
    50ba:	00f4f793          	andi	a5,s1,15
    50be:	4611                	li	a2,4
    50c0:	00c78863          	beq	a5,a2,50d0 <__muldf3+0x446>
    50c4:	00448793          	addi	a5,s1,4
    50c8:	0097b4b3          	sltu	s1,a5,s1
    50cc:	96a6                	add	a3,a3,s1
    50ce:	84be                	mv	s1,a5
    50d0:	00869793          	slli	a5,a3,0x8
    50d4:	0407d863          	bgez	a5,5124 <__muldf3+0x49a>
    50d8:	4785                	li	a5,1
    50da:	4401                	li	s0,0
    50dc:	4481                	li	s1,0
    50de:	b159                	j	4d64 <__muldf3+0xda>
    50e0:	03800613          	li	a2,56
    50e4:	ccd641e3          	blt	a2,a3,4da6 <__muldf3+0x11c>
    50e8:	467d                	li	a2,31
    50ea:	fad656e3          	bge	a2,a3,5096 <__muldf3+0x40c>
    50ee:	5605                	li	a2,-31
    50f0:	40f607b3          	sub	a5,a2,a5
    50f4:	02000593          	li	a1,32
    50f8:	00f45633          	srl	a2,s0,a5
    50fc:	00b68763          	beq	a3,a1,510a <__muldf3+0x480>
    5100:	43e90913          	addi	s2,s2,1086
    5104:	012417b3          	sll	a5,s0,s2
    5108:	8cdd                	or	s1,s1,a5
    510a:	009034b3          	snez	s1,s1
    510e:	8cd1                	or	s1,s1,a2
    5110:	0074f693          	andi	a3,s1,7
    5114:	4401                	li	s0,0
    5116:	ca99                	beqz	a3,512c <__muldf3+0x4a2>
    5118:	00f4f793          	andi	a5,s1,15
    511c:	4611                	li	a2,4
    511e:	4681                	li	a3,0
    5120:	fac792e3          	bne	a5,a2,50c4 <__muldf3+0x43a>
    5124:	00969413          	slli	s0,a3,0x9
    5128:	8031                	srli	s0,s0,0xc
    512a:	06f6                	slli	a3,a3,0x1d
    512c:	808d                	srli	s1,s1,0x3
    512e:	8cd5                	or	s1,s1,a3
    5130:	4781                	li	a5,0
    5132:	b90d                	j	4d64 <__muldf3+0xda>
    5134:	7ff00793          	li	a5,2047
    5138:	4401                	li	s0,0
    513a:	4481                	li	s1,0
    513c:	b125                	j	4d64 <__muldf3+0xda>
    513e:	8942                	mv	s2,a6
    5140:	bd6d                	j	4ffa <__muldf3+0x370>

00005142 <__subdf3>:
    5142:	00100737          	lui	a4,0x100
    5146:	177d                	addi	a4,a4,-1
    5148:	1101                	addi	sp,sp,-32
    514a:	00b77333          	and	t1,a4,a1
    514e:	0146d893          	srli	a7,a3,0x14
    5152:	8f75                	and	a4,a4,a3
    5154:	01d65e93          	srli	t4,a2,0x1d
    5158:	cc22                	sw	s0,24(sp)
    515a:	ca26                	sw	s1,20(sp)
    515c:	030e                	slli	t1,t1,0x3
    515e:	0145d493          	srli	s1,a1,0x14
    5162:	01d55793          	srli	a5,a0,0x1d
    5166:	070e                	slli	a4,a4,0x3
    5168:	ce06                	sw	ra,28(sp)
    516a:	c84a                	sw	s2,16(sp)
    516c:	c64e                	sw	s3,12(sp)
    516e:	7ff8f893          	andi	a7,a7,2047
    5172:	7ff00e13          	li	t3,2047
    5176:	00eee733          	or	a4,t4,a4
    517a:	7ff4f493          	andi	s1,s1,2047
    517e:	01f5d413          	srli	s0,a1,0x1f
    5182:	0067e333          	or	t1,a5,t1
    5186:	00351f13          	slli	t5,a0,0x3
    518a:	82fd                	srli	a3,a3,0x1f
    518c:	00361e93          	slli	t4,a2,0x3
    5190:	19c88063          	beq	a7,t3,5310 <__subdf3+0x1ce>
    5194:	0016c693          	xori	a3,a3,1
    5198:	411485b3          	sub	a1,s1,a7
    519c:	12d40563          	beq	s0,a3,52c6 <__subdf3+0x184>
    51a0:	18b05163          	blez	a1,5322 <__subdf3+0x1e0>
    51a4:	1a088b63          	beqz	a7,535a <__subdf3+0x218>
    51a8:	008007b7          	lui	a5,0x800
    51ac:	8f5d                	or	a4,a4,a5
    51ae:	59c48163          	beq	s1,t3,5730 <__subdf3+0x5ee>
    51b2:	03800793          	li	a5,56
    51b6:	34b7c463          	blt	a5,a1,54fe <__subdf3+0x3bc>
    51ba:	47fd                	li	a5,31
    51bc:	48b7c563          	blt	a5,a1,5646 <__subdf3+0x504>
    51c0:	02000793          	li	a5,32
    51c4:	8f8d                	sub	a5,a5,a1
    51c6:	00bed9b3          	srl	s3,t4,a1
    51ca:	00f71833          	sll	a6,a4,a5
    51ce:	00fe9eb3          	sll	t4,t4,a5
    51d2:	01386833          	or	a6,a6,s3
    51d6:	00b75733          	srl	a4,a4,a1
    51da:	01d039b3          	snez	s3,t4
    51de:	01386833          	or	a6,a6,s3
    51e2:	40e30333          	sub	t1,t1,a4
    51e6:	410f09b3          	sub	s3,t5,a6
    51ea:	013f37b3          	sltu	a5,t5,s3
    51ee:	40f30633          	sub	a2,t1,a5
    51f2:	00861793          	slli	a5,a2,0x8
    51f6:	2407d363          	bgez	a5,543c <__subdf3+0x2fa>
    51fa:	00800937          	lui	s2,0x800
    51fe:	197d                	addi	s2,s2,-1
    5200:	01267933          	and	s2,a2,s2
    5204:	2c090f63          	beqz	s2,54e2 <__subdf3+0x3a0>
    5208:	854a                	mv	a0,s2
    520a:	700010ef          	jal	ra,690a <__clzsi2>
    520e:	ff850713          	addi	a4,a0,-8
    5212:	02000793          	li	a5,32
    5216:	8f99                	sub	a5,a5,a4
    5218:	00f9d7b3          	srl	a5,s3,a5
    521c:	00e91633          	sll	a2,s2,a4
    5220:	8fd1                	or	a5,a5,a2
    5222:	00e999b3          	sll	s3,s3,a4
    5226:	2a974463          	blt	a4,s1,54ce <__subdf3+0x38c>
    522a:	8f05                	sub	a4,a4,s1
    522c:	00170613          	addi	a2,a4,1 # 100001 <_data_lma+0xf885d>
    5230:	46fd                	li	a3,31
    5232:	3ac6c563          	blt	a3,a2,55dc <__subdf3+0x49a>
    5236:	02000713          	li	a4,32
    523a:	8f11                	sub	a4,a4,a2
    523c:	00c9d6b3          	srl	a3,s3,a2
    5240:	00e99833          	sll	a6,s3,a4
    5244:	00e79733          	sll	a4,a5,a4
    5248:	8f55                	or	a4,a4,a3
    524a:	01003833          	snez	a6,a6
    524e:	010769b3          	or	s3,a4,a6
    5252:	00c7d633          	srl	a2,a5,a2
    5256:	4481                	li	s1,0
    5258:	0079f793          	andi	a5,s3,7
    525c:	cf81                	beqz	a5,5274 <__subdf3+0x132>
    525e:	00f9f693          	andi	a3,s3,15
    5262:	4791                	li	a5,4
    5264:	00f68863          	beq	a3,a5,5274 <__subdf3+0x132>
    5268:	00498693          	addi	a3,s3,4
    526c:	0136b833          	sltu	a6,a3,s3
    5270:	9642                	add	a2,a2,a6
    5272:	89b6                	mv	s3,a3
    5274:	00861793          	slli	a5,a2,0x8
    5278:	1c07d663          	bgez	a5,5444 <__subdf3+0x302>
    527c:	00148713          	addi	a4,s1,1
    5280:	7ff00793          	li	a5,2047
    5284:	8805                	andi	s0,s0,1
    5286:	20f70663          	beq	a4,a5,5492 <__subdf3+0x350>
    528a:	ff8007b7          	lui	a5,0xff800
    528e:	17fd                	addi	a5,a5,-1
    5290:	8ff1                	and	a5,a5,a2
    5292:	01d79813          	slli	a6,a5,0x1d
    5296:	0039d993          	srli	s3,s3,0x3
    529a:	07a6                	slli	a5,a5,0x9
    529c:	01386833          	or	a6,a6,s3
    52a0:	83b1                	srli	a5,a5,0xc
    52a2:	7ff77713          	andi	a4,a4,2047
    52a6:	00c79693          	slli	a3,a5,0xc
    52aa:	0752                	slli	a4,a4,0x14
    52ac:	82b1                	srli	a3,a3,0xc
    52ae:	047e                	slli	s0,s0,0x1f
    52b0:	8ed9                	or	a3,a3,a4
    52b2:	8ec1                	or	a3,a3,s0
    52b4:	40f2                	lw	ra,28(sp)
    52b6:	4462                	lw	s0,24(sp)
    52b8:	44d2                	lw	s1,20(sp)
    52ba:	4942                	lw	s2,16(sp)
    52bc:	49b2                	lw	s3,12(sp)
    52be:	8542                	mv	a0,a6
    52c0:	85b6                	mv	a1,a3
    52c2:	6105                	addi	sp,sp,32
    52c4:	8082                	ret
    52c6:	0ab05663          	blez	a1,5372 <__subdf3+0x230>
    52ca:	12088a63          	beqz	a7,53fe <__subdf3+0x2bc>
    52ce:	008007b7          	lui	a5,0x800
    52d2:	8f5d                	or	a4,a4,a5
    52d4:	2dc48763          	beq	s1,t3,55a2 <__subdf3+0x460>
    52d8:	03800793          	li	a5,56
    52dc:	18b7c763          	blt	a5,a1,546a <__subdf3+0x328>
    52e0:	47fd                	li	a5,31
    52e2:	3cb7d263          	bge	a5,a1,56a6 <__subdf3+0x564>
    52e6:	fe058813          	addi	a6,a1,-32
    52ea:	02000793          	li	a5,32
    52ee:	010759b3          	srl	s3,a4,a6
    52f2:	00f58a63          	beq	a1,a5,5306 <__subdf3+0x1c4>
    52f6:	04000793          	li	a5,64
    52fa:	40b785b3          	sub	a1,a5,a1
    52fe:	00b71733          	sll	a4,a4,a1
    5302:	00eeeeb3          	or	t4,t4,a4
    5306:	01d03833          	snez	a6,t4
    530a:	01386833          	or	a6,a6,s3
    530e:	a295                	j	5472 <__subdf3+0x330>
    5310:	01d767b3          	or	a5,a4,t4
    5314:	80148593          	addi	a1,s1,-2047
    5318:	e399                	bnez	a5,531e <__subdf3+0x1dc>
    531a:	0016c693          	xori	a3,a3,1
    531e:	04d40a63          	beq	s0,a3,5372 <__subdf3+0x230>
    5322:	e1d1                	bnez	a1,53a6 <__subdf3+0x264>
    5324:	00148793          	addi	a5,s1,1
    5328:	7fe7f793          	andi	a5,a5,2046
    532c:	1e079963          	bnez	a5,551e <__subdf3+0x3dc>
    5330:	01e367b3          	or	a5,t1,t5
    5334:	01d76833          	or	a6,a4,t4
    5338:	16049263          	bnez	s1,549c <__subdf3+0x35a>
    533c:	3c078263          	beqz	a5,5700 <__subdf3+0x5be>
    5340:	42081663          	bnez	a6,576c <__subdf3+0x62a>
    5344:	00351813          	slli	a6,a0,0x3
    5348:	01d31693          	slli	a3,t1,0x1d
    534c:	00385813          	srli	a6,a6,0x3
    5350:	0106e833          	or	a6,a3,a6
    5354:	00335793          	srli	a5,t1,0x3
    5358:	a219                	j	545e <__subdf3+0x31c>
    535a:	01d767b3          	or	a5,a4,t4
    535e:	1a078563          	beqz	a5,5508 <__subdf3+0x3c6>
    5362:	fff58793          	addi	a5,a1,-1
    5366:	3a078b63          	beqz	a5,571c <__subdf3+0x5da>
    536a:	23c58c63          	beq	a1,t3,55a2 <__subdf3+0x460>
    536e:	85be                	mv	a1,a5
    5370:	b589                	j	51b2 <__subdf3+0x70>
    5372:	1c059963          	bnez	a1,5544 <__subdf3+0x402>
    5376:	00148693          	addi	a3,s1,1
    537a:	7fe6f793          	andi	a5,a3,2046
    537e:	efc1                	bnez	a5,5416 <__subdf3+0x2d4>
    5380:	01e367b3          	or	a5,t1,t5
    5384:	36049063          	bnez	s1,56e4 <__subdf3+0x5a2>
    5388:	44078d63          	beqz	a5,57e2 <__subdf3+0x6a0>
    538c:	01d767b3          	or	a5,a4,t4
    5390:	46079463          	bnez	a5,57f8 <__subdf3+0x6b6>
    5394:	050e                	slli	a0,a0,0x3
    5396:	01d31813          	slli	a6,t1,0x1d
    539a:	810d                	srli	a0,a0,0x3
    539c:	00a86833          	or	a6,a6,a0
    53a0:	00335793          	srli	a5,t1,0x3
    53a4:	a86d                	j	545e <__subdf3+0x31c>
    53a6:	409885b3          	sub	a1,a7,s1
    53aa:	20049763          	bnez	s1,55b8 <__subdf3+0x476>
    53ae:	01e367b3          	or	a5,t1,t5
    53b2:	30078d63          	beqz	a5,56cc <__subdf3+0x58a>
    53b6:	fff58793          	addi	a5,a1,-1
    53ba:	40078963          	beqz	a5,57cc <__subdf3+0x68a>
    53be:	7ff00513          	li	a0,2047
    53c2:	20a58363          	beq	a1,a0,55c8 <__subdf3+0x486>
    53c6:	85be                	mv	a1,a5
    53c8:	03800793          	li	a5,56
    53cc:	2ab7c263          	blt	a5,a1,5670 <__subdf3+0x52e>
    53d0:	47fd                	li	a5,31
    53d2:	3cb7c863          	blt	a5,a1,57a2 <__subdf3+0x660>
    53d6:	02000793          	li	a5,32
    53da:	8f8d                	sub	a5,a5,a1
    53dc:	00f31833          	sll	a6,t1,a5
    53e0:	00bf5633          	srl	a2,t5,a1
    53e4:	00ff17b3          	sll	a5,t5,a5
    53e8:	00c86833          	or	a6,a6,a2
    53ec:	00f039b3          	snez	s3,a5
    53f0:	00b35333          	srl	t1,t1,a1
    53f4:	01386833          	or	a6,a6,s3
    53f8:	40670733          	sub	a4,a4,t1
    53fc:	acb5                	j	5678 <__subdf3+0x536>
    53fe:	01d767b3          	or	a5,a4,t4
    5402:	10078363          	beqz	a5,5508 <__subdf3+0x3c6>
    5406:	fff58793          	addi	a5,a1,-1
    540a:	1e078f63          	beqz	a5,5608 <__subdf3+0x4c6>
    540e:	2fc58063          	beq	a1,t3,56ee <__subdf3+0x5ac>
    5412:	85be                	mv	a1,a5
    5414:	b5d1                	j	52d8 <__subdf3+0x196>
    5416:	7ff00793          	li	a5,2047
    541a:	06f68b63          	beq	a3,a5,5490 <__subdf3+0x34e>
    541e:	9efa                	add	t4,t4,t5
    5420:	01eeb633          	sltu	a2,t4,t5
    5424:	00e307b3          	add	a5,t1,a4
    5428:	97b2                	add	a5,a5,a2
    542a:	01f79813          	slli	a6,a5,0x1f
    542e:	001ede93          	srli	t4,t4,0x1
    5432:	01d869b3          	or	s3,a6,t4
    5436:	0017d613          	srli	a2,a5,0x1
    543a:	84b6                	mv	s1,a3
    543c:	0079f793          	andi	a5,s3,7
    5440:	e0079fe3          	bnez	a5,525e <__subdf3+0x11c>
    5444:	01d61793          	slli	a5,a2,0x1d
    5448:	0039d813          	srli	a6,s3,0x3
    544c:	00f86833          	or	a6,a6,a5
    5450:	85a6                	mv	a1,s1
    5452:	00365793          	srli	a5,a2,0x3
    5456:	7ff00713          	li	a4,2047
    545a:	06e58063          	beq	a1,a4,54ba <__subdf3+0x378>
    545e:	07b2                	slli	a5,a5,0xc
    5460:	83b1                	srli	a5,a5,0xc
    5462:	7ff5f713          	andi	a4,a1,2047
    5466:	8805                	andi	s0,s0,1
    5468:	bd3d                	j	52a6 <__subdf3+0x164>
    546a:	01d76733          	or	a4,a4,t4
    546e:	00e03833          	snez	a6,a4
    5472:	01e809b3          	add	s3,a6,t5
    5476:	01e9b7b3          	sltu	a5,s3,t5
    547a:	00678633          	add	a2,a5,t1
    547e:	00861793          	slli	a5,a2,0x8
    5482:	fa07dde3          	bgez	a5,543c <__subdf3+0x2fa>
    5486:	0485                	addi	s1,s1,1
    5488:	7ff00793          	li	a5,2047
    548c:	18f49c63          	bne	s1,a5,5624 <__subdf3+0x4e2>
    5490:	8805                	andi	s0,s0,1
    5492:	7ff00713          	li	a4,2047
    5496:	4781                	li	a5,0
    5498:	4801                	li	a6,0
    549a:	b531                	j	52a6 <__subdf3+0x164>
    549c:	10079163          	bnez	a5,559e <__subdf3+0x45c>
    54a0:	3c080163          	beqz	a6,5862 <__subdf3+0x720>
    54a4:	00361813          	slli	a6,a2,0x3
    54a8:	01d71793          	slli	a5,a4,0x1d
    54ac:	00385813          	srli	a6,a6,0x3
    54b0:	00f86833          	or	a6,a6,a5
    54b4:	8436                	mv	s0,a3
    54b6:	00375793          	srli	a5,a4,0x3
    54ba:	00f867b3          	or	a5,a6,a5
    54be:	dbe9                	beqz	a5,5490 <__subdf3+0x34e>
    54c0:	4401                	li	s0,0
    54c2:	7ff00713          	li	a4,2047
    54c6:	000807b7          	lui	a5,0x80
    54ca:	4801                	li	a6,0
    54cc:	bbe9                	j	52a6 <__subdf3+0x164>
    54ce:	ff800637          	lui	a2,0xff800
    54d2:	167d                	addi	a2,a2,-1
    54d4:	8e7d                	and	a2,a2,a5
    54d6:	0079f793          	andi	a5,s3,7
    54da:	8c99                	sub	s1,s1,a4
    54dc:	d80791e3          	bnez	a5,525e <__subdf3+0x11c>
    54e0:	b795                	j	5444 <__subdf3+0x302>
    54e2:	854e                	mv	a0,s3
    54e4:	426010ef          	jal	ra,690a <__clzsi2>
    54e8:	01850713          	addi	a4,a0,24
    54ec:	47fd                	li	a5,31
    54ee:	d2e7d2e3          	bge	a5,a4,5212 <__subdf3+0xd0>
    54f2:	ff850613          	addi	a2,a0,-8
    54f6:	00c997b3          	sll	a5,s3,a2
    54fa:	4981                	li	s3,0
    54fc:	b32d                	j	5226 <__subdf3+0xe4>
    54fe:	01d76833          	or	a6,a4,t4
    5502:	01003833          	snez	a6,a6
    5506:	b1c5                	j	51e6 <__subdf3+0xa4>
    5508:	00351813          	slli	a6,a0,0x3
    550c:	01d31793          	slli	a5,t1,0x1d
    5510:	00385813          	srli	a6,a6,0x3
    5514:	00f86833          	or	a6,a6,a5
    5518:	00335793          	srli	a5,t1,0x3
    551c:	bf2d                	j	5456 <__subdf3+0x314>
    551e:	41df09b3          	sub	s3,t5,t4
    5522:	40e30933          	sub	s2,t1,a4
    5526:	013f3633          	sltu	a2,t5,s3
    552a:	40c90933          	sub	s2,s2,a2
    552e:	00891793          	slli	a5,s2,0x8
    5532:	2007ca63          	bltz	a5,5746 <__subdf3+0x604>
    5536:	0129e833          	or	a6,s3,s2
    553a:	cc0815e3          	bnez	a6,5204 <__subdf3+0xc2>
    553e:	4781                	li	a5,0
    5540:	4401                	li	s0,0
    5542:	bf31                	j	545e <__subdf3+0x31c>
    5544:	409885b3          	sub	a1,a7,s1
    5548:	14048163          	beqz	s1,568a <__subdf3+0x548>
    554c:	008006b7          	lui	a3,0x800
    5550:	7ff00793          	li	a5,2047
    5554:	00d36333          	or	t1,t1,a3
    5558:	20f88163          	beq	a7,a5,575a <__subdf3+0x618>
    555c:	03800793          	li	a5,56
    5560:	22b7cc63          	blt	a5,a1,5798 <__subdf3+0x656>
    5564:	47fd                	li	a5,31
    5566:	2cb7c963          	blt	a5,a1,5838 <__subdf3+0x6f6>
    556a:	02000793          	li	a5,32
    556e:	8f8d                	sub	a5,a5,a1
    5570:	00f31833          	sll	a6,t1,a5
    5574:	00bf56b3          	srl	a3,t5,a1
    5578:	00ff17b3          	sll	a5,t5,a5
    557c:	00d86833          	or	a6,a6,a3
    5580:	00f039b3          	snez	s3,a5
    5584:	00b35333          	srl	t1,t1,a1
    5588:	01386833          	or	a6,a6,s3
    558c:	971a                	add	a4,a4,t1
    558e:	01d809b3          	add	s3,a6,t4
    5592:	01d9b7b3          	sltu	a5,s3,t4
    5596:	00e78633          	add	a2,a5,a4
    559a:	84c6                	mv	s1,a7
    559c:	b5cd                	j	547e <__subdf3+0x33c>
    559e:	f20811e3          	bnez	a6,54c0 <__subdf3+0x37e>
    55a2:	00351813          	slli	a6,a0,0x3
    55a6:	01d31793          	slli	a5,t1,0x1d
    55aa:	00385813          	srli	a6,a6,0x3
    55ae:	00f86833          	or	a6,a6,a5
    55b2:	00335793          	srli	a5,t1,0x3
    55b6:	b711                	j	54ba <__subdf3+0x378>
    55b8:	00800537          	lui	a0,0x800
    55bc:	7ff00793          	li	a5,2047
    55c0:	00a36333          	or	t1,t1,a0
    55c4:	e0f892e3          	bne	a7,a5,53c8 <__subdf3+0x286>
    55c8:	060e                	slli	a2,a2,0x3
    55ca:	01d71813          	slli	a6,a4,0x1d
    55ce:	820d                	srli	a2,a2,0x3
    55d0:	00c86833          	or	a6,a6,a2
    55d4:	00375793          	srli	a5,a4,0x3
    55d8:	8436                	mv	s0,a3
    55da:	b5c5                	j	54ba <__subdf3+0x378>
    55dc:	1705                	addi	a4,a4,-31
    55de:	02000693          	li	a3,32
    55e2:	00e7d733          	srl	a4,a5,a4
    55e6:	00d60a63          	beq	a2,a3,55fa <__subdf3+0x4b8>
    55ea:	04000693          	li	a3,64
    55ee:	40c68633          	sub	a2,a3,a2
    55f2:	00c79633          	sll	a2,a5,a2
    55f6:	00c9e9b3          	or	s3,s3,a2
    55fa:	01303833          	snez	a6,s3
    55fe:	00e869b3          	or	s3,a6,a4
    5602:	4601                	li	a2,0
    5604:	4481                	li	s1,0
    5606:	bd1d                	j	543c <__subdf3+0x2fa>
    5608:	01df09b3          	add	s3,t5,t4
    560c:	00e307b3          	add	a5,t1,a4
    5610:	01e9bf33          	sltu	t5,s3,t5
    5614:	01e78633          	add	a2,a5,t5
    5618:	00861793          	slli	a5,a2,0x8
    561c:	4485                	li	s1,1
    561e:	e007dfe3          	bgez	a5,543c <__subdf3+0x2fa>
    5622:	4489                	li	s1,2
    5624:	ff8007b7          	lui	a5,0xff800
    5628:	17fd                	addi	a5,a5,-1
    562a:	8ff1                	and	a5,a5,a2
    562c:	0019d713          	srli	a4,s3,0x1
    5630:	0019f813          	andi	a6,s3,1
    5634:	01076833          	or	a6,a4,a6
    5638:	01f79993          	slli	s3,a5,0x1f
    563c:	0109e9b3          	or	s3,s3,a6
    5640:	0017d613          	srli	a2,a5,0x1
    5644:	b911                	j	5258 <__subdf3+0x116>
    5646:	fe058813          	addi	a6,a1,-32
    564a:	02000793          	li	a5,32
    564e:	010759b3          	srl	s3,a4,a6
    5652:	00f58a63          	beq	a1,a5,5666 <__subdf3+0x524>
    5656:	04000793          	li	a5,64
    565a:	40b785b3          	sub	a1,a5,a1
    565e:	00b71733          	sll	a4,a4,a1
    5662:	00eeeeb3          	or	t4,t4,a4
    5666:	01d03833          	snez	a6,t4
    566a:	01386833          	or	a6,a6,s3
    566e:	bea5                	j	51e6 <__subdf3+0xa4>
    5670:	01e36333          	or	t1,t1,t5
    5674:	00603833          	snez	a6,t1
    5678:	410e89b3          	sub	s3,t4,a6
    567c:	013eb7b3          	sltu	a5,t4,s3
    5680:	40f70633          	sub	a2,a4,a5
    5684:	84c6                	mv	s1,a7
    5686:	8436                	mv	s0,a3
    5688:	b6ad                	j	51f2 <__subdf3+0xb0>
    568a:	01e367b3          	or	a5,t1,t5
    568e:	18078763          	beqz	a5,581c <__subdf3+0x6da>
    5692:	fff58793          	addi	a5,a1,-1
    5696:	1c078c63          	beqz	a5,586e <__subdf3+0x72c>
    569a:	7ff00693          	li	a3,2047
    569e:	0ad58e63          	beq	a1,a3,575a <__subdf3+0x618>
    56a2:	85be                	mv	a1,a5
    56a4:	bd65                	j	555c <__subdf3+0x41a>
    56a6:	02000793          	li	a5,32
    56aa:	8f8d                	sub	a5,a5,a1
    56ac:	00bed9b3          	srl	s3,t4,a1
    56b0:	00f71833          	sll	a6,a4,a5
    56b4:	00fe9eb3          	sll	t4,t4,a5
    56b8:	01386833          	or	a6,a6,s3
    56bc:	00b75733          	srl	a4,a4,a1
    56c0:	01d039b3          	snez	s3,t4
    56c4:	01386833          	or	a6,a6,s3
    56c8:	933a                	add	t1,t1,a4
    56ca:	b365                	j	5472 <__subdf3+0x330>
    56cc:	00361813          	slli	a6,a2,0x3
    56d0:	01d71793          	slli	a5,a4,0x1d
    56d4:	00385813          	srli	a6,a6,0x3
    56d8:	0107e833          	or	a6,a5,a6
    56dc:	8436                	mv	s0,a3
    56de:	00375793          	srli	a5,a4,0x3
    56e2:	bb95                	j	5456 <__subdf3+0x314>
    56e4:	cbbd                	beqz	a5,575a <__subdf3+0x618>
    56e6:	01d76733          	or	a4,a4,t4
    56ea:	dc071be3          	bnez	a4,54c0 <__subdf3+0x37e>
    56ee:	050e                	slli	a0,a0,0x3
    56f0:	01d31813          	slli	a6,t1,0x1d
    56f4:	810d                	srli	a0,a0,0x3
    56f6:	00a86833          	or	a6,a6,a0
    56fa:	00335793          	srli	a5,t1,0x3
    56fe:	bb75                	j	54ba <__subdf3+0x378>
    5700:	e2080fe3          	beqz	a6,553e <__subdf3+0x3fc>
    5704:	00361813          	slli	a6,a2,0x3
    5708:	01d71793          	slli	a5,a4,0x1d
    570c:	00385813          	srli	a6,a6,0x3
    5710:	00f86833          	or	a6,a6,a5
    5714:	8436                	mv	s0,a3
    5716:	00375793          	srli	a5,a4,0x3
    571a:	b391                	j	545e <__subdf3+0x31c>
    571c:	41df09b3          	sub	s3,t5,t4
    5720:	40e307b3          	sub	a5,t1,a4
    5724:	013f3f33          	sltu	t5,t5,s3
    5728:	41e78633          	sub	a2,a5,t5
    572c:	4485                	li	s1,1
    572e:	b4d1                	j	51f2 <__subdf3+0xb0>
    5730:	00351813          	slli	a6,a0,0x3
    5734:	01d31693          	slli	a3,t1,0x1d
    5738:	00385813          	srli	a6,a6,0x3
    573c:	0106e833          	or	a6,a3,a6
    5740:	00335793          	srli	a5,t1,0x3
    5744:	bb9d                	j	54ba <__subdf3+0x378>
    5746:	41ee89b3          	sub	s3,t4,t5
    574a:	40670633          	sub	a2,a4,t1
    574e:	013eb933          	sltu	s2,t4,s3
    5752:	41260933          	sub	s2,a2,s2
    5756:	8436                	mv	s0,a3
    5758:	b475                	j	5204 <__subdf3+0xc2>
    575a:	060e                	slli	a2,a2,0x3
    575c:	01d71813          	slli	a6,a4,0x1d
    5760:	820d                	srli	a2,a2,0x3
    5762:	00c86833          	or	a6,a6,a2
    5766:	00375793          	srli	a5,a4,0x3
    576a:	bb81                	j	54ba <__subdf3+0x378>
    576c:	41df09b3          	sub	s3,t5,t4
    5770:	40e307b3          	sub	a5,t1,a4
    5774:	013f3633          	sltu	a2,t5,s3
    5778:	40c78633          	sub	a2,a5,a2
    577c:	00861793          	slli	a5,a2,0x8
    5780:	0a07d763          	bgez	a5,582e <__subdf3+0x6ec>
    5784:	41ee89b3          	sub	s3,t4,t5
    5788:	406707b3          	sub	a5,a4,t1
    578c:	013ebeb3          	sltu	t4,t4,s3
    5790:	41d78633          	sub	a2,a5,t4
    5794:	8436                	mv	s0,a3
    5796:	b4c9                	j	5258 <__subdf3+0x116>
    5798:	01e36333          	or	t1,t1,t5
    579c:	00603833          	snez	a6,t1
    57a0:	b3fd                	j	558e <__subdf3+0x44c>
    57a2:	fe058813          	addi	a6,a1,-32
    57a6:	02000793          	li	a5,32
    57aa:	010359b3          	srl	s3,t1,a6
    57ae:	00f58a63          	beq	a1,a5,57c2 <__subdf3+0x680>
    57b2:	04000793          	li	a5,64
    57b6:	40b785b3          	sub	a1,a5,a1
    57ba:	00b31333          	sll	t1,t1,a1
    57be:	006f6f33          	or	t5,t5,t1
    57c2:	01e03833          	snez	a6,t5
    57c6:	01386833          	or	a6,a6,s3
    57ca:	b57d                	j	5678 <__subdf3+0x536>
    57cc:	41ee89b3          	sub	s3,t4,t5
    57d0:	406707b3          	sub	a5,a4,t1
    57d4:	013ebeb3          	sltu	t4,t4,s3
    57d8:	41d78633          	sub	a2,a5,t4
    57dc:	8436                	mv	s0,a3
    57de:	4485                	li	s1,1
    57e0:	bc09                	j	51f2 <__subdf3+0xb0>
    57e2:	00361813          	slli	a6,a2,0x3
    57e6:	01d71793          	slli	a5,a4,0x1d
    57ea:	00385813          	srli	a6,a6,0x3
    57ee:	00f86833          	or	a6,a6,a5
    57f2:	00375793          	srli	a5,a4,0x3
    57f6:	b1a5                	j	545e <__subdf3+0x31c>
    57f8:	01df09b3          	add	s3,t5,t4
    57fc:	00e307b3          	add	a5,t1,a4
    5800:	01e9bf33          	sltu	t5,s3,t5
    5804:	01e78633          	add	a2,a5,t5
    5808:	00861793          	slli	a5,a2,0x8
    580c:	c207d8e3          	bgez	a5,543c <__subdf3+0x2fa>
    5810:	ff8007b7          	lui	a5,0xff800
    5814:	17fd                	addi	a5,a5,-1
    5816:	8e7d                	and	a2,a2,a5
    5818:	4485                	li	s1,1
    581a:	b10d                	j	543c <__subdf3+0x2fa>
    581c:	060e                	slli	a2,a2,0x3
    581e:	01d71813          	slli	a6,a4,0x1d
    5822:	820d                	srli	a2,a2,0x3
    5824:	00c86833          	or	a6,a6,a2
    5828:	00375793          	srli	a5,a4,0x3
    582c:	b12d                	j	5456 <__subdf3+0x314>
    582e:	00c9e833          	or	a6,s3,a2
    5832:	d00806e3          	beqz	a6,553e <__subdf3+0x3fc>
    5836:	b119                	j	543c <__subdf3+0x2fa>
    5838:	fe058813          	addi	a6,a1,-32
    583c:	02000793          	li	a5,32
    5840:	010359b3          	srl	s3,t1,a6
    5844:	00f58a63          	beq	a1,a5,5858 <__subdf3+0x716>
    5848:	04000793          	li	a5,64
    584c:	40b785b3          	sub	a1,a5,a1
    5850:	00b31333          	sll	t1,t1,a1
    5854:	006f6f33          	or	t5,t5,t1
    5858:	01e03833          	snez	a6,t5
    585c:	01386833          	or	a6,a6,s3
    5860:	b33d                	j	558e <__subdf3+0x44c>
    5862:	4401                	li	s0,0
    5864:	7ff00713          	li	a4,2047
    5868:	000807b7          	lui	a5,0x80
    586c:	bc2d                	j	52a6 <__subdf3+0x164>
    586e:	01df09b3          	add	s3,t5,t4
    5872:	00e307b3          	add	a5,t1,a4
    5876:	01d9beb3          	sltu	t4,s3,t4
    587a:	01d78633          	add	a2,a5,t4
    587e:	bb69                	j	5618 <__subdf3+0x4d6>

00005880 <__fixdfsi>:
    5880:	0145d793          	srli	a5,a1,0x14
    5884:	001006b7          	lui	a3,0x100
    5888:	fff68713          	addi	a4,a3,-1 # fffff <_data_lma+0xf885b>
    588c:	7ff7f793          	andi	a5,a5,2047
    5890:	3fe00613          	li	a2,1022
    5894:	8f6d                	and	a4,a4,a1
    5896:	81fd                	srli	a1,a1,0x1f
    5898:	00f65c63          	bge	a2,a5,58b0 <__fixdfsi+0x30>
    589c:	41d00613          	li	a2,1053
    58a0:	00f65a63          	bge	a2,a5,58b4 <__fixdfsi+0x34>
    58a4:	80000537          	lui	a0,0x80000
    58a8:	fff54513          	not	a0,a0
    58ac:	952e                	add	a0,a0,a1
    58ae:	8082                	ret
    58b0:	4501                	li	a0,0
    58b2:	8082                	ret
    58b4:	43300613          	li	a2,1075
    58b8:	8e1d                	sub	a2,a2,a5
    58ba:	487d                	li	a6,31
    58bc:	8f55                	or	a4,a4,a3
    58be:	00c85d63          	bge	a6,a2,58d8 <__fixdfsi+0x58>
    58c2:	41300693          	li	a3,1043
    58c6:	40f687b3          	sub	a5,a3,a5
    58ca:	00f757b3          	srl	a5,a4,a5
    58ce:	40f00533          	neg	a0,a5
    58d2:	f1e5                	bnez	a1,58b2 <__fixdfsi+0x32>
    58d4:	853e                	mv	a0,a5
    58d6:	8082                	ret
    58d8:	bed78793          	addi	a5,a5,-1043 # 7fbed <_data_lma+0x78449>
    58dc:	00f717b3          	sll	a5,a4,a5
    58e0:	00c55533          	srl	a0,a0,a2
    58e4:	8fc9                	or	a5,a5,a0
    58e6:	b7e5                	j	58ce <__fixdfsi+0x4e>

000058e8 <__fixunsdfsi>:
    58e8:	0145d793          	srli	a5,a1,0x14
    58ec:	001006b7          	lui	a3,0x100
    58f0:	fff68713          	addi	a4,a3,-1 # fffff <_data_lma+0xf885b>
    58f4:	7ff7f793          	andi	a5,a5,2047
    58f8:	3fe00613          	li	a2,1022
    58fc:	882a                	mv	a6,a0
    58fe:	8f6d                	and	a4,a4,a1
    5900:	4501                	li	a0,0
    5902:	81fd                	srli	a1,a1,0x1f
    5904:	00f65463          	bge	a2,a5,590c <__fixunsdfsi+0x24>
    5908:	c199                	beqz	a1,590e <__fixunsdfsi+0x26>
    590a:	8082                	ret
    590c:	8082                	ret
    590e:	41e00613          	li	a2,1054
    5912:	557d                	li	a0,-1
    5914:	fef64be3          	blt	a2,a5,590a <__fixunsdfsi+0x22>
    5918:	43300513          	li	a0,1075
    591c:	8d1d                	sub	a0,a0,a5
    591e:	467d                	li	a2,31
    5920:	8f55                	or	a4,a4,a3
    5922:	00a64a63          	blt	a2,a0,5936 <__fixunsdfsi+0x4e>
    5926:	bed78793          	addi	a5,a5,-1043
    592a:	00f71733          	sll	a4,a4,a5
    592e:	00a85533          	srl	a0,a6,a0
    5932:	8d59                	or	a0,a0,a4
    5934:	8082                	ret
    5936:	41300513          	li	a0,1043
    593a:	40f507b3          	sub	a5,a0,a5
    593e:	00f75533          	srl	a0,a4,a5
    5942:	8082                	ret

00005944 <__floatsidf>:
    5944:	1141                	addi	sp,sp,-16
    5946:	c606                	sw	ra,12(sp)
    5948:	c422                	sw	s0,8(sp)
    594a:	c226                	sw	s1,4(sp)
    594c:	cd0d                	beqz	a0,5986 <__floatsidf+0x42>
    594e:	41f55793          	srai	a5,a0,0x1f
    5952:	00a7c4b3          	xor	s1,a5,a0
    5956:	8c9d                	sub	s1,s1,a5
    5958:	842a                	mv	s0,a0
    595a:	8526                	mv	a0,s1
    595c:	7af000ef          	jal	ra,690a <__clzsi2>
    5960:	41e00693          	li	a3,1054
    5964:	8e89                	sub	a3,a3,a0
    5966:	47a9                	li	a5,10
    5968:	807d                	srli	s0,s0,0x1f
    596a:	7ff6f693          	andi	a3,a3,2047
    596e:	02a7cd63          	blt	a5,a0,59a8 <__floatsidf+0x64>
    5972:	472d                	li	a4,11
    5974:	8f09                	sub	a4,a4,a0
    5976:	00e4d7b3          	srl	a5,s1,a4
    597a:	0555                	addi	a0,a0,21
    597c:	07b2                	slli	a5,a5,0xc
    597e:	00a494b3          	sll	s1,s1,a0
    5982:	83b1                	srli	a5,a5,0xc
    5984:	a029                	j	598e <__floatsidf+0x4a>
    5986:	4401                	li	s0,0
    5988:	4681                	li	a3,0
    598a:	4781                	li	a5,0
    598c:	4481                	li	s1,0
    598e:	07b2                	slli	a5,a5,0xc
    5990:	06d2                	slli	a3,a3,0x14
    5992:	83b1                	srli	a5,a5,0xc
    5994:	047e                	slli	s0,s0,0x1f
    5996:	8fd5                	or	a5,a5,a3
    5998:	8fc1                	or	a5,a5,s0
    599a:	40b2                	lw	ra,12(sp)
    599c:	4422                	lw	s0,8(sp)
    599e:	8526                	mv	a0,s1
    59a0:	85be                	mv	a1,a5
    59a2:	4492                	lw	s1,4(sp)
    59a4:	0141                	addi	sp,sp,16
    59a6:	8082                	ret
    59a8:	1555                	addi	a0,a0,-11
    59aa:	00a497b3          	sll	a5,s1,a0
    59ae:	07b2                	slli	a5,a5,0xc
    59b0:	83b1                	srli	a5,a5,0xc
    59b2:	4481                	li	s1,0
    59b4:	bfe9                	j	598e <__floatsidf+0x4a>

000059b6 <__floatunsidf>:
    59b6:	cd1d                	beqz	a0,59f4 <__floatunsidf+0x3e>
    59b8:	1141                	addi	sp,sp,-16
    59ba:	c422                	sw	s0,8(sp)
    59bc:	c606                	sw	ra,12(sp)
    59be:	842a                	mv	s0,a0
    59c0:	74b000ef          	jal	ra,690a <__clzsi2>
    59c4:	41e00693          	li	a3,1054
    59c8:	8e89                	sub	a3,a3,a0
    59ca:	47a9                	li	a5,10
    59cc:	7ff6f693          	andi	a3,a3,2047
    59d0:	02a7dc63          	bge	a5,a0,5a08 <__floatunsidf+0x52>
    59d4:	1555                	addi	a0,a0,-11
    59d6:	00a417b3          	sll	a5,s0,a0
    59da:	07b2                	slli	a5,a5,0xc
    59dc:	83b1                	srli	a5,a5,0xc
    59de:	4701                	li	a4,0
    59e0:	40b2                	lw	ra,12(sp)
    59e2:	4422                	lw	s0,8(sp)
    59e4:	07b2                	slli	a5,a5,0xc
    59e6:	06d2                	slli	a3,a3,0x14
    59e8:	83b1                	srli	a5,a5,0xc
    59ea:	8fd5                	or	a5,a5,a3
    59ec:	853a                	mv	a0,a4
    59ee:	85be                	mv	a1,a5
    59f0:	0141                	addi	sp,sp,16
    59f2:	8082                	ret
    59f4:	4781                	li	a5,0
    59f6:	4681                	li	a3,0
    59f8:	07b2                	slli	a5,a5,0xc
    59fa:	06d2                	slli	a3,a3,0x14
    59fc:	83b1                	srli	a5,a5,0xc
    59fe:	4701                	li	a4,0
    5a00:	8fd5                	or	a5,a5,a3
    5a02:	853a                	mv	a0,a4
    5a04:	85be                	mv	a1,a5
    5a06:	8082                	ret
    5a08:	472d                	li	a4,11
    5a0a:	8f09                	sub	a4,a4,a0
    5a0c:	00e457b3          	srl	a5,s0,a4
    5a10:	07b2                	slli	a5,a5,0xc
    5a12:	01550713          	addi	a4,a0,21 # 80000015 <GEC_USER_RAM_END+0x5ffe0015>
    5a16:	00e41733          	sll	a4,s0,a4
    5a1a:	83b1                	srli	a5,a5,0xc
    5a1c:	b7d1                	j	59e0 <__floatunsidf+0x2a>

00005a1e <__fixunsdfdi>:
    5a1e:	0145d793          	srli	a5,a1,0x14
    5a22:	001006b7          	lui	a3,0x100
    5a26:	fff68713          	addi	a4,a3,-1 # fffff <_data_lma+0xf885b>
    5a2a:	7ff7f793          	andi	a5,a5,2047
    5a2e:	3fe00613          	li	a2,1022
    5a32:	8f6d                	and	a4,a4,a1
    5a34:	81fd                	srli	a1,a1,0x1f
    5a36:	00f65363          	bge	a2,a5,5a3c <__fixunsdfdi+0x1e>
    5a3a:	c581                	beqz	a1,5a42 <__fixunsdfdi+0x24>
    5a3c:	4501                	li	a0,0
    5a3e:	4581                	li	a1,0
    5a40:	8082                	ret
    5a42:	43e00613          	li	a2,1086
    5a46:	00f65563          	bge	a2,a5,5a50 <__fixunsdfdi+0x32>
    5a4a:	557d                	li	a0,-1
    5a4c:	55fd                	li	a1,-1
    5a4e:	8082                	ret
    5a50:	43200613          	li	a2,1074
    5a54:	00d765b3          	or	a1,a4,a3
    5a58:	00f65c63          	bge	a2,a5,5a70 <__fixunsdfdi+0x52>
    5a5c:	bad78713          	addi	a4,a5,-1107
    5a60:	bcd78793          	addi	a5,a5,-1075
    5a64:	04074063          	bltz	a4,5aa4 <__fixunsdfdi+0x86>
    5a68:	00e515b3          	sll	a1,a0,a4
    5a6c:	4501                	li	a0,0
    5a6e:	8082                	ret
    5a70:	43300693          	li	a3,1075
    5a74:	8e9d                	sub	a3,a3,a5
    5a76:	477d                	li	a4,31
    5a78:	00d75b63          	bge	a4,a3,5a8e <__fixunsdfdi+0x70>
    5a7c:	41300713          	li	a4,1043
    5a80:	40f707b3          	sub	a5,a4,a5
    5a84:	00f5d7b3          	srl	a5,a1,a5
    5a88:	4581                	li	a1,0
    5a8a:	853e                	mv	a0,a5
    5a8c:	8082                	ret
    5a8e:	bed78713          	addi	a4,a5,-1043
    5a92:	00e59733          	sll	a4,a1,a4
    5a96:	00d55533          	srl	a0,a0,a3
    5a9a:	00a767b3          	or	a5,a4,a0
    5a9e:	00d5d5b3          	srl	a1,a1,a3
    5aa2:	b7e5                	j	5a8a <__fixunsdfdi+0x6c>
    5aa4:	46fd                	li	a3,31
    5aa6:	00155713          	srli	a4,a0,0x1
    5aaa:	8e9d                	sub	a3,a3,a5
    5aac:	00d75733          	srl	a4,a4,a3
    5ab0:	00f595b3          	sll	a1,a1,a5
    5ab4:	8dd9                	or	a1,a1,a4
    5ab6:	00f51533          	sll	a0,a0,a5
    5aba:	8082                	ret

00005abc <__addsf3>:
    5abc:	1141                	addi	sp,sp,-16
    5abe:	00800737          	lui	a4,0x800
    5ac2:	177d                	addi	a4,a4,-1
    5ac4:	0175d813          	srli	a6,a1,0x17
    5ac8:	c226                	sw	s1,4(sp)
    5aca:	01755493          	srli	s1,a0,0x17
    5ace:	00a77333          	and	t1,a4,a0
    5ad2:	0ff4f493          	andi	s1,s1,255
    5ad6:	00b776b3          	and	a3,a4,a1
    5ada:	c04a                	sw	s2,0(sp)
    5adc:	0ff87813          	andi	a6,a6,255
    5ae0:	01f55913          	srli	s2,a0,0x1f
    5ae4:	c606                	sw	ra,12(sp)
    5ae6:	c422                	sw	s0,8(sp)
    5ae8:	81fd                	srli	a1,a1,0x1f
    5aea:	879a                	mv	a5,t1
    5aec:	8526                	mv	a0,s1
    5aee:	864a                	mv	a2,s2
    5af0:	00331e13          	slli	t3,t1,0x3
    5af4:	00369e93          	slli	t4,a3,0x3
    5af8:	410488b3          	sub	a7,s1,a6
    5afc:	0eb90a63          	beq	s2,a1,5bf0 <__addsf3+0x134>
    5b00:	0d105063          	blez	a7,5bc0 <__addsf3+0x104>
    5b04:	14080463          	beqz	a6,5c4c <__addsf3+0x190>
    5b08:	0ff00793          	li	a5,255
    5b0c:	14f48b63          	beq	s1,a5,5c62 <__addsf3+0x1a6>
    5b10:	040007b7          	lui	a5,0x4000
    5b14:	00feeeb3          	or	t4,t4,a5
    5b18:	47ed                	li	a5,27
    5b1a:	2917c163          	blt	a5,a7,5d9c <__addsf3+0x2e0>
    5b1e:	02000793          	li	a5,32
    5b22:	411787b3          	sub	a5,a5,a7
    5b26:	00fe97b3          	sll	a5,t4,a5
    5b2a:	011ed8b3          	srl	a7,t4,a7
    5b2e:	00f037b3          	snez	a5,a5
    5b32:	00f8e7b3          	or	a5,a7,a5
    5b36:	40fe07b3          	sub	a5,t3,a5
    5b3a:	00579713          	slli	a4,a5,0x5
    5b3e:	18075e63          	bgez	a4,5cda <__addsf3+0x21e>
    5b42:	04000437          	lui	s0,0x4000
    5b46:	147d                	addi	s0,s0,-1
    5b48:	8c7d                	and	s0,s0,a5
    5b4a:	8522                	mv	a0,s0
    5b4c:	5bf000ef          	jal	ra,690a <__clzsi2>
    5b50:	156d                	addi	a0,a0,-5
    5b52:	00a417b3          	sll	a5,s0,a0
    5b56:	1a954863          	blt	a0,s1,5d06 <__addsf3+0x24a>
    5b5a:	8d05                	sub	a0,a0,s1
    5b5c:	00150413          	addi	s0,a0,1
    5b60:	02000713          	li	a4,32
    5b64:	8f01                	sub	a4,a4,s0
    5b66:	00e79733          	sll	a4,a5,a4
    5b6a:	00e03733          	snez	a4,a4
    5b6e:	0087d7b3          	srl	a5,a5,s0
    5b72:	8fd9                	or	a5,a5,a4
    5b74:	4481                	li	s1,0
    5b76:	0077f713          	andi	a4,a5,7
    5b7a:	c719                	beqz	a4,5b88 <__addsf3+0xcc>
    5b7c:	00f7f713          	andi	a4,a5,15
    5b80:	4691                	li	a3,4
    5b82:	00d70363          	beq	a4,a3,5b88 <__addsf3+0xcc>
    5b86:	0791                	addi	a5,a5,4
    5b88:	00579713          	slli	a4,a5,0x5
    5b8c:	14075b63          	bgez	a4,5ce2 <__addsf3+0x226>
    5b90:	0485                	addi	s1,s1,1
    5b92:	0ff00713          	li	a4,255
    5b96:	864a                	mv	a2,s2
    5b98:	16e48363          	beq	s1,a4,5cfe <__addsf3+0x242>
    5b9c:	079a                	slli	a5,a5,0x6
    5b9e:	83a5                	srli	a5,a5,0x9
    5ba0:	0ff4f513          	andi	a0,s1,255
    5ba4:	40b2                	lw	ra,12(sp)
    5ba6:	4422                	lw	s0,8(sp)
    5ba8:	07a6                	slli	a5,a5,0x9
    5baa:	01751493          	slli	s1,a0,0x17
    5bae:	0097d513          	srli	a0,a5,0x9
    5bb2:	8d45                	or	a0,a0,s1
    5bb4:	067e                	slli	a2,a2,0x1f
    5bb6:	4492                	lw	s1,4(sp)
    5bb8:	4902                	lw	s2,0(sp)
    5bba:	8d51                	or	a0,a0,a2
    5bbc:	0141                	addi	sp,sp,16
    5bbe:	8082                	ret
    5bc0:	0a089963          	bnez	a7,5c72 <__addsf3+0x1b6>
    5bc4:	00148713          	addi	a4,s1,1
    5bc8:	0fe77713          	andi	a4,a4,254
    5bcc:	14071763          	bnez	a4,5d1a <__addsf3+0x25e>
    5bd0:	22049063          	bnez	s1,5df0 <__addsf3+0x334>
    5bd4:	1e0e0d63          	beqz	t3,5dce <__addsf3+0x312>
    5bd8:	fc0e86e3          	beqz	t4,5ba4 <__addsf3+0xe8>
    5bdc:	41de07b3          	sub	a5,t3,t4
    5be0:	00579713          	slli	a4,a5,0x5
    5be4:	22075063          	bgez	a4,5e04 <__addsf3+0x348>
    5be8:	41ce87b3          	sub	a5,t4,t3
    5bec:	892e                	mv	s2,a1
    5bee:	b761                	j	5b76 <__addsf3+0xba>
    5bf0:	0b105c63          	blez	a7,5ca8 <__addsf3+0x1ec>
    5bf4:	08080e63          	beqz	a6,5c90 <__addsf3+0x1d4>
    5bf8:	0ff00793          	li	a5,255
    5bfc:	06f48363          	beq	s1,a5,5c62 <__addsf3+0x1a6>
    5c00:	040007b7          	lui	a5,0x4000
    5c04:	00feeeb3          	or	t4,t4,a5
    5c08:	47ed                	li	a5,27
    5c0a:	1f17c963          	blt	a5,a7,5dfc <__addsf3+0x340>
    5c0e:	02000793          	li	a5,32
    5c12:	411787b3          	sub	a5,a5,a7
    5c16:	00fe97b3          	sll	a5,t4,a5
    5c1a:	011ed8b3          	srl	a7,t4,a7
    5c1e:	00f037b3          	snez	a5,a5
    5c22:	00f8e7b3          	or	a5,a7,a5
    5c26:	97f2                	add	a5,a5,t3
    5c28:	00579713          	slli	a4,a5,0x5
    5c2c:	0a075763          	bgez	a4,5cda <__addsf3+0x21e>
    5c30:	0485                	addi	s1,s1,1
    5c32:	0ff00713          	li	a4,255
    5c36:	0ce48463          	beq	s1,a4,5cfe <__addsf3+0x242>
    5c3a:	7e0006b7          	lui	a3,0x7e000
    5c3e:	0017d713          	srli	a4,a5,0x1
    5c42:	16fd                	addi	a3,a3,-1
    5c44:	8b85                	andi	a5,a5,1
    5c46:	8f75                	and	a4,a4,a3
    5c48:	8fd9                	or	a5,a5,a4
    5c4a:	b735                	j	5b76 <__addsf3+0xba>
    5c4c:	080e8d63          	beqz	t4,5ce6 <__addsf3+0x22a>
    5c50:	18fd                	addi	a7,a7,-1
    5c52:	41de07b3          	sub	a5,t3,t4
    5c56:	ee0882e3          	beqz	a7,5b3a <__addsf3+0x7e>
    5c5a:	0ff00793          	li	a5,255
    5c5e:	eaf49de3          	bne	s1,a5,5b18 <__addsf3+0x5c>
    5c62:	08030d63          	beqz	t1,5cfc <__addsf3+0x240>
    5c66:	4601                	li	a2,0
    5c68:	0ff00513          	li	a0,255
    5c6c:	004007b7          	lui	a5,0x400
    5c70:	bf15                	j	5ba4 <__addsf3+0xe8>
    5c72:	40980733          	sub	a4,a6,s1
    5c76:	e8ed                	bnez	s1,5d68 <__addsf3+0x2ac>
    5c78:	140e0263          	beqz	t3,5dbc <__addsf3+0x300>
    5c7c:	177d                	addi	a4,a4,-1
    5c7e:	18070863          	beqz	a4,5e0e <__addsf3+0x352>
    5c82:	0ff00793          	li	a5,255
    5c86:	0ef81963          	bne	a6,a5,5d78 <__addsf3+0x2bc>
    5c8a:	892e                	mv	s2,a1
    5c8c:	8336                	mv	t1,a3
    5c8e:	bfd1                	j	5c62 <__addsf3+0x1a6>
    5c90:	040e8b63          	beqz	t4,5ce6 <__addsf3+0x22a>
    5c94:	18fd                	addi	a7,a7,-1
    5c96:	01de07b3          	add	a5,t3,t4
    5c9a:	f80887e3          	beqz	a7,5c28 <__addsf3+0x16c>
    5c9e:	0ff00793          	li	a5,255
    5ca2:	f6f493e3          	bne	s1,a5,5c08 <__addsf3+0x14c>
    5ca6:	bf75                	j	5c62 <__addsf3+0x1a6>
    5ca8:	08089563          	bnez	a7,5d32 <__addsf3+0x276>
    5cac:	0485                	addi	s1,s1,1
    5cae:	0fe4f713          	andi	a4,s1,254
    5cb2:	12071363          	bnez	a4,5dd8 <__addsf3+0x31c>
    5cb6:	10051763          	bnez	a0,5dc4 <__addsf3+0x308>
    5cba:	140e0f63          	beqz	t3,5e18 <__addsf3+0x35c>
    5cbe:	ee0e83e3          	beqz	t4,5ba4 <__addsf3+0xe8>
    5cc2:	01de07b3          	add	a5,t3,t4
    5cc6:	00579713          	slli	a4,a5,0x5
    5cca:	4481                	li	s1,0
    5ccc:	00075763          	bgez	a4,5cda <__addsf3+0x21e>
    5cd0:	fc000737          	lui	a4,0xfc000
    5cd4:	177d                	addi	a4,a4,-1
    5cd6:	8ff9                	and	a5,a5,a4
    5cd8:	4485                	li	s1,1
    5cda:	0077f713          	andi	a4,a5,7
    5cde:	e8071fe3          	bnez	a4,5b7c <__addsf3+0xc0>
    5ce2:	0037d313          	srli	t1,a5,0x3
    5ce6:	0ff00793          	li	a5,255
    5cea:	f6f48ce3          	beq	s1,a5,5c62 <__addsf3+0x1a6>
    5cee:	00931793          	slli	a5,t1,0x9
    5cf2:	83a5                	srli	a5,a5,0x9
    5cf4:	0ff4f513          	andi	a0,s1,255
    5cf8:	864a                	mv	a2,s2
    5cfa:	b56d                	j	5ba4 <__addsf3+0xe8>
    5cfc:	864a                	mv	a2,s2
    5cfe:	0ff00513          	li	a0,255
    5d02:	4781                	li	a5,0
    5d04:	b545                	j	5ba4 <__addsf3+0xe8>
    5d06:	fc000737          	lui	a4,0xfc000
    5d0a:	177d                	addi	a4,a4,-1
    5d0c:	8ff9                	and	a5,a5,a4
    5d0e:	0077f713          	andi	a4,a5,7
    5d12:	8c89                	sub	s1,s1,a0
    5d14:	e60714e3          	bnez	a4,5b7c <__addsf3+0xc0>
    5d18:	b7e9                	j	5ce2 <__addsf3+0x226>
    5d1a:	41de0433          	sub	s0,t3,t4
    5d1e:	00541793          	slli	a5,s0,0x5
    5d22:	0c07c363          	bltz	a5,5de8 <__addsf3+0x32c>
    5d26:	e20412e3          	bnez	s0,5b4a <__addsf3+0x8e>
    5d2a:	4601                	li	a2,0
    5d2c:	4501                	li	a0,0
    5d2e:	4781                	li	a5,0
    5d30:	bd95                	j	5ba4 <__addsf3+0xe8>
    5d32:	40980733          	sub	a4,a6,s1
    5d36:	c4ad                	beqz	s1,5da0 <__addsf3+0x2e4>
    5d38:	0ff00793          	li	a5,255
    5d3c:	f4f808e3          	beq	a6,a5,5c8c <__addsf3+0x1d0>
    5d40:	040007b7          	lui	a5,0x4000
    5d44:	00fe6e33          	or	t3,t3,a5
    5d48:	47ed                	li	a5,27
    5d4a:	0ce7cc63          	blt	a5,a4,5e22 <__addsf3+0x366>
    5d4e:	02000793          	li	a5,32
    5d52:	8f99                	sub	a5,a5,a4
    5d54:	00fe17b3          	sll	a5,t3,a5
    5d58:	00ee5733          	srl	a4,t3,a4
    5d5c:	00f037b3          	snez	a5,a5
    5d60:	8fd9                	or	a5,a5,a4
    5d62:	97f6                	add	a5,a5,t4
    5d64:	84c2                	mv	s1,a6
    5d66:	b5c9                	j	5c28 <__addsf3+0x16c>
    5d68:	0ff00793          	li	a5,255
    5d6c:	f0f80fe3          	beq	a6,a5,5c8a <__addsf3+0x1ce>
    5d70:	040007b7          	lui	a5,0x4000
    5d74:	00fe6e33          	or	t3,t3,a5
    5d78:	47ed                	li	a5,27
    5d7a:	08e7c363          	blt	a5,a4,5e00 <__addsf3+0x344>
    5d7e:	02000693          	li	a3,32
    5d82:	8e99                	sub	a3,a3,a4
    5d84:	00de16b3          	sll	a3,t3,a3
    5d88:	00ee57b3          	srl	a5,t3,a4
    5d8c:	00d03733          	snez	a4,a3
    5d90:	8fd9                	or	a5,a5,a4
    5d92:	40fe87b3          	sub	a5,t4,a5
    5d96:	84c2                	mv	s1,a6
    5d98:	892e                	mv	s2,a1
    5d9a:	b345                	j	5b3a <__addsf3+0x7e>
    5d9c:	4785                	li	a5,1
    5d9e:	bb61                	j	5b36 <__addsf3+0x7a>
    5da0:	060e0e63          	beqz	t3,5e1c <__addsf3+0x360>
    5da4:	177d                	addi	a4,a4,-1
    5da6:	01de07b3          	add	a5,t3,t4
    5daa:	84c2                	mv	s1,a6
    5dac:	e6070ee3          	beqz	a4,5c28 <__addsf3+0x16c>
    5db0:	0ff00793          	li	a5,255
    5db4:	f8f81ae3          	bne	a6,a5,5d48 <__addsf3+0x28c>
    5db8:	8336                	mv	t1,a3
    5dba:	b565                	j	5c62 <__addsf3+0x1a6>
    5dbc:	8336                	mv	t1,a3
    5dbe:	84c2                	mv	s1,a6
    5dc0:	892e                	mv	s2,a1
    5dc2:	b715                	j	5ce6 <__addsf3+0x22a>
    5dc4:	ec0e04e3          	beqz	t3,5c8c <__addsf3+0x1d0>
    5dc8:	e80e8de3          	beqz	t4,5c62 <__addsf3+0x1a6>
    5dcc:	bd69                	j	5c66 <__addsf3+0x1aa>
    5dce:	020e8d63          	beqz	t4,5e08 <__addsf3+0x34c>
    5dd2:	862e                	mv	a2,a1
    5dd4:	87b6                	mv	a5,a3
    5dd6:	b3f9                	j	5ba4 <__addsf3+0xe8>
    5dd8:	0ff00793          	li	a5,255
    5ddc:	f2f481e3          	beq	s1,a5,5cfe <__addsf3+0x242>
    5de0:	01de07b3          	add	a5,t3,t4
    5de4:	8385                	srli	a5,a5,0x1
    5de6:	bdd5                	j	5cda <__addsf3+0x21e>
    5de8:	41ce8433          	sub	s0,t4,t3
    5dec:	892e                	mv	s2,a1
    5dee:	bbb1                	j	5b4a <__addsf3+0x8e>
    5df0:	fc0e1ce3          	bnez	t3,5dc8 <__addsf3+0x30c>
    5df4:	e60e89e3          	beqz	t4,5c66 <__addsf3+0x1aa>
    5df8:	892e                	mv	s2,a1
    5dfa:	bd49                	j	5c8c <__addsf3+0x1d0>
    5dfc:	4785                	li	a5,1
    5dfe:	b525                	j	5c26 <__addsf3+0x16a>
    5e00:	4785                	li	a5,1
    5e02:	bf41                	j	5d92 <__addsf3+0x2d6>
    5e04:	ec079be3          	bnez	a5,5cda <__addsf3+0x21e>
    5e08:	4601                	li	a2,0
    5e0a:	4781                	li	a5,0
    5e0c:	bb61                	j	5ba4 <__addsf3+0xe8>
    5e0e:	41ce87b3          	sub	a5,t4,t3
    5e12:	84c2                	mv	s1,a6
    5e14:	892e                	mv	s2,a1
    5e16:	b315                	j	5b3a <__addsf3+0x7e>
    5e18:	87b6                	mv	a5,a3
    5e1a:	b369                	j	5ba4 <__addsf3+0xe8>
    5e1c:	8336                	mv	t1,a3
    5e1e:	84c2                	mv	s1,a6
    5e20:	b5d9                	j	5ce6 <__addsf3+0x22a>
    5e22:	4785                	li	a5,1
    5e24:	bf3d                	j	5d62 <__addsf3+0x2a6>

00005e26 <__divsf3>:
    5e26:	7139                	addi	sp,sp,-64
    5e28:	01755793          	srli	a5,a0,0x17
    5e2c:	d84a                	sw	s2,48(sp)
    5e2e:	d256                	sw	s5,36(sp)
    5e30:	ce5e                	sw	s7,28(sp)
    5e32:	00951a93          	slli	s5,a0,0x9
    5e36:	01f55913          	srli	s2,a0,0x1f
    5e3a:	de06                	sw	ra,60(sp)
    5e3c:	dc22                	sw	s0,56(sp)
    5e3e:	da26                	sw	s1,52(sp)
    5e40:	d64e                	sw	s3,44(sp)
    5e42:	d452                	sw	s4,40(sp)
    5e44:	d05a                	sw	s6,32(sp)
    5e46:	0ff7f793          	andi	a5,a5,255
    5e4a:	009ada93          	srli	s5,s5,0x9
    5e4e:	8bca                	mv	s7,s2
    5e50:	12078263          	beqz	a5,5f74 <__divsf3+0x14e>
    5e54:	0ff00713          	li	a4,255
    5e58:	12e78463          	beq	a5,a4,5f80 <__divsf3+0x15a>
    5e5c:	0a8e                	slli	s5,s5,0x3
    5e5e:	04000737          	lui	a4,0x4000
    5e62:	00eaeab3          	or	s5,s5,a4
    5e66:	f8178a13          	addi	s4,a5,-127 # 3ffff81 <_data_lma+0x3ff87dd>
    5e6a:	4401                	li	s0,0
    5e6c:	4b01                	li	s6,0
    5e6e:	0175d793          	srli	a5,a1,0x17
    5e72:	00959493          	slli	s1,a1,0x9
    5e76:	0ff7f793          	andi	a5,a5,255
    5e7a:	80a5                	srli	s1,s1,0x9
    5e7c:	01f5d993          	srli	s3,a1,0x1f
    5e80:	c7fd                	beqz	a5,5f6e <__divsf3+0x148>
    5e82:	0ff00713          	li	a4,255
    5e86:	02e78763          	beq	a5,a4,5eb4 <__divsf3+0x8e>
    5e8a:	048e                	slli	s1,s1,0x3
    5e8c:	f8178793          	addi	a5,a5,-127
    5e90:	04000737          	lui	a4,0x4000
    5e94:	8cd9                	or	s1,s1,a4
    5e96:	40fa0a33          	sub	s4,s4,a5
    5e9a:	4681                	li	a3,0
    5e9c:	8c55                	or	s0,s0,a3
    5e9e:	00001717          	auipc	a4,0x1
    5ea2:	74670713          	addi	a4,a4,1862 # 75e4 <nAsciiDot+0x79c>
    5ea6:	040a                	slli	s0,s0,0x2
    5ea8:	943a                	add	s0,s0,a4
    5eaa:	401c                	lw	a5,0(s0)
    5eac:	01394933          	xor	s2,s2,s3
    5eb0:	97ba                	add	a5,a5,a4
    5eb2:	8782                	jr	a5
    5eb4:	f01a0a13          	addi	s4,s4,-255
    5eb8:	e8f9                	bnez	s1,5f8e <__divsf3+0x168>
    5eba:	4689                	li	a3,2
    5ebc:	8c55                	or	s0,s0,a3
    5ebe:	00001717          	auipc	a4,0x1
    5ec2:	76670713          	addi	a4,a4,1894 # 7624 <nAsciiDot+0x7dc>
    5ec6:	040a                	slli	s0,s0,0x2
    5ec8:	943a                	add	s0,s0,a4
    5eca:	401c                	lw	a5,0(s0)
    5ecc:	01394933          	xor	s2,s2,s3
    5ed0:	97ba                	add	a5,a5,a4
    5ed2:	8782                	jr	a5
    5ed4:	4901                	li	s2,0
    5ed6:	0ff00713          	li	a4,255
    5eda:	004007b7          	lui	a5,0x400
    5ede:	00979513          	slli	a0,a5,0x9
    5ee2:	50f2                	lw	ra,60(sp)
    5ee4:	5462                	lw	s0,56(sp)
    5ee6:	01771793          	slli	a5,a4,0x17
    5eea:	8125                	srli	a0,a0,0x9
    5eec:	097e                	slli	s2,s2,0x1f
    5eee:	8d5d                	or	a0,a0,a5
    5ef0:	01256533          	or	a0,a0,s2
    5ef4:	54d2                	lw	s1,52(sp)
    5ef6:	5942                	lw	s2,48(sp)
    5ef8:	59b2                	lw	s3,44(sp)
    5efa:	5a22                	lw	s4,40(sp)
    5efc:	5a92                	lw	s5,36(sp)
    5efe:	5b02                	lw	s6,32(sp)
    5f00:	4bf2                	lw	s7,28(sp)
    5f02:	6121                	addi	sp,sp,64
    5f04:	8082                	ret
    5f06:	0ff00713          	li	a4,255
    5f0a:	4781                	li	a5,0
    5f0c:	bfc9                	j	5ede <__divsf3+0xb8>
    5f0e:	8aa6                	mv	s5,s1
    5f10:	8bce                	mv	s7,s3
    5f12:	8b36                	mv	s6,a3
    5f14:	4789                	li	a5,2
    5f16:	1afb0b63          	beq	s6,a5,60cc <__divsf3+0x2a6>
    5f1a:	478d                	li	a5,3
    5f1c:	fafb0ce3          	beq	s6,a5,5ed4 <__divsf3+0xae>
    5f20:	4785                	li	a5,1
    5f22:	0afb0a63          	beq	s6,a5,5fd6 <__divsf3+0x1b0>
    5f26:	07fa0713          	addi	a4,s4,127
    5f2a:	001bf913          	andi	s2,s7,1
    5f2e:	12e05763          	blez	a4,605c <__divsf3+0x236>
    5f32:	007af793          	andi	a5,s5,7
    5f36:	c799                	beqz	a5,5f44 <__divsf3+0x11e>
    5f38:	00faf793          	andi	a5,s5,15
    5f3c:	4691                	li	a3,4
    5f3e:	00d78363          	beq	a5,a3,5f44 <__divsf3+0x11e>
    5f42:	0a91                	addi	s5,s5,4
    5f44:	004a9793          	slli	a5,s5,0x4
    5f48:	0007d963          	bgez	a5,5f5a <__divsf3+0x134>
    5f4c:	f80007b7          	lui	a5,0xf8000
    5f50:	17fd                	addi	a5,a5,-1
    5f52:	00fafab3          	and	s5,s5,a5
    5f56:	080a0713          	addi	a4,s4,128
    5f5a:	0fe00793          	li	a5,254
    5f5e:	fae7c4e3          	blt	a5,a4,5f06 <__divsf3+0xe0>
    5f62:	006a9793          	slli	a5,s5,0x6
    5f66:	83a5                	srli	a5,a5,0x9
    5f68:	0ff77713          	andi	a4,a4,255
    5f6c:	bf8d                	j	5ede <__divsf3+0xb8>
    5f6e:	e4b9                	bnez	s1,5fbc <__divsf3+0x196>
    5f70:	4685                	li	a3,1
    5f72:	b7a9                	j	5ebc <__divsf3+0x96>
    5f74:	020a9463          	bnez	s5,5f9c <__divsf3+0x176>
    5f78:	4411                	li	s0,4
    5f7a:	4a01                	li	s4,0
    5f7c:	4b05                	li	s6,1
    5f7e:	bdc5                	j	5e6e <__divsf3+0x48>
    5f80:	000a9963          	bnez	s5,5f92 <__divsf3+0x16c>
    5f84:	4421                	li	s0,8
    5f86:	0ff00a13          	li	s4,255
    5f8a:	4b09                	li	s6,2
    5f8c:	b5cd                	j	5e6e <__divsf3+0x48>
    5f8e:	468d                	li	a3,3
    5f90:	b731                	j	5e9c <__divsf3+0x76>
    5f92:	4431                	li	s0,12
    5f94:	0ff00a13          	li	s4,255
    5f98:	4b0d                	li	s6,3
    5f9a:	bdd1                	j	5e6e <__divsf3+0x48>
    5f9c:	8556                	mv	a0,s5
    5f9e:	c62e                	sw	a1,12(sp)
    5fa0:	16b000ef          	jal	ra,690a <__clzsi2>
    5fa4:	ffb50793          	addi	a5,a0,-5
    5fa8:	00fa9ab3          	sll	s5,s5,a5
    5fac:	f8a00793          	li	a5,-118
    5fb0:	40a78a33          	sub	s4,a5,a0
    5fb4:	4401                	li	s0,0
    5fb6:	4b01                	li	s6,0
    5fb8:	45b2                	lw	a1,12(sp)
    5fba:	bd55                	j	5e6e <__divsf3+0x48>
    5fbc:	8526                	mv	a0,s1
    5fbe:	14d000ef          	jal	ra,690a <__clzsi2>
    5fc2:	ffb50713          	addi	a4,a0,-5
    5fc6:	00aa07b3          	add	a5,s4,a0
    5fca:	00e494b3          	sll	s1,s1,a4
    5fce:	07678a13          	addi	s4,a5,118 # f8000076 <GEC_USER_RAM_END+0xd7fe0076>
    5fd2:	4681                	li	a3,0
    5fd4:	b5e1                	j	5e9c <__divsf3+0x76>
    5fd6:	001bf913          	andi	s2,s7,1
    5fda:	4701                	li	a4,0
    5fdc:	4781                	li	a5,0
    5fde:	b701                	j	5ede <__divsf3+0xb8>
    5fe0:	6641                	lui	a2,0x10
    5fe2:	00549513          	slli	a0,s1,0x5
    5fe6:	167d                	addi	a2,a2,-1
    5fe8:	01055793          	srli	a5,a0,0x10
    5fec:	8e69                	and	a2,a2,a0
    5fee:	0a9afa63          	bgeu	s5,s1,60a2 <__divsf3+0x27c>
    5ff2:	02fad5b3          	divu	a1,s5,a5
    5ff6:	1a7d                	addi	s4,s4,-1
    5ff8:	86d6                	mv	a3,s5
    5ffa:	4701                	li	a4,0
    5ffc:	02c58833          	mul	a6,a1,a2
    6000:	02f6f6b3          	remu	a3,a3,a5
    6004:	06c2                	slli	a3,a3,0x10
    6006:	8f55                	or	a4,a4,a3
    6008:	01077b63          	bgeu	a4,a6,601e <__divsf3+0x1f8>
    600c:	972a                	add	a4,a4,a0
    600e:	fff58693          	addi	a3,a1,-1
    6012:	0aa76863          	bltu	a4,a0,60c2 <__divsf3+0x29c>
    6016:	0b077663          	bgeu	a4,a6,60c2 <__divsf3+0x29c>
    601a:	15f9                	addi	a1,a1,-2
    601c:	972a                	add	a4,a4,a0
    601e:	41070733          	sub	a4,a4,a6
    6022:	02f756b3          	divu	a3,a4,a5
    6026:	02f77733          	remu	a4,a4,a5
    602a:	02c68ab3          	mul	s5,a3,a2
    602e:	01071793          	slli	a5,a4,0x10
    6032:	0157fb63          	bgeu	a5,s5,6048 <__divsf3+0x222>
    6036:	97aa                	add	a5,a5,a0
    6038:	fff68713          	addi	a4,a3,-1 # 7dffffff <GEC_USER_RAM_END+0x5dfdffff>
    603c:	08a7e163          	bltu	a5,a0,60be <__divsf3+0x298>
    6040:	0757ff63          	bgeu	a5,s5,60be <__divsf3+0x298>
    6044:	16f9                	addi	a3,a3,-2
    6046:	97aa                	add	a5,a5,a0
    6048:	05c2                	slli	a1,a1,0x10
    604a:	41578ab3          	sub	s5,a5,s5
    604e:	8dd5                	or	a1,a1,a3
    6050:	01503ab3          	snez	s5,s5
    6054:	0155eab3          	or	s5,a1,s5
    6058:	8bca                	mv	s7,s2
    605a:	b5f1                	j	5f26 <__divsf3+0x100>
    605c:	4685                	li	a3,1
    605e:	8e99                	sub	a3,a3,a4
    6060:	c711                	beqz	a4,606c <__divsf3+0x246>
    6062:	466d                	li	a2,27
    6064:	4701                	li	a4,0
    6066:	4781                	li	a5,0
    6068:	e6d64be3          	blt	a2,a3,5ede <__divsf3+0xb8>
    606c:	09ea0a13          	addi	s4,s4,158
    6070:	014a9a33          	sll	s4,s5,s4
    6074:	00dad7b3          	srl	a5,s5,a3
    6078:	01403ab3          	snez	s5,s4
    607c:	0157e7b3          	or	a5,a5,s5
    6080:	0077f713          	andi	a4,a5,7
    6084:	c719                	beqz	a4,6092 <__divsf3+0x26c>
    6086:	00f7f713          	andi	a4,a5,15
    608a:	4691                	li	a3,4
    608c:	00d70363          	beq	a4,a3,6092 <__divsf3+0x26c>
    6090:	0791                	addi	a5,a5,4
    6092:	00579713          	slli	a4,a5,0x5
    6096:	02074863          	bltz	a4,60c6 <__divsf3+0x2a0>
    609a:	079a                	slli	a5,a5,0x6
    609c:	83a5                	srli	a5,a5,0x9
    609e:	4701                	li	a4,0
    60a0:	bd3d                	j	5ede <__divsf3+0xb8>
    60a2:	001ad693          	srli	a3,s5,0x1
    60a6:	02f6d5b3          	divu	a1,a3,a5
    60aa:	01fa9713          	slli	a4,s5,0x1f
    60ae:	8341                	srli	a4,a4,0x10
    60b0:	02c58833          	mul	a6,a1,a2
    60b4:	b7b1                	j	6000 <__divsf3+0x1da>
    60b6:	8bce                	mv	s7,s3
    60b8:	8b36                	mv	s6,a3
    60ba:	4a81                	li	s5,0
    60bc:	bda1                	j	5f14 <__divsf3+0xee>
    60be:	86ba                	mv	a3,a4
    60c0:	b761                	j	6048 <__divsf3+0x222>
    60c2:	85b6                	mv	a1,a3
    60c4:	bfa9                	j	601e <__divsf3+0x1f8>
    60c6:	4705                	li	a4,1
    60c8:	4781                	li	a5,0
    60ca:	bd11                	j	5ede <__divsf3+0xb8>
    60cc:	001bf913          	andi	s2,s7,1
    60d0:	0ff00713          	li	a4,255
    60d4:	4781                	li	a5,0
    60d6:	b521                	j	5ede <__divsf3+0xb8>

000060d8 <__gesf2>:
    60d8:	01755693          	srli	a3,a0,0x17
    60dc:	008007b7          	lui	a5,0x800
    60e0:	17fd                	addi	a5,a5,-1
    60e2:	0175d613          	srli	a2,a1,0x17
    60e6:	0ff6f693          	andi	a3,a3,255
    60ea:	0ff00813          	li	a6,255
    60ee:	00a7f8b3          	and	a7,a5,a0
    60f2:	01f55713          	srli	a4,a0,0x1f
    60f6:	8fed                	and	a5,a5,a1
    60f8:	0ff67613          	andi	a2,a2,255
    60fc:	81fd                	srli	a1,a1,0x1f
    60fe:	03068163          	beq	a3,a6,6120 <__gesf2+0x48>
    6102:	01060c63          	beq	a2,a6,611a <__gesf2+0x42>
    6106:	e28d                	bnez	a3,6128 <__gesf2+0x50>
    6108:	e211                	bnez	a2,610c <__gesf2+0x34>
    610a:	c3b1                	beqz	a5,614e <__gesf2+0x76>
    610c:	02088e63          	beqz	a7,6148 <__gesf2+0x70>
    6110:	04b70563          	beq	a4,a1,615a <__gesf2+0x82>
    6114:	4505                	li	a0,1
    6116:	e71d                	bnez	a4,6144 <__gesf2+0x6c>
    6118:	8082                	ret
    611a:	d7f5                	beqz	a5,6106 <__gesf2+0x2e>
    611c:	5579                	li	a0,-2
    611e:	8082                	ret
    6120:	fe089ee3          	bnez	a7,611c <__gesf2+0x44>
    6124:	02d60963          	beq	a2,a3,6156 <__gesf2+0x7e>
    6128:	e211                	bnez	a2,612c <__gesf2+0x54>
    612a:	d7ed                	beqz	a5,6114 <__gesf2+0x3c>
    612c:	feb714e3          	bne	a4,a1,6114 <__gesf2+0x3c>
    6130:	fed642e3          	blt	a2,a3,6114 <__gesf2+0x3c>
    6134:	00c6c763          	blt	a3,a2,6142 <__gesf2+0x6a>
    6138:	fd17eee3          	bltu	a5,a7,6114 <__gesf2+0x3c>
    613c:	4501                	li	a0,0
    613e:	fcf8fde3          	bgeu	a7,a5,6118 <__gesf2+0x40>
    6142:	e701                	bnez	a4,614a <__gesf2+0x72>
    6144:	557d                	li	a0,-1
    6146:	8082                	ret
    6148:	ddf5                	beqz	a1,6144 <__gesf2+0x6c>
    614a:	4505                	li	a0,1
    614c:	8082                	ret
    614e:	4501                	li	a0,0
    6150:	fc0892e3          	bnez	a7,6114 <__gesf2+0x3c>
    6154:	8082                	ret
    6156:	dbf9                	beqz	a5,612c <__gesf2+0x54>
    6158:	b7d1                	j	611c <__gesf2+0x44>
    615a:	4681                	li	a3,0
    615c:	bfe1                	j	6134 <__gesf2+0x5c>

0000615e <__mulsf3>:
    615e:	7179                	addi	sp,sp,-48
    6160:	d422                	sw	s0,40(sp)
    6162:	01755413          	srli	s0,a0,0x17
    6166:	ce4e                	sw	s3,28(sp)
    6168:	cc52                	sw	s4,24(sp)
    616a:	00951993          	slli	s3,a0,0x9
    616e:	d606                	sw	ra,44(sp)
    6170:	d226                	sw	s1,36(sp)
    6172:	d04a                	sw	s2,32(sp)
    6174:	ca56                	sw	s5,20(sp)
    6176:	c85a                	sw	s6,16(sp)
    6178:	0ff47413          	andi	s0,s0,255
    617c:	0099d993          	srli	s3,s3,0x9
    6180:	01f55a13          	srli	s4,a0,0x1f
    6184:	c469                	beqz	s0,624e <__mulsf3+0xf0>
    6186:	0ff00793          	li	a5,255
    618a:	0ef40863          	beq	s0,a5,627a <__mulsf3+0x11c>
    618e:	00399793          	slli	a5,s3,0x3
    6192:	04000737          	lui	a4,0x4000
    6196:	00e7e9b3          	or	s3,a5,a4
    619a:	f8140413          	addi	s0,s0,-127 # 3ffff81 <_data_lma+0x3ff87dd>
    619e:	4481                	li	s1,0
    61a0:	4b01                	li	s6,0
    61a2:	0175d713          	srli	a4,a1,0x17
    61a6:	00959a93          	slli	s5,a1,0x9
    61aa:	0ff77713          	andi	a4,a4,255
    61ae:	009ada93          	srli	s5,s5,0x9
    61b2:	01f5d913          	srli	s2,a1,0x1f
    61b6:	cf45                	beqz	a4,626e <__mulsf3+0x110>
    61b8:	0ff00793          	li	a5,255
    61bc:	02f70c63          	beq	a4,a5,61f4 <__mulsf3+0x96>
    61c0:	0a8e                	slli	s5,s5,0x3
    61c2:	f8170713          	addi	a4,a4,-127 # 3ffff81 <_data_lma+0x3ff87dd>
    61c6:	040007b7          	lui	a5,0x4000
    61ca:	00faeab3          	or	s5,s5,a5
    61ce:	943a                	add	s0,s0,a4
    61d0:	4601                	li	a2,0
    61d2:	012a4533          	xor	a0,s4,s2
    61d6:	47bd                	li	a5,15
    61d8:	86aa                	mv	a3,a0
    61da:	00140593          	addi	a1,s0,1
    61de:	1097e063          	bltu	a5,s1,62de <__mulsf3+0x180>
    61e2:	00001717          	auipc	a4,0x1
    61e6:	48270713          	addi	a4,a4,1154 # 7664 <nAsciiDot+0x81c>
    61ea:	048a                	slli	s1,s1,0x2
    61ec:	94ba                	add	s1,s1,a4
    61ee:	409c                	lw	a5,0(s1)
    61f0:	97ba                	add	a5,a5,a4
    61f2:	8782                	jr	a5
    61f4:	0ff40413          	addi	s0,s0,255
    61f8:	0c0a9663          	bnez	s5,62c4 <__mulsf3+0x166>
    61fc:	0024e493          	ori	s1,s1,2
    6200:	4609                	li	a2,2
    6202:	bfc1                	j	61d2 <__mulsf3+0x74>
    6204:	4501                	li	a0,0
    6206:	0ff00713          	li	a4,255
    620a:	004007b7          	lui	a5,0x400
    620e:	50b2                	lw	ra,44(sp)
    6210:	5422                	lw	s0,40(sp)
    6212:	07a6                	slli	a5,a5,0x9
    6214:	075e                	slli	a4,a4,0x17
    6216:	83a5                	srli	a5,a5,0x9
    6218:	057e                	slli	a0,a0,0x1f
    621a:	8fd9                	or	a5,a5,a4
    621c:	5492                	lw	s1,36(sp)
    621e:	5902                	lw	s2,32(sp)
    6220:	49f2                	lw	s3,28(sp)
    6222:	4a62                	lw	s4,24(sp)
    6224:	4ad2                	lw	s5,20(sp)
    6226:	4b42                	lw	s6,16(sp)
    6228:	8d5d                	or	a0,a0,a5
    622a:	6145                	addi	sp,sp,48
    622c:	8082                	ret
    622e:	86ca                	mv	a3,s2
    6230:	89d6                	mv	s3,s5
    6232:	8b32                	mv	s6,a2
    6234:	4789                	li	a5,2
    6236:	08fb0f63          	beq	s6,a5,62d4 <__mulsf3+0x176>
    623a:	478d                	li	a5,3
    623c:	fcfb04e3          	beq	s6,a5,6204 <__mulsf3+0xa6>
    6240:	4785                	li	a5,1
    6242:	8536                	mv	a0,a3
    6244:	1afb1063          	bne	s6,a5,63e4 <__mulsf3+0x286>
    6248:	4701                	li	a4,0
    624a:	4781                	li	a5,0
    624c:	b7c9                	j	620e <__mulsf3+0xb0>
    624e:	04099d63          	bnez	s3,62a8 <__mulsf3+0x14a>
    6252:	0175d713          	srli	a4,a1,0x17
    6256:	00959a93          	slli	s5,a1,0x9
    625a:	0ff77713          	andi	a4,a4,255
    625e:	4491                	li	s1,4
    6260:	4401                	li	s0,0
    6262:	4b05                	li	s6,1
    6264:	009ada93          	srli	s5,s5,0x9
    6268:	01f5d913          	srli	s2,a1,0x1f
    626c:	f731                	bnez	a4,61b8 <__mulsf3+0x5a>
    626e:	000a9d63          	bnez	s5,6288 <__mulsf3+0x12a>
    6272:	0014e493          	ori	s1,s1,1
    6276:	4605                	li	a2,1
    6278:	bfa9                	j	61d2 <__mulsf3+0x74>
    627a:	02099263          	bnez	s3,629e <__mulsf3+0x140>
    627e:	44a1                	li	s1,8
    6280:	0ff00413          	li	s0,255
    6284:	4b09                	li	s6,2
    6286:	bf31                	j	61a2 <__mulsf3+0x44>
    6288:	8556                	mv	a0,s5
    628a:	2541                	jal	690a <__clzsi2>
    628c:	ffb50793          	addi	a5,a0,-5
    6290:	8c09                	sub	s0,s0,a0
    6292:	00fa9ab3          	sll	s5,s5,a5
    6296:	f8a40413          	addi	s0,s0,-118
    629a:	4601                	li	a2,0
    629c:	bf1d                	j	61d2 <__mulsf3+0x74>
    629e:	44b1                	li	s1,12
    62a0:	0ff00413          	li	s0,255
    62a4:	4b0d                	li	s6,3
    62a6:	bdf5                	j	61a2 <__mulsf3+0x44>
    62a8:	854e                	mv	a0,s3
    62aa:	c62e                	sw	a1,12(sp)
    62ac:	2db9                	jal	690a <__clzsi2>
    62ae:	ffb50793          	addi	a5,a0,-5
    62b2:	f8a00413          	li	s0,-118
    62b6:	00f999b3          	sll	s3,s3,a5
    62ba:	8c09                	sub	s0,s0,a0
    62bc:	4481                	li	s1,0
    62be:	4b01                	li	s6,0
    62c0:	45b2                	lw	a1,12(sp)
    62c2:	b5c5                	j	61a2 <__mulsf3+0x44>
    62c4:	0034e493          	ori	s1,s1,3
    62c8:	460d                	li	a2,3
    62ca:	b721                	j	61d2 <__mulsf3+0x74>
    62cc:	4789                	li	a5,2
    62ce:	86d2                	mv	a3,s4
    62d0:	f6fb15e3          	bne	s6,a5,623a <__mulsf3+0xdc>
    62d4:	8536                	mv	a0,a3
    62d6:	0ff00713          	li	a4,255
    62da:	4781                	li	a5,0
    62dc:	bf0d                	j	620e <__mulsf3+0xb0>
    62de:	6341                	lui	t1,0x10
    62e0:	fff30693          	addi	a3,t1,-1 # ffff <_data_lma+0x885b>
    62e4:	0109d613          	srli	a2,s3,0x10
    62e8:	010ad893          	srli	a7,s5,0x10
    62ec:	00d9f7b3          	and	a5,s3,a3
    62f0:	00dafab3          	and	s5,s5,a3
    62f4:	03578833          	mul	a6,a5,s5
    62f8:	02f889b3          	mul	s3,a7,a5
    62fc:	01085713          	srli	a4,a6,0x10
    6300:	03560ab3          	mul	s5,a2,s5
    6304:	99d6                	add	s3,s3,s5
    6306:	974e                	add	a4,a4,s3
    6308:	03160633          	mul	a2,a2,a7
    630c:	01577363          	bgeu	a4,s5,6312 <__mulsf3+0x1b4>
    6310:	961a                	add	a2,a2,t1
    6312:	67c1                	lui	a5,0x10
    6314:	17fd                	addi	a5,a5,-1
    6316:	00f776b3          	and	a3,a4,a5
    631a:	00f87833          	and	a6,a6,a5
    631e:	06c2                	slli	a3,a3,0x10
    6320:	96c2                	add	a3,a3,a6
    6322:	00669993          	slli	s3,a3,0x6
    6326:	01075793          	srli	a5,a4,0x10
    632a:	013039b3          	snez	s3,s3
    632e:	82e9                	srli	a3,a3,0x1a
    6330:	97b2                	add	a5,a5,a2
    6332:	079a                	slli	a5,a5,0x6
    6334:	00d9e6b3          	or	a3,s3,a3
    6338:	00d7e9b3          	or	s3,a5,a3
    633c:	00499793          	slli	a5,s3,0x4
    6340:	0007d963          	bgez	a5,6352 <__mulsf3+0x1f4>
    6344:	0019d713          	srli	a4,s3,0x1
    6348:	0019f793          	andi	a5,s3,1
    634c:	00f769b3          	or	s3,a4,a5
    6350:	842e                	mv	s0,a1
    6352:	07f40713          	addi	a4,s0,127
    6356:	04e05063          	blez	a4,6396 <__mulsf3+0x238>
    635a:	0079f793          	andi	a5,s3,7
    635e:	c799                	beqz	a5,636c <__mulsf3+0x20e>
    6360:	00f9f793          	andi	a5,s3,15
    6364:	4691                	li	a3,4
    6366:	00d78363          	beq	a5,a3,636c <__mulsf3+0x20e>
    636a:	0991                	addi	s3,s3,4
    636c:	00499793          	slli	a5,s3,0x4
    6370:	0007d963          	bgez	a5,6382 <__mulsf3+0x224>
    6374:	f80007b7          	lui	a5,0xf8000
    6378:	17fd                	addi	a5,a5,-1
    637a:	00f9f9b3          	and	s3,s3,a5
    637e:	08040713          	addi	a4,s0,128
    6382:	0fe00793          	li	a5,254
    6386:	04e7cb63          	blt	a5,a4,63dc <__mulsf3+0x27e>
    638a:	00699793          	slli	a5,s3,0x6
    638e:	83a5                	srli	a5,a5,0x9
    6390:	0ff77713          	andi	a4,a4,255
    6394:	bdad                	j	620e <__mulsf3+0xb0>
    6396:	4785                	li	a5,1
    6398:	40e786b3          	sub	a3,a5,a4
    639c:	c711                	beqz	a4,63a8 <__mulsf3+0x24a>
    639e:	466d                	li	a2,27
    63a0:	4701                	li	a4,0
    63a2:	4781                	li	a5,0
    63a4:	e6d645e3          	blt	a2,a3,620e <__mulsf3+0xb0>
    63a8:	09e40713          	addi	a4,s0,158
    63ac:	00e99733          	sll	a4,s3,a4
    63b0:	00e03733          	snez	a4,a4
    63b4:	00d9d7b3          	srl	a5,s3,a3
    63b8:	8fd9                	or	a5,a5,a4
    63ba:	0077f713          	andi	a4,a5,7
    63be:	c719                	beqz	a4,63cc <__mulsf3+0x26e>
    63c0:	00f7f713          	andi	a4,a5,15
    63c4:	4691                	li	a3,4
    63c6:	00d70363          	beq	a4,a3,63cc <__mulsf3+0x26e>
    63ca:	0791                	addi	a5,a5,4
    63cc:	00579713          	slli	a4,a5,0x5
    63d0:	00074c63          	bltz	a4,63e8 <__mulsf3+0x28a>
    63d4:	079a                	slli	a5,a5,0x6
    63d6:	83a5                	srli	a5,a5,0x9
    63d8:	4701                	li	a4,0
    63da:	bd15                	j	620e <__mulsf3+0xb0>
    63dc:	0ff00713          	li	a4,255
    63e0:	4781                	li	a5,0
    63e2:	b535                	j	620e <__mulsf3+0xb0>
    63e4:	842e                	mv	s0,a1
    63e6:	b7b5                	j	6352 <__mulsf3+0x1f4>
    63e8:	4705                	li	a4,1
    63ea:	4781                	li	a5,0
    63ec:	b50d                	j	620e <__mulsf3+0xb0>

000063ee <__subsf3>:
    63ee:	00800737          	lui	a4,0x800
    63f2:	1141                	addi	sp,sp,-16
    63f4:	177d                	addi	a4,a4,-1
    63f6:	01755693          	srli	a3,a0,0x17
    63fa:	0175d813          	srli	a6,a1,0x17
    63fe:	00a777b3          	and	a5,a4,a0
    6402:	0ff6f693          	andi	a3,a3,255
    6406:	01f55e93          	srli	t4,a0,0x1f
    640a:	00b77633          	and	a2,a4,a1
    640e:	c226                	sw	s1,4(sp)
    6410:	c04a                	sw	s2,0(sp)
    6412:	0ff87813          	andi	a6,a6,255
    6416:	c606                	sw	ra,12(sp)
    6418:	c422                	sw	s0,8(sp)
    641a:	0ff00313          	li	t1,255
    641e:	8e3e                	mv	t3,a5
    6420:	8936                	mv	s2,a3
    6422:	84f6                	mv	s1,t4
    6424:	00379f13          	slli	t5,a5,0x3
    6428:	81fd                	srli	a1,a1,0x1f
    642a:	00361513          	slli	a0,a2,0x3
    642e:	410688b3          	sub	a7,a3,a6
    6432:	10680263          	beq	a6,t1,6536 <__subsf3+0x148>
    6436:	0015c593          	xori	a1,a1,1
    643a:	10be8c63          	beq	t4,a1,6552 <__subsf3+0x164>
    643e:	0d105463          	blez	a7,6506 <__subsf3+0x118>
    6442:	10081063          	bnez	a6,6542 <__subsf3+0x154>
    6446:	1e050463          	beqz	a0,662e <__subsf3+0x240>
    644a:	18fd                	addi	a7,a7,-1
    644c:	40af07b3          	sub	a5,t5,a0
    6450:	02088663          	beqz	a7,647c <__subsf3+0x8e>
    6454:	0ff00793          	li	a5,255
    6458:	16f68863          	beq	a3,a5,65c8 <__subsf3+0x1da>
    645c:	47ed                	li	a5,27
    645e:	2917c763          	blt	a5,a7,66ec <__subsf3+0x2fe>
    6462:	02000713          	li	a4,32
    6466:	41170733          	sub	a4,a4,a7
    646a:	00e51733          	sll	a4,a0,a4
    646e:	011557b3          	srl	a5,a0,a7
    6472:	00e03733          	snez	a4,a4
    6476:	8fd9                	or	a5,a5,a4
    6478:	40ff07b3          	sub	a5,t5,a5
    647c:	00579713          	slli	a4,a5,0x5
    6480:	1a075163          	bgez	a4,6622 <__subsf3+0x234>
    6484:	04000437          	lui	s0,0x4000
    6488:	147d                	addi	s0,s0,-1
    648a:	8c7d                	and	s0,s0,a5
    648c:	8522                	mv	a0,s0
    648e:	29b5                	jal	690a <__clzsi2>
    6490:	156d                	addi	a0,a0,-5
    6492:	00a417b3          	sll	a5,s0,a0
    6496:	1b254e63          	blt	a0,s2,6652 <__subsf3+0x264>
    649a:	41250533          	sub	a0,a0,s2
    649e:	00150413          	addi	s0,a0,1
    64a2:	02000713          	li	a4,32
    64a6:	8f01                	sub	a4,a4,s0
    64a8:	00e79733          	sll	a4,a5,a4
    64ac:	00e03733          	snez	a4,a4
    64b0:	0087d7b3          	srl	a5,a5,s0
    64b4:	8fd9                	or	a5,a5,a4
    64b6:	4901                	li	s2,0
    64b8:	0077f713          	andi	a4,a5,7
    64bc:	c719                	beqz	a4,64ca <__subsf3+0xdc>
    64be:	00f7f713          	andi	a4,a5,15
    64c2:	4691                	li	a3,4
    64c4:	00d70363          	beq	a4,a3,64ca <__subsf3+0xdc>
    64c8:	0791                	addi	a5,a5,4
    64ca:	00579713          	slli	a4,a5,0x5
    64ce:	14075e63          	bgez	a4,662a <__subsf3+0x23c>
    64d2:	00190693          	addi	a3,s2,1 # 800001 <_data_lma+0x7f885d>
    64d6:	0ff00713          	li	a4,255
    64da:	0014fe93          	andi	t4,s1,1
    64de:	16e68663          	beq	a3,a4,664a <__subsf3+0x25c>
    64e2:	079a                	slli	a5,a5,0x6
    64e4:	83a5                	srli	a5,a5,0x9
    64e6:	0ff6f693          	andi	a3,a3,255
    64ea:	07a6                	slli	a5,a5,0x9
    64ec:	40b2                	lw	ra,12(sp)
    64ee:	4422                	lw	s0,8(sp)
    64f0:	0097d513          	srli	a0,a5,0x9
    64f4:	06de                	slli	a3,a3,0x17
    64f6:	01fe9793          	slli	a5,t4,0x1f
    64fa:	8d55                	or	a0,a0,a3
    64fc:	4492                	lw	s1,4(sp)
    64fe:	4902                	lw	s2,0(sp)
    6500:	8d5d                	or	a0,a0,a5
    6502:	0141                	addi	sp,sp,16
    6504:	8082                	ret
    6506:	0a089263          	bnez	a7,65aa <__subsf3+0x1bc>
    650a:	00168713          	addi	a4,a3,1
    650e:	0fe77713          	andi	a4,a4,254
    6512:	14071b63          	bnez	a4,6668 <__subsf3+0x27a>
    6516:	22069463          	bnez	a3,673e <__subsf3+0x350>
    651a:	200f0263          	beqz	t5,671e <__subsf3+0x330>
    651e:	d571                	beqz	a0,64ea <__subsf3+0xfc>
    6520:	40af07b3          	sub	a5,t5,a0
    6524:	00579713          	slli	a4,a5,0x5
    6528:	22075563          	bgez	a4,6752 <__subsf3+0x364>
    652c:	41e507b3          	sub	a5,a0,t5
    6530:	4901                	li	s2,0
    6532:	84ae                	mv	s1,a1
    6534:	b751                	j	64b8 <__subsf3+0xca>
    6536:	f00500e3          	beqz	a0,6436 <__subsf3+0x48>
    653a:	0abe8a63          	beq	t4,a1,65ee <__subsf3+0x200>
    653e:	fd1054e3          	blez	a7,6506 <__subsf3+0x118>
    6542:	0ff00793          	li	a5,255
    6546:	08f68163          	beq	a3,a5,65c8 <__subsf3+0x1da>
    654a:	040007b7          	lui	a5,0x4000
    654e:	8d5d                	or	a0,a0,a5
    6550:	b731                	j	645c <__subsf3+0x6e>
    6552:	09105e63          	blez	a7,65ee <__subsf3+0x200>
    6556:	08080163          	beqz	a6,65d8 <__subsf3+0x1ea>
    655a:	0ff00793          	li	a5,255
    655e:	06f68563          	beq	a3,a5,65c8 <__subsf3+0x1da>
    6562:	040007b7          	lui	a5,0x4000
    6566:	8d5d                	or	a0,a0,a5
    6568:	47ed                	li	a5,27
    656a:	1f17c063          	blt	a5,a7,674a <__subsf3+0x35c>
    656e:	02000713          	li	a4,32
    6572:	41170733          	sub	a4,a4,a7
    6576:	00e51733          	sll	a4,a0,a4
    657a:	011557b3          	srl	a5,a0,a7
    657e:	00e03733          	snez	a4,a4
    6582:	8fd9                	or	a5,a5,a4
    6584:	97fa                	add	a5,a5,t5
    6586:	00579713          	slli	a4,a5,0x5
    658a:	08075c63          	bgez	a4,6622 <__subsf3+0x234>
    658e:	0905                	addi	s2,s2,1
    6590:	0ff00713          	li	a4,255
    6594:	0ae90b63          	beq	s2,a4,664a <__subsf3+0x25c>
    6598:	7e0006b7          	lui	a3,0x7e000
    659c:	0017d713          	srli	a4,a5,0x1
    65a0:	16fd                	addi	a3,a3,-1
    65a2:	8b85                	andi	a5,a5,1
    65a4:	8f75                	and	a4,a4,a3
    65a6:	8fd9                	or	a5,a5,a4
    65a8:	bf01                	j	64b8 <__subsf3+0xca>
    65aa:	40d80733          	sub	a4,a6,a3
    65ae:	10069563          	bnez	a3,66b8 <__subsf3+0x2ca>
    65b2:	140f0d63          	beqz	t5,670c <__subsf3+0x31e>
    65b6:	177d                	addi	a4,a4,-1
    65b8:	1a070363          	beqz	a4,675e <__subsf3+0x370>
    65bc:	0ff00793          	li	a5,255
    65c0:	10f81463          	bne	a6,a5,66c8 <__subsf3+0x2da>
    65c4:	84ae                	mv	s1,a1
    65c6:	8e32                	mv	t3,a2
    65c8:	060e0f63          	beqz	t3,6646 <__subsf3+0x258>
    65cc:	4e81                	li	t4,0
    65ce:	0ff00693          	li	a3,255
    65d2:	004007b7          	lui	a5,0x400
    65d6:	bf11                	j	64ea <__subsf3+0xfc>
    65d8:	c939                	beqz	a0,662e <__subsf3+0x240>
    65da:	18fd                	addi	a7,a7,-1
    65dc:	00af07b3          	add	a5,t5,a0
    65e0:	fa0883e3          	beqz	a7,6586 <__subsf3+0x198>
    65e4:	0ff00793          	li	a5,255
    65e8:	f8f690e3          	bne	a3,a5,6568 <__subsf3+0x17a>
    65ec:	bff1                	j	65c8 <__subsf3+0x1da>
    65ee:	08089963          	bnez	a7,6680 <__subsf3+0x292>
    65f2:	00168913          	addi	s2,a3,1 # 7e000001 <GEC_USER_RAM_END+0x5dfe0001>
    65f6:	0fe97713          	andi	a4,s2,254
    65fa:	12071663          	bnez	a4,6726 <__subsf3+0x338>
    65fe:	10069b63          	bnez	a3,6714 <__subsf3+0x326>
    6602:	160f0363          	beqz	t5,6768 <__subsf3+0x37a>
    6606:	ee0502e3          	beqz	a0,64ea <__subsf3+0xfc>
    660a:	00af07b3          	add	a5,t5,a0
    660e:	00579713          	slli	a4,a5,0x5
    6612:	4901                	li	s2,0
    6614:	00075763          	bgez	a4,6622 <__subsf3+0x234>
    6618:	fc000737          	lui	a4,0xfc000
    661c:	177d                	addi	a4,a4,-1
    661e:	8ff9                	and	a5,a5,a4
    6620:	4905                	li	s2,1
    6622:	0077f713          	andi	a4,a5,7
    6626:	e8071ce3          	bnez	a4,64be <__subsf3+0xd0>
    662a:	0037de13          	srli	t3,a5,0x3
    662e:	0ff00793          	li	a5,255
    6632:	f8f90be3          	beq	s2,a5,65c8 <__subsf3+0x1da>
    6636:	009e1793          	slli	a5,t3,0x9
    663a:	83a5                	srli	a5,a5,0x9
    663c:	0ff97693          	andi	a3,s2,255
    6640:	0014fe93          	andi	t4,s1,1
    6644:	b55d                	j	64ea <__subsf3+0xfc>
    6646:	0014fe93          	andi	t4,s1,1
    664a:	0ff00693          	li	a3,255
    664e:	4781                	li	a5,0
    6650:	bd69                	j	64ea <__subsf3+0xfc>
    6652:	fc000737          	lui	a4,0xfc000
    6656:	177d                	addi	a4,a4,-1
    6658:	8ff9                	and	a5,a5,a4
    665a:	0077f713          	andi	a4,a5,7
    665e:	40a90933          	sub	s2,s2,a0
    6662:	e4071ee3          	bnez	a4,64be <__subsf3+0xd0>
    6666:	b7d1                	j	662a <__subsf3+0x23c>
    6668:	40af0433          	sub	s0,t5,a0
    666c:	00541793          	slli	a5,s0,0x5
    6670:	0c07c363          	bltz	a5,6736 <__subsf3+0x348>
    6674:	e0041ce3          	bnez	s0,648c <__subsf3+0x9e>
    6678:	4e81                	li	t4,0
    667a:	4681                	li	a3,0
    667c:	4781                	li	a5,0
    667e:	b5b5                	j	64ea <__subsf3+0xfc>
    6680:	40d80733          	sub	a4,a6,a3
    6684:	c6b5                	beqz	a3,66f0 <__subsf3+0x302>
    6686:	0ff00793          	li	a5,255
    668a:	f2f80ee3          	beq	a6,a5,65c6 <__subsf3+0x1d8>
    668e:	040007b7          	lui	a5,0x4000
    6692:	00ff6f33          	or	t5,t5,a5
    6696:	47ed                	li	a5,27
    6698:	0ce7cd63          	blt	a5,a4,6772 <__subsf3+0x384>
    669c:	02000793          	li	a5,32
    66a0:	8f99                	sub	a5,a5,a4
    66a2:	00ff17b3          	sll	a5,t5,a5
    66a6:	00ef5733          	srl	a4,t5,a4
    66aa:	00f037b3          	snez	a5,a5
    66ae:	8f5d                	or	a4,a4,a5
    66b0:	00a707b3          	add	a5,a4,a0
    66b4:	8942                	mv	s2,a6
    66b6:	bdc1                	j	6586 <__subsf3+0x198>
    66b8:	0ff00793          	li	a5,255
    66bc:	f0f804e3          	beq	a6,a5,65c4 <__subsf3+0x1d6>
    66c0:	040007b7          	lui	a5,0x4000
    66c4:	00ff6f33          	or	t5,t5,a5
    66c8:	47ed                	li	a5,27
    66ca:	08e7c263          	blt	a5,a4,674e <__subsf3+0x360>
    66ce:	02000793          	li	a5,32
    66d2:	8f99                	sub	a5,a5,a4
    66d4:	00ff17b3          	sll	a5,t5,a5
    66d8:	00ef5733          	srl	a4,t5,a4
    66dc:	00f037b3          	snez	a5,a5
    66e0:	8fd9                	or	a5,a5,a4
    66e2:	40f507b3          	sub	a5,a0,a5
    66e6:	8942                	mv	s2,a6
    66e8:	84ae                	mv	s1,a1
    66ea:	bb49                	j	647c <__subsf3+0x8e>
    66ec:	4785                	li	a5,1
    66ee:	b369                	j	6478 <__subsf3+0x8a>
    66f0:	060f0e63          	beqz	t5,676c <__subsf3+0x37e>
    66f4:	177d                	addi	a4,a4,-1
    66f6:	00af07b3          	add	a5,t5,a0
    66fa:	8942                	mv	s2,a6
    66fc:	e80705e3          	beqz	a4,6586 <__subsf3+0x198>
    6700:	0ff00793          	li	a5,255
    6704:	f8f819e3          	bne	a6,a5,6696 <__subsf3+0x2a8>
    6708:	8e32                	mv	t3,a2
    670a:	bd7d                	j	65c8 <__subsf3+0x1da>
    670c:	8e32                	mv	t3,a2
    670e:	8942                	mv	s2,a6
    6710:	84ae                	mv	s1,a1
    6712:	bf31                	j	662e <__subsf3+0x240>
    6714:	ea0f09e3          	beqz	t5,65c6 <__subsf3+0x1d8>
    6718:	ea0508e3          	beqz	a0,65c8 <__subsf3+0x1da>
    671c:	bd45                	j	65cc <__subsf3+0x1de>
    671e:	cd0d                	beqz	a0,6758 <__subsf3+0x36a>
    6720:	8eae                	mv	t4,a1
    6722:	87b2                	mv	a5,a2
    6724:	b3d9                	j	64ea <__subsf3+0xfc>
    6726:	0ff00793          	li	a5,255
    672a:	f2f900e3          	beq	s2,a5,664a <__subsf3+0x25c>
    672e:	00af07b3          	add	a5,t5,a0
    6732:	8385                	srli	a5,a5,0x1
    6734:	b5fd                	j	6622 <__subsf3+0x234>
    6736:	41e50433          	sub	s0,a0,t5
    673a:	84ae                	mv	s1,a1
    673c:	bb81                	j	648c <__subsf3+0x9e>
    673e:	fc0f1de3          	bnez	t5,6718 <__subsf3+0x32a>
    6742:	e80505e3          	beqz	a0,65cc <__subsf3+0x1de>
    6746:	84ae                	mv	s1,a1
    6748:	bdbd                	j	65c6 <__subsf3+0x1d8>
    674a:	4785                	li	a5,1
    674c:	bd25                	j	6584 <__subsf3+0x196>
    674e:	4785                	li	a5,1
    6750:	bf49                	j	66e2 <__subsf3+0x2f4>
    6752:	4901                	li	s2,0
    6754:	ec0797e3          	bnez	a5,6622 <__subsf3+0x234>
    6758:	4e81                	li	t4,0
    675a:	4781                	li	a5,0
    675c:	b379                	j	64ea <__subsf3+0xfc>
    675e:	41e507b3          	sub	a5,a0,t5
    6762:	8942                	mv	s2,a6
    6764:	84ae                	mv	s1,a1
    6766:	bb19                	j	647c <__subsf3+0x8e>
    6768:	87b2                	mv	a5,a2
    676a:	b341                	j	64ea <__subsf3+0xfc>
    676c:	8e32                	mv	t3,a2
    676e:	8942                	mv	s2,a6
    6770:	bd7d                	j	662e <__subsf3+0x240>
    6772:	4705                	li	a4,1
    6774:	bf35                	j	66b0 <__subsf3+0x2c2>

00006776 <__floatsisf>:
    6776:	1141                	addi	sp,sp,-16
    6778:	c606                	sw	ra,12(sp)
    677a:	c422                	sw	s0,8(sp)
    677c:	c226                	sw	s1,4(sp)
    677e:	cd0d                	beqz	a0,67b8 <__floatsisf+0x42>
    6780:	41f55793          	srai	a5,a0,0x1f
    6784:	00a7c433          	xor	s0,a5,a0
    6788:	8c1d                	sub	s0,s0,a5
    678a:	84aa                	mv	s1,a0
    678c:	8522                	mv	a0,s0
    678e:	2ab5                	jal	690a <__clzsi2>
    6790:	09e00793          	li	a5,158
    6794:	40a78733          	sub	a4,a5,a0
    6798:	09600793          	li	a5,150
    679c:	80fd                	srli	s1,s1,0x1f
    679e:	02e7cc63          	blt	a5,a4,67d6 <__floatsisf+0x60>
    67a2:	46a1                	li	a3,8
    67a4:	0ff77793          	andi	a5,a4,255
    67a8:	00a6d563          	bge	a3,a0,67b2 <__floatsisf+0x3c>
    67ac:	1561                	addi	a0,a0,-8
    67ae:	00a41433          	sll	s0,s0,a0
    67b2:	0426                	slli	s0,s0,0x9
    67b4:	8025                	srli	s0,s0,0x9
    67b6:	a021                	j	67be <__floatsisf+0x48>
    67b8:	4481                	li	s1,0
    67ba:	4781                	li	a5,0
    67bc:	4401                	li	s0,0
    67be:	0426                	slli	s0,s0,0x9
    67c0:	00945513          	srli	a0,s0,0x9
    67c4:	40b2                	lw	ra,12(sp)
    67c6:	4422                	lw	s0,8(sp)
    67c8:	07de                	slli	a5,a5,0x17
    67ca:	04fe                	slli	s1,s1,0x1f
    67cc:	8d5d                	or	a0,a0,a5
    67ce:	8d45                	or	a0,a0,s1
    67d0:	4492                	lw	s1,4(sp)
    67d2:	0141                	addi	sp,sp,16
    67d4:	8082                	ret
    67d6:	09900793          	li	a5,153
    67da:	00e7dd63          	bge	a5,a4,67f4 <__floatsisf+0x7e>
    67de:	01b50793          	addi	a5,a0,27
    67e2:	4695                	li	a3,5
    67e4:	00f417b3          	sll	a5,s0,a5
    67e8:	8e89                	sub	a3,a3,a0
    67ea:	00d45433          	srl	s0,s0,a3
    67ee:	00f037b3          	snez	a5,a5
    67f2:	8c5d                	or	s0,s0,a5
    67f4:	4795                	li	a5,5
    67f6:	00a7d663          	bge	a5,a0,6802 <__floatsisf+0x8c>
    67fa:	ffb50793          	addi	a5,a0,-5
    67fe:	00f41433          	sll	s0,s0,a5
    6802:	fc0006b7          	lui	a3,0xfc000
    6806:	16fd                	addi	a3,a3,-1
    6808:	00747793          	andi	a5,s0,7
    680c:	00d47633          	and	a2,s0,a3
    6810:	c385                	beqz	a5,6830 <__floatsisf+0xba>
    6812:	00f47793          	andi	a5,s0,15
    6816:	4591                	li	a1,4
    6818:	00b78c63          	beq	a5,a1,6830 <__floatsisf+0xba>
    681c:	0611                	addi	a2,a2,4
    681e:	00561793          	slli	a5,a2,0x5
    6822:	0007d763          	bgez	a5,6830 <__floatsisf+0xba>
    6826:	09f00793          	li	a5,159
    682a:	8e75                	and	a2,a2,a3
    682c:	40a78733          	sub	a4,a5,a0
    6830:	00661413          	slli	s0,a2,0x6
    6834:	8025                	srli	s0,s0,0x9
    6836:	0ff77793          	andi	a5,a4,255
    683a:	b751                	j	67be <__floatsisf+0x48>

0000683c <__floatunsisf>:
    683c:	1141                	addi	sp,sp,-16
    683e:	c606                	sw	ra,12(sp)
    6840:	c422                	sw	s0,8(sp)
    6842:	cd15                	beqz	a0,687e <__floatunsisf+0x42>
    6844:	842a                	mv	s0,a0
    6846:	20d1                	jal	690a <__clzsi2>
    6848:	09e00793          	li	a5,158
    684c:	40a78733          	sub	a4,a5,a0
    6850:	09600793          	li	a5,150
    6854:	04e7c063          	blt	a5,a4,6894 <__floatunsisf+0x58>
    6858:	46a1                	li	a3,8
    685a:	0ff77793          	andi	a5,a4,255
    685e:	00a6d563          	bge	a3,a0,6868 <__floatunsisf+0x2c>
    6862:	1561                	addi	a0,a0,-8
    6864:	00a41433          	sll	s0,s0,a0
    6868:	0426                	slli	s0,s0,0x9
    686a:	8025                	srli	s0,s0,0x9
    686c:	0426                	slli	s0,s0,0x9
    686e:	00945513          	srli	a0,s0,0x9
    6872:	40b2                	lw	ra,12(sp)
    6874:	4422                	lw	s0,8(sp)
    6876:	07de                	slli	a5,a5,0x17
    6878:	8d5d                	or	a0,a0,a5
    687a:	0141                	addi	sp,sp,16
    687c:	8082                	ret
    687e:	4401                	li	s0,0
    6880:	0426                	slli	s0,s0,0x9
    6882:	00945513          	srli	a0,s0,0x9
    6886:	40b2                	lw	ra,12(sp)
    6888:	4422                	lw	s0,8(sp)
    688a:	4781                	li	a5,0
    688c:	07de                	slli	a5,a5,0x17
    688e:	8d5d                	or	a0,a0,a5
    6890:	0141                	addi	sp,sp,16
    6892:	8082                	ret
    6894:	09900793          	li	a5,153
    6898:	00e7dd63          	bge	a5,a4,68b2 <__floatunsisf+0x76>
    689c:	01b50793          	addi	a5,a0,27
    68a0:	4695                	li	a3,5
    68a2:	00f417b3          	sll	a5,s0,a5
    68a6:	8e89                	sub	a3,a3,a0
    68a8:	00f037b3          	snez	a5,a5
    68ac:	00d45433          	srl	s0,s0,a3
    68b0:	8c5d                	or	s0,s0,a5
    68b2:	4795                	li	a5,5
    68b4:	00a7d663          	bge	a5,a0,68c0 <__floatunsisf+0x84>
    68b8:	ffb50793          	addi	a5,a0,-5
    68bc:	00f41433          	sll	s0,s0,a5
    68c0:	fc0006b7          	lui	a3,0xfc000
    68c4:	16fd                	addi	a3,a3,-1
    68c6:	00747793          	andi	a5,s0,7
    68ca:	00d47633          	and	a2,s0,a3
    68ce:	c385                	beqz	a5,68ee <__floatunsisf+0xb2>
    68d0:	00f47793          	andi	a5,s0,15
    68d4:	4591                	li	a1,4
    68d6:	00b78c63          	beq	a5,a1,68ee <__floatunsisf+0xb2>
    68da:	0611                	addi	a2,a2,4
    68dc:	00561793          	slli	a5,a2,0x5
    68e0:	0007d763          	bgez	a5,68ee <__floatunsisf+0xb2>
    68e4:	09f00793          	li	a5,159
    68e8:	8e75                	and	a2,a2,a3
    68ea:	40a78733          	sub	a4,a5,a0
    68ee:	00661413          	slli	s0,a2,0x6
    68f2:	8025                	srli	s0,s0,0x9
    68f4:	0426                	slli	s0,s0,0x9
    68f6:	00945513          	srli	a0,s0,0x9
    68fa:	40b2                	lw	ra,12(sp)
    68fc:	4422                	lw	s0,8(sp)
    68fe:	0ff77793          	andi	a5,a4,255
    6902:	07de                	slli	a5,a5,0x17
    6904:	8d5d                	or	a0,a0,a5
    6906:	0141                	addi	sp,sp,16
    6908:	8082                	ret

0000690a <__clzsi2>:
    690a:	67c1                	lui	a5,0x10
    690c:	02f57e63          	bgeu	a0,a5,6948 <__clzsi2+0x3e>
    6910:	0ff00793          	li	a5,255
    6914:	02000713          	li	a4,32
    6918:	00a7ec63          	bltu	a5,a0,6930 <__clzsi2+0x26>
    691c:	00001797          	auipc	a5,0x1
    6920:	d8878793          	addi	a5,a5,-632 # 76a4 <__clz_tab>
    6924:	97aa                	add	a5,a5,a0
    6926:	0007c503          	lbu	a0,0(a5)
    692a:	40a70533          	sub	a0,a4,a0
    692e:	8082                	ret
    6930:	8121                	srli	a0,a0,0x8
    6932:	00001797          	auipc	a5,0x1
    6936:	d7278793          	addi	a5,a5,-654 # 76a4 <__clz_tab>
    693a:	97aa                	add	a5,a5,a0
    693c:	0007c503          	lbu	a0,0(a5)
    6940:	4761                	li	a4,24
    6942:	40a70533          	sub	a0,a4,a0
    6946:	8082                	ret
    6948:	010007b7          	lui	a5,0x1000
    694c:	00f56e63          	bltu	a0,a5,6968 <__clzsi2+0x5e>
    6950:	8161                	srli	a0,a0,0x18
    6952:	00001797          	auipc	a5,0x1
    6956:	d5278793          	addi	a5,a5,-686 # 76a4 <__clz_tab>
    695a:	97aa                	add	a5,a5,a0
    695c:	0007c503          	lbu	a0,0(a5)
    6960:	4721                	li	a4,8
    6962:	40a70533          	sub	a0,a4,a0
    6966:	8082                	ret
    6968:	8141                	srli	a0,a0,0x10
    696a:	00001797          	auipc	a5,0x1
    696e:	d3a78793          	addi	a5,a5,-710 # 76a4 <__clz_tab>
    6972:	97aa                	add	a5,a5,a0
    6974:	0007c503          	lbu	a0,0(a5)
    6978:	4741                	li	a4,16
    697a:	40a70533          	sub	a0,a4,a0
    697e:	8082                	ret

00006980 <memcpy>:
    6980:	00a5c7b3          	xor	a5,a1,a0
    6984:	8b8d                	andi	a5,a5,3
    6986:	00c50733          	add	a4,a0,a2
    698a:	e781                	bnez	a5,6992 <memcpy+0x12>
    698c:	478d                	li	a5,3
    698e:	00c7ee63          	bltu	a5,a2,69aa <memcpy+0x2a>
    6992:	87aa                	mv	a5,a0
    6994:	0ae57063          	bgeu	a0,a4,6a34 <memcpy+0xb4>
    6998:	0005c683          	lbu	a3,0(a1)
    699c:	0785                	addi	a5,a5,1
    699e:	0585                	addi	a1,a1,1
    69a0:	fed78fa3          	sb	a3,-1(a5)
    69a4:	fee7eae3          	bltu	a5,a4,6998 <memcpy+0x18>
    69a8:	8082                	ret
    69aa:	00357693          	andi	a3,a0,3
    69ae:	87aa                	mv	a5,a0
    69b0:	ca91                	beqz	a3,69c4 <memcpy+0x44>
    69b2:	0005c683          	lbu	a3,0(a1)
    69b6:	0785                	addi	a5,a5,1
    69b8:	0585                	addi	a1,a1,1
    69ba:	fed78fa3          	sb	a3,-1(a5)
    69be:	0037f693          	andi	a3,a5,3
    69c2:	b7fd                	j	69b0 <memcpy+0x30>
    69c4:	ffc77693          	andi	a3,a4,-4
    69c8:	fe068613          	addi	a2,a3,-32 # fbffffe0 <GEC_USER_RAM_END+0xdbfdffe0>
    69cc:	06c7f063          	bgeu	a5,a2,6a2c <memcpy+0xac>
    69d0:	0005a383          	lw	t2,0(a1)
    69d4:	0045a283          	lw	t0,4(a1)
    69d8:	0085af83          	lw	t6,8(a1)
    69dc:	00c5af03          	lw	t5,12(a1)
    69e0:	0105ae83          	lw	t4,16(a1)
    69e4:	0145ae03          	lw	t3,20(a1)
    69e8:	0185a303          	lw	t1,24(a1)
    69ec:	01c5a883          	lw	a7,28(a1)
    69f0:	02458593          	addi	a1,a1,36
    69f4:	0077a023          	sw	t2,0(a5)
    69f8:	ffc5a803          	lw	a6,-4(a1)
    69fc:	0057a223          	sw	t0,4(a5)
    6a00:	01f7a423          	sw	t6,8(a5)
    6a04:	01e7a623          	sw	t5,12(a5)
    6a08:	01d7a823          	sw	t4,16(a5)
    6a0c:	01c7aa23          	sw	t3,20(a5)
    6a10:	0067ac23          	sw	t1,24(a5)
    6a14:	0117ae23          	sw	a7,28(a5)
    6a18:	02478793          	addi	a5,a5,36
    6a1c:	ff07ae23          	sw	a6,-4(a5)
    6a20:	b775                	j	69cc <memcpy+0x4c>
    6a22:	4190                	lw	a2,0(a1)
    6a24:	0791                	addi	a5,a5,4
    6a26:	0591                	addi	a1,a1,4
    6a28:	fec7ae23          	sw	a2,-4(a5)
    6a2c:	fed7ebe3          	bltu	a5,a3,6a22 <memcpy+0xa2>
    6a30:	f6e7e4e3          	bltu	a5,a4,6998 <memcpy+0x18>
    6a34:	8082                	ret

00006a36 <strlen>:
    6a36:	87aa                	mv	a5,a0
    6a38:	0785                	addi	a5,a5,1
    6a3a:	fff7c703          	lbu	a4,-1(a5)
    6a3e:	ff6d                	bnez	a4,6a38 <strlen+0x2>
    6a40:	40a78533          	sub	a0,a5,a0
    6a44:	157d                	addi	a0,a0,-1
    6a46:	8082                	ret
    6a48:	6dc8                	flw	fa0,28(a1)
    6a4a:	0000                	unimp
    6a4c:	6dd4                	flw	fa3,28(a1)
    6a4e:	0000                	unimp
    6a50:	6de0                	flw	fs0,92(a1)
    6a52:	0000                	unimp
    6a54:	6dec                	flw	fa1,92(a1)
    6a56:	0000                	unimp
    6a58:	6df8                	flw	fa4,92(a1)
    6a5a:	0000                	unimp
    6a5c:	6e00                	flw	fs0,24(a2)
    6a5e:	0000                	unimp
    6a60:	6e0c                	flw	fa1,24(a2)
    6a62:	0000                	unimp
    6a64:	6e18                	flw	fa4,24(a2)
    6a66:	0000                	unimp
    6a68:	636d                	lui	t1,0x1b
    6a6a:	7561                	lui	a0,0xffff8
    6a6c:	253a6573          	csrrsi	a0,0x253,20
    6a70:	3830                	fld	fa2,112(s0)
    6a72:	0d78                	addi	a4,sp,668
    6a74:	000a                	c.slli	zero,0x2
    6a76:	0000                	unimp
    6a78:	656d                	lui	a0,0x1b
    6a7a:	6370                	flw	fa2,68(a4)
    6a7c:	253a                	fld	fa0,392(sp)
    6a7e:	3830                	fld	fa2,112(s0)
    6a80:	0d78                	addi	a4,sp,668
    6a82:	000a                	c.slli	zero,0x2
    6a84:	746d                	lui	s0,0xffffb
    6a86:	6176                	flw	ft2,92(sp)
    6a88:	3a6c                	fld	fa1,240(a2)
    6a8a:	3025                	jal	62b2 <__mulsf3+0x154>
    6a8c:	7838                	flw	fa4,112(s0)
    6a8e:	0a0d                	addi	s4,s4,3
    6a90:	0000                	unimp
    6a92:	0000                	unimp
    6a94:	a5b4                	fsd	fa3,72(a1)
    6a96:	cbc1a2b7          	lui	t0,0xcbc1a
    6a9a:	6974                	flw	fa3,84(a0)
    6a9c:	656d                	lui	a0,0x1b
    6a9e:	d672                	sw	t3,44(sp)
    6aa0:	b6d0                	fsd	fa2,168(a3)
    6aa2:	000a0dcf          	fnmadd.s	fs11,fs4,ft0,ft0,rne
    6aa6:	0000                	unimp
    6aa8:	2a2a                	fld	fs4,136(sp)
    6aaa:	2a2a                	fld	fs4,136(sp)
    6aac:	2a2a                	fld	fs4,136(sp)
    6aae:	2a2a                	fld	fs4,136(sp)
    6ab0:	2a2a                	fld	fs4,136(sp)
    6ab2:	2a2a                	fld	fs4,136(sp)
    6ab4:	2a2a                	fld	fs4,136(sp)
    6ab6:	2a2a                	fld	fs4,136(sp)
    6ab8:	2a2a                	fld	fs4,136(sp)
    6aba:	2a2a                	fld	fs4,136(sp)
    6abc:	2a2a                	fld	fs4,136(sp)
    6abe:	2a2a                	fld	fs4,136(sp)
    6ac0:	2a2a                	fld	fs4,136(sp)
    6ac2:	2a2a                	fld	fs4,136(sp)
    6ac4:	2a2a                	fld	fs4,136(sp)
    6ac6:	2a2a                	fld	fs4,136(sp)
    6ac8:	2a2a                	fld	fs4,136(sp)
    6aca:	2a2a                	fld	fs4,136(sp)
    6acc:	2a2a                	fld	fs4,136(sp)
    6ace:	2a2a                	fld	fs4,136(sp)
    6ad0:	2a2a                	fld	fs4,136(sp)
    6ad2:	2a2a                	fld	fs4,136(sp)
    6ad4:	2a2a                	fld	fs4,136(sp)
    6ad6:	2a2a                	fld	fs4,136(sp)
    6ad8:	2a2a                	fld	fs4,136(sp)
    6ada:	2a2a                	fld	fs4,136(sp)
    6adc:	2a2a                	fld	fs4,136(sp)
    6ade:	0a0d                	addi	s4,s4,3
    6ae0:	0000                	unimp
    6ae2:	0000                	unimp
    6ae4:	2020                	fld	fs0,64(s0)
    6ae6:	2020                	fld	fs0,64(s0)
    6ae8:	2020                	fld	fs0,64(s0)
    6aea:	2020                	fld	fs0,64(s0)
    6aec:	2020                	fld	fs0,64(s0)
    6aee:	2020                	fld	fs0,64(s0)
    6af0:	2020                	fld	fs0,64(s0)
    6af2:	2020                	fld	fs0,64(s0)
    6af4:	2020                	fld	fs0,64(s0)
    6af6:	4f45                	li	t5,17
    6af8:	5352                	lw	t1,52(sp)
    6afa:	ca20                	sw	s0,80(a2)
    6afc:	befd                	j	66fa <__subsf3+0x30c>
    6afe:	bcdd                	j	65f4 <__subsf3+0x206>
    6b00:	bcc9b2af          	0xbcc9b2af
    6b04:	b3a4b9af          	0xb3a4b9af
    6b08:	0dcc                	addi	a1,sp,724
    6b0a:	0d0a                	slli	s10,s10,0x2
    6b0c:	000a                	c.slli	zero,0x2
    6b0e:	0000                	unimp
    6b10:	b9ca                	fsd	fs2,240(sp)
    6b12:	b5cbc3d3          	0xb5cbc3d3
    6b16:	0d3af7c3          	0xd3af7c3
    6b1a:	000a                	c.slli	zero,0x2
    6b1c:	3128                	fld	fa0,96(a0)
    6b1e:	c429                	beqz	s0,6b68 <strlen+0x132>
    6b20:	c8ac                	sw	a1,80(s1)
    6b22:	cba2b7cf          	fnmadd.d	fa5,ft5,fs10,fs9,rup
    6b26:	bbcd                	j	6918 <__clzsi2+0xe>
    6b28:	b6d2                	fsd	fs4,360(sp)
    6b2a:	cac8                	sw	a0,20(a3)
    6b2c:	befd                	j	672a <__subsf3+0x33c>
    6b2e:	bcdd                	j	6624 <__subsf3+0x236>
    6b30:	cdaca3af          	0xcdaca3af
    6b34:	b9a8                	fsd	fa0,112(a1)
    6b36:	b4fd                	j	6624 <__subsf3+0x236>
    6b38:	c3a5                	beqz	a5,6b98 <strlen+0x162>
    6b3a:	bffe                	fsd	ft11,504(sp)
    6b3c:	b7aa                	fsd	fa0,488(sp)
    6b3e:	b0a2                	fsd	fs0,96(sp)
    6b40:	d3e5                	beqz	a5,6b20 <strlen+0xea>
    6b42:	c9d2                	sw	s4,208(sp)
    6b44:	c7c7bdcf          	fnmadd.q	fs11,fa5,ft8,fs8,rup
    6b48:	d3f8                	sw	a4,100(a5)
    6b4a:	b8f2                	fsd	ft8,112(sp)
    6b4c:	b1c4                	fsd	fs1,160(a1)
    6b4e:	b7e4                	fsd	fs1,232(a5)
    6b50:	cba2                	sw	s0,212(sp)
    6b52:	c4cd                	beqz	s1,6bfc <strlen+0x1c6>
    6b54:	0dbdcaa3          	0xdbdcaa3
    6b58:	000a                	c.slli	zero,0x2
    6b5a:	0000                	unimp
    6b5c:	3228                	fld	fa0,96(a2)
    6b5e:	b429                	j	6568 <__subsf3+0x17a>
    6b60:	c3a5                	beqz	a5,6bc0 <strlen+0x18a>
    6b62:	cafe                	sw	t6,84(sp)
    6b64:	b4ae                	fsd	fa1,104(sp)
    6b66:	bcce                	fsd	fs3,120(sp)
    6b68:	54b4                	lw	a3,104(s1)
    6b6a:	43206973          	csrrsi	s2,0x432,0
    6b6e:	746e756f          	jal	a0,ee2b4 <_data_lma+0xe6b10>
    6b72:	efb4                	fsw	fa3,88(a5)
    6b74:	bdb5                	j	69f0 <memcpy+0x70>
    6b76:	aeca                	fsd	fs2,344(sp)
    6b78:	ceb4                	sw	a3,88(a3)
    6b7a:	f3ba                	fsw	fa4,228(sp)
    6b7c:	c720                	sw	s0,72(a4)
    6b7e:	bbd0                	fsd	fa2,176(a5)
    6b80:	b3e4cabb          	0xb3e4cabb
    6b84:	c4f6                	sw	t4,72(sp)
    6b86:	20bdcaa3          	0x20bdcaa3
    6b8a:	b2b9                	j	64d8 <__subsf3+0xea>
    6b8c:	d2bbd0d3          	0xd2bbd0d3
    6b90:	c8b6                	sw	a3,80(sp)
    6b92:	cab2ebd3          	0xcab2ebd3
    6b96:	abc9                	j	7168 <nAsciiDot+0x320>
    6b98:	bdc1                	j	6a68 <strlen+0x32>
    6b9a:	d6d6                	sw	s5,108(sp)
    6b9c:	a3c4                	fsd	fs1,128(a5)
    6b9e:	bdca                	fsd	fs2,248(sp)
    6ba0:	0a0d                	addi	s4,s4,3
    6ba2:	0000                	unimp
    6ba4:	3328                	fld	fa0,96(a4)
    6ba6:	c829                	beqz	s0,6bf8 <strlen+0x1c2>
    6ba8:	b4f4                	fsd	fa3,232(s1)
    6baa:	c3a5                	beqz	a5,6c0a <strlen+0x1d4>
    6bac:	bafe                	fsd	ft11,368(sp)
    6bae:	697354f3          	csrrwi	s1,0x697,6
    6bb2:	4320                	lw	s0,64(a4)
    6bb4:	746e756f          	jal	a0,ee2fa <_data_lma+0xe6b56>
    6bb8:	b5d6                	fsd	fs5,232(sp)
    6bba:	bbb2                	fsd	fa2,496(sp)
    6bbc:	f6d4                	fsw	fa3,44(a3)
    6bbe:	d3bc                	sw	a5,96(a5)
    6bc0:	ebc7aca3          	sw	t3,-327(a5)
    6bc4:	e9b2                	fsw	fa2,208(sp)
    6bc6:	e5b0b4bf cfc9d3d7 	0xcfc9d3d7e5b0b4bf
    6bce:	c7ca                	sw	s2,204(sp)
    6bd0:	d0d3f1b7          	lui	gp,0xd0d3f
    6bd4:	ecd2                	fsw	fs4,88(sp)
    6bd6:	efce                	fsw	fs3,220(sp)
    6bd8:	c7caaca3          	sw	t3,-903(s5)
    6bdc:	d0d3f1b7          	lui	gp,0xd0d3f
    6be0:	b8ba                	fsd	fa4,112(sp)
    6be2:	fcd4                	fsw	fa3,60(s1)
    6be4:	e7c8aca3          	sw	t3,-391(a7) # 3ffe79 <_data_lma+0x3f86d5>
    6be8:	aca3d0d3          	0xaca3d0d3
    6bec:	e5c7ebc7          	0xe5c7ebc7
    6bf0:	c9b8fdb3          	0xc9b8fdb3
    6bf4:	bbbe                	fsd	fa5,496(sp)
    6bf6:	0a0d                	addi	s4,s4,3
    6bf8:	0000                	unimp
    6bfa:	0000                	unimp
    6bfc:	3428                	fld	fa0,104(s0)
    6bfe:	bd29                	j	6a18 <memcpy+0x98>
    6c00:	ccefceab          	0xccefceab
    6c04:	b5e5                	j	6aec <strlen+0xb6>
    6c06:	cec4                	sw	s1,28(a3)
    6c08:	b7c3d6bb          	0xb7c3d6bb
    6c0c:	d6c5                	beqz	a3,6bb4 <strlen+0x17e>
    6c0e:	4cdad4c3          	0x4cdad4c3
    6c12:	f8b84443          	fmadd.s	fs0,fa6,fa1,ft11,rmm
    6c16:	c4b5f6b3          	0xc4b5f6b3
    6c1a:	ecba                	fsw	fa4,88(sp)
    6c1c:	d0d6f2bf 00000a0d 	0xa0dd0d6f2bf
    6c24:	3528                	fld	fa0,104(a0)
    6c26:	b429                	j	6630 <__subsf3+0x242>
    6c28:	bff2                	fsd	ft8,504(sp)
    6c2a:	caaa                	sw	a0,84(sp)
    6c2c:	befd                	j	682a <__floatsisf+0xb4>
    6c2e:	bddd                	j	6b24 <strlen+0xee>
    6c30:	b9d5cad3          	0xb9d5cad3
    6c34:	b3a4                	fsd	fs1,96(a5)
    6c36:	bdcc                	fsd	fa1,184(a1)
    6c38:	cad5cad3          	0xcad5cad3
    6c3c:	befd                	j	683a <__floatsisf+0xc4>
    6c3e:	0ddd                	addi	s11,s11,23
    6c40:	000a                	c.slli	zero,0x2
    6c42:	0000                	unimp
    6c44:	2020                	fld	fs0,64(s0)
    6c46:	d720                	sw	s0,104(a4)
    6c48:	d2a2                	sw	s0,100(sp)
    6c4a:	cae2                	sw	s8,84(sp)
    6c4c:	cfc2                	sw	a6,220(sp)
    6c4e:	3aee                	fld	fs5,248(sp)
    6c50:	0a0d                	addi	s4,s4,3
    6c52:	0000                	unimp
    6c54:	2020                	fld	fs0,64(s0)
    6c56:	2020                	fld	fs0,64(s0)
    6c58:	2020                	fld	fs0,64(s0)
    6c5a:	2020                	fld	fs0,64(s0)
    6c5c:	2020                	fld	fs0,64(s0)
    6c5e:	2020                	fld	fs0,64(s0)
    6c60:	3128                	fld	fa0,96(a0)
    6c62:	4c29                	li	s8,10
    6c64:	ecba4443          	0xecba4443
    6c68:	d0d6f2bf e4c6dece 	0xe4c6deced0d6f2bf
    6c70:	e0b6fbcb          	fnmsub.s	fs7,fa3,fa1,ft8
    6c74:	efcee0d3          	0xefcee0d3
    6c78:	e5cc                	fsw	fa1,12(a1)
    6c7a:	0a0d                	addi	s4,s4,3
    6c7c:	0000                	unimp
    6c7e:	0000                	unimp
    6c80:	2020                	fld	fs0,64(s0)
    6c82:	2020                	fld	fs0,64(s0)
    6c84:	2020                	fld	fs0,64(s0)
    6c86:	2020                	fld	fs0,64(s0)
    6c88:	2020                	fld	fs0,64(s0)
    6c8a:	2020                	fld	fs0,64(s0)
    6c8c:	3228                	fld	fa0,96(a2)
    6c8e:	b129                	j	6898 <__floatunsisf+0x5c>
    6c90:	cad6b3a3          	0xcad6b3a3
    6c94:	b1b6                	fsd	fa3,224(sp)
    6c96:	b3f0                	fsd	fa2,224(a5)
    6c98:	bea1                	j	67f0 <__floatsisf+0x7a>
    6c9a:	b9b0                	fsd	fa2,112(a1)
    6c9c:	d5e2                	sw	s8,232(sp)
    6c9e:	c1d5                	beqz	a1,6d42 <strlen+0x30c>
    6ca0:	babc                	fsd	fa5,112(a3)
    6ca2:	000a0dc3          	fmadd.s	fs11,fs4,ft0,ft0,rne
    6ca6:	0000                	unimp
    6ca8:	4941                	li	s2,16
    6caa:	452d                	li	a0,11
    6cac:	2053524f          	fnmadd.s	ft4,ft6,ft5,ft4,unknown
    6cb0:	6544                	flw	fs1,12(a0)
    6cb2:	6574                	flw	fa3,76(a0)
    6cb4:	44207463          	bgeu	zero,sp,70fc <nAsciiDot+0x2b4>
    6cb8:	7665                	lui	a2,0xffff9
    6cba:	6369                	lui	t1,0x1a
    6cbc:	0065                	c.nop	25
    6cbe:	0000                	unimp
    6cc0:	6144                	flw	fs1,4(a0)
    6cc2:	6174                	flw	fa3,68(a0)
    6cc4:	4620                	lw	s0,72(a2)
    6cc6:	616d726f          	jal	tp,de2dc <_data_lma+0xd6b38>
    6cca:	3a74                	fld	fa3,240(a2)
    6ccc:	0000                	unimp
    6cce:	0000                	unimp
    6cd0:	79617247          	fmsub.s	ft4,ft2,fs6,fa5
    6cd4:	0000                	unimp
    6cd6:	0000                	unimp
    6cd8:	7354                	flw	fa3,36(a4)
    6cda:	2069                	jal	6d64 <strlen+0x32e>
    6cdc:	6e756f43          	fmadd.q	ft10,fa0,ft7,fa3,unknown
    6ce0:	3a74                	fld	fa3,240(a2)
    6ce2:	0000                	unimp
    6ce4:	6544                	flw	fs1,12(a0)
    6ce6:	6976                	flw	fs2,92(sp)
    6ce8:	53206563          	bltu	zero,s2,7212 <nAsciiDot+0x3ca>
    6cec:	6174                	flw	fa3,68(a0)
    6cee:	7574                	flw	fa3,108(a0)
    6cf0:	00003a73          	csrrc	s4,ustatus,zero
    6cf4:	f0bd                	bnez	s1,6c5a <strlen+0x224>
    6cf6:	f9ba                	fsw	fa4,240(sp)
    6cf8:	abc2                	fsd	fa6,464(sp)
    6cfa:	e1cc                	fsw	fa1,4(a1)
    6cfc:	beca                	fsd	fs2,376(sp)
    6cfe:	d520baa3          	0xd520baa3
    6d02:	d4fd                	beqz	s1,6cf0 <strlen+0x2ba>
    6d04:	b3da                	fsd	fs6,480(sp)
    6d06:	caf5                	beqz	a3,6dfa <strlen+0x3c4>
    6d08:	bbbc                	fsd	fa5,112(a5)
    6d0a:	cfe3c9af          	0xcfe3c9af
    6d0e:	cdf1                	beqz	a1,6dea <strlen+0x3b4>
    6d10:	2e2e2eb7          	lui	t4,0x2e2e2
    6d14:	2e2e                	fld	ft8,200(sp)
    6d16:	0a0d                	addi	s4,s4,3
    6d18:	0000                	unimp
    6d1a:	0000                	unimp
    6d1c:	f0bd                	bnez	s1,6c82 <strlen+0x24c>
    6d1e:	f9ba                	fsw	fa4,240(sp)
    6d20:	abc2                	fsd	fa6,464(sp)
    6d22:	e1cc                	fsw	fa1,4(a1)
    6d24:	beca                	fsd	fs2,376(sp)
    6d26:	d520baa3          	0xd520baa3
    6d2a:	d4fd                	beqz	s1,6d18 <strlen+0x2e2>
    6d2c:	b3da                	fsd	fs6,480(sp)
    6d2e:	caf5                	beqz	a3,6e22 <strlen+0x3ec>
    6d30:	bbbc                	fsd	fa5,112(a5)
    6d32:	cfe3c9af          	0xcfe3c9af
    6d36:	cdf1                	beqz	a1,6e12 <strlen+0x3dc>
    6d38:	2e2e2eb7          	lui	t4,0x2e2e2
    6d3c:	2e2e                	fld	ft8,200(sp)
    6d3e:	0000                	unimp
    6d40:	a7ca                	fsd	fs2,456(sp)
    6d42:	dcb0                	sw	a2,120(s1)
    6d44:	c9bfaca3          	sw	s11,-871(t6)
    6d48:	d8d6                	sw	s5,112(sp)
    6d4a:	c2d0                	sw	a2,4(a3)
    6d4c:	ceb0                	sw	a2,88(a3)
    6d4e:	e5b2                	fsw	fa2,200(sp)
    6d50:	e3c9                	bnez	a5,6dd2 <strlen+0x39c>
    6d52:	b7cdf1cf          	fnmadd.q	ft3,fs11,ft8,fs6
    6d56:	0a0da1a3          	sw	zero,163(s11)
    6d5a:	0000                	unimp
    6d5c:	f0bd                	bnez	s1,6cc2 <strlen+0x28c>
    6d5e:	f9ba                	fsw	fa4,240(sp)
    6d60:	abc2                	fsd	fa6,464(sp)
    6d62:	e1cc                	fsw	fa1,4(a1)
    6d64:	beca                	fsd	fs2,376(sp)
    6d66:	cf20baa3          	0xcf20baa3
    6d6a:	cdb5                	beqz	a1,6de6 <strlen+0x3b0>
    6d6c:	d6abbdb3          	0xd6abbdb3
    6d70:	d0d8                	sw	a4,36(s1)
    6d72:	b3c2                	fsd	fa6,480(sp)
    6d74:	caf5                	beqz	a3,6e68 <nAsciiDot+0x20>
    6d76:	bbbc                	fsd	fa5,112(a5)
    6d78:	cfe3c9af          	0xcfe3c9af
    6d7c:	cdf1                	beqz	a1,6e58 <nAsciiDot+0x10>
    6d7e:	2e2e2eb7          	lui	t4,0x2e2e2
    6d82:	0d2e                	slli	s10,s10,0xb
    6d84:	000a                	c.slli	zero,0x2
    6d86:	0000                	unimp
    6d88:	f0bd                	bnez	s1,6cee <strlen+0x2b8>
    6d8a:	f9ba                	fsw	fa4,240(sp)
    6d8c:	abc2                	fsd	fa6,464(sp)
    6d8e:	e1cc                	fsw	fa1,4(a1)
    6d90:	beca                	fsd	fs2,376(sp)
    6d92:	d520baa3          	0xd520baa3
    6d96:	d4fd                	beqz	s1,6d84 <strlen+0x34e>
    6d98:	b3da                	fsd	fs6,480(sp)
    6d9a:	caf5                	beqz	a3,6e8e <nAsciiDot+0x46>
    6d9c:	bbbc                	fsd	fa5,112(a5)
    6d9e:	cfe3c9af          	0xcfe3c9af
    6da2:	cdf1                	beqz	a1,6e7e <nAsciiDot+0x36>
    6da4:	2e2e2eb7          	lui	t4,0x2e2e2
    6da8:	2e2e                	fld	ft8,200(sp)
    6daa:	a6b9c9b3          	0xa6b9c9b3
    6dae:	0a0d                	addi	s4,s4,3
    6db0:	0000                	unimp
    6db2:	0000                	unimp
    6db4:	79726147          	fmsub.s	ft2,ft4,fs7,fa5,unknown
    6db8:	0000                	unimp
    6dba:	0000                	unimp
    6dbc:	000a6773          	csrrsi	a4,ustatus,20
    6dc0:	6425                	lui	s0,0x9
    6dc2:	0020                	addi	s0,sp,8
    6dc4:	0a65                	addi	s4,s4,25
    6dc6:	0000                	unimp
    6dc8:	6e49                	lui	t3,0x12
    6dca:	7469                	lui	s0,0xffffa
    6dcc:	4420                	lw	s0,72(s0)
    6dce:	7665                	lui	a2,0xffff9
    6dd0:	6369                	lui	t1,0x1a
    6dd2:	0065                	c.nop	25
    6dd4:	204d4143          	fmadd.s	ft2,fs10,ft4,ft4,rmm
    6dd8:	7245                	lui	tp,0xffff1
    6dda:	6f72                	flw	ft10,28(sp)
    6ddc:	0072                	c.slli	zero,0x1c
    6dde:	0000                	unimp
    6de0:	74746547          	0x74746547
    6de4:	6e69                	lui	t3,0x1a
    6de6:	6d492067          	0x6d492067
    6dea:	72500067          	jr	1829(zero) # 0 <GEC_USER_SECTOR_START>
    6dee:	6465                	lui	s0,0x19
    6df0:	6369                	lui	t1,0x1a
    6df2:	6974                	flw	fa3,84(a0)
    6df4:	676e                	flw	fa4,216(sp)
    6df6:	0000                	unimp
    6df8:	7552                	flw	fa0,52(sp)
    6dfa:	6e6e                	flw	ft8,216(sp)
    6dfc:	6e69                	lui	t3,0x1a
    6dfe:	6e490067          	jr	1764(s2)
    6e02:	7469                	lui	s0,0xffffa
    6e04:	63637553          	0x63637553
    6e08:	7365                	lui	t1,0xffff9
    6e0a:	65530073          	0x65530073
    6e0e:	646e                	flw	fs0,216(sp)
    6e10:	6e69                	lui	t3,0x1a
    6e12:	74614467          	0x74614467
    6e16:	0061                	c.nop	24
    6e18:	6946                	flw	fs2,80(sp)
    6e1a:	746c                	flw	fa1,108(s0)
    6e1c:	7265                	lui	tp,0xffff9
    6e1e:	6e69                	lui	t3,0x1a
    6e20:	72724567          	0x72724567
    6e24:	0000726f          	jal	tp,de24 <_data_lma+0x6680>
    6e28:	0000                	unimp
    6e2a:	0000                	unimp
    6e2c:	0000                	unimp
    6e2e:	3fe0                	fld	fs0,248(a5)
    6e30:	0000                	unimp
    6e32:	0000                	unimp
    6e34:	0000                	unimp
    6e36:	3ff0                	fld	fa2,248(a5)
    6e38:	0000                	unimp
    6e3a:	3f80                	fld	fs0,56(a5)
    6e3c:	bccaf5b3          	0xbccaf5b3
    6e40:	fdd2afbb          	0xfdd2afbb
    6e44:	c5bd                	beqz	a1,6eb2 <nAsciiDot+0x6a>
	...

00006e48 <nAsciiDot>:
	...
    6e58:	0000 3c18 3c3c 1818 0018 1818 0000 0000     ...<<<..........
    6e68:	6600 6666 0024 0000 0000 0000 0000 0000     .fff$...........
    6e78:	0000 3600 7f36 3636 7f36 3636 0000 0000     ...66.666.66....
    6e88:	1818 633e 0343 603e 6361 183e 0018 0000     ..>cC.>`ac>.....
    6e98:	0000 0000 6343 1830 060c 6163 0000 0000     ....Cc0...ca....
    6ea8:	0000 361c 1c36 3b6e 3333 6e33 0000 0000     ...66.n;333n....
    6eb8:	0c00 0c0c 0006 0000 0000 0000 0000 0000     ................
    6ec8:	0000 1830 0c0c 0c0c 0c0c 3018 0000 0000     ..0........0....
    6ed8:	0000 180c 3030 3030 3030 0c18 0000 0000     ....000000......
    6ee8:	0000 0000 6600 ff3c 663c 0000 0000 0000     .....f<.<f......
    6ef8:	0000 0000 1800 7e18 1818 0000 0000 0000     .......~........
	...
    6f10:	1800 1818 000c 0000 0000 0000 0000 7f00     ................
	...
    6f30:	0000 1818 0000 0000 0000 0000 6040 1830     ............@`0.
    6f40:	060c 0103 0000 0000 0000 633e 7363 6b6b     ..........>ccskk
    6f50:	6367 3e63 0000 0000 0000 1c18 181e 1818     gcc>............
    6f60:	1818 7e18 0000 0000 0000 633e 3060 0c18     ...~......>c`0..
    6f70:	0306 7f63 0000 0000 0000 633e 6060 603c     ..c.......>c``<`
    6f80:	6060 3e63 0000 0000 0000 3830 363c 7f33     ``c>......08<63.
    6f90:	3030 7830 0000 0000 0000 037f 0303 703f     000x..........?p
    6fa0:	6060 3e63 0000 0000 0000 061c 0303 633f     ``c>..........?c
    6fb0:	6363 3e63 0000 0000 0000 637f 6060 1830     ccc>.......c``0.
    6fc0:	0c0c 0c0c 0000 0000 0000 633e 6363 633e     ..........>ccc>c
    6fd0:	6363 3e63 0000 0000 0000 633e 6363 607e     ccc>......>ccc~`
    6fe0:	6060 1e30 0000 0000 0000 0000 1818 0000     ``0.............
    6ff0:	1800 0018 0000 0000 0000 0000 1818 0000     ................
    7000:	1800 0c18 0000 0000 0000 6000 1830 060c     ...........`0...
    7010:	180c 6030 0000 0000 0000 0000 0000 007f     ..0`............
    7020:	7f00 0000 0000 0000 0000 0600 180c 6030     ..............0`
    7030:	1830 060c 0000 0000 0000 633e 3063 1818     0.........>cc0..
    7040:	0018 1818 0000 0000 0000 3e00 6363 7b7b     ...........>cc{{
    7050:	3b7b 3e03 0000 0000 0000 1c08 6336 7f63     {;.>........6cc.
    7060:	6363 6363 0000 0000 0000 663f 6666 663e     cccc......?fff>f
    7070:	6666 3f66 0000 0000 0000 663c 0343 0303     fff?......<fC...
    7080:	4303 3c66 0000 0000 0000 361f 6666 6666     .Cf<.......6ffff
    7090:	6666 1f36 0000 0000 0000 667f 1646 161e     ff6........fF...
    70a0:	4606 7f66 0000 0000 0000 667f 1646 161e     .Ff........fF...
    70b0:	0606 0f06 0000 0000 0000 663c 0343 7b03     ..........<fC..{
    70c0:	6363 5c66 0000 0000 0000 6363 6363 637f     ccf\......cccc.c
    70d0:	6363 6363 0000 0000 0000 183c 1818 1818     cccc......<.....
    70e0:	1818 3c18 0000 0000 0000 3078 3030 3030     ...<......x00000
    70f0:	3333 1e33 0000 0000 0000 6667 3636 1e1e     333.......gf66..
    7100:	6636 6766 0000 0000 0000 060f 0606 0606     6ffg............
    7110:	4606 7f66 0000 0000 0000 7763 7f7f 636b     .Ff.......cw..kc
    7120:	6363 6363 0000 0000 0000 6763 7f6f 737b     cccc......cgo.{s
    7130:	6363 6363 0000 0000 0000 361c 6363 6363     cccc.......6cccc
    7140:	6363 1c36 0000 0000 0000 663f 6666 063e     cc6.......?fff>.
    7150:	0606 0f06 0000 0000 0000 633e 6363 6363     ..........>ccccc
    7160:	6b63 3e7b 7030 0000 0000 663f 6666 363e     ck{>0p....?fff>6
    7170:	6666 6766 0000 0000 0000 633e 0663 301c     fffg......>cc..0
    7180:	6360 3e63 0000 0000 0000 7e7e 185a 1818     `cc>......~~Z...
    7190:	1818 3c18 0000 0000 0000 6363 6363 6363     ...<......cccccc
    71a0:	6363 3e63 0000 0000 0000 6363 6363 6363     ccc>......cccccc
    71b0:	3663 081c 0000 0000 0000 6363 6363 6b63     c6........ccccck
    71c0:	7f6b 3636 0000 0000 0000 6363 3636 1c1c     k.66......cc66..
    71d0:	3636 6363 0000 0000 0000 6666 6666 183c     66cc......ffff<.
    71e0:	1818 3c18 0000 0000 0000 637f 3061 0c18     ...<.......ca0..
    71f0:	4306 7f63 0000 0000 0000 0c3c 0c0c 0c0c     .Cc.......<.....
    7200:	0c0c 3c0c 0000 0000 0000 0100 0703 1c0e     ...<............
    7210:	7038 4060 0000 0000 0000 303c 3030 3030     8p`@......<00000
    7220:	3030 3c30 0000 0000 1c08 6336 0000 0000     000<......6c....
	...
    7244:	ff00 0000 0c0c 0018 0000 0000 0000 0000     ................
	...
    725c:	1e00 3e30 3333 6e33 0000 0000 0000 0607     ..0>333n........
    726c:	1e06 6636 6666 3b66 0000 0000 0000 0000     ..6ffff;........
    727c:	3e00 0363 0303 3e63 0000 0000 0000 3038     .>c...c>......80
    728c:	3c30 3336 3333 6e33 0000 0000 0000 0000     0<63333n........
    729c:	3e00 7f63 0303 3e63 0000 0000 0000 361c     .>c...c>.......6
    72ac:	0626 060f 0606 0f06 0000 0000 0000 0000     &...............
    72bc:	6e00 3333 3333 3e33 3330 001e 0000 0607     .n33333>03......
    72cc:	3606 666e 6666 6766 0000 0000 0000 1818     .6nffffg........
    72dc:	1c00 1818 1818 3c18 0000 0000 0000 6060     .......<......``
    72ec:	7000 6060 6060 6060 6666 003c 0000 0607     .p``````ff<.....
    72fc:	6606 1e36 361e 6766 0000 0000 0000 181c     .f6..6fg........
    730c:	1818 1818 1818 3c18 0000 0000 0000 0000     .......<........
    731c:	3700 6b7f 6b6b 6b6b 0000 0000 0000 0000     .7.kkkkk........
    732c:	3b00 6666 6666 6666 0000 0000 0000 0000     .;ffffff........
    733c:	3e00 6363 6363 3e63 0000 0000 0000 0000     .>ccccc>........
    734c:	3b00 6666 6666 3e66 0606 000f 0000 0000     .;fffff>........
    735c:	6e00 3333 3333 3e33 3030 0078 0000 0000     .n33333>00x.....
    736c:	3b00 466e 0606 0f06 0000 0000 0000 0000     .;nF............
    737c:	3e00 0663 301c 3e63 0000 0000 0000 0c08     .>c..0c>........
    738c:	3f0c 0c0c 0c0c 386c 0000 0000 0000 0000     .?....l8........
    739c:	3300 3333 3333 6e33 0000 0000 0000 0000     .333333n........
    73ac:	6600 6666 6666 183c 0000 0000 0000 0000     .fffff<.........
    73bc:	6300 6363 6b6b 367f 0000 0000 0000 0000     .ccckk.6........
    73cc:	6300 1c36 1c1c 6336 0000 0000 0000 0000     .c6...6c........
    73dc:	6300 6363 6363 7e63 3060 001f 0000 0000     .cccccc~`0......
    73ec:	7f00 1833 060c 7f63 0000 0000 0000 1870     ..3...c.......p.
    73fc:	1818 180e 1818 7018 0000 0000 0000 1818     .......p........
    740c:	1818 1800 1818 1818 0000 0000 0000 180e     ................
    741c:	1818 1870 1818 0e18 0000 0000 0000 3b6e     ..p...........n;
	...
    743c:	1c08 6336 6363 007f 0000 0000 23f4 0000     ..6ccc.......#..
    744c:	25b0 0000 25b0 0000 25b0 0000 25b0 0000     .%...%...%...%..
    745c:	25b0 0000 25b0 0000 25b0 0000 25b0 0000     .%...%...%...%..
    746c:	25b0 0000 24f6 0000 2534 0000 2292 0000     .%...$..4%..."..
    747c:	25b0 0000 232c 0000 25b0 0000 25b0 0000     .%..,#...%...%..
    748c:	2292 0000 25b0 0000 25b0 0000 25b0 0000     ."...%...%...%..
    749c:	25b0 0000 25a4 0000 24c0 0000 2502 0000     .%...%...$...%..
    74ac:	25b0 0000 25b0 0000 2546 0000 25b0 0000     .%...%..F%...%..
    74bc:	250e 0000 25b0 0000 25b0 0000 23f4 0000     .%...%...%...#..
    74cc:	0000 0000 a000 85d8 3457 4376 0000 0000     ........W4vC....
    74dc:	0000 4024 3130 3332 3534 3736 3938 4241     ..$@0123456789AB
    74ec:	4443 4645 3032 3032 3730 3631 0000 0000     CDEF20200716....
    74fc:	2020 bea1 7355 7265 e1cc beca bfa1 baa3       ..User........
    750c:	d0d6 cfb6 ccbc d0b3 0a0d 0000 2020 bea1     ............  ..
    751c:	7355 7265 e1cc beca bfa1 baa3 abbd f8bd     User............
    752c:	ebc8 7355 7265 c4b5 616d 6e69 afba fdca     ..User..main....
    753c:	b4d6 d0d0 2e2e 0d2e 0a0a 0000 36e0 0000     .............6..
    754c:	3784 0000 37d8 0000 3868 0000 3868 0000     .7...7..h8..h8..
    755c:	3812 0000 3834 0000 3734 0000 392e 0000     .8..48..47...9..
    756c:	3948 0000 3954 0000 3946 0000 3946 0000     H9..T9..F9..F9..
    757c:	395c 0000 3964 0000 393a 0000 39dc 0000     \9..d9..:9...9..
    758c:	3ad2 0000 3b0e 0000 3b40 0000 3b9a 0000     .:...;..@;...;..
    759c:	3bc4 0000 3bf4 0000 d8f6 ffff d7e8 ffff     .;...;..........
    75ac:	d7e8 ffff d7e6 ffff d7ee ffff d7ee ffff     ................
    75bc:	d7b4 ffff d7e6 ffff d7ee ffff d7b4 ffff     ................
    75cc:	d7ee ffff d7e6 ffff d8e2 ffff d8e2 ffff     ................
    75dc:	d8e2 ffff d7b4 ffff e9fc ffff e922 ffff     ............"...
    75ec:	e9f6 ffff e92a ffff e9f6 ffff e8f0 ffff     ....*...........
    75fc:	e9f6 ffff e92a ffff e922 ffff e922 ffff     ....*..."..."...
    760c:	e8f0 ffff e92a ffff e930 ffff e930 ffff     ....*...0...0...
    761c:	e930 ffff e8f0 ffff e8e2 ffff e8e2 ffff     0...............
    762c:	e9b6 ffff ea92 ffff e9b6 ffff e8b0 ffff     ................
    763c:	e9b6 ffff ea92 ffff e8e2 ffff e8e2 ffff     ................
    764c:	e8b0 ffff ea92 ffff e8f0 ffff e8f0 ffff     ................
    765c:	e8f0 ffff e8b0 ffff ec7a ffff ebcc ffff     ........z.......
    766c:	ebcc ffff ebca ffff ebd0 ffff ebd0 ffff     ................
    767c:	eba0 ffff ebca ffff ebd0 ffff eba0 ffff     ................
    768c:	ebd0 ffff ebca ffff ec68 ffff ec68 ffff     ........h...h...
    769c:	ec68 ffff eba0 ffff                         h.......

000076a4 <__clz_tab>:
    76a4:	0100 0202 0303 0303 0404 0404 0404 0404     ................
    76b4:	0505 0505 0505 0505 0505 0505 0505 0505     ................
    76c4:	0606 0606 0606 0606 0606 0606 0606 0606     ................
    76d4:	0606 0606 0606 0606 0606 0606 0606 0606     ................
    76e4:	0707 0707 0707 0707 0707 0707 0707 0707     ................
    76f4:	0707 0707 0707 0707 0707 0707 0707 0707     ................
    7704:	0707 0707 0707 0707 0707 0707 0707 0707     ................
    7714:	0707 0707 0707 0707 0707 0707 0707 0707     ................
    7724:	0808 0808 0808 0808 0808 0808 0808 0808     ................
    7734:	0808 0808 0808 0808 0808 0808 0808 0808     ................
    7744:	0808 0808 0808 0808 0808 0808 0808 0808     ................
    7754:	0808 0808 0808 0808 0808 0808 0808 0808     ................
    7764:	0808 0808 0808 0808 0808 0808 0808 0808     ................
    7774:	0808 0808 0808 0808 0808 0808 0808 0808     ................
    7784:	0808 0808 0808 0808 0808 0808 0808 0808     ................
    7794:	0808 0808 0808 0808 0808 0808 0808 0808     ................
