
WCH-CH32V307VCT6-BEEP.elf:     file format elf32-littleriscv
WCH-CH32V307VCT6-BEEP.elf
architecture: riscv:rv32, flags 0x00000112:
EXEC_P, HAS_SYMS, D_PAGED
start address 0x00000000

Program Header:
    LOAD off    0x00001000 vaddr 0x00000000 paddr 0x00000000 align 2**12
         filesz 0x00002f5c memsz 0x00002f5c flags r-x
    LOAD off    0x00004000 vaddr 0x20000000 paddr 0x00002f5c align 2**12
         filesz 0x00000028 memsz 0x00000030 flags rw-
    LOAD off    0x00004800 vaddr 0x2000f800 paddr 0x2000f800 align 2**12
         filesz 0x00000000 memsz 0x00000800 flags rw-

Sections:
Idx Name          Size      VMA       LMA       File off  Algn
  0 .init         00000004  00000000  00000000  00001000  2**1
                  CONTENTS, ALLOC, LOAD, READONLY, CODE
  1 .vector       000001bc  00000004  00000004  00001004  2**1
                  CONTENTS, ALLOC, LOAD, READONLY, CODE
  2 .text         00002d9c  000001c0  000001c0  000011c0  2**2
                  CONTENTS, ALLOC, LOAD, READONLY, CODE
  3 .fini         00000000  00002f5c  00002f5c  00004028  2**0
                  CONTENTS, ALLOC, LOAD, CODE
  4 .dalign       00000000  20000000  20000000  00004028  2**0
                  CONTENTS
  5 .dlalign      00000000  00002f5c  00002f5c  00004028  2**0
                  CONTENTS
  6 .data         00000028  20000000  00002f5c  00004000  2**2
                  CONTENTS, ALLOC, LOAD, DATA
  7 .bss          00000008  20000028  00002f84  00004028  2**2
                  ALLOC
  8 .stack        00000800  2000f800  2000f800  00004800  2**0
                  ALLOC
  9 .debug_info   0000ad05  00000000  00000000  00004028  2**0
                  CONTENTS, READONLY, DEBUGGING
 10 .debug_abbrev 00001f15  00000000  00000000  0000ed2d  2**0
                  CONTENTS, READONLY, DEBUGGING
 11 .debug_aranges 00000930  00000000  00000000  00010c48  2**3
                  CONTENTS, READONLY, DEBUGGING
 12 .debug_ranges 00000958  00000000  00000000  00011578  2**3
                  CONTENTS, READONLY, DEBUGGING
 13 .debug_line   0000ad08  00000000  00000000  00011ed0  2**0
                  CONTENTS, READONLY, DEBUGGING
 14 .debug_str    00002e5b  00000000  00000000  0001cbd8  2**0
                  CONTENTS, READONLY, DEBUGGING
 15 .comment      00000033  00000000  00000000  0001fa33  2**0
                  CONTENTS, READONLY
 16 .debug_frame  000013b4  00000000  00000000  0001fa68  2**2
                  CONTENTS, READONLY, DEBUGGING
 17 .debug_loc    00004221  00000000  00000000  00020e1c  2**0
                  CONTENTS, READONLY, DEBUGGING
SYMBOL TABLE:
00000000 l    d  .init	00000000 .init
00000004 l    d  .vector	00000000 .vector
000001c0 l    d  .text	00000000 .text
00002f5c l    d  .fini	00000000 .fini
20000000 l    d  .dalign	00000000 .dalign
00002f5c l    d  .dlalign	00000000 .dlalign
20000000 l    d  .data	00000000 .data
20000028 l    d  .bss	00000000 .bss
2000f800 l    d  .stack	00000000 .stack
00000000 l    d  .debug_info	00000000 .debug_info
00000000 l    d  .debug_abbrev	00000000 .debug_abbrev
00000000 l    d  .debug_aranges	00000000 .debug_aranges
00000000 l    d  .debug_ranges	00000000 .debug_ranges
00000000 l    d  .debug_line	00000000 .debug_line
00000000 l    d  .debug_str	00000000 .debug_str
00000000 l    d  .comment	00000000 .comment
00000000 l    d  .debug_frame	00000000 .debug_frame
00000000 l    d  .debug_loc	00000000 .debug_loc
00000000 l    df *ABS*	00000000 ./Startup/startup_ch32v30x_D8C.o
00000004 l       .vector	00000000 _vector_base
00000000 l    df *ABS*	00000000 ch32v30x_it.c
00000000 l    df *ABS*	00000000 main.c
00000000 l    df *ABS*	00000000 system_ch32v30x.c
00000000 l    df *ABS*	00000000 ch32v30x_gpio.c
00000000 l    df *ABS*	00000000 ch32v30x_i2c.c
00000000 l    df *ABS*	00000000 ch32v30x_misc.c
00000000 l    df *ABS*	00000000 ch32v30x_rcc.c
20000010 l     O .data	00000010 APBAHBPrescTable
20000024 l     O .data	00000004 ADCPrescTable
00000000 l    df *ABS*	00000000 ch32v30x_tim.c
00000000 l    df *ABS*	00000000 ch32v30x_usart.c
00000000 l    df *ABS*	00000000 ES8388.c
00000000 l    df *ABS*	00000000 beep.c
00000000 l    df *ABS*	00000000 led.c
00000000 l    df *ABS*	00000000 debug.c
2000002c l     O .bss	00000002 p_ms
2000002e l     O .bss	00000001 p_us
00000000 l    df *ABS*	00000000 printfloat.c
00000000 l    df *ABS*	00000000 memcpy.c
000004a0  w      .text	00000000 EXTI2_IRQHandler
000004a0  w      .text	00000000 TIM8_TRG_COM_IRQHandler
000004a0  w      .text	00000000 TIM8_CC_IRQHandler
000004a0  w      .text	00000000 UART8_IRQHandler
00000f0e g     F .text	00000034 ES8388_close
20000820 g       .data	00000000 __global_pointer$
000001c8 g     F .text	00000028 .hidden __riscv_save_8
000004a0  w      .text	00000000 TIM1_CC_IRQHandler
00000222 g     F .text	00000002 HardFault_Handler
00000214 g     F .text	0000000c .hidden __riscv_restore_3
000004a0  w      .text	00000000 TIM6_IRQHandler
000004a0  w      .text	00000000 SysTick_Handler
000004a0  w      .text	00000000 PVD_IRQHandler
000004a0  w      .text	00000000 SDIO_IRQHandler
000004a0  w      .text	00000000 TIM9_BRK_IRQHandler
00000dc6 g     F .text	00000148 ES8388_Init
00000200 g     F .text	00000020 .hidden __riscv_restore_10
000004a0  w      .text	00000000 DMA2_Channel8_IRQHandler
00000220 g     F .text	00000002 NMI_Handler
000004a0  w      .text	00000000 CAN2_RX1_IRQHandler
000004a0  w      .text	00000000 EXTI3_IRQHandler
000001c8 g     F .text	00000028 .hidden __riscv_save_11
000004a0  w      .text	00000000 USBHS_IRQHandler
00000c88 g     F .text	0000000a USART_GetFlagStatus
000004a0  w      .text	00000000 DMA2_Channel9_IRQHandler
000004a0  w      .text	00000000 TIM10_CC_IRQHandler
20000028 g       .bss	00000000 _sbss
00000800 g       *ABS*	00000000 __stack_size
000011a4 g     F .text	0000005a USART_Printf_Init
000004a0  w      .text	00000000 USBFS_IRQHandler
00000fea g     F .text	00000054 BEEP_SetFrequency
00000214 g     F .text	0000000c .hidden __riscv_restore_2
00000b96 g     F .text	00000016 TIM_CtrlPWMOutputs
00001282 g     F .text	000000b2 memcpy
000005f4 g     F .text	000000d6 GPIO_PinRemapConfig
000004a0  w      .text	00000000 EXTI0_IRQHandler
000004a0  w      .text	00000000 I2C2_EV_IRQHandler
000004a0  w      .text	00000000 TIM10_TRG_COM_IRQHandler
00000b7e g     F .text	00000018 TIM_Cmd
0000123c  w    F .text	00000046 puts
20000020 g     O .data	00000004 SystemCoreClock
00000004 g       .init	00000000 _einit
000009ec g     F .text	0000001e RCC_APB2PeriphClockCmd
000001c0 g     F .text	00000030 .hidden __riscv_save_12
000004a0  w      .text	00000000 CAN2_SCE_IRQHandler
000004a0  w      .text	00000000 ADC1_2_IRQHandler
0000052c g     F .text	000000c0 GPIO_Init
000004a0  w      .text	00000000 Break_Point_Handler
00000200 g     F .text	00000020 .hidden __riscv_restore_11
20000028 g     O .bss	00000004 NVIC_Priority_Group
000004a0  w      .text	00000000 SPI1_IRQHandler
00000c6a g     F .text	00000016 USART_Cmd
000001f0 g     F .text	0000000c .hidden __riscv_save_1
000004a0  w      .text	00000000 TAMPER_IRQHandler
000010fc g     F .text	00000048 LED_Init
00000214 g     F .text	0000000c .hidden __riscv_restore_0
00000ad2 g     F .text	000000ac TIM_OC3Init
000001d6 g     F .text	0000001a .hidden __riscv_save_7
000004a0  w      .text	00000000 CAN2_RX0_IRQHandler
000004a0  w      .text	00000000 TIM8_UP_IRQHandler
00000a0a g     F .text	0000001e RCC_APB1PeriphClockCmd
000004a0  w      .text	00000000 Ecall_M_Mode_Handler
2000f800 g       .stack	00000000 _heap_end
0000020a g     F .text	00000016 .hidden __riscv_restore_5
000004a0  w      .text	00000000 DMA2_Channel2_IRQHandler
000004a0  w      .text	00000000 DMA1_Channel4_IRQHandler
00000812 g     F .text	00000004 I2C_SendData
00000c92 g     F .text	00000026 ES8388_Contrl_Init
000006ca g     F .text	000000fc I2C_Init
000004a0  w      .text	00000000 TIM9_UP_IRQHandler
0000020a g     F .text	00000016 .hidden __riscv_restore_6
000004a0  w      .text	00000000 USART3_IRQHandler
000004a0  w      .text	00000000 RTC_IRQHandler
20000030 g       .bss	00000000 _ebss
000004a0  w      .text	00000000 DMA1_Channel7_IRQHandler
00000bc6 g     F .text	0000000e TIM_OC3PreloadConfig
00000bd4 g     F .text	00000004 TIM_SetAutoreload
000004a0  w      .text	00000000 CAN1_RX1_IRQHandler
00001144 g     F .text	0000002a Delay_Init
000004a0  w      .text	00000000 DVP_IRQHandler
000004a0  w      .text	00000000 UART5_IRQHandler
0000103e g     F .text	00000022 BEEP_PlayTone
000005ec g     F .text	00000004 GPIO_SetBits
000004a0  w      .text	00000000 TIM4_IRQHandler
00000bac g     F .text	0000001a TIM_ARRPreloadConfig
000001c8 g     F .text	00000028 .hidden __riscv_save_9
000004a0  w      .text	00000000 DMA2_Channel1_IRQHandler
000007de g     F .text	0000001a I2C_GenerateSTART
000001d6 g     F .text	0000001a .hidden __riscv_save_4
000004a0  w      .text	00000000 I2C1_EV_IRQHandler
00000876 g     F .text	00000176 RCC_GetClocksFreq
000004a0  w      .text	00000000 DMA1_Channel6_IRQHandler
000004a0  w      .text	00000000 UART4_IRQHandler
000004a0  w      .text	00000000 DMA2_Channel4_IRQHandler
00000bdc g     F .text	0000008e USART_Init
000004a0  w      .text	00000000 TIM3_IRQHandler
000004a0  w      .text	00000000 RCC_IRQHandler
000001f0 g     F .text	0000000c .hidden __riscv_save_3
000004a0  w      .text	00000000 TIM1_TRG_COM_IRQHandler
000004a0  w      .text	00000000 DMA1_Channel1_IRQHandler
00000000 g       .init	00000000 _start
000004a0  w      .text	00000000 DMA2_Channel7_IRQHandler
20000000 g     O .data	00000010 AHBPrescTable
0000083e g     F .text	00000032 I2C_GetFlagStatus
000004a0  w      .text	00000000 EXTI15_10_IRQHandler
000007c6 g     F .text	00000018 I2C_Cmd
000005f0 g     F .text	00000004 GPIO_ResetBits
000004a0  w      .text	00000000 TIM7_IRQHandler
000004a0  w      .text	00000000 CAN2_TX_IRQHandler
20000000 g       .dalign	00000000 _data_vma
000004a0  w      .text	00000000 TIM5_IRQHandler
00000bd8 g     F .text	00000004 TIM_SetCompare3
000004a0  w      .text	00000000 EXTI9_5_IRQHandler
00001060 g     F .text	0000009c BEEP_PlayBadApple
000001c8 g     F .text	00000028 .hidden __riscv_save_10
00000816 g     F .text	00000012 I2C_Send7bitAddress
000004a0  w      .text	00000000 ETH_WKUP_IRQHandler
0000020a g     F .text	00000016 .hidden __riscv_restore_4
00000200 g     F .text	00000020 .hidden __riscv_restore_8
000001d6 g     F .text	0000001a .hidden __riscv_save_6
000004a0  w      .text	00000000 SPI2_IRQHandler
00000200 g     F .text	00000020 .hidden __riscv_restore_9
0000020a g     F .text	00000016 .hidden __riscv_restore_7
00000224 g     F .text	00000054 main
000004a0  w      .text	00000000 TIM10_BRK_IRQHandler
000004a0  w      .text	00000000 TIM9_CC_IRQHandler
000004a0  w      .text	00000000 DMA2_Channel5_IRQHandler
000004a0  w      .text	00000000 DMA1_Channel5_IRQHandler
000004a0  w      .text	00000000 EXTI4_IRQHandler
0000116e g     F .text	00000036 Delay_Ms
000004a0  w      .text	00000000 USB_LP_CAN1_RX0_IRQHandler
00000f42 g     F .text	000000a8 BEEP_PWM_Init_1MHz
00000278 g     F .text	000000fa SystemInit
000004a0  w      .text	00000000 RNG_IRQHandler
000004a0  w      .text	00000000 USB_HP_CAN1_TX_IRQHandler
00000000 g       .init	00000000 _sinit
000004a0  w      .text	00000000 DMA1_Channel3_IRQHandler
000004a0  w      .text	00000000 ETH_IRQHandler
000004a0  w      .text	00000000 TIM1_UP_IRQHandler
000004a0  w      .text	00000000 WWDG_IRQHandler
000004a0  w      .text	00000000 USBHSWakeup_IRQHandler
000004a0  w      .text	00000000 DMA2_Channel11_IRQHandler
000004a0  w      .text	00000000 Ecall_U_Mode_Handler
000004a0  w      .text	00000000 DMA2_Channel6_IRQHandler
000004a0  w      .text	00000000 TIM2_IRQHandler
20010000 g       .stack	00000000 _eusrstack
00000cde g     F .text	000000e8 ES8388_Write_Reg
000001f0 g     F .text	0000000c .hidden __riscv_save_2
000004a0  w      .text	00000000 SW_Handler
000004a0  w      .text	00000000 TIM1_BRK_IRQHandler
00000c80 g     F .text	00000008 USART_SendData
000004a0  w      .text	00000000 DMA2_Channel10_IRQHandler
000004a0  w      .text	00000000 EXTI1_IRQHandler
000001d6 g     F .text	0000001a .hidden __riscv_save_5
00000cb8 g     F .text	00000026 ES8388_WaitEvent
000011fe g     F .text	0000003e _write
20000028 g       .data	00000000 _edata
20000030 g       .bss	00000000 _end
00000a28 g     F .text	000000aa TIM_TimeBaseInit
000004a0  w      .text	00000000 RTCAlarm_IRQHandler
00002f5c g       .dlalign	00000000 _data_lma
000004a0  w      .text	00000000 TIM10_UP_IRQHandler
000004a0  w      .text	00000000 TIM9_TRG_COM_IRQHandler
000004a0  w      .text	00000000 UART7_IRQHandler
000004a0  w      .text	00000000 USART2_IRQHandler
000004a0  w      .text	00000000 UART6_IRQHandler
00000372 g     F .text	0000012e SystemCoreClockUpdate
000004a0  w      .text	00000000 I2C2_ER_IRQHandler
000004a0  w      .text	00000000 DMA1_Channel2_IRQHandler
000001fc g     F .text	00000024 .hidden __riscv_restore_12
000004a0  w      .text	00000000 TIM8_BRK_IRQHandler
000004a2  w      .text	00000000 handle_reset
000004a0  w      .text	00000000 CAN1_SCE_IRQHandler
000004a0  w      .text	00000000 FLASH_IRQHandler
000001f0 g     F .text	0000000c .hidden __riscv_save_0
000004a0  w      .text	00000000 USART1_IRQHandler
000004a0  w      .text	00000000 SPI3_IRQHandler
00000828 g     F .text	00000016 I2C_CheckEvent
000007f8 g     F .text	0000001a I2C_GenerateSTOP
000004a0  w      .text	00000000 I2C1_ER_IRQHandler
00000870 g     F .text	00000006 NVIC_PriorityGroupConfig
00000214 g     F .text	0000000c .hidden __riscv_restore_1
000004a0  w      .text	00000000 USBWakeUp_IRQHandler
000004a0  w      .text	00000000 DMA2_Channel3_IRQHandler



Disassembly of section .init:

00000000 <_sinit>:
   0:	4a20006f          	j	4a2 <handle_reset>

Disassembly of section .vector:

00000004 <_vector_base>:
	...
   c:	0220                	addi	s0,sp,264
   e:	0000                	unimp
  10:	0222                	slli	tp,tp,0x8
  12:	0000                	unimp
  14:	0000                	unimp
  16:	0000                	unimp
  18:	04a0                	addi	s0,sp,584
	...
  22:	0000                	unimp
  24:	04a0                	addi	s0,sp,584
  26:	0000                	unimp
  28:	04a0                	addi	s0,sp,584
	...
  32:	0000                	unimp
  34:	04a0                	addi	s0,sp,584
  36:	0000                	unimp
  38:	0000                	unimp
  3a:	0000                	unimp
  3c:	04a0                	addi	s0,sp,584
  3e:	0000                	unimp
  40:	0000                	unimp
  42:	0000                	unimp
  44:	04a0                	addi	s0,sp,584
  46:	0000                	unimp
  48:	04a0                	addi	s0,sp,584
  4a:	0000                	unimp
  4c:	04a0                	addi	s0,sp,584
  4e:	0000                	unimp
  50:	04a0                	addi	s0,sp,584
  52:	0000                	unimp
  54:	04a0                	addi	s0,sp,584
  56:	0000                	unimp
  58:	04a0                	addi	s0,sp,584
  5a:	0000                	unimp
  5c:	04a0                	addi	s0,sp,584
  5e:	0000                	unimp
  60:	04a0                	addi	s0,sp,584
  62:	0000                	unimp
  64:	04a0                	addi	s0,sp,584
  66:	0000                	unimp
  68:	04a0                	addi	s0,sp,584
  6a:	0000                	unimp
  6c:	04a0                	addi	s0,sp,584
  6e:	0000                	unimp
  70:	04a0                	addi	s0,sp,584
  72:	0000                	unimp
  74:	04a0                	addi	s0,sp,584
  76:	0000                	unimp
  78:	04a0                	addi	s0,sp,584
  7a:	0000                	unimp
  7c:	04a0                	addi	s0,sp,584
  7e:	0000                	unimp
  80:	04a0                	addi	s0,sp,584
  82:	0000                	unimp
  84:	04a0                	addi	s0,sp,584
  86:	0000                	unimp
  88:	04a0                	addi	s0,sp,584
  8a:	0000                	unimp
  8c:	04a0                	addi	s0,sp,584
  8e:	0000                	unimp
  90:	04a0                	addi	s0,sp,584
  92:	0000                	unimp
  94:	04a0                	addi	s0,sp,584
  96:	0000                	unimp
  98:	04a0                	addi	s0,sp,584
  9a:	0000                	unimp
  9c:	04a0                	addi	s0,sp,584
  9e:	0000                	unimp
  a0:	04a0                	addi	s0,sp,584
  a2:	0000                	unimp
  a4:	04a0                	addi	s0,sp,584
  a6:	0000                	unimp
  a8:	04a0                	addi	s0,sp,584
  aa:	0000                	unimp
  ac:	04a0                	addi	s0,sp,584
  ae:	0000                	unimp
  b0:	04a0                	addi	s0,sp,584
  b2:	0000                	unimp
  b4:	04a0                	addi	s0,sp,584
  b6:	0000                	unimp
  b8:	04a0                	addi	s0,sp,584
  ba:	0000                	unimp
  bc:	04a0                	addi	s0,sp,584
  be:	0000                	unimp
  c0:	04a0                	addi	s0,sp,584
  c2:	0000                	unimp
  c4:	04a0                	addi	s0,sp,584
  c6:	0000                	unimp
  c8:	04a0                	addi	s0,sp,584
  ca:	0000                	unimp
  cc:	04a0                	addi	s0,sp,584
  ce:	0000                	unimp
  d0:	04a0                	addi	s0,sp,584
  d2:	0000                	unimp
  d4:	04a0                	addi	s0,sp,584
  d6:	0000                	unimp
  d8:	04a0                	addi	s0,sp,584
  da:	0000                	unimp
  dc:	04a0                	addi	s0,sp,584
  de:	0000                	unimp
  e0:	04a0                	addi	s0,sp,584
  e2:	0000                	unimp
  e4:	04a0                	addi	s0,sp,584
  e6:	0000                	unimp
  e8:	04a0                	addi	s0,sp,584
  ea:	0000                	unimp
  ec:	04a0                	addi	s0,sp,584
  ee:	0000                	unimp
  f0:	04a0                	addi	s0,sp,584
  f2:	0000                	unimp
  f4:	04a0                	addi	s0,sp,584
  f6:	0000                	unimp
  f8:	04a0                	addi	s0,sp,584
  fa:	0000                	unimp
  fc:	04a0                	addi	s0,sp,584
  fe:	0000                	unimp
 100:	04a0                	addi	s0,sp,584
 102:	0000                	unimp
 104:	0000                	unimp
 106:	0000                	unimp
 108:	04a0                	addi	s0,sp,584
 10a:	0000                	unimp
 10c:	04a0                	addi	s0,sp,584
 10e:	0000                	unimp
 110:	04a0                	addi	s0,sp,584
 112:	0000                	unimp
 114:	04a0                	addi	s0,sp,584
 116:	0000                	unimp
 118:	04a0                	addi	s0,sp,584
 11a:	0000                	unimp
 11c:	04a0                	addi	s0,sp,584
 11e:	0000                	unimp
 120:	04a0                	addi	s0,sp,584
 122:	0000                	unimp
 124:	04a0                	addi	s0,sp,584
 126:	0000                	unimp
 128:	04a0                	addi	s0,sp,584
 12a:	0000                	unimp
 12c:	04a0                	addi	s0,sp,584
 12e:	0000                	unimp
 130:	04a0                	addi	s0,sp,584
 132:	0000                	unimp
 134:	04a0                	addi	s0,sp,584
 136:	0000                	unimp
 138:	04a0                	addi	s0,sp,584
 13a:	0000                	unimp
 13c:	04a0                	addi	s0,sp,584
 13e:	0000                	unimp
 140:	04a0                	addi	s0,sp,584
 142:	0000                	unimp
 144:	04a0                	addi	s0,sp,584
 146:	0000                	unimp
 148:	04a0                	addi	s0,sp,584
 14a:	0000                	unimp
 14c:	04a0                	addi	s0,sp,584
 14e:	0000                	unimp
 150:	04a0                	addi	s0,sp,584
 152:	0000                	unimp
 154:	04a0                	addi	s0,sp,584
 156:	0000                	unimp
 158:	04a0                	addi	s0,sp,584
 15a:	0000                	unimp
 15c:	04a0                	addi	s0,sp,584
 15e:	0000                	unimp
 160:	04a0                	addi	s0,sp,584
 162:	0000                	unimp
 164:	04a0                	addi	s0,sp,584
 166:	0000                	unimp
 168:	04a0                	addi	s0,sp,584
 16a:	0000                	unimp
 16c:	04a0                	addi	s0,sp,584
 16e:	0000                	unimp
 170:	04a0                	addi	s0,sp,584
 172:	0000                	unimp
 174:	04a0                	addi	s0,sp,584
 176:	0000                	unimp
 178:	04a0                	addi	s0,sp,584
 17a:	0000                	unimp
 17c:	04a0                	addi	s0,sp,584
 17e:	0000                	unimp
 180:	04a0                	addi	s0,sp,584
 182:	0000                	unimp
 184:	04a0                	addi	s0,sp,584
 186:	0000                	unimp
 188:	04a0                	addi	s0,sp,584
 18a:	0000                	unimp
 18c:	04a0                	addi	s0,sp,584
 18e:	0000                	unimp
 190:	04a0                	addi	s0,sp,584
 192:	0000                	unimp
 194:	04a0                	addi	s0,sp,584
 196:	0000                	unimp
 198:	04a0                	addi	s0,sp,584
 19a:	0000                	unimp
 19c:	04a0                	addi	s0,sp,584
 19e:	0000                	unimp
 1a0:	04a0                	addi	s0,sp,584
	...

Disassembly of section .text:

000001c0 <__riscv_save_12>:
     1c0:	7139                	addi	sp,sp,-64
     1c2:	4301                	li	t1,0
     1c4:	c66e                	sw	s11,12(sp)
     1c6:	a019                	j	1cc <__riscv_save_10+0x4>

000001c8 <__riscv_save_10>:
     1c8:	7139                	addi	sp,sp,-64
     1ca:	5341                	li	t1,-16
     1cc:	c86a                	sw	s10,16(sp)
     1ce:	ca66                	sw	s9,20(sp)
     1d0:	cc62                	sw	s8,24(sp)
     1d2:	ce5e                	sw	s7,28(sp)
     1d4:	a019                	j	1da <__riscv_save_4+0x4>

000001d6 <__riscv_save_4>:
     1d6:	7139                	addi	sp,sp,-64
     1d8:	5301                	li	t1,-32
     1da:	d05a                	sw	s6,32(sp)
     1dc:	d256                	sw	s5,36(sp)
     1de:	d452                	sw	s4,40(sp)
     1e0:	d64e                	sw	s3,44(sp)
     1e2:	d84a                	sw	s2,48(sp)
     1e4:	da26                	sw	s1,52(sp)
     1e6:	dc22                	sw	s0,56(sp)
     1e8:	de06                	sw	ra,60(sp)
     1ea:	40610133          	sub	sp,sp,t1
     1ee:	8282                	jr	t0

000001f0 <__riscv_save_0>:
     1f0:	1141                	addi	sp,sp,-16
     1f2:	c04a                	sw	s2,0(sp)
     1f4:	c226                	sw	s1,4(sp)
     1f6:	c422                	sw	s0,8(sp)
     1f8:	c606                	sw	ra,12(sp)
     1fa:	8282                	jr	t0

000001fc <__riscv_restore_12>:
     1fc:	4db2                	lw	s11,12(sp)
     1fe:	0141                	addi	sp,sp,16

00000200 <__riscv_restore_10>:
     200:	4d02                	lw	s10,0(sp)
     202:	4c92                	lw	s9,4(sp)
     204:	4c22                	lw	s8,8(sp)
     206:	4bb2                	lw	s7,12(sp)
     208:	0141                	addi	sp,sp,16

0000020a <__riscv_restore_4>:
     20a:	4b02                	lw	s6,0(sp)
     20c:	4a92                	lw	s5,4(sp)
     20e:	4a22                	lw	s4,8(sp)
     210:	49b2                	lw	s3,12(sp)
     212:	0141                	addi	sp,sp,16

00000214 <__riscv_restore_0>:
     214:	4902                	lw	s2,0(sp)
     216:	4492                	lw	s1,4(sp)
     218:	4422                	lw	s0,8(sp)
     21a:	40b2                	lw	ra,12(sp)
     21c:	0141                	addi	sp,sp,16
     21e:	8082                	ret

00000220 <NMI_Handler>:
     220:	a001                	j	220 <NMI_Handler>

00000222 <HardFault_Handler>:
     222:	a001                	j	222 <HardFault_Handler>

00000224 <main>:
     224:	fcdff2ef          	jal	t0,1f0 <__riscv_save_0>
     228:	22a9                	jal	372 <SystemCoreClockUpdate>
     22a:	4509                	li	a0,2
     22c:	2591                	jal	870 <NVIC_PriorityGroupConfig>
     22e:	717000ef          	jal	ra,1144 <Delay_Init>
     232:	6571                	lui	a0,0x1c
     234:	20050513          	addi	a0,a0,512 # 1c200 <_data_lma+0x192a4>
     238:	76d000ef          	jal	ra,11a4 <USART_Printf_Init>
     23c:	507000ef          	jal	ra,f42 <BEEP_PWM_Init_1MHz>
     240:	6bd000ef          	jal	ra,10fc <LED_Init>
     244:	4cb000ef          	jal	ra,f0e <ES8388_close>
     248:	4589                	li	a1,2
     24a:	40011537          	lui	a0,0x40011
     24e:	264d                	jal	5f0 <GPIO_ResetBits>
     250:	00003537          	lui	a0,0x3
     254:	f2c50513          	addi	a0,a0,-212 # 2f2c <memcpy+0x1caa>
     258:	7e5000ef          	jal	ra,123c <puts>
     25c:	00003537          	lui	a0,0x3
     260:	f4850513          	addi	a0,a0,-184 # 2f48 <memcpy+0x1cc6>
     264:	7d9000ef          	jal	ra,123c <puts>
     268:	6505                	lui	a0,0x1
     26a:	bb850513          	addi	a0,a0,-1096 # bb8 <TIM_ARRPreloadConfig+0xc>
     26e:	701000ef          	jal	ra,116e <Delay_Ms>
     272:	5ef000ef          	jal	ra,1060 <BEEP_PlayBadApple>
     276:	a001                	j	276 <main+0x52>

00000278 <SystemInit>:
     278:	400217b7          	lui	a5,0x40021
     27c:	4398                	lw	a4,0(a5)
     27e:	f0ff06b7          	lui	a3,0xf0ff0
     282:	1141                	addi	sp,sp,-16
     284:	00176713          	ori	a4,a4,1
     288:	c398                	sw	a4,0(a5)
     28a:	43d8                	lw	a4,4(a5)
     28c:	00020637          	lui	a2,0x20
     290:	8f75                	and	a4,a4,a3
     292:	c3d8                	sw	a4,4(a5)
     294:	4398                	lw	a4,0(a5)
     296:	fef706b7          	lui	a3,0xfef70
     29a:	16fd                	addi	a3,a3,-1
     29c:	8f75                	and	a4,a4,a3
     29e:	c398                	sw	a4,0(a5)
     2a0:	4398                	lw	a4,0(a5)
     2a2:	fffc06b7          	lui	a3,0xfffc0
     2a6:	16fd                	addi	a3,a3,-1
     2a8:	8f75                	and	a4,a4,a3
     2aa:	c398                	sw	a4,0(a5)
     2ac:	43d8                	lw	a4,4(a5)
     2ae:	ff0106b7          	lui	a3,0xff010
     2b2:	16fd                	addi	a3,a3,-1
     2b4:	8f75                	and	a4,a4,a3
     2b6:	c3d8                	sw	a4,4(a5)
     2b8:	4398                	lw	a4,0(a5)
     2ba:	ec0006b7          	lui	a3,0xec000
     2be:	16fd                	addi	a3,a3,-1
     2c0:	8f75                	and	a4,a4,a3
     2c2:	c398                	sw	a4,0(a5)
     2c4:	00ff0737          	lui	a4,0xff0
     2c8:	c798                	sw	a4,8(a5)
     2ca:	0207a623          	sw	zero,44(a5) # 4002102c <_eusrstack+0x2001102c>
     2ce:	c402                	sw	zero,8(sp)
     2d0:	c602                	sw	zero,12(sp)
     2d2:	4398                	lw	a4,0(a5)
     2d4:	66c1                	lui	a3,0x10
     2d6:	8f55                	or	a4,a4,a3
     2d8:	c398                	sw	a4,0(a5)
     2da:	400216b7          	lui	a3,0x40021
     2de:	6711                	lui	a4,0x4
     2e0:	429c                	lw	a5,0(a3)
     2e2:	8ff1                	and	a5,a5,a2
     2e4:	c63e                	sw	a5,12(sp)
     2e6:	47a2                	lw	a5,8(sp)
     2e8:	0785                	addi	a5,a5,1
     2ea:	c43e                	sw	a5,8(sp)
     2ec:	47b2                	lw	a5,12(sp)
     2ee:	e781                	bnez	a5,2f6 <SystemInit+0x7e>
     2f0:	47a2                	lw	a5,8(sp)
     2f2:	fee797e3          	bne	a5,a4,2e0 <SystemInit+0x68>
     2f6:	400217b7          	lui	a5,0x40021
     2fa:	439c                	lw	a5,0(a5)
     2fc:	00e79713          	slli	a4,a5,0xe
     300:	06075763          	bgez	a4,36e <SystemInit+0xf6>
     304:	4785                	li	a5,1
     306:	c63e                	sw	a5,12(sp)
     308:	4732                	lw	a4,12(sp)
     30a:	4785                	li	a5,1
     30c:	04f71f63          	bne	a4,a5,36a <SystemInit+0xf2>
     310:	400217b7          	lui	a5,0x40021
     314:	43d8                	lw	a4,4(a5)
     316:	ffc106b7          	lui	a3,0xffc10
     31a:	16fd                	addi	a3,a3,-1
     31c:	c3d8                	sw	a4,4(a5)
     31e:	43d8                	lw	a4,4(a5)
     320:	c3d8                	sw	a4,4(a5)
     322:	43d8                	lw	a4,4(a5)
     324:	40076713          	ori	a4,a4,1024
     328:	c3d8                	sw	a4,4(a5)
     32a:	43d8                	lw	a4,4(a5)
     32c:	8f75                	and	a4,a4,a3
     32e:	c3d8                	sw	a4,4(a5)
     330:	43d8                	lw	a4,4(a5)
     332:	001d06b7          	lui	a3,0x1d0
     336:	8f55                	or	a4,a4,a3
     338:	c3d8                	sw	a4,4(a5)
     33a:	4398                	lw	a4,0(a5)
     33c:	010006b7          	lui	a3,0x1000
     340:	8f55                	or	a4,a4,a3
     342:	c398                	sw	a4,0(a5)
     344:	4398                	lw	a4,0(a5)
     346:	00671693          	slli	a3,a4,0x6
     34a:	fe06dde3          	bgez	a3,344 <SystemInit+0xcc>
     34e:	43d8                	lw	a4,4(a5)
     350:	400216b7          	lui	a3,0x40021
     354:	9b71                	andi	a4,a4,-4
     356:	c3d8                	sw	a4,4(a5)
     358:	43d8                	lw	a4,4(a5)
     35a:	00276713          	ori	a4,a4,2
     35e:	c3d8                	sw	a4,4(a5)
     360:	4721                	li	a4,8
     362:	42dc                	lw	a5,4(a3)
     364:	8bb1                	andi	a5,a5,12
     366:	fee79ee3          	bne	a5,a4,362 <SystemInit+0xea>
     36a:	0141                	addi	sp,sp,16
     36c:	8082                	ret
     36e:	c602                	sw	zero,12(sp)
     370:	bf61                	j	308 <SystemInit+0x90>

00000372 <SystemCoreClockUpdate>:
     372:	400216b7          	lui	a3,0x40021
     376:	42d8                	lw	a4,4(a3)
     378:	200007b7          	lui	a5,0x20000
     37c:	4611                	li	a2,4
     37e:	8b31                	andi	a4,a4,12
     380:	02078793          	addi	a5,a5,32 # 20000020 <SystemCoreClock>
     384:	00c70563          	beq	a4,a2,38e <SystemCoreClockUpdate+0x1c>
     388:	4621                	li	a2,8
     38a:	02c70863          	beq	a4,a2,3ba <SystemCoreClockUpdate+0x48>
     38e:	007a1737          	lui	a4,0x7a1
     392:	20070713          	addi	a4,a4,512 # 7a1200 <_data_lma+0x79e2a4>
     396:	c398                	sw	a4,0(a5)
     398:	40021737          	lui	a4,0x40021
     39c:	4358                	lw	a4,4(a4)
     39e:	8311                	srli	a4,a4,0x4
     3a0:	00f77693          	andi	a3,a4,15
     3a4:	20000737          	lui	a4,0x20000
     3a8:	00070713          	mv	a4,a4
     3ac:	9736                	add	a4,a4,a3
     3ae:	2314                	lbu	a3,0(a4)
     3b0:	4398                	lw	a4,0(a5)
     3b2:	00d75733          	srl	a4,a4,a3
     3b6:	c398                	sw	a4,0(a5)
     3b8:	8082                	ret
     3ba:	42d8                	lw	a4,4(a3)
     3bc:	42d4                	lw	a3,4(a3)
     3be:	6641                	lui	a2,0x10
     3c0:	8349                	srli	a4,a4,0x12
     3c2:	8b3d                	andi	a4,a4,15
     3c4:	8ef1                	and	a3,a3,a2
     3c6:	00270613          	addi	a2,a4,2 # 20000002 <_data_vma+0x2>
     3ca:	cf15                	beqz	a4,406 <SystemCoreClockUpdate+0x94>
     3cc:	473d                	li	a4,15
     3ce:	02e60f63          	beq	a2,a4,40c <SystemCoreClockUpdate+0x9a>
     3d2:	4741                	li	a4,16
     3d4:	02e60f63          	beq	a2,a4,412 <SystemCoreClockUpdate+0xa0>
     3d8:	4745                	li	a4,17
     3da:	4581                	li	a1,0
     3dc:	00e61363          	bne	a2,a4,3e2 <SystemCoreClockUpdate+0x70>
     3e0:	4641                	li	a2,16
     3e2:	e2a1                	bnez	a3,422 <SystemCoreClockUpdate+0xb0>
     3e4:	40024737          	lui	a4,0x40024
     3e8:	80072703          	lw	a4,-2048(a4) # 40023800 <_eusrstack+0x20013800>
     3ec:	8b41                	andi	a4,a4,16
     3ee:	c70d                	beqz	a4,418 <SystemCoreClockUpdate+0xa6>
     3f0:	007a1737          	lui	a4,0x7a1
     3f4:	20070713          	addi	a4,a4,512 # 7a1200 <_data_lma+0x79e2a4>
     3f8:	02c70633          	mul	a2,a4,a2
     3fc:	c390                	sw	a2,0(a5)
     3fe:	ddc9                	beqz	a1,398 <SystemCoreClockUpdate+0x26>
     400:	4398                	lw	a4,0(a5)
     402:	8305                	srli	a4,a4,0x1
     404:	bf49                	j	396 <SystemCoreClockUpdate+0x24>
     406:	4581                	li	a1,0
     408:	4649                	li	a2,18
     40a:	bfe1                	j	3e2 <SystemCoreClockUpdate+0x70>
     40c:	4585                	li	a1,1
     40e:	4635                	li	a2,13
     410:	bfc9                	j	3e2 <SystemCoreClockUpdate+0x70>
     412:	4581                	li	a1,0
     414:	463d                	li	a2,15
     416:	b7f1                	j	3e2 <SystemCoreClockUpdate+0x70>
     418:	003d1737          	lui	a4,0x3d1
     41c:	90070713          	addi	a4,a4,-1792 # 3d0900 <_data_lma+0x3cd9a4>
     420:	bfe1                	j	3f8 <SystemCoreClockUpdate+0x86>
     422:	40021537          	lui	a0,0x40021
     426:	5558                	lw	a4,44(a0)
     428:	00f71693          	slli	a3,a4,0xf
     42c:	5558                	lw	a4,44(a0)
     42e:	0406df63          	bgez	a3,48c <SystemCoreClockUpdate+0x11a>
     432:	8311                	srli	a4,a4,0x4
     434:	8b3d                	andi	a4,a4,15
     436:	00170693          	addi	a3,a4,1
     43a:	007a1737          	lui	a4,0x7a1
     43e:	20070713          	addi	a4,a4,512 # 7a1200 <_data_lma+0x79e2a4>
     442:	02d75733          	divu	a4,a4,a3
     446:	c398                	sw	a4,0(a5)
     448:	5554                	lw	a3,44(a0)
     44a:	82a1                	srli	a3,a3,0x8
     44c:	8abd                	andi	a3,a3,15
     44e:	e28d                	bnez	a3,470 <SystemCoreClockUpdate+0xfe>
     450:	4695                	li	a3,5
     452:	02d70733          	mul	a4,a4,a3
     456:	8305                	srli	a4,a4,0x1
     458:	c398                	sw	a4,0(a5)
     45a:	40021737          	lui	a4,0x40021
     45e:	5758                	lw	a4,44(a4)
     460:	4394                	lw	a3,0(a5)
     462:	8b3d                	andi	a4,a4,15
     464:	0705                	addi	a4,a4,1
     466:	02e6d733          	divu	a4,a3,a4
     46a:	c398                	sw	a4,0(a5)
     46c:	4398                	lw	a4,0(a5)
     46e:	b769                	j	3f8 <SystemCoreClockUpdate+0x86>
     470:	4505                	li	a0,1
     472:	00a69463          	bne	a3,a0,47a <SystemCoreClockUpdate+0x108>
     476:	46e5                	li	a3,25
     478:	bfe9                	j	452 <SystemCoreClockUpdate+0xe0>
     47a:	453d                	li	a0,15
     47c:	00a69663          	bne	a3,a0,488 <SystemCoreClockUpdate+0x116>
     480:	46d1                	li	a3,20
     482:	02e68733          	mul	a4,a3,a4
     486:	bfc9                	j	458 <SystemCoreClockUpdate+0xe6>
     488:	0689                	addi	a3,a3,2
     48a:	bfe5                	j	482 <SystemCoreClockUpdate+0x110>
     48c:	8b3d                	andi	a4,a4,15
     48e:	00170693          	addi	a3,a4,1 # 40021001 <_eusrstack+0x20011001>
     492:	007a1737          	lui	a4,0x7a1
     496:	20070713          	addi	a4,a4,512 # 7a1200 <_data_lma+0x79e2a4>
     49a:	02d75733          	divu	a4,a4,a3
     49e:	b7f1                	j	46a <SystemCoreClockUpdate+0xf8>

000004a0 <ADC1_2_IRQHandler>:
     4a0:	a001                	j	4a0 <ADC1_2_IRQHandler>

000004a2 <handle_reset>:
     4a2:	20000197          	auipc	gp,0x20000
     4a6:	37e18193          	addi	gp,gp,894 # 20000820 <__global_pointer$>
     4aa:	20010117          	auipc	sp,0x20010
     4ae:	b5610113          	addi	sp,sp,-1194 # 20010000 <_eusrstack>
     4b2:	00003517          	auipc	a0,0x3
     4b6:	aaa50513          	addi	a0,a0,-1366 # 2f5c <_data_lma>
     4ba:	20000597          	auipc	a1,0x20000
     4be:	b4658593          	addi	a1,a1,-1210 # 20000000 <_data_vma>
     4c2:	80818613          	addi	a2,gp,-2040 # 20000028 <_edata>
     4c6:	00c5fa63          	bgeu	a1,a2,4da <handle_reset+0x38>
     4ca:	00052283          	lw	t0,0(a0)
     4ce:	0055a023          	sw	t0,0(a1)
     4d2:	0511                	addi	a0,a0,4
     4d4:	0591                	addi	a1,a1,4
     4d6:	fec5eae3          	bltu	a1,a2,4ca <handle_reset+0x28>
     4da:	80818513          	addi	a0,gp,-2040 # 20000028 <_edata>
     4de:	81018593          	addi	a1,gp,-2032 # 20000030 <_ebss>
     4e2:	00b57763          	bgeu	a0,a1,4f0 <handle_reset+0x4e>
     4e6:	00052023          	sw	zero,0(a0)
     4ea:	0511                	addi	a0,a0,4
     4ec:	feb56de3          	bltu	a0,a1,4e6 <handle_reset+0x44>
     4f0:	42fd                	li	t0,31
     4f2:	bc029073          	csrw	0xbc0,t0
     4f6:	42ad                	li	t0,11
     4f8:	80429073          	csrw	0x804,t0
     4fc:	000062b7          	lui	t0,0x6
     500:	08828293          	addi	t0,t0,136 # 6088 <_data_lma+0x312c>
     504:	30029073          	csrw	mstatus,t0
     508:	00000297          	auipc	t0,0x0
     50c:	afc28293          	addi	t0,t0,-1284 # 4 <_einit>
     510:	0032e293          	ori	t0,t0,3
     514:	30529073          	csrw	mtvec,t0
     518:	d61ff0ef          	jal	ra,278 <SystemInit>
     51c:	00000297          	auipc	t0,0x0
     520:	d0828293          	addi	t0,t0,-760 # 224 <main>
     524:	34129073          	csrw	mepc,t0
     528:	30200073          	mret

0000052c <GPIO_Init>:
     52c:	459c                	lw	a5,8(a1)
     52e:	0107f713          	andi	a4,a5,16
     532:	00f7f813          	andi	a6,a5,15
     536:	c701                	beqz	a4,53e <GPIO_Init+0x12>
     538:	41d8                	lw	a4,4(a1)
     53a:	00e86833          	or	a6,a6,a4
     53e:	218e                	lhu	a1,0(a1)
     540:	0ff5f713          	andi	a4,a1,255
     544:	c339                	beqz	a4,58a <GPIO_Init+0x5e>
     546:	4118                	lw	a4,0(a0)
     548:	4681                	li	a3,0
     54a:	4e85                	li	t4,1
     54c:	4f3d                	li	t5,15
     54e:	02800f93          	li	t6,40
     552:	04800293          	li	t0,72
     556:	4e21                	li	t3,8
     558:	00de9633          	sll	a2,t4,a3
     55c:	00c5f8b3          	and	a7,a1,a2
     560:	03161163          	bne	a2,a7,582 <GPIO_Init+0x56>
     564:	00269893          	slli	a7,a3,0x2
     568:	011f1333          	sll	t1,t5,a7
     56c:	fff34313          	not	t1,t1
     570:	00e37733          	and	a4,t1,a4
     574:	011818b3          	sll	a7,a6,a7
     578:	00e8e733          	or	a4,a7,a4
     57c:	05f79f63          	bne	a5,t6,5da <GPIO_Init+0xae>
     580:	c950                	sw	a2,20(a0)
     582:	0685                	addi	a3,a3,1
     584:	fdc69ae3          	bne	a3,t3,558 <GPIO_Init+0x2c>
     588:	c118                	sw	a4,0(a0)
     58a:	0ff00713          	li	a4,255
     58e:	04b77563          	bgeu	a4,a1,5d8 <GPIO_Init+0xac>
     592:	4154                	lw	a3,4(a0)
     594:	4621                	li	a2,8
     596:	4e85                	li	t4,1
     598:	4f3d                	li	t5,15
     59a:	02800f93          	li	t6,40
     59e:	04800293          	li	t0,72
     5a2:	4e41                	li	t3,16
     5a4:	00ce98b3          	sll	a7,t4,a2
     5a8:	0115f733          	and	a4,a1,a7
     5ac:	02e89263          	bne	a7,a4,5d0 <GPIO_Init+0xa4>
     5b0:	00261713          	slli	a4,a2,0x2
     5b4:	1701                	addi	a4,a4,-32
     5b6:	00ef1333          	sll	t1,t5,a4
     5ba:	fff34313          	not	t1,t1
     5be:	00d376b3          	and	a3,t1,a3
     5c2:	00e81733          	sll	a4,a6,a4
     5c6:	8ed9                	or	a3,a3,a4
     5c8:	01f79d63          	bne	a5,t6,5e2 <GPIO_Init+0xb6>
     5cc:	01152a23          	sw	a7,20(a0)
     5d0:	0605                	addi	a2,a2,1
     5d2:	fdc619e3          	bne	a2,t3,5a4 <GPIO_Init+0x78>
     5d6:	c154                	sw	a3,4(a0)
     5d8:	8082                	ret
     5da:	fa5794e3          	bne	a5,t0,582 <GPIO_Init+0x56>
     5de:	c910                	sw	a2,16(a0)
     5e0:	b74d                	j	582 <GPIO_Init+0x56>
     5e2:	fe5797e3          	bne	a5,t0,5d0 <GPIO_Init+0xa4>
     5e6:	01152823          	sw	a7,16(a0)
     5ea:	b7dd                	j	5d0 <GPIO_Init+0xa4>

000005ec <GPIO_SetBits>:
     5ec:	c90c                	sw	a1,16(a0)
     5ee:	8082                	ret

000005f0 <GPIO_ResetBits>:
     5f0:	c94c                	sw	a1,20(a0)
     5f2:	8082                	ret

000005f4 <GPIO_PinRemapConfig>:
     5f4:	400107b7          	lui	a5,0x40010
     5f8:	04055a63          	bgez	a0,64c <GPIO_PinRemapConfig+0x58>
     5fc:	4fdc                	lw	a5,28(a5)
     5fe:	01055693          	srli	a3,a0,0x10
     602:	01051813          	slli	a6,a0,0x10
     606:	00300737          	lui	a4,0x300
     60a:	00f6f613          	andi	a2,a3,15
     60e:	01085813          	srli	a6,a6,0x10
     612:	00e576b3          	and	a3,a0,a4
     616:	06055063          	bgez	a0,676 <GPIO_PinRemapConfig+0x82>
     61a:	02e69b63          	bne	a3,a4,650 <GPIO_PinRemapConfig+0x5c>
     61e:	01060693          	addi	a3,a2,16 # 10010 <_data_lma+0xd0b4>
     622:	460d                	li	a2,3
     624:	00d616b3          	sll	a3,a2,a3
     628:	fff6c693          	not	a3,a3
     62c:	8ff5                	and	a5,a5,a3
     62e:	c999                	beqz	a1,644 <GPIO_PinRemapConfig+0x50>
     630:	01555713          	srli	a4,a0,0x15
     634:	3ff77713          	andi	a4,a4,1023
     638:	0712                	slli	a4,a4,0x4
     63a:	00e81733          	sll	a4,a6,a4
     63e:	8fd9                	or	a5,a5,a4
     640:	04055763          	bgez	a0,68e <GPIO_PinRemapConfig+0x9a>
     644:	40010737          	lui	a4,0x40010
     648:	cf5c                	sw	a5,28(a4)
     64a:	8082                	ret
     64c:	43dc                	lw	a5,4(a5)
     64e:	bf45                	j	5fe <GPIO_PinRemapConfig+0xa>
     650:	00b51713          	slli	a4,a0,0xb
     654:	00075663          	bgez	a4,660 <GPIO_PinRemapConfig+0x6c>
     658:	468d                	li	a3,3
     65a:	00c696b3          	sll	a3,a3,a2
     65e:	b7e9                	j	628 <GPIO_PinRemapConfig+0x34>
     660:	01555713          	srli	a4,a0,0x15
     664:	3ff77713          	andi	a4,a4,1023
     668:	0712                	slli	a4,a4,0x4
     66a:	00e81733          	sll	a4,a6,a4
     66e:	fff74713          	not	a4,a4
     672:	8ff9                	and	a5,a5,a4
     674:	bf6d                	j	62e <GPIO_PinRemapConfig+0x3a>
     676:	02e69063          	bne	a3,a4,696 <GPIO_PinRemapConfig+0xa2>
     67a:	40010637          	lui	a2,0x40010
     67e:	4254                	lw	a3,4(a2)
     680:	f1000737          	lui	a4,0xf1000
     684:	177d                	addi	a4,a4,-1
     686:	8ff9                	and	a5,a5,a4
     688:	8f75                	and	a4,a4,a3
     68a:	c258                	sw	a4,4(a2)
     68c:	f1d5                	bnez	a1,630 <GPIO_PinRemapConfig+0x3c>
     68e:	40010737          	lui	a4,0x40010
     692:	c35c                	sw	a5,4(a4)
     694:	8082                	ret
     696:	00b51713          	slli	a4,a0,0xb
     69a:	00075c63          	bgez	a4,6b2 <GPIO_PinRemapConfig+0xbe>
     69e:	468d                	li	a3,3
     6a0:	00c696b3          	sll	a3,a3,a2
     6a4:	fff6c693          	not	a3,a3
     6a8:	8efd                	and	a3,a3,a5
     6aa:	0f0007b7          	lui	a5,0xf000
     6ae:	8fd5                	or	a5,a5,a3
     6b0:	bff1                	j	68c <GPIO_PinRemapConfig+0x98>
     6b2:	01555713          	srli	a4,a0,0x15
     6b6:	0712                	slli	a4,a4,0x4
     6b8:	00e81733          	sll	a4,a6,a4
     6bc:	fff74713          	not	a4,a4
     6c0:	8f7d                	and	a4,a4,a5
     6c2:	0f0007b7          	lui	a5,0xf000
     6c6:	8fd9                	or	a5,a5,a4
     6c8:	b7d1                	j	68c <GPIO_PinRemapConfig+0x98>

000006ca <I2C_Init>:
     6ca:	b27ff2ef          	jal	t0,1f0 <__riscv_save_0>
     6ce:	7179                	addi	sp,sp,-48
     6d0:	2146                	lhu	s1,4(a0)
     6d2:	842a                	mv	s0,a0
     6d4:	0868                	addi	a0,sp,28
     6d6:	c62e                	sw	a1,12(sp)
     6d8:	2a79                	jal	876 <RCC_GetClocksFreq>
     6da:	5792                	lw	a5,36(sp)
     6dc:	000f4737          	lui	a4,0xf4
     6e0:	24070713          	addi	a4,a4,576 # f4240 <_data_lma+0xf12e4>
     6e4:	02e7d733          	divu	a4,a5,a4
     6e8:	04c2                	slli	s1,s1,0x10
     6ea:	80c1                	srli	s1,s1,0x10
     6ec:	fc04f493          	andi	s1,s1,-64
     6f0:	04c2                	slli	s1,s1,0x10
     6f2:	03c00693          	li	a3,60
     6f6:	80c1                	srli	s1,s1,0x10
     6f8:	45b2                	lw	a1,12(sp)
     6fa:	00e6f463          	bgeu	a3,a4,702 <I2C_Init+0x38>
     6fe:	03c00713          	li	a4,60
     702:	01071613          	slli	a2,a4,0x10
     706:	8241                	srli	a2,a2,0x10
     708:	8cd1                	or	s1,s1,a2
     70a:	a046                	sh	s1,4(s0)
     70c:	2016                	lhu	a3,0(s0)
     70e:	6561                	lui	a0,0x18
     710:	6a050513          	addi	a0,a0,1696 # 186a0 <_data_lma+0x15744>
     714:	06c2                	slli	a3,a3,0x10
     716:	82c1                	srli	a3,a3,0x10
     718:	9af9                	andi	a3,a3,-2
     71a:	06c2                	slli	a3,a3,0x10
     71c:	82c1                	srli	a3,a3,0x10
     71e:	a016                	sh	a3,0(s0)
     720:	4194                	lw	a3,0(a1)
     722:	04d56863          	bltu	a0,a3,772 <I2C_Init+0xa8>
     726:	0686                	slli	a3,a3,0x1
     728:	02d7d7b3          	divu	a5,a5,a3
     72c:	4691                	li	a3,4
     72e:	01079713          	slli	a4,a5,0x10
     732:	8341                	srli	a4,a4,0x10
     734:	87ba                	mv	a5,a4
     736:	00d77363          	bgeu	a4,a3,73c <I2C_Init+0x72>
     73a:	4791                	li	a5,4
     73c:	0605                	addi	a2,a2,1
     73e:	0642                	slli	a2,a2,0x10
     740:	07c2                	slli	a5,a5,0x10
     742:	8241                	srli	a2,a2,0x10
     744:	83c1                	srli	a5,a5,0x10
     746:	b012                	sh	a2,32(s0)
     748:	ac5e                	sh	a5,28(s0)
     74a:	201e                	lhu	a5,0(s0)
     74c:	21da                	lhu	a4,4(a1)
     74e:	25b6                	lhu	a3,10(a1)
     750:	0017e793          	ori	a5,a5,1
     754:	a01e                	sh	a5,0(s0)
     756:	201e                	lhu	a5,0(s0)
     758:	8f55                	or	a4,a4,a3
     75a:	07c2                	slli	a5,a5,0x10
     75c:	83c1                	srli	a5,a5,0x10
     75e:	bf57f793          	andi	a5,a5,-1035
     762:	8fd9                	or	a5,a5,a4
     764:	a01e                	sh	a5,0(s0)
     766:	259a                	lhu	a4,8(a1)
     768:	25de                	lhu	a5,12(a1)
     76a:	8fd9                	or	a5,a5,a4
     76c:	a41e                	sh	a5,8(s0)
     76e:	6145                	addi	sp,sp,48
     770:	b455                	j	214 <__riscv_restore_0>
     772:	21ea                	lhu	a0,6(a1)
     774:	6631                	lui	a2,0xc
     776:	167d                	addi	a2,a2,-1
     778:	02c51d63          	bne	a0,a2,7b2 <I2C_Init+0xe8>
     77c:	460d                	li	a2,3
     77e:	02c686b3          	mul	a3,a3,a2
     782:	02d7d7b3          	divu	a5,a5,a3
     786:	07c2                	slli	a5,a5,0x10
     788:	83c1                	srli	a5,a5,0x10
     78a:	01479693          	slli	a3,a5,0x14
     78e:	e299                	bnez	a3,794 <I2C_Init+0xca>
     790:	0017e793          	ori	a5,a5,1
     794:	66a1                	lui	a3,0x8
     796:	8fd5                	or	a5,a5,a3
     798:	12c00693          	li	a3,300
     79c:	02d70733          	mul	a4,a4,a3
     7a0:	3e800693          	li	a3,1000
     7a4:	02d74733          	div	a4,a4,a3
     7a8:	0705                	addi	a4,a4,1
     7aa:	0742                	slli	a4,a4,0x10
     7ac:	8341                	srli	a4,a4,0x10
     7ae:	b01a                	sh	a4,32(s0)
     7b0:	bf61                	j	748 <I2C_Init+0x7e>
     7b2:	4665                	li	a2,25
     7b4:	02c686b3          	mul	a3,a3,a2
     7b8:	02d7d7b3          	divu	a5,a5,a3
     7bc:	6691                	lui	a3,0x4
     7be:	07c2                	slli	a5,a5,0x10
     7c0:	83c1                	srli	a5,a5,0x10
     7c2:	8fd5                	or	a5,a5,a3
     7c4:	b7d9                	j	78a <I2C_Init+0xc0>

000007c6 <I2C_Cmd>:
     7c6:	211e                	lhu	a5,0(a0)
     7c8:	c589                	beqz	a1,7d2 <I2C_Cmd+0xc>
     7ca:	0017e793          	ori	a5,a5,1
     7ce:	a11e                	sh	a5,0(a0)
     7d0:	8082                	ret
     7d2:	07c2                	slli	a5,a5,0x10
     7d4:	83c1                	srli	a5,a5,0x10
     7d6:	9bf9                	andi	a5,a5,-2
     7d8:	07c2                	slli	a5,a5,0x10
     7da:	83c1                	srli	a5,a5,0x10
     7dc:	bfcd                	j	7ce <I2C_Cmd+0x8>

000007de <I2C_GenerateSTART>:
     7de:	211e                	lhu	a5,0(a0)
     7e0:	c589                	beqz	a1,7ea <I2C_GenerateSTART+0xc>
     7e2:	1007e793          	ori	a5,a5,256
     7e6:	a11e                	sh	a5,0(a0)
     7e8:	8082                	ret
     7ea:	07c2                	slli	a5,a5,0x10
     7ec:	83c1                	srli	a5,a5,0x10
     7ee:	eff7f793          	andi	a5,a5,-257
     7f2:	07c2                	slli	a5,a5,0x10
     7f4:	83c1                	srli	a5,a5,0x10
     7f6:	bfc5                	j	7e6 <I2C_GenerateSTART+0x8>

000007f8 <I2C_GenerateSTOP>:
     7f8:	211e                	lhu	a5,0(a0)
     7fa:	c589                	beqz	a1,804 <__stack_size+0x4>
     7fc:	2007e793          	ori	a5,a5,512
     800:	a11e                	sh	a5,0(a0)
     802:	8082                	ret
     804:	07c2                	slli	a5,a5,0x10
     806:	83c1                	srli	a5,a5,0x10
     808:	dff7f793          	andi	a5,a5,-513
     80c:	07c2                	slli	a5,a5,0x10
     80e:	83c1                	srli	a5,a5,0x10
     810:	bfc5                	j	800 <__stack_size>

00000812 <I2C_SendData>:
     812:	a90e                	sh	a1,16(a0)
     814:	8082                	ret

00000816 <I2C_Send7bitAddress>:
     816:	0fe5f793          	andi	a5,a1,254
     81a:	c219                	beqz	a2,820 <I2C_Send7bitAddress+0xa>
     81c:	0015e793          	ori	a5,a1,1
     820:	07c2                	slli	a5,a5,0x10
     822:	83c1                	srli	a5,a5,0x10
     824:	a91e                	sh	a5,16(a0)
     826:	8082                	ret

00000828 <I2C_CheckEvent>:
     828:	295e                	lhu	a5,20(a0)
     82a:	2d0a                	lhu	a0,24(a0)
     82c:	0542                	slli	a0,a0,0x10
     82e:	8d5d                	or	a0,a0,a5
     830:	8d6d                	and	a0,a0,a1
     832:	0522                	slli	a0,a0,0x8
     834:	8121                	srli	a0,a0,0x8
     836:	8d0d                	sub	a0,a0,a1
     838:	00153513          	seqz	a0,a0
     83c:	8082                	ret

0000083e <I2C_GetFlagStatus>:
     83e:	1141                	addi	sp,sp,-16
     840:	c402                	sw	zero,8(sp)
     842:	c602                	sw	zero,12(sp)
     844:	01c5d793          	srli	a5,a1,0x1c
     848:	c62a                	sw	a0,12(sp)
     84a:	c43e                	sw	a5,8(sp)
     84c:	47a2                	lw	a5,8(sp)
     84e:	05a2                	slli	a1,a1,0x8
     850:	81a1                	srli	a1,a1,0x8
     852:	cb99                	beqz	a5,868 <I2C_GetFlagStatus+0x2a>
     854:	47b2                	lw	a5,12(sp)
     856:	07d1                	addi	a5,a5,20
     858:	c63e                	sw	a5,12(sp)
     85a:	47b2                	lw	a5,12(sp)
     85c:	4388                	lw	a0,0(a5)
     85e:	0141                	addi	sp,sp,16
     860:	8d6d                	and	a0,a0,a1
     862:	00a03533          	snez	a0,a0
     866:	8082                	ret
     868:	47b2                	lw	a5,12(sp)
     86a:	81c1                	srli	a1,a1,0x10
     86c:	07e1                	addi	a5,a5,24
     86e:	b7ed                	j	858 <I2C_GetFlagStatus+0x1a>

00000870 <NVIC_PriorityGroupConfig>:
     870:	80a1a423          	sw	a0,-2040(gp) # 20000028 <_edata>
     874:	8082                	ret

00000876 <RCC_GetClocksFreq>:
     876:	40021737          	lui	a4,0x40021
     87a:	435c                	lw	a5,4(a4)
     87c:	4691                	li	a3,4
     87e:	8bb1                	andi	a5,a5,12
     880:	00d78563          	beq	a5,a3,88a <RCC_GetClocksFreq+0x14>
     884:	46a1                	li	a3,8
     886:	06d78263          	beq	a5,a3,8ea <RCC_GetClocksFreq+0x74>
     88a:	007a17b7          	lui	a5,0x7a1
     88e:	20078793          	addi	a5,a5,512 # 7a1200 <_data_lma+0x79e2a4>
     892:	c11c                	sw	a5,0(a0)
     894:	40021637          	lui	a2,0x40021
     898:	425c                	lw	a5,4(a2)
     89a:	20000737          	lui	a4,0x20000
     89e:	01070713          	addi	a4,a4,16 # 20000010 <APBAHBPrescTable>
     8a2:	8391                	srli	a5,a5,0x4
     8a4:	8bbd                	andi	a5,a5,15
     8a6:	97ba                	add	a5,a5,a4
     8a8:	2394                	lbu	a3,0(a5)
     8aa:	411c                	lw	a5,0(a0)
     8ac:	00d7d7b3          	srl	a5,a5,a3
     8b0:	c15c                	sw	a5,4(a0)
     8b2:	4254                	lw	a3,4(a2)
     8b4:	82a1                	srli	a3,a3,0x8
     8b6:	8a9d                	andi	a3,a3,7
     8b8:	96ba                	add	a3,a3,a4
     8ba:	2294                	lbu	a3,0(a3)
     8bc:	00d7d6b3          	srl	a3,a5,a3
     8c0:	c514                	sw	a3,8(a0)
     8c2:	4254                	lw	a3,4(a2)
     8c4:	82ad                	srli	a3,a3,0xb
     8c6:	8a9d                	andi	a3,a3,7
     8c8:	9736                	add	a4,a4,a3
     8ca:	2318                	lbu	a4,0(a4)
     8cc:	00e7d7b3          	srl	a5,a5,a4
     8d0:	c55c                	sw	a5,12(a0)
     8d2:	4258                	lw	a4,4(a2)
     8d4:	8339                	srli	a4,a4,0xe
     8d6:	00377693          	andi	a3,a4,3
     8da:	80418713          	addi	a4,gp,-2044 # 20000024 <ADCPrescTable>
     8de:	9736                	add	a4,a4,a3
     8e0:	2318                	lbu	a4,0(a4)
     8e2:	02e7d7b3          	divu	a5,a5,a4
     8e6:	c91c                	sw	a5,16(a0)
     8e8:	8082                	ret
     8ea:	435c                	lw	a5,4(a4)
     8ec:	4358                	lw	a4,4(a4)
     8ee:	66c1                	lui	a3,0x10
     8f0:	83c9                	srli	a5,a5,0x12
     8f2:	8f75                	and	a4,a4,a3
     8f4:	1ffff6b7          	lui	a3,0x1ffff
     8f8:	70c6a683          	lw	a3,1804(a3) # 1ffff70c <_data_lma+0x1fffc7b0>
     8fc:	8bbd                	andi	a5,a5,15
     8fe:	0789                	addi	a5,a5,2
     900:	01169613          	slli	a2,a3,0x11
     904:	00064863          	bltz	a2,914 <RCC_GetClocksFreq+0x9e>
     908:	46c5                	li	a3,17
     90a:	4601                	li	a2,0
     90c:	02d79263          	bne	a5,a3,930 <RCC_GetClocksFreq+0xba>
     910:	47c9                	li	a5,18
     912:	a839                	j	930 <RCC_GetClocksFreq+0xba>
     914:	4689                	li	a3,2
     916:	02d78f63          	beq	a5,a3,954 <RCC_GetClocksFreq+0xde>
     91a:	46bd                	li	a3,15
     91c:	02d78e63          	beq	a5,a3,958 <RCC_GetClocksFreq+0xe2>
     920:	46c1                	li	a3,16
     922:	02d78e63          	beq	a5,a3,95e <RCC_GetClocksFreq+0xe8>
     926:	46c5                	li	a3,17
     928:	4601                	li	a2,0
     92a:	00d79363          	bne	a5,a3,930 <RCC_GetClocksFreq+0xba>
     92e:	47c1                	li	a5,16
     930:	ef1d                	bnez	a4,96e <RCC_GetClocksFreq+0xf8>
     932:	40024737          	lui	a4,0x40024
     936:	80072703          	lw	a4,-2048(a4) # 40023800 <_eusrstack+0x20013800>
     93a:	8b41                	andi	a4,a4,16
     93c:	c705                	beqz	a4,964 <RCC_GetClocksFreq+0xee>
     93e:	007a1737          	lui	a4,0x7a1
     942:	20070713          	addi	a4,a4,512 # 7a1200 <_data_lma+0x79e2a4>
     946:	02f707b3          	mul	a5,a4,a5
     94a:	c11c                	sw	a5,0(a0)
     94c:	d621                	beqz	a2,894 <RCC_GetClocksFreq+0x1e>
     94e:	411c                	lw	a5,0(a0)
     950:	8385                	srli	a5,a5,0x1
     952:	b781                	j	892 <RCC_GetClocksFreq+0x1c>
     954:	4601                	li	a2,0
     956:	bf6d                	j	910 <RCC_GetClocksFreq+0x9a>
     958:	4605                	li	a2,1
     95a:	47b5                	li	a5,13
     95c:	bfd1                	j	930 <RCC_GetClocksFreq+0xba>
     95e:	4601                	li	a2,0
     960:	47bd                	li	a5,15
     962:	b7f9                	j	930 <RCC_GetClocksFreq+0xba>
     964:	003d1737          	lui	a4,0x3d1
     968:	90070713          	addi	a4,a4,-1792 # 3d0900 <_data_lma+0x3cd9a4>
     96c:	bfe9                	j	946 <RCC_GetClocksFreq+0xd0>
     96e:	400215b7          	lui	a1,0x40021
     972:	55d8                	lw	a4,44(a1)
     974:	00f71693          	slli	a3,a4,0xf
     978:	55d8                	lw	a4,44(a1)
     97a:	0406df63          	bgez	a3,9d8 <RCC_GetClocksFreq+0x162>
     97e:	8311                	srli	a4,a4,0x4
     980:	8b3d                	andi	a4,a4,15
     982:	00170693          	addi	a3,a4,1
     986:	007a1737          	lui	a4,0x7a1
     98a:	20070713          	addi	a4,a4,512 # 7a1200 <_data_lma+0x79e2a4>
     98e:	02d75733          	divu	a4,a4,a3
     992:	c118                	sw	a4,0(a0)
     994:	55d4                	lw	a3,44(a1)
     996:	82a1                	srli	a3,a3,0x8
     998:	8abd                	andi	a3,a3,15
     99a:	e28d                	bnez	a3,9bc <RCC_GetClocksFreq+0x146>
     99c:	4695                	li	a3,5
     99e:	02d70733          	mul	a4,a4,a3
     9a2:	8305                	srli	a4,a4,0x1
     9a4:	c118                	sw	a4,0(a0)
     9a6:	40021737          	lui	a4,0x40021
     9aa:	5758                	lw	a4,44(a4)
     9ac:	4114                	lw	a3,0(a0)
     9ae:	8b3d                	andi	a4,a4,15
     9b0:	0705                	addi	a4,a4,1
     9b2:	02e6d733          	divu	a4,a3,a4
     9b6:	c118                	sw	a4,0(a0)
     9b8:	4118                	lw	a4,0(a0)
     9ba:	b771                	j	946 <RCC_GetClocksFreq+0xd0>
     9bc:	4585                	li	a1,1
     9be:	00b69463          	bne	a3,a1,9c6 <RCC_GetClocksFreq+0x150>
     9c2:	46e5                	li	a3,25
     9c4:	bfe9                	j	99e <RCC_GetClocksFreq+0x128>
     9c6:	45bd                	li	a1,15
     9c8:	00b69663          	bne	a3,a1,9d4 <RCC_GetClocksFreq+0x15e>
     9cc:	46d1                	li	a3,20
     9ce:	02e68733          	mul	a4,a3,a4
     9d2:	bfc9                	j	9a4 <RCC_GetClocksFreq+0x12e>
     9d4:	0689                	addi	a3,a3,2
     9d6:	bfe5                	j	9ce <RCC_GetClocksFreq+0x158>
     9d8:	8b3d                	andi	a4,a4,15
     9da:	00170693          	addi	a3,a4,1 # 40021001 <_eusrstack+0x20011001>
     9de:	007a1737          	lui	a4,0x7a1
     9e2:	20070713          	addi	a4,a4,512 # 7a1200 <_data_lma+0x79e2a4>
     9e6:	02d75733          	divu	a4,a4,a3
     9ea:	b7f1                	j	9b6 <RCC_GetClocksFreq+0x140>

000009ec <RCC_APB2PeriphClockCmd>:
     9ec:	c599                	beqz	a1,9fa <RCC_APB2PeriphClockCmd+0xe>
     9ee:	40021737          	lui	a4,0x40021
     9f2:	4f1c                	lw	a5,24(a4)
     9f4:	8d5d                	or	a0,a0,a5
     9f6:	cf08                	sw	a0,24(a4)
     9f8:	8082                	ret
     9fa:	400217b7          	lui	a5,0x40021
     9fe:	4f98                	lw	a4,24(a5)
     a00:	fff54513          	not	a0,a0
     a04:	8d79                	and	a0,a0,a4
     a06:	cf88                	sw	a0,24(a5)
     a08:	8082                	ret

00000a0a <RCC_APB1PeriphClockCmd>:
     a0a:	c599                	beqz	a1,a18 <RCC_APB1PeriphClockCmd+0xe>
     a0c:	40021737          	lui	a4,0x40021
     a10:	4f5c                	lw	a5,28(a4)
     a12:	8d5d                	or	a0,a0,a5
     a14:	cf48                	sw	a0,28(a4)
     a16:	8082                	ret
     a18:	400217b7          	lui	a5,0x40021
     a1c:	4fd8                	lw	a4,28(a5)
     a1e:	fff54513          	not	a0,a0
     a22:	8d79                	and	a0,a0,a4
     a24:	cfc8                	sw	a0,28(a5)
     a26:	8082                	ret

00000a28 <TIM_TimeBaseInit>:
     a28:	211e                	lhu	a5,0(a0)
     a2a:	40013737          	lui	a4,0x40013
     a2e:	c0070693          	addi	a3,a4,-1024 # 40012c00 <_eusrstack+0x20002c00>
     a32:	07c2                	slli	a5,a5,0x10
     a34:	83c1                	srli	a5,a5,0x10
     a36:	04d50063          	beq	a0,a3,a76 <TIM_TimeBaseInit+0x4e>
     a3a:	400006b7          	lui	a3,0x40000
     a3e:	02d50c63          	beq	a0,a3,a76 <TIM_TimeBaseInit+0x4e>
     a42:	40068693          	addi	a3,a3,1024 # 40000400 <_eusrstack+0x1fff0400>
     a46:	02d50863          	beq	a0,a3,a76 <TIM_TimeBaseInit+0x4e>
     a4a:	400016b7          	lui	a3,0x40001
     a4e:	80068613          	addi	a2,a3,-2048 # 40000800 <_eusrstack+0x1fff0800>
     a52:	02c50263          	beq	a0,a2,a76 <TIM_TimeBaseInit+0x4e>
     a56:	c0068693          	addi	a3,a3,-1024
     a5a:	00d50e63          	beq	a0,a3,a76 <TIM_TimeBaseInit+0x4e>
     a5e:	40070713          	addi	a4,a4,1024
     a62:	00e50a63          	beq	a0,a4,a76 <TIM_TimeBaseInit+0x4e>
     a66:	40015737          	lui	a4,0x40015
     a6a:	c0070693          	addi	a3,a4,-1024 # 40014c00 <_eusrstack+0x20004c00>
     a6e:	00d50463          	beq	a0,a3,a76 <TIM_TimeBaseInit+0x4e>
     a72:	00e51663          	bne	a0,a4,a7e <TIM_TimeBaseInit+0x56>
     a76:	21ba                	lhu	a4,2(a1)
     a78:	f8f7f793          	andi	a5,a5,-113
     a7c:	8fd9                	or	a5,a5,a4
     a7e:	40001737          	lui	a4,0x40001
     a82:	00e50c63          	beq	a0,a4,a9a <TIM_TimeBaseInit+0x72>
     a86:	40070713          	addi	a4,a4,1024 # 40001400 <_eusrstack+0x1fff1400>
     a8a:	00e50863          	beq	a0,a4,a9a <TIM_TimeBaseInit+0x72>
     a8e:	cff7f793          	andi	a5,a5,-769
     a92:	21fa                	lhu	a4,6(a1)
     a94:	07c2                	slli	a5,a5,0x10
     a96:	83c1                	srli	a5,a5,0x10
     a98:	8fd9                	or	a5,a5,a4
     a9a:	a11e                	sh	a5,0(a0)
     a9c:	21de                	lhu	a5,4(a1)
     a9e:	b55e                	sh	a5,44(a0)
     aa0:	219e                	lhu	a5,0(a1)
     aa2:	b51e                	sh	a5,40(a0)
     aa4:	400137b7          	lui	a5,0x40013
     aa8:	c0078713          	addi	a4,a5,-1024 # 40012c00 <_eusrstack+0x20002c00>
     aac:	00e50e63          	beq	a0,a4,ac8 <TIM_TimeBaseInit+0xa0>
     ab0:	40078793          	addi	a5,a5,1024
     ab4:	00f50a63          	beq	a0,a5,ac8 <TIM_TimeBaseInit+0xa0>
     ab8:	400157b7          	lui	a5,0x40015
     abc:	c0078713          	addi	a4,a5,-1024 # 40014c00 <_eusrstack+0x20004c00>
     ac0:	00e50463          	beq	a0,a4,ac8 <TIM_TimeBaseInit+0xa0>
     ac4:	00f51463          	bne	a0,a5,acc <TIM_TimeBaseInit+0xa4>
     ac8:	259c                	lbu	a5,8(a1)
     aca:	b91e                	sh	a5,48(a0)
     acc:	4785                	li	a5,1
     ace:	a95e                	sh	a5,20(a0)
     ad0:	8082                	ret

00000ad2 <TIM_OC3Init>:
     ad2:	311e                	lhu	a5,32(a0)
     ad4:	0085d803          	lhu	a6,8(a1) # 40021008 <_eusrstack+0x20011008>
     ad8:	07c2                	slli	a5,a5,0x10
     ada:	83c1                	srli	a5,a5,0x10
     adc:	eff7f793          	andi	a5,a5,-257
     ae0:	07c2                	slli	a5,a5,0x10
     ae2:	83c1                	srli	a5,a5,0x10
     ae4:	b11e                	sh	a5,32(a0)
     ae6:	311e                	lhu	a5,32(a0)
     ae8:	2156                	lhu	a3,4(a0)
     aea:	2d5a                	lhu	a4,28(a0)
     aec:	07c2                	slli	a5,a5,0x10
     aee:	01069613          	slli	a2,a3,0x10
     af2:	0742                	slli	a4,a4,0x10
     af4:	2196                	lhu	a3,0(a1)
     af6:	8341                	srli	a4,a4,0x10
     af8:	f8c77713          	andi	a4,a4,-116
     afc:	8f55                	or	a4,a4,a3
     afe:	21b6                	lhu	a3,2(a1)
     b00:	83c1                	srli	a5,a5,0x10
     b02:	dff7f793          	andi	a5,a5,-513
     b06:	0106e6b3          	or	a3,a3,a6
     b0a:	06a2                	slli	a3,a3,0x8
     b0c:	8fd5                	or	a5,a5,a3
     b0e:	400136b7          	lui	a3,0x40013
     b12:	07c2                	slli	a5,a5,0x10
     b14:	c0068813          	addi	a6,a3,-1024 # 40012c00 <_eusrstack+0x20002c00>
     b18:	8241                	srli	a2,a2,0x10
     b1a:	83c1                	srli	a5,a5,0x10
     b1c:	01050e63          	beq	a0,a6,b38 <TIM_OC3Init+0x66>
     b20:	40068693          	addi	a3,a3,1024
     b24:	00d50a63          	beq	a0,a3,b38 <TIM_OC3Init+0x66>
     b28:	400156b7          	lui	a3,0x40015
     b2c:	c0068813          	addi	a6,a3,-1024 # 40014c00 <_eusrstack+0x20004c00>
     b30:	01050463          	beq	a0,a6,b38 <TIM_OC3Init+0x66>
     b34:	02d51f63          	bne	a0,a3,b72 <TIM_OC3Init+0xa0>
     b38:	76fd                	lui	a3,0xfffff
     b3a:	7ff68693          	addi	a3,a3,2047 # fffff7ff <_eusrstack+0xdffef7ff>
     b3e:	8ff5                	and	a5,a5,a3
     b40:	25b6                	lhu	a3,10(a1)
     b42:	00c5d803          	lhu	a6,12(a1)
     b46:	06a2                	slli	a3,a3,0x8
     b48:	8fd5                	or	a5,a5,a3
     b4a:	21d6                	lhu	a3,4(a1)
     b4c:	07c2                	slli	a5,a5,0x10
     b4e:	83c1                	srli	a5,a5,0x10
     b50:	06a2                	slli	a3,a3,0x8
     b52:	bff7f793          	andi	a5,a5,-1025
     b56:	8fd5                	or	a5,a5,a3
     b58:	76f5                	lui	a3,0xffffd
     b5a:	16fd                	addi	a3,a3,-1
     b5c:	8ef1                	and	a3,a3,a2
     b5e:	25f2                	lhu	a2,14(a1)
     b60:	07c2                	slli	a5,a5,0x10
     b62:	83c1                	srli	a5,a5,0x10
     b64:	01066633          	or	a2,a2,a6
     b68:	0612                	slli	a2,a2,0x4
     b6a:	8ed1                	or	a3,a3,a2
     b6c:	01069613          	slli	a2,a3,0x10
     b70:	8241                	srli	a2,a2,0x10
     b72:	a152                	sh	a2,4(a0)
     b74:	ad5a                	sh	a4,28(a0)
     b76:	21fa                	lhu	a4,6(a1)
     b78:	bd5a                	sh	a4,60(a0)
     b7a:	b11e                	sh	a5,32(a0)
     b7c:	8082                	ret

00000b7e <TIM_Cmd>:
     b7e:	211e                	lhu	a5,0(a0)
     b80:	c589                	beqz	a1,b8a <TIM_Cmd+0xc>
     b82:	0017e793          	ori	a5,a5,1
     b86:	a11e                	sh	a5,0(a0)
     b88:	8082                	ret
     b8a:	07c2                	slli	a5,a5,0x10
     b8c:	83c1                	srli	a5,a5,0x10
     b8e:	9bf9                	andi	a5,a5,-2
     b90:	07c2                	slli	a5,a5,0x10
     b92:	83c1                	srli	a5,a5,0x10
     b94:	bfcd                	j	b86 <TIM_Cmd+0x8>

00000b96 <TIM_CtrlPWMOutputs>:
     b96:	04455783          	lhu	a5,68(a0)
     b9a:	c591                	beqz	a1,ba6 <TIM_CtrlPWMOutputs+0x10>
     b9c:	6721                	lui	a4,0x8
     b9e:	8fd9                	or	a5,a5,a4
     ba0:	04f51223          	sh	a5,68(a0)
     ba4:	8082                	ret
     ba6:	07c6                	slli	a5,a5,0x11
     ba8:	83c5                	srli	a5,a5,0x11
     baa:	bfdd                	j	ba0 <TIM_CtrlPWMOutputs+0xa>

00000bac <TIM_ARRPreloadConfig>:
     bac:	211e                	lhu	a5,0(a0)
     bae:	c589                	beqz	a1,bb8 <TIM_ARRPreloadConfig+0xc>
     bb0:	0807e793          	ori	a5,a5,128
     bb4:	a11e                	sh	a5,0(a0)
     bb6:	8082                	ret
     bb8:	07c2                	slli	a5,a5,0x10
     bba:	83c1                	srli	a5,a5,0x10
     bbc:	f7f7f793          	andi	a5,a5,-129
     bc0:	07c2                	slli	a5,a5,0x10
     bc2:	83c1                	srli	a5,a5,0x10
     bc4:	bfc5                	j	bb4 <TIM_ARRPreloadConfig+0x8>

00000bc6 <TIM_OC3PreloadConfig>:
     bc6:	2d5e                	lhu	a5,28(a0)
     bc8:	07c2                	slli	a5,a5,0x10
     bca:	83c1                	srli	a5,a5,0x10
     bcc:	9bdd                	andi	a5,a5,-9
     bce:	8ddd                	or	a1,a1,a5
     bd0:	ad4e                	sh	a1,28(a0)
     bd2:	8082                	ret

00000bd4 <TIM_SetAutoreload>:
     bd4:	b54e                	sh	a1,44(a0)
     bd6:	8082                	ret

00000bd8 <TIM_SetCompare3>:
     bd8:	bd4e                	sh	a1,60(a0)
     bda:	8082                	ret

00000bdc <USART_Init>:
     bdc:	e14ff2ef          	jal	t0,1f0 <__riscv_save_0>
     be0:	2916                	lhu	a3,16(a0)
     be2:	77f5                	lui	a5,0xffffd
     be4:	17fd                	addi	a5,a5,-1
     be6:	8ff5                	and	a5,a5,a3
     be8:	21f6                	lhu	a3,6(a1)
     bea:	25da                	lhu	a4,12(a1)
     bec:	7179                	addi	sp,sp,-48
     bee:	8fd5                	or	a5,a5,a3
     bf0:	a91e                	sh	a5,16(a0)
     bf2:	2556                	lhu	a3,12(a0)
     bf4:	77fd                	lui	a5,0xfffff
     bf6:	9f378793          	addi	a5,a5,-1549 # ffffe9f3 <_eusrstack+0xdffee9f3>
     bfa:	8ff5                	and	a5,a5,a3
     bfc:	21d6                	lhu	a3,4(a1)
     bfe:	842a                	mv	s0,a0
     c00:	c62e                	sw	a1,12(sp)
     c02:	8fd5                	or	a5,a5,a3
     c04:	2596                	lhu	a3,8(a1)
     c06:	8fd5                	or	a5,a5,a3
     c08:	25b6                	lhu	a3,10(a1)
     c0a:	8fd5                	or	a5,a5,a3
     c0c:	a55e                	sh	a5,12(a0)
     c0e:	295e                	lhu	a5,20(a0)
     c10:	07c2                	slli	a5,a5,0x10
     c12:	83c1                	srli	a5,a5,0x10
     c14:	cff7f793          	andi	a5,a5,-769
     c18:	8fd9                	or	a5,a5,a4
     c1a:	a95e                	sh	a5,20(a0)
     c1c:	0868                	addi	a0,sp,28
     c1e:	39a1                	jal	876 <RCC_GetClocksFreq>
     c20:	400147b7          	lui	a5,0x40014
     c24:	80078793          	addi	a5,a5,-2048 # 40013800 <_eusrstack+0x20003800>
     c28:	45b2                	lw	a1,12(sp)
     c2a:	02f41e63          	bne	s0,a5,c66 <USART_Init+0x8a>
     c2e:	57a2                	lw	a5,40(sp)
     c30:	4765                	li	a4,25
     c32:	02e787b3          	mul	a5,a5,a4
     c36:	4198                	lw	a4,0(a1)
     c38:	06400693          	li	a3,100
     c3c:	070a                	slli	a4,a4,0x2
     c3e:	02e7d7b3          	divu	a5,a5,a4
     c42:	02d7d733          	divu	a4,a5,a3
     c46:	02d7f7b3          	remu	a5,a5,a3
     c4a:	0712                	slli	a4,a4,0x4
     c4c:	0792                	slli	a5,a5,0x4
     c4e:	03278793          	addi	a5,a5,50
     c52:	02d7d7b3          	divu	a5,a5,a3
     c56:	8bbd                	andi	a5,a5,15
     c58:	8fd9                	or	a5,a5,a4
     c5a:	07c2                	slli	a5,a5,0x10
     c5c:	83c1                	srli	a5,a5,0x10
     c5e:	a41e                	sh	a5,8(s0)
     c60:	6145                	addi	sp,sp,48
     c62:	db2ff06f          	j	214 <__riscv_restore_0>
     c66:	5792                	lw	a5,36(sp)
     c68:	b7e1                	j	c30 <USART_Init+0x54>

00000c6a <USART_Cmd>:
     c6a:	c591                	beqz	a1,c76 <USART_Cmd+0xc>
     c6c:	255e                	lhu	a5,12(a0)
     c6e:	6709                	lui	a4,0x2
     c70:	8fd9                	or	a5,a5,a4
     c72:	a55e                	sh	a5,12(a0)
     c74:	8082                	ret
     c76:	255a                	lhu	a4,12(a0)
     c78:	77f9                	lui	a5,0xffffe
     c7a:	17fd                	addi	a5,a5,-1
     c7c:	8ff9                	and	a5,a5,a4
     c7e:	bfd5                	j	c72 <USART_Cmd+0x8>

00000c80 <USART_SendData>:
     c80:	1ff5f593          	andi	a1,a1,511
     c84:	a14e                	sh	a1,4(a0)
     c86:	8082                	ret

00000c88 <USART_GetFlagStatus>:
     c88:	210a                	lhu	a0,0(a0)
     c8a:	8d6d                	and	a0,a0,a1
     c8c:	00a03533          	snez	a0,a0
     c90:	8082                	ret

00000c92 <ES8388_Contrl_Init>:
     c92:	d5eff2ef          	jal	t0,1f0 <__riscv_save_0>
     c96:	1141                	addi	sp,sp,-16
     c98:	4585                	li	a1,1
     c9a:	4541                	li	a0,16
     c9c:	3b81                	jal	9ec <RCC_APB2PeriphClockCmd>
     c9e:	6789                	lui	a5,0x2
     ca0:	827c                	sh	a5,4(sp)
     ca2:	47c1                	li	a5,16
     ca4:	c63e                	sw	a5,12(sp)
     ca6:	004c                	addi	a1,sp,4
     ca8:	478d                	li	a5,3
     caa:	40011537          	lui	a0,0x40011
     cae:	c43e                	sw	a5,8(sp)
     cb0:	38b5                	jal	52c <GPIO_Init>
     cb2:	0141                	addi	sp,sp,16
     cb4:	d60ff06f          	j	214 <__riscv_restore_0>

00000cb8 <ES8388_WaitEvent>:
     cb8:	d38ff2ef          	jal	t0,1f0 <__riscv_save_0>
     cbc:	6441                	lui	s0,0x10
     cbe:	84aa                	mv	s1,a0
     cc0:	892e                	mv	s2,a1
     cc2:	147d                	addi	s0,s0,-1
     cc4:	85ca                	mv	a1,s2
     cc6:	8526                	mv	a0,s1
     cc8:	3685                	jal	828 <I2C_CheckEvent>
     cca:	c501                	beqz	a0,cd2 <ES8388_WaitEvent+0x1a>
     ccc:	4501                	li	a0,0
     cce:	d46ff06f          	j	214 <__riscv_restore_0>
     cd2:	147d                	addi	s0,s0,-1
     cd4:	0442                	slli	s0,s0,0x10
     cd6:	8041                	srli	s0,s0,0x10
     cd8:	f475                	bnez	s0,cc4 <ES8388_WaitEvent+0xc>
     cda:	4505                	li	a0,1
     cdc:	bfcd                	j	cce <ES8388_WaitEvent+0x16>

00000cde <ES8388_Write_Reg>:
     cde:	cf8ff2ef          	jal	t0,1d6 <__riscv_save_4>
     ce2:	6441                	lui	s0,0x10
     ce4:	400054b7          	lui	s1,0x40005
     ce8:	8a2a                	mv	s4,a0
     cea:	892e                	mv	s2,a1
     cec:	147d                	addi	s0,s0,-1
     cee:	40048993          	addi	s3,s1,1024 # 40005400 <_eusrstack+0x1fff5400>
     cf2:	000205b7          	lui	a1,0x20
     cf6:	854e                	mv	a0,s3
     cf8:	3699                	jal	83e <I2C_GetFlagStatus>
     cfa:	e545                	bnez	a0,da2 <ES8388_Write_Reg+0xc4>
     cfc:	4585                	li	a1,1
     cfe:	40048513          	addi	a0,s1,1024
     d02:	3cf1                	jal	7de <I2C_GenerateSTART>
     d04:	000305b7          	lui	a1,0x30
     d08:	0585                	addi	a1,a1,1
     d0a:	40048513          	addi	a0,s1,1024
     d0e:	376d                	jal	cb8 <ES8388_WaitEvent>
     d10:	ed49                	bnez	a0,daa <ES8388_Write_Reg+0xcc>
     d12:	02000593          	li	a1,32
     d16:	40048513          	addi	a0,s1,1024
     d1a:	4601                	li	a2,0
     d1c:	3ced                	jal	816 <I2C_Send7bitAddress>
     d1e:	000705b7          	lui	a1,0x70
     d22:	08258593          	addi	a1,a1,130 # 70082 <_data_lma+0x6d126>
     d26:	40048513          	addi	a0,s1,1024
     d2a:	3779                	jal	cb8 <ES8388_WaitEvent>
     d2c:	ed3d                	bnez	a0,daa <ES8388_Write_Reg+0xcc>
     d2e:	6441                	lui	s0,0x10
     d30:	100009b7          	lui	s3,0x10000
     d34:	400054b7          	lui	s1,0x40005
     d38:	147d                	addi	s0,s0,-1
     d3a:	08098993          	addi	s3,s3,128 # 10000080 <_data_lma+0xfffd124>
     d3e:	40048a93          	addi	s5,s1,1024 # 40005400 <_eusrstack+0x1fff5400>
     d42:	85ce                	mv	a1,s3
     d44:	8556                	mv	a0,s5
     d46:	3ce5                	jal	83e <I2C_GetFlagStatus>
     d48:	c52d                	beqz	a0,db2 <ES8388_Write_Reg+0xd4>
     d4a:	85d2                	mv	a1,s4
     d4c:	40048513          	addi	a0,s1,1024
     d50:	34c9                	jal	812 <I2C_SendData>
     d52:	000705b7          	lui	a1,0x70
     d56:	08458593          	addi	a1,a1,132 # 70084 <_data_lma+0x6d128>
     d5a:	40048513          	addi	a0,s1,1024
     d5e:	3fa9                	jal	cb8 <ES8388_WaitEvent>
     d60:	e529                	bnez	a0,daa <ES8388_Write_Reg+0xcc>
     d62:	6441                	lui	s0,0x10
     d64:	100009b7          	lui	s3,0x10000
     d68:	400054b7          	lui	s1,0x40005
     d6c:	147d                	addi	s0,s0,-1
     d6e:	08098993          	addi	s3,s3,128 # 10000080 <_data_lma+0xfffd124>
     d72:	40048a13          	addi	s4,s1,1024 # 40005400 <_eusrstack+0x1fff5400>
     d76:	85ce                	mv	a1,s3
     d78:	8552                	mv	a0,s4
     d7a:	34d1                	jal	83e <I2C_GetFlagStatus>
     d7c:	c121                	beqz	a0,dbc <ES8388_Write_Reg+0xde>
     d7e:	85ca                	mv	a1,s2
     d80:	40048513          	addi	a0,s1,1024
     d84:	3479                	jal	812 <I2C_SendData>
     d86:	000705b7          	lui	a1,0x70
     d8a:	08458593          	addi	a1,a1,132 # 70084 <_data_lma+0x6d128>
     d8e:	40048513          	addi	a0,s1,1024
     d92:	371d                	jal	cb8 <ES8388_WaitEvent>
     d94:	842a                	mv	s0,a0
     d96:	e911                	bnez	a0,daa <ES8388_Write_Reg+0xcc>
     d98:	4585                	li	a1,1
     d9a:	40048513          	addi	a0,s1,1024
     d9e:	3ca9                	jal	7f8 <I2C_GenerateSTOP>
     da0:	a031                	j	dac <ES8388_Write_Reg+0xce>
     da2:	147d                	addi	s0,s0,-1
     da4:	0442                	slli	s0,s0,0x10
     da6:	8041                	srli	s0,s0,0x10
     da8:	f429                	bnez	s0,cf2 <ES8388_Write_Reg+0x14>
     daa:	4405                	li	s0,1
     dac:	8522                	mv	a0,s0
     dae:	c5cff06f          	j	20a <__riscv_restore_4>
     db2:	147d                	addi	s0,s0,-1
     db4:	0442                	slli	s0,s0,0x10
     db6:	8041                	srli	s0,s0,0x10
     db8:	f449                	bnez	s0,d42 <ES8388_Write_Reg+0x64>
     dba:	bfc5                	j	daa <ES8388_Write_Reg+0xcc>
     dbc:	147d                	addi	s0,s0,-1
     dbe:	0442                	slli	s0,s0,0x10
     dc0:	8041                	srli	s0,s0,0x10
     dc2:	f855                	bnez	s0,d76 <ES8388_Write_Reg+0x98>
     dc4:	b7dd                	j	daa <ES8388_Write_Reg+0xcc>

00000dc6 <ES8388_Init>:
     dc6:	c2aff2ef          	jal	t0,1f0 <__riscv_save_0>
     dca:	1101                	addi	sp,sp,-32
     dcc:	4585                	li	a1,1
     dce:	4521                	li	a0,8
     dd0:	3931                	jal	9ec <RCC_APB2PeriphClockCmd>
     dd2:	4585                	li	a1,1
     dd4:	4505                	li	a0,1
     dd6:	3919                	jal	9ec <RCC_APB2PeriphClockCmd>
     dd8:	4585                	li	a1,1
     dda:	4509                	li	a0,2
     ddc:	819ff0ef          	jal	ra,5f4 <GPIO_PinRemapConfig>
     de0:	4585                	li	a1,1
     de2:	00200537          	lui	a0,0x200
     de6:	3115                	jal	a0a <RCC_APB1PeriphClockCmd>
     de8:	40011437          	lui	s0,0x40011
     dec:	c0040513          	addi	a0,s0,-1024 # 40010c00 <_eusrstack+0x20000c00>
     df0:	30000593          	li	a1,768
     df4:	ff8ff0ef          	jal	ra,5ec <GPIO_SetBits>
     df8:	10000793          	li	a5,256
     dfc:	4971                	li	s2,28
     dfe:	448d                	li	s1,3
     e00:	004c                	addi	a1,sp,4
     e02:	c0040513          	addi	a0,s0,-1024
     e06:	827c                	sh	a5,4(sp)
     e08:	c64a                	sw	s2,12(sp)
     e0a:	c426                	sw	s1,8(sp)
     e0c:	f20ff0ef          	jal	ra,52c <GPIO_Init>
     e10:	20000793          	li	a5,512
     e14:	004c                	addi	a1,sp,4
     e16:	c0040513          	addi	a0,s0,-1024
     e1a:	827c                	sh	a5,4(sp)
     e1c:	c64a                	sw	s2,12(sp)
     e1e:	c426                	sw	s1,8(sp)
     e20:	f0cff0ef          	jal	ra,52c <GPIO_Init>
     e24:	67e1                	lui	a5,0x18
     e26:	6a078793          	addi	a5,a5,1696 # 186a0 <_data_lma+0x15744>
     e2a:	c83e                	sw	a5,16(sp)
     e2c:	400007b7          	lui	a5,0x40000
     e30:	ca3e                	sw	a5,20(sp)
     e32:	040007b7          	lui	a5,0x4000
     e36:	40005437          	lui	s0,0x40005
     e3a:	0785                	addi	a5,a5,1
     e3c:	cc3e                	sw	a5,24(sp)
     e3e:	080c                	addi	a1,sp,16
     e40:	6791                	lui	a5,0x4
     e42:	40040513          	addi	a0,s0,1024 # 40005400 <_eusrstack+0x1fff5400>
     e46:	86fc                	sh	a5,28(sp)
     e48:	883ff0ef          	jal	ra,6ca <I2C_Init>
     e4c:	40040513          	addi	a0,s0,1024
     e50:	4585                	li	a1,1
     e52:	3a95                	jal	7c6 <I2C_Cmd>
     e54:	3d3d                	jal	c92 <ES8388_Contrl_Init>
     e56:	08000593          	li	a1,128
     e5a:	4501                	li	a0,0
     e5c:	3549                	jal	cde <ES8388_Write_Reg>
     e5e:	4581                	li	a1,0
     e60:	4501                	li	a0,0
     e62:	3db5                	jal	cde <ES8388_Write_Reg>
     e64:	06400513          	li	a0,100
     e68:	2619                	jal	116e <Delay_Ms>
     e6a:	05800593          	li	a1,88
     e6e:	4505                	li	a0,1
     e70:	35bd                	jal	cde <ES8388_Write_Reg>
     e72:	05000593          	li	a1,80
     e76:	4505                	li	a0,1
     e78:	359d                	jal	cde <ES8388_Write_Reg>
     e7a:	0f300593          	li	a1,243
     e7e:	4509                	li	a0,2
     e80:	3db9                	jal	cde <ES8388_Write_Reg>
     e82:	0f000593          	li	a1,240
     e86:	4509                	li	a0,2
     e88:	3d99                	jal	cde <ES8388_Write_Reg>
     e8a:	45a5                	li	a1,9
     e8c:	450d                	li	a0,3
     e8e:	3d81                	jal	cde <ES8388_Write_Reg>
     e90:	4599                	li	a1,6
     e92:	4501                	li	a0,0
     e94:	35a9                	jal	cde <ES8388_Write_Reg>
     e96:	4581                	li	a1,0
     e98:	4511                	li	a0,4
     e9a:	3591                	jal	cde <ES8388_Write_Reg>
     e9c:	4581                	li	a1,0
     e9e:	4521                	li	a0,8
     ea0:	3d3d                	jal	cde <ES8388_Write_Reg>
     ea2:	08000593          	li	a1,128
     ea6:	02b00513          	li	a0,43
     eaa:	3d15                	jal	cde <ES8388_Write_Reg>
     eac:	08800593          	li	a1,136
     eb0:	4525                	li	a0,9
     eb2:	3535                	jal	cde <ES8388_Write_Reg>
     eb4:	04c00593          	li	a1,76
     eb8:	4531                	li	a0,12
     eba:	3515                	jal	cde <ES8388_Write_Reg>
     ebc:	4589                	li	a1,2
     ebe:	4535                	li	a0,13
     ec0:	3d39                	jal	cde <ES8388_Write_Reg>
     ec2:	4581                	li	a1,0
     ec4:	4541                	li	a0,16
     ec6:	3d21                	jal	cde <ES8388_Write_Reg>
     ec8:	4581                	li	a1,0
     eca:	4545                	li	a0,17
     ecc:	3d09                	jal	cde <ES8388_Write_Reg>
     ece:	4581                	li	a1,0
     ed0:	4549                	li	a0,18
     ed2:	3531                	jal	cde <ES8388_Write_Reg>
     ed4:	45e1                	li	a1,24
     ed6:	455d                	li	a0,23
     ed8:	3519                	jal	cde <ES8388_Write_Reg>
     eda:	4589                	li	a1,2
     edc:	4561                	li	a0,24
     ede:	3501                	jal	cde <ES8388_Write_Reg>
     ee0:	4581                	li	a1,0
     ee2:	4569                	li	a0,26
     ee4:	3bed                	jal	cde <ES8388_Write_Reg>
     ee6:	4581                	li	a1,0
     ee8:	456d                	li	a0,27
     eea:	3bd5                	jal	cde <ES8388_Write_Reg>
     eec:	0b800593          	li	a1,184
     ef0:	02700513          	li	a0,39
     ef4:	33ed                	jal	cde <ES8388_Write_Reg>
     ef6:	0b800593          	li	a1,184
     efa:	02a00513          	li	a0,42
     efe:	33c5                	jal	cde <ES8388_Write_Reg>
     f00:	06400513          	li	a0,100
     f04:	24ad                	jal	116e <Delay_Ms>
     f06:	4501                	li	a0,0
     f08:	6105                	addi	sp,sp,32
     f0a:	b0aff06f          	j	214 <__riscv_restore_0>

00000f0e <ES8388_close>:
     f0e:	ae2ff2ef          	jal	t0,1f0 <__riscv_save_0>
     f12:	3d55                	jal	dc6 <ES8388_Init>
     f14:	08000593          	li	a1,128
     f18:	4501                	li	a0,0
     f1a:	33d1                	jal	cde <ES8388_Write_Reg>
     f1c:	4581                	li	a1,0
     f1e:	4501                	li	a0,0
     f20:	3b7d                	jal	cde <ES8388_Write_Reg>
     f22:	06400513          	li	a0,100
     f26:	24a1                	jal	116e <Delay_Ms>
     f28:	05d00593          	li	a1,93
     f2c:	4505                	li	a0,1
     f2e:	3b45                	jal	cde <ES8388_Write_Reg>
     f30:	45fd                	li	a1,31
     f32:	4509                	li	a0,2
     f34:	336d                	jal	cde <ES8388_Write_Reg>
     f36:	0c000593          	li	a1,192
     f3a:	4511                	li	a0,4
     f3c:	334d                	jal	cde <ES8388_Write_Reg>
     f3e:	ad6ff06f          	j	214 <__riscv_restore_0>

00000f42 <BEEP_PWM_Init_1MHz>:
     f42:	aaeff2ef          	jal	t0,1f0 <__riscv_save_0>
     f46:	7179                	addi	sp,sp,-48
     f48:	4585                	li	a1,1
     f4a:	4511                	li	a0,4
     f4c:	ca02                	sw	zero,20(sp)
     f4e:	cc02                	sw	zero,24(sp)
     f50:	ce02                	sw	zero,28(sp)
     f52:	3c69                	jal	9ec <RCC_APB2PeriphClockCmd>
     f54:	4585                	li	a1,1
     f56:	00080537          	lui	a0,0x80
     f5a:	3c49                	jal	9ec <RCC_APB2PeriphClockCmd>
     f5c:	47c1                	li	a5,16
     f5e:	82fc                	sh	a5,20(sp)
     f60:	40011537          	lui	a0,0x40011
     f64:	478d                	li	a5,3
     f66:	cc3e                	sw	a5,24(sp)
     f68:	084c                	addi	a1,sp,20
     f6a:	47e1                	li	a5,24
     f6c:	80050513          	addi	a0,a0,-2048 # 40010800 <_eusrstack+0x20000800>
     f70:	ce3e                	sw	a5,28(sp)
     f72:	dbaff0ef          	jal	ra,52c <GPIO_Init>
     f76:	200007b7          	lui	a5,0x20000
     f7a:	0207a783          	lw	a5,32(a5) # 20000020 <SystemCoreClock>
     f7e:	000f4737          	lui	a4,0xf4
     f82:	24070713          	addi	a4,a4,576 # f4240 <_data_lma+0xf12e4>
     f86:	02e7d7b3          	divu	a5,a5,a4
     f8a:	40015437          	lui	s0,0x40015
     f8e:	002c                	addi	a1,sp,8
     f90:	c0040513          	addi	a0,s0,-1024 # 40014c00 <_eusrstack+0x20004c00>
     f94:	00011523          	sh	zero,10(sp)
     f98:	00010823          	sb	zero,16(sp)
     f9c:	17fd                	addi	a5,a5,-1
     f9e:	847c                	sh	a5,8(sp)
     fa0:	7cf00793          	li	a5,1999
     fa4:	c63e                	sw	a5,12(sp)
     fa6:	3449                	jal	a28 <TIM_TimeBaseInit>
     fa8:	67c1                	lui	a5,0x10
     faa:	06078793          	addi	a5,a5,96 # 10060 <_data_lma+0xd104>
     fae:	d03e                	sw	a5,32(sp)
     fb0:	100c                	addi	a1,sp,32
     fb2:	3e800793          	li	a5,1000
     fb6:	c0040513          	addi	a0,s0,-1024
     fba:	02f11323          	sh	a5,38(sp)
     fbe:	02011423          	sh	zero,40(sp)
     fc2:	3e01                	jal	ad2 <TIM_OC3Init>
     fc4:	c0040513          	addi	a0,s0,-1024
     fc8:	45a1                	li	a1,8
     fca:	3ef5                	jal	bc6 <TIM_OC3PreloadConfig>
     fcc:	c0040513          	addi	a0,s0,-1024
     fd0:	4585                	li	a1,1
     fd2:	3ee9                	jal	bac <TIM_ARRPreloadConfig>
     fd4:	c0040513          	addi	a0,s0,-1024
     fd8:	4581                	li	a1,0
     fda:	3655                	jal	b7e <TIM_Cmd>
     fdc:	4585                	li	a1,1
     fde:	c0040513          	addi	a0,s0,-1024
     fe2:	3e55                	jal	b96 <TIM_CtrlPWMOutputs>
     fe4:	6145                	addi	sp,sp,48
     fe6:	a2eff06f          	j	214 <__riscv_restore_0>

00000fea <BEEP_SetFrequency>:
     fea:	a06ff2ef          	jal	t0,1f0 <__riscv_save_0>
     fee:	e909                	bnez	a0,1000 <BEEP_SetFrequency+0x16>
     ff0:	40015537          	lui	a0,0x40015
     ff4:	4581                	li	a1,0
     ff6:	c0050513          	addi	a0,a0,-1024 # 40014c00 <_eusrstack+0x20004c00>
     ffa:	3651                	jal	b7e <TIM_Cmd>
     ffc:	a18ff06f          	j	214 <__riscv_restore_0>
    1000:	000f4437          	lui	s0,0xf4
    1004:	24040413          	addi	s0,s0,576 # f4240 <_data_lma+0xf12e4>
    1008:	02a44433          	div	s0,s0,a0
    100c:	67c1                	lui	a5,0x10
    100e:	00f44463          	blt	s0,a5,1016 <BEEP_SetFrequency+0x2c>
    1012:	fff78413          	addi	s0,a5,-1 # ffff <_data_lma+0xd0a3>
    1016:	fff40593          	addi	a1,s0,-1
    101a:	400154b7          	lui	s1,0x40015
    101e:	05c2                	slli	a1,a1,0x10
    1020:	81c1                	srli	a1,a1,0x10
    1022:	c0048513          	addi	a0,s1,-1024 # 40014c00 <_eusrstack+0x20004c00>
    1026:	367d                	jal	bd4 <TIM_SetAutoreload>
    1028:	00145593          	srli	a1,s0,0x1
    102c:	05c2                	slli	a1,a1,0x10
    102e:	81c1                	srli	a1,a1,0x10
    1030:	c0048513          	addi	a0,s1,-1024
    1034:	3655                	jal	bd8 <TIM_SetCompare3>
    1036:	4585                	li	a1,1
    1038:	c0048513          	addi	a0,s1,-1024
    103c:	bf7d                	j	ffa <BEEP_SetFrequency+0x10>

0000103e <BEEP_PlayTone>:
    103e:	9b2ff2ef          	jal	t0,1f0 <__riscv_save_0>
    1042:	1141                	addi	sp,sp,-16
    1044:	c62e                	sw	a1,12(sp)
    1046:	3755                	jal	fea <BEEP_SetFrequency>
    1048:	45b2                	lw	a1,12(sp)
    104a:	852e                	mv	a0,a1
    104c:	220d                	jal	116e <Delay_Ms>
    104e:	40015537          	lui	a0,0x40015
    1052:	4581                	li	a1,0
    1054:	c0050513          	addi	a0,a0,-1024 # 40014c00 <_eusrstack+0x20004c00>
    1058:	361d                	jal	b7e <TIM_Cmd>
    105a:	0141                	addi	sp,sp,16
    105c:	9b8ff06f          	j	214 <__riscv_restore_0>

00001060 <BEEP_PlayBadApple>:
    1060:	968ff2ef          	jal	t0,1c8 <__riscv_save_10>
    1064:	7379                	lui	t1,0xffffe
    1066:	3f030313          	addi	t1,t1,1008 # ffffe3f0 <_eusrstack+0xdffee3f0>
    106a:	6905                	lui	s2,0x1
    106c:	911a                	add	sp,sp,t1
    106e:	dfc90413          	addi	s0,s2,-516 # dfc <ES8388_Init+0x36>
    1072:	6585                	lui	a1,0x1
    1074:	8622                	mv	a2,s0
    1076:	33458593          	addi	a1,a1,820 # 1334 <memcpy+0xb2>
    107a:	0828                	addi	a0,sp,24
    107c:	2419                	jal	1282 <memcpy>
    107e:	6989                	lui	s3,0x2
    1080:	0818                	addi	a4,sp,16
    1082:	c0098793          	addi	a5,s3,-1024 # 1c00 <memcpy+0x97e>
    1086:	97ba                	add	a5,a5,a4
    1088:	412787b3          	sub	a5,a5,s2
    108c:	6589                	lui	a1,0x2
    108e:	20478513          	addi	a0,a5,516
    1092:	8622                	mv	a2,s0
    1094:	13058593          	addi	a1,a1,304 # 2130 <memcpy+0xeae>
    1098:	c63e                	sw	a5,12(sp)
    109a:	22e5                	jal	1282 <memcpy>
    109c:	0818                	addi	a4,sp,16
    109e:	c0098793          	addi	a5,s3,-1024
    10a2:	97ba                	add	a5,a5,a4
    10a4:	74f9                	lui	s1,0xffffe
    10a6:	40878bb3          	sub	s7,a5,s0
    10aa:	c0098793          	addi	a5,s3,-1024
    10ae:	6a0d                	lui	s4,0x3
    10b0:	40848493          	addi	s1,s1,1032 # ffffe408 <_eusrstack+0xdffee408>
    10b4:	97ba                	add	a5,a5,a4
    10b6:	4901                	li	s2,0
    10b8:	ee0a0a13          	addi	s4,s4,-288 # 2ee0 <memcpy+0x1c5e>
    10bc:	08900b13          	li	s6,137
    10c0:	94be                	add	s1,s1,a5
    10c2:	22400a93          	li	s5,548
    10c6:	012b87b3          	add	a5,s7,s2
    10ca:	0007a983          	lw	s3,0(a5)
    10ce:	012487b3          	add	a5,s1,s2
    10d2:	238a                	lhu	a0,0(a5)
    10d4:	034989b3          	mul	s3,s3,s4
    10d8:	0911                	addi	s2,s2,4
    10da:	0369d5b3          	divu	a1,s3,s6
    10de:	05c2                	slli	a1,a1,0x10
    10e0:	81c1                	srli	a1,a1,0x10
    10e2:	3fb1                	jal	103e <BEEP_PlayTone>
    10e4:	0359d533          	divu	a0,s3,s5
    10e8:	2059                	jal	116e <Delay_Ms>
    10ea:	fc891ee3          	bne	s2,s0,10c6 <BEEP_PlayBadApple+0x66>
    10ee:	6309                	lui	t1,0x2
    10f0:	c0030313          	addi	t1,t1,-1024 # 1c00 <memcpy+0x97e>
    10f4:	911a                	add	sp,sp,t1
    10f6:	0141                	addi	sp,sp,16
    10f8:	908ff06f          	j	200 <__riscv_restore_10>

000010fc <LED_Init>:
    10fc:	8f4ff2ef          	jal	t0,1f0 <__riscv_save_0>
    1100:	1141                	addi	sp,sp,-16
    1102:	4585                	li	a1,1
    1104:	4541                	li	a0,16
    1106:	8e7ff0ef          	jal	ra,9ec <RCC_APB2PeriphClockCmd>
    110a:	479d                	li	a5,7
    110c:	827c                	sh	a5,4(sp)
    110e:	47c1                	li	a5,16
    1110:	c63e                	sw	a5,12(sp)
    1112:	004c                	addi	a1,sp,4
    1114:	478d                	li	a5,3
    1116:	40011537          	lui	a0,0x40011
    111a:	c43e                	sw	a5,8(sp)
    111c:	c10ff0ef          	jal	ra,52c <GPIO_Init>
    1120:	4585                	li	a1,1
    1122:	40011537          	lui	a0,0x40011
    1126:	cc6ff0ef          	jal	ra,5ec <GPIO_SetBits>
    112a:	4589                	li	a1,2
    112c:	40011537          	lui	a0,0x40011
    1130:	cbcff0ef          	jal	ra,5ec <GPIO_SetBits>
    1134:	4591                	li	a1,4
    1136:	40011537          	lui	a0,0x40011
    113a:	cb2ff0ef          	jal	ra,5ec <GPIO_SetBits>
    113e:	0141                	addi	sp,sp,16
    1140:	8d4ff06f          	j	214 <__riscv_restore_0>

00001144 <Delay_Init>:
    1144:	200007b7          	lui	a5,0x20000
    1148:	0207a783          	lw	a5,32(a5) # 20000020 <SystemCoreClock>
    114c:	007a1737          	lui	a4,0x7a1
    1150:	20070713          	addi	a4,a4,512 # 7a1200 <_data_lma+0x79e2a4>
    1154:	02e7d7b3          	divu	a5,a5,a4
    1158:	0ff7f793          	andi	a5,a5,255
    115c:	80f18723          	sb	a5,-2034(gp) # 2000002e <p_us>
    1160:	3e800713          	li	a4,1000
    1164:	02e787b3          	mul	a5,a5,a4
    1168:	80f19623          	sh	a5,-2036(gp) # 2000002c <p_ms>
    116c:	8082                	ret

0000116e <Delay_Ms>:
    116e:	e000f7b7          	lui	a5,0xe000f
    1172:	43d8                	lw	a4,4(a5)
    1174:	4681                	li	a3,0
    1176:	9b79                	andi	a4,a4,-2
    1178:	c3d8                	sw	a4,4(a5)
    117a:	80c1d703          	lhu	a4,-2036(gp) # 2000002c <p_ms>
    117e:	02a70633          	mul	a2,a4,a0
    1182:	cb90                	sw	a2,16(a5)
    1184:	cbd4                	sw	a3,20(a5)
    1186:	4398                	lw	a4,0(a5)
    1188:	01076713          	ori	a4,a4,16
    118c:	c398                	sw	a4,0(a5)
    118e:	4398                	lw	a4,0(a5)
    1190:	02176713          	ori	a4,a4,33
    1194:	c398                	sw	a4,0(a5)
    1196:	43d8                	lw	a4,4(a5)
    1198:	8b05                	andi	a4,a4,1
    119a:	df75                	beqz	a4,1196 <Delay_Ms+0x28>
    119c:	4398                	lw	a4,0(a5)
    119e:	9b79                	andi	a4,a4,-2
    11a0:	c398                	sw	a4,0(a5)
    11a2:	8082                	ret

000011a4 <USART_Printf_Init>:
    11a4:	84cff2ef          	jal	t0,1f0 <__riscv_save_0>
    11a8:	842a                	mv	s0,a0
    11aa:	6511                	lui	a0,0x4
    11ac:	1101                	addi	sp,sp,-32
    11ae:	4585                	li	a1,1
    11b0:	0511                	addi	a0,a0,4
    11b2:	83bff0ef          	jal	ra,9ec <RCC_APB2PeriphClockCmd>
    11b6:	20000793          	li	a5,512
    11ba:	827c                	sh	a5,4(sp)
    11bc:	40011537          	lui	a0,0x40011
    11c0:	478d                	li	a5,3
    11c2:	c43e                	sw	a5,8(sp)
    11c4:	004c                	addi	a1,sp,4
    11c6:	47e1                	li	a5,24
    11c8:	80050513          	addi	a0,a0,-2048 # 40010800 <_eusrstack+0x20000800>
    11cc:	c63e                	sw	a5,12(sp)
    11ce:	b5eff0ef          	jal	ra,52c <GPIO_Init>
    11d2:	c822                	sw	s0,16(sp)
    11d4:	40014437          	lui	s0,0x40014
    11d8:	000807b7          	lui	a5,0x80
    11dc:	080c                	addi	a1,sp,16
    11de:	80040513          	addi	a0,s0,-2048 # 40013800 <_eusrstack+0x20003800>
    11e2:	cc3e                	sw	a5,24(sp)
    11e4:	ca02                	sw	zero,20(sp)
    11e6:	00011e23          	sh	zero,28(sp)
    11ea:	9f3ff0ef          	jal	ra,bdc <USART_Init>
    11ee:	4585                	li	a1,1
    11f0:	80040513          	addi	a0,s0,-2048
    11f4:	a77ff0ef          	jal	ra,c6a <USART_Cmd>
    11f8:	6105                	addi	sp,sp,32
    11fa:	81aff06f          	j	214 <__riscv_restore_0>

000011fe <_write>:
    11fe:	fd9fe2ef          	jal	t0,1d6 <__riscv_save_4>
    1202:	400144b7          	lui	s1,0x40014
    1206:	89ae                	mv	s3,a1
    1208:	8932                	mv	s2,a2
    120a:	4401                	li	s0,0
    120c:	80048493          	addi	s1,s1,-2048 # 40013800 <_eusrstack+0x20003800>
    1210:	01244563          	blt	s0,s2,121a <_write+0x1c>
    1214:	854a                	mv	a0,s2
    1216:	ff5fe06f          	j	20a <__riscv_restore_4>
    121a:	04000593          	li	a1,64
    121e:	8526                	mv	a0,s1
    1220:	a69ff0ef          	jal	ra,c88 <USART_GetFlagStatus>
    1224:	d97d                	beqz	a0,121a <_write+0x1c>
    1226:	008987b3          	add	a5,s3,s0
    122a:	00078583          	lb	a1,0(a5) # 80000 <_data_lma+0x7d0a4>
    122e:	8526                	mv	a0,s1
    1230:	0405                	addi	s0,s0,1
    1232:	05c2                	slli	a1,a1,0x10
    1234:	81c1                	srli	a1,a1,0x10
    1236:	a4bff0ef          	jal	ra,c80 <USART_SendData>
    123a:	bfd9                	j	1210 <_write+0x12>

0000123c <puts>:
    123c:	1101                	addi	sp,sp,-32
    123e:	cc22                	sw	s0,24(sp)
    1240:	ca26                	sw	s1,20(sp)
    1242:	ce06                	sw	ra,28(sp)
    1244:	211c                	lbu	a5,0(a0)
    1246:	84aa                	mv	s1,a0
    1248:	4401                	li	s0,0
    124a:	87dc                	sb	a5,15(sp)
    124c:	00f10783          	lb	a5,15(sp)
    1250:	0405                	addi	s0,s0,1
    1252:	ef91                	bnez	a5,126e <puts+0x32>
    1254:	47a9                	li	a5,10
    1256:	00f10593          	addi	a1,sp,15
    125a:	4605                	li	a2,1
    125c:	4501                	li	a0,0
    125e:	87dc                	sb	a5,15(sp)
    1260:	3f79                	jal	11fe <_write>
    1262:	8522                	mv	a0,s0
    1264:	40f2                	lw	ra,28(sp)
    1266:	4462                	lw	s0,24(sp)
    1268:	44d2                	lw	s1,20(sp)
    126a:	6105                	addi	sp,sp,32
    126c:	8082                	ret
    126e:	4605                	li	a2,1
    1270:	00f10593          	addi	a1,sp,15
    1274:	4501                	li	a0,0
    1276:	3761                	jal	11fe <_write>
    1278:	008487b3          	add	a5,s1,s0
    127c:	239c                	lbu	a5,0(a5)
    127e:	87dc                	sb	a5,15(sp)
    1280:	b7f1                	j	124c <puts+0x10>

00001282 <memcpy>:
    1282:	00a5c7b3          	xor	a5,a1,a0
    1286:	8b8d                	andi	a5,a5,3
    1288:	00c50733          	add	a4,a0,a2
    128c:	e781                	bnez	a5,1294 <memcpy+0x12>
    128e:	478d                	li	a5,3
    1290:	00c7ed63          	bltu	a5,a2,12aa <memcpy+0x28>
    1294:	87aa                	mv	a5,a0
    1296:	08e57e63          	bgeu	a0,a4,1332 <memcpy+0xb0>
    129a:	2194                	lbu	a3,0(a1)
    129c:	0785                	addi	a5,a5,1
    129e:	0585                	addi	a1,a1,1
    12a0:	fed78fa3          	sb	a3,-1(a5)
    12a4:	fee7ebe3          	bltu	a5,a4,129a <memcpy+0x18>
    12a8:	8082                	ret
    12aa:	00357693          	andi	a3,a0,3
    12ae:	87aa                	mv	a5,a0
    12b0:	ca89                	beqz	a3,12c2 <memcpy+0x40>
    12b2:	2194                	lbu	a3,0(a1)
    12b4:	0785                	addi	a5,a5,1
    12b6:	0585                	addi	a1,a1,1
    12b8:	fed78fa3          	sb	a3,-1(a5)
    12bc:	0037f693          	andi	a3,a5,3
    12c0:	bfc5                	j	12b0 <memcpy+0x2e>
    12c2:	ffc77693          	andi	a3,a4,-4
    12c6:	fe068613          	addi	a2,a3,-32 # ffffcfe0 <_eusrstack+0xdffecfe0>
    12ca:	06c7f063          	bgeu	a5,a2,132a <memcpy+0xa8>
    12ce:	0005a383          	lw	t2,0(a1)
    12d2:	0045a283          	lw	t0,4(a1)
    12d6:	0085af83          	lw	t6,8(a1)
    12da:	00c5af03          	lw	t5,12(a1)
    12de:	0105ae83          	lw	t4,16(a1)
    12e2:	0145ae03          	lw	t3,20(a1)
    12e6:	0185a303          	lw	t1,24(a1)
    12ea:	01c5a883          	lw	a7,28(a1)
    12ee:	02458593          	addi	a1,a1,36
    12f2:	0077a023          	sw	t2,0(a5)
    12f6:	ffc5a803          	lw	a6,-4(a1)
    12fa:	0057a223          	sw	t0,4(a5)
    12fe:	01f7a423          	sw	t6,8(a5)
    1302:	01e7a623          	sw	t5,12(a5)
    1306:	01d7a823          	sw	t4,16(a5)
    130a:	01c7aa23          	sw	t3,20(a5)
    130e:	0067ac23          	sw	t1,24(a5)
    1312:	0117ae23          	sw	a7,28(a5)
    1316:	02478793          	addi	a5,a5,36
    131a:	ff07ae23          	sw	a6,-4(a5)
    131e:	b775                	j	12ca <memcpy+0x48>
    1320:	4190                	lw	a2,0(a1)
    1322:	0791                	addi	a5,a5,4
    1324:	0591                	addi	a1,a1,4
    1326:	fec7ae23          	sw	a2,-4(a5)
    132a:	fed7ebe3          	bltu	a5,a3,1320 <memcpy+0x9e>
    132e:	f6e7e6e3          	bltu	a5,a4,129a <memcpy+0x18>
    1332:	8082                	ret
    1334:	004e                	c.slli	zero,0x13
    1336:	0000                	unimp
    1338:	004e                	c.slli	zero,0x13
    133a:	0000                	unimp
    133c:	004e                	c.slli	zero,0x13
    133e:	0000                	unimp
    1340:	004e                	c.slli	zero,0x13
    1342:	0000                	unimp
    1344:	004e                	c.slli	zero,0x13
    1346:	0000                	unimp
    1348:	004e                	c.slli	zero,0x13
    134a:	0000                	unimp
    134c:	004e                	c.slli	zero,0x13
    134e:	0000                	unimp
    1350:	004e                	c.slli	zero,0x13
    1352:	0000                	unimp
    1354:	004e                	c.slli	zero,0x13
    1356:	0000                	unimp
    1358:	004e                	c.slli	zero,0x13
    135a:	0000                	unimp
    135c:	004e                	c.slli	zero,0x13
    135e:	0000                	unimp
    1360:	004e                	c.slli	zero,0x13
    1362:	0000                	unimp
    1364:	004e                	c.slli	zero,0x13
    1366:	0000                	unimp
    1368:	004e                	c.slli	zero,0x13
    136a:	0000                	unimp
    136c:	004e                	c.slli	zero,0x13
    136e:	0000                	unimp
    1370:	004e                	c.slli	zero,0x13
    1372:	0000                	unimp
    1374:	004e                	c.slli	zero,0x13
    1376:	0000                	unimp
    1378:	004e                	c.slli	zero,0x13
    137a:	0000                	unimp
    137c:	004e                	c.slli	zero,0x13
    137e:	0000                	unimp
    1380:	004e                	c.slli	zero,0x13
    1382:	0000                	unimp
    1384:	004e                	c.slli	zero,0x13
    1386:	0000                	unimp
    1388:	004e                	c.slli	zero,0x13
    138a:	0000                	unimp
    138c:	004e                	c.slli	zero,0x13
    138e:	0000                	unimp
    1390:	004e                	c.slli	zero,0x13
    1392:	0000                	unimp
    1394:	004e                	c.slli	zero,0x13
    1396:	0000                	unimp
    1398:	004e                	c.slli	zero,0x13
    139a:	0000                	unimp
    139c:	004e                	c.slli	zero,0x13
    139e:	0000                	unimp
    13a0:	004e                	c.slli	zero,0x13
    13a2:	0000                	unimp
    13a4:	004e                	c.slli	zero,0x13
    13a6:	0000                	unimp
    13a8:	004e                	c.slli	zero,0x13
    13aa:	0000                	unimp
    13ac:	004e                	c.slli	zero,0x13
    13ae:	0000                	unimp
    13b0:	004e                	c.slli	zero,0x13
    13b2:	0000                	unimp
    13b4:	004e                	c.slli	zero,0x13
    13b6:	0000                	unimp
    13b8:	004e                	c.slli	zero,0x13
    13ba:	0000                	unimp
    13bc:	004e                	c.slli	zero,0x13
    13be:	0000                	unimp
    13c0:	004e                	c.slli	zero,0x13
    13c2:	0000                	unimp
    13c4:	004e                	c.slli	zero,0x13
    13c6:	0000                	unimp
    13c8:	004e                	c.slli	zero,0x13
    13ca:	0000                	unimp
    13cc:	004e                	c.slli	zero,0x13
    13ce:	0000                	unimp
    13d0:	004e                	c.slli	zero,0x13
    13d2:	0000                	unimp
    13d4:	004e                	c.slli	zero,0x13
    13d6:	0000                	unimp
    13d8:	004e                	c.slli	zero,0x13
    13da:	0000                	unimp
    13dc:	004e                	c.slli	zero,0x13
    13de:	0000                	unimp
    13e0:	004e                	c.slli	zero,0x13
    13e2:	0000                	unimp
    13e4:	004e                	c.slli	zero,0x13
    13e6:	0000                	unimp
    13e8:	004e                	c.slli	zero,0x13
    13ea:	0000                	unimp
    13ec:	004e                	c.slli	zero,0x13
    13ee:	0000                	unimp
    13f0:	004e                	c.slli	zero,0x13
    13f2:	0000                	unimp
    13f4:	009c                	addi	a5,sp,64
    13f6:	0000                	unimp
    13f8:	0000                	unimp
    13fa:	0000                	unimp
    13fc:	009c                	addi	a5,sp,64
    13fe:	0000                	unimp
    1400:	0000008b          	0x8b
    1404:	009c                	addi	a5,sp,64
    1406:	0000                	unimp
    1408:	009c                	addi	a5,sp,64
    140a:	0000                	unimp
    140c:	0000                	unimp
    140e:	0000                	unimp
    1410:	009c                	addi	a5,sp,64
    1412:	0000                	unimp
    1414:	0000008b          	0x8b
    1418:	009c                	addi	a5,sp,64
    141a:	0000                	unimp
    141c:	009c                	addi	a5,sp,64
    141e:	0000                	unimp
    1420:	0000                	unimp
    1422:	0000                	unimp
    1424:	009c                	addi	a5,sp,64
    1426:	0000                	unimp
    1428:	0000008b          	0x8b
    142c:	009c                	addi	a5,sp,64
    142e:	0000                	unimp
    1430:	009c                	addi	a5,sp,64
    1432:	0000                	unimp
    1434:	009c                	addi	a5,sp,64
    1436:	0000                	unimp
    1438:	00b9                	addi	ra,ra,14
    143a:	0000                	unimp
    143c:	00d0                	addi	a2,sp,68
    143e:	0000                	unimp
    1440:	00b9                	addi	ra,ra,14
    1442:	0000                	unimp
    1444:	00d0                	addi	a2,sp,68
    1446:	0000                	unimp
    1448:	009c                	addi	a5,sp,64
    144a:	0000                	unimp
    144c:	0000                	unimp
    144e:	0000                	unimp
    1450:	009c                	addi	a5,sp,64
    1452:	0000                	unimp
    1454:	0000008b          	0x8b
    1458:	009c                	addi	a5,sp,64
    145a:	0000                	unimp
    145c:	009c                	addi	a5,sp,64
    145e:	0000                	unimp
    1460:	0000                	unimp
    1462:	0000                	unimp
    1464:	009c                	addi	a5,sp,64
    1466:	0000                	unimp
    1468:	0000008b          	0x8b
    146c:	009c                	addi	a5,sp,64
    146e:	0000                	unimp
    1470:	009c                	addi	a5,sp,64
    1472:	0000                	unimp
    1474:	0000                	unimp
    1476:	0000                	unimp
    1478:	009c                	addi	a5,sp,64
    147a:	0000                	unimp
    147c:	0000008b          	0x8b
    1480:	009c                	addi	a5,sp,64
    1482:	0000                	unimp
    1484:	00d0                	addi	a2,sp,68
    1486:	0000                	unimp
    1488:	00b9                	addi	ra,ra,14
    148a:	0000                	unimp
    148c:	00d0                	addi	a2,sp,68
    148e:	0000                	unimp
    1490:	00b9                	addi	ra,ra,14
    1492:	0000                	unimp
    1494:	009c                	addi	a5,sp,64
    1496:	0000                	unimp
    1498:	00b9                	addi	ra,ra,14
    149a:	0000                	unimp
    149c:	009c                	addi	a5,sp,64
    149e:	0000                	unimp
    14a0:	0000                	unimp
    14a2:	0000                	unimp
    14a4:	009c                	addi	a5,sp,64
    14a6:	0000                	unimp
    14a8:	0000008b          	0x8b
    14ac:	009c                	addi	a5,sp,64
    14ae:	0000                	unimp
    14b0:	009c                	addi	a5,sp,64
    14b2:	0000                	unimp
    14b4:	0000                	unimp
    14b6:	0000                	unimp
    14b8:	009c                	addi	a5,sp,64
    14ba:	0000                	unimp
    14bc:	0000008b          	0x8b
    14c0:	009c                	addi	a5,sp,64
    14c2:	0000                	unimp
    14c4:	009c                	addi	a5,sp,64
    14c6:	0000                	unimp
    14c8:	0000                	unimp
    14ca:	0000                	unimp
    14cc:	009c                	addi	a5,sp,64
    14ce:	0000                	unimp
    14d0:	0000008b          	0x8b
    14d4:	009c                	addi	a5,sp,64
    14d6:	0000                	unimp
    14d8:	009c                	addi	a5,sp,64
    14da:	0000                	unimp
    14dc:	009c                	addi	a5,sp,64
    14de:	0000                	unimp
    14e0:	00b9                	addi	ra,ra,14
    14e2:	0000                	unimp
    14e4:	00d0                	addi	a2,sp,68
    14e6:	0000                	unimp
    14e8:	00b9                	addi	ra,ra,14
    14ea:	0000                	unimp
    14ec:	00d0                	addi	a2,sp,68
    14ee:	0000                	unimp
    14f0:	009c                	addi	a5,sp,64
    14f2:	0000                	unimp
    14f4:	0000                	unimp
    14f6:	0000                	unimp
    14f8:	009c                	addi	a5,sp,64
    14fa:	0000                	unimp
    14fc:	0000008b          	0x8b
    1500:	009c                	addi	a5,sp,64
    1502:	0000                	unimp
    1504:	009c                	addi	a5,sp,64
    1506:	0000                	unimp
    1508:	0000                	unimp
    150a:	0000                	unimp
    150c:	009c                	addi	a5,sp,64
    150e:	0000                	unimp
    1510:	0000008b          	0x8b
    1514:	009c                	addi	a5,sp,64
    1516:	0000                	unimp
    1518:	009c                	addi	a5,sp,64
    151a:	0000                	unimp
    151c:	0000                	unimp
    151e:	0000                	unimp
    1520:	009c                	addi	a5,sp,64
    1522:	0000                	unimp
    1524:	0000008b          	0x8b
    1528:	009c                	addi	a5,sp,64
    152a:	0000                	unimp
    152c:	00d0                	addi	a2,sp,68
    152e:	0000                	unimp
    1530:	00b9                	addi	ra,ra,14
    1532:	0000                	unimp
    1534:	00d0                	addi	a2,sp,68
    1536:	0000                	unimp
    1538:	00b9                	addi	ra,ra,14
    153a:	0000                	unimp
    153c:	009c                	addi	a5,sp,64
    153e:	0000                	unimp
    1540:	00b9                	addi	ra,ra,14
    1542:	0000                	unimp
    1544:	00000137          	lui	sp,0x0
    1548:	015d                	addi	sp,sp,23
    154a:	0000                	unimp
    154c:	0172                	slli	sp,sp,0x1c
    154e:	0000                	unimp
    1550:	019f 0000 01d2      	0x1d20000019f
    1556:	0000                	unimp
    1558:	026e                	slli	tp,tp,0x1b
    155a:	0000                	unimp
    155c:	022a                	slli	tp,tp,0xa
    155e:	0000                	unimp
    1560:	01d2                	slli	gp,gp,0x14
    1562:	0000                	unimp
    1564:	00000137          	lui	sp,0x0
    1568:	01d2                	slli	gp,gp,0x14
    156a:	0000                	unimp
    156c:	019f 0000 0172      	0x1720000019f
    1572:	0000                	unimp
    1574:	015d                	addi	sp,sp,23
    1576:	0000                	unimp
    1578:	00000137          	lui	sp,0x0
    157c:	015d                	addi	sp,sp,23
    157e:	0000                	unimp
    1580:	0172                	slli	sp,sp,0x1c
    1582:	0000                	unimp
    1584:	019f 0000 01d2      	0x1d20000019f
    158a:	0000                	unimp
    158c:	019f 0000 0172      	0x1720000019f
    1592:	0000                	unimp
    1594:	015d                	addi	sp,sp,23
    1596:	0000                	unimp
    1598:	00000137          	lui	sp,0x0
    159c:	015d                	addi	sp,sp,23
    159e:	0000                	unimp
    15a0:	0172                	slli	sp,sp,0x1c
    15a2:	0000                	unimp
    15a4:	015d                	addi	sp,sp,23
    15a6:	0000                	unimp
    15a8:	00000137          	lui	sp,0x0
    15ac:	0126                	slli	sp,sp,0x9
    15ae:	0000                	unimp
    15b0:	015d                	addi	sp,sp,23
    15b2:	0000                	unimp
    15b4:	00000137          	lui	sp,0x0
    15b8:	015d                	addi	sp,sp,23
    15ba:	0000                	unimp
    15bc:	0172                	slli	sp,sp,0x1c
    15be:	0000                	unimp
    15c0:	019f 0000 01d2      	0x1d20000019f
    15c6:	0000                	unimp
    15c8:	026e                	slli	tp,tp,0x1b
    15ca:	0000                	unimp
    15cc:	022a                	slli	tp,tp,0xa
    15ce:	0000                	unimp
    15d0:	01d2                	slli	gp,gp,0x14
    15d2:	0000                	unimp
    15d4:	00000137          	lui	sp,0x0
    15d8:	01d2                	slli	gp,gp,0x14
    15da:	0000                	unimp
    15dc:	019f 0000 0172      	0x1720000019f
    15e2:	0000                	unimp
    15e4:	015d                	addi	sp,sp,23
    15e6:	0000                	unimp
    15e8:	00000137          	lui	sp,0x0
    15ec:	015d                	addi	sp,sp,23
    15ee:	0000                	unimp
    15f0:	0172                	slli	sp,sp,0x1c
    15f2:	0000                	unimp
    15f4:	019f 0000 01d2      	0x1d20000019f
    15fa:	0000                	unimp
    15fc:	019f 0000 0172      	0x1720000019f
    1602:	0000                	unimp
    1604:	015d                	addi	sp,sp,23
    1606:	0000                	unimp
    1608:	0172                	slli	sp,sp,0x1c
    160a:	0000                	unimp
    160c:	019f 0000 01d2      	0x1d20000019f
    1612:	0000                	unimp
    1614:	00000137          	lui	sp,0x0
    1618:	015d                	addi	sp,sp,23
    161a:	0000                	unimp
    161c:	0172                	slli	sp,sp,0x1c
    161e:	0000                	unimp
    1620:	019f 0000 01d2      	0x1d20000019f
    1626:	0000                	unimp
    1628:	026e                	slli	tp,tp,0x1b
    162a:	0000                	unimp
    162c:	022a                	slli	tp,tp,0xa
    162e:	0000                	unimp
    1630:	01d2                	slli	gp,gp,0x14
    1632:	0000                	unimp
    1634:	00000137          	lui	sp,0x0
    1638:	01d2                	slli	gp,gp,0x14
    163a:	0000                	unimp
    163c:	019f 0000 0172      	0x1720000019f
    1642:	0000                	unimp
    1644:	015d                	addi	sp,sp,23
    1646:	0000                	unimp
    1648:	00000137          	lui	sp,0x0
    164c:	015d                	addi	sp,sp,23
    164e:	0000                	unimp
    1650:	0172                	slli	sp,sp,0x1c
    1652:	0000                	unimp
    1654:	019f 0000 01d2      	0x1d20000019f
    165a:	0000                	unimp
    165c:	019f 0000 0172      	0x1720000019f
    1662:	0000                	unimp
    1664:	015d                	addi	sp,sp,23
    1666:	0000                	unimp
    1668:	00000137          	lui	sp,0x0
    166c:	015d                	addi	sp,sp,23
    166e:	0000                	unimp
    1670:	0172                	slli	sp,sp,0x1c
    1672:	0000                	unimp
    1674:	015d                	addi	sp,sp,23
    1676:	0000                	unimp
    1678:	00000137          	lui	sp,0x0
    167c:	0126                	slli	sp,sp,0x9
    167e:	0000                	unimp
    1680:	015d                	addi	sp,sp,23
    1682:	0000                	unimp
    1684:	00000137          	lui	sp,0x0
    1688:	015d                	addi	sp,sp,23
    168a:	0000                	unimp
    168c:	0172                	slli	sp,sp,0x1c
    168e:	0000                	unimp
    1690:	019f 0000 01d2      	0x1d20000019f
    1696:	0000                	unimp
    1698:	026e                	slli	tp,tp,0x1b
    169a:	0000                	unimp
    169c:	022a                	slli	tp,tp,0xa
    169e:	0000                	unimp
    16a0:	01d2                	slli	gp,gp,0x14
    16a2:	0000                	unimp
    16a4:	00000137          	lui	sp,0x0
    16a8:	01d2                	slli	gp,gp,0x14
    16aa:	0000                	unimp
    16ac:	019f 0000 0172      	0x1720000019f
    16b2:	0000                	unimp
    16b4:	015d                	addi	sp,sp,23
    16b6:	0000                	unimp
    16b8:	00000137          	lui	sp,0x0
    16bc:	015d                	addi	sp,sp,23
    16be:	0000                	unimp
    16c0:	0172                	slli	sp,sp,0x1c
    16c2:	0000                	unimp
    16c4:	019f 0000 01d2      	0x1d20000019f
    16ca:	0000                	unimp
    16cc:	019f 0000 0172      	0x1720000019f
    16d2:	0000                	unimp
    16d4:	015d                	addi	sp,sp,23
    16d6:	0000                	unimp
    16d8:	0172                	slli	sp,sp,0x1c
    16da:	0000                	unimp
    16dc:	019f 0000 01d2      	0x1d20000019f
    16e2:	0000                	unimp
    16e4:	022a                	slli	tp,tp,0xa
    16e6:	0000                	unimp
    16e8:	026e                	slli	tp,tp,0x1b
    16ea:	0000                	unimp
    16ec:	01d2                	slli	gp,gp,0x14
    16ee:	0000                	unimp
    16f0:	019f 0000 01d2      	0x1d20000019f
    16f6:	0000                	unimp
    16f8:	019f 0000 01d2      	0x1d20000019f
    16fe:	0000                	unimp
    1700:	022a                	slli	tp,tp,0xa
    1702:	0000                	unimp
    1704:	026e                	slli	tp,tp,0x1b
    1706:	0000                	unimp
    1708:	01d2                	slli	gp,gp,0x14
    170a:	0000                	unimp
    170c:	019f 0000 01d2      	0x1d20000019f
    1712:	0000                	unimp
    1714:	019f 0000 01d2      	0x1d20000019f
    171a:	0000                	unimp
    171c:	019f 0000 0172      	0x1720000019f
    1722:	0000                	unimp
    1724:	015d                	addi	sp,sp,23
    1726:	0000                	unimp
    1728:	0115                	addi	sp,sp,5
    172a:	0000                	unimp
    172c:	00000137          	lui	sp,0x0
    1730:	0115                	addi	sp,sp,5
    1732:	0000                	unimp
    1734:	00000137          	lui	sp,0x0
    1738:	015d                	addi	sp,sp,23
    173a:	0000                	unimp
    173c:	0172                	slli	sp,sp,0x1c
    173e:	0000                	unimp
    1740:	019f 0000 01d2      	0x1d20000019f
    1746:	0000                	unimp
    1748:	00000137          	lui	sp,0x0
    174c:	01d2                	slli	gp,gp,0x14
    174e:	0000                	unimp
    1750:	022a                	slli	tp,tp,0xa
    1752:	0000                	unimp
    1754:	022a                	slli	tp,tp,0xa
    1756:	0000                	unimp
    1758:	026e                	slli	tp,tp,0x1b
    175a:	0000                	unimp
    175c:	01d2                	slli	gp,gp,0x14
    175e:	0000                	unimp
    1760:	019f 0000 01d2      	0x1d20000019f
    1766:	0000                	unimp
    1768:	019f 0000 01d2      	0x1d20000019f
    176e:	0000                	unimp
    1770:	022a                	slli	tp,tp,0xa
    1772:	0000                	unimp
    1774:	026e                	slli	tp,tp,0x1b
    1776:	0000                	unimp
    1778:	01d2                	slli	gp,gp,0x14
    177a:	0000                	unimp
    177c:	019f 0000 01d2      	0x1d20000019f
    1782:	0000                	unimp
    1784:	019f 0000 01d2      	0x1d20000019f
    178a:	0000                	unimp
    178c:	019f 0000 0172      	0x1720000019f
    1792:	0000                	unimp
    1794:	015d                	addi	sp,sp,23
    1796:	0000                	unimp
    1798:	0115                	addi	sp,sp,5
    179a:	0000                	unimp
    179c:	00000137          	lui	sp,0x0
    17a0:	0115                	addi	sp,sp,5
    17a2:	0000                	unimp
    17a4:	00000137          	lui	sp,0x0
    17a8:	015d                	addi	sp,sp,23
    17aa:	0000                	unimp
    17ac:	0172                	slli	sp,sp,0x1c
    17ae:	0000                	unimp
    17b0:	019f 0000 01d2      	0x1d20000019f
    17b6:	0000                	unimp
    17b8:	00000137          	lui	sp,0x0
    17bc:	01d2                	slli	gp,gp,0x14
    17be:	0000                	unimp
    17c0:	022a                	slli	tp,tp,0xa
    17c2:	0000                	unimp
    17c4:	022a                	slli	tp,tp,0xa
    17c6:	0000                	unimp
    17c8:	026e                	slli	tp,tp,0x1b
    17ca:	0000                	unimp
    17cc:	01d2                	slli	gp,gp,0x14
    17ce:	0000                	unimp
    17d0:	019f 0000 01d2      	0x1d20000019f
    17d6:	0000                	unimp
    17d8:	019f 0000 01d2      	0x1d20000019f
    17de:	0000                	unimp
    17e0:	022a                	slli	tp,tp,0xa
    17e2:	0000                	unimp
    17e4:	026e                	slli	tp,tp,0x1b
    17e6:	0000                	unimp
    17e8:	01d2                	slli	gp,gp,0x14
    17ea:	0000                	unimp
    17ec:	019f 0000 01d2      	0x1d20000019f
    17f2:	0000                	unimp
    17f4:	019f 0000 01d2      	0x1d20000019f
    17fa:	0000                	unimp
    17fc:	019f 0000 0172      	0x1720000019f
    1802:	0000                	unimp
    1804:	015d                	addi	sp,sp,23
    1806:	0000                	unimp
    1808:	0115                	addi	sp,sp,5
    180a:	0000                	unimp
    180c:	00000137          	lui	sp,0x0
    1810:	0115                	addi	sp,sp,5
    1812:	0000                	unimp
    1814:	00000137          	lui	sp,0x0
    1818:	015d                	addi	sp,sp,23
    181a:	0000                	unimp
    181c:	0172                	slli	sp,sp,0x1c
    181e:	0000                	unimp
    1820:	019f 0000 01d2      	0x1d20000019f
    1826:	0000                	unimp
    1828:	00000137          	lui	sp,0x0
    182c:	01d2                	slli	gp,gp,0x14
    182e:	0000                	unimp
    1830:	022a                	slli	tp,tp,0xa
    1832:	0000                	unimp
    1834:	022a                	slli	tp,tp,0xa
    1836:	0000                	unimp
    1838:	026e                	slli	tp,tp,0x1b
    183a:	0000                	unimp
    183c:	01d2                	slli	gp,gp,0x14
    183e:	0000                	unimp
    1840:	019f 0000 01d2      	0x1d20000019f
    1846:	0000                	unimp
    1848:	019f 0000 01d2      	0x1d20000019f
    184e:	0000                	unimp
    1850:	022a                	slli	tp,tp,0xa
    1852:	0000                	unimp
    1854:	026e                	slli	tp,tp,0x1b
    1856:	0000                	unimp
    1858:	01d2                	slli	gp,gp,0x14
    185a:	0000                	unimp
    185c:	019f 0000 01d2      	0x1d20000019f
    1862:	0000                	unimp
    1864:	026e                	slli	tp,tp,0x1b
    1866:	0000                	unimp
    1868:	02ba                	slli	t0,t0,0xe
    186a:	0000                	unimp
    186c:	02e4                	addi	s1,sp,332
    186e:	0000                	unimp
    1870:	02ba                	slli	t0,t0,0xe
    1872:	0000                	unimp
    1874:	026e                	slli	tp,tp,0x1b
    1876:	0000                	unimp
    1878:	022a                	slli	tp,tp,0xa
    187a:	0000                	unimp
    187c:	01d2                	slli	gp,gp,0x14
    187e:	0000                	unimp
    1880:	019f 0000 01d2      	0x1d20000019f
    1886:	0000                	unimp
    1888:	019f 0000 0172      	0x1720000019f
    188e:	0000                	unimp
    1890:	015d                	addi	sp,sp,23
    1892:	0000                	unimp
    1894:	0115                	addi	sp,sp,5
    1896:	0000                	unimp
    1898:	00000137          	lui	sp,0x0
    189c:	01d2                	slli	gp,gp,0x14
    189e:	0000                	unimp
    18a0:	022a                	slli	tp,tp,0xa
    18a2:	0000                	unimp
    18a4:	022a                	slli	tp,tp,0xa
    18a6:	0000                	unimp
    18a8:	026e                	slli	tp,tp,0x1b
    18aa:	0000                	unimp
    18ac:	01d2                	slli	gp,gp,0x14
    18ae:	0000                	unimp
    18b0:	019f 0000 01d2      	0x1d20000019f
    18b6:	0000                	unimp
    18b8:	019f 0000 01d2      	0x1d20000019f
    18be:	0000                	unimp
    18c0:	022a                	slli	tp,tp,0xa
    18c2:	0000                	unimp
    18c4:	026e                	slli	tp,tp,0x1b
    18c6:	0000                	unimp
    18c8:	01d2                	slli	gp,gp,0x14
    18ca:	0000                	unimp
    18cc:	019f 0000 01d2      	0x1d20000019f
    18d2:	0000                	unimp
    18d4:	019f 0000 01d2      	0x1d20000019f
    18da:	0000                	unimp
    18dc:	019f 0000 0172      	0x1720000019f
    18e2:	0000                	unimp
    18e4:	015d                	addi	sp,sp,23
    18e6:	0000                	unimp
    18e8:	0115                	addi	sp,sp,5
    18ea:	0000                	unimp
    18ec:	00000137          	lui	sp,0x0
    18f0:	0115                	addi	sp,sp,5
    18f2:	0000                	unimp
    18f4:	00000137          	lui	sp,0x0
    18f8:	015d                	addi	sp,sp,23
    18fa:	0000                	unimp
    18fc:	0172                	slli	sp,sp,0x1c
    18fe:	0000                	unimp
    1900:	019f 0000 01d2      	0x1d20000019f
    1906:	0000                	unimp
    1908:	00000137          	lui	sp,0x0
    190c:	01d2                	slli	gp,gp,0x14
    190e:	0000                	unimp
    1910:	022a                	slli	tp,tp,0xa
    1912:	0000                	unimp
    1914:	022a                	slli	tp,tp,0xa
    1916:	0000                	unimp
    1918:	026e                	slli	tp,tp,0x1b
    191a:	0000                	unimp
    191c:	01d2                	slli	gp,gp,0x14
    191e:	0000                	unimp
    1920:	019f 0000 01d2      	0x1d20000019f
    1926:	0000                	unimp
    1928:	019f 0000 01d2      	0x1d20000019f
    192e:	0000                	unimp
    1930:	022a                	slli	tp,tp,0xa
    1932:	0000                	unimp
    1934:	026e                	slli	tp,tp,0x1b
    1936:	0000                	unimp
    1938:	01d2                	slli	gp,gp,0x14
    193a:	0000                	unimp
    193c:	019f 0000 01d2      	0x1d20000019f
    1942:	0000                	unimp
    1944:	019f 0000 01d2      	0x1d20000019f
    194a:	0000                	unimp
    194c:	019f 0000 0172      	0x1720000019f
    1952:	0000                	unimp
    1954:	015d                	addi	sp,sp,23
    1956:	0000                	unimp
    1958:	0115                	addi	sp,sp,5
    195a:	0000                	unimp
    195c:	00000137          	lui	sp,0x0
    1960:	0115                	addi	sp,sp,5
    1962:	0000                	unimp
    1964:	00000137          	lui	sp,0x0
    1968:	015d                	addi	sp,sp,23
    196a:	0000                	unimp
    196c:	0172                	slli	sp,sp,0x1c
    196e:	0000                	unimp
    1970:	019f 0000 01d2      	0x1d20000019f
    1976:	0000                	unimp
    1978:	00000137          	lui	sp,0x0
    197c:	01d2                	slli	gp,gp,0x14
    197e:	0000                	unimp
    1980:	022a                	slli	tp,tp,0xa
    1982:	0000                	unimp
    1984:	022a                	slli	tp,tp,0xa
    1986:	0000                	unimp
    1988:	026e                	slli	tp,tp,0x1b
    198a:	0000                	unimp
    198c:	01d2                	slli	gp,gp,0x14
    198e:	0000                	unimp
    1990:	019f 0000 01d2      	0x1d20000019f
    1996:	0000                	unimp
    1998:	019f 0000 01d2      	0x1d20000019f
    199e:	0000                	unimp
    19a0:	022a                	slli	tp,tp,0xa
    19a2:	0000                	unimp
    19a4:	026e                	slli	tp,tp,0x1b
    19a6:	0000                	unimp
    19a8:	01d2                	slli	gp,gp,0x14
    19aa:	0000                	unimp
    19ac:	019f 0000 01d2      	0x1d20000019f
    19b2:	0000                	unimp
    19b4:	019f 0000 01d2      	0x1d20000019f
    19ba:	0000                	unimp
    19bc:	019f 0000 0172      	0x1720000019f
    19c2:	0000                	unimp
    19c4:	015d                	addi	sp,sp,23
    19c6:	0000                	unimp
    19c8:	0115                	addi	sp,sp,5
    19ca:	0000                	unimp
    19cc:	00000137          	lui	sp,0x0
    19d0:	0115                	addi	sp,sp,5
    19d2:	0000                	unimp
    19d4:	00000137          	lui	sp,0x0
    19d8:	015d                	addi	sp,sp,23
    19da:	0000                	unimp
    19dc:	0172                	slli	sp,sp,0x1c
    19de:	0000                	unimp
    19e0:	019f 0000 01d2      	0x1d20000019f
    19e6:	0000                	unimp
    19e8:	00000137          	lui	sp,0x0
    19ec:	01d2                	slli	gp,gp,0x14
    19ee:	0000                	unimp
    19f0:	022a                	slli	tp,tp,0xa
    19f2:	0000                	unimp
    19f4:	022a                	slli	tp,tp,0xa
    19f6:	0000                	unimp
    19f8:	026e                	slli	tp,tp,0x1b
    19fa:	0000                	unimp
    19fc:	01d2                	slli	gp,gp,0x14
    19fe:	0000                	unimp
    1a00:	019f 0000 01d2      	0x1d20000019f
    1a06:	0000                	unimp
    1a08:	019f 0000 01d2      	0x1d20000019f
    1a0e:	0000                	unimp
    1a10:	022a                	slli	tp,tp,0xa
    1a12:	0000                	unimp
    1a14:	026e                	slli	tp,tp,0x1b
    1a16:	0000                	unimp
    1a18:	01d2                	slli	gp,gp,0x14
    1a1a:	0000                	unimp
    1a1c:	019f 0000 01d2      	0x1d20000019f
    1a22:	0000                	unimp
    1a24:	026e                	slli	tp,tp,0x1b
    1a26:	0000                	unimp
    1a28:	02ba                	slli	t0,t0,0xe
    1a2a:	0000                	unimp
    1a2c:	02e4                	addi	s1,sp,332
    1a2e:	0000                	unimp
    1a30:	02ba                	slli	t0,t0,0xe
    1a32:	0000                	unimp
    1a34:	026e                	slli	tp,tp,0x1b
    1a36:	0000                	unimp
    1a38:	022a                	slli	tp,tp,0xa
    1a3a:	0000                	unimp
    1a3c:	01d2                	slli	gp,gp,0x14
    1a3e:	0000                	unimp
    1a40:	019f 0000 01d2      	0x1d20000019f
    1a46:	0000                	unimp
    1a48:	019f 0000 0172      	0x1720000019f
    1a4e:	0000                	unimp
    1a50:	015d                	addi	sp,sp,23
    1a52:	0000                	unimp
    1a54:	0115                	addi	sp,sp,5
    1a56:	0000                	unimp
    1a58:	00000137          	lui	sp,0x0
    1a5c:	0000                	unimp
    1a5e:	0000                	unimp
    1a60:	009c                	addi	a5,sp,64
    1a62:	0000                	unimp
    1a64:	0000                	unimp
    1a66:	0000                	unimp
    1a68:	009c                	addi	a5,sp,64
    1a6a:	0000                	unimp
    1a6c:	0000008b          	0x8b
    1a70:	009c                	addi	a5,sp,64
    1a72:	0000                	unimp
    1a74:	009c                	addi	a5,sp,64
    1a76:	0000                	unimp
    1a78:	0000                	unimp
    1a7a:	0000                	unimp
    1a7c:	009c                	addi	a5,sp,64
    1a7e:	0000                	unimp
    1a80:	0000008b          	0x8b
    1a84:	009c                	addi	a5,sp,64
    1a86:	0000                	unimp
    1a88:	009c                	addi	a5,sp,64
    1a8a:	0000                	unimp
    1a8c:	0000                	unimp
    1a8e:	0000                	unimp
    1a90:	009c                	addi	a5,sp,64
    1a92:	0000                	unimp
    1a94:	0000008b          	0x8b
    1a98:	009c                	addi	a5,sp,64
    1a9a:	0000                	unimp
    1a9c:	009c                	addi	a5,sp,64
    1a9e:	0000                	unimp
    1aa0:	009c                	addi	a5,sp,64
    1aa2:	0000                	unimp
    1aa4:	00b9                	addi	ra,ra,14
    1aa6:	0000                	unimp
    1aa8:	00d0                	addi	a2,sp,68
    1aaa:	0000                	unimp
    1aac:	00b9                	addi	ra,ra,14
    1aae:	0000                	unimp
    1ab0:	00d0                	addi	a2,sp,68
    1ab2:	0000                	unimp
    1ab4:	009c                	addi	a5,sp,64
    1ab6:	0000                	unimp
    1ab8:	0000                	unimp
    1aba:	0000                	unimp
    1abc:	009c                	addi	a5,sp,64
    1abe:	0000                	unimp
    1ac0:	0000008b          	0x8b
    1ac4:	009c                	addi	a5,sp,64
    1ac6:	0000                	unimp
    1ac8:	009c                	addi	a5,sp,64
    1aca:	0000                	unimp
    1acc:	0000                	unimp
    1ace:	0000                	unimp
    1ad0:	009c                	addi	a5,sp,64
    1ad2:	0000                	unimp
    1ad4:	0000008b          	0x8b
    1ad8:	009c                	addi	a5,sp,64
    1ada:	0000                	unimp
    1adc:	009c                	addi	a5,sp,64
    1ade:	0000                	unimp
    1ae0:	0000                	unimp
    1ae2:	0000                	unimp
    1ae4:	009c                	addi	a5,sp,64
    1ae6:	0000                	unimp
    1ae8:	0000008b          	0x8b
    1aec:	009c                	addi	a5,sp,64
    1aee:	0000                	unimp
    1af0:	00d0                	addi	a2,sp,68
    1af2:	0000                	unimp
    1af4:	00b9                	addi	ra,ra,14
    1af6:	0000                	unimp
    1af8:	00d0                	addi	a2,sp,68
    1afa:	0000                	unimp
    1afc:	00b9                	addi	ra,ra,14
    1afe:	0000                	unimp
    1b00:	009c                	addi	a5,sp,64
    1b02:	0000                	unimp
    1b04:	00b9                	addi	ra,ra,14
    1b06:	0000                	unimp
    1b08:	009c                	addi	a5,sp,64
    1b0a:	0000                	unimp
    1b0c:	0000                	unimp
    1b0e:	0000                	unimp
    1b10:	009c                	addi	a5,sp,64
    1b12:	0000                	unimp
    1b14:	0000008b          	0x8b
    1b18:	009c                	addi	a5,sp,64
    1b1a:	0000                	unimp
    1b1c:	009c                	addi	a5,sp,64
    1b1e:	0000                	unimp
    1b20:	0000                	unimp
    1b22:	0000                	unimp
    1b24:	009c                	addi	a5,sp,64
    1b26:	0000                	unimp
    1b28:	0000008b          	0x8b
    1b2c:	009c                	addi	a5,sp,64
    1b2e:	0000                	unimp
    1b30:	009c                	addi	a5,sp,64
    1b32:	0000                	unimp
    1b34:	0000                	unimp
    1b36:	0000                	unimp
    1b38:	009c                	addi	a5,sp,64
    1b3a:	0000                	unimp
    1b3c:	0000008b          	0x8b
    1b40:	009c                	addi	a5,sp,64
    1b42:	0000                	unimp
    1b44:	009c                	addi	a5,sp,64
    1b46:	0000                	unimp
    1b48:	009c                	addi	a5,sp,64
    1b4a:	0000                	unimp
    1b4c:	00b9                	addi	ra,ra,14
    1b4e:	0000                	unimp
    1b50:	00d0                	addi	a2,sp,68
    1b52:	0000                	unimp
    1b54:	00b9                	addi	ra,ra,14
    1b56:	0000                	unimp
    1b58:	00d0                	addi	a2,sp,68
    1b5a:	0000                	unimp
    1b5c:	009c                	addi	a5,sp,64
    1b5e:	0000                	unimp
    1b60:	0000                	unimp
    1b62:	0000                	unimp
    1b64:	009c                	addi	a5,sp,64
    1b66:	0000                	unimp
    1b68:	0000008b          	0x8b
    1b6c:	009c                	addi	a5,sp,64
    1b6e:	0000                	unimp
    1b70:	009c                	addi	a5,sp,64
    1b72:	0000                	unimp
    1b74:	0000                	unimp
    1b76:	0000                	unimp
    1b78:	009c                	addi	a5,sp,64
    1b7a:	0000                	unimp
    1b7c:	0000008b          	0x8b
    1b80:	009c                	addi	a5,sp,64
    1b82:	0000                	unimp
    1b84:	009c                	addi	a5,sp,64
    1b86:	0000                	unimp
    1b88:	0000                	unimp
    1b8a:	0000                	unimp
    1b8c:	009c                	addi	a5,sp,64
    1b8e:	0000                	unimp
    1b90:	0000008b          	0x8b
    1b94:	009c                	addi	a5,sp,64
    1b96:	0000                	unimp
    1b98:	00d0                	addi	a2,sp,68
    1b9a:	0000                	unimp
    1b9c:	00b9                	addi	ra,ra,14
    1b9e:	0000                	unimp
    1ba0:	00d0                	addi	a2,sp,68
    1ba2:	0000                	unimp
    1ba4:	00b9                	addi	ra,ra,14
    1ba6:	0000                	unimp
    1ba8:	009c                	addi	a5,sp,64
    1baa:	0000                	unimp
    1bac:	00b9                	addi	ra,ra,14
    1bae:	0000                	unimp
    1bb0:	00000137          	lui	sp,0x0
    1bb4:	015d                	addi	sp,sp,23
    1bb6:	0000                	unimp
    1bb8:	0172                	slli	sp,sp,0x1c
    1bba:	0000                	unimp
    1bbc:	019f 0000 01d2      	0x1d20000019f
    1bc2:	0000                	unimp
    1bc4:	026e                	slli	tp,tp,0x1b
    1bc6:	0000                	unimp
    1bc8:	022a                	slli	tp,tp,0xa
    1bca:	0000                	unimp
    1bcc:	01d2                	slli	gp,gp,0x14
    1bce:	0000                	unimp
    1bd0:	00000137          	lui	sp,0x0
    1bd4:	01d2                	slli	gp,gp,0x14
    1bd6:	0000                	unimp
    1bd8:	019f 0000 0172      	0x1720000019f
    1bde:	0000                	unimp
    1be0:	015d                	addi	sp,sp,23
    1be2:	0000                	unimp
    1be4:	00000137          	lui	sp,0x0
    1be8:	015d                	addi	sp,sp,23
    1bea:	0000                	unimp
    1bec:	0172                	slli	sp,sp,0x1c
    1bee:	0000                	unimp
    1bf0:	019f 0000 01d2      	0x1d20000019f
    1bf6:	0000                	unimp
    1bf8:	019f 0000 0172      	0x1720000019f
    1bfe:	0000                	unimp
    1c00:	015d                	addi	sp,sp,23
    1c02:	0000                	unimp
    1c04:	00000137          	lui	sp,0x0
    1c08:	015d                	addi	sp,sp,23
    1c0a:	0000                	unimp
    1c0c:	0172                	slli	sp,sp,0x1c
    1c0e:	0000                	unimp
    1c10:	015d                	addi	sp,sp,23
    1c12:	0000                	unimp
    1c14:	00000137          	lui	sp,0x0
    1c18:	0126                	slli	sp,sp,0x9
    1c1a:	0000                	unimp
    1c1c:	015d                	addi	sp,sp,23
    1c1e:	0000                	unimp
    1c20:	00000137          	lui	sp,0x0
    1c24:	015d                	addi	sp,sp,23
    1c26:	0000                	unimp
    1c28:	0172                	slli	sp,sp,0x1c
    1c2a:	0000                	unimp
    1c2c:	019f 0000 01d2      	0x1d20000019f
    1c32:	0000                	unimp
    1c34:	026e                	slli	tp,tp,0x1b
    1c36:	0000                	unimp
    1c38:	022a                	slli	tp,tp,0xa
    1c3a:	0000                	unimp
    1c3c:	01d2                	slli	gp,gp,0x14
    1c3e:	0000                	unimp
    1c40:	00000137          	lui	sp,0x0
    1c44:	01d2                	slli	gp,gp,0x14
    1c46:	0000                	unimp
    1c48:	019f 0000 0172      	0x1720000019f
    1c4e:	0000                	unimp
    1c50:	015d                	addi	sp,sp,23
    1c52:	0000                	unimp
    1c54:	00000137          	lui	sp,0x0
    1c58:	015d                	addi	sp,sp,23
    1c5a:	0000                	unimp
    1c5c:	0172                	slli	sp,sp,0x1c
    1c5e:	0000                	unimp
    1c60:	019f 0000 01d2      	0x1d20000019f
    1c66:	0000                	unimp
    1c68:	019f 0000 0172      	0x1720000019f
    1c6e:	0000                	unimp
    1c70:	015d                	addi	sp,sp,23
    1c72:	0000                	unimp
    1c74:	0172                	slli	sp,sp,0x1c
    1c76:	0000                	unimp
    1c78:	019f 0000 01d2      	0x1d20000019f
    1c7e:	0000                	unimp
    1c80:	00000137          	lui	sp,0x0
    1c84:	015d                	addi	sp,sp,23
    1c86:	0000                	unimp
    1c88:	0172                	slli	sp,sp,0x1c
    1c8a:	0000                	unimp
    1c8c:	019f 0000 01d2      	0x1d20000019f
    1c92:	0000                	unimp
    1c94:	026e                	slli	tp,tp,0x1b
    1c96:	0000                	unimp
    1c98:	022a                	slli	tp,tp,0xa
    1c9a:	0000                	unimp
    1c9c:	01d2                	slli	gp,gp,0x14
    1c9e:	0000                	unimp
    1ca0:	00000137          	lui	sp,0x0
    1ca4:	01d2                	slli	gp,gp,0x14
    1ca6:	0000                	unimp
    1ca8:	019f 0000 0172      	0x1720000019f
    1cae:	0000                	unimp
    1cb0:	015d                	addi	sp,sp,23
    1cb2:	0000                	unimp
    1cb4:	00000137          	lui	sp,0x0
    1cb8:	015d                	addi	sp,sp,23
    1cba:	0000                	unimp
    1cbc:	0172                	slli	sp,sp,0x1c
    1cbe:	0000                	unimp
    1cc0:	019f 0000 01d2      	0x1d20000019f
    1cc6:	0000                	unimp
    1cc8:	019f 0000 0172      	0x1720000019f
    1cce:	0000                	unimp
    1cd0:	015d                	addi	sp,sp,23
    1cd2:	0000                	unimp
    1cd4:	00000137          	lui	sp,0x0
    1cd8:	015d                	addi	sp,sp,23
    1cda:	0000                	unimp
    1cdc:	0172                	slli	sp,sp,0x1c
    1cde:	0000                	unimp
    1ce0:	015d                	addi	sp,sp,23
    1ce2:	0000                	unimp
    1ce4:	00000137          	lui	sp,0x0
    1ce8:	0126                	slli	sp,sp,0x9
    1cea:	0000                	unimp
    1cec:	015d                	addi	sp,sp,23
    1cee:	0000                	unimp
    1cf0:	00000137          	lui	sp,0x0
    1cf4:	015d                	addi	sp,sp,23
    1cf6:	0000                	unimp
    1cf8:	0172                	slli	sp,sp,0x1c
    1cfa:	0000                	unimp
    1cfc:	019f 0000 01d2      	0x1d20000019f
    1d02:	0000                	unimp
    1d04:	026e                	slli	tp,tp,0x1b
    1d06:	0000                	unimp
    1d08:	022a                	slli	tp,tp,0xa
    1d0a:	0000                	unimp
    1d0c:	01d2                	slli	gp,gp,0x14
    1d0e:	0000                	unimp
    1d10:	00000137          	lui	sp,0x0
    1d14:	01d2                	slli	gp,gp,0x14
    1d16:	0000                	unimp
    1d18:	019f 0000 0172      	0x1720000019f
    1d1e:	0000                	unimp
    1d20:	015d                	addi	sp,sp,23
    1d22:	0000                	unimp
    1d24:	00000137          	lui	sp,0x0
    1d28:	015d                	addi	sp,sp,23
    1d2a:	0000                	unimp
    1d2c:	0172                	slli	sp,sp,0x1c
    1d2e:	0000                	unimp
    1d30:	019f 0000 01d2      	0x1d20000019f
    1d36:	0000                	unimp
    1d38:	019f 0000 0172      	0x1720000019f
    1d3e:	0000                	unimp
    1d40:	015d                	addi	sp,sp,23
    1d42:	0000                	unimp
    1d44:	0172                	slli	sp,sp,0x1c
    1d46:	0000                	unimp
    1d48:	019f 0000 01d2      	0x1d20000019f
    1d4e:	0000                	unimp
    1d50:	022a                	slli	tp,tp,0xa
    1d52:	0000                	unimp
    1d54:	026e                	slli	tp,tp,0x1b
    1d56:	0000                	unimp
    1d58:	01d2                	slli	gp,gp,0x14
    1d5a:	0000                	unimp
    1d5c:	019f 0000 01d2      	0x1d20000019f
    1d62:	0000                	unimp
    1d64:	019f 0000 01d2      	0x1d20000019f
    1d6a:	0000                	unimp
    1d6c:	022a                	slli	tp,tp,0xa
    1d6e:	0000                	unimp
    1d70:	026e                	slli	tp,tp,0x1b
    1d72:	0000                	unimp
    1d74:	01d2                	slli	gp,gp,0x14
    1d76:	0000                	unimp
    1d78:	019f 0000 01d2      	0x1d20000019f
    1d7e:	0000                	unimp
    1d80:	019f 0000 01d2      	0x1d20000019f
    1d86:	0000                	unimp
    1d88:	019f 0000 0172      	0x1720000019f
    1d8e:	0000                	unimp
    1d90:	015d                	addi	sp,sp,23
    1d92:	0000                	unimp
    1d94:	0115                	addi	sp,sp,5
    1d96:	0000                	unimp
    1d98:	00000137          	lui	sp,0x0
    1d9c:	0115                	addi	sp,sp,5
    1d9e:	0000                	unimp
    1da0:	00000137          	lui	sp,0x0
    1da4:	015d                	addi	sp,sp,23
    1da6:	0000                	unimp
    1da8:	0172                	slli	sp,sp,0x1c
    1daa:	0000                	unimp
    1dac:	019f 0000 01d2      	0x1d20000019f
    1db2:	0000                	unimp
    1db4:	00000137          	lui	sp,0x0
    1db8:	01d2                	slli	gp,gp,0x14
    1dba:	0000                	unimp
    1dbc:	022a                	slli	tp,tp,0xa
    1dbe:	0000                	unimp
    1dc0:	022a                	slli	tp,tp,0xa
    1dc2:	0000                	unimp
    1dc4:	026e                	slli	tp,tp,0x1b
    1dc6:	0000                	unimp
    1dc8:	01d2                	slli	gp,gp,0x14
    1dca:	0000                	unimp
    1dcc:	019f 0000 01d2      	0x1d20000019f
    1dd2:	0000                	unimp
    1dd4:	019f 0000 01d2      	0x1d20000019f
    1dda:	0000                	unimp
    1ddc:	022a                	slli	tp,tp,0xa
    1dde:	0000                	unimp
    1de0:	026e                	slli	tp,tp,0x1b
    1de2:	0000                	unimp
    1de4:	01d2                	slli	gp,gp,0x14
    1de6:	0000                	unimp
    1de8:	019f 0000 01d2      	0x1d20000019f
    1dee:	0000                	unimp
    1df0:	019f 0000 01d2      	0x1d20000019f
    1df6:	0000                	unimp
    1df8:	019f 0000 0172      	0x1720000019f
    1dfe:	0000                	unimp
    1e00:	015d                	addi	sp,sp,23
    1e02:	0000                	unimp
    1e04:	0115                	addi	sp,sp,5
    1e06:	0000                	unimp
    1e08:	00000137          	lui	sp,0x0
    1e0c:	0115                	addi	sp,sp,5
    1e0e:	0000                	unimp
    1e10:	00000137          	lui	sp,0x0
    1e14:	015d                	addi	sp,sp,23
    1e16:	0000                	unimp
    1e18:	0172                	slli	sp,sp,0x1c
    1e1a:	0000                	unimp
    1e1c:	019f 0000 01d2      	0x1d20000019f
    1e22:	0000                	unimp
    1e24:	00000137          	lui	sp,0x0
    1e28:	01d2                	slli	gp,gp,0x14
    1e2a:	0000                	unimp
    1e2c:	022a                	slli	tp,tp,0xa
    1e2e:	0000                	unimp
    1e30:	022a                	slli	tp,tp,0xa
    1e32:	0000                	unimp
    1e34:	026e                	slli	tp,tp,0x1b
    1e36:	0000                	unimp
    1e38:	01d2                	slli	gp,gp,0x14
    1e3a:	0000                	unimp
    1e3c:	019f 0000 01d2      	0x1d20000019f
    1e42:	0000                	unimp
    1e44:	019f 0000 01d2      	0x1d20000019f
    1e4a:	0000                	unimp
    1e4c:	022a                	slli	tp,tp,0xa
    1e4e:	0000                	unimp
    1e50:	026e                	slli	tp,tp,0x1b
    1e52:	0000                	unimp
    1e54:	01d2                	slli	gp,gp,0x14
    1e56:	0000                	unimp
    1e58:	019f 0000 01d2      	0x1d20000019f
    1e5e:	0000                	unimp
    1e60:	019f 0000 01d2      	0x1d20000019f
    1e66:	0000                	unimp
    1e68:	019f 0000 0172      	0x1720000019f
    1e6e:	0000                	unimp
    1e70:	015d                	addi	sp,sp,23
    1e72:	0000                	unimp
    1e74:	0115                	addi	sp,sp,5
    1e76:	0000                	unimp
    1e78:	00000137          	lui	sp,0x0
    1e7c:	0115                	addi	sp,sp,5
    1e7e:	0000                	unimp
    1e80:	00000137          	lui	sp,0x0
    1e84:	015d                	addi	sp,sp,23
    1e86:	0000                	unimp
    1e88:	0172                	slli	sp,sp,0x1c
    1e8a:	0000                	unimp
    1e8c:	019f 0000 01d2      	0x1d20000019f
    1e92:	0000                	unimp
    1e94:	00000137          	lui	sp,0x0
    1e98:	01d2                	slli	gp,gp,0x14
    1e9a:	0000                	unimp
    1e9c:	022a                	slli	tp,tp,0xa
    1e9e:	0000                	unimp
    1ea0:	022a                	slli	tp,tp,0xa
    1ea2:	0000                	unimp
    1ea4:	026e                	slli	tp,tp,0x1b
    1ea6:	0000                	unimp
    1ea8:	01d2                	slli	gp,gp,0x14
    1eaa:	0000                	unimp
    1eac:	019f 0000 01d2      	0x1d20000019f
    1eb2:	0000                	unimp
    1eb4:	019f 0000 01d2      	0x1d20000019f
    1eba:	0000                	unimp
    1ebc:	022a                	slli	tp,tp,0xa
    1ebe:	0000                	unimp
    1ec0:	026e                	slli	tp,tp,0x1b
    1ec2:	0000                	unimp
    1ec4:	01d2                	slli	gp,gp,0x14
    1ec6:	0000                	unimp
    1ec8:	019f 0000 01d2      	0x1d20000019f
    1ece:	0000                	unimp
    1ed0:	026e                	slli	tp,tp,0x1b
    1ed2:	0000                	unimp
    1ed4:	02ba                	slli	t0,t0,0xe
    1ed6:	0000                	unimp
    1ed8:	02e4                	addi	s1,sp,332
    1eda:	0000                	unimp
    1edc:	02ba                	slli	t0,t0,0xe
    1ede:	0000                	unimp
    1ee0:	026e                	slli	tp,tp,0x1b
    1ee2:	0000                	unimp
    1ee4:	022a                	slli	tp,tp,0xa
    1ee6:	0000                	unimp
    1ee8:	01d2                	slli	gp,gp,0x14
    1eea:	0000                	unimp
    1eec:	019f 0000 01d2      	0x1d20000019f
    1ef2:	0000                	unimp
    1ef4:	019f 0000 0172      	0x1720000019f
    1efa:	0000                	unimp
    1efc:	015d                	addi	sp,sp,23
    1efe:	0000                	unimp
    1f00:	0115                	addi	sp,sp,5
    1f02:	0000                	unimp
    1f04:	00000137          	lui	sp,0x0
    1f08:	01ee                	slli	gp,gp,0x1b
    1f0a:	0000                	unimp
    1f0c:	0000024b          	fnmsub.s	ft4,ft0,ft0,ft0,rne
    1f10:	0000024b          	fnmsub.s	ft4,ft0,ft0,ft0,rne
    1f14:	00000293          	li	t0,0
    1f18:	01ee                	slli	gp,gp,0x1b
    1f1a:	0000                	unimp
    1f1c:	01b8                	addi	a4,sp,200
    1f1e:	0000                	unimp
    1f20:	01ee                	slli	gp,gp,0x1b
    1f22:	0000                	unimp
    1f24:	01b8                	addi	a4,sp,200
    1f26:	0000                	unimp
    1f28:	01ee                	slli	gp,gp,0x1b
    1f2a:	0000                	unimp
    1f2c:	0000024b          	fnmsub.s	ft4,ft0,ft0,ft0,rne
    1f30:	00000293          	li	t0,0
    1f34:	01ee                	slli	gp,gp,0x1b
    1f36:	0000                	unimp
    1f38:	01b8                	addi	a4,sp,200
    1f3a:	0000                	unimp
    1f3c:	01ee                	slli	gp,gp,0x1b
    1f3e:	0000                	unimp
    1f40:	01b8                	addi	a4,sp,200
    1f42:	0000                	unimp
    1f44:	01ee                	slli	gp,gp,0x1b
    1f46:	0000                	unimp
    1f48:	01b8                	addi	a4,sp,200
    1f4a:	0000                	unimp
    1f4c:	0188                	addi	a0,sp,192
    1f4e:	0000                	unimp
    1f50:	0172                	slli	sp,sp,0x1c
    1f52:	0000                	unimp
    1f54:	0126                	slli	sp,sp,0x9
    1f56:	0000                	unimp
    1f58:	014a                	slli	sp,sp,0x12
    1f5a:	0000                	unimp
    1f5c:	0126                	slli	sp,sp,0x9
    1f5e:	0000                	unimp
    1f60:	014a                	slli	sp,sp,0x12
    1f62:	0000                	unimp
    1f64:	0172                	slli	sp,sp,0x1c
    1f66:	0000                	unimp
    1f68:	0188                	addi	a0,sp,192
    1f6a:	0000                	unimp
    1f6c:	01b8                	addi	a4,sp,200
    1f6e:	0000                	unimp
    1f70:	01ee                	slli	gp,gp,0x1b
    1f72:	0000                	unimp
    1f74:	014a                	slli	sp,sp,0x12
    1f76:	0000                	unimp
    1f78:	01ee                	slli	gp,gp,0x1b
    1f7a:	0000                	unimp
    1f7c:	0000024b          	fnmsub.s	ft4,ft0,ft0,ft0,rne
    1f80:	0000024b          	fnmsub.s	ft4,ft0,ft0,ft0,rne
    1f84:	00000293          	li	t0,0
    1f88:	01ee                	slli	gp,gp,0x1b
    1f8a:	0000                	unimp
    1f8c:	01b8                	addi	a4,sp,200
    1f8e:	0000                	unimp
    1f90:	01ee                	slli	gp,gp,0x1b
    1f92:	0000                	unimp
    1f94:	01b8                	addi	a4,sp,200
    1f96:	0000                	unimp
    1f98:	01ee                	slli	gp,gp,0x1b
    1f9a:	0000                	unimp
    1f9c:	0000024b          	fnmsub.s	ft4,ft0,ft0,ft0,rne
    1fa0:	00000293          	li	t0,0
    1fa4:	01ee                	slli	gp,gp,0x1b
    1fa6:	0000                	unimp
    1fa8:	01b8                	addi	a4,sp,200
    1faa:	0000                	unimp
    1fac:	01ee                	slli	gp,gp,0x1b
    1fae:	0000                	unimp
    1fb0:	01b8                	addi	a4,sp,200
    1fb2:	0000                	unimp
    1fb4:	01ee                	slli	gp,gp,0x1b
    1fb6:	0000                	unimp
    1fb8:	01b8                	addi	a4,sp,200
    1fba:	0000                	unimp
    1fbc:	0188                	addi	a0,sp,192
    1fbe:	0000                	unimp
    1fc0:	0172                	slli	sp,sp,0x1c
    1fc2:	0000                	unimp
    1fc4:	0126                	slli	sp,sp,0x9
    1fc6:	0000                	unimp
    1fc8:	014a                	slli	sp,sp,0x12
    1fca:	0000                	unimp
    1fcc:	0126                	slli	sp,sp,0x9
    1fce:	0000                	unimp
    1fd0:	014a                	slli	sp,sp,0x12
    1fd2:	0000                	unimp
    1fd4:	0172                	slli	sp,sp,0x1c
    1fd6:	0000                	unimp
    1fd8:	0188                	addi	a0,sp,192
    1fda:	0000                	unimp
    1fdc:	01b8                	addi	a4,sp,200
    1fde:	0000                	unimp
    1fe0:	01ee                	slli	gp,gp,0x1b
    1fe2:	0000                	unimp
    1fe4:	014a                	slli	sp,sp,0x12
    1fe6:	0000                	unimp
    1fe8:	01ee                	slli	gp,gp,0x1b
    1fea:	0000                	unimp
    1fec:	0000024b          	fnmsub.s	ft4,ft0,ft0,ft0,rne
    1ff0:	0000024b          	fnmsub.s	ft4,ft0,ft0,ft0,rne
    1ff4:	00000293          	li	t0,0
    1ff8:	01ee                	slli	gp,gp,0x1b
    1ffa:	0000                	unimp
    1ffc:	01b8                	addi	a4,sp,200
    1ffe:	0000                	unimp
    2000:	01ee                	slli	gp,gp,0x1b
    2002:	0000                	unimp
    2004:	01b8                	addi	a4,sp,200
    2006:	0000                	unimp
    2008:	01ee                	slli	gp,gp,0x1b
    200a:	0000                	unimp
    200c:	0000024b          	fnmsub.s	ft4,ft0,ft0,ft0,rne
    2010:	00000293          	li	t0,0
    2014:	01ee                	slli	gp,gp,0x1b
    2016:	0000                	unimp
    2018:	01b8                	addi	a4,sp,200
    201a:	0000                	unimp
    201c:	01ee                	slli	gp,gp,0x1b
    201e:	0000                	unimp
    2020:	01b8                	addi	a4,sp,200
    2022:	0000                	unimp
    2024:	01ee                	slli	gp,gp,0x1b
    2026:	0000                	unimp
    2028:	01b8                	addi	a4,sp,200
    202a:	0000                	unimp
    202c:	0188                	addi	a0,sp,192
    202e:	0000                	unimp
    2030:	0172                	slli	sp,sp,0x1c
    2032:	0000                	unimp
    2034:	0126                	slli	sp,sp,0x9
    2036:	0000                	unimp
    2038:	014a                	slli	sp,sp,0x12
    203a:	0000                	unimp
    203c:	0126                	slli	sp,sp,0x9
    203e:	0000                	unimp
    2040:	014a                	slli	sp,sp,0x12
    2042:	0000                	unimp
    2044:	0172                	slli	sp,sp,0x1c
    2046:	0000                	unimp
    2048:	0188                	addi	a0,sp,192
    204a:	0000                	unimp
    204c:	01b8                	addi	a4,sp,200
    204e:	0000                	unimp
    2050:	01ee                	slli	gp,gp,0x1b
    2052:	0000                	unimp
    2054:	014a                	slli	sp,sp,0x12
    2056:	0000                	unimp
    2058:	01ee                	slli	gp,gp,0x1b
    205a:	0000                	unimp
    205c:	0000024b          	fnmsub.s	ft4,ft0,ft0,ft0,rne
    2060:	0000024b          	fnmsub.s	ft4,ft0,ft0,ft0,rne
    2064:	00000293          	li	t0,0
    2068:	01ee                	slli	gp,gp,0x1b
    206a:	0000                	unimp
    206c:	01b8                	addi	a4,sp,200
    206e:	0000                	unimp
    2070:	01ee                	slli	gp,gp,0x1b
    2072:	0000                	unimp
    2074:	01b8                	addi	a4,sp,200
    2076:	0000                	unimp
    2078:	01ee                	slli	gp,gp,0x1b
    207a:	0000                	unimp
    207c:	0000024b          	fnmsub.s	ft4,ft0,ft0,ft0,rne
    2080:	00000293          	li	t0,0
    2084:	01ee                	slli	gp,gp,0x1b
    2086:	0000                	unimp
    2088:	01b8                	addi	a4,sp,200
    208a:	0000                	unimp
    208c:	01ee                	slli	gp,gp,0x1b
    208e:	0000                	unimp
    2090:	00000293          	li	t0,0
    2094:	02e4                	addi	s1,sp,332
    2096:	0000                	unimp
    2098:	0310                	addi	a2,sp,384
    209a:	0000                	unimp
    209c:	02e4                	addi	s1,sp,332
    209e:	0000                	unimp
    20a0:	00000293          	li	t0,0
    20a4:	0000024b          	fnmsub.s	ft4,ft0,ft0,ft0,rne
    20a8:	01ee                	slli	gp,gp,0x1b
    20aa:	0000                	unimp
    20ac:	01b8                	addi	a4,sp,200
    20ae:	0000                	unimp
    20b0:	01ee                	slli	gp,gp,0x1b
    20b2:	0000                	unimp
    20b4:	01b8                	addi	a4,sp,200
    20b6:	0000                	unimp
    20b8:	0188                	addi	a0,sp,192
    20ba:	0000                	unimp
    20bc:	0172                	slli	sp,sp,0x1c
    20be:	0000                	unimp
    20c0:	0126                	slli	sp,sp,0x9
    20c2:	0000                	unimp
    20c4:	014a                	slli	sp,sp,0x12
    20c6:	0000                	unimp
    20c8:	0000                	unimp
    20ca:	0000                	unimp
    20cc:	014a                	slli	sp,sp,0x12
    20ce:	0000                	unimp
    20d0:	014a                	slli	sp,sp,0x12
    20d2:	0000                	unimp
    20d4:	014a                	slli	sp,sp,0x12
    20d6:	0000                	unimp
    20d8:	014a                	slli	sp,sp,0x12
    20da:	0000                	unimp
    20dc:	014a                	slli	sp,sp,0x12
    20de:	0000                	unimp
    20e0:	014a                	slli	sp,sp,0x12
    20e2:	0000                	unimp
    20e4:	014a                	slli	sp,sp,0x12
    20e6:	0000                	unimp
    20e8:	014a                	slli	sp,sp,0x12
    20ea:	0000                	unimp
    20ec:	014a                	slli	sp,sp,0x12
    20ee:	0000                	unimp
    20f0:	014a                	slli	sp,sp,0x12
    20f2:	0000                	unimp
    20f4:	014a                	slli	sp,sp,0x12
    20f6:	0000                	unimp
    20f8:	014a                	slli	sp,sp,0x12
    20fa:	0000                	unimp
    20fc:	014a                	slli	sp,sp,0x12
    20fe:	0000                	unimp
    2100:	014a                	slli	sp,sp,0x12
    2102:	0000                	unimp
    2104:	014a                	slli	sp,sp,0x12
    2106:	0000                	unimp
    2108:	014a                	slli	sp,sp,0x12
    210a:	0000                	unimp
    210c:	014a                	slli	sp,sp,0x12
    210e:	0000                	unimp
    2110:	014a                	slli	sp,sp,0x12
    2112:	0000                	unimp
    2114:	014a                	slli	sp,sp,0x12
    2116:	0000                	unimp
    2118:	014a                	slli	sp,sp,0x12
    211a:	0000                	unimp
    211c:	014a                	slli	sp,sp,0x12
    211e:	0000                	unimp
    2120:	014a                	slli	sp,sp,0x12
    2122:	0000                	unimp
    2124:	014a                	slli	sp,sp,0x12
	...
    212e:	0000                	unimp
    2130:	0004                	0x4
    2132:	0000                	unimp
    2134:	0004                	0x4
    2136:	0000                	unimp
    2138:	0004                	0x4
    213a:	0000                	unimp
    213c:	0001                	nop
    213e:	0000                	unimp
    2140:	0001                	nop
    2142:	0000                	unimp
    2144:	0001                	nop
    2146:	0000                	unimp
    2148:	0001                	nop
    214a:	0000                	unimp
    214c:	0004                	0x4
    214e:	0000                	unimp
    2150:	0004                	0x4
    2152:	0000                	unimp
    2154:	0004                	0x4
    2156:	0000                	unimp
    2158:	0002                	c.slli64	zero
    215a:	0000                	unimp
    215c:	0002                	c.slli64	zero
    215e:	0000                	unimp
    2160:	0004                	0x4
    2162:	0000                	unimp
    2164:	0004                	0x4
    2166:	0000                	unimp
    2168:	0004                	0x4
    216a:	0000                	unimp
    216c:	0001                	nop
    216e:	0000                	unimp
    2170:	0001                	nop
    2172:	0000                	unimp
    2174:	0001                	nop
    2176:	0000                	unimp
    2178:	0001                	nop
    217a:	0000                	unimp
    217c:	0004                	0x4
    217e:	0000                	unimp
    2180:	0004                	0x4
    2182:	0000                	unimp
    2184:	0004                	0x4
    2186:	0000                	unimp
    2188:	0002                	c.slli64	zero
    218a:	0000                	unimp
    218c:	0002                	c.slli64	zero
    218e:	0000                	unimp
    2190:	0004                	0x4
    2192:	0000                	unimp
    2194:	0004                	0x4
    2196:	0000                	unimp
    2198:	0004                	0x4
    219a:	0000                	unimp
    219c:	0001                	nop
    219e:	0000                	unimp
    21a0:	0001                	nop
    21a2:	0000                	unimp
    21a4:	0001                	nop
    21a6:	0000                	unimp
    21a8:	0001                	nop
    21aa:	0000                	unimp
    21ac:	0004                	0x4
    21ae:	0000                	unimp
    21b0:	0004                	0x4
    21b2:	0000                	unimp
    21b4:	0004                	0x4
    21b6:	0000                	unimp
    21b8:	0002                	c.slli64	zero
    21ba:	0000                	unimp
    21bc:	0002                	c.slli64	zero
    21be:	0000                	unimp
    21c0:	0004                	0x4
    21c2:	0000                	unimp
    21c4:	0004                	0x4
    21c6:	0000                	unimp
    21c8:	0004                	0x4
    21ca:	0000                	unimp
    21cc:	0001                	nop
    21ce:	0000                	unimp
    21d0:	0001                	nop
    21d2:	0000                	unimp
    21d4:	0001                	nop
    21d6:	0000                	unimp
    21d8:	0001                	nop
    21da:	0000                	unimp
    21dc:	0004                	0x4
    21de:	0000                	unimp
    21e0:	0004                	0x4
    21e2:	0000                	unimp
    21e4:	0004                	0x4
    21e6:	0000                	unimp
    21e8:	0002                	c.slli64	zero
    21ea:	0000                	unimp
    21ec:	0002                	c.slli64	zero
    21ee:	0000                	unimp
    21f0:	0004                	0x4
    21f2:	0000                	unimp
    21f4:	0001                	nop
    21f6:	0000                	unimp
    21f8:	0001                	nop
    21fa:	0000                	unimp
    21fc:	0001                	nop
    21fe:	0000                	unimp
    2200:	0001                	nop
    2202:	0000                	unimp
    2204:	0004                	0x4
    2206:	0000                	unimp
    2208:	0001                	nop
    220a:	0000                	unimp
    220c:	0001                	nop
    220e:	0000                	unimp
    2210:	0001                	nop
    2212:	0000                	unimp
    2214:	0001                	nop
    2216:	0000                	unimp
    2218:	0004                	0x4
    221a:	0000                	unimp
    221c:	0001                	nop
    221e:	0000                	unimp
    2220:	0001                	nop
    2222:	0000                	unimp
    2224:	0001                	nop
    2226:	0000                	unimp
    2228:	0001                	nop
    222a:	0000                	unimp
    222c:	0002                	c.slli64	zero
    222e:	0000                	unimp
    2230:	0001                	nop
    2232:	0000                	unimp
    2234:	0001                	nop
    2236:	0000                	unimp
    2238:	0002                	c.slli64	zero
    223a:	0000                	unimp
    223c:	0001                	nop
    223e:	0000                	unimp
    2240:	0001                	nop
    2242:	0000                	unimp
    2244:	0004                	0x4
    2246:	0000                	unimp
    2248:	0001                	nop
    224a:	0000                	unimp
    224c:	0001                	nop
    224e:	0000                	unimp
    2250:	0001                	nop
    2252:	0000                	unimp
    2254:	0001                	nop
    2256:	0000                	unimp
    2258:	0004                	0x4
    225a:	0000                	unimp
    225c:	0001                	nop
    225e:	0000                	unimp
    2260:	0001                	nop
    2262:	0000                	unimp
    2264:	0001                	nop
    2266:	0000                	unimp
    2268:	0001                	nop
    226a:	0000                	unimp
    226c:	0004                	0x4
    226e:	0000                	unimp
    2270:	0001                	nop
    2272:	0000                	unimp
    2274:	0001                	nop
    2276:	0000                	unimp
    2278:	0001                	nop
    227a:	0000                	unimp
    227c:	0001                	nop
    227e:	0000                	unimp
    2280:	0002                	c.slli64	zero
    2282:	0000                	unimp
    2284:	0001                	nop
    2286:	0000                	unimp
    2288:	0001                	nop
    228a:	0000                	unimp
    228c:	0002                	c.slli64	zero
    228e:	0000                	unimp
    2290:	0001                	nop
    2292:	0000                	unimp
    2294:	0001                	nop
    2296:	0000                	unimp
    2298:	0004                	0x4
    229a:	0000                	unimp
    229c:	0001                	nop
    229e:	0000                	unimp
    22a0:	0001                	nop
    22a2:	0000                	unimp
    22a4:	0001                	nop
    22a6:	0000                	unimp
    22a8:	0001                	nop
    22aa:	0000                	unimp
    22ac:	0004                	0x4
    22ae:	0000                	unimp
    22b0:	0001                	nop
    22b2:	0000                	unimp
    22b4:	0001                	nop
    22b6:	0000                	unimp
    22b8:	0001                	nop
    22ba:	0000                	unimp
    22bc:	0001                	nop
    22be:	0000                	unimp
    22c0:	0004                	0x4
    22c2:	0000                	unimp
    22c4:	0001                	nop
    22c6:	0000                	unimp
    22c8:	0001                	nop
    22ca:	0000                	unimp
    22cc:	0001                	nop
    22ce:	0000                	unimp
    22d0:	0001                	nop
    22d2:	0000                	unimp
    22d4:	0002                	c.slli64	zero
    22d6:	0000                	unimp
    22d8:	0001                	nop
    22da:	0000                	unimp
    22dc:	0001                	nop
    22de:	0000                	unimp
    22e0:	0002                	c.slli64	zero
    22e2:	0000                	unimp
    22e4:	0001                	nop
    22e6:	0000                	unimp
    22e8:	0001                	nop
    22ea:	0000                	unimp
    22ec:	0004                	0x4
    22ee:	0000                	unimp
    22f0:	0001                	nop
    22f2:	0000                	unimp
    22f4:	0001                	nop
    22f6:	0000                	unimp
    22f8:	0001                	nop
    22fa:	0000                	unimp
    22fc:	0001                	nop
    22fe:	0000                	unimp
    2300:	0004                	0x4
    2302:	0000                	unimp
    2304:	0001                	nop
    2306:	0000                	unimp
    2308:	0001                	nop
    230a:	0000                	unimp
    230c:	0001                	nop
    230e:	0000                	unimp
    2310:	0001                	nop
    2312:	0000                	unimp
    2314:	0004                	0x4
    2316:	0000                	unimp
    2318:	0001                	nop
    231a:	0000                	unimp
    231c:	0001                	nop
    231e:	0000                	unimp
    2320:	0001                	nop
    2322:	0000                	unimp
    2324:	0001                	nop
    2326:	0000                	unimp
    2328:	0002                	c.slli64	zero
    232a:	0000                	unimp
    232c:	0001                	nop
    232e:	0000                	unimp
    2330:	0001                	nop
    2332:	0000                	unimp
    2334:	0002                	c.slli64	zero
    2336:	0000                	unimp
    2338:	0001                	nop
    233a:	0000                	unimp
    233c:	0001                	nop
    233e:	0000                	unimp
    2340:	0002                	c.slli64	zero
    2342:	0000                	unimp
    2344:	0002                	c.slli64	zero
    2346:	0000                	unimp
    2348:	0002                	c.slli64	zero
    234a:	0000                	unimp
    234c:	0002                	c.slli64	zero
    234e:	0000                	unimp
    2350:	0004                	0x4
    2352:	0000                	unimp
    2354:	0002                	c.slli64	zero
    2356:	0000                	unimp
    2358:	0002                	c.slli64	zero
    235a:	0000                	unimp
    235c:	0004                	0x4
    235e:	0000                	unimp
    2360:	0004                	0x4
    2362:	0000                	unimp
    2364:	0002                	c.slli64	zero
    2366:	0000                	unimp
    2368:	0002                	c.slli64	zero
    236a:	0000                	unimp
    236c:	0002                	c.slli64	zero
    236e:	0000                	unimp
    2370:	0002                	c.slli64	zero
    2372:	0000                	unimp
    2374:	0002                	c.slli64	zero
    2376:	0000                	unimp
    2378:	0002                	c.slli64	zero
    237a:	0000                	unimp
    237c:	0002                	c.slli64	zero
    237e:	0000                	unimp
    2380:	0002                	c.slli64	zero
    2382:	0000                	unimp
    2384:	0004                	0x4
    2386:	0000                	unimp
    2388:	0002                	c.slli64	zero
    238a:	0000                	unimp
    238c:	0002                	c.slli64	zero
    238e:	0000                	unimp
    2390:	0002                	c.slli64	zero
    2392:	0000                	unimp
    2394:	0002                	c.slli64	zero
    2396:	0000                	unimp
    2398:	0002                	c.slli64	zero
    239a:	0000                	unimp
    239c:	0002                	c.slli64	zero
    239e:	0000                	unimp
    23a0:	0002                	c.slli64	zero
    23a2:	0000                	unimp
    23a4:	0002                	c.slli64	zero
    23a6:	0000                	unimp
    23a8:	0002                	c.slli64	zero
    23aa:	0000                	unimp
    23ac:	0002                	c.slli64	zero
    23ae:	0000                	unimp
    23b0:	0002                	c.slli64	zero
    23b2:	0000                	unimp
    23b4:	0002                	c.slli64	zero
    23b6:	0000                	unimp
    23b8:	0002                	c.slli64	zero
    23ba:	0000                	unimp
    23bc:	0002                	c.slli64	zero
    23be:	0000                	unimp
    23c0:	0004                	0x4
    23c2:	0000                	unimp
    23c4:	0002                	c.slli64	zero
    23c6:	0000                	unimp
    23c8:	0002                	c.slli64	zero
    23ca:	0000                	unimp
    23cc:	0004                	0x4
    23ce:	0000                	unimp
    23d0:	0004                	0x4
    23d2:	0000                	unimp
    23d4:	0002                	c.slli64	zero
    23d6:	0000                	unimp
    23d8:	0002                	c.slli64	zero
    23da:	0000                	unimp
    23dc:	0002                	c.slli64	zero
    23de:	0000                	unimp
    23e0:	0002                	c.slli64	zero
    23e2:	0000                	unimp
    23e4:	0002                	c.slli64	zero
    23e6:	0000                	unimp
    23e8:	0002                	c.slli64	zero
    23ea:	0000                	unimp
    23ec:	0002                	c.slli64	zero
    23ee:	0000                	unimp
    23f0:	0002                	c.slli64	zero
    23f2:	0000                	unimp
    23f4:	0004                	0x4
    23f6:	0000                	unimp
    23f8:	0002                	c.slli64	zero
    23fa:	0000                	unimp
    23fc:	0002                	c.slli64	zero
    23fe:	0000                	unimp
    2400:	0004                	0x4
    2402:	0000                	unimp
    2404:	0004                	0x4
    2406:	0000                	unimp
    2408:	0004                	0x4
    240a:	0000                	unimp
    240c:	0004                	0x4
    240e:	0000                	unimp
    2410:	0002                	c.slli64	zero
    2412:	0000                	unimp
    2414:	0002                	c.slli64	zero
    2416:	0000                	unimp
    2418:	0002                	c.slli64	zero
    241a:	0000                	unimp
    241c:	0002                	c.slli64	zero
    241e:	0000                	unimp
    2420:	0004                	0x4
    2422:	0000                	unimp
    2424:	0002                	c.slli64	zero
    2426:	0000                	unimp
    2428:	0002                	c.slli64	zero
    242a:	0000                	unimp
    242c:	0004                	0x4
    242e:	0000                	unimp
    2430:	0004                	0x4
    2432:	0000                	unimp
    2434:	0002                	c.slli64	zero
    2436:	0000                	unimp
    2438:	0002                	c.slli64	zero
    243a:	0000                	unimp
    243c:	0002                	c.slli64	zero
    243e:	0000                	unimp
    2440:	0002                	c.slli64	zero
    2442:	0000                	unimp
    2444:	0002                	c.slli64	zero
    2446:	0000                	unimp
    2448:	0002                	c.slli64	zero
    244a:	0000                	unimp
    244c:	0002                	c.slli64	zero
    244e:	0000                	unimp
    2450:	0002                	c.slli64	zero
    2452:	0000                	unimp
    2454:	0004                	0x4
    2456:	0000                	unimp
    2458:	0002                	c.slli64	zero
    245a:	0000                	unimp
    245c:	0002                	c.slli64	zero
    245e:	0000                	unimp
    2460:	0002                	c.slli64	zero
    2462:	0000                	unimp
    2464:	0002                	c.slli64	zero
    2466:	0000                	unimp
    2468:	0002                	c.slli64	zero
    246a:	0000                	unimp
    246c:	0002                	c.slli64	zero
    246e:	0000                	unimp
    2470:	0002                	c.slli64	zero
    2472:	0000                	unimp
    2474:	0002                	c.slli64	zero
    2476:	0000                	unimp
    2478:	0002                	c.slli64	zero
    247a:	0000                	unimp
    247c:	0002                	c.slli64	zero
    247e:	0000                	unimp
    2480:	0002                	c.slli64	zero
    2482:	0000                	unimp
    2484:	0002                	c.slli64	zero
    2486:	0000                	unimp
    2488:	0002                	c.slli64	zero
    248a:	0000                	unimp
    248c:	0002                	c.slli64	zero
    248e:	0000                	unimp
    2490:	0004                	0x4
    2492:	0000                	unimp
    2494:	0002                	c.slli64	zero
    2496:	0000                	unimp
    2498:	0002                	c.slli64	zero
    249a:	0000                	unimp
    249c:	0004                	0x4
    249e:	0000                	unimp
    24a0:	0004                	0x4
    24a2:	0000                	unimp
    24a4:	0002                	c.slli64	zero
    24a6:	0000                	unimp
    24a8:	0002                	c.slli64	zero
    24aa:	0000                	unimp
    24ac:	0002                	c.slli64	zero
    24ae:	0000                	unimp
    24b0:	0002                	c.slli64	zero
    24b2:	0000                	unimp
    24b4:	0002                	c.slli64	zero
    24b6:	0000                	unimp
    24b8:	0002                	c.slli64	zero
    24ba:	0000                	unimp
    24bc:	0002                	c.slli64	zero
    24be:	0000                	unimp
    24c0:	0002                	c.slli64	zero
    24c2:	0000                	unimp
    24c4:	0004                	0x4
    24c6:	0000                	unimp
    24c8:	0002                	c.slli64	zero
    24ca:	0000                	unimp
    24cc:	0002                	c.slli64	zero
    24ce:	0000                	unimp
    24d0:	0004                	0x4
    24d2:	0000                	unimp
    24d4:	0004                	0x4
    24d6:	0000                	unimp
    24d8:	0004                	0x4
    24da:	0000                	unimp
    24dc:	0004                	0x4
    24de:	0000                	unimp
    24e0:	0002                	c.slli64	zero
    24e2:	0000                	unimp
    24e4:	0002                	c.slli64	zero
    24e6:	0000                	unimp
    24e8:	0002                	c.slli64	zero
    24ea:	0000                	unimp
    24ec:	0002                	c.slli64	zero
    24ee:	0000                	unimp
    24f0:	0004                	0x4
    24f2:	0000                	unimp
    24f4:	0002                	c.slli64	zero
    24f6:	0000                	unimp
    24f8:	0002                	c.slli64	zero
    24fa:	0000                	unimp
    24fc:	0002                	c.slli64	zero
    24fe:	0000                	unimp
    2500:	0002                	c.slli64	zero
    2502:	0000                	unimp
    2504:	0002                	c.slli64	zero
    2506:	0000                	unimp
    2508:	0002                	c.slli64	zero
    250a:	0000                	unimp
    250c:	0004                	0x4
    250e:	0000                	unimp
    2510:	0002                	c.slli64	zero
    2512:	0000                	unimp
    2514:	0002                	c.slli64	zero
    2516:	0000                	unimp
    2518:	0002                	c.slli64	zero
    251a:	0000                	unimp
    251c:	0002                	c.slli64	zero
    251e:	0000                	unimp
    2520:	0002                	c.slli64	zero
    2522:	0000                	unimp
    2524:	0002                	c.slli64	zero
    2526:	0000                	unimp
    2528:	0004                	0x4
    252a:	0000                	unimp
    252c:	0002                	c.slli64	zero
    252e:	0000                	unimp
    2530:	0002                	c.slli64	zero
    2532:	0000                	unimp
    2534:	0002                	c.slli64	zero
    2536:	0000                	unimp
    2538:	0002                	c.slli64	zero
    253a:	0000                	unimp
    253c:	0002                	c.slli64	zero
    253e:	0000                	unimp
    2540:	0002                	c.slli64	zero
    2542:	0000                	unimp
    2544:	0004                	0x4
    2546:	0000                	unimp
    2548:	0002                	c.slli64	zero
    254a:	0000                	unimp
    254c:	0002                	c.slli64	zero
    254e:	0000                	unimp
    2550:	0002                	c.slli64	zero
    2552:	0000                	unimp
    2554:	0002                	c.slli64	zero
    2556:	0000                	unimp
    2558:	0002                	c.slli64	zero
    255a:	0000                	unimp
    255c:	0002                	c.slli64	zero
    255e:	0000                	unimp
    2560:	0004                	0x4
    2562:	0000                	unimp
    2564:	0002                	c.slli64	zero
    2566:	0000                	unimp
    2568:	0002                	c.slli64	zero
    256a:	0000                	unimp
    256c:	0002                	c.slli64	zero
    256e:	0000                	unimp
    2570:	0002                	c.slli64	zero
    2572:	0000                	unimp
    2574:	0002                	c.slli64	zero
    2576:	0000                	unimp
    2578:	0002                	c.slli64	zero
    257a:	0000                	unimp
    257c:	0004                	0x4
    257e:	0000                	unimp
    2580:	0002                	c.slli64	zero
    2582:	0000                	unimp
    2584:	0002                	c.slli64	zero
    2586:	0000                	unimp
    2588:	0002                	c.slli64	zero
    258a:	0000                	unimp
    258c:	0002                	c.slli64	zero
    258e:	0000                	unimp
    2590:	0002                	c.slli64	zero
    2592:	0000                	unimp
    2594:	0002                	c.slli64	zero
    2596:	0000                	unimp
    2598:	0004                	0x4
    259a:	0000                	unimp
    259c:	0002                	c.slli64	zero
    259e:	0000                	unimp
    25a0:	0002                	c.slli64	zero
    25a2:	0000                	unimp
    25a4:	0002                	c.slli64	zero
    25a6:	0000                	unimp
    25a8:	0002                	c.slli64	zero
    25aa:	0000                	unimp
    25ac:	0002                	c.slli64	zero
    25ae:	0000                	unimp
    25b0:	0002                	c.slli64	zero
    25b2:	0000                	unimp
    25b4:	0004                	0x4
    25b6:	0000                	unimp
    25b8:	0002                	c.slli64	zero
    25ba:	0000                	unimp
    25bc:	0002                	c.slli64	zero
    25be:	0000                	unimp
    25c0:	0002                	c.slli64	zero
    25c2:	0000                	unimp
    25c4:	0002                	c.slli64	zero
    25c6:	0000                	unimp
    25c8:	0002                	c.slli64	zero
    25ca:	0000                	unimp
    25cc:	0002                	c.slli64	zero
    25ce:	0000                	unimp
    25d0:	0004                	0x4
    25d2:	0000                	unimp
    25d4:	0002                	c.slli64	zero
    25d6:	0000                	unimp
    25d8:	0002                	c.slli64	zero
    25da:	0000                	unimp
    25dc:	0002                	c.slli64	zero
    25de:	0000                	unimp
    25e0:	0002                	c.slli64	zero
    25e2:	0000                	unimp
    25e4:	0002                	c.slli64	zero
    25e6:	0000                	unimp
    25e8:	0002                	c.slli64	zero
    25ea:	0000                	unimp
    25ec:	0004                	0x4
    25ee:	0000                	unimp
    25f0:	0002                	c.slli64	zero
    25f2:	0000                	unimp
    25f4:	0002                	c.slli64	zero
    25f6:	0000                	unimp
    25f8:	0002                	c.slli64	zero
    25fa:	0000                	unimp
    25fc:	0002                	c.slli64	zero
    25fe:	0000                	unimp
    2600:	0002                	c.slli64	zero
    2602:	0000                	unimp
    2604:	0002                	c.slli64	zero
    2606:	0000                	unimp
    2608:	0004                	0x4
    260a:	0000                	unimp
    260c:	0002                	c.slli64	zero
    260e:	0000                	unimp
    2610:	0002                	c.slli64	zero
    2612:	0000                	unimp
    2614:	0002                	c.slli64	zero
    2616:	0000                	unimp
    2618:	0002                	c.slli64	zero
    261a:	0000                	unimp
    261c:	0002                	c.slli64	zero
    261e:	0000                	unimp
    2620:	0002                	c.slli64	zero
    2622:	0000                	unimp
    2624:	0004                	0x4
    2626:	0000                	unimp
    2628:	0002                	c.slli64	zero
    262a:	0000                	unimp
    262c:	0002                	c.slli64	zero
    262e:	0000                	unimp
    2630:	0002                	c.slli64	zero
    2632:	0000                	unimp
    2634:	0002                	c.slli64	zero
    2636:	0000                	unimp
    2638:	0002                	c.slli64	zero
    263a:	0000                	unimp
    263c:	0002                	c.slli64	zero
    263e:	0000                	unimp
    2640:	0004                	0x4
    2642:	0000                	unimp
    2644:	0002                	c.slli64	zero
    2646:	0000                	unimp
    2648:	0002                	c.slli64	zero
    264a:	0000                	unimp
    264c:	0002                	c.slli64	zero
    264e:	0000                	unimp
    2650:	0002                	c.slli64	zero
    2652:	0000                	unimp
    2654:	0002                	c.slli64	zero
    2656:	0000                	unimp
    2658:	0002                	c.slli64	zero
    265a:	0000                	unimp
    265c:	0004                	0x4
    265e:	0000                	unimp
    2660:	0002                	c.slli64	zero
    2662:	0000                	unimp
    2664:	0002                	c.slli64	zero
    2666:	0000                	unimp
    2668:	0002                	c.slli64	zero
    266a:	0000                	unimp
    266c:	0002                	c.slli64	zero
    266e:	0000                	unimp
    2670:	0002                	c.slli64	zero
    2672:	0000                	unimp
    2674:	0002                	c.slli64	zero
    2676:	0000                	unimp
    2678:	0004                	0x4
    267a:	0000                	unimp
    267c:	0002                	c.slli64	zero
    267e:	0000                	unimp
    2680:	0002                	c.slli64	zero
    2682:	0000                	unimp
    2684:	0002                	c.slli64	zero
    2686:	0000                	unimp
    2688:	0002                	c.slli64	zero
    268a:	0000                	unimp
    268c:	0002                	c.slli64	zero
    268e:	0000                	unimp
    2690:	0002                	c.slli64	zero
    2692:	0000                	unimp
    2694:	0004                	0x4
    2696:	0000                	unimp
    2698:	0002                	c.slli64	zero
    269a:	0000                	unimp
    269c:	0002                	c.slli64	zero
    269e:	0000                	unimp
    26a0:	0002                	c.slli64	zero
    26a2:	0000                	unimp
    26a4:	0002                	c.slli64	zero
    26a6:	0000                	unimp
    26a8:	0002                	c.slli64	zero
    26aa:	0000                	unimp
    26ac:	0002                	c.slli64	zero
    26ae:	0000                	unimp
    26b0:	0004                	0x4
    26b2:	0000                	unimp
    26b4:	0002                	c.slli64	zero
    26b6:	0000                	unimp
    26b8:	0002                	c.slli64	zero
    26ba:	0000                	unimp
    26bc:	0002                	c.slli64	zero
    26be:	0000                	unimp
    26c0:	0002                	c.slli64	zero
    26c2:	0000                	unimp
    26c4:	0002                	c.slli64	zero
    26c6:	0000                	unimp
    26c8:	0002                	c.slli64	zero
    26ca:	0000                	unimp
    26cc:	0004                	0x4
    26ce:	0000                	unimp
    26d0:	0002                	c.slli64	zero
    26d2:	0000                	unimp
    26d4:	0002                	c.slli64	zero
    26d6:	0000                	unimp
    26d8:	0002                	c.slli64	zero
    26da:	0000                	unimp
    26dc:	0002                	c.slli64	zero
    26de:	0000                	unimp
    26e0:	0002                	c.slli64	zero
    26e2:	0000                	unimp
    26e4:	0002                	c.slli64	zero
    26e6:	0000                	unimp
    26e8:	0004                	0x4
    26ea:	0000                	unimp
    26ec:	0002                	c.slli64	zero
    26ee:	0000                	unimp
    26f0:	0002                	c.slli64	zero
    26f2:	0000                	unimp
    26f4:	0002                	c.slli64	zero
    26f6:	0000                	unimp
    26f8:	0002                	c.slli64	zero
    26fa:	0000                	unimp
    26fc:	0002                	c.slli64	zero
    26fe:	0000                	unimp
    2700:	0002                	c.slli64	zero
    2702:	0000                	unimp
    2704:	0004                	0x4
    2706:	0000                	unimp
    2708:	0002                	c.slli64	zero
    270a:	0000                	unimp
    270c:	0002                	c.slli64	zero
    270e:	0000                	unimp
    2710:	0002                	c.slli64	zero
    2712:	0000                	unimp
    2714:	0002                	c.slli64	zero
    2716:	0000                	unimp
    2718:	0002                	c.slli64	zero
    271a:	0000                	unimp
    271c:	0002                	c.slli64	zero
    271e:	0000                	unimp
    2720:	0004                	0x4
    2722:	0000                	unimp
    2724:	0002                	c.slli64	zero
    2726:	0000                	unimp
    2728:	0002                	c.slli64	zero
    272a:	0000                	unimp
    272c:	0002                	c.slli64	zero
    272e:	0000                	unimp
    2730:	0002                	c.slli64	zero
    2732:	0000                	unimp
    2734:	0002                	c.slli64	zero
    2736:	0000                	unimp
    2738:	0002                	c.slli64	zero
    273a:	0000                	unimp
    273c:	0004                	0x4
    273e:	0000                	unimp
    2740:	0002                	c.slli64	zero
    2742:	0000                	unimp
    2744:	0002                	c.slli64	zero
    2746:	0000                	unimp
    2748:	0002                	c.slli64	zero
    274a:	0000                	unimp
    274c:	0002                	c.slli64	zero
    274e:	0000                	unimp
    2750:	0002                	c.slli64	zero
    2752:	0000                	unimp
    2754:	0002                	c.slli64	zero
    2756:	0000                	unimp
    2758:	0004                	0x4
    275a:	0000                	unimp
    275c:	0002                	c.slli64	zero
    275e:	0000                	unimp
    2760:	0002                	c.slli64	zero
    2762:	0000                	unimp
    2764:	0002                	c.slli64	zero
    2766:	0000                	unimp
    2768:	0002                	c.slli64	zero
    276a:	0000                	unimp
    276c:	0002                	c.slli64	zero
    276e:	0000                	unimp
    2770:	0002                	c.slli64	zero
    2772:	0000                	unimp
    2774:	0004                	0x4
    2776:	0000                	unimp
    2778:	0002                	c.slli64	zero
    277a:	0000                	unimp
    277c:	0002                	c.slli64	zero
    277e:	0000                	unimp
    2780:	0002                	c.slli64	zero
    2782:	0000                	unimp
    2784:	0002                	c.slli64	zero
    2786:	0000                	unimp
    2788:	0002                	c.slli64	zero
    278a:	0000                	unimp
    278c:	0002                	c.slli64	zero
    278e:	0000                	unimp
    2790:	0004                	0x4
    2792:	0000                	unimp
    2794:	0002                	c.slli64	zero
    2796:	0000                	unimp
    2798:	0002                	c.slli64	zero
    279a:	0000                	unimp
    279c:	0002                	c.slli64	zero
    279e:	0000                	unimp
    27a0:	0002                	c.slli64	zero
    27a2:	0000                	unimp
    27a4:	0002                	c.slli64	zero
    27a6:	0000                	unimp
    27a8:	0002                	c.slli64	zero
    27aa:	0000                	unimp
    27ac:	0004                	0x4
    27ae:	0000                	unimp
    27b0:	0002                	c.slli64	zero
    27b2:	0000                	unimp
    27b4:	0002                	c.slli64	zero
    27b6:	0000                	unimp
    27b8:	0002                	c.slli64	zero
    27ba:	0000                	unimp
    27bc:	0002                	c.slli64	zero
    27be:	0000                	unimp
    27c0:	0002                	c.slli64	zero
    27c2:	0000                	unimp
    27c4:	0002                	c.slli64	zero
    27c6:	0000                	unimp
    27c8:	0004                	0x4
    27ca:	0000                	unimp
    27cc:	0002                	c.slli64	zero
    27ce:	0000                	unimp
    27d0:	0002                	c.slli64	zero
    27d2:	0000                	unimp
    27d4:	0002                	c.slli64	zero
    27d6:	0000                	unimp
    27d8:	0002                	c.slli64	zero
    27da:	0000                	unimp
    27dc:	0002                	c.slli64	zero
    27de:	0000                	unimp
    27e0:	0002                	c.slli64	zero
    27e2:	0000                	unimp
    27e4:	0004                	0x4
    27e6:	0000                	unimp
    27e8:	0002                	c.slli64	zero
    27ea:	0000                	unimp
    27ec:	0002                	c.slli64	zero
    27ee:	0000                	unimp
    27f0:	0002                	c.slli64	zero
    27f2:	0000                	unimp
    27f4:	0002                	c.slli64	zero
    27f6:	0000                	unimp
    27f8:	0002                	c.slli64	zero
    27fa:	0000                	unimp
    27fc:	0002                	c.slli64	zero
    27fe:	0000                	unimp
    2800:	0004                	0x4
    2802:	0000                	unimp
    2804:	0002                	c.slli64	zero
    2806:	0000                	unimp
    2808:	0002                	c.slli64	zero
    280a:	0000                	unimp
    280c:	0002                	c.slli64	zero
    280e:	0000                	unimp
    2810:	0002                	c.slli64	zero
    2812:	0000                	unimp
    2814:	0002                	c.slli64	zero
    2816:	0000                	unimp
    2818:	0002                	c.slli64	zero
    281a:	0000                	unimp
    281c:	0004                	0x4
    281e:	0000                	unimp
    2820:	0002                	c.slli64	zero
    2822:	0000                	unimp
    2824:	0002                	c.slli64	zero
    2826:	0000                	unimp
    2828:	0002                	c.slli64	zero
    282a:	0000                	unimp
    282c:	0002                	c.slli64	zero
    282e:	0000                	unimp
    2830:	0002                	c.slli64	zero
    2832:	0000                	unimp
    2834:	0002                	c.slli64	zero
    2836:	0000                	unimp
    2838:	0004                	0x4
    283a:	0000                	unimp
    283c:	0002                	c.slli64	zero
    283e:	0000                	unimp
    2840:	0002                	c.slli64	zero
    2842:	0000                	unimp
    2844:	0002                	c.slli64	zero
    2846:	0000                	unimp
    2848:	0002                	c.slli64	zero
    284a:	0000                	unimp
    284c:	0002                	c.slli64	zero
    284e:	0000                	unimp
    2850:	0002                	c.slli64	zero
    2852:	0000                	unimp
    2854:	0004                	0x4
    2856:	0000                	unimp
    2858:	0004                	0x4
    285a:	0000                	unimp
    285c:	0004                	0x4
    285e:	0000                	unimp
    2860:	0001                	nop
    2862:	0000                	unimp
    2864:	0001                	nop
    2866:	0000                	unimp
    2868:	0001                	nop
    286a:	0000                	unimp
    286c:	0001                	nop
    286e:	0000                	unimp
    2870:	0004                	0x4
    2872:	0000                	unimp
    2874:	0001                	nop
    2876:	0000                	unimp
    2878:	0001                	nop
    287a:	0000                	unimp
    287c:	0001                	nop
    287e:	0000                	unimp
    2880:	0001                	nop
    2882:	0000                	unimp
    2884:	0004                	0x4
    2886:	0000                	unimp
    2888:	0001                	nop
    288a:	0000                	unimp
    288c:	0001                	nop
    288e:	0000                	unimp
    2890:	0001                	nop
    2892:	0000                	unimp
    2894:	0001                	nop
    2896:	0000                	unimp
    2898:	0002                	c.slli64	zero
    289a:	0000                	unimp
    289c:	0001                	nop
    289e:	0000                	unimp
    28a0:	0001                	nop
    28a2:	0000                	unimp
    28a4:	0002                	c.slli64	zero
    28a6:	0000                	unimp
    28a8:	0001                	nop
    28aa:	0000                	unimp
    28ac:	0001                	nop
    28ae:	0000                	unimp
    28b0:	0004                	0x4
    28b2:	0000                	unimp
    28b4:	0001                	nop
    28b6:	0000                	unimp
    28b8:	0001                	nop
    28ba:	0000                	unimp
    28bc:	0001                	nop
    28be:	0000                	unimp
    28c0:	0001                	nop
    28c2:	0000                	unimp
    28c4:	0004                	0x4
    28c6:	0000                	unimp
    28c8:	0001                	nop
    28ca:	0000                	unimp
    28cc:	0001                	nop
    28ce:	0000                	unimp
    28d0:	0001                	nop
    28d2:	0000                	unimp
    28d4:	0001                	nop
    28d6:	0000                	unimp
    28d8:	0004                	0x4
    28da:	0000                	unimp
    28dc:	0001                	nop
    28de:	0000                	unimp
    28e0:	0001                	nop
    28e2:	0000                	unimp
    28e4:	0001                	nop
    28e6:	0000                	unimp
    28e8:	0001                	nop
    28ea:	0000                	unimp
    28ec:	0002                	c.slli64	zero
    28ee:	0000                	unimp
    28f0:	0001                	nop
    28f2:	0000                	unimp
    28f4:	0001                	nop
    28f6:	0000                	unimp
    28f8:	0002                	c.slli64	zero
    28fa:	0000                	unimp
    28fc:	0001                	nop
    28fe:	0000                	unimp
    2900:	0001                	nop
    2902:	0000                	unimp
    2904:	0004                	0x4
    2906:	0000                	unimp
    2908:	0001                	nop
    290a:	0000                	unimp
    290c:	0001                	nop
    290e:	0000                	unimp
    2910:	0001                	nop
    2912:	0000                	unimp
    2914:	0001                	nop
    2916:	0000                	unimp
    2918:	0004                	0x4
    291a:	0000                	unimp
    291c:	0001                	nop
    291e:	0000                	unimp
    2920:	0001                	nop
    2922:	0000                	unimp
    2924:	0001                	nop
    2926:	0000                	unimp
    2928:	0001                	nop
    292a:	0000                	unimp
    292c:	0004                	0x4
    292e:	0000                	unimp
    2930:	0001                	nop
    2932:	0000                	unimp
    2934:	0001                	nop
    2936:	0000                	unimp
    2938:	0001                	nop
    293a:	0000                	unimp
    293c:	0001                	nop
    293e:	0000                	unimp
    2940:	0002                	c.slli64	zero
    2942:	0000                	unimp
    2944:	0001                	nop
    2946:	0000                	unimp
    2948:	0001                	nop
    294a:	0000                	unimp
    294c:	0002                	c.slli64	zero
    294e:	0000                	unimp
    2950:	0001                	nop
    2952:	0000                	unimp
    2954:	0001                	nop
    2956:	0000                	unimp
    2958:	0004                	0x4
    295a:	0000                	unimp
    295c:	0001                	nop
    295e:	0000                	unimp
    2960:	0001                	nop
    2962:	0000                	unimp
    2964:	0001                	nop
    2966:	0000                	unimp
    2968:	0001                	nop
    296a:	0000                	unimp
    296c:	0004                	0x4
    296e:	0000                	unimp
    2970:	0001                	nop
    2972:	0000                	unimp
    2974:	0001                	nop
    2976:	0000                	unimp
    2978:	0001                	nop
    297a:	0000                	unimp
    297c:	0001                	nop
    297e:	0000                	unimp
    2980:	0004                	0x4
    2982:	0000                	unimp
    2984:	0001                	nop
    2986:	0000                	unimp
    2988:	0001                	nop
    298a:	0000                	unimp
    298c:	0001                	nop
    298e:	0000                	unimp
    2990:	0001                	nop
    2992:	0000                	unimp
    2994:	0002                	c.slli64	zero
    2996:	0000                	unimp
    2998:	0001                	nop
    299a:	0000                	unimp
    299c:	0001                	nop
    299e:	0000                	unimp
    29a0:	0002                	c.slli64	zero
    29a2:	0000                	unimp
    29a4:	0001                	nop
    29a6:	0000                	unimp
    29a8:	0001                	nop
    29aa:	0000                	unimp
    29ac:	0002                	c.slli64	zero
    29ae:	0000                	unimp
    29b0:	0002                	c.slli64	zero
    29b2:	0000                	unimp
    29b4:	0002                	c.slli64	zero
    29b6:	0000                	unimp
    29b8:	0002                	c.slli64	zero
    29ba:	0000                	unimp
    29bc:	0004                	0x4
    29be:	0000                	unimp
    29c0:	0002                	c.slli64	zero
    29c2:	0000                	unimp
    29c4:	0002                	c.slli64	zero
    29c6:	0000                	unimp
    29c8:	0004                	0x4
    29ca:	0000                	unimp
    29cc:	0004                	0x4
    29ce:	0000                	unimp
    29d0:	0002                	c.slli64	zero
    29d2:	0000                	unimp
    29d4:	0002                	c.slli64	zero
    29d6:	0000                	unimp
    29d8:	0002                	c.slli64	zero
    29da:	0000                	unimp
    29dc:	0002                	c.slli64	zero
    29de:	0000                	unimp
    29e0:	0002                	c.slli64	zero
    29e2:	0000                	unimp
    29e4:	0002                	c.slli64	zero
    29e6:	0000                	unimp
    29e8:	0002                	c.slli64	zero
    29ea:	0000                	unimp
    29ec:	0002                	c.slli64	zero
    29ee:	0000                	unimp
    29f0:	0004                	0x4
    29f2:	0000                	unimp
    29f4:	0002                	c.slli64	zero
    29f6:	0000                	unimp
    29f8:	0002                	c.slli64	zero
    29fa:	0000                	unimp
    29fc:	0002                	c.slli64	zero
    29fe:	0000                	unimp
    2a00:	0002                	c.slli64	zero
    2a02:	0000                	unimp
    2a04:	0002                	c.slli64	zero
    2a06:	0000                	unimp
    2a08:	0002                	c.slli64	zero
    2a0a:	0000                	unimp
    2a0c:	0002                	c.slli64	zero
    2a0e:	0000                	unimp
    2a10:	0002                	c.slli64	zero
    2a12:	0000                	unimp
    2a14:	0002                	c.slli64	zero
    2a16:	0000                	unimp
    2a18:	0002                	c.slli64	zero
    2a1a:	0000                	unimp
    2a1c:	0002                	c.slli64	zero
    2a1e:	0000                	unimp
    2a20:	0002                	c.slli64	zero
    2a22:	0000                	unimp
    2a24:	0002                	c.slli64	zero
    2a26:	0000                	unimp
    2a28:	0002                	c.slli64	zero
    2a2a:	0000                	unimp
    2a2c:	0004                	0x4
    2a2e:	0000                	unimp
    2a30:	0002                	c.slli64	zero
    2a32:	0000                	unimp
    2a34:	0002                	c.slli64	zero
    2a36:	0000                	unimp
    2a38:	0004                	0x4
    2a3a:	0000                	unimp
    2a3c:	0004                	0x4
    2a3e:	0000                	unimp
    2a40:	0002                	c.slli64	zero
    2a42:	0000                	unimp
    2a44:	0002                	c.slli64	zero
    2a46:	0000                	unimp
    2a48:	0002                	c.slli64	zero
    2a4a:	0000                	unimp
    2a4c:	0002                	c.slli64	zero
    2a4e:	0000                	unimp
    2a50:	0002                	c.slli64	zero
    2a52:	0000                	unimp
    2a54:	0002                	c.slli64	zero
    2a56:	0000                	unimp
    2a58:	0002                	c.slli64	zero
    2a5a:	0000                	unimp
    2a5c:	0002                	c.slli64	zero
    2a5e:	0000                	unimp
    2a60:	0004                	0x4
    2a62:	0000                	unimp
    2a64:	0002                	c.slli64	zero
    2a66:	0000                	unimp
    2a68:	0002                	c.slli64	zero
    2a6a:	0000                	unimp
    2a6c:	0004                	0x4
    2a6e:	0000                	unimp
    2a70:	0004                	0x4
    2a72:	0000                	unimp
    2a74:	0004                	0x4
    2a76:	0000                	unimp
    2a78:	0004                	0x4
    2a7a:	0000                	unimp
    2a7c:	0002                	c.slli64	zero
    2a7e:	0000                	unimp
    2a80:	0002                	c.slli64	zero
    2a82:	0000                	unimp
    2a84:	0002                	c.slli64	zero
    2a86:	0000                	unimp
    2a88:	0002                	c.slli64	zero
    2a8a:	0000                	unimp
    2a8c:	0004                	0x4
    2a8e:	0000                	unimp
    2a90:	0002                	c.slli64	zero
    2a92:	0000                	unimp
    2a94:	0002                	c.slli64	zero
    2a96:	0000                	unimp
    2a98:	0004                	0x4
    2a9a:	0000                	unimp
    2a9c:	0004                	0x4
    2a9e:	0000                	unimp
    2aa0:	0002                	c.slli64	zero
    2aa2:	0000                	unimp
    2aa4:	0002                	c.slli64	zero
    2aa6:	0000                	unimp
    2aa8:	0002                	c.slli64	zero
    2aaa:	0000                	unimp
    2aac:	0002                	c.slli64	zero
    2aae:	0000                	unimp
    2ab0:	0002                	c.slli64	zero
    2ab2:	0000                	unimp
    2ab4:	0002                	c.slli64	zero
    2ab6:	0000                	unimp
    2ab8:	0002                	c.slli64	zero
    2aba:	0000                	unimp
    2abc:	0002                	c.slli64	zero
    2abe:	0000                	unimp
    2ac0:	0004                	0x4
    2ac2:	0000                	unimp
    2ac4:	0002                	c.slli64	zero
    2ac6:	0000                	unimp
    2ac8:	0002                	c.slli64	zero
    2aca:	0000                	unimp
    2acc:	0002                	c.slli64	zero
    2ace:	0000                	unimp
    2ad0:	0002                	c.slli64	zero
    2ad2:	0000                	unimp
    2ad4:	0002                	c.slli64	zero
    2ad6:	0000                	unimp
    2ad8:	0002                	c.slli64	zero
    2ada:	0000                	unimp
    2adc:	0002                	c.slli64	zero
    2ade:	0000                	unimp
    2ae0:	0002                	c.slli64	zero
    2ae2:	0000                	unimp
    2ae4:	0002                	c.slli64	zero
    2ae6:	0000                	unimp
    2ae8:	0002                	c.slli64	zero
    2aea:	0000                	unimp
    2aec:	0002                	c.slli64	zero
    2aee:	0000                	unimp
    2af0:	0002                	c.slli64	zero
    2af2:	0000                	unimp
    2af4:	0002                	c.slli64	zero
    2af6:	0000                	unimp
    2af8:	0002                	c.slli64	zero
    2afa:	0000                	unimp
    2afc:	0004                	0x4
    2afe:	0000                	unimp
    2b00:	0002                	c.slli64	zero
    2b02:	0000                	unimp
    2b04:	0002                	c.slli64	zero
    2b06:	0000                	unimp
    2b08:	0004                	0x4
    2b0a:	0000                	unimp
    2b0c:	0004                	0x4
    2b0e:	0000                	unimp
    2b10:	0002                	c.slli64	zero
    2b12:	0000                	unimp
    2b14:	0002                	c.slli64	zero
    2b16:	0000                	unimp
    2b18:	0002                	c.slli64	zero
    2b1a:	0000                	unimp
    2b1c:	0002                	c.slli64	zero
    2b1e:	0000                	unimp
    2b20:	0002                	c.slli64	zero
    2b22:	0000                	unimp
    2b24:	0002                	c.slli64	zero
    2b26:	0000                	unimp
    2b28:	0002                	c.slli64	zero
    2b2a:	0000                	unimp
    2b2c:	0002                	c.slli64	zero
    2b2e:	0000                	unimp
    2b30:	0004                	0x4
    2b32:	0000                	unimp
    2b34:	0002                	c.slli64	zero
    2b36:	0000                	unimp
    2b38:	0002                	c.slli64	zero
    2b3a:	0000                	unimp
    2b3c:	0004                	0x4
    2b3e:	0000                	unimp
    2b40:	0004                	0x4
    2b42:	0000                	unimp
    2b44:	0004                	0x4
    2b46:	0000                	unimp
    2b48:	0004                	0x4
    2b4a:	0000                	unimp
    2b4c:	0002                	c.slli64	zero
    2b4e:	0000                	unimp
    2b50:	0002                	c.slli64	zero
    2b52:	0000                	unimp
    2b54:	0002                	c.slli64	zero
    2b56:	0000                	unimp
    2b58:	0002                	c.slli64	zero
    2b5a:	0000                	unimp
    2b5c:	0004                	0x4
    2b5e:	0000                	unimp
    2b60:	0002                	c.slli64	zero
    2b62:	0000                	unimp
    2b64:	0002                	c.slli64	zero
    2b66:	0000                	unimp
    2b68:	0002                	c.slli64	zero
    2b6a:	0000                	unimp
    2b6c:	0002                	c.slli64	zero
    2b6e:	0000                	unimp
    2b70:	0002                	c.slli64	zero
    2b72:	0000                	unimp
    2b74:	0002                	c.slli64	zero
    2b76:	0000                	unimp
    2b78:	0004                	0x4
    2b7a:	0000                	unimp
    2b7c:	0002                	c.slli64	zero
    2b7e:	0000                	unimp
    2b80:	0002                	c.slli64	zero
    2b82:	0000                	unimp
    2b84:	0002                	c.slli64	zero
    2b86:	0000                	unimp
    2b88:	0002                	c.slli64	zero
    2b8a:	0000                	unimp
    2b8c:	0002                	c.slli64	zero
    2b8e:	0000                	unimp
    2b90:	0002                	c.slli64	zero
    2b92:	0000                	unimp
    2b94:	0004                	0x4
    2b96:	0000                	unimp
    2b98:	0002                	c.slli64	zero
    2b9a:	0000                	unimp
    2b9c:	0002                	c.slli64	zero
    2b9e:	0000                	unimp
    2ba0:	0002                	c.slli64	zero
    2ba2:	0000                	unimp
    2ba4:	0002                	c.slli64	zero
    2ba6:	0000                	unimp
    2ba8:	0002                	c.slli64	zero
    2baa:	0000                	unimp
    2bac:	0002                	c.slli64	zero
    2bae:	0000                	unimp
    2bb0:	0004                	0x4
    2bb2:	0000                	unimp
    2bb4:	0002                	c.slli64	zero
    2bb6:	0000                	unimp
    2bb8:	0002                	c.slli64	zero
    2bba:	0000                	unimp
    2bbc:	0002                	c.slli64	zero
    2bbe:	0000                	unimp
    2bc0:	0002                	c.slli64	zero
    2bc2:	0000                	unimp
    2bc4:	0002                	c.slli64	zero
    2bc6:	0000                	unimp
    2bc8:	0002                	c.slli64	zero
    2bca:	0000                	unimp
    2bcc:	0004                	0x4
    2bce:	0000                	unimp
    2bd0:	0002                	c.slli64	zero
    2bd2:	0000                	unimp
    2bd4:	0002                	c.slli64	zero
    2bd6:	0000                	unimp
    2bd8:	0002                	c.slli64	zero
    2bda:	0000                	unimp
    2bdc:	0002                	c.slli64	zero
    2bde:	0000                	unimp
    2be0:	0002                	c.slli64	zero
    2be2:	0000                	unimp
    2be4:	0002                	c.slli64	zero
    2be6:	0000                	unimp
    2be8:	0004                	0x4
    2bea:	0000                	unimp
    2bec:	0002                	c.slli64	zero
    2bee:	0000                	unimp
    2bf0:	0002                	c.slli64	zero
    2bf2:	0000                	unimp
    2bf4:	0002                	c.slli64	zero
    2bf6:	0000                	unimp
    2bf8:	0002                	c.slli64	zero
    2bfa:	0000                	unimp
    2bfc:	0002                	c.slli64	zero
    2bfe:	0000                	unimp
    2c00:	0002                	c.slli64	zero
    2c02:	0000                	unimp
    2c04:	0004                	0x4
    2c06:	0000                	unimp
    2c08:	0002                	c.slli64	zero
    2c0a:	0000                	unimp
    2c0c:	0002                	c.slli64	zero
    2c0e:	0000                	unimp
    2c10:	0002                	c.slli64	zero
    2c12:	0000                	unimp
    2c14:	0002                	c.slli64	zero
    2c16:	0000                	unimp
    2c18:	0002                	c.slli64	zero
    2c1a:	0000                	unimp
    2c1c:	0002                	c.slli64	zero
    2c1e:	0000                	unimp
    2c20:	0004                	0x4
    2c22:	0000                	unimp
    2c24:	0002                	c.slli64	zero
    2c26:	0000                	unimp
    2c28:	0002                	c.slli64	zero
    2c2a:	0000                	unimp
    2c2c:	0002                	c.slli64	zero
    2c2e:	0000                	unimp
    2c30:	0002                	c.slli64	zero
    2c32:	0000                	unimp
    2c34:	0002                	c.slli64	zero
    2c36:	0000                	unimp
    2c38:	0002                	c.slli64	zero
    2c3a:	0000                	unimp
    2c3c:	0004                	0x4
    2c3e:	0000                	unimp
    2c40:	0002                	c.slli64	zero
    2c42:	0000                	unimp
    2c44:	0002                	c.slli64	zero
    2c46:	0000                	unimp
    2c48:	0002                	c.slli64	zero
    2c4a:	0000                	unimp
    2c4c:	0002                	c.slli64	zero
    2c4e:	0000                	unimp
    2c50:	0002                	c.slli64	zero
    2c52:	0000                	unimp
    2c54:	0002                	c.slli64	zero
    2c56:	0000                	unimp
    2c58:	0004                	0x4
    2c5a:	0000                	unimp
    2c5c:	0002                	c.slli64	zero
    2c5e:	0000                	unimp
    2c60:	0002                	c.slli64	zero
    2c62:	0000                	unimp
    2c64:	0002                	c.slli64	zero
    2c66:	0000                	unimp
    2c68:	0002                	c.slli64	zero
    2c6a:	0000                	unimp
    2c6c:	0002                	c.slli64	zero
    2c6e:	0000                	unimp
    2c70:	0002                	c.slli64	zero
    2c72:	0000                	unimp
    2c74:	0004                	0x4
    2c76:	0000                	unimp
    2c78:	0002                	c.slli64	zero
    2c7a:	0000                	unimp
    2c7c:	0002                	c.slli64	zero
    2c7e:	0000                	unimp
    2c80:	0002                	c.slli64	zero
    2c82:	0000                	unimp
    2c84:	0002                	c.slli64	zero
    2c86:	0000                	unimp
    2c88:	0002                	c.slli64	zero
    2c8a:	0000                	unimp
    2c8c:	0002                	c.slli64	zero
    2c8e:	0000                	unimp
    2c90:	0004                	0x4
    2c92:	0000                	unimp
    2c94:	0002                	c.slli64	zero
    2c96:	0000                	unimp
    2c98:	0002                	c.slli64	zero
    2c9a:	0000                	unimp
    2c9c:	0002                	c.slli64	zero
    2c9e:	0000                	unimp
    2ca0:	0002                	c.slli64	zero
    2ca2:	0000                	unimp
    2ca4:	0002                	c.slli64	zero
    2ca6:	0000                	unimp
    2ca8:	0002                	c.slli64	zero
    2caa:	0000                	unimp
    2cac:	0004                	0x4
    2cae:	0000                	unimp
    2cb0:	0002                	c.slli64	zero
    2cb2:	0000                	unimp
    2cb4:	0002                	c.slli64	zero
    2cb6:	0000                	unimp
    2cb8:	0002                	c.slli64	zero
    2cba:	0000                	unimp
    2cbc:	0002                	c.slli64	zero
    2cbe:	0000                	unimp
    2cc0:	0002                	c.slli64	zero
    2cc2:	0000                	unimp
    2cc4:	0002                	c.slli64	zero
    2cc6:	0000                	unimp
    2cc8:	0004                	0x4
    2cca:	0000                	unimp
    2ccc:	0002                	c.slli64	zero
    2cce:	0000                	unimp
    2cd0:	0002                	c.slli64	zero
    2cd2:	0000                	unimp
    2cd4:	0002                	c.slli64	zero
    2cd6:	0000                	unimp
    2cd8:	0002                	c.slli64	zero
    2cda:	0000                	unimp
    2cdc:	0002                	c.slli64	zero
    2cde:	0000                	unimp
    2ce0:	0002                	c.slli64	zero
    2ce2:	0000                	unimp
    2ce4:	0004                	0x4
    2ce6:	0000                	unimp
    2ce8:	0002                	c.slli64	zero
    2cea:	0000                	unimp
    2cec:	0002                	c.slli64	zero
    2cee:	0000                	unimp
    2cf0:	0002                	c.slli64	zero
    2cf2:	0000                	unimp
    2cf4:	0002                	c.slli64	zero
    2cf6:	0000                	unimp
    2cf8:	0002                	c.slli64	zero
    2cfa:	0000                	unimp
    2cfc:	0002                	c.slli64	zero
    2cfe:	0000                	unimp
    2d00:	0004                	0x4
    2d02:	0000                	unimp
    2d04:	0002                	c.slli64	zero
    2d06:	0000                	unimp
    2d08:	0002                	c.slli64	zero
    2d0a:	0000                	unimp
    2d0c:	0002                	c.slli64	zero
    2d0e:	0000                	unimp
    2d10:	0002                	c.slli64	zero
    2d12:	0000                	unimp
    2d14:	0002                	c.slli64	zero
    2d16:	0000                	unimp
    2d18:	0002                	c.slli64	zero
    2d1a:	0000                	unimp
    2d1c:	0004                	0x4
    2d1e:	0000                	unimp
    2d20:	0002                	c.slli64	zero
    2d22:	0000                	unimp
    2d24:	0002                	c.slli64	zero
    2d26:	0000                	unimp
    2d28:	0002                	c.slli64	zero
    2d2a:	0000                	unimp
    2d2c:	0002                	c.slli64	zero
    2d2e:	0000                	unimp
    2d30:	0002                	c.slli64	zero
    2d32:	0000                	unimp
    2d34:	0002                	c.slli64	zero
    2d36:	0000                	unimp
    2d38:	0004                	0x4
    2d3a:	0000                	unimp
    2d3c:	0002                	c.slli64	zero
    2d3e:	0000                	unimp
    2d40:	0002                	c.slli64	zero
    2d42:	0000                	unimp
    2d44:	0002                	c.slli64	zero
    2d46:	0000                	unimp
    2d48:	0002                	c.slli64	zero
    2d4a:	0000                	unimp
    2d4c:	0002                	c.slli64	zero
    2d4e:	0000                	unimp
    2d50:	0002                	c.slli64	zero
    2d52:	0000                	unimp
    2d54:	0004                	0x4
    2d56:	0000                	unimp
    2d58:	0002                	c.slli64	zero
    2d5a:	0000                	unimp
    2d5c:	0002                	c.slli64	zero
    2d5e:	0000                	unimp
    2d60:	0002                	c.slli64	zero
    2d62:	0000                	unimp
    2d64:	0002                	c.slli64	zero
    2d66:	0000                	unimp
    2d68:	0002                	c.slli64	zero
    2d6a:	0000                	unimp
    2d6c:	0002                	c.slli64	zero
    2d6e:	0000                	unimp
    2d70:	0004                	0x4
    2d72:	0000                	unimp
    2d74:	0002                	c.slli64	zero
    2d76:	0000                	unimp
    2d78:	0002                	c.slli64	zero
    2d7a:	0000                	unimp
    2d7c:	0002                	c.slli64	zero
    2d7e:	0000                	unimp
    2d80:	0002                	c.slli64	zero
    2d82:	0000                	unimp
    2d84:	0002                	c.slli64	zero
    2d86:	0000                	unimp
    2d88:	0002                	c.slli64	zero
    2d8a:	0000                	unimp
    2d8c:	0004                	0x4
    2d8e:	0000                	unimp
    2d90:	0002                	c.slli64	zero
    2d92:	0000                	unimp
    2d94:	0002                	c.slli64	zero
    2d96:	0000                	unimp
    2d98:	0002                	c.slli64	zero
    2d9a:	0000                	unimp
    2d9c:	0002                	c.slli64	zero
    2d9e:	0000                	unimp
    2da0:	0002                	c.slli64	zero
    2da2:	0000                	unimp
    2da4:	0002                	c.slli64	zero
    2da6:	0000                	unimp
    2da8:	0004                	0x4
    2daa:	0000                	unimp
    2dac:	0002                	c.slli64	zero
    2dae:	0000                	unimp
    2db0:	0002                	c.slli64	zero
    2db2:	0000                	unimp
    2db4:	0002                	c.slli64	zero
    2db6:	0000                	unimp
    2db8:	0002                	c.slli64	zero
    2dba:	0000                	unimp
    2dbc:	0002                	c.slli64	zero
    2dbe:	0000                	unimp
    2dc0:	0002                	c.slli64	zero
    2dc2:	0000                	unimp
    2dc4:	0004                	0x4
    2dc6:	0000                	unimp
    2dc8:	0002                	c.slli64	zero
    2dca:	0000                	unimp
    2dcc:	0002                	c.slli64	zero
    2dce:	0000                	unimp
    2dd0:	0002                	c.slli64	zero
    2dd2:	0000                	unimp
    2dd4:	0002                	c.slli64	zero
    2dd6:	0000                	unimp
    2dd8:	0002                	c.slli64	zero
    2dda:	0000                	unimp
    2ddc:	0002                	c.slli64	zero
    2dde:	0000                	unimp
    2de0:	0004                	0x4
    2de2:	0000                	unimp
    2de4:	0002                	c.slli64	zero
    2de6:	0000                	unimp
    2de8:	0002                	c.slli64	zero
    2dea:	0000                	unimp
    2dec:	0002                	c.slli64	zero
    2dee:	0000                	unimp
    2df0:	0002                	c.slli64	zero
    2df2:	0000                	unimp
    2df4:	0002                	c.slli64	zero
    2df6:	0000                	unimp
    2df8:	0002                	c.slli64	zero
    2dfa:	0000                	unimp
    2dfc:	0004                	0x4
    2dfe:	0000                	unimp
    2e00:	0002                	c.slli64	zero
    2e02:	0000                	unimp
    2e04:	0002                	c.slli64	zero
    2e06:	0000                	unimp
    2e08:	0002                	c.slli64	zero
    2e0a:	0000                	unimp
    2e0c:	0002                	c.slli64	zero
    2e0e:	0000                	unimp
    2e10:	0002                	c.slli64	zero
    2e12:	0000                	unimp
    2e14:	0002                	c.slli64	zero
    2e16:	0000                	unimp
    2e18:	0004                	0x4
    2e1a:	0000                	unimp
    2e1c:	0002                	c.slli64	zero
    2e1e:	0000                	unimp
    2e20:	0002                	c.slli64	zero
    2e22:	0000                	unimp
    2e24:	0002                	c.slli64	zero
    2e26:	0000                	unimp
    2e28:	0002                	c.slli64	zero
    2e2a:	0000                	unimp
    2e2c:	0002                	c.slli64	zero
    2e2e:	0000                	unimp
    2e30:	0002                	c.slli64	zero
    2e32:	0000                	unimp
    2e34:	0004                	0x4
    2e36:	0000                	unimp
    2e38:	0002                	c.slli64	zero
    2e3a:	0000                	unimp
    2e3c:	0002                	c.slli64	zero
    2e3e:	0000                	unimp
    2e40:	0002                	c.slli64	zero
    2e42:	0000                	unimp
    2e44:	0002                	c.slli64	zero
    2e46:	0000                	unimp
    2e48:	0002                	c.slli64	zero
    2e4a:	0000                	unimp
    2e4c:	0002                	c.slli64	zero
    2e4e:	0000                	unimp
    2e50:	0004                	0x4
    2e52:	0000                	unimp
    2e54:	0002                	c.slli64	zero
    2e56:	0000                	unimp
    2e58:	0002                	c.slli64	zero
    2e5a:	0000                	unimp
    2e5c:	0002                	c.slli64	zero
    2e5e:	0000                	unimp
    2e60:	0002                	c.slli64	zero
    2e62:	0000                	unimp
    2e64:	0002                	c.slli64	zero
    2e66:	0000                	unimp
    2e68:	0002                	c.slli64	zero
    2e6a:	0000                	unimp
    2e6c:	0004                	0x4
    2e6e:	0000                	unimp
    2e70:	0002                	c.slli64	zero
    2e72:	0000                	unimp
    2e74:	0002                	c.slli64	zero
    2e76:	0000                	unimp
    2e78:	0002                	c.slli64	zero
    2e7a:	0000                	unimp
    2e7c:	0002                	c.slli64	zero
    2e7e:	0000                	unimp
    2e80:	0002                	c.slli64	zero
    2e82:	0000                	unimp
    2e84:	0002                	c.slli64	zero
    2e86:	0000                	unimp
    2e88:	0004                	0x4
    2e8a:	0000                	unimp
    2e8c:	0002                	c.slli64	zero
    2e8e:	0000                	unimp
    2e90:	0002                	c.slli64	zero
    2e92:	0000                	unimp
    2e94:	0002                	c.slli64	zero
    2e96:	0000                	unimp
    2e98:	0002                	c.slli64	zero
    2e9a:	0000                	unimp
    2e9c:	0002                	c.slli64	zero
    2e9e:	0000                	unimp
    2ea0:	0002                	c.slli64	zero
    2ea2:	0000                	unimp
    2ea4:	0004                	0x4
    2ea6:	0000                	unimp
    2ea8:	0002                	c.slli64	zero
    2eaa:	0000                	unimp
    2eac:	0002                	c.slli64	zero
    2eae:	0000                	unimp
    2eb0:	0002                	c.slli64	zero
    2eb2:	0000                	unimp
    2eb4:	0002                	c.slli64	zero
    2eb6:	0000                	unimp
    2eb8:	0002                	c.slli64	zero
    2eba:	0000                	unimp
    2ebc:	0002                	c.slli64	zero
    2ebe:	0000                	unimp
    2ec0:	0004                	0x4
    2ec2:	0000                	unimp
    2ec4:	0004                	0x4
    2ec6:	0000                	unimp
    2ec8:	00000003          	lb	zero,0(zero) # 0 <_sinit>
    2ecc:	00000003          	lb	zero,0(zero) # 0 <_sinit>
    2ed0:	0002                	c.slli64	zero
    2ed2:	0000                	unimp
    2ed4:	00000003          	lb	zero,0(zero) # 0 <_sinit>
    2ed8:	00000003          	lb	zero,0(zero) # 0 <_sinit>
    2edc:	0002                	c.slli64	zero
    2ede:	0000                	unimp
    2ee0:	00000003          	lb	zero,0(zero) # 0 <_sinit>
    2ee4:	00000003          	lb	zero,0(zero) # 0 <_sinit>
    2ee8:	0002                	c.slli64	zero
    2eea:	0000                	unimp
    2eec:	00000003          	lb	zero,0(zero) # 0 <_sinit>
    2ef0:	00000003          	lb	zero,0(zero) # 0 <_sinit>
    2ef4:	0002                	c.slli64	zero
    2ef6:	0000                	unimp
    2ef8:	00000003          	lb	zero,0(zero) # 0 <_sinit>
    2efc:	00000003          	lb	zero,0(zero) # 0 <_sinit>
    2f00:	0002                	c.slli64	zero
    2f02:	0000                	unimp
    2f04:	00000003          	lb	zero,0(zero) # 0 <_sinit>
    2f08:	00000003          	lb	zero,0(zero) # 0 <_sinit>
    2f0c:	0002                	c.slli64	zero
    2f0e:	0000                	unimp
    2f10:	00000003          	lb	zero,0(zero) # 0 <_sinit>
    2f14:	00000003          	lb	zero,0(zero) # 0 <_sinit>
    2f18:	0002                	c.slli64	zero
    2f1a:	0000                	unimp
    2f1c:	00000003          	lb	zero,0(zero) # 0 <_sinit>
    2f20:	00000003          	lb	zero,0(zero) # 0 <_sinit>
    2f24:	0002                	c.slli64	zero
    2f26:	0000                	unimp
    2f28:	0010                	0x10
    2f2a:	0000                	unimp
    2f2c:	f9c3e4b7          	lui	s1,0xf9c3e
    2f30:	f7c6                	fsw	fa7,236(sp)
    2f32:	f4d2                	fsw	fs4,104(sp)
    2f34:	d6c0                	sw	s0,44(a3)
    2f36:	a5b2                	sh	a2,10(a1)
    2f38:	ddd1c5b7          	lui	a1,0xddd1c
    2f3c:	beca                	sh	a0,60(a3)
    2f3e:	bccaaabf 0d2e2e2e 	0xd2e2e2ebccaaabf
    2f46:	0000                	unimp
    2f48:	5750                	lw	a2,44(a4)
    2f4a:	ca4d                	beqz	a2,2ffc <_data_lma+0xa0>
    2f4c:	d6b1                	beqz	a3,2e98 <memcpy+0x1c16>
    2f4e:	b6ccb9d3          	0xb6ccb9d3
    2f52:	cea8                	sw	a0,88(a3)
    2f54:	31aa                	lhu	a0,34(a1)
    2f56:	484d                	li	a6,19
    2f58:	0d7a                	slli	s10,s10,0x1e
	...
