
WCH-CH32V307VCT6-LAN.elf:     file format elf32-littleriscv
WCH-CH32V307VCT6-LAN.elf
architecture: riscv:rv32, flags 0x00000112:
EXEC_P, HAS_SYMS, D_PAGED
start address 0x00000000

Program Header:
    LOAD off    0x00001000 vaddr 0x00000000 paddr 0x00000000 align 2**12
         filesz 0x00009848 memsz 0x00009848 flags r-x
    LOAD off    0x0000b000 vaddr 0x20000000 paddr 0x00009848 align 2**12
         filesz 0x00000078 memsz 0x00008c18 flags rw-
    LOAD off    0x0000b800 vaddr 0x2000f800 paddr 0x2000f800 align 2**12
         filesz 0x00000000 memsz 0x00000800 flags rw-

Sections:
Idx Name           Size      VMA       LMA       File off  Algn  Flags
  0 .init          00000004  00000000  00000000  00001000  2**1  CONTENTS, ALLOC, LOAD, READONLY, CODE
  1 .vector        000001bc  00000004  00000004  00001004  2**1  CONTENTS, ALLOC, LOAD, READONLY, CODE
  2 .text          00009688  000001c0  000001c0  000011c0  2**2  CONTENTS, ALLOC, LOAD, READONLY, CODE
  3 .fini          00000000  00009848  00009848  0000b078  2**0  CONTENTS, ALLOC, LOAD, CODE
  4 .dalign        00000000  20000000  20000000  0000b078  2**0  CONTENTS
  5 .dlalign       00000000  00009848  00009848  0000b078  2**0  CONTENTS
  6 .data          00000078  20000000  00009848  0000b000  2**2  CONTENTS, ALLOC, LOAD, DATA
  7 .bss           00008ba0  20000078  000098c0  0000b078  2**2  ALLOC
  8 .stack         00000800  2000f800  2000f800  0000b800  2**0  ALLOC
  9 .debug_info    0001561b  00000000  00000000  0000b078  2**0  CONTENTS, READONLY, DEBUGGING
 10 .debug_abbrev  000033f6  00000000  00000000  00020693  2**0  CONTENTS, READONLY, DEBUGGING
 11 .debug_aranges 00000e30  00000000  00000000  00023a90  2**3  CONTENTS, READONLY, DEBUGGING
 12 .debug_ranges  00000e70  00000000  00000000  000248c0  2**3  CONTENTS, READONLY, DEBUGGING
 13 .debug_line    00011591  00000000  00000000  00025730  2**0  CONTENTS, READONLY, DEBUGGING
 14 .debug_str     00004932  00000000  00000000  00036cc1  2**0  CONTENTS, READONLY, DEBUGGING
 15 .comment       00000033  00000000  00000000  0003b5f3  2**0  CONTENTS, READONLY
 16 .debug_frame   00001fa4  00000000  00000000  0003b628  2**2  CONTENTS, READONLY, DEBUGGING
 17 .debug_loc     00005a19  00000000  00000000  0003d5cc  2**0  CONTENTS, READONLY, DEBUGGING
SYMBOL TABLE:
00000000 l    d  .init	00000000 .init
00000004 l    d  .vector	00000000 .vector
000001c0 l    d  .text	00000000 .text
00009848 l    d  .fini	00000000 .fini
20000000 l    d  .dalign	00000000 .dalign
00009848 l    d  .dlalign	00000000 .dlalign
20000000 l    d  .data	00000000 .data
20000078 l    d  .bss	00000000 .bss
2000f800 l    d  .stack	00000000 .stack
00000000 l    d  .debug_info	00000000 .debug_info
00000000 l    d  .debug_abbrev	00000000 .debug_abbrev
00000000 l    d  .debug_aranges	00000000 .debug_aranges
00000000 l    d  .debug_ranges	00000000 .debug_ranges
00000000 l    d  .debug_line	00000000 .debug_line
00000000 l    d  .debug_str	00000000 .debug_str
00000000 l    d  .comment	00000000 .comment
00000000 l    d  .debug_frame	00000000 .debug_frame
00000000 l    d  .debug_loc	00000000 .debug_loc
00000000 l    df *ABS*	00000000 ./Startup/startup_ch32v30x_D8C.o
00000004 l       .vector	00000000 _vector_base
00000000 l    df *ABS*	00000000 ch32v30x_it.c
00000000 l    df *ABS*	00000000 main.c
00000000 l    df *ABS*	00000000 system_ch32v30x.c
00000000 l    df *ABS*	00000000 ch32v30x_dbgmcu.c
00000000 l    df *ABS*	00000000 ch32v30x_eth.c
00000000 l    df *ABS*	00000000 ch32v30x_exti.c
00000000 l    df *ABS*	00000000 ch32v30x_gpio.c
00000000 l    df *ABS*	00000000 ch32v30x_i2c.c
00000000 l    df *ABS*	00000000 ch32v30x_rcc.c
20000010 l     O .data	00000010 APBAHBPrescTable
20000038 l     O .data	00000004 ADCPrescTable
00000000 l    df *ABS*	00000000 ch32v30x_tim.c
00000000 l    df *ABS*	00000000 ch32v30x_usart.c
00000000 l    df *ABS*	00000000 eth_driver_10M.c
00000000 l    df *ABS*	00000000 ES8388.c
00000000 l    df *ABS*	00000000 led.c
00000000 l    df *ABS*	00000000 debug.c
200000c4 l     O .bss	00000002 p_ms
200000c6 l     O .bss	00000001 p_us
00000000 l    df *ABS*	00000000 core_riscv.c
00000000 l    df *ABS*	00000000 eth_api.c
00000000 l    df *ABS*	00000000 ipcheck.c
00000000 l    df *ABS*	00000000 socket.c
00000000 l    df *ABS*	00000000 etharp.c
0000391e l     F .text	0000017e find_entry
00003a9c l     F .text	000000b2 update_arp_entry
200000f4 l     O .bss	00000001 etharp_cached_entry
00000000 l    df *ABS*	00000000 ethernetif.c
0000412c l     F .text	00000052 low_level_output
00000000 l    df *ABS*	00000000 inet.c
00000000 l    df *ABS*	00000000 ip.c
20000100 l     O .bss	00000002 ip_id.2936
00000000 l    df *ABS*	00000000 ip_addr.c
00000000 l    df *ABS*	00000000 ip_frag.c
20000102 l     O .bss	00000002 ip_reass_pbufcount
20000104 l     O .bss	00000004 reassdatagrams
00000000 l    df *ABS*	00000000 dhcp.c
00004db0 l     F .text	0000000e dhcp_set_state
00004dbe l     F .text	00000020 dhcp_option
00004dde l     F .text	00000012 dhcp_option_byte
00004df0 l     F .text	00000048 dhcp_option_long
00004e38 l     F .text	00000034 dhcp_option_trailer
00004e6c l     F .text	0000018a dhcp_create_request
00004ff6 l     F .text	0000001e dhcp_delete_request
00000000 l    df *ABS*	00000000 init.c
00000000 l    df *ABS*	00000000 mem.c
20000108 l     O .bss	00000004 lfree
2000010c l     O .bss	00000004 ram
20000110 l     O .bss	00000004 ram_end
00000000 l    df *ABS*	00000000 memp.c
20008be4 l     O .bss	00000020 memp_tab
00000000 l    df *ABS*	00000000 netif.c
2000011c l     O .bss	00000001 netifnum.2471
00000000 l    df *ABS*	00000000 pbuf.c
00000000 l    df *ABS*	00000000 raw.c
20000120 l     O .bss	00000004 raw_pcbs
00000000 l    df *ABS*	00000000 tcp.c
00005a82 l     F .text	0000005c tcp_new_port
20000134 l     O .bss	00000001 tcp_timer
20000050 l     O .data	00000004 iss.3186
20000054 l     O .data	00000002 port.3018
00000000 l    df *ABS*	00000000 tcp_in.c
0000659a l     F .text	000000ce tcp_oos_insert_segment
00006668 l     F .text	000008f0 tcp_receive
00006f58 l     F .text	000000a6 tcp_parseopt.isra.0
20008c04 l     O .bss	00000014 inseg
20000140 l     O .bss	00000004 ackno
20000144 l     O .bss	00000001 flags
20000148 l     O .bss	00000004 iphdr
2000014c l     O .bss	00000004 recv_data
20000150 l     O .bss	00000001 recv_flags
20000154 l     O .bss	00000004 seqno
2000015c l     O .bss	00000004 tcphdr
20000160 l     O .bss	00000002 tcplen
00000000 l    df *ABS*	00000000 tcp_out.c
000079d4 l     F .text	000000d4 tcp_output_set_header.isra.0.constprop.1
00000000 l    df *ABS*	00000000 udp.c
00000000 l    df *ABS*	00000000 icmp.c
00008aea l     F .text	00000076 icmp_send_response.isra.0
00000000 l    df *ABS*	00000000 inet_chksum.c
00008dd8 l     F .text	0000007e lwip_standard_chksum
00000000 l    df *ABS*	00000000 wchprintf.c
00000000 l    df *ABS*	00000000 memcpy.c
00000000 l    df *ABS*	00000000 net_dhcp.c
000091fe  w    F .text	00000004 printDouble
00000936  w      .text	00000000 EXTI2_IRQHandler
00009590 g     F .text	00000018 putchar
00008f60 g     F .text	00000014 inet_chksum
00000572 g     F .text	0000005e WCHNET_HandleGlobalInt
00000936  w      .text	00000000 TIM8_TRG_COM_IRQHandler
00005982 g     F .text	0000001e raw_bind
00004856 g     F .text	000003dc ip_reass
00000936  w      .text	00000000 TIM8_CC_IRQHandler
000057da g     F .text	00000058 pbuf_realloc
20000032 g     O .data	00000002 srcport
000062fe g     F .text	00000010 tcp_next_iss
00005bf4 g     F .text	00000048 tcp_update_rcv_ann_wnd
00002968 g     F .text	00000012 setRxBuffAddr
00000c0e g     F .text	00000010 ETH_FlushTransmitFIFO
00001202 g     F .text	0000001e RCC_AHBPeriphResetCmd
20000118 g     O .bss	00000004 netif_list
00000936  w      .text	00000000 UART8_IRQHandler
0000830e g     F .text	00000108 tcp_rst
000024f4 g     F .text	00000040 ES8388_close
00009202  w    F .text	00000320 print
200000e0 g     O .bss	00000004 TCPTimer
00003d5e g     F .text	000000ce etharp_request
00009522  w    F .text	00000024 printf
20000820 g       .data	00000000 __global_pointer$
000001c8 g     F .text	00000028 .hidden __riscv_save_8
00005cf8 g     F .text	00000006 tcp_err
20000068 g     O .data	00000004 ip_addr_any
00000936  w      .text	00000000 TIM1_CC_IRQHandler
00008e56 g     F .text	0000010a inet_chksum_pseudo
000009e8 g     F .text	000000d8 ETH_StructInit
00002ef6 g     F .text	00000016 WCHNET_ConfigKeepLive
00007ef0 g     F .text	00000016 tcp_send_ctrl
000002ca g     F .text	00000052 HardFault_Handler
00004596 g     F .text	0000015a ip_output_if
0000547a g     F .text	00000018 memp_free
00009108  w    F .text	000000f2 printInt
000005d0 g     F .text	0000002e Switch_Init
0000564c g     F .text	0000004e pbuf_free
00000214 g     F .text	0000000c .hidden __riscv_restore_3
000037e2 g     F .text	00000014 WCHNET_GetGlobalInt
00005cec g     F .text	00000006 tcp_recv
00000936  w      .text	00000000 TIM6_IRQHandler
00002118 g     F .text	0000008e ETH_Init
00000936  w      .text	00000000 SysTick_Handler
0000584e g     F .text	0000001c pbuf_cat
00000936  w      .text	00000000 PVD_IRQHandler
00000936  w      .text	00000000 SDIO_IRQHandler
000046f0 g     F .text	00000036 ip_output
00001a32 g     F .text	00000056 ETH_LinkUpCfg
00000936  w      .text	00000000 TIM9_BRK_IRQHandler
00002374 g     F .text	00000180 ES8388_Init
00000200 g     F .text	00000020 .hidden __riscv_restore_10
00001c2e g     F .text	00000272 ReInitMACReg
00008a02 g     F .text	0000002e udp_sendto
000013b6 g     F .text	00000040 ETH_TxPktChainMode
200000e8 g     O .bss	00000004 phydatatime
00000936  w      .text	00000000 DMA2_Channel8_IRQHandler
000002c8 g     F .text	00000002 NMI_Handler
0000852a g     F .text	0000005e tcp_keepalive
00000936  w      .text	00000000 CAN2_RX1_IRQHandler
00000936  w      .text	00000000 EXTI3_IRQHandler
00002e4a g     F .text	000000ac WCHNET_Init
000001c8 g     F .text	00000028 .hidden __riscv_save_11
00003b4e g     F .text	0000004e etharp_tmr
000009c6 g     F .text	0000000a DBGMCU_GetCHIPID
0000630e g     F .text	00000134 tcp_alloc
00002870 g     F .text	00000014 WCHNET_NetInput
000097d0 g     O .text	00000010 MemSize
0000892c g     F .text	000000d6 udp_sendto_if
0000209a g     F .text	0000007e WCHNET_ETHIsr
00005ce8 g     F .text	00000004 tcp_arg
00000936  w      .text	00000000 USBHS_IRQHandler
00003bf6 g     F .text	00000168 etharp_arp_input
20000124 g     O .bss	00000004 tcp_active_pcbs
000013ac g     F .text	0000000a USART_GetFlagStatus
00000936  w      .text	00000000 DMA2_Channel9_IRQHandler
20000164 g     O .bss	00000004 udp_pcbs
00000936  w      .text	00000000 TIM10_CC_IRQHandler
20000078 g     O .bss	00000006 MACAddr
00004042 g     F .text	00000086 ethernet_input
20000078 g       .bss	00000000 _sbss
00000800 g       *ABS*	00000000 __stack_size
00005844 g     F .text	0000000a pbuf_ref
0000260e g     F .text	0000005a USART_Printf_Init
00003660 g     F .text	00000056 WCHNET_SocketSend
2000008c g     O .bss	00000004 ChipId
00006134 g     F .text	00000030 tcp_recv_null
200000ec g     O .bss	00000001 SockNumber
00000936  w      .text	00000000 USBFS_IRQHandler
00006082 g     F .text	000000b2 tcp_close
20008ab8 g     O .bss	0000000c SelARP
00005c3c g     F .text	0000003c tcp_recved
000004c2 g     F .text	000000b0 WCHNET_HandleSockInt
00000214 g     F .text	0000000c .hidden __riscv_restore_2
20000094 g     O .bss	00000004 LinkSuccTime
00005d08 g     F .text	0000004e tcp_pcb_purge
000013f6 g     F .text	00000022 ETH_LedDataSet
20000070 g     O .data	00000007 tcp_persist_backoff
000009d0 g     F .text	00000018 ETH_DeInit
000095a8 g     F .text	000000b2 memcpy
000051ec g     F .text	00000084 mem_free
20000130 g     O .bss	00000004 tcp_ticks
2000012c g     O .bss	00000004 tcp_listen_pcbs
00008416 g     F .text	00000036 tcp_rexmit_rto
00000d40 g     F .text	000000d6 GPIO_PinRemapConfig
00004726 g     F .text	0000004a ip_addr_isbroadcast
000091fa  w    F .text	00000004 printLongLongInt
20000084 g     O .bss	00000004 DMARxDescToGet
00006442 g     F .text	00000010 tcp_new
00000936  w      .text	00000000 EXTI0_IRQHandler
00000936  w      .text	00000000 I2C2_EV_IRQHandler
000029ac g     F .text	0000000e GetChipID
00000936  w      .text	00000000 TIM10_TRG_COM_IRQHandler
00002a7c g     F .text	00000042 IPCheckTmr
000012ca g     F .text	00000018 TIM_Cmd
00009546 g     F .text	0000004a puts
20008ac4 g     O .bss	00000018 DHCPCtrl
20000034 g     O .data	00000004 SystemCoreClock
00005a42 g     F .text	00000010 raw_send
00008f74 g     F .text	0000006a inet_chksum_pbuf
00000410 g     F .text	00000068 WCHNET_CreateTcpSocket
00008b60 g     F .text	00000250 icmp_input
00000004 g       .init	00000000 _einit
000012f4 g     F .text	0000000c TIM_ClearITPendingBit
00005576 g     F .text	0000005a netif_add
00001152 g     F .text	0000001e RCC_APB2PeriphClockCmd
000001c0 g     F .text	00000030 .hidden __riscv_save_12
00005ca2 g     F .text	0000001e tcp_segs_free
000037a4 g     F .text	0000003e WCHNET_QueryGlobalInt
00000936  w      .text	00000000 CAN2_SCE_IRQHandler
00000936  w      .text	00000000 ADC1_2_IRQHandler
0000382a g     F .text	00000054 WCHNET_SocketSetKeepLive
00000c78 g     F .text	000000c0 GPIO_Init
200000b4 g     O .bss	00000001 phyLinkCnt
00000936  w      .text	00000000 Break_Point_Handler
00005492 g     F .text	00000096 netif_set_ipaddr
00000200 g     F .text	00000020 .hidden __riscv_restore_11
00000936  w      .text	00000000 SPI1_IRQHandler
0000138e g     F .text	00000016 USART_Cmd
000037f6 g     F .text	0000002a WCHNET_GetSocketInt
00007f06 g     F .text	00000030 tcp_write
00000936  w      .text	00000000 TAMPER_IRQHandler
000001f0 g     F .text	0000000c .hidden __riscv_save_1
00002534 g     F .text	00000048 LED_Init
20000080 g     O .bss	00000001 socket
20008b80 g     O .bss	0000002c WCHCfg
00000214 g     F .text	0000000c .hidden __riscv_restore_0
000061e8 g     F .text	0000007c tcp_fastsendack
00001ee0 g     F .text	000000da ETH_RegInit
000001d6 g     F .text	0000001a .hidden __riscv_save_7
00000936  w      .text	00000000 CAN2_RX0_IRQHandler
20000040 g     O .data	00000004 DHCPXid
00005ade g     F .text	00000116 tcp_bind
00008dc4 g     F .text	00000014 icmp_time_exceeded
20002430 g     O .bss	00002a00 MACRxBuf
00000936  w      .text	00000000 TIM8_UP_IRQHandler
00004c32 g     F .text	0000017e ip_frag
00001170 g     F .text	0000001e RCC_APB1PeriphClockCmd
0000330c g     F .text	000000e8 WCHNET_SocketRecv
200000ac g     O .bss	00000004 pDMARxSet
00000936  w      .text	00000000 Ecall_M_Mode_Handler
2000f800 g       .stack	00000000 _heap_end
20008adc g     O .bss	00000040 dhcp_host_name
000059c4 g     F .text	0000007e raw_sendto
000025a2 g     F .text	00000036 Delay_Us
0000020a g     F .text	00000016 .hidden __riscv_restore_5
2000007e g     O .bss	00000001 SocketId
00000936  w      .text	00000000 DMA2_Channel2_IRQHandler
00001134 g     F .text	0000001e RCC_AHBPeriphClockCmd
00000936  w      .text	00000000 DMA1_Channel4_IRQHandler
00000f60 g     F .text	00000004 I2C_SendData
0000587e g     F .text	0000009c pbuf_copy
0000844c g     F .text	0000007c tcp_rexmit
00002b2c g     F .text	00000004 LwipTCPPollCallBack
0000222a g     F .text	0000002a ES8388_Contrl_Init
20000088 g     O .bss	00000004 DMATxDescToSet
2000002c g     O .data	00000004 IPMask
00000e16 g     F .text	000000fe I2C_Init
00000936  w      .text	00000000 TIM9_UP_IRQHandler
200000a5 g     O .bss	00000001 TRDetectCnt
0000020a g     F .text	00000016 .hidden __riscv_restore_6
00000936  w      .text	00000000 USART3_IRQHandler
00000c6e g     F .text	0000000a EXTI_ClearITPendingBit
00000936  w      .text	00000000 RTC_IRQHandler
20000138 g     O .bss	00000004 tcp_tmp_pcb
20008c18 g       .bss	00000000 _ebss
20005ee0 g     O .bss	0000127c Mem_Heap_Memory
00000936  w      .text	00000000 DMA1_Channel7_IRQHandler
200000d0 g     O .bss	00000004 DHCPcoarseTimer
20000090 g     O .bss	00000001 DuplexMode
00000936  w      .text	00000000 CAN1_RX1_IRQHandler
0000257c g     F .text	00000026 Delay_Init
000051ae g     F .text	0000003e mem_init
00000c06 g     F .text	00000008 ETH_DMAClearITPendingBit
00000936  w      .text	00000000 DVP_IRQHandler
00000936  w      .text	00000000 UART5_IRQHandler
0000118e g     F .text	0000002e RCC_GetFlagStatus
200000a8 g     O .bss	00000002 gPHYAddress
200000c0 g     O .bss	00000001 phyNegoStat
00007fa6 g     F .text	00000368 tcp_output
00001418 g     F .text	00000022 ETH_LedLinkSet
00000d38 g     F .text	00000004 GPIO_SetBits
00000936  w      .text	00000000 TIM4_IRQHandler
20000158 g     O .bss	00000004 tcp_input_pcb
0000591a g     F .text	00000068 raw_input
00007f36 g     F .text	00000070 tcp_send_empty_ack
000001c8 g     F .text	00000028 .hidden __riscv_save_9
000084c8 g     F .text	00000062 tcp_rexmit_fast
00000936  w      .text	00000000 DMA2_Channel1_IRQHandler
2000715c g     O .bss	0000191f Memp_Memory
00000c50 g     F .text	0000001e ETH_DMAITConfig
000041ee g     F .text	00000076 wch_ethernetif_init
000029ba g     F .text	0000006c getTxBuffAddr
000042a4 g     F .text	0000000c ntohl
00000f2c g     F .text	0000001a I2C_GenerateSTART
00000bf8 g     F .text	0000000e ETH_SoftwareReset
000001d6 g     F .text	0000001a .hidden __riscv_save_4
000055d0 g     F .text	00000006 netif_set_default
00002dfe g     F .text	0000004c WCHSocketInit
00000b18 g     F .text	00000052 ETH_WritePHYRegister
00008ac0 g     F .text	00000006 udp_recv
00000936  w      .text	00000000 I2C1_EV_IRQHandler
200000b5 g     O .bss	00000001 phyLinkReset
00002abe g     F .text	0000002e IPConflictHandle
0000569a g     F .text	00000140 pbuf_alloc
00002a44 g     F .text	00000038 SelIPARPSend
000036b6 g     F .text	00000052 WCHScokedIntHandle
00000fbe g     F .text	00000176 RCC_GetClocksFreq
00001836 g     F .text	0000018e WCHNET_HandlePhyNegotiation
00000936  w      .text	00000000 DMA1_Channel6_IRQHandler
2000003d g     O .data	00000001 phyPN
00000936  w      .text	00000000 UART4_IRQHandler
00000936  w      .text	00000000 DMA2_Channel4_IRQHandler
2000006c g     O .data	00000004 ip_addr_broadcast
00004770 g     F .text	000000e6 ip_reass_tmr
00001300 g     F .text	0000008e USART_Init
2000004c g     O .data	00000004 memp_sizes
0000143a g     F .text	00000020 WCHNET_GetMacAddr
00000936  w      .text	00000000 TIM3_IRQHandler
00000936  w      .text	00000000 RCC_IRQHandler
20002410 g     O .bss	00000020 DMATxDscrTab
000001f0 g     F .text	0000000c .hidden __riscv_save_3
00008a42 g     F .text	0000007e udp_connect
00000936  w      .text	00000000 TIM1_TRG_COM_IRQHandler
000097e0 g     O .text	00000010 ErrTable
00000936  w      .text	00000000 DMA1_Channel1_IRQHandler
00005528 g     F .text	0000004e netif_set_addr
00005014 g     F .text	00000182 dhcp_arp_reply
200000f0 g     O .bss	00000004 tcpSendAckFlag
00000000 g       .init	00000000 _start
00000936  w      .text	00000000 DMA2_Channel7_IRQHandler
20000000 g     O .data	00000010 AHBPrescTable
00000f8c g     F .text	00000032 I2C_GetFlagStatus
2000003c g     O .data	00000001 LinkTaskPeriod
0000545a g     F .text	00000020 memp_malloc
00008588 g     F .text	000000d2 tcp_zero_window_probe
00009028  w    F .text	000000e0 prints
00000936  w      .text	00000000 EXTI15_10_IRQHandler
000012e2 g     F .text	00000012 TIM_ITConfig
20008b30 g     O .bss	0000000c KeepLiveCfg
0000309e g     F .text	000001d2 WCHNET_SocketCreat
200000c1 g     O .bss	00000001 phyStatus
000032ba g     F .text	00000052 WCHNET_ModifyRecvBuf
20008bac g     O .bss	00000038 WCHNetIf
20000128 g     O .bss	00000004 tcp_bound_pcbs
00004280 g     F .text	00000024 htonl
00005c78 g     F .text	0000002a tcp_seg_free
00000f14 g     F .text	00000018 I2C_Cmd
00003708 g     F .text	0000009c LwipRemoveTcpPcb
00000d3c g     F .text	00000004 GPIO_ResetBits
000026ac g     F .text	00000006 __get_MCAUSE
00000936  w      .text	00000000 TIM7_IRQHandler
200000bc g     O .bss	00000004 phyNegoLinkTime
00006480 g     F .text	000000e8 tcp_connect
0000533a g     F .text	000000d0 mem_malloc
00000936  w      .text	00000000 CAN2_TX_IRQHandler
20000000 g       .dalign	00000000 _data_vma
00001a08 g     F .text	0000002a ETH_SetClock
00000936  w      .text	00000000 TIM5_IRQHandler
00000bac g     F .text	0000004c ETH_DMARxDescChainInit
00000ac0 g     F .text	00000058 ETH_ReadPHYRegister
0000031c g     F .text	00000054 EXTI9_5_IRQHandler
00007aa8 g     F .text	00000448 tcp_enqueue
00006452 g     F .text	0000002e tcp_eff_send_mss
00003040 g     F .text	0000005e WCHFindCorrectTCBPcb
000001c8 g     F .text	00000028 .hidden __riscv_save_10
000021a6 g     F .text	00000084 ETH_LibInit
000011bc g     F .text	00000010 RCC_PREDIV2Config
00002cc6 g     F .text	000000dc WCHSocketTCPReceive
00000f64 g     F .text	00000012 I2C_Send7bitAddress
00000936  w      .text	00000000 ETH_WKUP_IRQHandler
0000020a g     F .text	00000016 .hidden __riscv_restore_4
000026b2 g     F .text	00000006 __get_MTVAL
00000200 g     F .text	00000020 .hidden __riscv_restore_8
000026a6 g     F .text	00000006 __get_MEPC
000001d6 g     F .text	0000001a .hidden __riscv_save_6
000059a0 g     F .text	0000001e raw_connect
00000936  w      .text	00000000 SPI2_IRQHandler
000019c4 g     F .text	00000044 ETH_LedConfiguration
20000020 g     O .data	00000004 DESIP
00000220 g     F .text	000000a8 memset
00000200 g     F .text	00000020 .hidden __riscv_restore_9
0000020a g     F .text	00000016 .hidden __riscv_restore_7
000005fe g     F .text	00000114 main
0000150e g     F .text	00000328 WCHNET_LinkProcess
20000098 g     O .bss	00000004 LocalTime
20000048 g     O .data	00000004 memp_num
00000936  w      .text	00000000 TIM10_BRK_IRQHandler
20000024 g     O .data	00000004 GWIPAddr
0000038c g     F .text	00000018 mStopIfError
00000936  w      .text	00000000 TIM9_CC_IRQHandler
00008db0 g     F .text	00000014 icmp_dest_unreach
00002b30 g     F .text	000000c0 SocketIPRAWReceive
00005cf2 g     F .text	00000006 tcp_sent
000055d6 g     F .text	00000008 netif_is_up
00000936  w      .text	00000000 DMA2_Channel5_IRQHandler
00004272 g     F .text	0000000e ntohs
00005a52 g     F .text	00000030 raw_new
200000dc g     O .bss	00000004 IPFragTimer
00002aec g     F .text	00000002 NET_TCPError
0000417e g     F .text	00000070 ethernetif_input
00000936  w      .text	00000000 DMA1_Channel5_IRQHandler
200000c2 g     O .bss	00000001 phySucCnt
00000936  w      .text	00000000 EXTI4_IRQHandler
000025d8 g     F .text	00000036 Delay_Ms
00000936  w      .text	00000000 USB_LP_CAN1_RX0_IRQHandler
2000009c g     O .bss	00000001 PhyPolarityDetect
20008b1c g     O .bss	00000014 DNSInf
000034b2 g     F .text	000000be SocketUdpSend
00008892 g     F .text	0000009a udp_bind
000061c6 g     F .text	00000022 tcp_tmr
00003e2c g     F .text	000000e2 etharp_query
00001eca g     F .text	00000016 WCHNET_MainTask
00005196 g     F .text	00000018 lwip_init
0000297a g     F .text	00000032 WCHNET_Tx
00003f0e g     F .text	00000134 etharp_output
00000712 g     F .text	000000fa SystemInit
00000936  w      .text	00000000 RNG_IRQHandler
200023a0 g     O .bss	00000070 DMARxDscrTab
200000b8 g     O .bss	00000004 phyLinkTime
00008fde  w    F .text	0000004a printchar
00003570 g     F .text	000000f0 SocketTcpSend
00000936  w      .text	00000000 USB_HP_CAN1_TX_IRQHandler
00005832 g     F .text	00000012 pbuf_clen
00000000 g       .init	00000000 _sinit
00002de4 g     F .text	0000001a ErrorEncode
00008a30 g     F .text	00000012 udp_send
00000936  w      .text	00000000 DMA1_Channel3_IRQHandler
000059be g     F .text	00000006 raw_recv
00000478 g     F .text	0000004a WCHNET_DataLoopback
200000f8 g     O .bss	00000008 frame
000097c0 g     O .text	00000010 MemNum
00000370 g     F .text	00000008 ETH_IRQHandler
00000936  w      .text	00000000 TIM1_UP_IRQHandler
00005d56 g     F .text	000002ba tcp_slowtmr
000028d2 g     F .text	00000096 WCHNET_Rx
20000028 g     O .data	00000004 IPAddr
00000936  w      .text	00000000 WWDG_IRQHandler
00000936  w      .text	00000000 USBHSWakeup_IRQHandler
00000936  w      .text	00000000 DMA2_Channel11_IRQHandler
00000c1e g     F .text	00000032 ETH_Start
00000936  w      .text	00000000 Ecall_U_Mode_Handler
000040c8 g     F .text	00000064 ethernetif_init
00000936  w      .text	00000000 DMA2_Channel6_IRQHandler
00000378 g     F .text	00000014 TIM2_IRQHandler
20010000 g       .stack	00000000 _eusrstack
0000227c g     F .text	000000f8 ES8388_Write_Reg
000001f0 g     F .text	0000000c .hidden __riscv_save_2
00000936  w      .text	00000000 SW_Handler
00003270 g     F .text	0000004a tcp_recved_socket
20004e30 g     O .bss	00000c00 MACTxBuf
200000b0 g     O .bss	00000004 pDMATxSet
00003820 g     F .text	0000000a WCHNET_GetPHYStatus
00002a26 g     F .text	0000001e IPCheckParaInit
00000936  w      .text	00000000 TIM1_BRK_IRQHandler
000013a4 g     F .text	00000008 USART_SendData
2000013c g     O .bss	00000004 tcp_tw_pcbs
00000936  w      .text	00000000 DMA2_Channel10_IRQHandler
00000936  w      .text	00000000 EXTI1_IRQHandler
0000865a g     F .text	00000238 udp_input
000001d6 g     F .text	0000001a .hidden __riscv_save_5
200000d4 g     O .bss	00000004 DHCPfineTimer
200000e4 g     O .bss	00000004 TxTimer
00002254 g     F .text	00000028 ES8388_WaitEvent
00002668 g     F .text	0000003e _write
20000078 g       .data	00000000 _edata
20008c18 g       .bss	00000000 _end
00004264 g     F .text	0000000e htons
200000d8 g     O .bss	00000004 DNSTimer
00001fba g     F .text	000000e0 ETH_Configuration
200000cc g     O .bss	00000004 ArpCheckTime
00001220 g     F .text	000000aa TIM_TimeBaseInit
000042b0 g     F .text	0000004c ip_route
00000936  w      .text	00000000 RTCAlarm_IRQHandler
200000a6 g     O .bss	00000001 TRDetectStep
00009848 g       .dlalign	00000000 _data_lma
00000936  w      .text	00000000 TIM10_UP_IRQHandler
00000936  w      .text	00000000 TIM9_TRG_COM_IRQHandler
00000936  w      .text	00000000 UART7_IRQHandler
000055de g     F .text	0000006e pbuf_header
00005270 g     F .text	000000ca mem_realloc
20000114 g     O .bss	00000004 netif_default
00006010 g     F .text	00000072 tcp_pcb_remove
00000936  w      .text	00000000 USART2_IRQHandler
00000936  w      .text	00000000 UART6_IRQHandler
200000b6 g     O .bss	00000001 phyLinkStatus
0000586a g     F .text	00000014 pbuf_chain
20005a30 g     O .bss	000004b0 Mem_ArpTable
200000c8 g     O .bss	00000004 ARPTimer
20000030 g     O .data	00000002 desport
00006264 g     F .text	0000009a tcp_abandon
20000044 g     O .data	00000004 arp_table
00002bf0 g     F .text	000000d6 SocketUdpReceive
00002da2 g     F .text	00000042 LwipTcpConnectedCallBack
0000080c g     F .text	0000012a SystemCoreClockUpdate
20008a7c g     O .bss	0000003c SocketInf
0000540a g     F .text	00000050 memp_init
00006164 g     F .text	00000062 tcp_fasttmr
000033f4 g     F .text	000000be SocketIPRawSend
0000303c g     F .text	00000004 WCHNET_GetVer
00000936  w      .text	00000000 I2C2_ER_IRQHandler
200000ed g     O .bss	00000001 phydata
00000936  w      .text	00000000 DMA1_Channel2_IRQHandler
000011de g     F .text	00000024 RCC_PLL3Cmd
00003b9c g     F .text	0000005a etharp_ip_input
000001fc g     F .text	00000024 .hidden __riscv_restore_12
00000936  w      .text	00000000 TIM8_BRK_IRQHandler
00000938  w      .text	00000000 handle_reset
00000936  w      .text	00000000 CAN1_SCE_IRQHandler
20000168 g     O .bss	00002238 SocketRecvBuf
00001a88 g     F .text	000001a6 ETH_PHYLink
00000936  w      .text	00000000 FLASH_IRQHandler
000001f0 g     F .text	0000000c .hidden __riscv_save_0
000038ea g     F .text	0000000e QueryPingEnable
00005cc0 g     F .text	00000028 tcp_seg_copy
200000a0 g     O .bss	00000004 RandVal
000003a4 g     F .text	0000006c TIM2_Init
00000936  w      .text	00000000 USART1_IRQHandler
00005cfe g     F .text	0000000a tcp_poll
00000936  w      .text	00000000 SPI3_IRQHandler
00008ac6 g     F .text	00000024 udp_new
00000f76 g     F .text	00000016 I2C_CheckEvent
00000f46 g     F .text	0000001a I2C_GenerateSTOP
00001466 g     F .text	000000a8 WCHNET_PhyPNProcess
00000936  w      .text	00000000 I2C1_ER_IRQHandler
20000058 g     O .data	00000006 ethbroadcast
00009810 g     O .text	0000000d tcp_backoff
0000145a g     F .text	0000000c WCHNET_TimeIsr
00000214 g     F .text	0000000c .hidden __riscv_restore_1
20008b3c g     O .bss	00000044 NetInf
200000a4 g     O .bss	00000001 ReInitMACFlag
00002aee g     F .text	0000003e LwipTCPSendCallBack
00003912 g     F .text	0000000c LwipArpCheck
0000387e g     F .text	0000006c WCHNET_SocketConnect
00001ea0 g     F .text	0000002a WCHNET_RecProcess
00006ffe g     F .text	000009d6 tcp_input
00006568 g     F .text	00000032 RemoveTimeWaiTCP
000042fc g     F .text	0000029a ip_input
20000060 g     O .data	00000006 ethzero
00000936  w      .text	00000000 USBWakeUp_IRQHandler
000011cc g     F .text	00000012 RCC_PLL3Config
00002f0c g     F .text	00000130 WCHNET_ConfigLIB
000038f8 g     F .text	0000001a LwipUnreachPort
00000936  w      .text	00000000 DMA2_Channel3_IRQHandler
00002884 g     F .text	0000004e WCHNET_PhyStatus
000026b8 g     F .text	000001b8 WCHNET_PeriodicHandle
00000b6a g     F .text	00000042 ETH_DMATxDescChainInit



Disassembly of section .init:

00000000 <_sinit>:

	.section	.init,"ax",@progbits
	.global	_start
	.align	1
_start:
	j	handle_reset
   0:	1390006f          	j	938 <handle_reset>

Disassembly of section .vector:

00000004 <_vector_base>:
	...
   c:	02c8                	addi	a0,sp,324
   e:	0000                	unimp
  10:	02ca                	slli	t0,t0,0x12
  12:	0000                	unimp
  14:	0000                	unimp
  16:	0000                	unimp
  18:	0936                	slli	s2,s2,0xd
	...
  22:	0000                	unimp
  24:	0936                	slli	s2,s2,0xd
  26:	0000                	unimp
  28:	0936                	slli	s2,s2,0xd
	...
  32:	0000                	unimp
  34:	0936                	slli	s2,s2,0xd
  36:	0000                	unimp
  38:	0000                	unimp
  3a:	0000                	unimp
  3c:	0936                	slli	s2,s2,0xd
  3e:	0000                	unimp
  40:	0000                	unimp
  42:	0000                	unimp
  44:	0936                	slli	s2,s2,0xd
  46:	0000                	unimp
  48:	0936                	slli	s2,s2,0xd
  4a:	0000                	unimp
  4c:	0936                	slli	s2,s2,0xd
  4e:	0000                	unimp
  50:	0936                	slli	s2,s2,0xd
  52:	0000                	unimp
  54:	0936                	slli	s2,s2,0xd
  56:	0000                	unimp
  58:	0936                	slli	s2,s2,0xd
  5a:	0000                	unimp
  5c:	0936                	slli	s2,s2,0xd
  5e:	0000                	unimp
  60:	0936                	slli	s2,s2,0xd
  62:	0000                	unimp
  64:	0936                	slli	s2,s2,0xd
  66:	0000                	unimp
  68:	0936                	slli	s2,s2,0xd
  6a:	0000                	unimp
  6c:	0936                	slli	s2,s2,0xd
  6e:	0000                	unimp
  70:	0936                	slli	s2,s2,0xd
  72:	0000                	unimp
  74:	0936                	slli	s2,s2,0xd
  76:	0000                	unimp
  78:	0936                	slli	s2,s2,0xd
  7a:	0000                	unimp
  7c:	0936                	slli	s2,s2,0xd
  7e:	0000                	unimp
  80:	0936                	slli	s2,s2,0xd
  82:	0000                	unimp
  84:	0936                	slli	s2,s2,0xd
  86:	0000                	unimp
  88:	0936                	slli	s2,s2,0xd
  8a:	0000                	unimp
  8c:	0936                	slli	s2,s2,0xd
  8e:	0000                	unimp
  90:	0936                	slli	s2,s2,0xd
  92:	0000                	unimp
  94:	0936                	slli	s2,s2,0xd
  96:	0000                	unimp
  98:	0936                	slli	s2,s2,0xd
  9a:	0000                	unimp
  9c:	0936                	slli	s2,s2,0xd
  9e:	0000                	unimp
  a0:	031c                	addi	a5,sp,384
  a2:	0000                	unimp
  a4:	0936                	slli	s2,s2,0xd
  a6:	0000                	unimp
  a8:	0936                	slli	s2,s2,0xd
  aa:	0000                	unimp
  ac:	0936                	slli	s2,s2,0xd
  ae:	0000                	unimp
  b0:	0936                	slli	s2,s2,0xd
  b2:	0000                	unimp
  b4:	0378                	addi	a4,sp,396
  b6:	0000                	unimp
  b8:	0936                	slli	s2,s2,0xd
  ba:	0000                	unimp
  bc:	0936                	slli	s2,s2,0xd
  be:	0000                	unimp
  c0:	0936                	slli	s2,s2,0xd
  c2:	0000                	unimp
  c4:	0936                	slli	s2,s2,0xd
  c6:	0000                	unimp
  c8:	0936                	slli	s2,s2,0xd
  ca:	0000                	unimp
  cc:	0936                	slli	s2,s2,0xd
  ce:	0000                	unimp
  d0:	0936                	slli	s2,s2,0xd
  d2:	0000                	unimp
  d4:	0936                	slli	s2,s2,0xd
  d6:	0000                	unimp
  d8:	0936                	slli	s2,s2,0xd
  da:	0000                	unimp
  dc:	0936                	slli	s2,s2,0xd
  de:	0000                	unimp
  e0:	0936                	slli	s2,s2,0xd
  e2:	0000                	unimp
  e4:	0936                	slli	s2,s2,0xd
  e6:	0000                	unimp
  e8:	0936                	slli	s2,s2,0xd
  ea:	0000                	unimp
  ec:	0936                	slli	s2,s2,0xd
  ee:	0000                	unimp
  f0:	0936                	slli	s2,s2,0xd
  f2:	0000                	unimp
  f4:	0936                	slli	s2,s2,0xd
  f6:	0000                	unimp
  f8:	0936                	slli	s2,s2,0xd
  fa:	0000                	unimp
  fc:	0936                	slli	s2,s2,0xd
  fe:	0000                	unimp
 100:	0936                	slli	s2,s2,0xd
 102:	0000                	unimp
 104:	0000                	unimp
 106:	0000                	unimp
 108:	0936                	slli	s2,s2,0xd
 10a:	0000                	unimp
 10c:	0936                	slli	s2,s2,0xd
 10e:	0000                	unimp
 110:	0936                	slli	s2,s2,0xd
 112:	0000                	unimp
 114:	0936                	slli	s2,s2,0xd
 116:	0000                	unimp
 118:	0936                	slli	s2,s2,0xd
 11a:	0000                	unimp
 11c:	0936                	slli	s2,s2,0xd
 11e:	0000                	unimp
 120:	0936                	slli	s2,s2,0xd
 122:	0000                	unimp
 124:	0936                	slli	s2,s2,0xd
 126:	0000                	unimp
 128:	0936                	slli	s2,s2,0xd
 12a:	0000                	unimp
 12c:	0936                	slli	s2,s2,0xd
 12e:	0000                	unimp
 130:	0936                	slli	s2,s2,0xd
 132:	0000                	unimp
 134:	0936                	slli	s2,s2,0xd
 136:	0000                	unimp
 138:	0370                	addi	a2,sp,396
 13a:	0000                	unimp
 13c:	0936                	slli	s2,s2,0xd
 13e:	0000                	unimp
 140:	0936                	slli	s2,s2,0xd
 142:	0000                	unimp
 144:	0936                	slli	s2,s2,0xd
 146:	0000                	unimp
 148:	0936                	slli	s2,s2,0xd
 14a:	0000                	unimp
 14c:	0936                	slli	s2,s2,0xd
 14e:	0000                	unimp
 150:	0936                	slli	s2,s2,0xd
 152:	0000                	unimp
 154:	0936                	slli	s2,s2,0xd
 156:	0000                	unimp
 158:	0936                	slli	s2,s2,0xd
 15a:	0000                	unimp
 15c:	0936                	slli	s2,s2,0xd
 15e:	0000                	unimp
 160:	0936                	slli	s2,s2,0xd
 162:	0000                	unimp
 164:	0936                	slli	s2,s2,0xd
 166:	0000                	unimp
 168:	0936                	slli	s2,s2,0xd
 16a:	0000                	unimp
 16c:	0936                	slli	s2,s2,0xd
 16e:	0000                	unimp
 170:	0936                	slli	s2,s2,0xd
 172:	0000                	unimp
 174:	0936                	slli	s2,s2,0xd
 176:	0000                	unimp
 178:	0936                	slli	s2,s2,0xd
 17a:	0000                	unimp
 17c:	0936                	slli	s2,s2,0xd
 17e:	0000                	unimp
 180:	0936                	slli	s2,s2,0xd
 182:	0000                	unimp
 184:	0936                	slli	s2,s2,0xd
 186:	0000                	unimp
 188:	0936                	slli	s2,s2,0xd
 18a:	0000                	unimp
 18c:	0936                	slli	s2,s2,0xd
 18e:	0000                	unimp
 190:	0936                	slli	s2,s2,0xd
 192:	0000                	unimp
 194:	0936                	slli	s2,s2,0xd
 196:	0000                	unimp
 198:	0936                	slli	s2,s2,0xd
 19a:	0000                	unimp
 19c:	0936                	slli	s2,s2,0xd
 19e:	0000                	unimp
 1a0:	0936                	slli	s2,s2,0xd
	...

Disassembly of section .text:

000001c0 <__riscv_save_12>:
     1c0:	7139                	addi	sp,sp,-64
     1c2:	4301                	li	t1,0
     1c4:	c66e                	sw	s11,12(sp)
     1c6:	a019                	j	1cc <__riscv_save_10+0x4>

000001c8 <__riscv_save_10>:
     1c8:	7139                	addi	sp,sp,-64
     1ca:	5341                	li	t1,-16
     1cc:	c86a                	sw	s10,16(sp)
     1ce:	ca66                	sw	s9,20(sp)
     1d0:	cc62                	sw	s8,24(sp)
     1d2:	ce5e                	sw	s7,28(sp)
     1d4:	a019                	j	1da <__riscv_save_4+0x4>

000001d6 <__riscv_save_4>:
     1d6:	7139                	addi	sp,sp,-64
     1d8:	5301                	li	t1,-32
     1da:	d05a                	sw	s6,32(sp)
     1dc:	d256                	sw	s5,36(sp)
     1de:	d452                	sw	s4,40(sp)
     1e0:	d64e                	sw	s3,44(sp)
     1e2:	d84a                	sw	s2,48(sp)
     1e4:	da26                	sw	s1,52(sp)
     1e6:	dc22                	sw	s0,56(sp)
     1e8:	de06                	sw	ra,60(sp)
     1ea:	40610133          	sub	sp,sp,t1
     1ee:	8282                	jr	t0

000001f0 <__riscv_save_0>:
     1f0:	1141                	addi	sp,sp,-16
     1f2:	c04a                	sw	s2,0(sp)
     1f4:	c226                	sw	s1,4(sp)
     1f6:	c422                	sw	s0,8(sp)
     1f8:	c606                	sw	ra,12(sp)
     1fa:	8282                	jr	t0

000001fc <__riscv_restore_12>:
     1fc:	4db2                	lw	s11,12(sp)
     1fe:	0141                	addi	sp,sp,16

00000200 <__riscv_restore_10>:
     200:	4d02                	lw	s10,0(sp)
     202:	4c92                	lw	s9,4(sp)
     204:	4c22                	lw	s8,8(sp)
     206:	4bb2                	lw	s7,12(sp)
     208:	0141                	addi	sp,sp,16

0000020a <__riscv_restore_4>:
     20a:	4b02                	lw	s6,0(sp)
     20c:	4a92                	lw	s5,4(sp)
     20e:	4a22                	lw	s4,8(sp)
     210:	49b2                	lw	s3,12(sp)
     212:	0141                	addi	sp,sp,16

00000214 <__riscv_restore_0>:
     214:	4902                	lw	s2,0(sp)
     216:	4492                	lw	s1,4(sp)
     218:	4422                	lw	s0,8(sp)
     21a:	40b2                	lw	ra,12(sp)
     21c:	0141                	addi	sp,sp,16
     21e:	8082                	ret

00000220 <memset>:
     220:	433d                	li	t1,15
     222:	872a                	mv	a4,a0
     224:	02c37363          	bgeu	t1,a2,24a <memset+0x2a>
     228:	00f77793          	andi	a5,a4,15
     22c:	efbd                	bnez	a5,2aa <memset+0x8a>
     22e:	e5ad                	bnez	a1,298 <memset+0x78>
     230:	ff067693          	andi	a3,a2,-16
     234:	8a3d                	andi	a2,a2,15
     236:	96ba                	add	a3,a3,a4
     238:	c30c                	sw	a1,0(a4)
     23a:	c34c                	sw	a1,4(a4)
     23c:	c70c                	sw	a1,8(a4)
     23e:	c74c                	sw	a1,12(a4)
     240:	0741                	addi	a4,a4,16
     242:	fed76be3          	bltu	a4,a3,238 <memset+0x18>
     246:	e211                	bnez	a2,24a <memset+0x2a>
     248:	8082                	ret
     24a:	40c306b3          	sub	a3,t1,a2
     24e:	068a                	slli	a3,a3,0x2
     250:	00000297          	auipc	t0,0x0
     254:	9696                	add	a3,a3,t0
     256:	00a68067          	jr	10(a3)
     25a:	00b70723          	sb	a1,14(a4)
     25e:	00b706a3          	sb	a1,13(a4)
     262:	00b70623          	sb	a1,12(a4)
     266:	00b705a3          	sb	a1,11(a4)
     26a:	00b70523          	sb	a1,10(a4)
     26e:	00b704a3          	sb	a1,9(a4)
     272:	00b70423          	sb	a1,8(a4)
     276:	00b703a3          	sb	a1,7(a4)
     27a:	00b70323          	sb	a1,6(a4)
     27e:	00b702a3          	sb	a1,5(a4)
     282:	00b70223          	sb	a1,4(a4)
     286:	00b701a3          	sb	a1,3(a4)
     28a:	00b70123          	sb	a1,2(a4)
     28e:	00b700a3          	sb	a1,1(a4)
     292:	00b70023          	sb	a1,0(a4)
     296:	8082                	ret
     298:	0ff5f593          	andi	a1,a1,255
     29c:	00859693          	slli	a3,a1,0x8
     2a0:	8dd5                	or	a1,a1,a3
     2a2:	01059693          	slli	a3,a1,0x10
     2a6:	8dd5                	or	a1,a1,a3
     2a8:	b761                	j	230 <memset+0x10>
     2aa:	00279693          	slli	a3,a5,0x2
     2ae:	00000297          	auipc	t0,0x0
     2b2:	9696                	add	a3,a3,t0
     2b4:	8286                	mv	t0,ra
     2b6:	fa8680e7          	jalr	-88(a3)
     2ba:	8096                	mv	ra,t0
     2bc:	17c1                	addi	a5,a5,-16
     2be:	8f1d                	sub	a4,a4,a5
     2c0:	963e                	add	a2,a2,a5
     2c2:	f8c374e3          	bgeu	t1,a2,24a <memset+0x2a>
     2c6:	b7a5                	j	22e <memset+0xe>

000002c8 <NMI_Handler>:
 */
void NMI_Handler(void)
{
  while (1)
  {
  }
     2c8:	a001                	j	2c8 <NMI_Handler>

000002ca <HardFault_Handler>:
 *
 * @return  none
 */
void HardFault_Handler(void)
{
    printf("HardFault_Handler\r\n");
     2ca:	00009537          	lui	a0,0x9
     2ce:	65c50513          	addi	a0,a0,1628 # 965c <memcpy+0xb4>
     2d2:	274090ef          	jal	ra,9546 <puts>

    printf("mepc  :%08x\r\n", __get_MEPC());
     2d6:	3d0020ef          	jal	ra,26a6 <__get_MEPC>
     2da:	85aa                	mv	a1,a0
     2dc:	00009537          	lui	a0,0x9
     2e0:	67050513          	addi	a0,a0,1648 # 9670 <memcpy+0xc8>
     2e4:	23e090ef          	jal	ra,9522 <printf>
    printf("mcause:%08x\r\n", __get_MCAUSE());
     2e8:	3c4020ef          	jal	ra,26ac <__get_MCAUSE>
     2ec:	85aa                	mv	a1,a0
     2ee:	00009537          	lui	a0,0x9
     2f2:	68050513          	addi	a0,a0,1664 # 9680 <memcpy+0xd8>
     2f6:	22c090ef          	jal	ra,9522 <printf>
    printf("mtval :%08x\r\n", __get_MTVAL());
     2fa:	3b8020ef          	jal	ra,26b2 <__get_MTVAL>
     2fe:	85aa                	mv	a1,a0
     300:	00009537          	lui	a0,0x9
     304:	69050513          	addi	a0,a0,1680 # 9690 <memcpy+0xe8>
     308:	21a090ef          	jal	ra,9522 <printf>
 *
 * @return  none
 */
__attribute__( ( always_inline ) ) RV_STATIC_INLINE void NVIC_SystemReset(void)
{
  NVIC->CFGR = NVIC_KEY3|(1<<7);
     30c:	beef07b7          	lui	a5,0xbeef0
     310:	e000e737          	lui	a4,0xe000e
     314:	08078793          	addi	a5,a5,128 # beef0080 <_eusrstack+0x9eee0080>
     318:	c73c                	sw	a5,72(a4)
    NVIC_SystemReset();
    while(1);
     31a:	a001                	j	31a <HardFault_Handler+0x50>

0000031c <EXTI9_5_IRQHandler>:
 * @brief   This function handles GPIO exception.
 *
 * @return  none
 */
void EXTI9_5_IRQHandler(void)
{
     31c:	7139                	addi	sp,sp,-64
     31e:	de06                	sw	ra,60(sp)
     320:	dc16                	sw	t0,56(sp)
     322:	da1a                	sw	t1,52(sp)
     324:	d81e                	sw	t2,48(sp)
     326:	d62a                	sw	a0,44(sp)
     328:	d42e                	sw	a1,40(sp)
     32a:	d232                	sw	a2,36(sp)
     32c:	d036                	sw	a3,32(sp)
     32e:	ce3a                	sw	a4,28(sp)
     330:	cc3e                	sw	a5,24(sp)
     332:	ca42                	sw	a6,20(sp)
     334:	c846                	sw	a7,16(sp)
     336:	c672                	sw	t3,12(sp)
     338:	c476                	sw	t4,8(sp)
     33a:	c27a                	sw	t5,4(sp)
     33c:	c07e                	sw	t6,0(sp)
    ETH_PHYLink( );
     33e:	74a010ef          	jal	ra,1a88 <ETH_PHYLink>
    EXTI_ClearITPendingBit(EXTI_Line7);     /* Clear Flag */
     342:	08000513          	li	a0,128
     346:	129000ef          	jal	ra,c6e <EXTI_ClearITPendingBit>
}
     34a:	50f2                	lw	ra,60(sp)
     34c:	52e2                	lw	t0,56(sp)
     34e:	5352                	lw	t1,52(sp)
     350:	53c2                	lw	t2,48(sp)
     352:	5532                	lw	a0,44(sp)
     354:	55a2                	lw	a1,40(sp)
     356:	5612                	lw	a2,36(sp)
     358:	5682                	lw	a3,32(sp)
     35a:	4772                	lw	a4,28(sp)
     35c:	47e2                	lw	a5,24(sp)
     35e:	4852                	lw	a6,20(sp)
     360:	48c2                	lw	a7,16(sp)
     362:	4e32                	lw	t3,12(sp)
     364:	4ea2                	lw	t4,8(sp)
     366:	4f12                	lw	t5,4(sp)
     368:	4f82                	lw	t6,0(sp)
     36a:	6121                	addi	sp,sp,64
     36c:	30200073          	mret

00000370 <ETH_IRQHandler>:
 *
 * @return  none
 */
void ETH_IRQHandler(void)
{
    WCHNET_ETHIsr();
     370:	52b010ef          	jal	ra,209a <WCHNET_ETHIsr>
}
     374:	30200073          	mret

00000378 <TIM2_IRQHandler>:
 *
 * @return  none
 */
void TIM2_IRQHandler(void)
{
    WCHNET_TimeIsr(WCHNETTIMERPERIOD);
     378:	4529                	li	a0,10
     37a:	0e0010ef          	jal	ra,145a <WCHNET_TimeIsr>
    TIM_ClearITPendingBit(TIM2, TIM_IT_Update);
     37e:	4585                	li	a1,1
     380:	40000537          	lui	a0,0x40000
     384:	771000ef          	jal	ra,12f4 <TIM_ClearITPendingBit>
}
     388:	30200073          	mret

0000038c <mStopIfError>:
 *
 * @return  none
 */
void mStopIfError(u8 iError)
{
    if (iError == WCHNET_ERR_SUCCESS)
     38c:	c919                	beqz	a0,3a2 <mStopIfError+0x16>
{
     38e:	e63ff2ef          	jal	t0,1f0 <__riscv_save_0>
     392:	85aa                	mv	a1,a0
        return;
    printf("Error: %02X\r\n", (u16) iError);
     394:	00009537          	lui	a0,0x9
     398:	73850513          	addi	a0,a0,1848 # 9738 <memcpy+0x190>
     39c:	186090ef          	jal	ra,9522 <printf>
}
     3a0:	bd95                	j	214 <__riscv_restore_0>
     3a2:	8082                	ret

000003a4 <TIM2_Init>:
 * @brief   Initializes TIM2.
 *
 * @return  none
 */
void TIM2_Init(void)
{
     3a4:	e4dff2ef          	jal	t0,1f0 <__riscv_save_0>
     3a8:	1141                	addi	sp,sp,-16
    TIM_TimeBaseInitTypeDef TIM_TimeBaseStructure = { 0 };

    RCC_APB1PeriphClockCmd(RCC_APB1Periph_TIM2, ENABLE);
     3aa:	4585                	li	a1,1
     3ac:	4505                	li	a0,1
    TIM_TimeBaseInitTypeDef TIM_TimeBaseStructure = { 0 };
     3ae:	c202                	sw	zero,4(sp)
     3b0:	c402                	sw	zero,8(sp)
     3b2:	00011623          	sh	zero,12(sp)
    RCC_APB1PeriphClockCmd(RCC_APB1Periph_TIM2, ENABLE);
     3b6:	5bb000ef          	jal	ra,1170 <RCC_APB1PeriphClockCmd>

    TIM_TimeBaseStructure.TIM_Period = SystemCoreClock / 1000000;
     3ba:	8141a783          	lw	a5,-2028(gp) # 20000034 <SystemCoreClock>
     3be:	000f4737          	lui	a4,0xf4
     3c2:	24070713          	addi	a4,a4,576 # f4240 <_data_lma+0xea9f8>
     3c6:	02e7d7b3          	divu	a5,a5,a4
    TIM_TimeBaseStructure.TIM_Prescaler = WCHNETTIMERPERIOD * 1000 - 1;
    TIM_TimeBaseStructure.TIM_ClockDivision = 0;
    TIM_TimeBaseStructure.TIM_CounterMode = TIM_CounterMode_Up;
    TIM_TimeBaseInit(TIM2, &TIM_TimeBaseStructure);
     3ca:	004c                	addi	a1,sp,4
     3cc:	40000537          	lui	a0,0x40000
    TIM_TimeBaseStructure.TIM_ClockDivision = 0;
     3d0:	00011523          	sh	zero,10(sp)
    TIM_TimeBaseStructure.TIM_Period = SystemCoreClock / 1000000;
     3d4:	847c                	sh	a5,8(sp)
    TIM_TimeBaseStructure.TIM_Prescaler = WCHNETTIMERPERIOD * 1000 - 1;
     3d6:	6789                	lui	a5,0x2
     3d8:	70f78793          	addi	a5,a5,1807 # 270f <WCHNET_PeriodicHandle+0x57>
     3dc:	c23e                	sw	a5,4(sp)
    TIM_TimeBaseInit(TIM2, &TIM_TimeBaseStructure);
     3de:	643000ef          	jal	ra,1220 <TIM_TimeBaseInit>
    TIM_ITConfig(TIM2, TIM_IT_Update, ENABLE);
     3e2:	4605                	li	a2,1
     3e4:	4585                	li	a1,1
     3e6:	40000537          	lui	a0,0x40000
     3ea:	6f9000ef          	jal	ra,12e2 <TIM_ITConfig>

    TIM_Cmd(TIM2, ENABLE);
     3ee:	4585                	li	a1,1
     3f0:	40000537          	lui	a0,0x40000
     3f4:	6d7000ef          	jal	ra,12ca <TIM_Cmd>
    TIM_ClearITPendingBit(TIM2, TIM_IT_Update);
     3f8:	4585                	li	a1,1
     3fa:	40000537          	lui	a0,0x40000
     3fe:	6f7000ef          	jal	ra,12f4 <TIM_ClearITPendingBit>
  NVIC->IENR[((uint32_t)(IRQn) >> 5)] = (1 << ((uint32_t)(IRQn) & 0x1F));
     402:	e000e7b7          	lui	a5,0xe000e
     406:	6705                	lui	a4,0x1
     408:	10e7a223          	sw	a4,260(a5) # e000e104 <_eusrstack+0xbfffe104>
    NVIC_EnableIRQ(TIM2_IRQn);
}
     40c:	0141                	addi	sp,sp,16
     40e:	b519                	j	214 <__riscv_restore_0>

00000410 <WCHNET_CreateTcpSocket>:
 * @brief   Create TCP Socket
 *
 * @return  none
 */
void WCHNET_CreateTcpSocket(void)
{
     410:	de1ff2ef          	jal	t0,1f0 <__riscv_save_0>
     414:	7139                	addi	sp,sp,-64
    u8 i;
    SOCK_INF TmpSocketInf;

    memset((void *) &TmpSocketInf, 0, sizeof(SOCK_INF));
     416:	03c00613          	li	a2,60
     41a:	4581                	li	a1,0
     41c:	0048                	addi	a0,sp,4
     41e:	3509                	jal	220 <memset>
    memcpy((void *) TmpSocketInf.IPAddr, DESIP, 4);
     420:	200007b7          	lui	a5,0x20000
     424:	0207a783          	lw	a5,32(a5) # 20000020 <DESIP>
    TmpSocketInf.DesPort = desport;
    TmpSocketInf.SourPort = srcport++;
    TmpSocketInf.ProtoType = PROTO_TYPE_TCP;
    TmpSocketInf.RecvBufLen = RECE_BUF_LEN;
    i = WCHNET_SocketCreat(&SocketId, &TmpSocketInf);
     428:	85e18413          	addi	s0,gp,-1954 # 2000007e <SocketId>
    memcpy((void *) TmpSocketInf.IPAddr, DESIP, 4);
     42c:	d83e                	sw	a5,48(sp)
    TmpSocketInf.DesPort = desport;
     42e:	8101d783          	lhu	a5,-2032(gp) # 20000030 <desport>
    i = WCHNET_SocketCreat(&SocketId, &TmpSocketInf);
     432:	004c                	addi	a1,sp,4
     434:	85e18513          	addi	a0,gp,-1954 # 2000007e <SocketId>
    TmpSocketInf.DesPort = desport;
     438:	d43e                	sw	a5,40(sp)
    TmpSocketInf.SourPort = srcport++;
     43a:	81218793          	addi	a5,gp,-2030 # 20000032 <srcport>
     43e:	239a                	lhu	a4,0(a5)
     440:	00170693          	addi	a3,a4,1 # 1001 <RCC_GetClocksFreq+0x43>
     444:	a396                	sh	a3,0(a5)
    TmpSocketInf.ProtoType = PROTO_TYPE_TCP;
     446:	478d                	li	a5,3
     448:	d03e                	sw	a5,32(sp)
    TmpSocketInf.RecvBufLen = RECE_BUF_LEN;
     44a:	6789                	lui	a5,0x2
     44c:	23878793          	addi	a5,a5,568 # 2238 <ES8388_Contrl_Init+0xe>
    TmpSocketInf.SourPort = srcport++;
     450:	d63a                	sw	a4,44(sp)
    TmpSocketInf.RecvBufLen = RECE_BUF_LEN;
     452:	c83e                	sw	a5,16(sp)
    i = WCHNET_SocketCreat(&SocketId, &TmpSocketInf);
     454:	44b020ef          	jal	ra,309e <WCHNET_SocketCreat>
    printf("SocketId %d\r\n", SocketId);
     458:	200c                	lbu	a1,0(s0)
    i = WCHNET_SocketCreat(&SocketId, &TmpSocketInf);
     45a:	84aa                	mv	s1,a0
    printf("SocketId %d\r\n", SocketId);
     45c:	00009537          	lui	a0,0x9
     460:	6a050513          	addi	a0,a0,1696 # 96a0 <memcpy+0xf8>
     464:	0be090ef          	jal	ra,9522 <printf>
    mStopIfError(i);
     468:	8526                	mv	a0,s1
     46a:	370d                	jal	38c <mStopIfError>
    i = WCHNET_SocketConnect(SocketId);                        //make a TCP connection
     46c:	2008                	lbu	a0,0(s0)
     46e:	410030ef          	jal	ra,387e <WCHNET_SocketConnect>
    mStopIfError(i);
     472:	3f29                	jal	38c <mStopIfError>
}
     474:	6121                	addi	sp,sp,64
     476:	bb79                	j	214 <__riscv_restore_0>

00000478 <WCHNET_DataLoopback>:
 * @param   id - socket id.
 *
 * @return  none
 */
void WCHNET_DataLoopback(u8 id)
{
     478:	d79ff2ef          	jal	t0,1f0 <__riscv_save_0>
#if 1
    u8 i;
    u32 len;
    u32 endAddr = SocketInf[id].RecvStartPoint + SocketInf[id].RecvBufLen;       //Receive buffer end address
     47c:	03c00713          	li	a4,60
     480:	02e50733          	mul	a4,a0,a4
     484:	200097b7          	lui	a5,0x20009
     488:	a7c78793          	addi	a5,a5,-1412 # 20008a7c <SocketInf>
{
     48c:	1141                	addi	sp,sp,-16
     48e:	842a                	mv	s0,a0
    u32 endAddr = SocketInf[id].RecvStartPoint + SocketInf[id].RecvBufLen;       //Receive buffer end address
     490:	97ba                	add	a5,a5,a4
     492:	47d4                	lw	a3,12(a5)
     494:	4798                	lw	a4,8(a5)

    if ((SocketInf[id].RecvReadPoint + SocketInf[id].RecvRemLen) > endAddr) {    //Calculate the length of the received data
     496:	4bcc                	lw	a1,20(a5)
     498:	4f9c                	lw	a5,24(a5)
    u32 endAddr = SocketInf[id].RecvStartPoint + SocketInf[id].RecvBufLen;       //Receive buffer end address
     49a:	9736                	add	a4,a4,a3
    if ((SocketInf[id].RecvReadPoint + SocketInf[id].RecvRemLen) > endAddr) {    //Calculate the length of the received data
     49c:	00f586b3          	add	a3,a1,a5
     4a0:	00d77463          	bgeu	a4,a3,4a8 <WCHNET_DataLoopback+0x30>
        len = endAddr - SocketInf[id].RecvReadPoint;
     4a4:	40b707b3          	sub	a5,a4,a1
    }
    else {
        len = SocketInf[id].RecvRemLen;
    }
    i = WCHNET_SocketSend(id, (u8 *) SocketInf[id].RecvReadPoint, &len);         //send data
     4a8:	0070                	addi	a2,sp,12
     4aa:	8522                	mv	a0,s0
     4ac:	c63e                	sw	a5,12(sp)
     4ae:	1b2030ef          	jal	ra,3660 <WCHNET_SocketSend>
    if (i == WCHNET_ERR_SUCCESS) {
     4b2:	e511                	bnez	a0,4be <WCHNET_DataLoopback+0x46>
        WCHNET_SocketRecv(id, NULL, &len);                                       //Clear sent data
     4b4:	0070                	addi	a2,sp,12
     4b6:	4581                	li	a1,0
     4b8:	8522                	mv	a0,s0
     4ba:	653020ef          	jal	ra,330c <WCHNET_SocketRecv>
        if( !--TransCnt )  break;                                        //Timeout exit
        if(totallen) continue;                                           //If the data is not sent, continue to send
        break;                                                           //After sending, exit
    }
#endif
}
     4be:	0141                	addi	sp,sp,16
     4c0:	bb91                	j	214 <__riscv_restore_0>

000004c2 <WCHNET_HandleSockInt>:
 *          intstat - interrupt status
 *
 * @return  none
 */
void WCHNET_HandleSockInt(u8 socketid, u8 intstat)
{
     4c2:	d15ff2ef          	jal	t0,1d6 <__riscv_save_4>
    u8 i;

    if (intstat & SINT_STAT_RECV)                               //receive data
     4c6:	0045f793          	andi	a5,a1,4
{
     4ca:	84aa                	mv	s1,a0
     4cc:	892e                	mv	s2,a1
    if (intstat & SINT_STAT_RECV)                               //receive data
     4ce:	c391                	beqz	a5,4d2 <WCHNET_HandleSockInt+0x10>
    {
        WCHNET_DataLoopback(socketid);                          //Data loopback
     4d0:	3765                	jal	478 <WCHNET_DataLoopback>
    }
    if (intstat & SINT_STAT_CONNECT)                            //connect successfully
     4d2:	00897793          	andi	a5,s2,8
     4d6:	cbb9                	beqz	a5,52c <WCHNET_HandleSockInt+0x6a>
    {
#if KEEPALIVE_ENABLE
        WCHNET_SocketSetKeepLive(socketid, ENABLE);
     4d8:	4585                	li	a1,1
     4da:	8526                	mv	a0,s1
     4dc:	34e030ef          	jal	ra,382a <WCHNET_SocketSetKeepLive>
#endif
        WCHNET_ModifyRecvBuf(socketid, (u32) SocketRecvBuf[socketid], RECE_BUF_LEN);
     4e0:	6609                	lui	a2,0x2
     4e2:	23860613          	addi	a2,a2,568 # 2238 <ES8388_Contrl_Init+0xe>
     4e6:	02c485b3          	mul	a1,s1,a2
     4ea:	200007b7          	lui	a5,0x20000
     4ee:	16878793          	addi	a5,a5,360 # 20000168 <SocketRecvBuf>
     4f2:	8526                	mv	a0,s1
        for (i = 0; i < WCHNET_MAX_SOCKET_NUM; i++) {
     4f4:	4985                	li	s3,1
        WCHNET_ModifyRecvBuf(socketid, (u32) SocketRecvBuf[socketid], RECE_BUF_LEN);
     4f6:	95be                	add	a1,a1,a5
     4f8:	5c3020ef          	jal	ra,32ba <WCHNET_ModifyRecvBuf>
            if (socket[i] == 0xff) {                            //save connected socket id
     4fc:	8601c703          	lbu	a4,-1952(gp) # 20000080 <socket>
     500:	0ff00793          	li	a5,255
     504:	86018413          	addi	s0,gp,-1952 # 20000080 <socket>
     508:	00f71463          	bne	a4,a5,510 <WCHNET_HandleSockInt+0x4e>
                socket[i] = socketid;
     50c:	a004                	sb	s1,0(s0)
                break;
     50e:	4981                	li	s3,0
            }
        }
        printf("TCP Connect Success\r\n");
     510:	00009537          	lui	a0,0x9
     514:	6f050513          	addi	a0,a0,1776 # 96f0 <memcpy+0x148>
     518:	02e090ef          	jal	ra,9546 <puts>
        printf("socket id: %d\r\n", socket[i]);
     51c:	944e                	add	s0,s0,s3
     51e:	200c                	lbu	a1,0(s0)
     520:	00009537          	lui	a0,0x9
     524:	70850513          	addi	a0,a0,1800 # 9708 <memcpy+0x160>
     528:	7fb080ef          	jal	ra,9522 <printf>
    }
    if (intstat & SINT_STAT_DISCONNECT)                         //disconnect
     52c:	01097793          	andi	a5,s2,16
     530:	cf91                	beqz	a5,54c <WCHNET_HandleSockInt+0x8a>
    {
        for (i = 0; i < WCHNET_MAX_SOCKET_NUM; i++) {           //delete disconnected socket id
            if (socket[i] == socketid) {
     532:	86018793          	addi	a5,gp,-1952 # 20000080 <socket>
     536:	2398                	lbu	a4,0(a5)
     538:	00971463          	bne	a4,s1,540 <WCHNET_HandleSockInt+0x7e>
                socket[i] = 0xff;
     53c:	577d                	li	a4,-1
     53e:	a398                	sb	a4,0(a5)
                break;
            }
        }
        printf("TCP Disconnect\r\n");
     540:	00009537          	lui	a0,0x9
     544:	71850513          	addi	a0,a0,1816 # 9718 <memcpy+0x170>
     548:	7ff080ef          	jal	ra,9546 <puts>
    }
    if (intstat & SINT_STAT_TIM_OUT)                            //timeout disconnect
     54c:	04097913          	andi	s2,s2,64
     550:	02090063          	beqz	s2,570 <WCHNET_HandleSockInt+0xae>
    {
        for (i = 0; i < WCHNET_MAX_SOCKET_NUM; i++) {           //delete disconnected socket id
            if (socket[i] == socketid) {
     554:	86018793          	addi	a5,gp,-1952 # 20000080 <socket>
     558:	2398                	lbu	a4,0(a5)
     55a:	00971463          	bne	a4,s1,562 <WCHNET_HandleSockInt+0xa0>
                socket[i] = 0xff;
     55e:	577d                	li	a4,-1
     560:	a398                	sb	a4,0(a5)
                break;
            }
        }
        printf("TCP Timeout\r\n");
     562:	00009537          	lui	a0,0x9
     566:	72850513          	addi	a0,a0,1832 # 9728 <memcpy+0x180>
     56a:	7dd080ef          	jal	ra,9546 <puts>
        WCHNET_CreateTcpSocket();
     56e:	354d                	jal	410 <WCHNET_CreateTcpSocket>
    }
}
     570:	b969                	j	20a <__riscv_restore_4>

00000572 <WCHNET_HandleGlobalInt>:
 * @brief   Global Interrupt Handle
 *
 * @return  none
 */
void WCHNET_HandleGlobalInt(void)
{
     572:	c7fff2ef          	jal	t0,1f0 <__riscv_save_0>
    u8 intstat;
    u16 i;
    u8 socketint;

    intstat = WCHNET_GetGlobalInt();                            //get global interrupt flag
     576:	26c030ef          	jal	ra,37e2 <WCHNET_GetGlobalInt>
    if (intstat & GINT_STAT_UNREACH)                            //Unreachable interrupt
     57a:	00157793          	andi	a5,a0,1
    intstat = WCHNET_GetGlobalInt();                            //get global interrupt flag
     57e:	842a                	mv	s0,a0
    if (intstat & GINT_STAT_UNREACH)                            //Unreachable interrupt
     580:	c799                	beqz	a5,58e <WCHNET_HandleGlobalInt+0x1c>
    {
        printf("GINT_STAT_UNREACH\r\n");
     582:	00009537          	lui	a0,0x9
     586:	6b050513          	addi	a0,a0,1712 # 96b0 <memcpy+0x108>
     58a:	7bd080ef          	jal	ra,9546 <puts>
    }
    if (intstat & GINT_STAT_IP_CONFLI)                          //IP conflict
     58e:	00247793          	andi	a5,s0,2
     592:	c799                	beqz	a5,5a0 <WCHNET_HandleGlobalInt+0x2e>
    {
        printf("GINT_STAT_IP_CONFLI\r\n");
     594:	00009537          	lui	a0,0x9
     598:	6c450513          	addi	a0,a0,1732 # 96c4 <memcpy+0x11c>
     59c:	7ab080ef          	jal	ra,9546 <puts>
    }
    if (intstat & GINT_STAT_PHY_CHANGE)                         //PHY status change
     5a0:	00447793          	andi	a5,s0,4
     5a4:	cb99                	beqz	a5,5ba <WCHNET_HandleGlobalInt+0x48>
    {
        i = WCHNET_GetPHYStatus();
     5a6:	27a030ef          	jal	ra,3820 <WCHNET_GetPHYStatus>
        if (i & PHY_Linked_Status)
     5aa:	8911                	andi	a0,a0,4
     5ac:	c519                	beqz	a0,5ba <WCHNET_HandleGlobalInt+0x48>
            printf("PHY Link Success\r\n");
     5ae:	00009537          	lui	a0,0x9
     5b2:	6dc50513          	addi	a0,a0,1756 # 96dc <memcpy+0x134>
     5b6:	791080ef          	jal	ra,9546 <puts>
    }
    if (intstat & GINT_STAT_SOCKET) {                           //socket related interrupt
     5ba:	8841                	andi	s0,s0,16
     5bc:	e011                	bnez	s0,5c0 <WCHNET_HandleGlobalInt+0x4e>
            socketint = WCHNET_GetSocketInt(i);
            if (socketint)
                WCHNET_HandleSockInt(i, socketint);
        }
    }
}
     5be:	b999                	j	214 <__riscv_restore_0>
            socketint = WCHNET_GetSocketInt(i);
     5c0:	4501                	li	a0,0
     5c2:	234030ef          	jal	ra,37f6 <WCHNET_GetSocketInt>
     5c6:	85aa                	mv	a1,a0
            if (socketint)
     5c8:	d97d                	beqz	a0,5be <WCHNET_HandleGlobalInt+0x4c>
                WCHNET_HandleSockInt(i, socketint);
     5ca:	4501                	li	a0,0
     5cc:	3ddd                	jal	4c2 <WCHNET_HandleSockInt>
     5ce:	bfc5                	j	5be <WCHNET_HandleGlobalInt+0x4c>

000005d0 <Switch_Init>:

void Switch_Init(void)
{
     5d0:	c21ff2ef          	jal	t0,1f0 <__riscv_save_0>
     5d4:	1141                	addi	sp,sp,-16
    GPIO_InitTypeDef GPIO_InitStructure;

    RCC_APB2PeriphClockCmd(RCC_APB2Periph_GPIOD, ENABLE);
     5d6:	4585                	li	a1,1
     5d8:	02000513          	li	a0,32
     5dc:	377000ef          	jal	ra,1152 <RCC_APB2PeriphClockCmd>

    GPIO_InitStructure.GPIO_Pin = GPIO_Pin_7;
     5e0:	08000793          	li	a5,128
     5e4:	827c                	sh	a5,4(sp)
    GPIO_InitStructure.GPIO_Mode = GPIO_Mode_Out_PP;
    GPIO_InitStructure.GPIO_Speed = GPIO_Speed_50MHz;
    GPIO_Init(GPIOD, &GPIO_InitStructure);
     5e6:	40011537          	lui	a0,0x40011
    GPIO_InitStructure.GPIO_Mode = GPIO_Mode_Out_PP;
     5ea:	47c1                	li	a5,16
     5ec:	c63e                	sw	a5,12(sp)
    GPIO_Init(GPIOD, &GPIO_InitStructure);
     5ee:	004c                	addi	a1,sp,4
    GPIO_InitStructure.GPIO_Speed = GPIO_Speed_50MHz;
     5f0:	478d                	li	a5,3
    GPIO_Init(GPIOD, &GPIO_InitStructure);
     5f2:	40050513          	addi	a0,a0,1024 # 40011400 <_eusrstack+0x20001400>
    GPIO_InitStructure.GPIO_Speed = GPIO_Speed_50MHz;
     5f6:	c43e                	sw	a5,8(sp)
    GPIO_Init(GPIOD, &GPIO_InitStructure);
     5f8:	2541                	jal	c78 <GPIO_Init>
}
     5fa:	0141                	addi	sp,sp,16
     5fc:	b921                	j	214 <__riscv_restore_0>

000005fe <main>:
 * @brief   Main program
 *
 * @return  none
 */
int main(void)
{
     5fe:	bd9ff2ef          	jal	t0,1d6 <__riscv_save_4>
     602:	1141                	addi	sp,sp,-16
    u8 i;
    SystemCoreClockUpdate();
     604:	2421                	jal	80c <SystemCoreClockUpdate>
    Delay_Init();
     606:	777010ef          	jal	ra,257c <Delay_Init>
    USART_Printf_Init(115200);                                  //USART initialize
     60a:	6571                	lui	a0,0x1c
     60c:	20050513          	addi	a0,a0,512 # 1c200 <_data_lma+0x129b8>
     610:	7ff010ef          	jal	ra,260e <USART_Printf_Init>
    LED_Init();                                          //LED initialize
     614:	721010ef          	jal	ra,2534 <LED_Init>
    ES8388_close();//
     618:	6dd010ef          	jal	ra,24f4 <ES8388_close>
    //PTD7TF
    Switch_Init();
     61c:	3f55                	jal	5d0 <Switch_Init>
    GPIO_ResetBits(GPIOD, GPIO_Pin_7); //PTD7
     61e:	40011537          	lui	a0,0x40011
     622:	08000593          	li	a1,128
     626:	40050513          	addi	a0,a0,1024 # 40011400 <_eusrstack+0x20001400>
     62a:	2f09                	jal	d3c <GPIO_ResetBits>

    printf("TCPClient Test\r\n");
     62c:	00009537          	lui	a0,0x9
     630:	74850513          	addi	a0,a0,1864 # 9748 <memcpy+0x1a0>
     634:	713080ef          	jal	ra,9546 <puts>
    printf("SystemClk:%d\r\n", SystemCoreClock);
     638:	8141a583          	lw	a1,-2028(gp) # 20000034 <SystemCoreClock>
     63c:	00009537          	lui	a0,0x9
     640:	75850513          	addi	a0,a0,1880 # 9758 <memcpy+0x1b0>
     644:	6df080ef          	jal	ra,9522 <printf>
    printf("ChipID:%08x\r\n", DBGMCU_GetCHIPID());
     648:	2ebd                	jal	9c6 <DBGMCU_GetCHIPID>
     64a:	85aa                	mv	a1,a0
     64c:	00009537          	lui	a0,0x9
     650:	76850513          	addi	a0,a0,1896 # 9768 <memcpy+0x1c0>
     654:	6cf080ef          	jal	ra,9522 <printf>
    printf("net version:%x\n", WCHNET_GetVer());
     658:	1e5020ef          	jal	ra,303c <WCHNET_GetVer>
     65c:	85aa                	mv	a1,a0
     65e:	00009537          	lui	a0,0x9
     662:	77850513          	addi	a0,a0,1912 # 9778 <memcpy+0x1d0>
     666:	6bd080ef          	jal	ra,9522 <printf>
    if (WCHNET_LIB_VER != WCHNET_GetVer()) {
     66a:	1d3020ef          	jal	ra,303c <WCHNET_GetVer>
     66e:	47e9                	li	a5,26
     670:	00f50863          	beq	a0,a5,680 <main+0x82>
        printf("version error.\n");
     674:	00009537          	lui	a0,0x9
     678:	78850513          	addi	a0,a0,1928 # 9788 <memcpy+0x1e0>
     67c:	6cb080ef          	jal	ra,9546 <puts>
    }
    WCHNET_GetMacAddr(MACAddr);                                 //get the chip MAC address
     680:	85818513          	addi	a0,gp,-1960 # 20000078 <_edata>
     684:	5b7000ef          	jal	ra,143a <WCHNET_GetMacAddr>
    printf("mac addr:");
     688:	00009537          	lui	a0,0x9
     68c:	79850513          	addi	a0,a0,1944 # 9798 <memcpy+0x1f0>
     690:	693080ef          	jal	ra,9522 <printf>
     694:	4481                	li	s1,0
    for(i = 0; i < 6; i++)
        printf("%x ", MACAddr[i]);
     696:	85818a13          	addi	s4,gp,-1960 # 20000078 <_edata>
     69a:	000099b7          	lui	s3,0x9
    for(i = 0; i < 6; i++)
     69e:	4919                	li	s2,6
        printf("%x ", MACAddr[i]);
     6a0:	009a07b3          	add	a5,s4,s1
     6a4:	238c                	lbu	a1,0(a5)
     6a6:	7a498513          	addi	a0,s3,1956 # 97a4 <memcpy+0x1fc>
     6aa:	0485                	addi	s1,s1,1
     6ac:	677080ef          	jal	ra,9522 <printf>
    for(i = 0; i < 6; i++)
     6b0:	ff2498e3          	bne	s1,s2,6a0 <main+0xa2>
    printf("\n");
     6b4:	4529                	li	a0,10
     6b6:	6db080ef          	jal	ra,9590 <putchar>
    TIM2_Init();
     6ba:	31ed                	jal	3a4 <TIM2_Init>
    i = ETH_LibInit(IPAddr, GWIPAddr, IPMask, MACAddr);         //Ethernet library initialize
     6bc:	85818693          	addi	a3,gp,-1960 # 20000078 <_edata>
     6c0:	80c18613          	addi	a2,gp,-2036 # 2000002c <IPMask>
     6c4:	80418593          	addi	a1,gp,-2044 # 20000024 <GWIPAddr>
     6c8:	80818513          	addi	a0,gp,-2040 # 20000028 <IPAddr>
     6cc:	2db010ef          	jal	ra,21a6 <ETH_LibInit>
     6d0:	842a                	mv	s0,a0
    mStopIfError(i);
     6d2:	396d                	jal	38c <mStopIfError>
    if (i == WCHNET_ERR_SUCCESS)
     6d4:	e419                	bnez	s0,6e2 <main+0xe4>
        printf("WCHNET_LibInit Success\r\n");
     6d6:	00009537          	lui	a0,0x9
     6da:	7a850513          	addi	a0,a0,1960 # 97a8 <memcpy+0x200>
     6de:	669080ef          	jal	ra,9546 <puts>
#if KEEPALIVE_ENABLE                                            //Configure keep alive parameters
    {
        struct _KEEP_CFG cfg;

        cfg.KLIdle = 20000;
     6e2:	6795                	lui	a5,0x5
     6e4:	e2078793          	addi	a5,a5,-480 # 4e20 <dhcp_option_long+0x30>
     6e8:	c23e                	sw	a5,4(sp)
        cfg.KLIntvl = 15000;
     6ea:	6791                	lui	a5,0x4
     6ec:	a9878793          	addi	a5,a5,-1384 # 3a98 <find_entry+0x17a>
     6f0:	c43e                	sw	a5,8(sp)
        cfg.KLCount = 9;
        WCHNET_ConfigKeepLive(&cfg);
     6f2:	0048                	addi	a0,sp,4
        cfg.KLCount = 9;
     6f4:	47a5                	li	a5,9
     6f6:	c63e                	sw	a5,12(sp)
        WCHNET_ConfigKeepLive(&cfg);
     6f8:	7fe020ef          	jal	ra,2ef6 <WCHNET_ConfigKeepLive>
    }
#endif
    memset(socket, 0xff, WCHNET_MAX_SOCKET_NUM);
     6fc:	577d                	li	a4,-1
     6fe:	86e18023          	sb	a4,-1952(gp) # 20000080 <socket>
    for (i = 0; i < WCHNET_MAX_SOCKET_NUM; i++)
        WCHNET_CreateTcpSocket();                               //Create TCP Socket
     702:	3339                	jal	410 <WCHNET_CreateTcpSocket>

    while(1)
    {
        /*Ethernet library main task function,
         * which needs to be called cyclically*/
        WCHNET_MainTask();
     704:	7c6010ef          	jal	ra,1eca <WCHNET_MainTask>
        /*Query the Ethernet global interrupt,
         * if there is an interrupt, call the global interrupt handler*/
        if(WCHNET_QueryGlobalInt())
     708:	09c030ef          	jal	ra,37a4 <WCHNET_QueryGlobalInt>
     70c:	dd65                	beqz	a0,704 <main+0x106>
        {
            WCHNET_HandleGlobalInt();
     70e:	3595                	jal	572 <WCHNET_HandleGlobalInt>
     710:	bfd5                	j	704 <main+0x106>

00000712 <SystemInit>:
 *
 * @return  none
 */
void SystemInit (void)
{
  RCC->CTLR |= (uint32_t)0x00000001;
     712:	400217b7          	lui	a5,0x40021
     716:	4398                	lw	a4,0(a5)

  RCC->CFGR0 &= (uint32_t)0xF0FF0000;
     718:	f0ff06b7          	lui	a3,0xf0ff0
{
     71c:	1141                	addi	sp,sp,-16
  RCC->CTLR |= (uint32_t)0x00000001;
     71e:	00176713          	ori	a4,a4,1
     722:	c398                	sw	a4,0(a5)
  RCC->CFGR0 &= (uint32_t)0xF0FF0000;
     724:	43d8                	lw	a4,4(a5)
  RCC->CTLR |= ((uint32_t)RCC_HSEON);

  /* Wait till HSE is ready and if Time out is reached exit */
  do
  {
    HSEStatus = RCC->CTLR & RCC_HSERDY;
     726:	00020637          	lui	a2,0x20
  RCC->CFGR0 &= (uint32_t)0xF0FF0000;
     72a:	8f75                	and	a4,a4,a3
     72c:	c3d8                	sw	a4,4(a5)
  RCC->CTLR &= (uint32_t)0xFEF6FFFF;
     72e:	4398                	lw	a4,0(a5)
     730:	fef706b7          	lui	a3,0xfef70
     734:	16fd                	addi	a3,a3,-1
     736:	8f75                	and	a4,a4,a3
     738:	c398                	sw	a4,0(a5)
  RCC->CTLR &= (uint32_t)0xFFFBFFFF;
     73a:	4398                	lw	a4,0(a5)
     73c:	fffc06b7          	lui	a3,0xfffc0
     740:	16fd                	addi	a3,a3,-1
     742:	8f75                	and	a4,a4,a3
     744:	c398                	sw	a4,0(a5)
  RCC->CFGR0 &= (uint32_t)0xFF00FFFF;
     746:	43d8                	lw	a4,4(a5)
     748:	ff0106b7          	lui	a3,0xff010
     74c:	16fd                	addi	a3,a3,-1
     74e:	8f75                	and	a4,a4,a3
     750:	c3d8                	sw	a4,4(a5)
  RCC->CTLR &= (uint32_t)0xEBFFFFFF;
     752:	4398                	lw	a4,0(a5)
     754:	ec0006b7          	lui	a3,0xec000
     758:	16fd                	addi	a3,a3,-1
     75a:	8f75                	and	a4,a4,a3
     75c:	c398                	sw	a4,0(a5)
  RCC->INTR = 0x00FF0000;
     75e:	00ff0737          	lui	a4,0xff0
     762:	c798                	sw	a4,8(a5)
  RCC->CFGR2 = 0x00000000;
     764:	0207a623          	sw	zero,44(a5) # 4002102c <_eusrstack+0x2001102c>
  __IO uint32_t StartUpCounter = 0, HSEStatus = 0;
     768:	c402                	sw	zero,8(sp)
     76a:	c602                	sw	zero,12(sp)
  RCC->CTLR |= ((uint32_t)RCC_HSEON);
     76c:	4398                	lw	a4,0(a5)
     76e:	66c1                	lui	a3,0x10
     770:	8f55                	or	a4,a4,a3
     772:	c398                	sw	a4,0(a5)
    HSEStatus = RCC->CTLR & RCC_HSERDY;
     774:	400216b7          	lui	a3,0x40021
    StartUpCounter++;
  } while((HSEStatus == 0) && (StartUpCounter != HSE_STARTUP_TIMEOUT));
     778:	6705                	lui	a4,0x1
    HSEStatus = RCC->CTLR & RCC_HSERDY;
     77a:	429c                	lw	a5,0(a3)
     77c:	8ff1                	and	a5,a5,a2
     77e:	c63e                	sw	a5,12(sp)
    StartUpCounter++;
     780:	47a2                	lw	a5,8(sp)
     782:	0785                	addi	a5,a5,1
     784:	c43e                	sw	a5,8(sp)
  } while((HSEStatus == 0) && (StartUpCounter != HSE_STARTUP_TIMEOUT));
     786:	47b2                	lw	a5,12(sp)
     788:	e781                	bnez	a5,790 <SystemInit+0x7e>
     78a:	47a2                	lw	a5,8(sp)
     78c:	fee797e3          	bne	a5,a4,77a <SystemInit+0x68>

  if ((RCC->CTLR & RCC_HSERDY) != RESET)
     790:	400217b7          	lui	a5,0x40021
     794:	439c                	lw	a5,0(a5)
     796:	00e79713          	slli	a4,a5,0xe
     79a:	06075763          	bgez	a4,808 <__stack_size+0x8>
  {
    HSEStatus = (uint32_t)0x01;
     79e:	4785                	li	a5,1
     7a0:	c63e                	sw	a5,12(sp)
  else
  {
    HSEStatus = (uint32_t)0x00;
  }

  if (HSEStatus == (uint32_t)0x01)
     7a2:	4732                	lw	a4,12(sp)
     7a4:	4785                	li	a5,1
     7a6:	04f71f63          	bne	a4,a5,804 <__stack_size+0x4>
  {
    /* HCLK = SYSCLK */
    RCC->CFGR0 |= (uint32_t)RCC_HPRE_DIV1;
     7aa:	400217b7          	lui	a5,0x40021
     7ae:	43d8                	lw	a4,4(a5)
    RCC->CFGR0 |= (uint32_t)RCC_PPRE2_DIV1;
    /* PCLK1 = HCLK */
    RCC->CFGR0 |= (uint32_t)RCC_PPRE1_DIV2;

    /*  PLL configuration: PLLCLK = HSE * 12 = 96 MHz */
    RCC->CFGR0 &= (uint32_t)((uint32_t)~(RCC_PLLSRC | RCC_PLLXTPRE |
     7b0:	ffc106b7          	lui	a3,0xffc10
     7b4:	16fd                	addi	a3,a3,-1
    RCC->CFGR0 |= (uint32_t)RCC_HPRE_DIV1;
     7b6:	c3d8                	sw	a4,4(a5)
    RCC->CFGR0 |= (uint32_t)RCC_PPRE2_DIV1;
     7b8:	43d8                	lw	a4,4(a5)
     7ba:	c3d8                	sw	a4,4(a5)
    RCC->CFGR0 |= (uint32_t)RCC_PPRE1_DIV2;
     7bc:	43d8                	lw	a4,4(a5)
     7be:	40076713          	ori	a4,a4,1024
     7c2:	c3d8                	sw	a4,4(a5)
    RCC->CFGR0 &= (uint32_t)((uint32_t)~(RCC_PLLSRC | RCC_PLLXTPRE |
     7c4:	43d8                	lw	a4,4(a5)
     7c6:	8f75                	and	a4,a4,a3
     7c8:	c3d8                	sw	a4,4(a5)
                                        RCC_PLLMULL));

#ifdef CH32V30x_D8
        RCC->CFGR0 |= (uint32_t)(RCC_PLLSRC_HSE | RCC_PLLXTPRE_HSE | RCC_PLLMULL12);
#else
        RCC->CFGR0 |= (uint32_t)(RCC_PLLSRC_HSE | RCC_PLLXTPRE_HSE | RCC_PLLMULL12_EXTEN);
     7ca:	43d8                	lw	a4,4(a5)
     7cc:	002906b7          	lui	a3,0x290
     7d0:	8f55                	or	a4,a4,a3
     7d2:	c3d8                	sw	a4,4(a5)
#endif

    /* Enable PLL */
    RCC->CTLR |= RCC_PLLON;
     7d4:	4398                	lw	a4,0(a5)
     7d6:	010006b7          	lui	a3,0x1000
     7da:	8f55                	or	a4,a4,a3
     7dc:	c398                	sw	a4,0(a5)
    /* Wait till PLL is ready */
    while((RCC->CTLR & RCC_PLLRDY) == 0)
     7de:	4398                	lw	a4,0(a5)
     7e0:	00671693          	slli	a3,a4,0x6
     7e4:	fe06dde3          	bgez	a3,7de <SystemInit+0xcc>
    {
    }
    /* Select PLL as system clock source */
    RCC->CFGR0 &= (uint32_t)((uint32_t)~(RCC_SW));
     7e8:	43d8                	lw	a4,4(a5)
    RCC->CFGR0 |= (uint32_t)RCC_SW_PLL;
    /* Wait till PLL is used as system clock source */
    while ((RCC->CFGR0 & (uint32_t)RCC_SWS) != (uint32_t)0x08)
     7ea:	400216b7          	lui	a3,0x40021
    RCC->CFGR0 &= (uint32_t)((uint32_t)~(RCC_SW));
     7ee:	9b71                	andi	a4,a4,-4
     7f0:	c3d8                	sw	a4,4(a5)
    RCC->CFGR0 |= (uint32_t)RCC_SW_PLL;
     7f2:	43d8                	lw	a4,4(a5)
     7f4:	00276713          	ori	a4,a4,2
     7f8:	c3d8                	sw	a4,4(a5)
    while ((RCC->CFGR0 & (uint32_t)RCC_SWS) != (uint32_t)0x08)
     7fa:	4721                	li	a4,8
     7fc:	42dc                	lw	a5,4(a3)
     7fe:	8bb1                	andi	a5,a5,12
     800:	fee79ee3          	bne	a5,a4,7fc <SystemInit+0xea>
}
     804:	0141                	addi	sp,sp,16
     806:	8082                	ret
    HSEStatus = (uint32_t)0x00;
     808:	c602                	sw	zero,12(sp)
     80a:	bf61                	j	7a2 <SystemInit+0x90>

0000080c <SystemCoreClockUpdate>:
  tmp = RCC->CFGR0 & RCC_SWS;
     80c:	400216b7          	lui	a3,0x40021
     810:	42d8                	lw	a4,4(a3)
     812:	4611                	li	a2,4
     814:	8b31                	andi	a4,a4,12
  switch (tmp)
     816:	81418793          	addi	a5,gp,-2028 # 20000034 <SystemCoreClock>
     81a:	00c70563          	beq	a4,a2,824 <SystemCoreClockUpdate+0x18>
     81e:	4621                	li	a2,8
     820:	02c70863          	beq	a4,a2,850 <SystemCoreClockUpdate+0x44>
      SystemCoreClock = HSI_VALUE;
     824:	007a1737          	lui	a4,0x7a1
     828:	20070713          	addi	a4,a4,512 # 7a1200 <_data_lma+0x7979b8>
      if(Pll_6_5 == 1) SystemCoreClock = (SystemCoreClock / 2);
     82c:	c398                	sw	a4,0(a5)
  tmp = AHBPrescTable[((RCC->CFGR0 & RCC_HPRE) >> 4)];
     82e:	40021737          	lui	a4,0x40021
     832:	4358                	lw	a4,4(a4)
     834:	8311                	srli	a4,a4,0x4
     836:	00f77693          	andi	a3,a4,15
     83a:	20000737          	lui	a4,0x20000
     83e:	00070713          	mv	a4,a4
     842:	9736                	add	a4,a4,a3
     844:	2314                	lbu	a3,0(a4)
  SystemCoreClock >>= tmp; 
     846:	4398                	lw	a4,0(a5)
     848:	00d75733          	srl	a4,a4,a3
     84c:	c398                	sw	a4,0(a5)
}
     84e:	8082                	ret
      pllmull = RCC->CFGR0 & RCC_PLLMULL;
     850:	42d8                	lw	a4,4(a3)
      pllsource = RCC->CFGR0 & RCC_PLLSRC; 
     852:	42d4                	lw	a3,4(a3)
     854:	6641                	lui	a2,0x10
      pllmull = ( pllmull >> 18) + 2;
     856:	8349                	srli	a4,a4,0x12
     858:	8b3d                	andi	a4,a4,15
      pllsource = RCC->CFGR0 & RCC_PLLSRC; 
     85a:	8ef1                	and	a3,a3,a2
      if(pllmull == 2) pllmull = 18;
     85c:	00270613          	addi	a2,a4,2 # 20000002 <_data_vma+0x2>
     860:	cf15                	beqz	a4,89c <SystemCoreClockUpdate+0x90>
      if(pllmull == 15){
     862:	473d                	li	a4,15
     864:	02e60f63          	beq	a2,a4,8a2 <SystemCoreClockUpdate+0x96>
      if(pllmull == 16) pllmull = 15;
     868:	4741                	li	a4,16
     86a:	02e60f63          	beq	a2,a4,8a8 <SystemCoreClockUpdate+0x9c>
      if(pllmull == 17) pllmull = 16;
     86e:	4745                	li	a4,17
     870:	4581                	li	a1,0
     872:	00e61363          	bne	a2,a4,878 <SystemCoreClockUpdate+0x6c>
     876:	4641                	li	a2,16
      if (pllsource == 0x00)
     878:	e2a1                	bnez	a3,8b8 <SystemCoreClockUpdate+0xac>
          if(EXTEN->EXTEN_CTR & EXTEN_PLL_HSI_PRE) SystemCoreClock = HSI_VALUE * pllmull;
     87a:	40024737          	lui	a4,0x40024
     87e:	80072703          	lw	a4,-2048(a4) # 40023800 <_eusrstack+0x20013800>
     882:	8b41                	andi	a4,a4,16
     884:	c70d                	beqz	a4,8ae <SystemCoreClockUpdate+0xa2>
     886:	007a1737          	lui	a4,0x7a1
     88a:	20070713          	addi	a4,a4,512 # 7a1200 <_data_lma+0x7979b8>
          SystemCoreClock = SystemCoreClock * pllmull;
     88e:	02c70633          	mul	a2,a4,a2
     892:	c390                	sw	a2,0(a5)
      if(Pll_6_5 == 1) SystemCoreClock = (SystemCoreClock / 2);
     894:	ddc9                	beqz	a1,82e <SystemCoreClockUpdate+0x22>
     896:	4398                	lw	a4,0(a5)
     898:	8305                	srli	a4,a4,0x1
     89a:	bf49                	j	82c <SystemCoreClockUpdate+0x20>
     89c:	4581                	li	a1,0
      if(pllmull == 2) pllmull = 18;
     89e:	4649                	li	a2,18
     8a0:	bfe1                	j	878 <SystemCoreClockUpdate+0x6c>
          Pll_6_5 = 1;
     8a2:	4585                	li	a1,1
          pllmull = 13;  /* *6.5 */
     8a4:	4635                	li	a2,13
     8a6:	bfc9                	j	878 <SystemCoreClockUpdate+0x6c>
     8a8:	4581                	li	a1,0
      if(pllmull == 16) pllmull = 15;
     8aa:	463d                	li	a2,15
     8ac:	b7f1                	j	878 <SystemCoreClockUpdate+0x6c>
          else SystemCoreClock = (HSI_VALUE >> 1) * pllmull;
     8ae:	003d1737          	lui	a4,0x3d1
     8b2:	90070713          	addi	a4,a4,-1792 # 3d0900 <_data_lma+0x3c70b8>
     8b6:	bfe1                	j	88e <SystemCoreClockUpdate+0x82>
          if(RCC->CFGR2 & (1<<16)){ /* PLL2 */
     8b8:	40021537          	lui	a0,0x40021
     8bc:	5558                	lw	a4,44(a0)
     8be:	00f71693          	slli	a3,a4,0xf
              SystemCoreClock = HSE_VALUE/(((RCC->CFGR2 & 0xF0)>>4) + 1);  /* PREDIV2 */
     8c2:	5558                	lw	a4,44(a0)
          if(RCC->CFGR2 & (1<<16)){ /* PLL2 */
     8c4:	0406df63          	bgez	a3,922 <SystemCoreClockUpdate+0x116>
              SystemCoreClock = HSE_VALUE/(((RCC->CFGR2 & 0xF0)>>4) + 1);  /* PREDIV2 */
     8c8:	8311                	srli	a4,a4,0x4
     8ca:	8b3d                	andi	a4,a4,15
     8cc:	00170693          	addi	a3,a4,1
     8d0:	007a1737          	lui	a4,0x7a1
     8d4:	20070713          	addi	a4,a4,512 # 7a1200 <_data_lma+0x7979b8>
     8d8:	02d75733          	divu	a4,a4,a3
     8dc:	c398                	sw	a4,0(a5)
              Pll2mull = (uint8_t)((RCC->CFGR2 & 0xF00)>>8);
     8de:	5554                	lw	a3,44(a0)
     8e0:	82a1                	srli	a3,a3,0x8
     8e2:	8abd                	andi	a3,a3,15
              if(Pll2mull == 0) SystemCoreClock = (SystemCoreClock * 5)>>1;
     8e4:	e28d                	bnez	a3,906 <SystemCoreClockUpdate+0xfa>
     8e6:	4695                	li	a3,5
              else if(Pll2mull == 1) SystemCoreClock = (SystemCoreClock * 25)>>1;
     8e8:	02d70733          	mul	a4,a4,a3
     8ec:	8305                	srli	a4,a4,0x1
              else  SystemCoreClock = SystemCoreClock * (Pll2mull + 2);
     8ee:	c398                	sw	a4,0(a5)
              SystemCoreClock = SystemCoreClock/((RCC->CFGR2 & 0xF) + 1);  /* PREDIV1 */
     8f0:	40021737          	lui	a4,0x40021
     8f4:	5758                	lw	a4,44(a4)
     8f6:	4394                	lw	a3,0(a5)
     8f8:	8b3d                	andi	a4,a4,15
     8fa:	0705                	addi	a4,a4,1
     8fc:	02e6d733          	divu	a4,a3,a4
              SystemCoreClock = HSE_VALUE/((RCC->CFGR2 & 0xF) + 1);  /* PREDIV1 */
     900:	c398                	sw	a4,0(a5)
          SystemCoreClock = SystemCoreClock * pllmull;
     902:	4398                	lw	a4,0(a5)
     904:	b769                	j	88e <SystemCoreClockUpdate+0x82>
              else if(Pll2mull == 1) SystemCoreClock = (SystemCoreClock * 25)>>1;
     906:	4505                	li	a0,1
     908:	00a69463          	bne	a3,a0,910 <SystemCoreClockUpdate+0x104>
     90c:	46e5                	li	a3,25
     90e:	bfe9                	j	8e8 <SystemCoreClockUpdate+0xdc>
              else if(Pll2mull == 15) SystemCoreClock = SystemCoreClock * 20;
     910:	453d                	li	a0,15
     912:	00a69663          	bne	a3,a0,91e <SystemCoreClockUpdate+0x112>
     916:	46d1                	li	a3,20
              else  SystemCoreClock = SystemCoreClock * (Pll2mull + 2);
     918:	02e68733          	mul	a4,a3,a4
     91c:	bfc9                	j	8ee <SystemCoreClockUpdate+0xe2>
     91e:	0689                	addi	a3,a3,2
     920:	bfe5                	j	918 <SystemCoreClockUpdate+0x10c>
              SystemCoreClock = HSE_VALUE/((RCC->CFGR2 & 0xF) + 1);  /* PREDIV1 */
     922:	8b3d                	andi	a4,a4,15
     924:	00170693          	addi	a3,a4,1 # 40021001 <_eusrstack+0x20011001>
     928:	007a1737          	lui	a4,0x7a1
     92c:	20070713          	addi	a4,a4,512 # 7a1200 <_data_lma+0x7979b8>
     930:	02d75733          	divu	a4,a4,a3
     934:	b7f1                	j	900 <SystemCoreClockUpdate+0xf4>

00000936 <ADC1_2_IRQHandler>:
DMA2_Channel8_IRQHandler:
DMA2_Channel9_IRQHandler:
DMA2_Channel10_IRQHandler:
DMA2_Channel11_IRQHandler:
1:
	j 1b
     936:	a001                	j	936 <ADC1_2_IRQHandler>

00000938 <handle_reset>:
	.weak	handle_reset
	.align	1
handle_reset:
.option push 
.option	norelax 
	la gp, __global_pointer$
     938:	20000197          	auipc	gp,0x20000
     93c:	ee818193          	addi	gp,gp,-280 # 20000820 <__global_pointer$>
.option	pop 
1:
	la sp, _eusrstack 
     940:	2000f117          	auipc	sp,0x2000f
     944:	6c010113          	addi	sp,sp,1728 # 20010000 <_eusrstack>
2:
/* Load data section from flash to RAM */
	la a0, _data_lma
     948:	00009517          	auipc	a0,0x9
     94c:	f0050513          	addi	a0,a0,-256 # 9848 <_data_lma>
	la a1, _data_vma
     950:	1ffff597          	auipc	a1,0x1ffff
     954:	6b058593          	addi	a1,a1,1712 # 20000000 <_data_vma>
	la a2, _edata
     958:	85818613          	addi	a2,gp,-1960 # 20000078 <_edata>
	bgeu a1, a2, 2f
     95c:	00c5fa63          	bgeu	a1,a2,970 <handle_reset+0x38>
1:
	lw t0, (a0)
     960:	00052283          	lw	t0,0(a0)
	sw t0, (a1)
     964:	0055a023          	sw	t0,0(a1)
	addi a0, a0, 4
     968:	0511                	addi	a0,a0,4
	addi a1, a1, 4
     96a:	0591                	addi	a1,a1,4
	bltu a1, a2, 1b
     96c:	fec5eae3          	bltu	a1,a2,960 <handle_reset+0x28>
2:
/* Clear bss section */
	la a0, _sbss
     970:	85818513          	addi	a0,gp,-1960 # 20000078 <_edata>
	la a1, _ebss
     974:	20008597          	auipc	a1,0x20008
     978:	2a458593          	addi	a1,a1,676 # 20008c18 <_ebss>
	bgeu a0, a1, 2f
     97c:	00b57763          	bgeu	a0,a1,98a <handle_reset+0x52>
1:
	sw zero, (a0)
     980:	00052023          	sw	zero,0(a0)
	addi a0, a0, 4
     984:	0511                	addi	a0,a0,4
	bltu a0, a1, 1b
     986:	feb56de3          	bltu	a0,a1,980 <handle_reset+0x48>
2:
/* Configure pipelining and instruction prediction */
    li t0, 0x1f
     98a:	42fd                	li	t0,31
    csrw 0xbc0, t0
     98c:	bc029073          	csrw	0xbc0,t0
/* Enable interrupt nesting and hardware stack */
	li t0, 0x0b
     990:	42ad                	li	t0,11
	csrw 0x804, t0
     992:	80429073          	csrw	0x804,t0
/* Enable floating point and global interrupt, configure privileged mode */
   	li t0, 0x6088           
     996:	000062b7          	lui	t0,0x6
     99a:	08828293          	addi	t0,t0,136 # 6088 <tcp_close+0x6>
   	csrw mstatus, t0
     99e:	30029073          	csrw	mstatus,t0
/* Configure the interrupt vector table recognition mode and entry address mode */
 	la t0, _vector_base
     9a2:	fffff297          	auipc	t0,0xfffff
     9a6:	66228293          	addi	t0,t0,1634 # 4 <_einit>
    ori t0, t0, 3           
     9aa:	0032e293          	ori	t0,t0,3
	csrw mtvec, t0
     9ae:	30529073          	csrw	mtvec,t0

    jal  SystemInit
     9b2:	d61ff0ef          	jal	ra,712 <SystemInit>
	la t0, main
     9b6:	00000297          	auipc	t0,0x0
     9ba:	c4828293          	addi	t0,t0,-952 # 5fe <main>
	csrw mepc, t0
     9be:	34129073          	csrw	mepc,t0
	mret
     9c2:	30200073          	mret

000009c6 <DBGMCU_GetCHIPID>:
 *          CH32V317TCU6-0x3175B5X8
 */
uint32_t DBGMCU_GetCHIPID( void )
{
    return( *( uint32_t * )0x1FFFF704 );
}
     9c6:	1ffff7b7          	lui	a5,0x1ffff
     9ca:	7047a503          	lw	a0,1796(a5) # 1ffff704 <_data_lma+0x1fff5ebc>
     9ce:	8082                	ret

000009d0 <ETH_DeInit>:
 *
 * @return  none
 */
#ifdef CH32V30x_D8C
void ETH_DeInit(void)
{
     9d0:	821ff2ef          	jal	t0,1f0 <__riscv_save_0>
    RCC_AHBPeriphResetCmd(RCC_AHBPeriph_ETH_MAC, ENABLE);
     9d4:	4585                	li	a1,1
     9d6:	6511                	lui	a0,0x4
     9d8:	02b000ef          	jal	ra,1202 <RCC_AHBPeriphResetCmd>
    RCC_AHBPeriphResetCmd(RCC_AHBPeriph_ETH_MAC, DISABLE);
     9dc:	4581                	li	a1,0
     9de:	6511                	lui	a0,0x4
     9e0:	023000ef          	jal	ra,1202 <RCC_AHBPeriphResetCmd>
}
     9e4:	831ff06f          	j	214 <__riscv_restore_0>

000009e8 <ETH_StructInit>:
    ETH_InitStruct->ETH_AutomaticPadCRCStrip = ETH_AutomaticPadCRCStrip_Disable;
    ETH_InitStruct->ETH_BackOffLimit = ETH_BackOffLimit_10;
    ETH_InitStruct->ETH_DeferralCheck = ETH_DeferralCheck_Disable;
    ETH_InitStruct->ETH_ReceiveAll = ETH_ReceiveAll_Disable;
    ETH_InitStruct->ETH_SourceAddrFilter = ETH_SourceAddrFilter_Disable;
    ETH_InitStruct->ETH_PassControlFrames = ETH_PassControlFrames_BlockAll;
     9e8:	04000793          	li	a5,64
     9ec:	c13c                	sw	a5,64(a0)
    ETH_InitStruct->ETH_BroadcastFramesReception = ETH_BroadcastFramesReception_Disable;
     9ee:	02000793          	li	a5,32
     9f2:	c17c                	sw	a5,68(a0)
    ETH_InitStruct->ETH_MulticastFramesFilter = ETH_MulticastFramesFilter_Perfect;
    ETH_InitStruct->ETH_UnicastFramesFilter = ETH_UnicastFramesFilter_Perfect;
    ETH_InitStruct->ETH_HashTableHigh = 0x0;
    ETH_InitStruct->ETH_HashTableLow = 0x0;
    ETH_InitStruct->ETH_PauseTime = 0x0;
    ETH_InitStruct->ETH_ZeroQuantaPause = ETH_ZeroQuantaPause_Disable;
     9f4:	08000793          	li	a5,128
     9f8:	d17c                	sw	a5,100(a0)
    ETH_InitStruct->ETH_AutoNegotiation = ETH_AutoNegotiation_Disable;
     9fa:	00052023          	sw	zero,0(a0) # 4000 <etharp_output+0xf2>
    ETH_InitStruct->ETH_ReceiveFlowControl = ETH_ReceiveFlowControl_Disable;
    ETH_InitStruct->ETH_TransmitFlowControl = ETH_TransmitFlowControl_Disable;
    ETH_InitStruct->ETH_VLANTagComparison = ETH_VLANTagComparison_16Bit;
    ETH_InitStruct->ETH_VLANTagIdentifier = 0x0;
    /*------------------------   DMA   -----------------------------------*/
    ETH_InitStruct->ETH_DropTCPIPChecksumErrorFrame = ETH_DropTCPIPChecksumErrorFrame_Disable;
     9fe:	040007b7          	lui	a5,0x4000
    ETH_InitStruct->ETH_Watchdog = ETH_Watchdog_Enable;
     a02:	00052223          	sw	zero,4(a0)
    ETH_InitStruct->ETH_Jabber = ETH_Jabber_Enable;
     a06:	00052423          	sw	zero,8(a0)
    ETH_InitStruct->ETH_InterFrameGap = ETH_InterFrameGap_96Bit;
     a0a:	00052623          	sw	zero,12(a0)
    ETH_InitStruct->ETH_CarrierSense = ETH_CarrierSense_Enable;
     a0e:	00052823          	sw	zero,16(a0)
    ETH_InitStruct->ETH_Speed = ETH_Speed_10M;
     a12:	00052a23          	sw	zero,20(a0)
    ETH_InitStruct->ETH_ReceiveOwn = ETH_ReceiveOwn_Enable;
     a16:	00052c23          	sw	zero,24(a0)
    ETH_InitStruct->ETH_LoopbackMode = ETH_LoopbackMode_Disable;
     a1a:	00052e23          	sw	zero,28(a0)
    ETH_InitStruct->ETH_Mode = ETH_Mode_HalfDuplex;
     a1e:	02052023          	sw	zero,32(a0)
    ETH_InitStruct->ETH_ChecksumOffload = ETH_ChecksumOffload_Disable;
     a22:	02052223          	sw	zero,36(a0)
    ETH_InitStruct->ETH_RetryTransmission = ETH_RetryTransmission_Enable;
     a26:	02052423          	sw	zero,40(a0)
    ETH_InitStruct->ETH_AutomaticPadCRCStrip = ETH_AutomaticPadCRCStrip_Disable;
     a2a:	02052623          	sw	zero,44(a0)
    ETH_InitStruct->ETH_BackOffLimit = ETH_BackOffLimit_10;
     a2e:	02052823          	sw	zero,48(a0)
    ETH_InitStruct->ETH_DeferralCheck = ETH_DeferralCheck_Disable;
     a32:	02052a23          	sw	zero,52(a0)
    ETH_InitStruct->ETH_ReceiveAll = ETH_ReceiveAll_Disable;
     a36:	02052c23          	sw	zero,56(a0)
    ETH_InitStruct->ETH_SourceAddrFilter = ETH_SourceAddrFilter_Disable;
     a3a:	02052e23          	sw	zero,60(a0)
    ETH_InitStruct->ETH_DestinationAddrFilter = ETH_DestinationAddrFilter_Normal;
     a3e:	04052423          	sw	zero,72(a0)
    ETH_InitStruct->ETH_PromiscuousMode = ETH_PromiscuousMode_Disable;
     a42:	04052623          	sw	zero,76(a0)
    ETH_InitStruct->ETH_MulticastFramesFilter = ETH_MulticastFramesFilter_Perfect;
     a46:	04052823          	sw	zero,80(a0)
    ETH_InitStruct->ETH_UnicastFramesFilter = ETH_UnicastFramesFilter_Perfect;
     a4a:	04052a23          	sw	zero,84(a0)
    ETH_InitStruct->ETH_HashTableHigh = 0x0;
     a4e:	04052c23          	sw	zero,88(a0)
    ETH_InitStruct->ETH_HashTableLow = 0x0;
     a52:	04052e23          	sw	zero,92(a0)
    ETH_InitStruct->ETH_PauseTime = 0x0;
     a56:	06052023          	sw	zero,96(a0)
    ETH_InitStruct->ETH_PauseLowThreshold = ETH_PauseLowThreshold_Minus4;
     a5a:	06052423          	sw	zero,104(a0)
    ETH_InitStruct->ETH_UnicastPauseFrameDetect = ETH_UnicastPauseFrameDetect_Disable;
     a5e:	06052623          	sw	zero,108(a0)
    ETH_InitStruct->ETH_ReceiveFlowControl = ETH_ReceiveFlowControl_Disable;
     a62:	06052823          	sw	zero,112(a0)
    ETH_InitStruct->ETH_TransmitFlowControl = ETH_TransmitFlowControl_Disable;
     a66:	06052a23          	sw	zero,116(a0)
    ETH_InitStruct->ETH_VLANTagComparison = ETH_VLANTagComparison_16Bit;
     a6a:	06052c23          	sw	zero,120(a0)
    ETH_InitStruct->ETH_VLANTagIdentifier = 0x0;
     a6e:	06052e23          	sw	zero,124(a0)
    ETH_InitStruct->ETH_DropTCPIPChecksumErrorFrame = ETH_DropTCPIPChecksumErrorFrame_Disable;
     a72:	08f52023          	sw	a5,128(a0)
    ETH_InitStruct->ETH_ReceiveStoreForward = ETH_ReceiveStoreForward_Enable;
     a76:	020007b7          	lui	a5,0x2000
     a7a:	08f52223          	sw	a5,132(a0)
    ETH_InitStruct->ETH_TransmitThresholdControl = ETH_TransmitThresholdControl_64Bytes;
    ETH_InitStruct->ETH_ForwardErrorFrames = ETH_ForwardErrorFrames_Disable;
    ETH_InitStruct->ETH_ForwardUndersizedGoodFrames = ETH_ForwardUndersizedGoodFrames_Disable;
    ETH_InitStruct->ETH_ReceiveThresholdControl = ETH_ReceiveThresholdControl_64Bytes;
    ETH_InitStruct->ETH_SecondFrameOperate = ETH_SecondFrameOperate_Disable;
    ETH_InitStruct->ETH_AddressAlignedBeats = ETH_AddressAlignedBeats_Enable;
     a7e:	0af52223          	sw	a5,164(a0)
    ETH_InitStruct->ETH_FixedBurst = ETH_FixedBurst_Disable;
    ETH_InitStruct->ETH_RxDMABurstLength = ETH_RxDMABurstLength_1Beat;
     a82:	000207b7          	lui	a5,0x20
    ETH_InitStruct->ETH_TransmitStoreForward = ETH_TransmitStoreForward_Enable;
     a86:	00200737          	lui	a4,0x200
    ETH_InitStruct->ETH_RxDMABurstLength = ETH_RxDMABurstLength_1Beat;
     a8a:	0af52623          	sw	a5,172(a0)
    ETH_InitStruct->ETH_TxDMABurstLength = ETH_TxDMABurstLength_1Beat;
     a8e:	10000793          	li	a5,256
    ETH_InitStruct->ETH_FlushReceivedFrame = ETH_FlushReceivedFrame_Enable;
     a92:	08052423          	sw	zero,136(a0)
    ETH_InitStruct->ETH_TransmitStoreForward = ETH_TransmitStoreForward_Enable;
     a96:	08e52623          	sw	a4,140(a0)
    ETH_InitStruct->ETH_TransmitThresholdControl = ETH_TransmitThresholdControl_64Bytes;
     a9a:	08052823          	sw	zero,144(a0)
    ETH_InitStruct->ETH_ForwardErrorFrames = ETH_ForwardErrorFrames_Disable;
     a9e:	08052a23          	sw	zero,148(a0)
    ETH_InitStruct->ETH_ForwardUndersizedGoodFrames = ETH_ForwardUndersizedGoodFrames_Disable;
     aa2:	08052c23          	sw	zero,152(a0)
    ETH_InitStruct->ETH_ReceiveThresholdControl = ETH_ReceiveThresholdControl_64Bytes;
     aa6:	08052e23          	sw	zero,156(a0)
    ETH_InitStruct->ETH_SecondFrameOperate = ETH_SecondFrameOperate_Disable;
     aaa:	0a052023          	sw	zero,160(a0)
    ETH_InitStruct->ETH_FixedBurst = ETH_FixedBurst_Disable;
     aae:	0a052423          	sw	zero,168(a0)
    ETH_InitStruct->ETH_TxDMABurstLength = ETH_TxDMABurstLength_1Beat;
     ab2:	0af52823          	sw	a5,176(a0)
    ETH_InitStruct->ETH_DescriptorSkipLength = 0x0;
     ab6:	0a052a23          	sw	zero,180(a0)
    ETH_InitStruct->ETH_DMAArbitration = ETH_DMAArbitration_RoundRobin_RxTx_1_1;
     aba:	0a052c23          	sw	zero,184(a0)
}
     abe:	8082                	ret

00000ac0 <ETH_ReadPHYRegister>:
 *
 * @return  ETH_ERROR - in case of timeout.
 *          MAC MIIDR register value - Data read from the selected PHY register.
 */
uint16_t ETH_ReadPHYRegister(uint16_t PHYAddress, uint16_t PHYReg)
{
     ac0:	1141                	addi	sp,sp,-16
    uint32_t      tmpreg = 0;
    __IO uint32_t timeout = 0;
     ac2:	c602                	sw	zero,12(sp)

    tmpreg = ETH->MACMIIAR;
     ac4:	400286b7          	lui	a3,0x40028
     ac8:	4a9c                	lw	a5,16(a3)
    tmpreg &= ~MACMIIAR_CR_MASK;
    tmpreg |= (((uint32_t)PHYAddress << 11) & ETH_MACMIIAR_PA);
     aca:	6741                	lui	a4,0x10
     acc:	052e                	slli	a0,a0,0xb
     ace:	177d                	addi	a4,a4,-1
    tmpreg &= ~MACMIIAR_CR_MASK;
     ad0:	8bf1                	andi	a5,a5,28
    tmpreg |= (((uint32_t)PHYAddress << 11) & ETH_MACMIIAR_PA);
     ad2:	8d79                	and	a0,a0,a4
    tmpreg |= (((uint32_t)PHYReg << 6) & ETH_MACMIIAR_MR);
     ad4:	059a                	slli	a1,a1,0x6
    tmpreg |= (((uint32_t)PHYAddress << 11) & ETH_MACMIIAR_PA);
     ad6:	8d5d                	or	a0,a0,a5
    tmpreg |= (((uint32_t)PHYReg << 6) & ETH_MACMIIAR_MR);
     ad8:	7c05f593          	andi	a1,a1,1984
     adc:	8dc9                	or	a1,a1,a0
    tmpreg &= ~ETH_MACMIIAR_MW;
    tmpreg |= ETH_MACMIIAR_MB;
     ade:	0015e593          	ori	a1,a1,1

    do
    {
        timeout++;
        tmpreg = ETH->MACMIIAR;
    } while((tmpreg & ETH_MACMIIAR_MB) && (timeout < (uint32_t)PHY_READ_TO));
     ae2:	005007b7          	lui	a5,0x500
    ETH->MACMIIAR = tmpreg;
     ae6:	ca8c                	sw	a1,16(a3)
    } while((tmpreg & ETH_MACMIIAR_MB) && (timeout < (uint32_t)PHY_READ_TO));
     ae8:	17f9                	addi	a5,a5,-2
        timeout++;
     aea:	4732                	lw	a4,12(sp)
     aec:	0705                	addi	a4,a4,1
     aee:	c63a                	sw	a4,12(sp)
        tmpreg = ETH->MACMIIAR;
     af0:	4a98                	lw	a4,16(a3)
    } while((tmpreg & ETH_MACMIIAR_MB) && (timeout < (uint32_t)PHY_READ_TO));
     af2:	8b05                	andi	a4,a4,1
     af4:	c701                	beqz	a4,afc <ETH_ReadPHYRegister+0x3c>
     af6:	4732                	lw	a4,12(sp)
     af8:	fee7f9e3          	bgeu	a5,a4,aea <ETH_ReadPHYRegister+0x2a>

    if(timeout == PHY_READ_TO)
     afc:	4732                	lw	a4,12(sp)
     afe:	005007b7          	lui	a5,0x500
     b02:	17fd                	addi	a5,a5,-1
    {
        return (uint16_t)ETH_ERROR;
     b04:	4501                	li	a0,0
    if(timeout == PHY_READ_TO)
     b06:	00f70763          	beq	a4,a5,b14 <ETH_ReadPHYRegister+0x54>
    }

    return (uint16_t)(ETH->MACMIIDR);
     b0a:	400287b7          	lui	a5,0x40028
     b0e:	4bc8                	lw	a0,20(a5)
     b10:	0542                	slli	a0,a0,0x10
     b12:	8141                	srli	a0,a0,0x10
}
     b14:	0141                	addi	sp,sp,16
     b16:	8082                	ret

00000b18 <ETH_WritePHYRegister>:
 *
 * @return  ETH_ERROR - in case of timeout.
 *          ETH_SUCCESS - for correct write
 */
uint32_t ETH_WritePHYRegister(uint16_t PHYAddress, uint16_t PHYReg, uint16_t PHYValue)
{
     b18:	1141                	addi	sp,sp,-16
    uint32_t      tmpreg = 0;
    __IO uint32_t timeout = 0;

    tmpreg = ETH->MACMIIAR;
     b1a:	400287b7          	lui	a5,0x40028
    __IO uint32_t timeout = 0;
     b1e:	c602                	sw	zero,12(sp)
    tmpreg = ETH->MACMIIAR;
     b20:	4b98                	lw	a4,16(a5)
    tmpreg &= ~MACMIIAR_CR_MASK;
    tmpreg |= (((uint32_t)PHYAddress << 11) & ETH_MACMIIAR_PA);
     b22:	66c1                	lui	a3,0x10
     b24:	16fd                	addi	a3,a3,-1
     b26:	052e                	slli	a0,a0,0xb
     b28:	8d75                	and	a0,a0,a3
    tmpreg &= ~MACMIIAR_CR_MASK;
     b2a:	8b71                	andi	a4,a4,28
    tmpreg |= (((uint32_t)PHYReg << 6) & ETH_MACMIIAR_MR);
     b2c:	059a                	slli	a1,a1,0x6
    tmpreg |= (((uint32_t)PHYAddress << 11) & ETH_MACMIIAR_PA);
     b2e:	8d59                	or	a0,a0,a4
    tmpreg |= (((uint32_t)PHYReg << 6) & ETH_MACMIIAR_MR);
     b30:	7c05f593          	andi	a1,a1,1984
     b34:	8dc9                	or	a1,a1,a0
    tmpreg |= ETH_MACMIIAR_MW;
    tmpreg |= ETH_MACMIIAR_MB;
    ETH->MACMIIDR = PHYValue;
     b36:	cbd0                	sw	a2,20(a5)
    tmpreg |= ETH_MACMIIAR_MB;
     b38:	0035e593          	ori	a1,a1,3
    ETH->MACMIIAR = tmpreg;
     b3c:	cb8c                	sw	a1,16(a5)

    do
    {
        timeout++;
        tmpreg = ETH->MACMIIAR;
    } while((tmpreg & ETH_MACMIIAR_MB) && (timeout < (uint32_t)PHY_WRITE_TO));
     b3e:	000507b7          	lui	a5,0x50
        tmpreg = ETH->MACMIIAR;
     b42:	400286b7          	lui	a3,0x40028
    } while((tmpreg & ETH_MACMIIAR_MB) && (timeout < (uint32_t)PHY_WRITE_TO));
     b46:	17f9                	addi	a5,a5,-2
        timeout++;
     b48:	4732                	lw	a4,12(sp)
     b4a:	0705                	addi	a4,a4,1
     b4c:	c63a                	sw	a4,12(sp)
        tmpreg = ETH->MACMIIAR;
     b4e:	4a98                	lw	a4,16(a3)
    } while((tmpreg & ETH_MACMIIAR_MB) && (timeout < (uint32_t)PHY_WRITE_TO));
     b50:	8b05                	andi	a4,a4,1
     b52:	c701                	beqz	a4,b5a <ETH_WritePHYRegister+0x42>
     b54:	4732                	lw	a4,12(sp)
     b56:	fee7f9e3          	bgeu	a5,a4,b48 <ETH_WritePHYRegister+0x30>

    if(timeout >= PHY_WRITE_TO)
     b5a:	4532                	lw	a0,12(sp)
    {
        return ETH_ERROR;
    }

    return ETH_SUCCESS;
}
     b5c:	000507b7          	lui	a5,0x50
     b60:	17fd                	addi	a5,a5,-1
     b62:	00f53533          	sltu	a0,a0,a5
     b66:	0141                	addi	sp,sp,16
     b68:	8082                	ret

00000b6a <ETH_DMATxDescChainInit>:
void ETH_DMATxDescChainInit(ETH_DMADESCTypeDef *DMATxDescTab, uint8_t *TxBuff, uint32_t TxBuffCount)
{
    uint32_t            i = 0;
    ETH_DMADESCTypeDef *DMATxDesc;

    DMATxDescToSet = DMATxDescTab;
     b6a:	86a1a423          	sw	a0,-1944(gp) # 20000088 <DMATxDescToSet>

    for(i = 0; i < TxBuffCount; i++)
     b6e:	872a                	mv	a4,a0
     b70:	4781                	li	a5,0
    {
        DMATxDesc = DMATxDescTab + i;
        DMATxDesc->Status = ETH_DMATxDesc_TCH | ETH_DMATxDesc_IC;
     b72:	401008b7          	lui	a7,0x40100
        DMATxDesc->Buffer1Addr = (uint32_t)(&TxBuff[i * ETH_MAX_PACKET_SIZE]);
     b76:	60000313          	li	t1,1536

        if(i < (TxBuffCount - 1))
     b7a:	fff60e13          	addi	t3,a2,-1 # ffff <_data_lma+0x67b7>
    for(i = 0; i < TxBuffCount; i++)
     b7e:	00c79663          	bne	a5,a2,b8a <ETH_DMATxDescChainInit+0x20>
        {
            DMATxDesc->Buffer2NextDescAddr = (uint32_t)DMATxDescTab;
        }
    }

    ETH->DMATDLAR = (uint32_t)DMATxDescTab;
     b82:	400297b7          	lui	a5,0x40029
     b86:	cb88                	sw	a0,16(a5)
}
     b88:	8082                	ret
        DMATxDesc->Buffer1Addr = (uint32_t)(&TxBuff[i * ETH_MAX_PACKET_SIZE]);
     b8a:	026786b3          	mul	a3,a5,t1
        DMATxDesc->Status = ETH_DMATxDesc_TCH | ETH_DMATxDesc_IC;
     b8e:	01172023          	sw	a7,0(a4) # 10000 <_data_lma+0x67b8>
        DMATxDesc->Buffer1Addr = (uint32_t)(&TxBuff[i * ETH_MAX_PACKET_SIZE]);
     b92:	882a                	mv	a6,a0
     b94:	96ae                	add	a3,a3,a1
     b96:	c714                	sw	a3,8(a4)
        if(i < (TxBuffCount - 1))
     b98:	01070693          	addi	a3,a4,16
     b9c:	01c7f363          	bgeu	a5,t3,ba2 <ETH_DMATxDescChainInit+0x38>
            DMATxDesc->Buffer2NextDescAddr = (uint32_t)(DMATxDescTab + i + 1);
     ba0:	8836                	mv	a6,a3
     ba2:	01072623          	sw	a6,12(a4)
     ba6:	0785                	addi	a5,a5,1
     ba8:	8736                	mv	a4,a3
     baa:	bfd1                	j	b7e <ETH_DMATxDescChainInit+0x14>

00000bac <ETH_DMARxDescChainInit>:

    for(i = 0; i < RxBuffCount; i++)
    {
        DMARxDesc = DMARxDescTab + i;
        DMARxDesc->Status = ETH_DMARxDesc_OWN;
        DMARxDesc->ControlBufferSize = ETH_DMARxDesc_RCH | (uint32_t)ETH_MAX_PACKET_SIZE;
     bac:	6691                	lui	a3,0x4
    DMARxDescToGet = DMARxDescTab;
     bae:	86a1a223          	sw	a0,-1948(gp) # 20000084 <DMARxDescToGet>
    for(i = 0; i < RxBuffCount; i++)
     bb2:	4701                	li	a4,0
     bb4:	87aa                	mv	a5,a0
        DMARxDesc->Status = ETH_DMARxDesc_OWN;
     bb6:	80000337          	lui	t1,0x80000
        DMARxDesc->ControlBufferSize = ETH_DMARxDesc_RCH | (uint32_t)ETH_MAX_PACKET_SIZE;
     bba:	60068693          	addi	a3,a3,1536 # 4600 <ip_output_if+0x6a>
        DMARxDesc->Buffer1Addr = (uint32_t)(&RxBuff[i * ETH_MAX_PACKET_SIZE]);
     bbe:	60000e13          	li	t3,1536

        if(i < (RxBuffCount - 1))
     bc2:	fff60e93          	addi	t4,a2,-1
    for(i = 0; i < RxBuffCount; i++)
     bc6:	00c71663          	bne	a4,a2,bd2 <ETH_DMARxDescChainInit+0x26>
        {
            DMARxDesc->Buffer2NextDescAddr = (uint32_t)(DMARxDescTab);
        }
    }

    ETH->DMARDLAR = (uint32_t)DMARxDescTab;
     bca:	400297b7          	lui	a5,0x40029
     bce:	c7c8                	sw	a0,12(a5)
}
     bd0:	8082                	ret
        DMARxDesc->Buffer1Addr = (uint32_t)(&RxBuff[i * ETH_MAX_PACKET_SIZE]);
     bd2:	03c70833          	mul	a6,a4,t3
        DMARxDesc->Status = ETH_DMARxDesc_OWN;
     bd6:	0067a023          	sw	t1,0(a5) # 40029000 <_eusrstack+0x20019000>
        DMARxDesc->ControlBufferSize = ETH_DMARxDesc_RCH | (uint32_t)ETH_MAX_PACKET_SIZE;
     bda:	c3d4                	sw	a3,4(a5)
        DMARxDesc->Buffer1Addr = (uint32_t)(&RxBuff[i * ETH_MAX_PACKET_SIZE]);
     bdc:	88aa                	mv	a7,a0
     bde:	982e                	add	a6,a6,a1
     be0:	0107a423          	sw	a6,8(a5)
        if(i < (RxBuffCount - 1))
     be4:	01078813          	addi	a6,a5,16
     be8:	01d77363          	bgeu	a4,t4,bee <ETH_DMARxDescChainInit+0x42>
            DMARxDesc->Buffer2NextDescAddr = (uint32_t)(DMARxDescTab + i + 1);
     bec:	88c2                	mv	a7,a6
     bee:	0117a623          	sw	a7,12(a5)
     bf2:	0705                	addi	a4,a4,1
     bf4:	87c2                	mv	a5,a6
     bf6:	bfc1                	j	bc6 <ETH_DMARxDescChainInit+0x1a>

00000bf8 <ETH_SoftwareReset>:
 *
 * @return  none
 */
void ETH_SoftwareReset(void)
{
    ETH->DMABMR |= ETH_DMABMR_SR;
     bf8:	40029737          	lui	a4,0x40029
     bfc:	431c                	lw	a5,0(a4)
     bfe:	0017e793          	ori	a5,a5,1
     c02:	c31c                	sw	a5,0(a4)
}
     c04:	8082                	ret

00000c06 <ETH_DMAClearITPendingBit>:
     c06:	400297b7          	lui	a5,0x40029
     c0a:	cbc8                	sw	a0,20(a5)
     c0c:	8082                	ret

00000c0e <ETH_FlushTransmitFIFO>:
 *
 * @return  none
 */
void ETH_FlushTransmitFIFO(void)
{
    ETH->DMAOMR |= ETH_DMAOMR_FTF;
     c0e:	40029737          	lui	a4,0x40029
     c12:	4f1c                	lw	a5,24(a4)
     c14:	001006b7          	lui	a3,0x100
     c18:	8fd5                	or	a5,a5,a3
     c1a:	cf1c                	sw	a5,24(a4)
}
     c1c:	8082                	ret

00000c1e <ETH_Start>:
{
     c1e:	dd2ff2ef          	jal	t0,1f0 <__riscv_save_0>
        ETH->MACCR |= ETH_MACCR_TE;
     c22:	40028437          	lui	s0,0x40028
     c26:	401c                	lw	a5,0(s0)
     c28:	0087e793          	ori	a5,a5,8
     c2c:	c01c                	sw	a5,0(s0)
    ETH_FlushTransmitFIFO();
     c2e:	37c5                	jal	c0e <ETH_FlushTransmitFIFO>
        ETH->MACCR |= ETH_MACCR_RE;
     c30:	401c                	lw	a5,0(s0)
 */
void ETH_DMATransmissionCmd(FunctionalState NewState)
{
    if(NewState != DISABLE)
    {
        ETH->DMAOMR |= ETH_DMAOMR_ST;
     c32:	6689                	lui	a3,0x2
        ETH->MACCR |= ETH_MACCR_RE;
     c34:	0047e793          	ori	a5,a5,4
     c38:	c01c                	sw	a5,0(s0)
        ETH->DMAOMR |= ETH_DMAOMR_ST;
     c3a:	400297b7          	lui	a5,0x40029
     c3e:	4f98                	lw	a4,24(a5)
     c40:	8f55                	or	a4,a4,a3
     c42:	cf98                	sw	a4,24(a5)
 */
void ETH_DMAReceptionCmd(FunctionalState NewState)
{
    if(NewState != DISABLE)
    {
        ETH->DMAOMR |= ETH_DMAOMR_SR;
     c44:	4f98                	lw	a4,24(a5)
     c46:	00276713          	ori	a4,a4,2
     c4a:	cf98                	sw	a4,24(a5)
}
     c4c:	dc8ff06f          	j	214 <__riscv_restore_0>

00000c50 <ETH_DMAITConfig>:
 *
 * @return  new state of the specified ETHERNET DMA interrupts.
 */
void ETH_DMAITConfig(uint32_t ETH_DMA_IT, FunctionalState NewState)
{
    if(NewState != DISABLE)
     c50:	c599                	beqz	a1,c5e <ETH_DMAITConfig+0xe>
    {
        ETH->DMAIER |= ETH_DMA_IT;
     c52:	40029737          	lui	a4,0x40029
     c56:	4f5c                	lw	a5,28(a4)
     c58:	8d5d                	or	a0,a0,a5
     c5a:	cf48                	sw	a0,28(a4)
     c5c:	8082                	ret
    }
    else
    {
        ETH->DMAIER &= (~(uint32_t)ETH_DMA_IT);
     c5e:	400297b7          	lui	a5,0x40029
     c62:	4fd8                	lw	a4,28(a5)
     c64:	fff54513          	not	a0,a0
     c68:	8d79                	and	a0,a0,a4
     c6a:	cfc8                	sw	a0,28(a5)
    }
}
     c6c:	8082                	ret

00000c6e <EXTI_ClearITPendingBit>:
     c6e:	400107b7          	lui	a5,0x40010
     c72:	40a7aa23          	sw	a0,1044(a5) # 40010414 <_eusrstack+0x20000414>
     c76:	8082                	ret

00000c78 <GPIO_Init>:
void GPIO_Init(GPIO_TypeDef *GPIOx, GPIO_InitTypeDef *GPIO_InitStruct)
{
    uint32_t currentmode = 0x00, currentpin = 0x00, pinpos = 0x00, pos = 0x00;
    uint32_t tmpreg = 0x00, pinmask = 0x00;

    currentmode = ((uint32_t)GPIO_InitStruct->GPIO_Mode) & ((uint32_t)0x0F);
     c78:	459c                	lw	a5,8(a1)

    if((((uint32_t)GPIO_InitStruct->GPIO_Mode) & ((uint32_t)0x10)) != 0x00)
     c7a:	0107f713          	andi	a4,a5,16
    currentmode = ((uint32_t)GPIO_InitStruct->GPIO_Mode) & ((uint32_t)0x0F);
     c7e:	00f7f813          	andi	a6,a5,15
    if((((uint32_t)GPIO_InitStruct->GPIO_Mode) & ((uint32_t)0x10)) != 0x00)
     c82:	c701                	beqz	a4,c8a <GPIO_Init+0x12>
    {
        currentmode |= (uint32_t)GPIO_InitStruct->GPIO_Speed;
     c84:	41d8                	lw	a4,4(a1)
     c86:	00e86833          	or	a6,a6,a4
    }

    if(((uint32_t)GPIO_InitStruct->GPIO_Pin & ((uint32_t)0x00FF)) != 0x00)
     c8a:	218e                	lhu	a1,0(a1)
     c8c:	0ff5f713          	andi	a4,a1,255
     c90:	c339                	beqz	a4,cd6 <GPIO_Init+0x5e>
    {
        tmpreg = GPIOx->CFGLR;
     c92:	4118                	lw	a4,0(a0)

        for(pinpos = 0x00; pinpos < 0x08; pinpos++)
     c94:	4681                	li	a3,0
        {
            pos = ((uint32_t)0x01) << pinpos;
     c96:	4e85                	li	t4,1
            currentpin = (GPIO_InitStruct->GPIO_Pin) & pos;

            if(currentpin == pos)
            {
                pos = pinpos << 2;
                pinmask = ((uint32_t)0x0F) << pos;
     c98:	4f3d                	li	t5,15
                tmpreg &= ~pinmask;
                tmpreg |= (currentmode << pos);

                if(GPIO_InitStruct->GPIO_Mode == GPIO_Mode_IPD)
     c9a:	02800f93          	li	t6,40
                {
                    GPIOx->BCR = (((uint32_t)0x01) << pinpos);
                }
                else
                {
                    if(GPIO_InitStruct->GPIO_Mode == GPIO_Mode_IPU)
     c9e:	04800293          	li	t0,72
        for(pinpos = 0x00; pinpos < 0x08; pinpos++)
     ca2:	4e21                	li	t3,8
            pos = ((uint32_t)0x01) << pinpos;
     ca4:	00de9633          	sll	a2,t4,a3
            currentpin = (GPIO_InitStruct->GPIO_Pin) & pos;
     ca8:	00c5f8b3          	and	a7,a1,a2
            if(currentpin == pos)
     cac:	03161163          	bne	a2,a7,cce <GPIO_Init+0x56>
                pos = pinpos << 2;
     cb0:	00269893          	slli	a7,a3,0x2
                pinmask = ((uint32_t)0x0F) << pos;
     cb4:	011f1333          	sll	t1,t5,a7
                tmpreg &= ~pinmask;
     cb8:	fff34313          	not	t1,t1
     cbc:	00e37733          	and	a4,t1,a4
                tmpreg |= (currentmode << pos);
     cc0:	011818b3          	sll	a7,a6,a7
     cc4:	00e8e733          	or	a4,a7,a4
                if(GPIO_InitStruct->GPIO_Mode == GPIO_Mode_IPD)
     cc8:	05f79f63          	bne	a5,t6,d26 <GPIO_Init+0xae>
                    GPIOx->BCR = (((uint32_t)0x01) << pinpos);
     ccc:	c950                	sw	a2,20(a0)
        for(pinpos = 0x00; pinpos < 0x08; pinpos++)
     cce:	0685                	addi	a3,a3,1
     cd0:	fdc69ae3          	bne	a3,t3,ca4 <GPIO_Init+0x2c>
                        GPIOx->BSHR = (((uint32_t)0x01) << pinpos);
                    }
                }
            }
        }
        GPIOx->CFGLR = tmpreg;
     cd4:	c118                	sw	a4,0(a0)
    }

    if(GPIO_InitStruct->GPIO_Pin > 0x00FF)
     cd6:	0ff00713          	li	a4,255
     cda:	04b77563          	bgeu	a4,a1,d24 <GPIO_Init+0xac>
    {
        tmpreg = GPIOx->CFGHR;
     cde:	4154                	lw	a3,4(a0)
     ce0:	4621                	li	a2,8

        for(pinpos = 0x00; pinpos < 0x08; pinpos++)
        {
            pos = (((uint32_t)0x01) << (pinpos + 0x08));
     ce2:	4e85                	li	t4,1
            currentpin = ((GPIO_InitStruct->GPIO_Pin) & pos);

            if(currentpin == pos)
            {
                pos = pinpos << 2;
                pinmask = ((uint32_t)0x0F) << pos;
     ce4:	4f3d                	li	t5,15
                tmpreg &= ~pinmask;
                tmpreg |= (currentmode << pos);

                if(GPIO_InitStruct->GPIO_Mode == GPIO_Mode_IPD)
     ce6:	02800f93          	li	t6,40
                {
                    GPIOx->BCR = (((uint32_t)0x01) << (pinpos + 0x08));
                }

                if(GPIO_InitStruct->GPIO_Mode == GPIO_Mode_IPU)
     cea:	04800293          	li	t0,72
        for(pinpos = 0x00; pinpos < 0x08; pinpos++)
     cee:	4e41                	li	t3,16
            pos = (((uint32_t)0x01) << (pinpos + 0x08));
     cf0:	00ce98b3          	sll	a7,t4,a2
            currentpin = ((GPIO_InitStruct->GPIO_Pin) & pos);
     cf4:	0115f733          	and	a4,a1,a7
            if(currentpin == pos)
     cf8:	02e89263          	bne	a7,a4,d1c <GPIO_Init+0xa4>
                pos = pinpos << 2;
     cfc:	00261713          	slli	a4,a2,0x2
     d00:	1701                	addi	a4,a4,-32
                pinmask = ((uint32_t)0x0F) << pos;
     d02:	00ef1333          	sll	t1,t5,a4
                tmpreg &= ~pinmask;
     d06:	fff34313          	not	t1,t1
     d0a:	00d376b3          	and	a3,t1,a3
                tmpreg |= (currentmode << pos);
     d0e:	00e81733          	sll	a4,a6,a4
     d12:	8ed9                	or	a3,a3,a4
                if(GPIO_InitStruct->GPIO_Mode == GPIO_Mode_IPD)
     d14:	01f79d63          	bne	a5,t6,d2e <GPIO_Init+0xb6>
                    GPIOx->BCR = (((uint32_t)0x01) << (pinpos + 0x08));
     d18:	01152a23          	sw	a7,20(a0)
                if(GPIO_InitStruct->GPIO_Mode == GPIO_Mode_IPU)
     d1c:	0605                	addi	a2,a2,1
        for(pinpos = 0x00; pinpos < 0x08; pinpos++)
     d1e:	fdc619e3          	bne	a2,t3,cf0 <GPIO_Init+0x78>
                {
                    GPIOx->BSHR = (((uint32_t)0x01) << (pinpos + 0x08));
                }
            }
        }
        GPIOx->CFGHR = tmpreg;
     d22:	c154                	sw	a3,4(a0)
    }
}
     d24:	8082                	ret
                    if(GPIO_InitStruct->GPIO_Mode == GPIO_Mode_IPU)
     d26:	fa5794e3          	bne	a5,t0,cce <GPIO_Init+0x56>
                        GPIOx->BSHR = (((uint32_t)0x01) << pinpos);
     d2a:	c910                	sw	a2,16(a0)
     d2c:	b74d                	j	cce <GPIO_Init+0x56>
                if(GPIO_InitStruct->GPIO_Mode == GPIO_Mode_IPU)
     d2e:	fe5797e3          	bne	a5,t0,d1c <GPIO_Init+0xa4>
                    GPIOx->BSHR = (((uint32_t)0x01) << (pinpos + 0x08));
     d32:	01152823          	sw	a7,16(a0)
     d36:	b7dd                	j	d1c <GPIO_Init+0xa4>

00000d38 <GPIO_SetBits>:
 *
 * @return  none
 */
void GPIO_SetBits(GPIO_TypeDef *GPIOx, uint16_t GPIO_Pin)
{
    GPIOx->BSHR = GPIO_Pin;
     d38:	c90c                	sw	a1,16(a0)
}
     d3a:	8082                	ret

00000d3c <GPIO_ResetBits>:
 *
 * @return  none
 */
void GPIO_ResetBits(GPIO_TypeDef *GPIOx, uint16_t GPIO_Pin)
{
    GPIOx->BCR = GPIO_Pin;
     d3c:	c94c                	sw	a1,20(a0)
}
     d3e:	8082                	ret

00000d40 <GPIO_PinRemapConfig>:
{
    uint32_t tmp = 0x00, tmp1 = 0x00, tmpreg = 0x00, tmpmask = 0x00;

    if((GPIO_Remap & 0x80000000) == 0x80000000)
    {
        tmpreg = AFIO->PCFR2;
     d40:	400107b7          	lui	a5,0x40010
    if((GPIO_Remap & 0x80000000) == 0x80000000)
     d44:	04055a63          	bgez	a0,d98 <GPIO_PinRemapConfig+0x58>
        tmpreg = AFIO->PCFR2;
     d48:	4fdc                	lw	a5,28(a5)
    else
    {
        tmpreg = AFIO->PCFR1;
    }

    tmpmask = (GPIO_Remap & DBGAFR_POSITION_MASK) >> 0x10;
     d4a:	01055693          	srli	a3,a0,0x10
    tmp = GPIO_Remap & LSB_MASK;
     d4e:	01051813          	slli	a6,a0,0x10
     d52:	00300737          	lui	a4,0x300
    tmpmask = (GPIO_Remap & DBGAFR_POSITION_MASK) >> 0x10;
     d56:	00f6f613          	andi	a2,a3,15
    tmp = GPIO_Remap & LSB_MASK;
     d5a:	01085813          	srli	a6,a6,0x10

    /* Clear bit */
    if((GPIO_Remap & 0x80000000) == 0x80000000)
     d5e:	00e576b3          	and	a3,a0,a4
     d62:	06055063          	bgez	a0,dc2 <GPIO_PinRemapConfig+0x82>
    {                                                                                                                   /* PCFR2 */
        if((GPIO_Remap & (DBGAFR_LOCATION_MASK | DBGAFR_NUMBITS_MASK)) == (DBGAFR_LOCATION_MASK | DBGAFR_NUMBITS_MASK)) /* [31:16] 2bit */
     d66:	02e69b63          	bne	a3,a4,d9c <GPIO_PinRemapConfig+0x5c>
        {
            tmp1 = ((uint32_t)0x03) << (tmpmask + 0x10);
     d6a:	01060693          	addi	a3,a2,16
     d6e:	460d                	li	a2,3
     d70:	00d616b3          	sll	a3,a2,a3
            tmpreg &= ~tmp1;
        }
        else if((GPIO_Remap & DBGAFR_NUMBITS_MASK) == DBGAFR_NUMBITS_MASK) /* [15:0] 2bit */
        {
            tmp1 = ((uint32_t)0x03) << tmpmask;
            tmpreg &= ~tmp1;
     d74:	fff6c693          	not	a3,a3
     d78:	8ff5                	and	a5,a5,a3
            tmpreg |= ~DBGAFR_SWJCFG_MASK;
        }
    }

    /* Set bit */
    if(NewState != DISABLE)
     d7a:	c999                	beqz	a1,d90 <GPIO_PinRemapConfig+0x50>
    {
        tmpreg |= (tmp << (((GPIO_Remap & 0x7FFFFFFF)>> 0x15) * 0x10));
     d7c:	01555713          	srli	a4,a0,0x15
     d80:	3ff77713          	andi	a4,a4,1023
     d84:	0712                	slli	a4,a4,0x4
     d86:	00e81733          	sll	a4,a6,a4
     d8a:	8fd9                	or	a5,a5,a4
    }

    if((GPIO_Remap & 0x80000000) == 0x80000000)
     d8c:	04055763          	bgez	a0,dda <GPIO_PinRemapConfig+0x9a>
    {
        AFIO->PCFR2 = tmpreg;
     d90:	40010737          	lui	a4,0x40010
     d94:	cf5c                	sw	a5,28(a4)
     d96:	8082                	ret
        tmpreg = AFIO->PCFR1;
     d98:	43dc                	lw	a5,4(a5)
     d9a:	bf45                	j	d4a <GPIO_PinRemapConfig+0xa>
        else if((GPIO_Remap & DBGAFR_NUMBITS_MASK) == DBGAFR_NUMBITS_MASK) /* [15:0] 2bit */
     d9c:	00b51713          	slli	a4,a0,0xb
     da0:	00075663          	bgez	a4,dac <GPIO_PinRemapConfig+0x6c>
            tmp1 = ((uint32_t)0x03) << tmpmask;
     da4:	468d                	li	a3,3
     da6:	00c696b3          	sll	a3,a3,a2
     daa:	b7e9                	j	d74 <GPIO_PinRemapConfig+0x34>
            tmpreg &= ~(tmp << (((GPIO_Remap & 0x7FFFFFFF)>> 0x15) * 0x10));
     dac:	01555713          	srli	a4,a0,0x15
     db0:	3ff77713          	andi	a4,a4,1023
     db4:	0712                	slli	a4,a4,0x4
     db6:	00e81733          	sll	a4,a6,a4
     dba:	fff74713          	not	a4,a4
     dbe:	8ff9                	and	a5,a5,a4
     dc0:	bf6d                	j	d7a <GPIO_PinRemapConfig+0x3a>
        if((GPIO_Remap & (DBGAFR_LOCATION_MASK | DBGAFR_NUMBITS_MASK)) == (DBGAFR_LOCATION_MASK | DBGAFR_NUMBITS_MASK)) /* [26:24] 3bit SWD_JTAG */
     dc2:	02e69063          	bne	a3,a4,de2 <GPIO_PinRemapConfig+0xa2>
            AFIO->PCFR1 &= DBGAFR_SWJCFG_MASK;
     dc6:	40010637          	lui	a2,0x40010
     dca:	4254                	lw	a3,4(a2)
            tmpreg &= DBGAFR_SWJCFG_MASK;
     dcc:	f1000737          	lui	a4,0xf1000
     dd0:	177d                	addi	a4,a4,-1
     dd2:	8ff9                	and	a5,a5,a4
            AFIO->PCFR1 &= DBGAFR_SWJCFG_MASK;
     dd4:	8f75                	and	a4,a4,a3
     dd6:	c258                	sw	a4,4(a2)
    if(NewState != DISABLE)
     dd8:	f1d5                	bnez	a1,d7c <GPIO_PinRemapConfig+0x3c>
    }
    else
    {
        AFIO->PCFR1 = tmpreg;
     dda:	40010737          	lui	a4,0x40010
     dde:	c35c                	sw	a5,4(a4)
    }
}
     de0:	8082                	ret
        else if((GPIO_Remap & DBGAFR_NUMBITS_MASK) == DBGAFR_NUMBITS_MASK) /* [15:0] 2bit */
     de2:	00b51713          	slli	a4,a0,0xb
     de6:	00075c63          	bgez	a4,dfe <GPIO_PinRemapConfig+0xbe>
            tmp1 = ((uint32_t)0x03) << tmpmask;
     dea:	468d                	li	a3,3
     dec:	00c696b3          	sll	a3,a3,a2
            tmpreg &= ~tmp1;
     df0:	fff6c693          	not	a3,a3
     df4:	8efd                	and	a3,a3,a5
            tmpreg |= ~DBGAFR_SWJCFG_MASK;
     df6:	0f0007b7          	lui	a5,0xf000
     dfa:	8fd5                	or	a5,a5,a3
     dfc:	bff1                	j	dd8 <GPIO_PinRemapConfig+0x98>
            tmpreg &= ~(tmp << ((GPIO_Remap >> 0x15) * 0x10));
     dfe:	01555713          	srli	a4,a0,0x15
     e02:	0712                	slli	a4,a4,0x4
     e04:	00e81733          	sll	a4,a6,a4
     e08:	fff74713          	not	a4,a4
     e0c:	8f7d                	and	a4,a4,a5
            tmpreg |= ~DBGAFR_SWJCFG_MASK;
     e0e:	0f0007b7          	lui	a5,0xf000
     e12:	8fd9                	or	a5,a5,a4
     e14:	b7d1                	j	dd8 <GPIO_PinRemapConfig+0x98>

00000e16 <I2C_Init>:
 *        contains the configuration information for the specified I2C peripheral.
 *
 * @return  none
 */
void I2C_Init(I2C_TypeDef *I2Cx, I2C_InitTypeDef *I2C_InitStruct)
{
     e16:	bdaff2ef          	jal	t0,1f0 <__riscv_save_0>
     e1a:	7179                	addi	sp,sp,-48
    uint16_t result = 0x04;
    uint32_t pclk1 = 8000000;

    RCC_ClocksTypeDef rcc_clocks;

    tmpreg = I2Cx->CTLR2;
     e1c:	2146                	lhu	s1,4(a0)
{
     e1e:	842a                	mv	s0,a0
    tmpreg &= CTLR2_FREQ_Reset;
    RCC_GetClocksFreq(&rcc_clocks);
     e20:	0868                	addi	a0,sp,28
{
     e22:	c62e                	sw	a1,12(sp)
    RCC_GetClocksFreq(&rcc_clocks);
     e24:	2a69                	jal	fbe <RCC_GetClocksFreq>
    pclk1 = rcc_clocks.PCLK1_Frequency;
     e26:	5792                	lw	a5,36(sp)
    freqrange = (uint16_t)(pclk1 / 1000000);
     e28:	000f4737          	lui	a4,0xf4
     e2c:	24070713          	addi	a4,a4,576 # f4240 <_data_lma+0xea9f8>
     e30:	02e7d733          	divu	a4,a5,a4
    tmpreg = I2Cx->CTLR2;
     e34:	04c2                	slli	s1,s1,0x10
     e36:	80c1                	srli	s1,s1,0x10
    tmpreg &= CTLR2_FREQ_Reset;
     e38:	fc04f493          	andi	s1,s1,-64
     e3c:	04c2                	slli	s1,s1,0x10
     e3e:	03c00693          	li	a3,60
     e42:	80c1                	srli	s1,s1,0x10
    if(freqrange >= 60)
     e44:	45b2                	lw	a1,12(sp)
     e46:	00e6f463          	bgeu	a3,a4,e4e <I2C_Init+0x38>
     e4a:	03c00713          	li	a4,60
     e4e:	01071613          	slli	a2,a4,0x10
     e52:	8241                	srli	a2,a2,0x10
    {
        freqrange = 60;
    }
    tmpreg |= freqrange;
     e54:	8cd1                	or	s1,s1,a2
    I2Cx->CTLR2 = tmpreg;
     e56:	a046                	sh	s1,4(s0)

    I2Cx->CTLR1 &= CTLR1_PE_Reset;
     e58:	2016                	lhu	a3,0(s0)
    tmpreg = 0;

    if(I2C_InitStruct->I2C_ClockSpeed <= 100000)
     e5a:	6561                	lui	a0,0x18
     e5c:	6a050513          	addi	a0,a0,1696 # 186a0 <_data_lma+0xee58>
    I2Cx->CTLR1 &= CTLR1_PE_Reset;
     e60:	06c2                	slli	a3,a3,0x10
     e62:	82c1                	srli	a3,a3,0x10
     e64:	9af9                	andi	a3,a3,-2
     e66:	06c2                	slli	a3,a3,0x10
     e68:	82c1                	srli	a3,a3,0x10
     e6a:	a016                	sh	a3,0(s0)
    if(I2C_InitStruct->I2C_ClockSpeed <= 100000)
     e6c:	4194                	lw	a3,0(a1)
     e6e:	04d56963          	bltu	a0,a3,ec0 <I2C_Init+0xaa>
    {
        result = (uint16_t)(pclk1 / (I2C_InitStruct->I2C_ClockSpeed << 1));
     e72:	0686                	slli	a3,a3,0x1
     e74:	02d7d7b3          	divu	a5,a5,a3
     e78:	4691                	li	a3,4
     e7a:	01079713          	slli	a4,a5,0x10
     e7e:	8341                	srli	a4,a4,0x10

        if(result < 0x04)
     e80:	87ba                	mv	a5,a4
     e82:	00d77363          	bgeu	a4,a3,e88 <I2C_Init+0x72>
     e86:	4791                	li	a5,4
        {
            result = 0x04;
        }

        tmpreg |= result;
        I2Cx->RTR = freqrange + 1;
     e88:	0605                	addi	a2,a2,1
     e8a:	0642                	slli	a2,a2,0x10
     e8c:	07c2                	slli	a5,a5,0x10
     e8e:	8241                	srli	a2,a2,0x10
     e90:	83c1                	srli	a5,a5,0x10
     e92:	b012                	sh	a2,32(s0)

        tmpreg |= (uint16_t)(result | CKCFGR_FS_Set);
        I2Cx->RTR = (uint16_t)(((freqrange * (uint16_t)300) / (uint16_t)1000) + (uint16_t)1);
    }

    I2Cx->CKCFGR = tmpreg;
     e94:	ac5e                	sh	a5,28(s0)
    I2Cx->CTLR1 |= CTLR1_PE_Set;
     e96:	201e                	lhu	a5,0(s0)

    tmpreg = I2Cx->CTLR1;
    tmpreg &= CTLR1_CLEAR_Mask;
    tmpreg |= (uint16_t)((uint32_t)I2C_InitStruct->I2C_Mode | I2C_InitStruct->I2C_Ack);
     e98:	21da                	lhu	a4,4(a1)
     e9a:	25b6                	lhu	a3,10(a1)
    I2Cx->CTLR1 |= CTLR1_PE_Set;
     e9c:	0017e793          	ori	a5,a5,1
     ea0:	a01e                	sh	a5,0(s0)
    tmpreg = I2Cx->CTLR1;
     ea2:	201e                	lhu	a5,0(s0)
    tmpreg |= (uint16_t)((uint32_t)I2C_InitStruct->I2C_Mode | I2C_InitStruct->I2C_Ack);
     ea4:	8f55                	or	a4,a4,a3
    tmpreg = I2Cx->CTLR1;
     ea6:	07c2                	slli	a5,a5,0x10
     ea8:	83c1                	srli	a5,a5,0x10
    tmpreg &= CTLR1_CLEAR_Mask;
     eaa:	bf57f793          	andi	a5,a5,-1035
    tmpreg |= (uint16_t)((uint32_t)I2C_InitStruct->I2C_Mode | I2C_InitStruct->I2C_Ack);
     eae:	8fd9                	or	a5,a5,a4
    I2Cx->CTLR1 = tmpreg;
     eb0:	a01e                	sh	a5,0(s0)

    I2Cx->OADDR1 = (I2C_InitStruct->I2C_AcknowledgedAddress | I2C_InitStruct->I2C_OwnAddress1);
     eb2:	259a                	lhu	a4,8(a1)
     eb4:	25de                	lhu	a5,12(a1)
     eb6:	8fd9                	or	a5,a5,a4
     eb8:	a41e                	sh	a5,8(s0)
}
     eba:	6145                	addi	sp,sp,48
     ebc:	b58ff06f          	j	214 <__riscv_restore_0>
        if(I2C_InitStruct->I2C_DutyCycle == I2C_DutyCycle_2)
     ec0:	21ea                	lhu	a0,6(a1)
     ec2:	6631                	lui	a2,0xc
     ec4:	167d                	addi	a2,a2,-1
     ec6:	02c51d63          	bne	a0,a2,f00 <I2C_Init+0xea>
            result = (uint16_t)(pclk1 / (I2C_InitStruct->I2C_ClockSpeed * 3));
     eca:	460d                	li	a2,3
     ecc:	02c686b3          	mul	a3,a3,a2
     ed0:	02d7d7b3          	divu	a5,a5,a3
     ed4:	07c2                	slli	a5,a5,0x10
     ed6:	83c1                	srli	a5,a5,0x10
        if((result & CKCFGR_CCR_Set) == 0)
     ed8:	01479693          	slli	a3,a5,0x14
     edc:	e299                	bnez	a3,ee2 <I2C_Init+0xcc>
            result |= (uint16_t)0x0001;
     ede:	0017e793          	ori	a5,a5,1
        tmpreg |= (uint16_t)(result | CKCFGR_FS_Set);
     ee2:	66a1                	lui	a3,0x8
     ee4:	8fd5                	or	a5,a5,a3
        I2Cx->RTR = (uint16_t)(((freqrange * (uint16_t)300) / (uint16_t)1000) + (uint16_t)1);
     ee6:	12c00693          	li	a3,300
     eea:	02d70733          	mul	a4,a4,a3
     eee:	3e800693          	li	a3,1000
     ef2:	02d74733          	div	a4,a4,a3
     ef6:	0705                	addi	a4,a4,1
     ef8:	0742                	slli	a4,a4,0x10
     efa:	8341                	srli	a4,a4,0x10
     efc:	b01a                	sh	a4,32(s0)
     efe:	bf59                	j	e94 <I2C_Init+0x7e>
            result = (uint16_t)(pclk1 / (I2C_InitStruct->I2C_ClockSpeed * 25));
     f00:	4665                	li	a2,25
     f02:	02c686b3          	mul	a3,a3,a2
     f06:	02d7d7b3          	divu	a5,a5,a3
            result |= I2C_DutyCycle_16_9;
     f0a:	6691                	lui	a3,0x4
            result = (uint16_t)(pclk1 / (I2C_InitStruct->I2C_ClockSpeed * 25));
     f0c:	07c2                	slli	a5,a5,0x10
     f0e:	83c1                	srli	a5,a5,0x10
            result |= I2C_DutyCycle_16_9;
     f10:	8fd5                	or	a5,a5,a3
     f12:	b7d9                	j	ed8 <I2C_Init+0xc2>

00000f14 <I2C_Cmd>:
 */
void I2C_Cmd(I2C_TypeDef *I2Cx, FunctionalState NewState)
{
    if(NewState != DISABLE)
    {
        I2Cx->CTLR1 |= CTLR1_PE_Set;
     f14:	211e                	lhu	a5,0(a0)
    if(NewState != DISABLE)
     f16:	c589                	beqz	a1,f20 <I2C_Cmd+0xc>
        I2Cx->CTLR1 |= CTLR1_PE_Set;
     f18:	0017e793          	ori	a5,a5,1
    }
    else
    {
        I2Cx->CTLR1 &= CTLR1_PE_Reset;
     f1c:	a11e                	sh	a5,0(a0)
    }
}
     f1e:	8082                	ret
        I2Cx->CTLR1 &= CTLR1_PE_Reset;
     f20:	07c2                	slli	a5,a5,0x10
     f22:	83c1                	srli	a5,a5,0x10
     f24:	9bf9                	andi	a5,a5,-2
     f26:	07c2                	slli	a5,a5,0x10
     f28:	83c1                	srli	a5,a5,0x10
     f2a:	bfcd                	j	f1c <I2C_Cmd+0x8>

00000f2c <I2C_GenerateSTART>:
 */
void I2C_GenerateSTART(I2C_TypeDef *I2Cx, FunctionalState NewState)
{
    if(NewState != DISABLE)
    {
        I2Cx->CTLR1 |= CTLR1_START_Set;
     f2c:	211e                	lhu	a5,0(a0)
    if(NewState != DISABLE)
     f2e:	c589                	beqz	a1,f38 <I2C_GenerateSTART+0xc>
        I2Cx->CTLR1 |= CTLR1_START_Set;
     f30:	1007e793          	ori	a5,a5,256
    }
    else
    {
        I2Cx->CTLR1 &= CTLR1_START_Reset;
     f34:	a11e                	sh	a5,0(a0)
    }
}
     f36:	8082                	ret
        I2Cx->CTLR1 &= CTLR1_START_Reset;
     f38:	07c2                	slli	a5,a5,0x10
     f3a:	83c1                	srli	a5,a5,0x10
     f3c:	eff7f793          	andi	a5,a5,-257
     f40:	07c2                	slli	a5,a5,0x10
     f42:	83c1                	srli	a5,a5,0x10
     f44:	bfc5                	j	f34 <I2C_GenerateSTART+0x8>

00000f46 <I2C_GenerateSTOP>:
 */
void I2C_GenerateSTOP(I2C_TypeDef *I2Cx, FunctionalState NewState)
{
    if(NewState != DISABLE)
    {
        I2Cx->CTLR1 |= CTLR1_STOP_Set;
     f46:	211e                	lhu	a5,0(a0)
    if(NewState != DISABLE)
     f48:	c589                	beqz	a1,f52 <I2C_GenerateSTOP+0xc>
        I2Cx->CTLR1 |= CTLR1_STOP_Set;
     f4a:	2007e793          	ori	a5,a5,512
    }
    else
    {
        I2Cx->CTLR1 &= CTLR1_STOP_Reset;
     f4e:	a11e                	sh	a5,0(a0)
    }
}
     f50:	8082                	ret
        I2Cx->CTLR1 &= CTLR1_STOP_Reset;
     f52:	07c2                	slli	a5,a5,0x10
     f54:	83c1                	srli	a5,a5,0x10
     f56:	dff7f793          	andi	a5,a5,-513
     f5a:	07c2                	slli	a5,a5,0x10
     f5c:	83c1                	srli	a5,a5,0x10
     f5e:	bfc5                	j	f4e <I2C_GenerateSTOP+0x8>

00000f60 <I2C_SendData>:
 *
 * @return  none
 */
void I2C_SendData(I2C_TypeDef *I2Cx, uint8_t Data)
{
    I2Cx->DATAR = Data;
     f60:	a90e                	sh	a1,16(a0)
}
     f62:	8082                	ret

00000f64 <I2C_Send7bitAddress>:
    {
        Address |= OADDR1_ADD0_Set;
    }
    else
    {
        Address &= OADDR1_ADD0_Reset;
     f64:	0fe5f793          	andi	a5,a1,254
    if(I2C_Direction != I2C_Direction_Transmitter)
     f68:	c219                	beqz	a2,f6e <I2C_Send7bitAddress+0xa>
        Address |= OADDR1_ADD0_Set;
     f6a:	0015e793          	ori	a5,a1,1
    }

    I2Cx->DATAR = Address;
     f6e:	07c2                	slli	a5,a5,0x10
     f70:	83c1                	srli	a5,a5,0x10
     f72:	a91e                	sh	a5,16(a0)
}
     f74:	8082                	ret

00000f76 <I2C_CheckEvent>:
{
    uint32_t    lastevent = 0;
    uint32_t    flag1 = 0, flag2 = 0;
    ErrorStatus status = NoREADY;

    flag1 = I2Cx->STAR1;
     f76:	295e                	lhu	a5,20(a0)
    flag2 = I2Cx->STAR2;
     f78:	2d0a                	lhu	a0,24(a0)
    flag2 = flag2 << 16;
     f7a:	0542                	slli	a0,a0,0x10

    lastevent = (flag1 | flag2) & FLAG_Mask;
     f7c:	8d5d                	or	a0,a0,a5

    if((lastevent & I2C_EVENT) == I2C_EVENT)
     f7e:	8d6d                	and	a0,a0,a1
     f80:	0522                	slli	a0,a0,0x8
     f82:	8121                	srli	a0,a0,0x8
     f84:	8d0d                	sub	a0,a0,a1
    {
        status = NoREADY;
    }

    return status;
}
     f86:	00153513          	seqz	a0,a0
     f8a:	8082                	ret

00000f8c <I2C_GetFlagStatus>:
 *            I2C_FLAG_SB - Start bit flag (Master mode).
 *
 * @return  FlagStatus - SET or RESET.
 */
FlagStatus I2C_GetFlagStatus(I2C_TypeDef *I2Cx, uint32_t I2C_FLAG)
{
     f8c:	1141                	addi	sp,sp,-16
    FlagStatus    bitstatus = RESET;
    __IO uint32_t i2creg = 0, i2cxbase = 0;
     f8e:	c402                	sw	zero,8(sp)
     f90:	c602                	sw	zero,12(sp)

    i2cxbase = (uint32_t)I2Cx;
    i2creg = I2C_FLAG >> 28;
     f92:	01c5d793          	srli	a5,a1,0x1c
    i2cxbase = (uint32_t)I2Cx;
     f96:	c62a                	sw	a0,12(sp)
    i2creg = I2C_FLAG >> 28;
     f98:	c43e                	sw	a5,8(sp)
    I2C_FLAG &= FLAG_Mask;

    if(i2creg != 0)
     f9a:	47a2                	lw	a5,8(sp)
    I2C_FLAG &= FLAG_Mask;
     f9c:	05a2                	slli	a1,a1,0x8
     f9e:	81a1                	srli	a1,a1,0x8
    if(i2creg != 0)
     fa0:	cb99                	beqz	a5,fb6 <I2C_GetFlagStatus+0x2a>
    {
        i2cxbase += 0x14;
     fa2:	47b2                	lw	a5,12(sp)
     fa4:	07d1                	addi	a5,a5,20
    }
    else
    {
        I2C_FLAG = (uint32_t)(I2C_FLAG >> 16);
        i2cxbase += 0x18;
     fa6:	c63e                	sw	a5,12(sp)
    }

    if(((*(__IO uint32_t *)i2cxbase) & I2C_FLAG) != (uint32_t)RESET)
     fa8:	47b2                	lw	a5,12(sp)
     faa:	4388                	lw	a0,0(a5)
    {
        bitstatus = RESET;
    }

    return bitstatus;
}
     fac:	0141                	addi	sp,sp,16
    if(((*(__IO uint32_t *)i2cxbase) & I2C_FLAG) != (uint32_t)RESET)
     fae:	8d6d                	and	a0,a0,a1
}
     fb0:	00a03533          	snez	a0,a0
     fb4:	8082                	ret
        i2cxbase += 0x18;
     fb6:	47b2                	lw	a5,12(sp)
        I2C_FLAG = (uint32_t)(I2C_FLAG >> 16);
     fb8:	81c1                	srli	a1,a1,0x10
        i2cxbase += 0x18;
     fba:	07e1                	addi	a5,a5,24
     fbc:	b7ed                	j	fa6 <I2C_GetFlagStatus+0x1a>

00000fbe <RCC_GetClocksFreq>:
#ifdef CH32V30x_D8C
    uint8_t Pll2mull = 0;

#endif

    tmp = RCC->CFGR0 & CFGR0_SWS_Mask;
     fbe:	40021737          	lui	a4,0x40021
     fc2:	435c                	lw	a5,4(a4)
     fc4:	4691                	li	a3,4
     fc6:	8bb1                	andi	a5,a5,12

    switch(tmp)
     fc8:	00d78563          	beq	a5,a3,fd2 <RCC_GetClocksFreq+0x14>
     fcc:	46a1                	li	a3,8
     fce:	06d78263          	beq	a5,a3,1032 <RCC_GetClocksFreq+0x74>
    {
        case 0x00:
            RCC_Clocks->SYSCLK_Frequency = HSI_VALUE;
     fd2:	007a17b7          	lui	a5,0x7a1
     fd6:	20078793          	addi	a5,a5,512 # 7a1200 <_data_lma+0x7979b8>

#endif
            }

            if(Pll_6_5 == 1)
                RCC_Clocks->SYSCLK_Frequency = (RCC_Clocks->SYSCLK_Frequency / 2);
     fda:	c11c                	sw	a5,0(a0)
        default:
            RCC_Clocks->SYSCLK_Frequency = HSI_VALUE;
            break;
    }

    tmp = RCC->CFGR0 & CFGR0_HPRE_Set_Mask;
     fdc:	40021637          	lui	a2,0x40021
     fe0:	425c                	lw	a5,4(a2)
    tmp = tmp >> 4;
    presc = APBAHBPrescTable[tmp];
     fe2:	20000737          	lui	a4,0x20000
     fe6:	01070713          	addi	a4,a4,16 # 20000010 <APBAHBPrescTable>
    tmp = tmp >> 4;
     fea:	8391                	srli	a5,a5,0x4
     fec:	8bbd                	andi	a5,a5,15
    presc = APBAHBPrescTable[tmp];
     fee:	97ba                	add	a5,a5,a4
     ff0:	2394                	lbu	a3,0(a5)
    RCC_Clocks->HCLK_Frequency = RCC_Clocks->SYSCLK_Frequency >> presc;
     ff2:	411c                	lw	a5,0(a0)
     ff4:	00d7d7b3          	srl	a5,a5,a3
     ff8:	c15c                	sw	a5,4(a0)
    tmp = RCC->CFGR0 & CFGR0_PPRE1_Set_Mask;
     ffa:	4254                	lw	a3,4(a2)
    tmp = tmp >> 8;
     ffc:	82a1                	srli	a3,a3,0x8
     ffe:	8a9d                	andi	a3,a3,7
    presc = APBAHBPrescTable[tmp];
    1000:	96ba                	add	a3,a3,a4
    1002:	2294                	lbu	a3,0(a3)
    RCC_Clocks->PCLK1_Frequency = RCC_Clocks->HCLK_Frequency >> presc;
    1004:	00d7d6b3          	srl	a3,a5,a3
    1008:	c514                	sw	a3,8(a0)
    tmp = RCC->CFGR0 & CFGR0_PPRE2_Set_Mask;
    100a:	4254                	lw	a3,4(a2)
    tmp = tmp >> 11;
    100c:	82ad                	srli	a3,a3,0xb
    100e:	8a9d                	andi	a3,a3,7
    presc = APBAHBPrescTable[tmp];
    1010:	9736                	add	a4,a4,a3
    1012:	2318                	lbu	a4,0(a4)
    RCC_Clocks->PCLK2_Frequency = RCC_Clocks->HCLK_Frequency >> presc;
    1014:	00e7d7b3          	srl	a5,a5,a4
    1018:	c55c                	sw	a5,12(a0)
    tmp = RCC->CFGR0 & CFGR0_ADCPRE_Set_Mask;
    101a:	4258                	lw	a4,4(a2)
    tmp = tmp >> 14;
    101c:	8339                	srli	a4,a4,0xe
    101e:	00377693          	andi	a3,a4,3
    presc = ADCPrescTable[tmp];
    1022:	81818713          	addi	a4,gp,-2024 # 20000038 <ADCPrescTable>
    1026:	9736                	add	a4,a4,a3
    1028:	2318                	lbu	a4,0(a4)
    RCC_Clocks->ADCCLK_Frequency = RCC_Clocks->PCLK2_Frequency / presc;
    102a:	02e7d7b3          	divu	a5,a5,a4
    102e:	c91c                	sw	a5,16(a0)
}
    1030:	8082                	ret
            pllmull = RCC->CFGR0 & CFGR0_PLLMull_Mask;
    1032:	435c                	lw	a5,4(a4)
            pllsource = RCC->CFGR0 & CFGR0_PLLSRC_Mask;
    1034:	4358                	lw	a4,4(a4)
    1036:	66c1                	lui	a3,0x10
            pllmull = (pllmull >> 18) + 2;
    1038:	83c9                	srli	a5,a5,0x12
            pllsource = RCC->CFGR0 & CFGR0_PLLSRC_Mask;
    103a:	8f75                	and	a4,a4,a3
            if(((*(uint32_t *)0x1FFFF70C) & (1 << 14)) != (1 << 14))
    103c:	1ffff6b7          	lui	a3,0x1ffff
    1040:	70c6a683          	lw	a3,1804(a3) # 1ffff70c <_data_lma+0x1fff5ec4>
            pllmull = (pllmull >> 18) + 2;
    1044:	8bbd                	andi	a5,a5,15
    1046:	0789                	addi	a5,a5,2
            if(((*(uint32_t *)0x1FFFF70C) & (1 << 14)) != (1 << 14))
    1048:	01169613          	slli	a2,a3,0x11
    104c:	00064863          	bltz	a2,105c <RCC_GetClocksFreq+0x9e>
                if(pllmull == 17)
    1050:	46c5                	li	a3,17
    uint8_t Pll_6_5 = 0;
    1052:	4601                	li	a2,0
                if(pllmull == 17)
    1054:	02d79263          	bne	a5,a3,1078 <RCC_GetClocksFreq+0xba>
                    pllmull = 18;
    1058:	47c9                	li	a5,18
    105a:	a839                	j	1078 <RCC_GetClocksFreq+0xba>
                if(pllmull == 2)
    105c:	4689                	li	a3,2
    105e:	02d78f63          	beq	a5,a3,109c <RCC_GetClocksFreq+0xde>
                if(pllmull == 15)
    1062:	46bd                	li	a3,15
    1064:	02d78e63          	beq	a5,a3,10a0 <RCC_GetClocksFreq+0xe2>
                if(pllmull == 16)
    1068:	46c1                	li	a3,16
    106a:	02d78e63          	beq	a5,a3,10a6 <RCC_GetClocksFreq+0xe8>
                if(pllmull == 17)
    106e:	46c5                	li	a3,17
    1070:	4601                	li	a2,0
    1072:	00d79363          	bne	a5,a3,1078 <RCC_GetClocksFreq+0xba>
                    pllmull = 16;
    1076:	47c1                	li	a5,16
            if(pllsource == 0x00)
    1078:	ef1d                	bnez	a4,10b6 <RCC_GetClocksFreq+0xf8>
                if(EXTEN->EXTEN_CTR & EXTEN_PLL_HSI_PRE)
    107a:	40024737          	lui	a4,0x40024
    107e:	80072703          	lw	a4,-2048(a4) # 40023800 <_eusrstack+0x20013800>
    1082:	8b41                	andi	a4,a4,16
    1084:	c705                	beqz	a4,10ac <RCC_GetClocksFreq+0xee>
                    RCC_Clocks->SYSCLK_Frequency = (HSI_VALUE)*pllmull;
    1086:	007a1737          	lui	a4,0x7a1
    108a:	20070713          	addi	a4,a4,512 # 7a1200 <_data_lma+0x7979b8>
                RCC_Clocks->SYSCLK_Frequency = RCC_Clocks->SYSCLK_Frequency * pllmull;
    108e:	02f707b3          	mul	a5,a4,a5
    1092:	c11c                	sw	a5,0(a0)
            if(Pll_6_5 == 1)
    1094:	d621                	beqz	a2,fdc <RCC_GetClocksFreq+0x1e>
                RCC_Clocks->SYSCLK_Frequency = (RCC_Clocks->SYSCLK_Frequency / 2);
    1096:	411c                	lw	a5,0(a0)
    1098:	8385                	srli	a5,a5,0x1
    109a:	b781                	j	fda <RCC_GetClocksFreq+0x1c>
    uint8_t Pll_6_5 = 0;
    109c:	4601                	li	a2,0
    109e:	bf6d                	j	1058 <RCC_GetClocksFreq+0x9a>
                    Pll_6_5 = 1;
    10a0:	4605                	li	a2,1
                    pllmull = 13; /* *6.5 */
    10a2:	47b5                	li	a5,13
    10a4:	bfd1                	j	1078 <RCC_GetClocksFreq+0xba>
    10a6:	4601                	li	a2,0
                    pllmull = 15;
    10a8:	47bd                	li	a5,15
    10aa:	b7f9                	j	1078 <RCC_GetClocksFreq+0xba>
                    RCC_Clocks->SYSCLK_Frequency = (HSI_VALUE >> 1) * pllmull;
    10ac:	003d1737          	lui	a4,0x3d1
    10b0:	90070713          	addi	a4,a4,-1792 # 3d0900 <_data_lma+0x3c70b8>
    10b4:	bfe9                	j	108e <RCC_GetClocksFreq+0xd0>
                if(RCC->CFGR2 & (1<<16)){ /* PLL2 */
    10b6:	400215b7          	lui	a1,0x40021
    10ba:	55d8                	lw	a4,44(a1)
    10bc:	00f71693          	slli	a3,a4,0xf
                    RCC_Clocks->SYSCLK_Frequency = HSE_VALUE/(((RCC->CFGR2 & 0xF0)>>4) + 1);  /* PREDIV2 */
    10c0:	55d8                	lw	a4,44(a1)
                if(RCC->CFGR2 & (1<<16)){ /* PLL2 */
    10c2:	0406df63          	bgez	a3,1120 <RCC_GetClocksFreq+0x162>
                    RCC_Clocks->SYSCLK_Frequency = HSE_VALUE/(((RCC->CFGR2 & 0xF0)>>4) + 1);  /* PREDIV2 */
    10c6:	8311                	srli	a4,a4,0x4
    10c8:	8b3d                	andi	a4,a4,15
    10ca:	00170693          	addi	a3,a4,1
    10ce:	007a1737          	lui	a4,0x7a1
    10d2:	20070713          	addi	a4,a4,512 # 7a1200 <_data_lma+0x7979b8>
    10d6:	02d75733          	divu	a4,a4,a3
    10da:	c118                	sw	a4,0(a0)
                    Pll2mull = (uint8_t)((RCC->CFGR2 & 0xF00)>>8);
    10dc:	55d4                	lw	a3,44(a1)
    10de:	82a1                	srli	a3,a3,0x8
    10e0:	8abd                	andi	a3,a3,15
                    if(Pll2mull == 0) RCC_Clocks->SYSCLK_Frequency = (RCC_Clocks->SYSCLK_Frequency * 5)>>1;
    10e2:	e28d                	bnez	a3,1104 <RCC_GetClocksFreq+0x146>
    10e4:	4695                	li	a3,5
                    else if(Pll2mull == 1) RCC_Clocks->SYSCLK_Frequency = (RCC_Clocks->SYSCLK_Frequency * 25)>>1;
    10e6:	02d70733          	mul	a4,a4,a3
    10ea:	8305                	srli	a4,a4,0x1
                    else  RCC_Clocks->SYSCLK_Frequency = RCC_Clocks->SYSCLK_Frequency * (Pll2mull + 2);
    10ec:	c118                	sw	a4,0(a0)
                    RCC_Clocks->SYSCLK_Frequency = RCC_Clocks->SYSCLK_Frequency/((RCC->CFGR2 & 0xF) + 1);  /* PREDIV1 */
    10ee:	40021737          	lui	a4,0x40021
    10f2:	5758                	lw	a4,44(a4)
    10f4:	4114                	lw	a3,0(a0)
    10f6:	8b3d                	andi	a4,a4,15
    10f8:	0705                	addi	a4,a4,1
    10fa:	02e6d733          	divu	a4,a3,a4
                    RCC_Clocks->SYSCLK_Frequency = HSE_VALUE/((RCC->CFGR2 & 0xF) + 1);  /* PREDIV1 */
    10fe:	c118                	sw	a4,0(a0)
                RCC_Clocks->SYSCLK_Frequency = RCC_Clocks->SYSCLK_Frequency * pllmull;
    1100:	4118                	lw	a4,0(a0)
    1102:	b771                	j	108e <RCC_GetClocksFreq+0xd0>
                    else if(Pll2mull == 1) RCC_Clocks->SYSCLK_Frequency = (RCC_Clocks->SYSCLK_Frequency * 25)>>1;
    1104:	4585                	li	a1,1
    1106:	00b69463          	bne	a3,a1,110e <RCC_GetClocksFreq+0x150>
    110a:	46e5                	li	a3,25
    110c:	bfe9                	j	10e6 <RCC_GetClocksFreq+0x128>
                    else if(Pll2mull == 15) RCC_Clocks->SYSCLK_Frequency = RCC_Clocks->SYSCLK_Frequency * 20;
    110e:	45bd                	li	a1,15
    1110:	00b69663          	bne	a3,a1,111c <RCC_GetClocksFreq+0x15e>
    1114:	46d1                	li	a3,20
                    else  RCC_Clocks->SYSCLK_Frequency = RCC_Clocks->SYSCLK_Frequency * (Pll2mull + 2);
    1116:	02e68733          	mul	a4,a3,a4
    111a:	bfc9                	j	10ec <RCC_GetClocksFreq+0x12e>
    111c:	0689                	addi	a3,a3,2
    111e:	bfe5                	j	1116 <RCC_GetClocksFreq+0x158>
                    RCC_Clocks->SYSCLK_Frequency = HSE_VALUE/((RCC->CFGR2 & 0xF) + 1);  /* PREDIV1 */
    1120:	8b3d                	andi	a4,a4,15
    1122:	00170693          	addi	a3,a4,1 # 40021001 <_eusrstack+0x20011001>
    1126:	007a1737          	lui	a4,0x7a1
    112a:	20070713          	addi	a4,a4,512 # 7a1200 <_data_lma+0x7979b8>
    112e:	02d75733          	divu	a4,a4,a3
    1132:	b7f1                	j	10fe <RCC_GetClocksFreq+0x140>

00001134 <RCC_AHBPeriphClockCmd>:
 *
 * @return  none
 */
void RCC_AHBPeriphClockCmd(uint32_t RCC_AHBPeriph, FunctionalState NewState)
{
    if(NewState != DISABLE)
    1134:	c599                	beqz	a1,1142 <RCC_AHBPeriphClockCmd+0xe>
    {
        RCC->AHBPCENR |= RCC_AHBPeriph;
    1136:	40021737          	lui	a4,0x40021
    113a:	4b5c                	lw	a5,20(a4)
    113c:	8d5d                	or	a0,a0,a5
    113e:	cb48                	sw	a0,20(a4)
    1140:	8082                	ret
    }
    else
    {
        RCC->AHBPCENR &= ~RCC_AHBPeriph;
    1142:	400217b7          	lui	a5,0x40021
    1146:	4bd8                	lw	a4,20(a5)
    1148:	fff54513          	not	a0,a0
    114c:	8d79                	and	a0,a0,a4
    114e:	cbc8                	sw	a0,20(a5)
    }
}
    1150:	8082                	ret

00001152 <RCC_APB2PeriphClockCmd>:
 *
 * @return  none
 */
void RCC_APB2PeriphClockCmd(uint32_t RCC_APB2Periph, FunctionalState NewState)
{
    if(NewState != DISABLE)
    1152:	c599                	beqz	a1,1160 <RCC_APB2PeriphClockCmd+0xe>
    {
        RCC->APB2PCENR |= RCC_APB2Periph;
    1154:	40021737          	lui	a4,0x40021
    1158:	4f1c                	lw	a5,24(a4)
    115a:	8d5d                	or	a0,a0,a5
    115c:	cf08                	sw	a0,24(a4)
    115e:	8082                	ret
    }
    else
    {
        RCC->APB2PCENR &= ~RCC_APB2Periph;
    1160:	400217b7          	lui	a5,0x40021
    1164:	4f98                	lw	a4,24(a5)
    1166:	fff54513          	not	a0,a0
    116a:	8d79                	and	a0,a0,a4
    116c:	cf88                	sw	a0,24(a5)
    }
}
    116e:	8082                	ret

00001170 <RCC_APB1PeriphClockCmd>:
 *
 * @return  none
 */
void RCC_APB1PeriphClockCmd(uint32_t RCC_APB1Periph, FunctionalState NewState)
{
    if(NewState != DISABLE)
    1170:	c599                	beqz	a1,117e <RCC_APB1PeriphClockCmd+0xe>
    {
        RCC->APB1PCENR |= RCC_APB1Periph;
    1172:	40021737          	lui	a4,0x40021
    1176:	4f5c                	lw	a5,28(a4)
    1178:	8d5d                	or	a0,a0,a5
    117a:	cf48                	sw	a0,28(a4)
    117c:	8082                	ret
    }
    else
    {
        RCC->APB1PCENR &= ~RCC_APB1Periph;
    117e:	400217b7          	lui	a5,0x40021
    1182:	4fd8                	lw	a4,28(a5)
    1184:	fff54513          	not	a0,a0
    1188:	8d79                	and	a0,a0,a4
    118a:	cfc8                	sw	a0,28(a5)
    }
}
    118c:	8082                	ret

0000118e <RCC_GetFlagStatus>:
{
    uint32_t tmp = 0;
    uint32_t statusreg = 0;

    FlagStatus bitstatus = RESET;
    tmp = RCC_FLAG >> 5;
    118e:	00555793          	srli	a5,a0,0x5

    if(tmp == 1)
    1192:	4705                	li	a4,1
    1194:	00e79963          	bne	a5,a4,11a6 <RCC_GetFlagStatus+0x18>
    {
        statusreg = RCC->CTLR;
    1198:	400217b7          	lui	a5,0x40021
    119c:	439c                	lw	a5,0(a5)
        statusreg = RCC->RSTSCKR;
    }

    tmp = RCC_FLAG & FLAG_Mask;

    if((statusreg & ((uint32_t)1 << tmp)) != (uint32_t)RESET)
    119e:	00a7d533          	srl	a0,a5,a0
    {
        bitstatus = RESET;
    }

    return bitstatus;
}
    11a2:	8905                	andi	a0,a0,1
    11a4:	8082                	ret
    else if(tmp == 2)
    11a6:	4709                	li	a4,2
    11a8:	00e79663          	bne	a5,a4,11b4 <RCC_GetFlagStatus+0x26>
        statusreg = RCC->BDCTLR;
    11ac:	400217b7          	lui	a5,0x40021
    11b0:	539c                	lw	a5,32(a5)
    11b2:	b7f5                	j	119e <RCC_GetFlagStatus+0x10>
        statusreg = RCC->RSTSCKR;
    11b4:	400217b7          	lui	a5,0x40021
    11b8:	53dc                	lw	a5,36(a5)
    11ba:	b7d5                	j	119e <RCC_GetFlagStatus+0x10>

000011bc <RCC_PREDIV2Config>:
 */
void RCC_PREDIV2Config(uint32_t RCC_PREDIV2_Div)
{
    uint32_t tmpreg = 0;

    tmpreg = RCC->CFGR2;
    11bc:	40021737          	lui	a4,0x40021
    11c0:	575c                	lw	a5,44(a4)
    tmpreg &= ~CFGR2_PREDIV2;
    11c2:	f0f7f793          	andi	a5,a5,-241
    tmpreg |= RCC_PREDIV2_Div;
    11c6:	8d5d                	or	a0,a0,a5
    RCC->CFGR2 = tmpreg;
    11c8:	d748                	sw	a0,44(a4)
}
    11ca:	8082                	ret

000011cc <RCC_PLL3Config>:
 */
void RCC_PLL3Config(uint32_t RCC_PLL3Mul)
{
    uint32_t tmpreg = 0;

    tmpreg = RCC->CFGR2;
    11cc:	400216b7          	lui	a3,0x40021
    11d0:	56dc                	lw	a5,44(a3)
    tmpreg &= ~CFGR2_PLL3MUL;
    11d2:	7745                	lui	a4,0xffff1
    11d4:	177d                	addi	a4,a4,-1
    11d6:	8ff9                	and	a5,a5,a4
    tmpreg |= RCC_PLL3Mul;
    11d8:	8d5d                	or	a0,a0,a5
    RCC->CFGR2 = tmpreg;
    11da:	d6c8                	sw	a0,44(a3)
}
    11dc:	8082                	ret

000011de <RCC_PLL3Cmd>:
 *
 * @return  none
 */
void RCC_PLL3Cmd(FunctionalState NewState)
{
    if(NewState)
    11de:	c909                	beqz	a0,11f0 <RCC_PLL3Cmd+0x12>
    {
        RCC->CTLR |= (1 << 28);
    11e0:	40021737          	lui	a4,0x40021
    11e4:	431c                	lw	a5,0(a4)
    11e6:	100006b7          	lui	a3,0x10000
    11ea:	8fd5                	or	a5,a5,a3
    11ec:	c31c                	sw	a5,0(a4)
    11ee:	8082                	ret
    }
    else
    {
        RCC->CTLR &= ~(1 << 28);
    11f0:	400216b7          	lui	a3,0x40021
    11f4:	429c                	lw	a5,0(a3)
    11f6:	f0000737          	lui	a4,0xf0000
    11fa:	177d                	addi	a4,a4,-1
    11fc:	8ff9                	and	a5,a5,a4
    11fe:	c29c                	sw	a5,0(a3)
    }
}
    1200:	8082                	ret

00001202 <RCC_AHBPeriphResetCmd>:
 *
 * @return  none
 */
void RCC_AHBPeriphResetCmd(uint32_t RCC_AHBPeriph, FunctionalState NewState)
{
    if(NewState != DISABLE)
    1202:	c599                	beqz	a1,1210 <RCC_AHBPeriphResetCmd+0xe>
    {
        RCC->AHBRSTR |= RCC_AHBPeriph;
    1204:	40021737          	lui	a4,0x40021
    1208:	571c                	lw	a5,40(a4)
    120a:	8d5d                	or	a0,a0,a5
    120c:	d708                	sw	a0,40(a4)
    120e:	8082                	ret
    }
    else
    {
        RCC->AHBRSTR &= ~RCC_AHBPeriph;
    1210:	400217b7          	lui	a5,0x40021
    1214:	5798                	lw	a4,40(a5)
    1216:	fff54513          	not	a0,a0
    121a:	8d79                	and	a0,a0,a4
    121c:	d788                	sw	a0,40(a5)
    }
}
    121e:	8082                	ret

00001220 <TIM_TimeBaseInit>:
 */
void TIM_TimeBaseInit(TIM_TypeDef *TIMx, TIM_TimeBaseInitTypeDef *TIM_TimeBaseInitStruct)
{
    uint16_t tmpcr1 = 0;

    tmpcr1 = TIMx->CTLR1;
    1220:	211e                	lhu	a5,0(a0)

    if((TIMx == TIM1) || (TIMx == TIM2) || (TIMx == TIM3) || (TIMx == TIM4) ||
    1222:	40013737          	lui	a4,0x40013
    1226:	c0070693          	addi	a3,a4,-1024 # 40012c00 <_eusrstack+0x20002c00>
    tmpcr1 = TIMx->CTLR1;
    122a:	07c2                	slli	a5,a5,0x10
    122c:	83c1                	srli	a5,a5,0x10
    if((TIMx == TIM1) || (TIMx == TIM2) || (TIMx == TIM3) || (TIMx == TIM4) ||
    122e:	04d50063          	beq	a0,a3,126e <TIM_TimeBaseInit+0x4e>
    1232:	400006b7          	lui	a3,0x40000
    1236:	02d50c63          	beq	a0,a3,126e <TIM_TimeBaseInit+0x4e>
    123a:	40068693          	addi	a3,a3,1024 # 40000400 <_eusrstack+0x1fff0400>
    123e:	02d50863          	beq	a0,a3,126e <TIM_TimeBaseInit+0x4e>
    1242:	400016b7          	lui	a3,0x40001
    1246:	80068613          	addi	a2,a3,-2048 # 40000800 <_eusrstack+0x1fff0800>
    124a:	02c50263          	beq	a0,a2,126e <TIM_TimeBaseInit+0x4e>
    124e:	c0068693          	addi	a3,a3,-1024
    1252:	00d50e63          	beq	a0,a3,126e <TIM_TimeBaseInit+0x4e>
       (TIMx == TIM5) || (TIMx == TIM8) || (TIMx == TIM9) || (TIMx == TIM10))
    1256:	40070713          	addi	a4,a4,1024
    125a:	00e50a63          	beq	a0,a4,126e <TIM_TimeBaseInit+0x4e>
    125e:	40015737          	lui	a4,0x40015
    1262:	c0070693          	addi	a3,a4,-1024 # 40014c00 <_eusrstack+0x20004c00>
    1266:	00d50463          	beq	a0,a3,126e <TIM_TimeBaseInit+0x4e>
    126a:	00e51663          	bne	a0,a4,1276 <TIM_TimeBaseInit+0x56>
    {
        tmpcr1 &= (uint16_t)(~((uint16_t)(TIM_DIR | TIM_CMS)));
        tmpcr1 |= (uint32_t)TIM_TimeBaseInitStruct->TIM_CounterMode;
    126e:	21ba                	lhu	a4,2(a1)
        tmpcr1 &= (uint16_t)(~((uint16_t)(TIM_DIR | TIM_CMS)));
    1270:	f8f7f793          	andi	a5,a5,-113
        tmpcr1 |= (uint32_t)TIM_TimeBaseInitStruct->TIM_CounterMode;
    1274:	8fd9                	or	a5,a5,a4
    }

    if((TIMx != TIM6) && (TIMx != TIM7))
    1276:	40001737          	lui	a4,0x40001
    127a:	00e50c63          	beq	a0,a4,1292 <TIM_TimeBaseInit+0x72>
    127e:	40070713          	addi	a4,a4,1024 # 40001400 <_eusrstack+0x1fff1400>
    1282:	00e50863          	beq	a0,a4,1292 <TIM_TimeBaseInit+0x72>
    {
        tmpcr1 &= (uint16_t)(~((uint16_t)TIM_CTLR1_CKD));
    1286:	cff7f793          	andi	a5,a5,-769
        tmpcr1 |= (uint32_t)TIM_TimeBaseInitStruct->TIM_ClockDivision;
    128a:	21fa                	lhu	a4,6(a1)
        tmpcr1 &= (uint16_t)(~((uint16_t)TIM_CTLR1_CKD));
    128c:	07c2                	slli	a5,a5,0x10
    128e:	83c1                	srli	a5,a5,0x10
        tmpcr1 |= (uint32_t)TIM_TimeBaseInitStruct->TIM_ClockDivision;
    1290:	8fd9                	or	a5,a5,a4
    }

    TIMx->CTLR1 = tmpcr1;
    1292:	a11e                	sh	a5,0(a0)
    TIMx->ATRLR = TIM_TimeBaseInitStruct->TIM_Period;
    1294:	21de                	lhu	a5,4(a1)
    1296:	b55e                	sh	a5,44(a0)
    TIMx->PSC = TIM_TimeBaseInitStruct->TIM_Prescaler;
    1298:	219e                	lhu	a5,0(a1)
    129a:	b51e                	sh	a5,40(a0)

    if((TIMx == TIM1) || (TIMx == TIM8) || (TIMx == TIM9) || (TIMx == TIM10))
    129c:	400137b7          	lui	a5,0x40013
    12a0:	c0078713          	addi	a4,a5,-1024 # 40012c00 <_eusrstack+0x20002c00>
    12a4:	00e50e63          	beq	a0,a4,12c0 <TIM_TimeBaseInit+0xa0>
    12a8:	40078793          	addi	a5,a5,1024
    12ac:	00f50a63          	beq	a0,a5,12c0 <TIM_TimeBaseInit+0xa0>
    12b0:	400157b7          	lui	a5,0x40015
    12b4:	c0078713          	addi	a4,a5,-1024 # 40014c00 <_eusrstack+0x20004c00>
    12b8:	00e50463          	beq	a0,a4,12c0 <TIM_TimeBaseInit+0xa0>
    12bc:	00f51463          	bne	a0,a5,12c4 <TIM_TimeBaseInit+0xa4>
    {
        TIMx->RPTCR = TIM_TimeBaseInitStruct->TIM_RepetitionCounter;
    12c0:	259c                	lbu	a5,8(a1)
    12c2:	b91e                	sh	a5,48(a0)
    }

    TIMx->SWEVGR = TIM_PSCReloadMode_Immediate;
    12c4:	4785                	li	a5,1
    12c6:	a95e                	sh	a5,20(a0)
}
    12c8:	8082                	ret

000012ca <TIM_Cmd>:
 */
void TIM_Cmd(TIM_TypeDef *TIMx, FunctionalState NewState)
{
    if(NewState != DISABLE)
    {
        TIMx->CTLR1 |= TIM_CEN;
    12ca:	211e                	lhu	a5,0(a0)
    if(NewState != DISABLE)
    12cc:	c589                	beqz	a1,12d6 <TIM_Cmd+0xc>
        TIMx->CTLR1 |= TIM_CEN;
    12ce:	0017e793          	ori	a5,a5,1
    }
    else
    {
        TIMx->CTLR1 &= (uint16_t)(~((uint16_t)TIM_CEN));
    12d2:	a11e                	sh	a5,0(a0)
    }
}
    12d4:	8082                	ret
        TIMx->CTLR1 &= (uint16_t)(~((uint16_t)TIM_CEN));
    12d6:	07c2                	slli	a5,a5,0x10
    12d8:	83c1                	srli	a5,a5,0x10
    12da:	9bf9                	andi	a5,a5,-2
    12dc:	07c2                	slli	a5,a5,0x10
    12de:	83c1                	srli	a5,a5,0x10
    12e0:	bfcd                	j	12d2 <TIM_Cmd+0x8>

000012e2 <TIM_ITConfig>:
 */
void TIM_ITConfig(TIM_TypeDef *TIMx, uint16_t TIM_IT, FunctionalState NewState)
{
    if(NewState != DISABLE)
    {
        TIMx->DMAINTENR |= TIM_IT;
    12e2:	255e                	lhu	a5,12(a0)
    if(NewState != DISABLE)
    12e4:	c601                	beqz	a2,12ec <TIM_ITConfig+0xa>
        TIMx->DMAINTENR |= TIM_IT;
    12e6:	8ddd                	or	a1,a1,a5
    }
    else
    {
        TIMx->DMAINTENR &= (uint16_t)~TIM_IT;
    12e8:	a54e                	sh	a1,12(a0)
    }
}
    12ea:	8082                	ret
        TIMx->DMAINTENR &= (uint16_t)~TIM_IT;
    12ec:	fff5c593          	not	a1,a1
    12f0:	8dfd                	and	a1,a1,a5
    12f2:	bfdd                	j	12e8 <TIM_ITConfig+0x6>

000012f4 <TIM_ClearITPendingBit>:
    12f4:	fff5c593          	not	a1,a1
    12f8:	05c2                	slli	a1,a1,0x10
    12fa:	81c1                	srli	a1,a1,0x10
    12fc:	a90e                	sh	a1,16(a0)
    12fe:	8082                	ret

00001300 <USART_Init>:
 *        USART peripheral.
 *
 * @return  none
 */
void USART_Init(USART_TypeDef *USARTx, USART_InitTypeDef *USART_InitStruct)
{
    1300:	ef1fe2ef          	jal	t0,1f0 <__riscv_save_0>
    if(USART_InitStruct->USART_HardwareFlowControl != USART_HardwareFlowControl_None)
    {
    }

    usartxbase = (uint32_t)USARTx;
    tmpreg = USARTx->CTLR2;
    1304:	2916                	lhu	a3,16(a0)
    1306:	77f5                	lui	a5,0xffffd
    1308:	17fd                	addi	a5,a5,-1
    130a:	8ff5                	and	a5,a5,a3
    130c:	21f6                	lhu	a3,6(a1)
    if(USART_InitStruct->USART_HardwareFlowControl != USART_HardwareFlowControl_None)
    130e:	25da                	lhu	a4,12(a1)
{
    1310:	7179                	addi	sp,sp,-48
    1312:	8fd5                	or	a5,a5,a3
    tmpreg &= CTLR2_STOP_CLEAR_Mask;
    tmpreg |= (uint32_t)USART_InitStruct->USART_StopBits;

    USARTx->CTLR2 = (uint16_t)tmpreg;
    1314:	a91e                	sh	a5,16(a0)
    tmpreg = USARTx->CTLR1;
    1316:	2556                	lhu	a3,12(a0)
    tmpreg &= CTLR1_CLEAR_Mask;
    tmpreg |= (uint32_t)USART_InitStruct->USART_WordLength | USART_InitStruct->USART_Parity |
    1318:	77fd                	lui	a5,0xfffff
    131a:	9f378793          	addi	a5,a5,-1549 # ffffe9f3 <_eusrstack+0xdffee9f3>
    131e:	8ff5                	and	a5,a5,a3
    1320:	21d6                	lhu	a3,4(a1)
{
    1322:	842a                	mv	s0,a0
    1324:	c62e                	sw	a1,12(sp)
    1326:	8fd5                	or	a5,a5,a3
    1328:	2596                	lhu	a3,8(a1)
    132a:	8fd5                	or	a5,a5,a3
    132c:	25b6                	lhu	a3,10(a1)
    132e:	8fd5                	or	a5,a5,a3
              USART_InitStruct->USART_Mode;
    USARTx->CTLR1 = (uint16_t)tmpreg;
    1330:	a55e                	sh	a5,12(a0)

    tmpreg = USARTx->CTLR3;
    1332:	295e                	lhu	a5,20(a0)
    1334:	07c2                	slli	a5,a5,0x10
    1336:	83c1                	srli	a5,a5,0x10
    tmpreg &= CTLR3_CLEAR_Mask;
    tmpreg |= USART_InitStruct->USART_HardwareFlowControl;
    1338:	cff7f793          	andi	a5,a5,-769
    133c:	8fd9                	or	a5,a5,a4
    USARTx->CTLR3 = (uint16_t)tmpreg;
    133e:	a95e                	sh	a5,20(a0)

    RCC_GetClocksFreq(&RCC_ClocksStatus);
    1340:	0868                	addi	a0,sp,28
    1342:	39b5                	jal	fbe <RCC_GetClocksFreq>

    if(usartxbase == USART1_BASE)
    1344:	400147b7          	lui	a5,0x40014
    1348:	80078793          	addi	a5,a5,-2048 # 40013800 <_eusrstack+0x20003800>
    134c:	45b2                	lw	a1,12(sp)
    134e:	02f41e63          	bne	s0,a5,138a <USART_Init+0x8a>
    {
        apbclock = RCC_ClocksStatus.PCLK2_Frequency;
    1352:	57a2                	lw	a5,40(sp)
    else
    {
        apbclock = RCC_ClocksStatus.PCLK1_Frequency;
    }

    integerdivider = ((25 * apbclock) / (4 * (USART_InitStruct->USART_BaudRate)));
    1354:	4765                	li	a4,25
    1356:	02e787b3          	mul	a5,a5,a4
    135a:	4198                	lw	a4,0(a1)
    tmpreg = (integerdivider / 100) << 4;
    135c:	06400693          	li	a3,100
    integerdivider = ((25 * apbclock) / (4 * (USART_InitStruct->USART_BaudRate)));
    1360:	070a                	slli	a4,a4,0x2
    1362:	02e7d7b3          	divu	a5,a5,a4
    tmpreg = (integerdivider / 100) << 4;
    1366:	02d7d733          	divu	a4,a5,a3
    fractionaldivider = integerdivider - (100 * (tmpreg >> 4));
    tmpreg |= ((((fractionaldivider * 16) + 50) / 100)) & ((uint8_t)0x0F);
    136a:	02d7f7b3          	remu	a5,a5,a3
    tmpreg = (integerdivider / 100) << 4;
    136e:	0712                	slli	a4,a4,0x4
    tmpreg |= ((((fractionaldivider * 16) + 50) / 100)) & ((uint8_t)0x0F);
    1370:	0792                	slli	a5,a5,0x4
    1372:	03278793          	addi	a5,a5,50
    1376:	02d7d7b3          	divu	a5,a5,a3
    137a:	8bbd                	andi	a5,a5,15
    137c:	8fd9                	or	a5,a5,a4
    USARTx->BRR = (uint16_t)tmpreg;
    137e:	07c2                	slli	a5,a5,0x10
    1380:	83c1                	srli	a5,a5,0x10
    1382:	a41e                	sh	a5,8(s0)
}
    1384:	6145                	addi	sp,sp,48
    1386:	e8ffe06f          	j	214 <__riscv_restore_0>
        apbclock = RCC_ClocksStatus.PCLK1_Frequency;
    138a:	5792                	lw	a5,36(sp)
    138c:	b7e1                	j	1354 <USART_Init+0x54>

0000138e <USART_Cmd>:
 *
 * @return  none
 */
void USART_Cmd(USART_TypeDef *USARTx, FunctionalState NewState)
{
    if(NewState != DISABLE)
    138e:	c591                	beqz	a1,139a <USART_Cmd+0xc>
    {
        USARTx->CTLR1 |= CTLR1_UE_Set;
    1390:	255e                	lhu	a5,12(a0)
    1392:	6709                	lui	a4,0x2
    1394:	8fd9                	or	a5,a5,a4
    }
    else
    {
        USARTx->CTLR1 &= CTLR1_UE_Reset;
    1396:	a55e                	sh	a5,12(a0)
    }
}
    1398:	8082                	ret
        USARTx->CTLR1 &= CTLR1_UE_Reset;
    139a:	255a                	lhu	a4,12(a0)
    139c:	77f9                	lui	a5,0xffffe
    139e:	17fd                	addi	a5,a5,-1
    13a0:	8ff9                	and	a5,a5,a4
    13a2:	bfd5                	j	1396 <USART_Cmd+0x8>

000013a4 <USART_SendData>:
 *
 * @return  none
 */
void USART_SendData(USART_TypeDef *USARTx, uint16_t Data)
{
    USARTx->DATAR = (Data & (uint16_t)0x01FF);
    13a4:	1ff5f593          	andi	a1,a1,511
    13a8:	a14e                	sh	a1,4(a0)
}
    13aa:	8082                	ret

000013ac <USART_GetFlagStatus>:
 */
FlagStatus USART_GetFlagStatus(USART_TypeDef *USARTx, uint16_t USART_FLAG)
{
    FlagStatus bitstatus = RESET;

    if((USARTx->STATR & USART_FLAG) != (uint16_t)RESET)
    13ac:	210a                	lhu	a0,0(a0)
    13ae:	8d6d                	and	a0,a0,a1
    else
    {
        bitstatus = RESET;
    }
    return bitstatus;
}
    13b0:	00a03533          	snez	a0,a0
    13b4:	8082                	ret

000013b6 <ETH_TxPktChainMode>:
 * @return  Send status.
 */
uint32_t ETH_TxPktChainMode(uint16_t len, uint32_t *pBuff )
{
    /* Check if the descriptor is owned by the ETHERNET DMA (when set) or CPU (when reset) */
    if((DMATxDescToSet->Status & ETH_DMATxDesc_OWN) != (u32)RESET)
    13b6:	8681a783          	lw	a5,-1944(gp) # 20000088 <DMATxDescToSet>
    13ba:	4398                	lw	a4,0(a5)
    13bc:	02074b63          	bltz	a4,13f2 <ETH_TxPktChainMode+0x3c>

    /* Setting the last segment and first segment bits (in this case a frame is transmitted in one descriptor) */
#if HARDWARE_CHECKSUM_CONFIG
    DMATxDescToSet->Status |= ETH_DMATxDesc_LS | ETH_DMATxDesc_FS | ETH_DMATxDesc_CIC_TCPUDPICMP_Full;
#else
    DMATxDescToSet->Status |= ETH_DMATxDesc_LS | ETH_DMATxDesc_FS;
    13c0:	4398                	lw	a4,0(a5)
    13c2:	30000637          	lui	a2,0x30000
    DMATxDescToSet->ControlBufferSize = (len & ETH_DMATxDesc_TBS1);
    13c6:	054e                	slli	a0,a0,0x13
    DMATxDescToSet->Status |= ETH_DMATxDesc_LS | ETH_DMATxDesc_FS;
    13c8:	8f51                	or	a4,a4,a2
    13ca:	c398                	sw	a4,0(a5)
#endif

    /* Set Own bit of the Tx descriptor Status: gives the buffer back to ETHERNET DMA */
    DMATxDescToSet->Status |= ETH_DMATxDesc_OWN;
    13cc:	4398                	lw	a4,0(a5)
    13ce:	80000637          	lui	a2,0x80000
    DMATxDescToSet->ControlBufferSize = (len & ETH_DMATxDesc_TBS1);
    13d2:	814d                	srli	a0,a0,0x13
    DMATxDescToSet->Status |= ETH_DMATxDesc_OWN;
    13d4:	8f51                	or	a4,a4,a2
    13d6:	c398                	sw	a4,0(a5)
    DMATxDescToSet->ControlBufferSize = (len & ETH_DMATxDesc_TBS1);
    13d8:	c3c8                	sw	a0,4(a5)
    DMATxDescToSet->Buffer1Addr = (uint32_t)pBuff;
    13da:	c78c                	sw	a1,8(a5)

    /* Clear TBUS ETHERNET DMA flag */
    ETH->DMASR = ETH_DMASR_TBUS;
    13dc:	40029737          	lui	a4,0x40029
    13e0:	4611                	li	a2,4
    13e2:	cb50                	sw	a2,20(a4)
    /* Resume DMA transmission*/
    ETH->DMATPDR = 0;
    13e4:	00072223          	sw	zero,4(a4) # 40029004 <_eusrstack+0x20019004>

    /* Update the ETHERNET DMA global Tx descriptor with next Tx descriptor */
    /* Chained Mode */
    /* Selects the next DMA Tx descriptor list for next buffer to send */
    DMATxDescToSet = (ETH_DMADESCTypeDef*) (DMATxDescToSet->Buffer2NextDescAddr);
    13e8:	47dc                	lw	a5,12(a5)
    /* Return SUCCESS */
    return ETH_SUCCESS;
    13ea:	4505                	li	a0,1
    DMATxDescToSet = (ETH_DMADESCTypeDef*) (DMATxDescToSet->Buffer2NextDescAddr);
    13ec:	86f1a423          	sw	a5,-1944(gp) # 20000088 <DMATxDescToSet>
    return ETH_SUCCESS;
    13f0:	8082                	ret
        return ETH_ERROR;
    13f2:	4501                	li	a0,0
}
    13f4:	8082                	ret

000013f6 <ETH_LedDataSet>:
{
    13f6:	dfbfe2ef          	jal	t0,1f0 <__riscv_save_0>
    if( mode == LED_OFF )
    13fa:	4785                	li	a5,1
        GPIO_SetBits(GPIOC, GPIO_Pin_1);
    13fc:	4589                	li	a1,2
    if( mode == LED_OFF )
    13fe:	00f51863          	bne	a0,a5,140e <ETH_LedDataSet+0x18>
        GPIO_SetBits(GPIOC, GPIO_Pin_1);
    1402:	40011537          	lui	a0,0x40011
    1406:	933ff0ef          	jal	ra,d38 <GPIO_SetBits>
}
    140a:	e0bfe06f          	j	214 <__riscv_restore_0>
        GPIO_ResetBits(GPIOC, GPIO_Pin_1);
    140e:	40011537          	lui	a0,0x40011
    1412:	92bff0ef          	jal	ra,d3c <GPIO_ResetBits>
}
    1416:	bfd5                	j	140a <ETH_LedDataSet+0x14>

00001418 <ETH_LedLinkSet>:
{
    1418:	dd9fe2ef          	jal	t0,1f0 <__riscv_save_0>
    if( mode == LED_OFF )
    141c:	4785                	li	a5,1
        GPIO_SetBits(GPIOC, GPIO_Pin_0);
    141e:	4585                	li	a1,1
    if( mode == LED_OFF )
    1420:	00f51863          	bne	a0,a5,1430 <ETH_LedLinkSet+0x18>
        GPIO_SetBits(GPIOC, GPIO_Pin_0);
    1424:	40011537          	lui	a0,0x40011
    1428:	911ff0ef          	jal	ra,d38 <GPIO_SetBits>
}
    142c:	de9fe06f          	j	214 <__riscv_restore_0>
        GPIO_ResetBits(GPIOC, GPIO_Pin_0);
    1430:	40011537          	lui	a0,0x40011
    1434:	909ff0ef          	jal	ra,d3c <GPIO_ResetBits>
}
    1438:	bfd5                	j	142c <ETH_LedLinkSet+0x14>

0000143a <WCHNET_GetMacAddr>:
        *p = *macaddr;
    143a:	1ffff737          	lui	a4,0x1ffff
{
    143e:	4781                	li	a5,0
        *p = *macaddr;
    1440:	7ed70713          	addi	a4,a4,2029 # 1ffff7ed <_data_lma+0x1fff5fa5>
    for(i=0;i<6;i++)
    1444:	4699                	li	a3,6
        *p = *macaddr;
    1446:	40f70633          	sub	a2,a4,a5
    144a:	220c                	lbu	a1,0(a2)
    144c:	00f50633          	add	a2,a0,a5
    1450:	0785                	addi	a5,a5,1
    1452:	a20c                	sb	a1,0(a2)
    for(i=0;i<6;i++)
    1454:	fed799e3          	bne	a5,a3,1446 <WCHNET_GetMacAddr+0xc>
}
    1458:	8082                	ret

0000145a <WCHNET_TimeIsr>:
    LocalTime += timperiod;
    145a:	87818793          	addi	a5,gp,-1928 # 20000098 <LocalTime>
    145e:	4398                	lw	a4,0(a5)
    1460:	953a                	add	a0,a0,a4
    1462:	c388                	sw	a0,0(a5)
}
    1464:	8082                	ret

00001466 <WCHNET_PhyPNProcess>:
    LinkSuccTime = LocalTime;
    1466:	8781a703          	lw	a4,-1928(gp) # 20000098 <LocalTime>
    146a:	86e1aa23          	sw	a4,-1932(gp) # 20000094 <LinkSuccTime>
    if((ETH->MMCRGUFCR == 0) && (ETH->MMCRFCECR >= 3))
    146e:	400287b7          	lui	a5,0x40028
    1472:	1c47a703          	lw	a4,452(a5) # 400281c4 <_eusrstack+0x200181c4>
    1476:	ef25                	bnez	a4,14ee <WCHNET_PhyPNProcess+0x88>
    1478:	1947a703          	lw	a4,404(a5)
    147c:	4789                	li	a5,2
    147e:	06e7f863          	bgeu	a5,a4,14ee <WCHNET_PhyPNProcess+0x88>
{
    1482:	d6ffe2ef          	jal	t0,1f0 <__riscv_save_0>
        PhyVal = ETH_ReadPHYRegister(gPHYAddress, PHY_MDIX);
    1486:	8881d503          	lhu	a0,-1912(gp) # 200000a8 <gPHYAddress>
    148a:	45f9                	li	a1,30
    148c:	88818413          	addi	s0,gp,-1912 # 200000a8 <gPHYAddress>
    1490:	e30ff0ef          	jal	ra,ac0 <ETH_ReadPHYRegister>
        if((PhyVal >> 2) & 0x01)
    1494:	00255793          	srli	a5,a0,0x2
    1498:	8b85                	andi	a5,a5,1
    149a:	c7a9                	beqz	a5,14e4 <WCHNET_PhyPNProcess+0x7e>
            PhyVal &= ~(3 << 2);                //change PHY PN Polarity to normal
    149c:	994d                	andi	a0,a0,-13
        ETH_WritePHYRegister(gPHYAddress, PHY_MDIX, PhyVal);
    149e:	01051613          	slli	a2,a0,0x10
    14a2:	200a                	lhu	a0,0(s0)
    14a4:	8241                	srli	a2,a2,0x10
    14a6:	45f9                	li	a1,30
    14a8:	e70ff0ef          	jal	ra,b18 <ETH_WritePHYRegister>
        ETH->MMCCR |= ETH_MMCCR_CR;             //Counters Reset
    14ac:	40028737          	lui	a4,0x40028
    14b0:	10072783          	lw	a5,256(a4) # 40028100 <_eusrstack+0x20018100>
    14b4:	0017e793          	ori	a5,a5,1
    14b8:	10f72023          	sw	a5,256(a4)
        while(ETH->MMCCR & ETH_MMCCR_CR);       //Wait for counters reset to complete
    14bc:	10072783          	lw	a5,256(a4)
    14c0:	8b85                	andi	a5,a5,1
    14c2:	ffed                	bnez	a5,14bc <WCHNET_PhyPNProcess+0x56>
    if(ETH->MMCRGUFCR != 0)
    14c4:	400287b7          	lui	a5,0x40028
    14c8:	1c47a703          	lw	a4,452(a5) # 400281c4 <_eusrstack+0x200181c4>
    14cc:	cb11                	beqz	a4,14e0 <WCHNET_PhyPNProcess+0x7a>
        PhyPolarityDetect = 0;
    14ce:	86018e23          	sb	zero,-1924(gp) # 2000009c <PhyPolarityDetect>
        ETH->MACFFR &= ~(ETH_ReceiveAll_Enable | ETH_PromiscuousMode_Enable);
    14d2:	43d8                	lw	a4,4(a5)
    14d4:	800006b7          	lui	a3,0x80000
    14d8:	ffe6c693          	xori	a3,a3,-2
    14dc:	8f75                	and	a4,a4,a3
    14de:	c3d8                	sw	a4,4(a5)
}
    14e0:	d35fe06f          	j	214 <__riscv_restore_0>
            PhyVal |= 1 << 2;                   //change PHY PN Polarity to reverse
    14e4:	00456513          	ori	a0,a0,4
    14e8:	0542                	slli	a0,a0,0x10
    14ea:	8141                	srli	a0,a0,0x10
    14ec:	bf4d                	j	149e <WCHNET_PhyPNProcess+0x38>
    if(ETH->MMCRGUFCR != 0)
    14ee:	400287b7          	lui	a5,0x40028
    14f2:	1c47a703          	lw	a4,452(a5) # 400281c4 <_eusrstack+0x200181c4>
    14f6:	cb19                	beqz	a4,150c <WCHNET_PhyPNProcess+0xa6>
        PhyPolarityDetect = 0;
    14f8:	86018e23          	sb	zero,-1924(gp) # 2000009c <PhyPolarityDetect>
        ETH->MACFFR &= ~(ETH_ReceiveAll_Enable | ETH_PromiscuousMode_Enable);
    14fc:	43d8                	lw	a4,4(a5)
    14fe:	800006b7          	lui	a3,0x80000
    1502:	ffe6c693          	xori	a3,a3,-2
    1506:	8f75                	and	a4,a4,a3
    1508:	c3d8                	sw	a4,4(a5)
    150a:	8082                	ret
    150c:	8082                	ret

0000150e <WCHNET_LinkProcess>:
{
    150e:	cc9fe2ef          	jal	t0,1d6 <__riscv_save_4>
    phy_anlpar = ETH_ReadPHYRegister(gPHYAddress, PHY_ANLPAR);
    1512:	88818493          	addi	s1,gp,-1912 # 200000a8 <gPHYAddress>
    1516:	208a                	lhu	a0,0(s1)
    1518:	4595                	li	a1,5
    151a:	88818413          	addi	s0,gp,-1912 # 200000a8 <gPHYAddress>
    151e:	da2ff0ef          	jal	ra,ac0 <ETH_ReadPHYRegister>
    1522:	892a                	mv	s2,a0
    phy_bmsr = ETH_ReadPHYRegister( gPHYAddress, PHY_BMSR);
    1524:	208a                	lhu	a0,0(s1)
    1526:	4585                	li	a1,1
    1528:	d98ff0ef          	jal	ra,ac0 <ETH_ReadPHYRegister>
    if( (phy_anlpar&PHY_ANLPAR_SELECTOR_FIELD) )
    152c:	01f97793          	andi	a5,s2,31
    1530:	88618913          	addi	s2,gp,-1914 # 200000a6 <TRDetectStep>
    1534:	14078a63          	beqz	a5,1688 <WCHNET_LinkProcess+0x17a>
        if(TRDetectStep == 0)
    1538:	00094783          	lbu	a5,0(s2)
    153c:	e3c1                	bnez	a5,15bc <WCHNET_LinkProcess+0xae>
            PHY_TR_SWITCH();
    153e:	200a                	lhu	a0,0(s0)
            TRDetectStep = 1;
    1540:	4785                	li	a5,1
            PHY_TR_SWITCH();
    1542:	45f9                	li	a1,30
            TRDetectStep = 1;
    1544:	00f90023          	sb	a5,0(s2)
            TRDetectCnt = 1;
    1548:	88f182a3          	sb	a5,-1915(gp) # 200000a5 <TRDetectCnt>
            PHY_TR_SWITCH();
    154c:	d74ff0ef          	jal	ra,ac0 <ETH_ReadPHYRegister>
    1550:	ffc57613          	andi	a2,a0,-4
    1554:	0642                	slli	a2,a2,0x10
    1556:	00157793          	andi	a5,a0,1
    155a:	8241                	srli	a2,a2,0x10
    155c:	cfa9                	beqz	a5,15b6 <WCHNET_LinkProcess+0xa8>
    155e:	00266613          	ori	a2,a2,2
    1562:	200a                	lhu	a0,0(s0)
    1564:	45f9                	li	a1,30
    1566:	db2ff0ef          	jal	ra,b18 <ETH_WritePHYRegister>
    156a:	200a                	lhu	a0,0(s0)
    156c:	4581                	li	a1,0
    156e:	d52ff0ef          	jal	ra,ac0 <ETH_ReadPHYRegister>
    1572:	ffe57613          	andi	a2,a0,-2
    1576:	0642                	slli	a2,a2,0x10
    1578:	200a                	lhu	a0,0(s0)
    157a:	8241                	srli	a2,a2,0x10
    157c:	20066613          	ori	a2,a2,512
    1580:	4581                	li	a1,0
    1582:	d96ff0ef          	jal	ra,b18 <ETH_WritePHYRegister>
    1586:	200a                	lhu	a0,0(s0)
    1588:	4581                	li	a1,0
    158a:	d36ff0ef          	jal	ra,ac0 <ETH_ReadPHYRegister>
    158e:	20356613          	ori	a2,a0,515
    1592:	200a                	lhu	a0,0(s0)
    1594:	0642                	slli	a2,a2,0x10
    1596:	8241                	srli	a2,a2,0x10
    1598:	4581                	li	a1,0
    159a:	d7eff0ef          	jal	ra,b18 <ETH_WritePHYRegister>
            LinkTaskPeriod = RandVal%100 + 50;
    159e:	8801a783          	lw	a5,-1920(gp) # 200000a0 <RandVal>
    15a2:	06400713          	li	a4,100
    15a6:	02e7f7b3          	remu	a5,a5,a4
    15aa:	03278793          	addi	a5,a5,50
    15ae:	80f18e23          	sb	a5,-2020(gp) # 2000003c <LinkTaskPeriod>
}
    15b2:	c59fe06f          	j	20a <__riscv_restore_4>
            PHY_TR_SWITCH();
    15b6:	00166613          	ori	a2,a2,1
    15ba:	b765                	j	1562 <WCHNET_LinkProcess+0x54>
        else if(TRDetectStep == 1)
    15bc:	4705                	li	a4,1
    15be:	00e79763          	bne	a5,a4,15cc <WCHNET_LinkProcess+0xbe>
            TRDetectStep = 2;
    15c2:	4789                	li	a5,2
    15c4:	00f90023          	sb	a5,0(s2)
            TRDetectCnt = 0;
    15c8:	880182a3          	sb	zero,-1915(gp) # 200000a5 <TRDetectCnt>
        if( !(phyLinkStatus&PHY_LINK_WAIT_SUC) )
    15cc:	89618793          	addi	a5,gp,-1898 # 200000b6 <phyLinkStatus>
    15d0:	00078703          	lb	a4,0(a5)
    15d4:	06074663          	bltz	a4,1640 <WCHNET_LinkProcess+0x132>
            if( phyPN == PHY_PN_SWITCH_AUTO )
    15d8:	81d18493          	addi	s1,gp,-2019 # 2000003d <phyPN>
    15dc:	2094                	lbu	a3,0(s1)
    15de:	4721                	li	a4,8
    15e0:	04e69a63          	bne	a3,a4,1634 <WCHNET_LinkProcess+0x126>
                PHY_PN_SWITCH(PHY_PN_SWITCH_P);
    15e4:	200a                	lhu	a0,0(s0)
    15e6:	45f9                	li	a1,30
                    PHY_PN_SWITCH(PHY_PN_SWITCH_P);
    15e8:	cd8ff0ef          	jal	ra,ac0 <ETH_ReadPHYRegister>
    15ec:	0f357613          	andi	a2,a0,243
    15f0:	200a                	lhu	a0,0(s0)
    15f2:	45f9                	li	a1,30
    15f4:	a090                	sb	a2,0(s1)
    15f6:	d22ff0ef          	jal	ra,b18 <ETH_WritePHYRegister>
    15fa:	00048023          	sb	zero,0(s1)
                else PHY_PN_SWITCH(PHY_PN_SWITCH_N);
    15fe:	200a                	lhu	a0,0(s0)
    1600:	4581                	li	a1,0
    1602:	cbeff0ef          	jal	ra,ac0 <ETH_ReadPHYRegister>
    1606:	ffe57613          	andi	a2,a0,-2
    160a:	0642                	slli	a2,a2,0x10
    160c:	200a                	lhu	a0,0(s0)
    160e:	8241                	srli	a2,a2,0x10
    1610:	20066613          	ori	a2,a2,512
    1614:	4581                	li	a1,0
    1616:	d02ff0ef          	jal	ra,b18 <ETH_WritePHYRegister>
    161a:	200a                	lhu	a0,0(s0)
    161c:	4581                	li	a1,0
    161e:	ca2ff0ef          	jal	ra,ac0 <ETH_ReadPHYRegister>
    1622:	20356613          	ori	a2,a0,515
    1626:	200a                	lhu	a0,0(s0)
    1628:	0642                	slli	a2,a2,0x10
    162a:	8241                	srli	a2,a2,0x10
    162c:	4581                	li	a1,0
    162e:	ceaff0ef          	jal	ra,b18 <ETH_WritePHYRegister>
    1632:	a021                	j	163a <WCHNET_LinkProcess+0x12c>
                phyLinkStatus = PHY_LINK_WAIT_SUC;
    1634:	f8000713          	li	a4,-128
    1638:	a398                	sb	a4,0(a5)
        phyLinkCnt = 0;
    163a:	88018a23          	sb	zero,-1900(gp) # 200000b4 <phyLinkCnt>
    163e:	bf95                	j	15b2 <WCHNET_LinkProcess+0xa4>
            if((phySucCnt++ == 5) && ((phy_bmsr&(1<<5)) == 0))
    1640:	8a218793          	addi	a5,gp,-1886 # 200000c2 <phySucCnt>
    1644:	2398                	lbu	a4,0(a5)
    1646:	00170693          	addi	a3,a4,1
    164a:	a394                	sb	a3,0(a5)
    164c:	4695                	li	a3,5
    164e:	fed716e3          	bne	a4,a3,163a <WCHNET_LinkProcess+0x12c>
    1652:	02057513          	andi	a0,a0,32
    1656:	f175                	bnez	a0,163a <WCHNET_LinkProcess+0x12c>
                if(phyPN == PHY_PN_SWITCH_N)
    1658:	81d18493          	addi	s1,gp,-2019 # 2000003d <phyPN>
                phySucCnt = 0;
    165c:	00078023          	sb	zero,0(a5)
                if(phyPN == PHY_PN_SWITCH_N)
    1660:	209c                	lbu	a5,0(s1)
    1662:	4911                	li	s2,4
    1664:	200a                	lhu	a0,0(s0)
                    PHY_PN_SWITCH(PHY_PN_SWITCH_P);
    1666:	45f9                	li	a1,30
                if(phyPN == PHY_PN_SWITCH_N)
    1668:	f92780e3          	beq	a5,s2,15e8 <WCHNET_LinkProcess+0xda>
                else PHY_PN_SWITCH(PHY_PN_SWITCH_N);
    166c:	c54ff0ef          	jal	ra,ac0 <ETH_ReadPHYRegister>
    1670:	0f357613          	andi	a2,a0,243
    1674:	200a                	lhu	a0,0(s0)
    1676:	00466613          	ori	a2,a2,4
    167a:	45f9                	li	a1,30
    167c:	a090                	sb	a2,0(s1)
    167e:	c9aff0ef          	jal	ra,b18 <ETH_WritePHYRegister>
    1682:	01248023          	sb	s2,0(s1)
    1686:	bfa5                	j	15fe <WCHNET_LinkProcess+0xf0>
        if(TRDetectStep == 1)
    1688:	00094703          	lbu	a4,0(s2)
    168c:	4785                	li	a5,1
    168e:	08f71263          	bne	a4,a5,1712 <WCHNET_LinkProcess+0x204>
            TRDetectCnt++;
    1692:	88518713          	addi	a4,gp,-1915 # 200000a5 <TRDetectCnt>
    1696:	231c                	lbu	a5,0(a4)
            if(TRDetectCnt == 8)
    1698:	46a1                	li	a3,8
    169a:	208a                	lhu	a0,0(s1)
            TRDetectCnt++;
    169c:	0785                	addi	a5,a5,1
    169e:	0ff7f793          	andi	a5,a5,255
    16a2:	a31c                	sb	a5,0(a4)
            if(TRDetectCnt == 8)
    16a4:	00d79b63          	bne	a5,a3,16ba <WCHNET_LinkProcess+0x1ac>
                TRDetectCnt = 0;
    16a8:	00070023          	sb	zero,0(a4)
                TRDetectStep = 0;
    16ac:	00090023          	sb	zero,0(s2)
                ETH_WritePHYRegister(gPHYAddress, PHY_MDIX, PHY_PN_SWITCH_AUTO);
    16b0:	4621                	li	a2,8
    16b2:	45f9                	li	a1,30
                    PHY_LINK_RESET( );
    16b4:	c64ff0ef          	jal	ra,b18 <ETH_WritePHYRegister>
    16b8:	bded                	j	15b2 <WCHNET_LinkProcess+0xa4>
            PHY_TR_SWITCH();
    16ba:	45f9                	li	a1,30
    16bc:	c04ff0ef          	jal	ra,ac0 <ETH_ReadPHYRegister>
    16c0:	ffc57613          	andi	a2,a0,-4
    16c4:	0642                	slli	a2,a2,0x10
    16c6:	00157793          	andi	a5,a0,1
    16ca:	8241                	srli	a2,a2,0x10
    16cc:	c3a1                	beqz	a5,170c <WCHNET_LinkProcess+0x1fe>
    16ce:	00266613          	ori	a2,a2,2
    16d2:	200a                	lhu	a0,0(s0)
    16d4:	45f9                	li	a1,30
    16d6:	c42ff0ef          	jal	ra,b18 <ETH_WritePHYRegister>
    16da:	200a                	lhu	a0,0(s0)
    16dc:	4581                	li	a1,0
    16de:	be2ff0ef          	jal	ra,ac0 <ETH_ReadPHYRegister>
    16e2:	ffe57613          	andi	a2,a0,-2
    16e6:	0642                	slli	a2,a2,0x10
    16e8:	200a                	lhu	a0,0(s0)
    16ea:	8241                	srli	a2,a2,0x10
    16ec:	20066613          	ori	a2,a2,512
    16f0:	4581                	li	a1,0
    16f2:	c26ff0ef          	jal	ra,b18 <ETH_WritePHYRegister>
    16f6:	200a                	lhu	a0,0(s0)
    16f8:	4581                	li	a1,0
    16fa:	bc6ff0ef          	jal	ra,ac0 <ETH_ReadPHYRegister>
    16fe:	20356613          	ori	a2,a0,515
    1702:	0642                	slli	a2,a2,0x10
    1704:	8241                	srli	a2,a2,0x10
    1706:	4581                	li	a1,0
    1708:	200a                	lhu	a0,0(s0)
    170a:	b76d                	j	16b4 <WCHNET_LinkProcess+0x1a6>
    170c:	00166613          	ori	a2,a2,1
    1710:	b7c9                	j	16d2 <WCHNET_LinkProcess+0x1c4>
        if( phyLinkStatus == PHY_LINK_WAIT_SUC )
    1712:	89418413          	addi	s0,gp,-1900 # 200000b4 <phyLinkCnt>
    1716:	00044a83          	lbu	s5,0(s0) # 40028000 <_eusrstack+0x20018000>
    171a:	89618a13          	addi	s4,gp,-1898 # 200000b6 <phyLinkStatus>
    171e:	000a4683          	lbu	a3,0(s4)
    1722:	001a8793          	addi	a5,s5,1
    1726:	08000713          	li	a4,128
    172a:	0ff7f793          	andi	a5,a5,255
    172e:	06e69463          	bne	a3,a4,1796 <WCHNET_LinkProcess+0x288>
            if(phyLinkCnt++ == 15 )
    1732:	473d                	li	a4,15
    1734:	00ea8463          	beq	s5,a4,173c <WCHNET_LinkProcess+0x22e>
                if(phyLinkCnt++ == 15 )
    1738:	a01c                	sb	a5,0(s0)
    173a:	bda5                	j	15b2 <WCHNET_LinkProcess+0xa4>
                PHY_PN_SWITCH(PHY_PN_SWITCH_AUTO);
    173c:	208a                	lhu	a0,0(s1)
                phyLinkCnt = 0;
    173e:	00040023          	sb	zero,0(s0)
                TRDetectStep = 0;
    1742:	00090023          	sb	zero,0(s2)
                PHY_PN_SWITCH(PHY_PN_SWITCH_AUTO);
    1746:	81d18413          	addi	s0,gp,-2019 # 2000003d <phyPN>
    174a:	4921                	li	s2,8
    174c:	4621                	li	a2,8
    174e:	45f9                	li	a1,30
                phySucCnt = 0;
    1750:	8a018123          	sb	zero,-1886(gp) # 200000c2 <phySucCnt>
                phyLinkStatus = PHY_LINK_INIT;
    1754:	000a0023          	sb	zero,0(s4)
                PHY_PN_SWITCH(PHY_PN_SWITCH_AUTO);
    1758:	01240023          	sb	s2,0(s0)
    175c:	bbcff0ef          	jal	ra,b18 <ETH_WritePHYRegister>
    1760:	01240023          	sb	s2,0(s0)
                    PHY_PN_SWITCH(PHY_PN_SWITCH_AUTO);
    1764:	208a                	lhu	a0,0(s1)
    1766:	4581                	li	a1,0
    1768:	b58ff0ef          	jal	ra,ac0 <ETH_ReadPHYRegister>
    176c:	ffe57613          	andi	a2,a0,-2
    1770:	0642                	slli	a2,a2,0x10
    1772:	208a                	lhu	a0,0(s1)
    1774:	8241                	srli	a2,a2,0x10
    1776:	20066613          	ori	a2,a2,512
    177a:	4581                	li	a1,0
    177c:	b9cff0ef          	jal	ra,b18 <ETH_WritePHYRegister>
    1780:	208a                	lhu	a0,0(s1)
    1782:	4581                	li	a1,0
    1784:	b3cff0ef          	jal	ra,ac0 <ETH_ReadPHYRegister>
    1788:	20356613          	ori	a2,a0,515
    178c:	0642                	slli	a2,a2,0x10
    178e:	8241                	srli	a2,a2,0x10
    1790:	4581                	li	a1,0
                    PHY_LINK_RESET( );
    1792:	208a                	lhu	a0,0(s1)
    1794:	b705                	j	16b4 <WCHNET_LinkProcess+0x1a6>
            if( phyPN == PHY_PN_SWITCH_P )
    1796:	81d18993          	addi	s3,gp,-2019 # 2000003d <phyPN>
    179a:	0009c703          	lbu	a4,0(s3)
    179e:	e71d                	bnez	a4,17cc <WCHNET_LinkProcess+0x2be>
                if(phyLinkCnt++ == 4 )
    17a0:	4711                	li	a4,4
    17a2:	f8ea9be3          	bne	s5,a4,1738 <WCHNET_LinkProcess+0x22a>
                    PHY_PN_SWITCH(PHY_PN_SWITCH_N);
    17a6:	208a                	lhu	a0,0(s1)
    17a8:	45f9                	li	a1,30
                    phyLinkCnt = 0;
    17aa:	00040023          	sb	zero,0(s0)
                    PHY_PN_SWITCH(PHY_PN_SWITCH_N);
    17ae:	b12ff0ef          	jal	ra,ac0 <ETH_ReadPHYRegister>
    17b2:	0f357613          	andi	a2,a0,243
    17b6:	208a                	lhu	a0,0(s1)
    17b8:	00466613          	ori	a2,a2,4
    17bc:	45f9                	li	a1,30
    17be:	00c98023          	sb	a2,0(s3)
    17c2:	b56ff0ef          	jal	ra,b18 <ETH_WritePHYRegister>
    17c6:	01598023          	sb	s5,0(s3)
    17ca:	bf69                	j	1764 <WCHNET_LinkProcess+0x256>
            else if( phyPN == PHY_PN_SWITCH_N )
    17cc:	4691                	li	a3,4
    17ce:	02d71863          	bne	a4,a3,17fe <WCHNET_LinkProcess+0x2f0>
                if(phyLinkCnt++ == 15 )
    17d2:	473d                	li	a4,15
    17d4:	f6ea92e3          	bne	s5,a4,1738 <WCHNET_LinkProcess+0x22a>
                    PHY_PN_SWITCH(PHY_PN_SWITCH_AUTO);
    17d8:	208a                	lhu	a0,0(s1)
                    phyLinkCnt = 0;
    17da:	00040023          	sb	zero,0(s0)
                    PHY_PN_SWITCH(PHY_PN_SWITCH_AUTO);
    17de:	4421                	li	s0,8
    17e0:	4621                	li	a2,8
    17e2:	45f9                	li	a1,30
                    phySucCnt = 0;
    17e4:	8a018123          	sb	zero,-1886(gp) # 200000c2 <phySucCnt>
                    TRDetectStep = 0;
    17e8:	00090023          	sb	zero,0(s2)
                    phyLinkStatus = PHY_LINK_INIT;
    17ec:	000a0023          	sb	zero,0(s4)
                    PHY_PN_SWITCH(PHY_PN_SWITCH_AUTO);
    17f0:	00898023          	sb	s0,0(s3)
    17f4:	b24ff0ef          	jal	ra,b18 <ETH_WritePHYRegister>
    17f8:	00898023          	sb	s0,0(s3)
    17fc:	b7a5                	j	1764 <WCHNET_LinkProcess+0x256>
                if(phyLinkCnt++ == (5000 / PHY_LINK_TASK_PERIOD))
    17fe:	a01c                	sb	a5,0(s0)
    1800:	06400793          	li	a5,100
    1804:	dafa97e3          	bne	s5,a5,15b2 <WCHNET_LinkProcess+0xa4>
                    PHY_LINK_RESET( );
    1808:	208a                	lhu	a0,0(s1)
    180a:	6621                	lui	a2,0x8
    180c:	4581                	li	a1,0
    180e:	b0aff0ef          	jal	ra,b18 <ETH_WritePHYRegister>
    1812:	8a0180a3          	sb	zero,-1887(gp) # 200000c1 <phyStatus>
    1816:	8a018123          	sb	zero,-1886(gp) # 200000c2 <phySucCnt>
    181a:	86018e23          	sb	zero,-1924(gp) # 2000009c <PhyPolarityDetect>
    181e:	47a1                	li	a5,8
    1820:	00040023          	sb	zero,0(s0)
    1824:	00090023          	sb	zero,0(s2)
    1828:	000a0023          	sb	zero,0(s4)
    182c:	00f98023          	sb	a5,0(s3)
    1830:	4621                	li	a2,8
    1832:	45f9                	li	a1,30
    1834:	bfb9                	j	1792 <WCHNET_LinkProcess+0x284>

00001836 <WCHNET_HandlePhyNegotiation>:
{
    1836:	9bbfe2ef          	jal	t0,1f0 <__riscv_save_0>
    if(phyLinkReset)              /* After the PHY link is disconnected, wait 500ms before turning on the PHY clock*/
    183a:	89518793          	addi	a5,gp,-1899 # 200000b5 <phyLinkReset>
    183e:	2398                	lbu	a4,0(a5)
    1840:	0ff77713          	andi	a4,a4,255
    1844:	c32d                	beqz	a4,18a6 <WCHNET_HandlePhyNegotiation+0x70>
        if( LocalTime - phyLinkTime >= 500 )
    1846:	8781a703          	lw	a4,-1928(gp) # 20000098 <LocalTime>
    184a:	8981a683          	lw	a3,-1896(gp) # 200000b8 <phyLinkTime>
    184e:	8f15                	sub	a4,a4,a3
    1850:	1f300693          	li	a3,499
    1854:	04e6f763          	bgeu	a3,a4,18a2 <WCHNET_HandlePhyNegotiation+0x6c>
            EXTEN->EXTEN_CTR |= EXTEN_ETH_10M_EN;
    1858:	40024737          	lui	a4,0x40024
            phyLinkReset = 0;
    185c:	00078023          	sb	zero,0(a5)
            EXTEN->EXTEN_CTR |= EXTEN_ETH_10M_EN;
    1860:	80072783          	lw	a5,-2048(a4) # 40023800 <_eusrstack+0x20013800>
            PHY_LINK_RESET();
    1864:	88818413          	addi	s0,gp,-1912 # 200000a8 <gPHYAddress>
    1868:	200a                	lhu	a0,0(s0)
            EXTEN->EXTEN_CTR |= EXTEN_ETH_10M_EN;
    186a:	0047e793          	ori	a5,a5,4
    186e:	80f72023          	sw	a5,-2048(a4)
            PHY_LINK_RESET();
    1872:	6621                	lui	a2,0x8
    1874:	4581                	li	a1,0
    1876:	aa2ff0ef          	jal	ra,b18 <ETH_WritePHYRegister>
    187a:	8a0180a3          	sb	zero,-1887(gp) # 200000c1 <phyStatus>
    187e:	8a018123          	sb	zero,-1886(gp) # 200000c2 <phySucCnt>
    1882:	88018a23          	sb	zero,-1900(gp) # 200000b4 <phyLinkCnt>
    1886:	88018323          	sb	zero,-1914(gp) # 200000a6 <TRDetectStep>
    188a:	200a                	lhu	a0,0(s0)
    188c:	86018e23          	sb	zero,-1924(gp) # 2000009c <PhyPolarityDetect>
    1890:	88018b23          	sb	zero,-1898(gp) # 200000b6 <phyLinkStatus>
    1894:	4721                	li	a4,8
    1896:	4621                	li	a2,8
    1898:	45f9                	li	a1,30
    189a:	80e18ea3          	sb	a4,-2019(gp) # 2000003d <phyPN>
    189e:	a7aff0ef          	jal	ra,b18 <ETH_WritePHYRegister>
}
    18a2:	973fe06f          	j	214 <__riscv_restore_0>
        if( !phyStatus )          /* Handling PHY Negotiation Exceptions */
    18a6:	8a118913          	addi	s2,gp,-1887 # 200000c1 <phyStatus>
    18aa:	00094783          	lbu	a5,0(s2)
    18ae:	88418413          	addi	s0,gp,-1916 # 200000a4 <ReInitMACFlag>
    18b2:	e7d9                	bnez	a5,1940 <WCHNET_HandlePhyNegotiation+0x10a>
            ACCELERATE_LINK_PROCESS();
    18b4:	8861c683          	lbu	a3,-1914(gp) # 200000a6 <TRDetectStep>
    18b8:	4705                	li	a4,1
    18ba:	88618913          	addi	s2,gp,-1914 # 200000a6 <TRDetectStep>
    18be:	81c18493          	addi	s1,gp,-2020 # 2000003c <LinkTaskPeriod>
    18c2:	00d76b63          	bltu	a4,a3,18d8 <WCHNET_HandlePhyNegotiation+0xa2>
    18c6:	8881d503          	lhu	a0,-1912(gp) # 200000a8 <gPHYAddress>
    18ca:	4595                	li	a1,5
    18cc:	9f4ff0ef          	jal	ra,ac0 <ETH_ReadPHYRegister>
    18d0:	897d                	andi	a0,a0,31
    18d2:	c119                	beqz	a0,18d8 <WCHNET_HandlePhyNegotiation+0xa2>
    18d4:	00048023          	sb	zero,0(s1)
            if( LocalTime - phyLinkTime >= LinkTaskPeriod )
    18d8:	87818793          	addi	a5,gp,-1928 # 20000098 <LocalTime>
    18dc:	4390                	lw	a2,0(a5)
    18de:	89818693          	addi	a3,gp,-1896 # 200000b8 <phyLinkTime>
    18e2:	4294                	lw	a3,0(a3)
    18e4:	208c                	lbu	a1,0(s1)
    18e6:	8e15                	sub	a2,a2,a3
    18e8:	87818693          	addi	a3,gp,-1928 # 20000098 <LocalTime>
    18ec:	89818713          	addi	a4,gp,-1896 # 200000b8 <phyLinkTime>
    18f0:	04b66063          	bltu	a2,a1,1930 <WCHNET_HandlePhyNegotiation+0xfa>
                UPDATE_LINKTASKPERIOD();
    18f4:	00094603          	lbu	a2,0(s2)
    18f8:	4785                	li	a5,1
    18fa:	04f61063          	bne	a2,a5,193a <WCHNET_HandlePhyNegotiation+0x104>
    18fe:	88018613          	addi	a2,gp,-1920 # 200000a0 <RandVal>
    1902:	421c                	lw	a5,0(a2)
    1904:	000345b7          	lui	a1,0x34
    1908:	40158593          	addi	a1,a1,1025 # 34401 <_data_lma+0x2abb9>
    190c:	02b787b3          	mul	a5,a5,a1
    1910:	0026a5b7          	lui	a1,0x26a
    1914:	ec958593          	addi	a1,a1,-311 # 269ec9 <_data_lma+0x260681>
    1918:	97ae                	add	a5,a5,a1
    191a:	c21c                	sw	a5,0(a2)
    191c:	06400613          	li	a2,100
    1920:	02c7f7b3          	remu	a5,a5,a2
    1924:	03278793          	addi	a5,a5,50
    1928:	a09c                	sb	a5,0(s1)
                phyLinkTime = LocalTime;
    192a:	429c                	lw	a5,0(a3)
    192c:	c31c                	sw	a5,0(a4)
                WCHNET_LinkProcess( );
    192e:	36c5                	jal	150e <WCHNET_LinkProcess>
            if(ReInitMACFlag) ReInitMACFlag = 0;
    1930:	201c                	lbu	a5,0(s0)
    1932:	dba5                	beqz	a5,18a2 <WCHNET_HandlePhyNegotiation+0x6c>
    1934:	00040023          	sb	zero,0(s0)
    1938:	b7ad                	j	18a2 <WCHNET_HandlePhyNegotiation+0x6c>
                UPDATE_LINKTASKPERIOD();
    193a:	03200793          	li	a5,50
    193e:	b7ed                	j	1928 <WCHNET_HandlePhyNegotiation+0xf2>
            if(ReInitMACFlag)
    1940:	201c                	lbu	a5,0(s0)
    1942:	87c18493          	addi	s1,gp,-1924 # 2000009c <PhyPolarityDetect>
    1946:	c3a5                	beqz	a5,19a6 <WCHNET_HandlePhyNegotiation+0x170>
                if( LocalTime - phyLinkTime >= 5 * PHY_LINK_TASK_PERIOD ){
    1948:	8781a783          	lw	a5,-1928(gp) # 20000098 <LocalTime>
    194c:	8981a703          	lw	a4,-1896(gp) # 200000b8 <phyLinkTime>
    1950:	8f99                	sub	a5,a5,a4
    1952:	0f900713          	li	a4,249
    1956:	04f77863          	bgeu	a4,a5,19a6 <WCHNET_HandlePhyNegotiation+0x170>
                    ReInitMACFlag = 0;
    195a:	00040023          	sb	zero,0(s0)
                    phy_stat = ETH_ReadPHYRegister( gPHYAddress, PHY_BMSR);
    195e:	88818413          	addi	s0,gp,-1912 # 200000a8 <gPHYAddress>
    1962:	200a                	lhu	a0,0(s0)
    1964:	4585                	li	a1,1
    1966:	95aff0ef          	jal	ra,ac0 <ETH_ReadPHYRegister>
                    if((phy_stat&PHY_Linked_Status) == 0)
    196a:	00457793          	andi	a5,a0,4
    196e:	ef85                	bnez	a5,19a6 <WCHNET_HandlePhyNegotiation+0x170>
                        WCHNET_PhyStatus( phy_stat );
    1970:	715000ef          	jal	ra,2884 <WCHNET_PhyStatus>
                        PHY_LINK_RESET();
    1974:	200a                	lhu	a0,0(s0)
    1976:	6621                	lui	a2,0x8
    1978:	4581                	li	a1,0
    197a:	99eff0ef          	jal	ra,b18 <ETH_WritePHYRegister>
    197e:	8a018123          	sb	zero,-1886(gp) # 200000c2 <phySucCnt>
    1982:	88018a23          	sb	zero,-1900(gp) # 200000b4 <phyLinkCnt>
    1986:	200a                	lhu	a0,0(s0)
    1988:	88018323          	sb	zero,-1914(gp) # 200000a6 <TRDetectStep>
    198c:	88018b23          	sb	zero,-1898(gp) # 200000b6 <phyLinkStatus>
    1990:	4721                	li	a4,8
    1992:	4621                	li	a2,8
    1994:	45f9                	li	a1,30
    1996:	00090023          	sb	zero,0(s2)
    199a:	00048023          	sb	zero,0(s1)
    199e:	80e18ea3          	sb	a4,-2019(gp) # 2000003d <phyPN>
    19a2:	976ff0ef          	jal	ra,b18 <ETH_WritePHYRegister>
            if(PhyPolarityDetect)
    19a6:	209c                	lbu	a5,0(s1)
    19a8:	ee078de3          	beqz	a5,18a2 <WCHNET_HandlePhyNegotiation+0x6c>
                if( LocalTime - LinkSuccTime >= 2 * PHY_LINK_TASK_PERIOD )
    19ac:	8741a703          	lw	a4,-1932(gp) # 20000094 <LinkSuccTime>
    19b0:	8781a783          	lw	a5,-1928(gp) # 20000098 <LocalTime>
    19b4:	8f99                	sub	a5,a5,a4
    19b6:	06300713          	li	a4,99
    19ba:	eef774e3          	bgeu	a4,a5,18a2 <WCHNET_HandlePhyNegotiation+0x6c>
                    WCHNET_PhyPNProcess();
    19be:	aa9ff0ef          	jal	ra,1466 <WCHNET_PhyPNProcess>
}
    19c2:	b5c5                	j	18a2 <WCHNET_HandlePhyNegotiation+0x6c>

000019c4 <ETH_LedConfiguration>:
{
    19c4:	82dfe2ef          	jal	t0,1f0 <__riscv_save_0>
    19c8:	1141                	addi	sp,sp,-16
    RCC_APB2PeriphClockCmd(RCC_APB2Periph_GPIOC,ENABLE);
    19ca:	4585                	li	a1,1
    19cc:	4541                	li	a0,16
    GPIO_InitTypeDef  GPIO={0};
    19ce:	c202                	sw	zero,4(sp)
    19d0:	c402                	sw	zero,8(sp)
    19d2:	c602                	sw	zero,12(sp)
    RCC_APB2PeriphClockCmd(RCC_APB2Periph_GPIOC,ENABLE);
    19d4:	f7eff0ef          	jal	ra,1152 <RCC_APB2PeriphClockCmd>
    GPIO.GPIO_Pin = GPIO_Pin_0|GPIO_Pin_1;
    19d8:	478d                	li	a5,3
    19da:	827c                	sh	a5,4(sp)
    GPIO.GPIO_Mode = GPIO_Mode_Out_PP;
    19dc:	47c1                	li	a5,16
    19de:	c63e                	sw	a5,12(sp)
    GPIO_Init(GPIOC,&GPIO);
    19e0:	004c                	addi	a1,sp,4
    GPIO.GPIO_Speed = GPIO_Speed_50MHz;
    19e2:	478d                	li	a5,3
    GPIO_Init(GPIOC,&GPIO);
    19e4:	40011537          	lui	a0,0x40011
    GPIO.GPIO_Speed = GPIO_Speed_50MHz;
    19e8:	c43e                	sw	a5,8(sp)
    GPIO_Init(GPIOC,&GPIO);
    19ea:	a8eff0ef          	jal	ra,c78 <GPIO_Init>
        GPIO_SetBits(GPIOC, GPIO_Pin_1);
    19ee:	4589                	li	a1,2
    19f0:	40011537          	lui	a0,0x40011
    19f4:	b44ff0ef          	jal	ra,d38 <GPIO_SetBits>
        GPIO_SetBits(GPIOC, GPIO_Pin_0);
    19f8:	4585                	li	a1,1
    19fa:	40011537          	lui	a0,0x40011
    19fe:	b3aff0ef          	jal	ra,d38 <GPIO_SetBits>
}
    1a02:	0141                	addi	sp,sp,16
    1a04:	811fe06f          	j	214 <__riscv_restore_0>

00001a08 <ETH_SetClock>:
{
    1a08:	fe8fe2ef          	jal	t0,1f0 <__riscv_save_0>
    RCC_PLL3Cmd(DISABLE);
    1a0c:	4501                	li	a0,0
    1a0e:	fd0ff0ef          	jal	ra,11de <RCC_PLL3Cmd>
    RCC_PREDIV2Config(RCC_PREDIV2_Div2);                             /* HSE = 8M */
    1a12:	4541                	li	a0,16
    1a14:	fa8ff0ef          	jal	ra,11bc <RCC_PREDIV2Config>
    RCC_PLL3Config(RCC_PLL3Mul_15);                                  /* 4M*15 = 60MHz */
    1a18:	6535                	lui	a0,0xd
    1a1a:	fb2ff0ef          	jal	ra,11cc <RCC_PLL3Config>
    RCC_PLL3Cmd(ENABLE);
    1a1e:	4505                	li	a0,1
    1a20:	fbeff0ef          	jal	ra,11de <RCC_PLL3Cmd>
    while(RESET == RCC_GetFlagStatus(RCC_FLAG_PLL3RDY));
    1a24:	03d00513          	li	a0,61
    1a28:	f66ff0ef          	jal	ra,118e <RCC_GetFlagStatus>
    1a2c:	dd65                	beqz	a0,1a24 <ETH_SetClock+0x1c>
}
    1a2e:	fe6fe06f          	j	214 <__riscv_restore_0>

00001a32 <ETH_LinkUpCfg>:
{
    1a32:	fbefe2ef          	jal	t0,1f0 <__riscv_save_0>
    WCHNET_PhyStatus( regval );
    1a36:	64f000ef          	jal	ra,2884 <WCHNET_PhyStatus>
    ETH->MACCR &= ~(ETH_Speed_100M|ETH_Speed_1000M);
    1a3a:	400287b7          	lui	a5,0x40028
    1a3e:	4398                	lw	a4,0(a5)
    1a40:	76d1                	lui	a3,0xffff4
    1a42:	16fd                	addi	a3,a3,-1
    1a44:	8f75                	and	a4,a4,a3
    1a46:	c398                	sw	a4,0(a5)
    phyStatus = PHY_Linked_Status;
    1a48:	4691                	li	a3,4
    1a4a:	8ad180a3          	sb	a3,-1887(gp) # 200000c1 <phyStatus>
    ETH->MACFFR |= (ETH_ReceiveAll_Enable | ETH_PromiscuousMode_Enable);
    1a4e:	43d8                	lw	a4,4(a5)
    1a50:	800006b7          	lui	a3,0x80000
    1a54:	0685                	addi	a3,a3,1
    1a56:	8f55                	or	a4,a4,a3
    1a58:	c3d8                	sw	a4,4(a5)
    ETH->MMCCR |= ETH_MMCCR_CR;             //Counters Reset
    1a5a:	1007a703          	lw	a4,256(a5) # 40028100 <_eusrstack+0x20018100>
    1a5e:	00176713          	ori	a4,a4,1
    1a62:	10e7a023          	sw	a4,256(a5)
    while(ETH->MMCCR & ETH_MMCCR_CR);       //Wait for counters reset to complete
    1a66:	40028737          	lui	a4,0x40028
    1a6a:	10072783          	lw	a5,256(a4) # 40028100 <_eusrstack+0x20018100>
    1a6e:	8b85                	andi	a5,a5,1
    1a70:	ffed                	bnez	a5,1a6a <ETH_LinkUpCfg+0x38>
    PhyPolarityDetect = 1;
    1a72:	4705                	li	a4,1
    1a74:	86e18e23          	sb	a4,-1924(gp) # 2000009c <PhyPolarityDetect>
    LinkSuccTime = LocalTime;
    1a78:	8781a703          	lw	a4,-1928(gp) # 20000098 <LocalTime>
    1a7c:	86e1aa23          	sw	a4,-1932(gp) # 20000094 <LinkSuccTime>
    ETH_Start( );
    1a80:	99eff0ef          	jal	ra,c1e <ETH_Start>
}
    1a84:	f90fe06f          	j	214 <__riscv_restore_0>

00001a88 <ETH_PHYLink>:
{
    1a88:	f4efe2ef          	jal	t0,1d6 <__riscv_save_4>
    phy_bsr = ETH_ReadPHYRegister( gPHYAddress, PHY_BSR);
    1a8c:	88818413          	addi	s0,gp,-1912 # 200000a8 <gPHYAddress>
    1a90:	200a                	lhu	a0,0(s0)
    1a92:	4585                	li	a1,1
    1a94:	82cff0ef          	jal	ra,ac0 <ETH_ReadPHYRegister>
    1a98:	84aa                	mv	s1,a0
    phy_bcr = ETH_ReadPHYRegister( gPHYAddress, PHY_BCR);
    1a9a:	200a                	lhu	a0,0(s0)
    1a9c:	4581                	li	a1,0
    1a9e:	822ff0ef          	jal	ra,ac0 <ETH_ReadPHYRegister>
    1aa2:	89aa                	mv	s3,a0
    phy_anlpar = ETH_ReadPHYRegister( gPHYAddress, PHY_ANLPAR);
    1aa4:	200a                	lhu	a0,0(s0)
    1aa6:	4595                	li	a1,5
    1aa8:	818ff0ef          	jal	ra,ac0 <ETH_ReadPHYRegister>
    if(phy_bsr & PHY_Linked_Status)   //LinkUp
    1aac:	0044f793          	andi	a5,s1,4
    1ab0:	10078c63          	beqz	a5,1bc8 <ETH_PHYLink+0x140>
        if(phy_bcr & PHY_AutoNegotiation)   //determine whether auto-negotiation is enable
    1ab4:	01399793          	slli	a5,s3,0x13
    1ab8:	1007d063          	bgez	a5,1bb8 <ETH_PHYLink+0x130>
    1abc:	892a                	mv	s2,a0
            if(phy_anlpar == 0)
    1abe:	0204f793          	andi	a5,s1,32
    1ac2:	ed51                	bnez	a0,1b5e <ETH_PHYLink+0xd6>
                if(phy_bsr & PHY_AutoNego_Complete)
    1ac4:	c3bd                	beqz	a5,1b2a <ETH_PHYLink+0xa2>
                    ETH->MACCR &= ~ETH_Mode_FullDuplex;
    1ac6:	400286b7          	lui	a3,0x40028
    1aca:	429c                	lw	a5,0(a3)
    1acc:	777d                	lui	a4,0xfffff
    1ace:	7ff70713          	addi	a4,a4,2047 # fffff7ff <_eusrstack+0xdffef7ff>
    1ad2:	8ff9                	and	a5,a5,a4
    1ad4:	c29c                	sw	a5,0(a3)
                    ETH_LinkUpCfg(phy_bsr);
    1ad6:	8526                	mv	a0,s1
    1ad8:	3fa9                	jal	1a32 <ETH_LinkUpCfg>
                    if((ChipId & 0xf0) == 0x20)
    1ada:	86c1a783          	lw	a5,-1940(gp) # 2000008c <ChipId>
    1ade:	02000713          	li	a4,32
    1ae2:	0f07f793          	andi	a5,a5,240
    1ae6:	02e79063          	bne	a5,a4,1b06 <ETH_PHYLink+0x7e>
                        if(phyNegoStat & TURN_PN_POLARITY)
    1aea:	200a                	lhu	a0,0(s0)
    1aec:	8a018413          	addi	s0,gp,-1888 # 200000c0 <phyNegoStat>
    1af0:	201c                	lbu	a5,0(s0)
    1af2:	8b89                	andi	a5,a5,2
    1af4:	c395                	beqz	a5,1b18 <ETH_PHYLink+0x90>
                            ETH_WritePHYRegister(gPHYAddress, PHY_MDIX, PHY_PN_SWITCH_N);
    1af6:	4611                	li	a2,4
    1af8:	45f9                	li	a1,30
    1afa:	81eff0ef          	jal	ra,b18 <ETH_WritePHYRegister>
                        phyNegoLinkTime = LocalTime;
    1afe:	8781a703          	lw	a4,-1928(gp) # 20000098 <LocalTime>
    1b02:	88e1ae23          	sw	a4,-1892(gp) # 200000bc <phyNegoLinkTime>
    DuplexMode = (ETH->MACCR >> 11) & 0x01;  /* Record duplex mode*/
    1b06:	400287b7          	lui	a5,0x40028
    1b0a:	439c                	lw	a5,0(a5)
    1b0c:	83ad                	srli	a5,a5,0xb
    1b0e:	8b85                	andi	a5,a5,1
    1b10:	86f18823          	sb	a5,-1936(gp) # 20000090 <DuplexMode>
}
    1b14:	ef6fe06f          	j	20a <__riscv_restore_4>
                            ETH_WritePHYRegister(gPHYAddress, PHY_MDIX, PHY_PN_SWITCH_P);
    1b18:	4601                	li	a2,0
    1b1a:	45f9                	li	a1,30
    1b1c:	ffdfe0ef          	jal	ra,b18 <ETH_WritePHYRegister>
                            phyNegoStat |= LAST_NEGO_STAT;
    1b20:	201c                	lbu	a5,0(s0)
    1b22:	0017e793          	ori	a5,a5,1
    1b26:	a01c                	sb	a5,0(s0)
    1b28:	bfd9                	j	1afe <ETH_PHYLink+0x76>
                    PHY_LINK_RESET();
    1b2a:	200a                	lhu	a0,0(s0)
    1b2c:	6621                	lui	a2,0x8
    1b2e:	4581                	li	a1,0
    1b30:	fe9fe0ef          	jal	ra,b18 <ETH_WritePHYRegister>
    1b34:	8a0180a3          	sb	zero,-1887(gp) # 200000c1 <phyStatus>
    1b38:	8a018123          	sb	zero,-1886(gp) # 200000c2 <phySucCnt>
    1b3c:	88018a23          	sb	zero,-1900(gp) # 200000b4 <phyLinkCnt>
    1b40:	88018323          	sb	zero,-1914(gp) # 200000a6 <TRDetectStep>
    1b44:	200a                	lhu	a0,0(s0)
    1b46:	86018e23          	sb	zero,-1924(gp) # 2000009c <PhyPolarityDetect>
    1b4a:	4721                	li	a4,8
    1b4c:	88018b23          	sb	zero,-1898(gp) # 200000b6 <phyLinkStatus>
    1b50:	4621                	li	a2,8
    1b52:	45f9                	li	a1,30
    1b54:	80e18ea3          	sb	a4,-2019(gp) # 2000003d <phyPN>
    1b58:	fc1fe0ef          	jal	ra,b18 <ETH_WritePHYRegister>
    1b5c:	b76d                	j	1b06 <ETH_PHYLink+0x7e>
                phyNegoStat = 0;
    1b5e:	8a018023          	sb	zero,-1888(gp) # 200000c0 <phyNegoStat>
                if(phy_bsr & PHY_AutoNego_Complete)
    1b62:	cb8d                	beqz	a5,1b94 <ETH_PHYLink+0x10c>
                    phy_stat = ETH_ReadPHYRegister( gPHYAddress, PHY_STATUS );
    1b64:	200a                	lhu	a0,0(s0)
    1b66:	45c1                	li	a1,16
    1b68:	f59fe0ef          	jal	ra,ac0 <ETH_ReadPHYRegister>
                    if( phy_stat & (1<<2) )
    1b6c:	8911                	andi	a0,a0,4
                        ETH->MACCR |= ETH_Mode_FullDuplex;
    1b6e:	400286b7          	lui	a3,0x40028
                    if( phy_stat & (1<<2) )
    1b72:	e901                	bnez	a0,1b82 <ETH_PHYLink+0xfa>
                        if( (phy_anlpar&PHY_ANLPAR_SELECTOR_FIELD) != PHY_ANLPAR_SELECTOR_VALUE )
    1b74:	01f97913          	andi	s2,s2,31
    1b78:	4785                	li	a5,1
                            ETH->MACCR |= ETH_Mode_FullDuplex;
    1b7a:	400286b7          	lui	a3,0x40028
                        if( (phy_anlpar&PHY_ANLPAR_SELECTOR_FIELD) != PHY_ANLPAR_SELECTOR_VALUE )
    1b7e:	02f90f63          	beq	s2,a5,1bbc <ETH_PHYLink+0x134>
                            ETH->MACCR |= ETH_Mode_FullDuplex;
    1b82:	429c                	lw	a5,0(a3)
    1b84:	6705                	lui	a4,0x1
    1b86:	80070713          	addi	a4,a4,-2048 # 800 <__stack_size>
    1b8a:	8fd9                	or	a5,a5,a4
                            ETH->MACCR &= ~ETH_Mode_FullDuplex;
    1b8c:	c29c                	sw	a5,0(a3)
                    ETH_LinkUpCfg(phy_bsr);
    1b8e:	8526                	mv	a0,s1
    1b90:	354d                	jal	1a32 <ETH_LinkUpCfg>
    1b92:	bf95                	j	1b06 <ETH_PHYLink+0x7e>
                    WCHNET_PhyStatus( phy_bsr );
    1b94:	8526                	mv	a0,s1
    1b96:	4ef000ef          	jal	ra,2884 <WCHNET_PhyStatus>
                    EXTEN->EXTEN_CTR &= ~EXTEN_ETH_10M_EN;
    1b9a:	40024737          	lui	a4,0x40024
    1b9e:	80072783          	lw	a5,-2048(a4) # 40023800 <_eusrstack+0x20013800>
    1ba2:	9bed                	andi	a5,a5,-5
    1ba4:	80f72023          	sw	a5,-2048(a4)
                    phyLinkReset = 1;
    1ba8:	4705                	li	a4,1
    1baa:	88e18aa3          	sb	a4,-1899(gp) # 200000b5 <phyLinkReset>
                    phyLinkTime = LocalTime;
    1bae:	8781a703          	lw	a4,-1928(gp) # 20000098 <LocalTime>
    1bb2:	88e1ac23          	sw	a4,-1896(gp) # 200000b8 <phyLinkTime>
    1bb6:	bf81                	j	1b06 <ETH_PHYLink+0x7e>
            ETH->MACCR &= ~ETH_Mode_FullDuplex;
    1bb8:	400286b7          	lui	a3,0x40028
                            ETH->MACCR &= ~ETH_Mode_FullDuplex;
    1bbc:	429c                	lw	a5,0(a3)
    1bbe:	777d                	lui	a4,0xfffff
    1bc0:	7ff70713          	addi	a4,a4,2047 # fffff7ff <_eusrstack+0xdffef7ff>
    1bc4:	8ff9                	and	a5,a5,a4
    1bc6:	b7d9                	j	1b8c <ETH_PHYLink+0x104>
        WCHNET_PhyStatus( phy_bsr );
    1bc8:	8526                	mv	a0,s1
    1bca:	4bb000ef          	jal	ra,2884 <WCHNET_PhyStatus>
        EXTEN->EXTEN_CTR &= ~EXTEN_ETH_10M_EN;
    1bce:	40024737          	lui	a4,0x40024
    1bd2:	80072783          	lw	a5,-2048(a4) # 40023800 <_eusrstack+0x20013800>
        phyLinkTime = LocalTime;
    1bd6:	87818693          	addi	a3,gp,-1928 # 20000098 <LocalTime>
        EXTEN->EXTEN_CTR &= ~EXTEN_ETH_10M_EN;
    1bda:	9bed                	andi	a5,a5,-5
    1bdc:	80f72023          	sw	a5,-2048(a4)
        phyLinkReset = 1;
    1be0:	4705                	li	a4,1
    1be2:	88e18aa3          	sb	a4,-1899(gp) # 200000b5 <phyLinkReset>
        phyLinkTime = LocalTime;
    1be6:	4298                	lw	a4,0(a3)
    1be8:	88e1ac23          	sw	a4,-1896(gp) # 200000b8 <phyLinkTime>
        if((ChipId & 0xf0) == 0x20)
    1bec:	86c1a783          	lw	a5,-1940(gp) # 2000008c <ChipId>
    1bf0:	02000713          	li	a4,32
    1bf4:	0f07f793          	andi	a5,a5,240
    1bf8:	f0e797e3          	bne	a5,a4,1b06 <ETH_PHYLink+0x7e>
            if(phyNegoStat & LAST_NEGO_STAT)
    1bfc:	8a018793          	addi	a5,gp,-1888 # 200000c0 <phyNegoStat>
    1c00:	2398                	lbu	a4,0(a5)
    1c02:	00177613          	andi	a2,a4,1
    1c06:	f00600e3          	beqz	a2,1b06 <ETH_PHYLink+0x7e>
                if(LocalTime - phyNegoLinkTime < 100)
    1c0a:	4290                	lw	a2,0(a3)
    1c0c:	89c18693          	addi	a3,gp,-1892 # 200000bc <phyNegoLinkTime>
    1c10:	428c                	lw	a1,0(a3)
    1c12:	8e0d                	sub	a2,a2,a1
    1c14:	06300593          	li	a1,99
    1c18:	eec5e7e3          	bltu	a1,a2,1b06 <ETH_PHYLink+0x7e>
                    phyNegoLinkTime = 0;
    1c1c:	0006a023          	sw	zero,0(a3) # 40028000 <_eusrstack+0x20018000>
                    phyNegoStat ^= TURN_PN_POLARITY;
    1c20:	00274713          	xori	a4,a4,2
                    ETH->DMAMFBOCR;
    1c24:	400296b7          	lui	a3,0x40029
    1c28:	5294                	lw	a3,32(a3)
                    phyNegoStat ^= TURN_PN_POLARITY;
    1c2a:	a398                	sb	a4,0(a5)
    1c2c:	bde9                	j	1b06 <ETH_PHYLink+0x7e>

00001c2e <ReInitMACReg>:
{
    1c2e:	da8fe2ef          	jal	t0,1d6 <__riscv_save_4>
    1c32:	7131                	addi	sp,sp,-192
    while((ETH->DMASR & (7 << 20)) != ETH_DMA_TransmitProcess_Suspended);
    1c34:	40029637          	lui	a2,0x40029
    1c38:	007006b7          	lui	a3,0x700
    1c3c:	00600737          	lui	a4,0x600
    1c40:	4a5c                	lw	a5,20(a2)
    1c42:	8ff5                	and	a5,a5,a3
    1c44:	fee79ee3          	bne	a5,a4,1c40 <ReInitMACReg+0x12>
    PHY_TR_REVERSE();
    1c48:	8a11c783          	lbu	a5,-1887(gp) # 200000c1 <phyStatus>
    1c4c:	8a118493          	addi	s1,gp,-1887 # 200000c1 <phyStatus>
    1c50:	c795                	beqz	a5,1c7c <ReInitMACReg+0x4e>
    1c52:	8881d503          	lhu	a0,-1912(gp) # 200000a8 <gPHYAddress>
    1c56:	45f9                	li	a1,30
    1c58:	88818413          	addi	s0,gp,-1912 # 200000a8 <gPHYAddress>
    1c5c:	e65fe0ef          	jal	ra,ac0 <ETH_ReadPHYRegister>
    1c60:	ffc57613          	andi	a2,a0,-4
    1c64:	0642                	slli	a2,a2,0x10
    1c66:	00157793          	andi	a5,a0,1
    1c6a:	8241                	srli	a2,a2,0x10
    1c6c:	20078063          	beqz	a5,1e6c <ReInitMACReg+0x23e>
    1c70:	00266613          	ori	a2,a2,2
    1c74:	200a                	lhu	a0,0(s0)
    1c76:	45f9                	li	a1,30
    1c78:	ea1fe0ef          	jal	ra,b18 <ETH_WritePHYRegister>
    ETH_SoftwareReset();
    1c7c:	6409                	lui	s0,0x2
    1c7e:	f7bfe0ef          	jal	ra,bf8 <ETH_SoftwareReset>
    1c82:	71040413          	addi	s0,s0,1808 # 2710 <WCHNET_PeriodicHandle+0x58>
    }while(ETH->DMABMR & ETH_DMABMR_SR);
    1c86:	40029937          	lui	s2,0x40029
        Delay_Us(10);
    1c8a:	147d                	addi	s0,s0,-1
    1c8c:	0442                	slli	s0,s0,0x10
    1c8e:	4529                	li	a0,10
    1c90:	8041                	srli	s0,s0,0x10
    1c92:	111000ef          	jal	ra,25a2 <Delay_Us>
        if( !--timeout )  break;
    1c96:	c409                	beqz	s0,1ca0 <ReInitMACReg+0x72>
    }while(ETH->DMABMR & ETH_DMABMR_SR);
    1c98:	00092783          	lw	a5,0(s2) # 40029000 <_eusrstack+0x20019000>
    1c9c:	8b85                	andi	a5,a5,1
    1c9e:	f7f5                	bnez	a5,1c8a <ReInitMACReg+0x5c>
    ETH_StructInit(&ETH_InitStructure);
    1ca0:	0048                	addi	a0,sp,4
    1ca2:	d47fe0ef          	jal	ra,9e8 <ETH_StructInit>
    ETH_InitStructure.ETH_AutoNegotiation = ETH_AutoNegotiation_Enable;
    1ca6:	4785                	li	a5,1
    1ca8:	c23e                	sw	a5,4(sp)
    ETH_InitStructure.ETH_RetryTransmission = ETH_RetryTransmission_Disable;
    1caa:	20000793          	li	a5,512
    1cae:	d63e                	sw	a5,44(sp)
    ETH_InitStructure.ETH_Mode = ETH_Mode_FullDuplex;
    1cb0:	6905                	lui	s2,0x1
    ETH_InitStructure.ETH_ForwardErrorFrames = ETH_ForwardErrorFrames_Enable;
    1cb2:	08000793          	li	a5,128
    1cb6:	cd3e                	sw	a5,152(sp)
    ETH_InitStructure.ETH_TransmitStoreForward = ETH_TransmitStoreForward_Enable;
    1cb8:	00200637          	lui	a2,0x200
    ETH_InitStructure.ETH_ForwardUndersizedGoodFrames = ETH_ForwardUndersizedGoodFrames_Enable;
    1cbc:	04000793          	li	a5,64
    ETH_InitStructure.ETH_Mode = ETH_Mode_FullDuplex;
    1cc0:	80090913          	addi	s2,s2,-2048 # 800 <__stack_size>
    tmpreg = ETH->MACMIIAR;
    1cc4:	40028437          	lui	s0,0x40028
    ETH_InitStructure.ETH_TransmitStoreForward = ETH_TransmitStoreForward_Enable;
    1cc8:	c932                	sw	a2,144(sp)
    ETH_InitStructure.ETH_Mode = ETH_Mode_FullDuplex;
    1cca:	d24a                	sw	s2,36(sp)
    ETH_InitStructure.ETH_Speed = ETH_Speed_10M;
    1ccc:	cc02                	sw	zero,24(sp)
    ETH_InitStructure.ETH_LoopbackMode = ETH_LoopbackMode_Disable;
    1cce:	d002                	sw	zero,32(sp)
    ETH_InitStructure.ETH_AutomaticPadCRCStrip = ETH_AutomaticPadCRCStrip_Disable;
    1cd0:	d802                	sw	zero,48(sp)
    ETH_InitStructure.ETH_ReceiveAll = ETH_ReceiveAll_Disable;
    1cd2:	de02                	sw	zero,60(sp)
    ETH_InitStructure.ETH_PromiscuousMode = ETH_PromiscuousMode_Disable;
    1cd4:	c882                	sw	zero,80(sp)
    ETH_InitStructure.ETH_BroadcastFramesReception = ETH_BroadcastFramesReception_Enable;
    1cd6:	c482                	sw	zero,72(sp)
    ETH_InitStructure.ETH_MulticastFramesFilter = ETH_MulticastFramesFilter_Perfect;
    1cd8:	ca82                	sw	zero,84(sp)
    ETH_InitStructure.ETH_UnicastFramesFilter = ETH_UnicastFramesFilter_Perfect;
    1cda:	cc82                	sw	zero,88(sp)
    ETH_InitStructure.ETH_DropTCPIPChecksumErrorFrame = ETH_DropTCPIPChecksumErrorFrame_Enable;
    1cdc:	c302                	sw	zero,132(sp)
    ETH_InitStructure.ETH_ForwardUndersizedGoodFrames = ETH_ForwardUndersizedGoodFrames_Enable;
    1cde:	cf3e                	sw	a5,156(sp)
    tmpreg = ETH->MACMIIAR;
    1ce0:	481c                	lw	a5,16(s0)
    ETH_DMAITConfig(ETH_DMA_IT_NIS |\
    1ce2:	80018537          	lui	a0,0x80018
    1ce6:	0c150513          	addi	a0,a0,193 # 800180c1 <_eusrstack+0x600080c1>
    tmpreg &= MACMIIAR_CR_MASK;
    1cea:	9b8d                	andi	a5,a5,-29
    ETH->MACMIIAR = (uint32_t)tmpreg;
    1cec:	c81c                	sw	a5,16(s0)
    tmpreg |= (uint32_t)(ETH_InitStructure.ETH_Watchdog |
    1cee:	46b2                	lw	a3,12(sp)
    1cf0:	47a2                	lw	a5,8(sp)
    tmpreg = ETH->MACCR;
    1cf2:	4018                	lw	a4,0(s0)
    tmpreg |= (uint32_t)(ETH_InitStructure.ETH_Watchdog |
    1cf4:	8fd5                	or	a5,a5,a3
    tmpreg &= MACCR_CLEAR_MASK;
    1cf6:	ff2086b7          	lui	a3,0xff208
    1cfa:	10f68693          	addi	a3,a3,271 # ff20810f <_eusrstack+0xdf1f810f>
    1cfe:	8f75                	and	a4,a4,a3
    tmpreg |= (uint32_t)(ETH_InitStructure.ETH_Watchdog |
    1d00:	8fd9                	or	a5,a5,a4
    1d02:	4742                	lw	a4,16(sp)
    1d04:	8fd9                	or	a5,a5,a4
    1d06:	5722                	lw	a4,40(sp)
    1d08:	8fd9                	or	a5,a5,a4
    1d0a:	5762                	lw	a4,56(sp)
    1d0c:	8fd9                	or	a5,a5,a4
    1d0e:	00100737          	lui	a4,0x100
    1d12:	8fd9                	or	a5,a5,a4
    ETH->MACCR = (uint32_t)tmpreg;
    1d14:	c01c                	sw	a5,0(s0)
    ETH->MACCR |= ETH_Internal_Pull_Up_Res_Enable;  /*Turn on the internal pull-up resistor*/
    1d16:	401c                	lw	a5,0(s0)
    1d18:	8fd9                	or	a5,a5,a4
    1d1a:	c01c                	sw	a5,0(s0)
                          ETH_InitStructure.ETH_SourceAddrFilter |
    1d1c:	4716                	lw	a4,68(sp)
    1d1e:	4786                	lw	a5,64(sp)
    1d20:	8fd9                	or	a5,a5,a4
                          ETH_InitStructure.ETH_BroadcastFramesReception |
    1d22:	4736                	lw	a4,76(sp)
    1d24:	8fd9                	or	a5,a5,a4
    ETH->MACFFR = (uint32_t)(ETH_InitStructure.ETH_ReceiveAll |
    1d26:	c05c                	sw	a5,4(s0)
    ETH->MACHTHR = (uint32_t)ETH_InitStructure.ETH_HashTableHigh;
    1d28:	47f6                	lw	a5,92(sp)
    1d2a:	c41c                	sw	a5,8(s0)
    ETH->MACHTLR = (uint32_t)ETH_InitStructure.ETH_HashTableLow;
    1d2c:	5786                	lw	a5,96(sp)
    1d2e:	c45c                	sw	a5,12(s0)
    tmpreg = ETH->MACFCR;
    1d30:	56d6                	lw	a3,116(sp)
    1d32:	57c6                	lw	a5,112(sp)
    1d34:	4c18                	lw	a4,24(s0)
    tmpreg |= (uint32_t)((ETH_InitStructure.ETH_PauseTime << 16) |
    1d36:	8fd5                	or	a5,a5,a3
    1d38:	56e6                	lw	a3,120(sp)
    1d3a:	8fd5                	or	a5,a5,a3
    tmpreg &= MACFCR_CLEAR_MASK;
    1d3c:	66c1                	lui	a3,0x10
    1d3e:	f4168693          	addi	a3,a3,-191 # ff41 <_data_lma+0x66f9>
    1d42:	8f75                	and	a4,a4,a3
    1d44:	8fd9                	or	a5,a5,a4
    tmpreg |= (uint32_t)((ETH_InitStructure.ETH_PauseTime << 16) |
    1d46:	5716                	lw	a4,100(sp)
    tmpreg = ETH->DMAOMR;
    1d48:	400296b7          	lui	a3,0x40029
    tmpreg |= (uint32_t)((ETH_InitStructure.ETH_PauseTime << 16) |
    1d4c:	0742                	slli	a4,a4,0x10
    1d4e:	8fd9                	or	a5,a5,a4
    ETH->MACFCR = (uint32_t)tmpreg;
    1d50:	cc1c                	sw	a5,24(s0)
    ETH->MACVLANTR = (uint32_t)(ETH_InitStructure.ETH_VLANTagComparison |
    1d52:	470a                	lw	a4,128(sp)
    1d54:	57f6                	lw	a5,124(sp)
    1d56:	8fd9                	or	a5,a5,a4
    1d58:	cc5c                	sw	a5,28(s0)
    tmpreg = ETH->DMAOMR;
    1d5a:	4e9c                	lw	a5,24(a3)
    tmpreg &= DMAOMR_CLEAR_MASK;
    1d5c:	f8de4737          	lui	a4,0xf8de4
    1d60:	f2370713          	addi	a4,a4,-221 # f8de3f23 <_eusrstack+0xd8dd3f23>
    1d64:	8ff9                	and	a5,a5,a4
    1d66:	473a                	lw	a4,140(sp)
    1d68:	8fd9                	or	a5,a5,a4
    tmpreg |= (uint32_t)(ETH_InitStructure.ETH_DropTCPIPChecksumErrorFrame |
    1d6a:	0c060713          	addi	a4,a2,192 # 2000c0 <_data_lma+0x1f6878>
    1d6e:	8fd9                	or	a5,a5,a4
    ETH->DMAOMR = (uint32_t)tmpreg;
    1d70:	ce9c                	sw	a5,24(a3)
    ETH->MACA0HR = (uint32_t)((MACAddr[5]<<8) | MACAddr[4]);
    1d72:	85818713          	addi	a4,gp,-1960 # 20000078 <_edata>
    1d76:	335c                	lbu	a5,5(a4)
    1d78:	234c                	lbu	a1,4(a4)
    1d7a:	07a2                	slli	a5,a5,0x8
    1d7c:	8fcd                	or	a5,a5,a1
    1d7e:	c03c                	sw	a5,64(s0)
    ETH->MACA0LR = (uint32_t)(MACAddr[0] | (MACAddr[1]<<8) | (MACAddr[2]<<16) | (MACAddr[3]<<24));
    1d80:	8591c703          	lbu	a4,-1959(gp) # 20000079 <_edata+0x1>
    1d84:	8581c783          	lbu	a5,-1960(gp) # 20000078 <_edata>
    ETH_DMAITConfig(ETH_DMA_IT_NIS |\
    1d88:	4585                	li	a1,1
    1d8a:	0722                	slli	a4,a4,0x8
    1d8c:	8f5d                	or	a4,a4,a5
    1d8e:	85a1c783          	lbu	a5,-1958(gp) # 2000007a <_edata+0x2>
    1d92:	07c2                	slli	a5,a5,0x10
    1d94:	8f5d                	or	a4,a4,a5
    1d96:	85b1c783          	lbu	a5,-1957(gp) # 2000007b <_edata+0x3>
    1d9a:	07e2                	slli	a5,a5,0x18
    1d9c:	8fd9                	or	a5,a5,a4
    ETH->MACA0LR = (uint32_t)(MACAddr[0] | (MACAddr[1]<<8) | (MACAddr[2]<<16) | (MACAddr[3]<<24));
    1d9e:	c07c                	sw	a5,68(s0)
    ETH->MMCRIMR = ETH_MMCRIMR_RGUFM | ETH_MMCRIMR_RFCEM;
    1da0:	000207b7          	lui	a5,0x20
    1da4:	02078793          	addi	a5,a5,32 # 20020 <_data_lma+0x167d8>
    ETH->MMCTIMR = ETH_MMCTIMR_TGFM;
    1da8:	10c42823          	sw	a2,272(s0) # 40028110 <_eusrstack+0x20018110>
    ETH->MMCRIMR = ETH_MMCRIMR_RGUFM | ETH_MMCRIMR_RFCEM;
    1dac:	10f42623          	sw	a5,268(s0)
    ETH_DMAITConfig(ETH_DMA_IT_NIS |\
    1db0:	ea1fe0ef          	jal	ra,c50 <ETH_DMAITConfig>
    ETH_DMATxDescChainInit(DMATxDscrTab, MACTxBuf, ETH_TXBUFNB);
    1db4:	20002537          	lui	a0,0x20002
    1db8:	200055b7          	lui	a1,0x20005
    1dbc:	41050993          	addi	s3,a0,1040 # 20002410 <DMATxDscrTab>
    1dc0:	4609                	li	a2,2
    1dc2:	e3058593          	addi	a1,a1,-464 # 20004e30 <MACTxBuf>
    1dc6:	41050513          	addi	a0,a0,1040
    1dca:	da1fe0ef          	jal	ra,b6a <ETH_DMATxDescChainInit>
    ETH_DMARxDescChainInit(DMARxDscrTab, MACRxBuf, ETH_RXBUFNB);
    1dce:	20002537          	lui	a0,0x20002
    1dd2:	200025b7          	lui	a1,0x20002
    1dd6:	3a050a13          	addi	s4,a0,928 # 200023a0 <DMARxDscrTab>
    1dda:	461d                	li	a2,7
    1ddc:	43058593          	addi	a1,a1,1072 # 20002430 <MACRxBuf>
    1de0:	3a050513          	addi	a0,a0,928
    1de4:	dc9fe0ef          	jal	ra,bac <ETH_DMARxDescChainInit>
    pDMARxSet = DMARxDscrTab;
    1de8:	8941a623          	sw	s4,-1908(gp) # 200000ac <pDMARxSet>
    pDMATxSet = DMATxDscrTab;
    1dec:	8931a823          	sw	s3,-1904(gp) # 200000b0 <pDMATxSet>
    ETH->MACCR &= ~ETH_Mode_FullDuplex;     //configure working mode based on the link result
    1df0:	401c                	lw	a5,0(s0)
    1df2:	777d                	lui	a4,0xfffff
    1df4:	7ff70713          	addi	a4,a4,2047 # fffff7ff <_eusrstack+0xdffef7ff>
    1df8:	8ff9                	and	a5,a5,a4
    1dfa:	c01c                	sw	a5,0(s0)
    if(DuplexMode)
    1dfc:	8701c783          	lbu	a5,-1936(gp) # 20000090 <DuplexMode>
    1e00:	c791                	beqz	a5,1e0c <ReInitMACReg+0x1de>
        ETH->MACCR |= ETH_Mode_FullDuplex;
    1e02:	401c                	lw	a5,0(s0)
    1e04:	0127e933          	or	s2,a5,s2
    1e08:	01242023          	sw	s2,0(s0)
    ETH->MACCR &= ~(ETH_Speed_100M|ETH_Speed_1000M);
    1e0c:	400286b7          	lui	a3,0x40028
    1e10:	429c                	lw	a5,0(a3)
    1e12:	7751                	lui	a4,0xffff4
    1e14:	177d                	addi	a4,a4,-1
    1e16:	8ff9                	and	a5,a5,a4
    1e18:	c29c                	sw	a5,0(a3)
    ETH_Start( );
    1e1a:	e05fe0ef          	jal	ra,c1e <ETH_Start>
    PHY_TR_REVERSE();
    1e1e:	209c                	lbu	a5,0(s1)
    1e20:	88818413          	addi	s0,gp,-1912 # 200000a8 <gPHYAddress>
    1e24:	e7b9                	bnez	a5,1e72 <ReInitMACReg+0x244>
        PHY_LINK_RESET();
    1e26:	200a                	lhu	a0,0(s0)
    1e28:	6621                	lui	a2,0x8
    1e2a:	4581                	li	a1,0
    1e2c:	cedfe0ef          	jal	ra,b18 <ETH_WritePHYRegister>
    1e30:	8a018123          	sb	zero,-1886(gp) # 200000c2 <phySucCnt>
    1e34:	88018a23          	sb	zero,-1900(gp) # 200000b4 <phyLinkCnt>
    1e38:	88018323          	sb	zero,-1914(gp) # 200000a6 <TRDetectStep>
    1e3c:	200a                	lhu	a0,0(s0)
    1e3e:	86018e23          	sb	zero,-1924(gp) # 2000009c <PhyPolarityDetect>
    1e42:	88018b23          	sb	zero,-1898(gp) # 200000b6 <phyLinkStatus>
    1e46:	4721                	li	a4,8
    1e48:	4621                	li	a2,8
    1e4a:	45f9                	li	a1,30
    1e4c:	00048023          	sb	zero,0(s1)
    1e50:	80e18ea3          	sb	a4,-2019(gp) # 2000003d <phyPN>
    1e54:	cc5fe0ef          	jal	ra,b18 <ETH_WritePHYRegister>
    ReInitMACFlag = 1;
    1e58:	4705                	li	a4,1
    1e5a:	88e18223          	sb	a4,-1916(gp) # 200000a4 <ReInitMACFlag>
    phyLinkTime = LocalTime;
    1e5e:	8781a703          	lw	a4,-1928(gp) # 20000098 <LocalTime>
    1e62:	88e1ac23          	sw	a4,-1896(gp) # 200000b8 <phyLinkTime>
}
    1e66:	6129                	addi	sp,sp,192
    1e68:	ba2fe06f          	j	20a <__riscv_restore_4>
    PHY_TR_REVERSE();
    1e6c:	00166613          	ori	a2,a2,1
    1e70:	b511                	j	1c74 <ReInitMACReg+0x46>
    PHY_TR_REVERSE();
    1e72:	200a                	lhu	a0,0(s0)
    1e74:	45f9                	li	a1,30
    1e76:	c4bfe0ef          	jal	ra,ac0 <ETH_ReadPHYRegister>
    1e7a:	ffc57613          	andi	a2,a0,-4
    1e7e:	0642                	slli	a2,a2,0x10
    1e80:	00157793          	andi	a5,a0,1
    1e84:	8241                	srli	a2,a2,0x10
    1e86:	cb91                	beqz	a5,1e9a <ReInitMACReg+0x26c>
    1e88:	00266613          	ori	a2,a2,2
    1e8c:	200a                	lhu	a0,0(s0)
    1e8e:	45f9                	li	a1,30
    1e90:	c89fe0ef          	jal	ra,b18 <ETH_WritePHYRegister>
    if(!phyStatus)
    1e94:	209c                	lbu	a5,0(s1)
    1e96:	f3e9                	bnez	a5,1e58 <ReInitMACReg+0x22a>
    1e98:	b779                	j	1e26 <ReInitMACReg+0x1f8>
    PHY_TR_REVERSE();
    1e9a:	00166613          	ori	a2,a2,1
    1e9e:	b7fd                	j	1e8c <ReInitMACReg+0x25e>

00001ea0 <WCHNET_RecProcess>:
    if(((ChipId & 0xf0) == 0x20) && \
    1ea0:	86c1a783          	lw	a5,-1940(gp) # 2000008c <ChipId>
    1ea4:	02000713          	li	a4,32
    1ea8:	0f07f793          	andi	a5,a5,240
    1eac:	00e79e63          	bne	a5,a4,1ec8 <WCHNET_RecProcess+0x28>
            ((ETH->DMAMFBOCR & 0x1FFE0000) != 0))
    1eb0:	400297b7          	lui	a5,0x40029
    1eb4:	539c                	lw	a5,32(a5)
    1eb6:	1ffe0737          	lui	a4,0x1ffe0
    1eba:	8ff9                	and	a5,a5,a4
    if(((ChipId & 0xf0) == 0x20) && \
    1ebc:	c791                	beqz	a5,1ec8 <WCHNET_RecProcess+0x28>
{
    1ebe:	b32fe2ef          	jal	t0,1f0 <__riscv_save_0>
        ReInitMACReg();
    1ec2:	33b5                	jal	1c2e <ReInitMACReg>
}
    1ec4:	b50fe06f          	j	214 <__riscv_restore_0>
    1ec8:	8082                	ret

00001eca <WCHNET_MainTask>:
{
    1eca:	b26fe2ef          	jal	t0,1f0 <__riscv_save_0>
    WCHNET_NetInput( );                     /* Ethernet data input */
    1ece:	1a3000ef          	jal	ra,2870 <WCHNET_NetInput>
    WCHNET_PeriodicHandle( );               /* Protocol stack time-related task processing */
    1ed2:	7e6000ef          	jal	ra,26b8 <WCHNET_PeriodicHandle>
    WCHNET_HandlePhyNegotiation();
    1ed6:	961ff0ef          	jal	ra,1836 <WCHNET_HandlePhyNegotiation>
    WCHNET_RecProcess();
    1eda:	37d9                	jal	1ea0 <WCHNET_RecProcess>
}
    1edc:	b38fe06f          	j	214 <__riscv_restore_0>

00001ee0 <ETH_RegInit>:
{
    1ee0:	b10fe2ef          	jal	t0,1f0 <__riscv_save_0>
    tmpreg = ETH->MACMIIAR;
    1ee4:	40028737          	lui	a4,0x40028
    1ee8:	4b1c                	lw	a5,16(a4)
{
    1eea:	842e                	mv	s0,a1
    ETH_WritePHYRegister(PHYAddress, PHY_BCR, PHY_Reset);
    1eec:	4581                	li	a1,0
    tmpreg &= MACMIIAR_CR_MASK;
    1eee:	9b8d                	andi	a5,a5,-29
    ETH->MACMIIAR = (uint32_t)tmpreg;
    1ef0:	cb1c                	sw	a5,16(a4)
    tmpreg |= (uint32_t)(ETH_InitStruct->ETH_Watchdog |
    1ef2:	5950                	lw	a2,52(a0)
    1ef4:	415c                	lw	a5,4(a0)
    tmpreg = ETH->MACCR;
    1ef6:	4314                	lw	a3,0(a4)
    tmpreg |= (uint32_t)(ETH_InitStruct->ETH_Watchdog |
    1ef8:	8fd1                	or	a5,a5,a2
    tmpreg &= MACCR_CLEAR_MASK;
    1efa:	ff208637          	lui	a2,0xff208
    1efe:	10f60613          	addi	a2,a2,271 # ff20810f <_eusrstack+0xdf1f810f>
    1f02:	8ef1                	and	a3,a3,a2
    tmpreg |= (uint32_t)(ETH_InitStruct->ETH_Watchdog |
    1f04:	8fd5                	or	a5,a5,a3
    1f06:	4514                	lw	a3,8(a0)
    1f08:	8fd5                	or	a5,a5,a3
    1f0a:	4554                	lw	a3,12(a0)
    1f0c:	8fd5                	or	a5,a5,a3
    1f0e:	5154                	lw	a3,36(a0)
    1f10:	8fd5                	or	a5,a5,a3
    1f12:	5554                	lw	a3,44(a0)
    1f14:	8fd5                	or	a5,a5,a3
    1f16:	001006b7          	lui	a3,0x100
    1f1a:	8fd5                	or	a5,a5,a3
    ETH->MACCR = (uint32_t)tmpreg;
    1f1c:	c31c                	sw	a5,0(a4)
    ETH->MACCR |= ETH_Internal_Pull_Up_Res_Enable;  /*Turn on the internal pull-up resistor*/
    1f1e:	431c                	lw	a5,0(a4)
    1f20:	8fd5                	or	a5,a5,a3
    1f22:	c31c                	sw	a5,0(a4)
    ETH->MACFFR = (uint32_t)(ETH_InitStruct->ETH_ReceiveAll |
    1f24:	5d54                	lw	a3,60(a0)
    1f26:	5d1c                	lw	a5,56(a0)
    1f28:	8fd5                	or	a5,a5,a3
                          ETH_InitStruct->ETH_SourceAddrFilter |
    1f2a:	4134                	lw	a3,64(a0)
    1f2c:	8fd5                	or	a5,a5,a3
                          ETH_InitStruct->ETH_PassControlFrames |
    1f2e:	4174                	lw	a3,68(a0)
    1f30:	8fd5                	or	a5,a5,a3
                          ETH_InitStruct->ETH_BroadcastFramesReception |
    1f32:	4534                	lw	a3,72(a0)
    1f34:	8fd5                	or	a5,a5,a3
                          ETH_InitStruct->ETH_DestinationAddrFilter |
    1f36:	4574                	lw	a3,76(a0)
    1f38:	8fd5                	or	a5,a5,a3
                          ETH_InitStruct->ETH_PromiscuousMode |
    1f3a:	4934                	lw	a3,80(a0)
    1f3c:	8fd5                	or	a5,a5,a3
                          ETH_InitStruct->ETH_MulticastFramesFilter |
    1f3e:	4974                	lw	a3,84(a0)
    1f40:	8fd5                	or	a5,a5,a3
    ETH->MACFFR = (uint32_t)(ETH_InitStruct->ETH_ReceiveAll |
    1f42:	c35c                	sw	a5,4(a4)
    ETH->MACHTHR = (uint32_t)ETH_InitStruct->ETH_HashTableHigh;
    1f44:	4d3c                	lw	a5,88(a0)
    1f46:	c71c                	sw	a5,8(a4)
    ETH->MACHTLR = (uint32_t)ETH_InitStruct->ETH_HashTableLow;
    1f48:	4d7c                	lw	a5,92(a0)
    1f4a:	c75c                	sw	a5,12(a4)
    tmpreg = ETH->MACFCR;
    1f4c:	5930                	lw	a2,112(a0)
    1f4e:	557c                	lw	a5,108(a0)
    1f50:	4f14                	lw	a3,24(a4)
    tmpreg |= (uint32_t)((ETH_InitStruct->ETH_PauseTime << 16) |
    1f52:	8fd1                	or	a5,a5,a2
    tmpreg &= MACFCR_CLEAR_MASK;
    1f54:	6641                	lui	a2,0x10
    1f56:	f4160613          	addi	a2,a2,-191 # ff41 <_data_lma+0x66f9>
    1f5a:	8ef1                	and	a3,a3,a2
    1f5c:	8fd5                	or	a5,a5,a3
    1f5e:	5974                	lw	a3,116(a0)
    tmpreg = ETH->DMAOMR;
    1f60:	40029637          	lui	a2,0x40029
    1f64:	8fd5                	or	a5,a5,a3
    tmpreg |= (uint32_t)((ETH_InitStruct->ETH_PauseTime << 16) |
    1f66:	5134                	lw	a3,96(a0)
    1f68:	06c2                	slli	a3,a3,0x10
    1f6a:	8fd5                	or	a5,a5,a3
    ETH->MACFCR = (uint32_t)tmpreg;
    1f6c:	cf1c                	sw	a5,24(a4)
    ETH->MACVLANTR = (uint32_t)(ETH_InitStruct->ETH_VLANTagComparison |
    1f6e:	5d3c                	lw	a5,120(a0)
    1f70:	5d74                	lw	a3,124(a0)
    1f72:	8fd5                	or	a5,a5,a3
    1f74:	cf5c                	sw	a5,28(a4)
    tmpreg |= (uint32_t)(ETH_InitStruct->ETH_DropTCPIPChecksumErrorFrame |
    1f76:	08852683          	lw	a3,136(a0)
    1f7a:	08052783          	lw	a5,128(a0)
    tmpreg = ETH->DMAOMR;
    1f7e:	4e18                	lw	a4,24(a2)
    tmpreg |= (uint32_t)(ETH_InitStruct->ETH_DropTCPIPChecksumErrorFrame |
    1f80:	8fd5                	or	a5,a5,a3
    tmpreg &= DMAOMR_CLEAR_MASK;
    1f82:	f8de46b7          	lui	a3,0xf8de4
    1f86:	f2368693          	addi	a3,a3,-221 # f8de3f23 <_eusrstack+0xd8dd3f23>
    1f8a:	8f75                	and	a4,a4,a3
    1f8c:	8fd9                	or	a5,a5,a4
    1f8e:	08c52703          	lw	a4,140(a0)
    1f92:	8fd9                	or	a5,a5,a4
    1f94:	09452703          	lw	a4,148(a0)
    1f98:	8fd9                	or	a5,a5,a4
    tmpreg |= (uint32_t)(ETH_InitStruct->ETH_DropTCPIPChecksumErrorFrame |
    1f9a:	09852703          	lw	a4,152(a0)
    ETH_WritePHYRegister(PHYAddress, PHY_BCR, PHY_Reset);
    1f9e:	8522                	mv	a0,s0
    tmpreg |= (uint32_t)(ETH_InitStruct->ETH_DropTCPIPChecksumErrorFrame |
    1fa0:	8fd9                	or	a5,a5,a4
    ETH->DMAOMR = (uint32_t)tmpreg;
    1fa2:	ce1c                	sw	a5,24(a2)
    ETH_WritePHYRegister(PHYAddress, PHY_BCR, PHY_Reset);
    1fa4:	6621                	lui	a2,0x8
    1fa6:	b73fe0ef          	jal	ra,b18 <ETH_WritePHYRegister>
    ETH_WritePHYRegister(PHYAddress, PHY_MDIX, PHY_PN_SWITCH_AUTO);
    1faa:	4621                	li	a2,8
    1fac:	45f9                	li	a1,30
    1fae:	8522                	mv	a0,s0
    1fb0:	b69fe0ef          	jal	ra,b18 <ETH_WritePHYRegister>
}
    1fb4:	4505                	li	a0,1
    1fb6:	a5efe06f          	j	214 <__riscv_restore_0>

00001fba <ETH_Configuration>:
{
    1fba:	a1cfe2ef          	jal	t0,1d6 <__riscv_save_4>
    1fbe:	7131                	addi	sp,sp,-192
    RCC_AHBPeriphClockCmd(RCC_AHBPeriph_ETH_MAC | \
    1fc0:	4585                	li	a1,1
{
    1fc2:	84aa                	mv	s1,a0
    RCC_AHBPeriphClockCmd(RCC_AHBPeriph_ETH_MAC | \
    1fc4:	6571                	lui	a0,0x1c
    1fc6:	96eff0ef          	jal	ra,1134 <RCC_AHBPeriphClockCmd>
    gPHYAddress = PHY_ADDRESS;
    1fca:	4785                	li	a5,1
    1fcc:	88f19423          	sh	a5,-1912(gp) # 200000a8 <gPHYAddress>
    ETH_SetClock( );
    1fd0:	a39ff0ef          	jal	ra,1a08 <ETH_SetClock>
    EXTEN->EXTEN_CTR |= EXTEN_ETH_10M_EN;    /* Enable 10M Ethernet physical layer   */
    1fd4:	40024737          	lui	a4,0x40024
    1fd8:	80072783          	lw	a5,-2048(a4) # 40023800 <_eusrstack+0x20013800>
    ETH_SoftwareReset();
    1fdc:	6409                	lui	s0,0x2
    1fde:	71040413          	addi	s0,s0,1808 # 2710 <WCHNET_PeriodicHandle+0x58>
    EXTEN->EXTEN_CTR |= EXTEN_ETH_10M_EN;    /* Enable 10M Ethernet physical layer   */
    1fe2:	0047e793          	ori	a5,a5,4
    1fe6:	80f72023          	sw	a5,-2048(a4)
    ETH_DeInit();
    1fea:	9e7fe0ef          	jal	ra,9d0 <ETH_DeInit>
    ETH_SoftwareReset();
    1fee:	88818913          	addi	s2,gp,-1912 # 200000a8 <gPHYAddress>
    1ff2:	c07fe0ef          	jal	ra,bf8 <ETH_SoftwareReset>
    }while(ETH->DMABMR & ETH_DMABMR_SR);
    1ff6:	400299b7          	lui	s3,0x40029
        Delay_Us(10);
    1ffa:	147d                	addi	s0,s0,-1
    1ffc:	0442                	slli	s0,s0,0x10
    1ffe:	4529                	li	a0,10
    2000:	8041                	srli	s0,s0,0x10
    2002:	2345                	jal	25a2 <Delay_Us>
        if( !--timeout )  break;
    2004:	c409                	beqz	s0,200e <ETH_Configuration+0x54>
    }while(ETH->DMABMR & ETH_DMABMR_SR);
    2006:	0009a783          	lw	a5,0(s3) # 40029000 <_eusrstack+0x20019000>
    200a:	8b85                	andi	a5,a5,1
    200c:	f7fd                	bnez	a5,1ffa <ETH_Configuration+0x40>
    ETH_StructInit(&ETH_InitStructure);
    200e:	0048                	addi	a0,sp,4
    2010:	9d9fe0ef          	jal	ra,9e8 <ETH_StructInit>
    ETH_InitStructure.ETH_Mode = ETH_Mode_FullDuplex;
    2014:	6785                	lui	a5,0x1
    2016:	80078793          	addi	a5,a5,-2048 # 800 <__stack_size>
    201a:	d23e                	sw	a5,36(sp)
    ETH_InitStructure.ETH_AutoNegotiation = ETH_AutoNegotiation_Enable;
    201c:	4785                	li	a5,1
    201e:	c23e                	sw	a5,4(sp)
    ETH_RegInit( &ETH_InitStructure, gPHYAddress );
    2020:	00095583          	lhu	a1,0(s2)
    ETH_InitStructure.ETH_RetryTransmission = ETH_RetryTransmission_Disable;
    2024:	20000793          	li	a5,512
    2028:	d63e                	sw	a5,44(sp)
    ETH_InitStructure.ETH_ForwardErrorFrames = ETH_ForwardErrorFrames_Enable;
    202a:	08000793          	li	a5,128
    ETH_InitStructure.ETH_TransmitStoreForward = ETH_TransmitStoreForward_Enable;
    202e:	00200437          	lui	s0,0x200
    ETH_InitStructure.ETH_ForwardErrorFrames = ETH_ForwardErrorFrames_Enable;
    2032:	cd3e                	sw	a5,152(sp)
    ETH_RegInit( &ETH_InitStructure, gPHYAddress );
    2034:	0048                	addi	a0,sp,4
    ETH_InitStructure.ETH_ForwardUndersizedGoodFrames = ETH_ForwardUndersizedGoodFrames_Enable;
    2036:	04000793          	li	a5,64
    ETH_InitStructure.ETH_TransmitStoreForward = ETH_TransmitStoreForward_Enable;
    203a:	c922                	sw	s0,144(sp)
    ETH_InitStructure.ETH_ForwardUndersizedGoodFrames = ETH_ForwardUndersizedGoodFrames_Enable;
    203c:	cf3e                	sw	a5,156(sp)
    ETH_InitStructure.ETH_Speed = ETH_Speed_10M;
    203e:	cc02                	sw	zero,24(sp)
    ETH_InitStructure.ETH_LoopbackMode = ETH_LoopbackMode_Disable;
    2040:	d002                	sw	zero,32(sp)
    ETH_InitStructure.ETH_AutomaticPadCRCStrip = ETH_AutomaticPadCRCStrip_Disable;
    2042:	d802                	sw	zero,48(sp)
    ETH_InitStructure.ETH_ReceiveAll = ETH_ReceiveAll_Disable;
    2044:	de02                	sw	zero,60(sp)
    ETH_InitStructure.ETH_PromiscuousMode = ETH_PromiscuousMode_Disable;
    2046:	c882                	sw	zero,80(sp)
    ETH_InitStructure.ETH_BroadcastFramesReception = ETH_BroadcastFramesReception_Enable;
    2048:	c482                	sw	zero,72(sp)
    ETH_InitStructure.ETH_MulticastFramesFilter = ETH_MulticastFramesFilter_Perfect;
    204a:	ca82                	sw	zero,84(sp)
    ETH_InitStructure.ETH_UnicastFramesFilter = ETH_UnicastFramesFilter_Perfect;
    204c:	cc82                	sw	zero,88(sp)
    ETH_InitStructure.ETH_DropTCPIPChecksumErrorFrame = ETH_DropTCPIPChecksumErrorFrame_Enable;
    204e:	c302                	sw	zero,132(sp)
    ETH_RegInit( &ETH_InitStructure, gPHYAddress );
    2050:	3d41                	jal	1ee0 <ETH_RegInit>
    ETH->MACA0HR = (uint32_t)((macAddr[5]<<8) | macAddr[4]);
    2052:	30dc                	lbu	a5,5(s1)
    2054:	20d8                	lbu	a4,4(s1)
    2056:	400286b7          	lui	a3,0x40028
    205a:	07a2                	slli	a5,a5,0x8
    205c:	8fd9                	or	a5,a5,a4
    205e:	c2bc                	sw	a5,64(a3)
    ETH->MACA0LR = (uint32_t)(macAddr[0] | (macAddr[1]<<8) | (macAddr[2]<<16) | (macAddr[3]<<24));
    2060:	3098                	lbu	a4,1(s1)
    2062:	209c                	lbu	a5,0(s1)
    ETH_DMAITConfig(ETH_DMA_IT_NIS |\
    2064:	80018537          	lui	a0,0x80018
    2068:	0722                	slli	a4,a4,0x8
    206a:	8f5d                	or	a4,a4,a5
    206c:	20bc                	lbu	a5,2(s1)
    206e:	4585                	li	a1,1
    2070:	0c150513          	addi	a0,a0,193 # 800180c1 <_eusrstack+0x600080c1>
    2074:	07c2                	slli	a5,a5,0x10
    2076:	8f5d                	or	a4,a4,a5
    2078:	30bc                	lbu	a5,3(s1)
    207a:	07e2                	slli	a5,a5,0x18
    207c:	8fd9                	or	a5,a5,a4
    ETH->MACA0LR = (uint32_t)(macAddr[0] | (macAddr[1]<<8) | (macAddr[2]<<16) | (macAddr[3]<<24));
    207e:	c2fc                	sw	a5,68(a3)
    ETH->MMCRIMR = ETH_MMCRIMR_RGUFM | ETH_MMCRIMR_RFCEM;
    2080:	000207b7          	lui	a5,0x20
    ETH->MMCTIMR = ETH_MMCTIMR_TGFM;
    2084:	1086a823          	sw	s0,272(a3) # 40028110 <_eusrstack+0x20018110>
    ETH->MMCRIMR = ETH_MMCRIMR_RGUFM | ETH_MMCRIMR_RFCEM;
    2088:	02078793          	addi	a5,a5,32 # 20020 <_data_lma+0x167d8>
    208c:	10f6a623          	sw	a5,268(a3)
    ETH_DMAITConfig(ETH_DMA_IT_NIS |\
    2090:	bc1fe0ef          	jal	ra,c50 <ETH_DMAITConfig>
}
    2094:	6129                	addi	sp,sp,192
    2096:	974fe06f          	j	20a <__riscv_restore_4>

0000209a <WCHNET_ETHIsr>:
 * @brief   Ethernet Interrupt Service Routine
 *
 * @return  none
 */
void WCHNET_ETHIsr(void)
{
    209a:	956fe2ef          	jal	t0,1f0 <__riscv_save_0>
    uint32_t int_sta;

    int_sta = ETH->DMASR;
    209e:	400297b7          	lui	a5,0x40029
    20a2:	4bc0                	lw	s0,20(a5)
    if (int_sta & ETH_DMA_IT_AIS)
    20a4:	01041713          	slli	a4,s0,0x10
    20a8:	02075a63          	bgez	a4,20dc <WCHNET_ETHIsr+0x42>
    {
        if (int_sta & ETH_DMA_IT_RBU)
    20ac:	08047713          	andi	a4,s0,128
    20b0:	c31d                	beqz	a4,20d6 <WCHNET_ETHIsr+0x3c>
        {
            if((ChipId & 0xf0) == 0x10)
    20b2:	86c1a703          	lw	a4,-1940(gp) # 2000008c <ChipId>
    20b6:	46c1                	li	a3,16
    20b8:	0f077713          	andi	a4,a4,240
    20bc:	00d71963          	bne	a4,a3,20ce <WCHNET_ETHIsr+0x34>
            {
                ((ETH_DMADESCTypeDef *)(((ETH_DMADESCTypeDef *)(ETH->DMACHRDR))->Buffer2NextDescAddr))->Status = ETH_DMARxDesc_OWN;
    20c0:	47f8                	lw	a4,76(a5)
    20c2:	800006b7          	lui	a3,0x80000
    20c6:	4758                	lw	a4,12(a4)
    20c8:	c314                	sw	a3,0(a4)

                /* Resume DMA reception */
                ETH->DMARPDR = 0;
    20ca:	0007a423          	sw	zero,8(a5) # 40029008 <_eusrstack+0x20019008>
            }
            ETH_DMAClearITPendingBit(ETH_DMA_IT_RBU);
    20ce:	08000513          	li	a0,128
    20d2:	b35fe0ef          	jal	ra,c06 <ETH_DMAClearITPendingBit>
        }
        ETH_DMAClearITPendingBit(ETH_DMA_IT_AIS);
    20d6:	6521                	lui	a0,0x8
    20d8:	b2ffe0ef          	jal	ra,c06 <ETH_DMAClearITPendingBit>
    }

    if( int_sta & ETH_DMA_IT_NIS )
    20dc:	00f41793          	slli	a5,s0,0xf
    20e0:	0207da63          	bgez	a5,2114 <WCHNET_ETHIsr+0x7a>
    {
        if( int_sta & ETH_DMA_IT_R )
    20e4:	04047793          	andi	a5,s0,64
    20e8:	c789                	beqz	a5,20f2 <WCHNET_ETHIsr+0x58>
        {
            /*If you don't use the Ethernet library,
             * you can do some data processing operations here*/
            ETH_DMAClearITPendingBit(ETH_DMA_IT_R);
    20ea:	04000513          	li	a0,64
    20ee:	b19fe0ef          	jal	ra,c06 <ETH_DMAClearITPendingBit>
        }
        if( int_sta & ETH_DMA_IT_T )
    20f2:	00147793          	andi	a5,s0,1
    20f6:	c781                	beqz	a5,20fe <WCHNET_ETHIsr+0x64>
        {
            ETH_DMAClearITPendingBit(ETH_DMA_IT_T);
    20f8:	4505                	li	a0,1
    20fa:	b0dfe0ef          	jal	ra,c06 <ETH_DMAClearITPendingBit>
        }
        if( int_sta & ETH_DMA_IT_PHYLINK)
    20fe:	00045863          	bgez	s0,210e <WCHNET_ETHIsr+0x74>
        {
            ETH_PHYLink( );
    2102:	987ff0ef          	jal	ra,1a88 <ETH_PHYLink>
            ETH_DMAClearITPendingBit(ETH_DMA_IT_PHYLINK);
    2106:	80000537          	lui	a0,0x80000
    210a:	afdfe0ef          	jal	ra,c06 <ETH_DMAClearITPendingBit>
        }
        ETH_DMAClearITPendingBit(ETH_DMA_IT_NIS);
    210e:	6541                	lui	a0,0x10
    2110:	af7fe0ef          	jal	ra,c06 <ETH_DMAClearITPendingBit>
    }
}
    2114:	900fe06f          	j	214 <__riscv_restore_0>

00002118 <ETH_Init>:
 * @brief   Ethernet initialization.
 *
 * @return  none
 */
void ETH_Init( uint8_t *macAddr )
{
    2118:	8d8fe2ef          	jal	t0,1f0 <__riscv_save_0>
    211c:	842a                	mv	s0,a0
    Delay_Ms(100);
    211e:	06400513          	li	a0,100
    2122:	295d                	jal	25d8 <Delay_Ms>
    ChipId = DBGMCU_GetCHIPID();
    2124:	8a3fe0ef          	jal	ra,9c6 <DBGMCU_GetCHIPID>
    2128:	86a1a623          	sw	a0,-1940(gp) # 2000008c <ChipId>
    ETH_LedConfiguration( );
    212c:	899ff0ef          	jal	ra,19c4 <ETH_LedConfiguration>
    RandVal = (macAddr[3]^macAddr[4]^macAddr[5]) * 214017 + 2531017;
    2130:	303c                	lbu	a5,3(s0)
    2132:	2058                	lbu	a4,4(s0)
    ETH_Configuration( macAddr );
    2134:	8522                	mv	a0,s0
    RandVal = (macAddr[3]^macAddr[4]^macAddr[5]) * 214017 + 2531017;
    2136:	8fb9                	xor	a5,a5,a4
    2138:	3058                	lbu	a4,5(s0)
    213a:	8fb9                	xor	a5,a5,a4
    213c:	00034737          	lui	a4,0x34
    2140:	40170713          	addi	a4,a4,1025 # 34401 <_data_lma+0x2abb9>
    2144:	02e787b3          	mul	a5,a5,a4
    2148:	0026a737          	lui	a4,0x26a
    214c:	ec970713          	addi	a4,a4,-311 # 269ec9 <_data_lma+0x260681>
    2150:	97ba                	add	a5,a5,a4
    2152:	88f1a023          	sw	a5,-1920(gp) # 200000a0 <RandVal>
    ETH_Configuration( macAddr );
    2156:	3595                	jal	1fba <ETH_Configuration>
    ETH_DMATxDescChainInit(DMATxDscrTab, MACTxBuf, ETH_TXBUFNB);
    2158:	20002537          	lui	a0,0x20002
    215c:	200055b7          	lui	a1,0x20005
    2160:	41050413          	addi	s0,a0,1040 # 20002410 <DMATxDscrTab>
    2164:	4609                	li	a2,2
    2166:	e3058593          	addi	a1,a1,-464 # 20004e30 <MACTxBuf>
    216a:	41050513          	addi	a0,a0,1040
    216e:	9fdfe0ef          	jal	ra,b6a <ETH_DMATxDescChainInit>
    ETH_DMARxDescChainInit(DMARxDscrTab, MACRxBuf, ETH_RXBUFNB);
    2172:	20002537          	lui	a0,0x20002
    2176:	200025b7          	lui	a1,0x20002
    217a:	3a050493          	addi	s1,a0,928 # 200023a0 <DMARxDscrTab>
    217e:	461d                	li	a2,7
    2180:	43058593          	addi	a1,a1,1072 # 20002430 <MACRxBuf>
    2184:	3a050513          	addi	a0,a0,928
    2188:	a25fe0ef          	jal	ra,bac <ETH_DMARxDescChainInit>
    pDMARxSet = DMARxDscrTab;
    218c:	8891a623          	sw	s1,-1908(gp) # 200000ac <pDMARxSet>
    pDMATxSet = DMATxDscrTab;
    2190:	8881a823          	sw	s0,-1904(gp) # 200000b0 <pDMATxSet>
    2194:	6709                	lui	a4,0x2
    2196:	e000e7b7          	lui	a5,0xe000e
    219a:	10e7a423          	sw	a4,264(a5) # e000e108 <_eusrstack+0xbfffe108>
  NVIC->IPRIOR[(uint32_t)(IRQn)] = priority;
    219e:	440786a3          	sb	zero,1101(a5)
    NVIC_EnableIRQ(ETH_IRQn);
    NVIC_SetPriority(ETH_IRQn, 0);
}
    21a2:	872fe06f          	j	214 <__riscv_restore_0>

000021a6 <ETH_LibInit>:
 * @brief   Ethernet library initialization program
 *
 * @return  command status
 */
uint8_t ETH_LibInit( uint8_t *ip, uint8_t *gwip, uint8_t *mask, uint8_t *macaddr )
{
    21a6:	84afe2ef          	jal	t0,1f0 <__riscv_save_0>
    21aa:	7139                	addi	sp,sp,-64
    uint8_t s;
    struct _WCH_CFG  cfg;

    memset(&cfg,0,sizeof(cfg));
    cfg.TxBufSize = ETH_TX_BUF_SZE;
    21ac:	60000793          	li	a5,1536
    21b0:	ca3e                	sw	a5,20(sp)
    cfg.TCPMss   = WCHNET_TCP_MSS;
    21b2:	5b400793          	li	a5,1460
    21b6:	cc3e                	sw	a5,24(sp)
    cfg.HeapSize = WCHNET_MEM_HEAP_SIZE;
    21b8:	6785                	lui	a5,0x1
    21ba:	27478793          	addi	a5,a5,628 # 1274 <TIM_TimeBaseInit+0x54>
    21be:	ce3e                	sw	a5,28(sp)
    cfg.ARPTableNum = WCHNET_NUM_ARP_TABLE;
    21c0:	03200793          	li	a5,50
    21c4:	d03e                	sw	a5,32(sp)
    cfg.MiscConfig0 = WCHNET_MISC_CONFIG0;
    21c6:	10300793          	li	a5,259
    21ca:	d23e                	sw	a5,36(sp)
    cfg.MiscConfig1 = WCHNET_MISC_CONFIG1;
    21cc:	405527b7          	lui	a5,0x40552
    21d0:	0785                	addi	a5,a5,1
    21d2:	d43e                	sw	a5,40(sp)
    cfg.led_link = ETH_LedLinkSet;
    21d4:	000017b7          	lui	a5,0x1
    21d8:	41878793          	addi	a5,a5,1048 # 1418 <ETH_LedLinkSet>
    21dc:	d63e                	sw	a5,44(sp)
    cfg.led_data = ETH_LedDataSet;
    21de:	000017b7          	lui	a5,0x1
    21e2:	3f678793          	addi	a5,a5,1014 # 13f6 <ETH_LedDataSet>
    21e6:	d83e                	sw	a5,48(sp)
    cfg.net_send = ETH_TxPktChainMode;
    21e8:	000017b7          	lui	a5,0x1
    21ec:	3b678793          	addi	a5,a5,950 # 13b6 <ETH_TxPktChainMode>
    21f0:	da3e                	sw	a5,52(sp)
    cfg.CheckValid = WCHNET_CFG_VALID;
    21f2:	123457b7          	lui	a5,0x12345
    21f6:	67878793          	addi	a5,a5,1656 # 12345678 <_data_lma+0x1233be30>
{
    21fa:	892a                	mv	s2,a0
    s = WCHNET_ConfigLIB(&cfg);
    21fc:	0848                	addi	a0,sp,20
{
    21fe:	c62e                	sw	a1,12(sp)
    2200:	c432                	sw	a2,8(sp)
    2202:	84b6                	mv	s1,a3
    memset(&cfg,0,sizeof(cfg));
    2204:	dc02                	sw	zero,56(sp)
    cfg.CheckValid = WCHNET_CFG_VALID;
    2206:	de3e                	sw	a5,60(sp)
    s = WCHNET_ConfigLIB(&cfg);
    2208:	505000ef          	jal	ra,2f0c <WCHNET_ConfigLIB>
    if( s ){
    220c:	842a                	mv	s0,a0
    220e:	e911                	bnez	a0,2222 <ETH_LibInit+0x7c>
       return (s);
    }
    s = WCHNET_Init(ip,gwip,mask,macaddr);
    2210:	4622                	lw	a2,8(sp)
    2212:	45b2                	lw	a1,12(sp)
    2214:	86a6                	mv	a3,s1
    2216:	854a                	mv	a0,s2
    2218:	433000ef          	jal	ra,2e4a <WCHNET_Init>
    221c:	842a                	mv	s0,a0
    ETH_Init( macaddr );
    221e:	8526                	mv	a0,s1
    2220:	3de5                	jal	2118 <ETH_Init>
    return (s);
}
    2222:	8522                	mv	a0,s0
    2224:	6121                	addi	sp,sp,64
    2226:	feffd06f          	j	214 <__riscv_restore_0>

0000222a <ES8388_Contrl_Init>:
 * @brief   I2SSD
 *
 * @return  none
 */
void ES8388_Contrl_Init(void)
{
    222a:	fc7fd2ef          	jal	t0,1f0 <__riscv_save_0>
    222e:	1141                	addi	sp,sp,-16
    GPIO_InitTypeDef GPIO_InitStructure;

    RCC_APB2PeriphClockCmd(RCC_APB2Periph_GPIOC,ENABLE);
    2230:	4585                	li	a1,1
    2232:	4541                	li	a0,16
    2234:	f1ffe0ef          	jal	ra,1152 <RCC_APB2PeriphClockCmd>
	GPIO_InitStructure.GPIO_Pin = GPIO_Pin_13;
    2238:	6789                	lui	a5,0x2
    223a:	827c                	sh	a5,4(sp)
    GPIO_InitStructure.GPIO_Mode = GPIO_Mode_Out_PP;
    223c:	47c1                	li	a5,16
    223e:	c63e                	sw	a5,12(sp)
    GPIO_InitStructure.GPIO_Speed=GPIO_Speed_50MHz;
    GPIO_Init(GPIOC, &GPIO_InitStructure);
    2240:	004c                	addi	a1,sp,4
    GPIO_InitStructure.GPIO_Speed=GPIO_Speed_50MHz;
    2242:	478d                	li	a5,3
    GPIO_Init(GPIOC, &GPIO_InitStructure);
    2244:	40011537          	lui	a0,0x40011
    GPIO_InitStructure.GPIO_Speed=GPIO_Speed_50MHz;
    2248:	c43e                	sw	a5,8(sp)
    GPIO_Init(GPIOC, &GPIO_InitStructure);
    224a:	a2ffe0ef          	jal	ra,c78 <GPIO_Init>
}
    224e:	0141                	addi	sp,sp,16
    2250:	fc5fd06f          	j	214 <__riscv_restore_0>

00002254 <ES8388_WaitEvent>:
    ES8388_Write_Reg(0x27, 0xB8);    /* L */
    ES8388_Write_Reg(0x2A, 0xB8);    /* R */
    Delay_Ms(100);
    return 0;
}
u8 ES8388_WaitEvent(I2C_TypeDef* I2Cx, uint32_t I2C_EVENT){
    2254:	f9dfd2ef          	jal	t0,1f0 <__riscv_save_0>
    u16 counter = 0xffff;
    while( !I2C_CheckEvent( I2Cx, I2C_EVENT ) ){
    2258:	6441                	lui	s0,0x10
u8 ES8388_WaitEvent(I2C_TypeDef* I2Cx, uint32_t I2C_EVENT){
    225a:	84aa                	mv	s1,a0
    225c:	892e                	mv	s2,a1
    while( !I2C_CheckEvent( I2Cx, I2C_EVENT ) ){
    225e:	147d                	addi	s0,s0,-1
    2260:	85ca                	mv	a1,s2
    2262:	8526                	mv	a0,s1
    2264:	d13fe0ef          	jal	ra,f76 <I2C_CheckEvent>
    2268:	c501                	beqz	a0,2270 <ES8388_WaitEvent+0x1c>
        counter--;
        if(counter == 0){
            return 1;
        }
    }
    return 0;
    226a:	4501                	li	a0,0
}
    226c:	fa9fd06f          	j	214 <__riscv_restore_0>
        if(counter == 0){
    2270:	147d                	addi	s0,s0,-1
    2272:	0442                	slli	s0,s0,0x10
    2274:	8041                	srli	s0,s0,0x10
    2276:	f46d                	bnez	s0,2260 <ES8388_WaitEvent+0xc>
            return 1;
    2278:	4505                	li	a0,1
    227a:	bfcd                	j	226c <ES8388_WaitEvent+0x18>

0000227c <ES8388_Write_Reg>:
u8 ES8388_Write_Reg(u8 reg, u8 val)
{
    227c:	f5bfd2ef          	jal	t0,1d6 <__riscv_save_4>
    u16 timeout;
    
    // I2C
    timeout = 0xFFFF;
    while( I2C_GetFlagStatus( ES8388_IIC, I2C_FLAG_BUSY ) != RESET ) {
    2280:	6441                	lui	s0,0x10
    2282:	400054b7          	lui	s1,0x40005
{
    2286:	8a2a                	mv	s4,a0
    2288:	892e                	mv	s2,a1
    while( I2C_GetFlagStatus( ES8388_IIC, I2C_FLAG_BUSY ) != RESET ) {
    228a:	147d                	addi	s0,s0,-1
    228c:	40048993          	addi	s3,s1,1024 # 40005400 <_eusrstack+0x1fff5400>
    2290:	000205b7          	lui	a1,0x20
    2294:	854e                	mv	a0,s3
    2296:	cf7fe0ef          	jal	ra,f8c <I2C_GetFlagStatus>
    229a:	e95d                	bnez	a0,2350 <ES8388_Write_Reg+0xd4>
        timeout--;
        if(timeout == 0) return 1;
    }
    
    // 
    I2C_GenerateSTART( ES8388_IIC, ENABLE );
    229c:	4585                	li	a1,1
    229e:	40048513          	addi	a0,s1,1024
    22a2:	c8bfe0ef          	jal	ra,f2c <I2C_GenerateSTART>
    if(ES8388_WaitEvent( ES8388_IIC, I2C_EVENT_MASTER_MODE_SELECT )) return 1;
    22a6:	000305b7          	lui	a1,0x30
    22aa:	0585                	addi	a1,a1,1
    22ac:	40048513          	addi	a0,s1,1024
    22b0:	3755                	jal	2254 <ES8388_WaitEvent>
    22b2:	e15d                	bnez	a0,2358 <ES8388_Write_Reg+0xdc>
    
    // 
    I2C_Send7bitAddress(ES8388_IIC,((ES8388_ADDR << 1) | 0),I2C_Direction_Transmitter);
    22b4:	02000593          	li	a1,32
    22b8:	40048513          	addi	a0,s1,1024
    22bc:	4601                	li	a2,0
    22be:	ca7fe0ef          	jal	ra,f64 <I2C_Send7bitAddress>
    if(ES8388_WaitEvent( ES8388_IIC, I2C_EVENT_MASTER_TRANSMITTER_MODE_SELECTED )) return 1;
    22c2:	000705b7          	lui	a1,0x70
    22c6:	08258593          	addi	a1,a1,130 # 70082 <_data_lma+0x6683a>
    22ca:	40048513          	addi	a0,s1,1024
    22ce:	3759                	jal	2254 <ES8388_WaitEvent>
    22d0:	e541                	bnez	a0,2358 <ES8388_Write_Reg+0xdc>
    22d2:	6441                	lui	s0,0x10

    // 
    timeout = 0xFFFF;
    while( I2C_GetFlagStatus( ES8388_IIC, I2C_FLAG_TXE ) ==  RESET ) {
    22d4:	100009b7          	lui	s3,0x10000
    22d8:	400054b7          	lui	s1,0x40005
    22dc:	147d                	addi	s0,s0,-1
    22de:	08098993          	addi	s3,s3,128 # 10000080 <_data_lma+0xfff6838>
    22e2:	40048a93          	addi	s5,s1,1024 # 40005400 <_eusrstack+0x1fff5400>
    22e6:	85ce                	mv	a1,s3
    22e8:	8556                	mv	a0,s5
    22ea:	ca3fe0ef          	jal	ra,f8c <I2C_GetFlagStatus>
    22ee:	c92d                	beqz	a0,2360 <ES8388_Write_Reg+0xe4>
        timeout--;
        if(timeout == 0) return 1;
    }
    I2C_SendData(ES8388_IIC,reg);
    22f0:	85d2                	mv	a1,s4
    22f2:	40048513          	addi	a0,s1,1024
    22f6:	c6bfe0ef          	jal	ra,f60 <I2C_SendData>
    if(ES8388_WaitEvent( ES8388_IIC, I2C_EVENT_MASTER_BYTE_TRANSMITTED )) return 1;
    22fa:	000705b7          	lui	a1,0x70
    22fe:	08458593          	addi	a1,a1,132 # 70084 <_data_lma+0x6683c>
    2302:	40048513          	addi	a0,s1,1024
    2306:	37b9                	jal	2254 <ES8388_WaitEvent>
    2308:	e921                	bnez	a0,2358 <ES8388_Write_Reg+0xdc>
    230a:	6441                	lui	s0,0x10

    // 
    timeout = 0xFFFF;
    while( I2C_GetFlagStatus( ES8388_IIC, I2C_FLAG_TXE ) ==  RESET ) {
    230c:	100009b7          	lui	s3,0x10000
    2310:	400054b7          	lui	s1,0x40005
    if(ES8388_WaitEvent( ES8388_IIC, I2C_EVENT_MASTER_BYTE_TRANSMITTED )) return 1;
    2314:	147d                	addi	s0,s0,-1
    while( I2C_GetFlagStatus( ES8388_IIC, I2C_FLAG_TXE ) ==  RESET ) {
    2316:	08098993          	addi	s3,s3,128 # 10000080 <_data_lma+0xfff6838>
    231a:	40048a13          	addi	s4,s1,1024 # 40005400 <_eusrstack+0x1fff5400>
    231e:	85ce                	mv	a1,s3
    2320:	8552                	mv	a0,s4
    2322:	c6bfe0ef          	jal	ra,f8c <I2C_GetFlagStatus>
    2326:	c131                	beqz	a0,236a <ES8388_Write_Reg+0xee>
        timeout--;
        if(timeout == 0) return 1;
    }
    I2C_SendData(ES8388_IIC,val & 0XFF); 
    2328:	85ca                	mv	a1,s2
    232a:	40048513          	addi	a0,s1,1024
    232e:	c33fe0ef          	jal	ra,f60 <I2C_SendData>
    if(ES8388_WaitEvent( ES8388_IIC, I2C_EVENT_MASTER_BYTE_TRANSMITTED )) return 1;
    2332:	000705b7          	lui	a1,0x70
    2336:	08458593          	addi	a1,a1,132 # 70084 <_data_lma+0x6683c>
    233a:	40048513          	addi	a0,s1,1024
    233e:	3f19                	jal	2254 <ES8388_WaitEvent>
    2340:	842a                	mv	s0,a0
    2342:	e919                	bnez	a0,2358 <ES8388_Write_Reg+0xdc>

    // 
    I2C_GenerateSTOP( ES8388_IIC, ENABLE );
    2344:	4585                	li	a1,1
    2346:	40048513          	addi	a0,s1,1024
    234a:	bfdfe0ef          	jal	ra,f46 <I2C_GenerateSTOP>
    return 0;
    234e:	a031                	j	235a <ES8388_Write_Reg+0xde>
        if(timeout == 0) return 1;
    2350:	147d                	addi	s0,s0,-1
    2352:	0442                	slli	s0,s0,0x10
    2354:	8041                	srli	s0,s0,0x10
    2356:	fc0d                	bnez	s0,2290 <ES8388_Write_Reg+0x14>
    2358:	4405                	li	s0,1
}
    235a:	8522                	mv	a0,s0
    235c:	eaffd06f          	j	20a <__riscv_restore_4>
        if(timeout == 0) return 1;
    2360:	147d                	addi	s0,s0,-1
    2362:	0442                	slli	s0,s0,0x10
    2364:	8041                	srli	s0,s0,0x10
    2366:	f041                	bnez	s0,22e6 <ES8388_Write_Reg+0x6a>
    2368:	bfc5                	j	2358 <ES8388_Write_Reg+0xdc>
        if(timeout == 0) return 1;
    236a:	147d                	addi	s0,s0,-1
    236c:	0442                	slli	s0,s0,0x10
    236e:	8041                	srli	s0,s0,0x10
    2370:	f45d                	bnez	s0,231e <ES8388_Write_Reg+0xa2>
    2372:	b7dd                	j	2358 <ES8388_Write_Reg+0xdc>

00002374 <ES8388_Init>:
{
    2374:	e7dfd2ef          	jal	t0,1f0 <__riscv_save_0>
    2378:	1101                	addi	sp,sp,-32
    RCC_APB2PeriphClockCmd( ES8388_IIC_GPIO_CLK , ENABLE );
    237a:	4585                	li	a1,1
    237c:	4521                	li	a0,8
    237e:	dd5fe0ef          	jal	ra,1152 <RCC_APB2PeriphClockCmd>
    RCC_APB2PeriphClockCmd( RCC_APB2Periph_AFIO, ENABLE );
    2382:	4585                	li	a1,1
    2384:	4505                	li	a0,1
    2386:	dcdfe0ef          	jal	ra,1152 <RCC_APB2PeriphClockCmd>
    GPIO_PinRemapConfig(GPIO_Remap_I2C1, ENABLE); // I2C1PB8PB9
    238a:	4585                	li	a1,1
    238c:	4509                	li	a0,2
    238e:	9b3fe0ef          	jal	ra,d40 <GPIO_PinRemapConfig>
    RCC_APB1PeriphClockCmd( ES8388_IIC_CLK, ENABLE );
    2392:	4585                	li	a1,1
    2394:	00200537          	lui	a0,0x200
    2398:	dd9fe0ef          	jal	ra,1170 <RCC_APB1PeriphClockCmd>
    GPIO_SetBits(GPIOB,GPIO_Pin_8|GPIO_Pin_9);
    239c:	40011437          	lui	s0,0x40011
    23a0:	c0040513          	addi	a0,s0,-1024 # 40010c00 <_eusrstack+0x20000c00>
    23a4:	30000593          	li	a1,768
    23a8:	991fe0ef          	jal	ra,d38 <GPIO_SetBits>
    GPIO_InitStructure.GPIO_Pin = ES8388_IIC_SCL_PIN;
    23ac:	10000793          	li	a5,256
    GPIO_InitStructure.GPIO_Mode = GPIO_Mode_AF_OD;
    23b0:	4971                	li	s2,28
    GPIO_InitStructure.GPIO_Speed = GPIO_Speed_50MHz;
    23b2:	448d                	li	s1,3
    GPIO_Init( ES8388_IIC_GPIO_PORT, &GPIO_InitStructure );
    23b4:	004c                	addi	a1,sp,4
    23b6:	c0040513          	addi	a0,s0,-1024
    GPIO_InitStructure.GPIO_Pin = ES8388_IIC_SCL_PIN;
    23ba:	827c                	sh	a5,4(sp)
    GPIO_InitStructure.GPIO_Mode = GPIO_Mode_AF_OD;
    23bc:	c64a                	sw	s2,12(sp)
    GPIO_InitStructure.GPIO_Speed = GPIO_Speed_50MHz;
    23be:	c426                	sw	s1,8(sp)
    GPIO_Init( ES8388_IIC_GPIO_PORT, &GPIO_InitStructure );
    23c0:	8b9fe0ef          	jal	ra,c78 <GPIO_Init>
    GPIO_InitStructure.GPIO_Pin = ES8388_IIC_SDA_PIN;
    23c4:	20000793          	li	a5,512
    GPIO_Init( ES8388_IIC_GPIO_PORT, &GPIO_InitStructure );
    23c8:	004c                	addi	a1,sp,4
    23ca:	c0040513          	addi	a0,s0,-1024
    GPIO_InitStructure.GPIO_Pin = ES8388_IIC_SDA_PIN;
    23ce:	827c                	sh	a5,4(sp)
    GPIO_InitStructure.GPIO_Mode = GPIO_Mode_AF_OD;
    23d0:	c64a                	sw	s2,12(sp)
    GPIO_InitStructure.GPIO_Speed = GPIO_Speed_50MHz;
    23d2:	c426                	sw	s1,8(sp)
    GPIO_Init( ES8388_IIC_GPIO_PORT, &GPIO_InitStructure );
    23d4:	8a5fe0ef          	jal	ra,c78 <GPIO_Init>
    I2C_InitTSturcture.I2C_ClockSpeed = ES8388_IIC_BOUND;
    23d8:	67e1                	lui	a5,0x18
    23da:	6a078793          	addi	a5,a5,1696 # 186a0 <_data_lma+0xee58>
    23de:	c83e                	sw	a5,16(sp)
    I2C_InitTSturcture.I2C_Mode = I2C_Mode_I2C;
    23e0:	400007b7          	lui	a5,0x40000
    23e4:	ca3e                	sw	a5,20(sp)
    I2C_InitTSturcture.I2C_OwnAddress1 = 0x01;
    23e6:	040007b7          	lui	a5,0x4000
    I2C_Init( ES8388_IIC, &I2C_InitTSturcture );
    23ea:	40005437          	lui	s0,0x40005
    I2C_InitTSturcture.I2C_OwnAddress1 = 0x01;
    23ee:	0785                	addi	a5,a5,1
    23f0:	cc3e                	sw	a5,24(sp)
    I2C_Init( ES8388_IIC, &I2C_InitTSturcture );
    23f2:	080c                	addi	a1,sp,16
    I2C_InitTSturcture.I2C_AcknowledgedAddress = I2C_AcknowledgedAddress_7bit;
    23f4:	6791                	lui	a5,0x4
    I2C_Init( ES8388_IIC, &I2C_InitTSturcture );
    23f6:	40040513          	addi	a0,s0,1024 # 40005400 <_eusrstack+0x1fff5400>
    I2C_InitTSturcture.I2C_AcknowledgedAddress = I2C_AcknowledgedAddress_7bit;
    23fa:	86fc                	sh	a5,28(sp)
    I2C_Init( ES8388_IIC, &I2C_InitTSturcture );
    23fc:	a1bfe0ef          	jal	ra,e16 <I2C_Init>
    I2C_Cmd( ES8388_IIC, ENABLE );
    2400:	40040513          	addi	a0,s0,1024
    2404:	4585                	li	a1,1
    2406:	b0ffe0ef          	jal	ra,f14 <I2C_Cmd>
    ES8388_Contrl_Init();
    240a:	e21ff0ef          	jal	ra,222a <ES8388_Contrl_Init>
    ES8388_Write_Reg(0, 0x80);
    240e:	08000593          	li	a1,128
    2412:	4501                	li	a0,0
    2414:	e69ff0ef          	jal	ra,227c <ES8388_Write_Reg>
    ES8388_Write_Reg(0, 0x00);
    2418:	4581                	li	a1,0
    241a:	4501                	li	a0,0
    241c:	e61ff0ef          	jal	ra,227c <ES8388_Write_Reg>
    Delay_Ms(100);				//
    2420:	06400513          	li	a0,100
    2424:	2a55                	jal	25d8 <Delay_Ms>
    ES8388_Write_Reg(0x01, 0x58); //
    2426:	05800593          	li	a1,88
    242a:	4505                	li	a0,1
    242c:	e51ff0ef          	jal	ra,227c <ES8388_Write_Reg>
    ES8388_Write_Reg(0x01, 0x50); //
    2430:	05000593          	li	a1,80
    2434:	4505                	li	a0,1
    2436:	e47ff0ef          	jal	ra,227c <ES8388_Write_Reg>
    ES8388_Write_Reg(0x02, 0xF3); //ADCDAC
    243a:	0f300593          	li	a1,243
    243e:	4509                	li	a0,2
    2440:	e3dff0ef          	jal	ra,227c <ES8388_Write_Reg>
    ES8388_Write_Reg(0x02, 0xF0); //ADCDAC
    2444:	0f000593          	li	a1,240
    2448:	4509                	li	a0,2
    244a:	e33ff0ef          	jal	ra,227c <ES8388_Write_Reg>
    ES8388_Write_Reg(0x03, 0x09);    /*  */
    244e:	45a5                	li	a1,9
    2450:	450d                	li	a0,3
    2452:	e2bff0ef          	jal	ra,227c <ES8388_Write_Reg>
    ES8388_Write_Reg(0x00, 0x06);    /*  500K */
    2456:	4599                	li	a1,6
    2458:	4501                	li	a0,0
    245a:	e23ff0ef          	jal	ra,227c <ES8388_Write_Reg>
    ES8388_Write_Reg(0x04, 0x00);    /* DAC */
    245e:	4581                	li	a1,0
    2460:	4511                	li	a0,4
    2462:	e1bff0ef          	jal	ra,227c <ES8388_Write_Reg>
    ES8388_Write_Reg(0x08, 0x00);    /* MCLK */
    2466:	4581                	li	a1,0
    2468:	4521                	li	a0,8
    246a:	e13ff0ef          	jal	ra,227c <ES8388_Write_Reg>
    ES8388_Write_Reg(0x2B, 0x80);    /* DAC    DACLRCADCLRC */
    246e:	08000593          	li	a1,128
    2472:	02b00513          	li	a0,43
    2476:	e07ff0ef          	jal	ra,227c <ES8388_Write_Reg>
    ES8388_Write_Reg(0x09, 0x88);    /* ADC L/R PGA+24dB */
    247a:	08800593          	li	a1,136
    247e:	4525                	li	a0,9
    2480:	dfdff0ef          	jal	ra,227c <ES8388_Write_Reg>
    ES8388_Write_Reg(0x0C, 0x4C);
    2484:	04c00593          	li	a1,76
    2488:	4531                	li	a0,12
    248a:	df3ff0ef          	jal	ra,227c <ES8388_Write_Reg>
    ES8388_Write_Reg(0x0D, 0x02);    /* ADC MCLK/=256 */
    248e:	4589                	li	a1,2
    2490:	4535                	li	a0,13
    2492:	debff0ef          	jal	ra,227c <ES8388_Write_Reg>
    ES8388_Write_Reg(0x10, 0x00);    /* ADC L   */
    2496:	4581                	li	a1,0
    2498:	4541                	li	a0,16
    249a:	de3ff0ef          	jal	ra,227c <ES8388_Write_Reg>
    ES8388_Write_Reg(0x11, 0x00);    /* ADC R   */
    249e:	4581                	li	a1,0
    24a0:	4545                	li	a0,17
    24a2:	ddbff0ef          	jal	ra,227c <ES8388_Write_Reg>
    ES8388_Write_Reg(0x12, 0x00);     //ACL
    24a6:	4581                	li	a1,0
    24a8:	4549                	li	a0,18
    24aa:	dd3ff0ef          	jal	ra,227c <ES8388_Write_Reg>
    ES8388_Write_Reg(0x17, 0x18);    /* DAC 16bit */
    24ae:	45e1                	li	a1,24
    24b0:	455d                	li	a0,23
    24b2:	dcbff0ef          	jal	ra,227c <ES8388_Write_Reg>
    ES8388_Write_Reg(0x18, 0x02);    /* DAC  MCLK/=256 */
    24b6:	4589                	li	a1,2
    24b8:	4561                	li	a0,24
    24ba:	dc3ff0ef          	jal	ra,227c <ES8388_Write_Reg>
    ES8388_Write_Reg(0x1A, 0x00);    /* DAC L   */
    24be:	4581                	li	a1,0
    24c0:	4569                	li	a0,26
    24c2:	dbbff0ef          	jal	ra,227c <ES8388_Write_Reg>
    ES8388_Write_Reg(0x1B, 0x00);    /* DAC R   */
    24c6:	4581                	li	a1,0
    24c8:	456d                	li	a0,27
    24ca:	db3ff0ef          	jal	ra,227c <ES8388_Write_Reg>
    ES8388_Write_Reg(0x27, 0xB8);    /* L */
    24ce:	0b800593          	li	a1,184
    24d2:	02700513          	li	a0,39
    24d6:	da7ff0ef          	jal	ra,227c <ES8388_Write_Reg>
    ES8388_Write_Reg(0x2A, 0xB8);    /* R */
    24da:	0b800593          	li	a1,184
    24de:	02a00513          	li	a0,42
    24e2:	d9bff0ef          	jal	ra,227c <ES8388_Write_Reg>
    Delay_Ms(100);
    24e6:	06400513          	li	a0,100
    24ea:	20fd                	jal	25d8 <Delay_Ms>
}
    24ec:	4501                	li	a0,0
    24ee:	6105                	addi	sp,sp,32
    24f0:	d25fd06f          	j	214 <__riscv_restore_0>

000024f4 <ES8388_close>:
   ES8388_Write_Reg(0x31, volume);
}

//ES8388
void ES8388_close(void)
{
    24f4:	cfdfd2ef          	jal	t0,1f0 <__riscv_save_0>
    ES8388_Init();
    24f8:	e7dff0ef          	jal	ra,2374 <ES8388_Init>
    ES8388_Write_Reg(0, 0x80);
    24fc:	08000593          	li	a1,128
    2500:	4501                	li	a0,0
    2502:	d7bff0ef          	jal	ra,227c <ES8388_Write_Reg>
    ES8388_Write_Reg(0, 0x00);
    2506:	4581                	li	a1,0
    2508:	4501                	li	a0,0
    250a:	d73ff0ef          	jal	ra,227c <ES8388_Write_Reg>
    Delay_Ms(100);				//
    250e:	06400513          	li	a0,100
    2512:	20d9                	jal	25d8 <Delay_Ms>
    ES8388_Write_Reg(0x01, 0x5D);
    2514:	05d00593          	li	a1,93
    2518:	4505                	li	a0,1
    251a:	d63ff0ef          	jal	ra,227c <ES8388_Write_Reg>
    ES8388_Write_Reg(0x02, 0x1F); 
    251e:	45fd                	li	a1,31
    2520:	4509                	li	a0,2
    2522:	d5bff0ef          	jal	ra,227c <ES8388_Write_Reg>
    ES8388_Write_Reg(0x04, 0xC0); 
    2526:	0c000593          	li	a1,192
    252a:	4511                	li	a0,4
    252c:	d51ff0ef          	jal	ra,227c <ES8388_Write_Reg>
    2530:	ce5fd06f          	j	214 <__riscv_restore_0>

00002534 <LED_Init>:
#include "led.h"

void LED_Init(void)
{
    2534:	cbdfd2ef          	jal	t0,1f0 <__riscv_save_0>
    2538:	1141                	addi	sp,sp,-16
    GPIO_InitTypeDef GPIO_InitStructure;

    RCC_APB2PeriphClockCmd(LED_GPIO_CLK, ENABLE);
    253a:	4585                	li	a1,1
    253c:	4541                	li	a0,16
    253e:	c15fe0ef          	jal	ra,1152 <RCC_APB2PeriphClockCmd>

    GPIO_InitStructure.GPIO_Pin = LED_RED_PIN | LED_GREEN_PIN | LED_BLUE_PIN;
    2542:	479d                	li	a5,7
    2544:	827c                	sh	a5,4(sp)
    GPIO_InitStructure.GPIO_Mode = GPIO_Mode_Out_PP;
    2546:	47c1                	li	a5,16
    2548:	c63e                	sw	a5,12(sp)
    GPIO_InitStructure.GPIO_Speed = GPIO_Speed_50MHz;
    GPIO_Init(LED_GPIO_PORT, &GPIO_InitStructure);
    254a:	004c                	addi	a1,sp,4
    GPIO_InitStructure.GPIO_Speed = GPIO_Speed_50MHz;
    254c:	478d                	li	a5,3
    GPIO_Init(LED_GPIO_PORT, &GPIO_InitStructure);
    254e:	40011537          	lui	a0,0x40011
    GPIO_InitStructure.GPIO_Speed = GPIO_Speed_50MHz;
    2552:	c43e                	sw	a5,8(sp)
    GPIO_Init(LED_GPIO_PORT, &GPIO_InitStructure);
    2554:	f24fe0ef          	jal	ra,c78 <GPIO_Init>

    LED_RED_OFF();
    2558:	4585                	li	a1,1
    255a:	40011537          	lui	a0,0x40011
    255e:	fdafe0ef          	jal	ra,d38 <GPIO_SetBits>
    LED_GREEN_OFF();
    2562:	4589                	li	a1,2
    2564:	40011537          	lui	a0,0x40011
    2568:	fd0fe0ef          	jal	ra,d38 <GPIO_SetBits>
    LED_BLUE_OFF();
    256c:	4591                	li	a1,4
    256e:	40011537          	lui	a0,0x40011
    2572:	fc6fe0ef          	jal	ra,d38 <GPIO_SetBits>
}
    2576:	0141                	addi	sp,sp,16
    2578:	c9dfd06f          	j	214 <__riscv_restore_0>

0000257c <Delay_Init>:
 *
 * @return  none
 */
void Delay_Init(void)
{
    p_us = SystemCoreClock / 8000000;
    257c:	8141a783          	lw	a5,-2028(gp) # 20000034 <SystemCoreClock>
    2580:	007a1737          	lui	a4,0x7a1
    2584:	20070713          	addi	a4,a4,512 # 7a1200 <_data_lma+0x7979b8>
    2588:	02e7d7b3          	divu	a5,a5,a4
    258c:	0ff7f793          	andi	a5,a5,255
    2590:	8af18323          	sb	a5,-1882(gp) # 200000c6 <p_us>
    p_ms = (uint16_t)p_us * 1000;
    2594:	3e800713          	li	a4,1000
    2598:	02e787b3          	mul	a5,a5,a4
    259c:	8af19223          	sh	a5,-1884(gp) # 200000c4 <p_ms>
}
    25a0:	8082                	ret

000025a2 <Delay_Us>:
 */
void Delay_Us(uint32_t n)
{
    uint32_t i;

    SysTick->SR &= ~(1 << 0);
    25a2:	e000f7b7          	lui	a5,0xe000f
    25a6:	43d8                	lw	a4,4(a5)
    i = (uint32_t)n * p_us;

    SysTick->CMP = i;
    25a8:	4681                	li	a3,0
    SysTick->SR &= ~(1 << 0);
    25aa:	9b79                	andi	a4,a4,-2
    25ac:	c3d8                	sw	a4,4(a5)
    i = (uint32_t)n * p_us;
    25ae:	8a61c703          	lbu	a4,-1882(gp) # 200000c6 <p_us>
    SysTick->CMP = i;
    25b2:	02a70633          	mul	a2,a4,a0
    25b6:	cb90                	sw	a2,16(a5)
    25b8:	cbd4                	sw	a3,20(a5)
    SysTick->CTLR |= (1 << 4);
    25ba:	4398                	lw	a4,0(a5)
    25bc:	01076713          	ori	a4,a4,16
    25c0:	c398                	sw	a4,0(a5)
    SysTick->CTLR |= (1 << 5) | (1 << 0);
    25c2:	4398                	lw	a4,0(a5)
    25c4:	02176713          	ori	a4,a4,33
    25c8:	c398                	sw	a4,0(a5)

    while((SysTick->SR & (1 << 0)) != (1 << 0))
    25ca:	43d8                	lw	a4,4(a5)
    25cc:	8b05                	andi	a4,a4,1
    25ce:	df75                	beqz	a4,25ca <Delay_Us+0x28>
        ;
    SysTick->CTLR &= ~(1 << 0);
    25d0:	4398                	lw	a4,0(a5)
    25d2:	9b79                	andi	a4,a4,-2
    25d4:	c398                	sw	a4,0(a5)
}
    25d6:	8082                	ret

000025d8 <Delay_Ms>:
 */
void Delay_Ms(uint32_t n)
{
    uint32_t i;

    SysTick->SR &= ~(1 << 0);
    25d8:	e000f7b7          	lui	a5,0xe000f
    25dc:	43d8                	lw	a4,4(a5)
    i = (uint32_t)n * p_ms;

    SysTick->CMP = i;
    25de:	4681                	li	a3,0
    SysTick->SR &= ~(1 << 0);
    25e0:	9b79                	andi	a4,a4,-2
    25e2:	c3d8                	sw	a4,4(a5)
    i = (uint32_t)n * p_ms;
    25e4:	8a41d703          	lhu	a4,-1884(gp) # 200000c4 <p_ms>
    SysTick->CMP = i;
    25e8:	02a70633          	mul	a2,a4,a0
    25ec:	cb90                	sw	a2,16(a5)
    25ee:	cbd4                	sw	a3,20(a5)
    SysTick->CTLR |= (1 << 4);
    25f0:	4398                	lw	a4,0(a5)
    25f2:	01076713          	ori	a4,a4,16
    25f6:	c398                	sw	a4,0(a5)
    SysTick->CTLR |= (1 << 5) | (1 << 0);
    25f8:	4398                	lw	a4,0(a5)
    25fa:	02176713          	ori	a4,a4,33
    25fe:	c398                	sw	a4,0(a5)

    while((SysTick->SR & (1 << 0)) != (1 << 0))
    2600:	43d8                	lw	a4,4(a5)
    2602:	8b05                	andi	a4,a4,1
    2604:	df75                	beqz	a4,2600 <Delay_Ms+0x28>
        ;
    SysTick->CTLR &= ~(1 << 0);
    2606:	4398                	lw	a4,0(a5)
    2608:	9b79                	andi	a4,a4,-2
    260a:	c398                	sw	a4,0(a5)
}
    260c:	8082                	ret

0000260e <USART_Printf_Init>:
 * @param   baudrate - USART communication baud rate.
 *
 * @return  None
 */
void USART_Printf_Init(uint32_t baudrate)
{
    260e:	be3fd2ef          	jal	t0,1f0 <__riscv_save_0>
    2612:	842a                	mv	s0,a0
    GPIO_InitTypeDef  GPIO_InitStructure;
    USART_InitTypeDef USART_InitStructure;

#if(DEBUG == DEBUG_UART1)
    RCC_APB2PeriphClockCmd(RCC_APB2Periph_USART1 | RCC_APB2Periph_GPIOA, ENABLE);
    2614:	6511                	lui	a0,0x4
{
    2616:	1101                	addi	sp,sp,-32
    RCC_APB2PeriphClockCmd(RCC_APB2Periph_USART1 | RCC_APB2Periph_GPIOA, ENABLE);
    2618:	4585                	li	a1,1
    261a:	0511                	addi	a0,a0,4
    261c:	b37fe0ef          	jal	ra,1152 <RCC_APB2PeriphClockCmd>

    GPIO_InitStructure.GPIO_Pin = GPIO_Pin_9;
    2620:	20000793          	li	a5,512
    2624:	827c                	sh	a5,4(sp)
    GPIO_InitStructure.GPIO_Speed = GPIO_Speed_50MHz;
    GPIO_InitStructure.GPIO_Mode = GPIO_Mode_AF_PP;
    GPIO_Init(GPIOA, &GPIO_InitStructure);
    2626:	40011537          	lui	a0,0x40011
    GPIO_InitStructure.GPIO_Speed = GPIO_Speed_50MHz;
    262a:	478d                	li	a5,3
    262c:	c43e                	sw	a5,8(sp)
    GPIO_Init(GPIOA, &GPIO_InitStructure);
    262e:	004c                	addi	a1,sp,4
    GPIO_InitStructure.GPIO_Mode = GPIO_Mode_AF_PP;
    2630:	47e1                	li	a5,24
    GPIO_Init(GPIOA, &GPIO_InitStructure);
    2632:	80050513          	addi	a0,a0,-2048 # 40010800 <_eusrstack+0x20000800>
    GPIO_InitStructure.GPIO_Mode = GPIO_Mode_AF_PP;
    2636:	c63e                	sw	a5,12(sp)
    GPIO_Init(GPIOA, &GPIO_InitStructure);
    2638:	e40fe0ef          	jal	ra,c78 <GPIO_Init>
    GPIO_InitStructure.GPIO_Mode = GPIO_Mode_AF_PP;
    GPIO_Init(GPIOB, &GPIO_InitStructure);

#endif

    USART_InitStructure.USART_BaudRate = baudrate;
    263c:	c822                	sw	s0,16(sp)
    USART_InitStructure.USART_Parity = USART_Parity_No;
    USART_InitStructure.USART_HardwareFlowControl = USART_HardwareFlowControl_None;
    USART_InitStructure.USART_Mode = USART_Mode_Tx;

#if(DEBUG == DEBUG_UART1)
    USART_Init(USART1, &USART_InitStructure);
    263e:	40014437          	lui	s0,0x40014
    USART_InitStructure.USART_Parity = USART_Parity_No;
    2642:	000807b7          	lui	a5,0x80
    USART_Init(USART1, &USART_InitStructure);
    2646:	080c                	addi	a1,sp,16
    2648:	80040513          	addi	a0,s0,-2048 # 40013800 <_eusrstack+0x20003800>
    USART_InitStructure.USART_Parity = USART_Parity_No;
    264c:	cc3e                	sw	a5,24(sp)
    USART_InitStructure.USART_WordLength = USART_WordLength_8b;
    264e:	ca02                	sw	zero,20(sp)
    USART_InitStructure.USART_HardwareFlowControl = USART_HardwareFlowControl_None;
    2650:	00011e23          	sh	zero,28(sp)
    USART_Init(USART1, &USART_InitStructure);
    2654:	cadfe0ef          	jal	ra,1300 <USART_Init>
    USART_Cmd(USART1, ENABLE);
    2658:	4585                	li	a1,1
    265a:	80040513          	addi	a0,s0,-2048
    265e:	d31fe0ef          	jal	ra,138e <USART_Cmd>
#elif(DEBUG == DEBUG_UART3)
    USART_Init(USART3, &USART_InitStructure);
    USART_Cmd(USART3, ENABLE);

#endif
}
    2662:	6105                	addi	sp,sp,32
    2664:	bb1fd06f          	j	214 <__riscv_restore_0>

00002668 <_write>:
 *          size - Data length
 *
 * @return  size: Data length
 */
__attribute__((used)) int _write(int fd, char *buf, int size)
{
    2668:	b6ffd2ef          	jal	t0,1d6 <__riscv_save_4>

#else
    for(i = 0; i < size; i++)
    {
#if(DEBUG == DEBUG_UART1)
        while(USART_GetFlagStatus(USART1, USART_FLAG_TC) == RESET);
    266c:	400144b7          	lui	s1,0x40014
{
    2670:	89ae                	mv	s3,a1
    2672:	8932                	mv	s2,a2
    for(i = 0; i < size; i++)
    2674:	4401                	li	s0,0
        while(USART_GetFlagStatus(USART1, USART_FLAG_TC) == RESET);
    2676:	80048493          	addi	s1,s1,-2048 # 40013800 <_eusrstack+0x20003800>
    for(i = 0; i < size; i++)
    267a:	01244563          	blt	s0,s2,2684 <_write+0x1c>
        USART_SendData(USART3, *buf++);
#endif
    }
#endif
    return size;
}
    267e:	854a                	mv	a0,s2
    2680:	b8bfd06f          	j	20a <__riscv_restore_4>
        while(USART_GetFlagStatus(USART1, USART_FLAG_TC) == RESET);
    2684:	04000593          	li	a1,64
    2688:	8526                	mv	a0,s1
    268a:	d23fe0ef          	jal	ra,13ac <USART_GetFlagStatus>
    268e:	d97d                	beqz	a0,2684 <_write+0x1c>
        USART_SendData(USART1, *buf++);
    2690:	008987b3          	add	a5,s3,s0
    2694:	00078583          	lb	a1,0(a5) # 80000 <_data_lma+0x767b8>
    2698:	8526                	mv	a0,s1
    for(i = 0; i < size; i++)
    269a:	0405                	addi	s0,s0,1
        USART_SendData(USART1, *buf++);
    269c:	05c2                	slli	a1,a1,0x10
    269e:	81c1                	srli	a1,a1,0x10
    26a0:	d05fe0ef          	jal	ra,13a4 <USART_SendData>
    26a4:	bfd9                	j	267a <_write+0x12>

000026a6 <__get_MEPC>:
 */
uint32_t __get_MEPC(void)
{
  uint32_t result;

  __ASM volatile ( "csrr %0," "mepc" : "=r" (result) );
    26a6:	34102573          	csrr	a0,mepc
  return (result);
}
    26aa:	8082                	ret

000026ac <__get_MCAUSE>:
 */
uint32_t __get_MCAUSE(void)
{
  uint32_t result;

  __ASM volatile ( "csrr %0," "mcause" : "=r" (result) );
    26ac:	34202573          	csrr	a0,mcause
  return (result);
}
    26b0:	8082                	ret

000026b2 <__get_MTVAL>:
 */
uint32_t __get_MTVAL(void)
{
  uint32_t result;

  __ASM volatile ( "csrr %0," "mtval" : "=r" (result) );
    26b2:	34302573          	csrr	a0,mtval
  return (result);
}
    26b6:	8082                	ret

000026b8 <WCHNET_PeriodicHandle>:
    26b8:	b39fd2ef          	jal	t0,1f0 <__riscv_save_0>
    26bc:	8781a783          	lw	a5,-1928(gp) # 20000098 <LocalTime>
    26c0:	1141                	addi	sp,sp,-16
    26c2:	c63e                	sw	a5,12(sp)
    26c4:	15c010ef          	jal	ra,3820 <WCHNET_GetPHYStatus>
    26c8:	8911                	andi	a0,a0,4
    26ca:	14050063          	beqz	a0,280a <WCHNET_PeriodicHandle+0x152>
    26ce:	8c018793          	addi	a5,gp,-1856 # 200000e0 <TCPTimer>
    26d2:	4398                	lw	a4,0(a5)
    26d4:	46b2                	lw	a3,12(sp)
    26d6:	8e99                	sub	a3,a3,a4
    26d8:	20009737          	lui	a4,0x20009
    26dc:	b5872703          	lw	a4,-1192(a4) # 20008b58 <NetInf+0x1c>
    26e0:	8305                	srli	a4,a4,0x1
    26e2:	00d77663          	bgeu	a4,a3,26ee <WCHNET_PeriodicHandle+0x36>
    26e6:	4732                	lw	a4,12(sp)
    26e8:	c398                	sw	a4,0(a5)
    26ea:	2dd030ef          	jal	ra,61c6 <tcp_tmr>
    26ee:	67b030ef          	jal	ra,6568 <RemoveTimeWaiTCP>
    26f2:	8d01a783          	lw	a5,-1840(gp) # 200000f0 <tcpSendAckFlag>
    26f6:	c791                	beqz	a5,2702 <WCHNET_PeriodicHandle+0x4a>
    26f8:	2f1030ef          	jal	ra,61e8 <tcp_fastsendack>
    26fc:	e119                	bnez	a0,2702 <WCHNET_PeriodicHandle+0x4a>
    26fe:	8c01a823          	sw	zero,-1840(gp) # 200000f0 <tcpSendAckFlag>
    2702:	8bc18493          	addi	s1,gp,-1860 # 200000dc <IPFragTimer>
    2706:	4098                	lw	a4,0(s1)
    2708:	47b2                	lw	a5,12(sp)
    270a:	8f99                	sub	a5,a5,a4
    270c:	3e700713          	li	a4,999
    2710:	00f77663          	bgeu	a4,a5,271c <WCHNET_PeriodicHandle+0x64>
    2714:	05c020ef          	jal	ra,4770 <ip_reass_tmr>
    2718:	47b2                	lw	a5,12(sp)
    271a:	c09c                	sw	a5,0(s1)
    271c:	8a818793          	addi	a5,gp,-1880 # 200000c8 <ARPTimer>
    2720:	4398                	lw	a4,0(a5)
    2722:	46b2                	lw	a3,12(sp)
    2724:	8e99                	sub	a3,a3,a4
    2726:	6705                	lui	a4,0x1
    2728:	38770713          	addi	a4,a4,903 # 1387 <USART_Init+0x87>
    272c:	00d77663          	bgeu	a4,a3,2738 <WCHNET_PeriodicHandle+0x80>
    2730:	4732                	lw	a4,12(sp)
    2732:	c398                	sw	a4,0(a5)
    2734:	41a010ef          	jal	ra,3b4e <etharp_tmr>
    2738:	200097b7          	lui	a5,0x20009
    273c:	b1c78793          	addi	a5,a5,-1252 # 20008b1c <DNSInf>
    2740:	47d8                	lw	a4,12(a5)
    2742:	cf11                	beqz	a4,275e <WCHNET_PeriodicHandle+0xa6>
    2744:	8b818713          	addi	a4,gp,-1864 # 200000d8 <DNSTimer>
    2748:	4310                	lw	a2,0(a4)
    274a:	46b2                	lw	a3,12(sp)
    274c:	8e91                	sub	a3,a3,a2
    274e:	3e700613          	li	a2,999
    2752:	00d67663          	bgeu	a2,a3,275e <WCHNET_PeriodicHandle+0xa6>
    2756:	46b2                	lw	a3,12(sp)
    2758:	43dc                	lw	a5,4(a5)
    275a:	c314                	sw	a3,0(a4)
    275c:	9782                	jalr	a5
    275e:	200094b7          	lui	s1,0x20009
    2762:	ac44a783          	lw	a5,-1340(s1) # 20008ac4 <DHCPCtrl>
    2766:	cba9                	beqz	a5,27b8 <WCHNET_PeriodicHandle+0x100>
    2768:	8b418713          	addi	a4,gp,-1868 # 200000d4 <DHCPfineTimer>
    276c:	431c                	lw	a5,0(a4)
    276e:	46b2                	lw	a3,12(sp)
    2770:	0fa00613          	li	a2,250
    2774:	8e9d                	sub	a3,a3,a5
    2776:	200097b7          	lui	a5,0x20009
    277a:	b947a783          	lw	a5,-1132(a5) # 20008b94 <WCHCfg+0x14>
    277e:	83ed                	srli	a5,a5,0x1b
    2780:	02c787b3          	mul	a5,a5,a2
    2784:	00f6e963          	bltu	a3,a5,2796 <WCHNET_PeriodicHandle+0xde>
    2788:	47b2                	lw	a5,12(sp)
    278a:	c31c                	sw	a5,0(a4)
    278c:	ac448793          	addi	a5,s1,-1340
    2790:	4b9c                	lw	a5,16(a5)
    2792:	c391                	beqz	a5,2796 <WCHNET_PeriodicHandle+0xde>
    2794:	9782                	jalr	a5
    2796:	8b018793          	addi	a5,gp,-1872 # 200000d0 <DHCPcoarseTimer>
    279a:	4398                	lw	a4,0(a5)
    279c:	46b2                	lw	a3,12(sp)
    279e:	8e99                	sub	a3,a3,a4
    27a0:	673d                	lui	a4,0xf
    27a2:	a5f70713          	addi	a4,a4,-1441 # ea5f <_data_lma+0x5217>
    27a6:	00d77963          	bgeu	a4,a3,27b8 <WCHNET_PeriodicHandle+0x100>
    27aa:	4732                	lw	a4,12(sp)
    27ac:	ac448493          	addi	s1,s1,-1340
    27b0:	c398                	sw	a4,0(a5)
    27b2:	48dc                	lw	a5,20(s1)
    27b4:	c391                	beqz	a5,27b8 <WCHNET_PeriodicHandle+0x100>
    27b6:	9782                	jalr	a5
    27b8:	4532                	lw	a0,12(sp)
    27ba:	8ac18493          	addi	s1,gp,-1876 # 200000cc <ArpCheckTime>
    27be:	2c7d                	jal	2a7c <IPCheckTmr>
    27c0:	409c                	lw	a5,0(s1)
    27c2:	4732                	lw	a4,12(sp)
    27c4:	8f1d                	sub	a4,a4,a5
    27c6:	67bd                	lui	a5,0xf
    27c8:	a5f78793          	addi	a5,a5,-1441 # ea5f <_data_lma+0x5217>
    27cc:	00e7f563          	bgeu	a5,a4,27d6 <WCHNET_PeriodicHandle+0x11e>
    27d0:	2c95                	jal	2a44 <SelIPARPSend>
    27d2:	47b2                	lw	a5,12(sp)
    27d4:	c09c                	sw	a5,0(s1)
    27d6:	8cd1c703          	lbu	a4,-1843(gp) # 200000ed <phydata>
    27da:	84be                	mv	s1,a5
    27dc:	0ff77713          	andi	a4,a4,255
    27e0:	c70d                	beqz	a4,280a <WCHNET_PeriodicHandle+0x152>
    27e2:	8cd1c703          	lbu	a4,-1843(gp) # 200000ed <phydata>
    27e6:	0c077713          	andi	a4,a4,192
    27ea:	e31d                	bnez	a4,2810 <WCHNET_PeriodicHandle+0x158>
    27ec:	200097b7          	lui	a5,0x20009
    27f0:	b9c7a783          	lw	a5,-1124(a5) # 20008b9c <WCHCfg+0x1c>
    27f4:	c399                	beqz	a5,27fa <WCHNET_PeriodicHandle+0x142>
    27f6:	4505                	li	a0,1
    27f8:	9782                	jalr	a5
    27fa:	8781a703          	lw	a4,-1928(gp) # 20000098 <LocalTime>
    27fe:	8ce1a423          	sw	a4,-1848(gp) # 200000e8 <phydatatime>
    2802:	04000793          	li	a5,64
    2806:	8cf186a3          	sb	a5,-1843(gp) # 200000ed <phydata>
    280a:	0141                	addi	sp,sp,16
    280c:	a09fd06f          	j	214 <__riscv_restore_0>
    2810:	8cd1c703          	lbu	a4,-1843(gp) # 200000ed <phydata>
    2814:	04077713          	andi	a4,a4,64
    2818:	cb15                	beqz	a4,284c <WCHNET_PeriodicHandle+0x194>
    281a:	8c81a683          	lw	a3,-1848(gp) # 200000e8 <phydatatime>
    281e:	8781a703          	lw	a4,-1928(gp) # 20000098 <LocalTime>
    2822:	8c818913          	addi	s2,gp,-1848 # 200000e8 <phydatatime>
    2826:	8f15                	sub	a4,a4,a3
    2828:	06400693          	li	a3,100
    282c:	fce6ffe3          	bgeu	a3,a4,280a <WCHNET_PeriodicHandle+0x152>
    2830:	200097b7          	lui	a5,0x20009
    2834:	b9c7a783          	lw	a5,-1124(a5) # 20008b9c <WCHCfg+0x1c>
    2838:	c399                	beqz	a5,283e <WCHNET_PeriodicHandle+0x186>
    283a:	4501                	li	a0,0
    283c:	9782                	jalr	a5
    283e:	8781a783          	lw	a5,-1928(gp) # 20000098 <LocalTime>
    2842:	00f92023          	sw	a5,0(s2)
    2846:	f8000793          	li	a5,-128
    284a:	bf75                	j	2806 <WCHNET_PeriodicHandle+0x14e>
    284c:	8cd1c703          	lbu	a4,-1843(gp) # 200000ed <phydata>
    2850:	0762                	slli	a4,a4,0x18
    2852:	8761                	srai	a4,a4,0x18
    2854:	fa075be3          	bgez	a4,280a <WCHNET_PeriodicHandle+0x152>
    2858:	8c81a683          	lw	a3,-1848(gp) # 200000e8 <phydatatime>
    285c:	8781a703          	lw	a4,-1928(gp) # 20000098 <LocalTime>
    2860:	8f15                	sub	a4,a4,a3
    2862:	06400693          	li	a3,100
    2866:	fae6f2e3          	bgeu	a3,a4,280a <WCHNET_PeriodicHandle+0x152>
    286a:	8c0186a3          	sb	zero,-1843(gp) # 200000ed <phydata>
    286e:	bf71                	j	280a <WCHNET_PeriodicHandle+0x152>

00002870 <WCHNET_NetInput>:
    2870:	981fd2ef          	jal	t0,1f0 <__riscv_save_0>
    2874:	20009537          	lui	a0,0x20009
    2878:	bac50513          	addi	a0,a0,-1108 # 20008bac <WCHNetIf>
    287c:	103010ef          	jal	ra,417e <ethernetif_input>
    2880:	995fd06f          	j	214 <__riscv_restore_0>

00002884 <WCHNET_PhyStatus>:
    2884:	96dfd2ef          	jal	t0,1f0 <__riscv_save_0>
    2888:	200097b7          	lui	a5,0x20009
    288c:	b3c78793          	addi	a5,a5,-1220 # 20008b3c <NetInf>
    2890:	57d8                	lw	a4,44(a5)
    2892:	20009437          	lui	s0,0x20009
    2896:	d388                	sw	a0,32(a5)
    2898:	00476713          	ori	a4,a4,4
    289c:	d7d8                	sw	a4,44(a5)
    289e:	8911                	andi	a0,a0,4
    28a0:	b8040793          	addi	a5,s0,-1152 # 20008b80 <WCHCfg>
    28a4:	4f9c                	lw	a5,24(a5)
    28a6:	b8040413          	addi	s0,s0,-1152
    28aa:	cd01                	beqz	a0,28c2 <WCHNET_PhyStatus+0x3e>
    28ac:	c399                	beqz	a5,28b2 <WCHNET_PhyStatus+0x2e>
    28ae:	4501                	li	a0,0
    28b0:	9782                	jalr	a5
    28b2:	4c5c                	lw	a5,28(s0)
    28b4:	c399                	beqz	a5,28ba <WCHNET_PhyStatus+0x36>
    28b6:	4501                	li	a0,0
    28b8:	9782                	jalr	a5
    28ba:	4505                	li	a0,1
    28bc:	22ad                	jal	2a26 <IPCheckParaInit>
    28be:	957fd06f          	j	214 <__riscv_restore_0>
    28c2:	c399                	beqz	a5,28c8 <WCHNET_PhyStatus+0x44>
    28c4:	4505                	li	a0,1
    28c6:	9782                	jalr	a5
    28c8:	4c5c                	lw	a5,28(s0)
    28ca:	dbf5                	beqz	a5,28be <WCHNET_PhyStatus+0x3a>
    28cc:	4505                	li	a0,1
    28ce:	9782                	jalr	a5
    28d0:	b7fd                	j	28be <WCHNET_PhyStatus+0x3a>

000028d2 <WCHNET_Rx>:
    28d2:	88c1a783          	lw	a5,-1908(gp) # 200000ac <pDMARxSet>
    28d6:	00052023          	sw	zero,0(a0)
    28da:	cb9d                	beqz	a5,2910 <WCHNET_Rx+0x3e>
    28dc:	4394                	lw	a3,0(a5)
    28de:	0006db63          	bgez	a3,28f4 <WCHNET_Rx+0x22>
    28e2:	47d4                	lw	a3,12(a5)
    28e4:	4290                	lw	a2,0(a3)
    28e6:	02064563          	bltz	a2,2910 <WCHNET_Rx+0x3e>
    28ea:	439c                	lw	a5,0(a5)
    28ec:	0007d463          	bgez	a5,28f4 <WCHNET_Rx+0x22>
    28f0:	88d1a623          	sw	a3,-1908(gp) # 200000ac <pDMARxSet>
    28f4:	88c1a783          	lw	a5,-1908(gp) # 200000ac <pDMARxSet>
    28f8:	6591                	lui	a1,0x4
    28fa:	4601                	li	a2,0
    28fc:	15fd                	addi	a1,a1,-1
    28fe:	4835                	li	a6,13
    2900:	800008b7          	lui	a7,0x80000
    2904:	4394                	lw	a3,0(a5)
    2906:	0006d763          	bgez	a3,2914 <WCHNET_Rx+0x42>
    290a:	c219                	beqz	a2,2910 <WCHNET_Rx+0x3e>
    290c:	88f1a623          	sw	a5,-1908(gp) # 200000ac <pDMARxSet>
    2910:	4501                	li	a0,0
    2912:	8082                	ret
    2914:	4394                	lw	a3,0(a5)
    2916:	01069313          	slli	t1,a3,0x10
    291a:	04034263          	bltz	t1,295e <WCHNET_Rx+0x8c>
    291e:	4394                	lw	a3,0(a5)
    2920:	1006f693          	andi	a3,a3,256
    2924:	ce8d                	beqz	a3,295e <WCHNET_Rx+0x8c>
    2926:	4394                	lw	a3,0(a5)
    2928:	2006f693          	andi	a3,a3,512
    292c:	ca8d                	beqz	a3,295e <WCHNET_Rx+0x8c>
    292e:	4394                	lw	a3,0(a5)
    2930:	82c1                	srli	a3,a3,0x10
    2932:	8eed                	and	a3,a3,a1
    2934:	16f1                	addi	a3,a3,-4
    2936:	c114                	sw	a3,0(a0)
    2938:	02d87163          	bgeu	a6,a3,295a <WCHNET_Rx+0x88>
    293c:	4394                	lw	a3,0(a5)
    293e:	0206f693          	andi	a3,a3,32
    2942:	ea81                	bnez	a3,2952 <WCHNET_Rx+0x80>
    2944:	c219                	beqz	a2,294a <WCHNET_Rx+0x78>
    2946:	88f1a623          	sw	a5,-1908(gp) # 200000ac <pDMARxSet>
    294a:	479c                	lw	a5,8(a5)
    294c:	c15c                	sw	a5,4(a0)
    294e:	4505                	li	a0,1
    2950:	8082                	ret
    2952:	4394                	lw	a3,0(a5)
    2954:	0816f693          	andi	a3,a3,129
    2958:	d6f5                	beqz	a3,2944 <WCHNET_Rx+0x72>
    295a:	00052023          	sw	zero,0(a0)
    295e:	0117a023          	sw	a7,0(a5)
    2962:	4605                	li	a2,1
    2964:	47dc                	lw	a5,12(a5)
    2966:	bf79                	j	2904 <WCHNET_Rx+0x32>

00002968 <setRxBuffAddr>:
    2968:	88c1a703          	lw	a4,-1908(gp) # 200000ac <pDMARxSet>
    296c:	800006b7          	lui	a3,0x80000
    2970:	c314                	sw	a3,0(a4)
    2972:	4758                	lw	a4,12(a4)
    2974:	88e1a623          	sw	a4,-1908(gp) # 200000ac <pDMARxSet>
    2978:	8082                	ret

0000297a <WCHNET_Tx>:
    297a:	877fd2ef          	jal	t0,1f0 <__riscv_save_0>
    297e:	8cd1c783          	lbu	a5,-1843(gp) # 200000ed <phydata>
    2982:	0ff7f793          	andi	a5,a5,255
    2986:	e781                	bnez	a5,298e <WCHNET_Tx+0x14>
    2988:	4785                	li	a5,1
    298a:	8cf186a3          	sb	a5,-1843(gp) # 200000ed <phydata>
    298e:	8781a703          	lw	a4,-1928(gp) # 20000098 <LocalTime>
    2992:	8c418793          	addi	a5,gp,-1852 # 200000e4 <TxTimer>
    2996:	cb09                	beqz	a4,29a8 <WCHNET_Tx+0x2e>
    2998:	c398                	sw	a4,0(a5)
    299a:	200097b7          	lui	a5,0x20009
    299e:	ba07a783          	lw	a5,-1120(a5) # 20008ba0 <WCHCfg+0x20>
    29a2:	9782                	jalr	a5
    29a4:	871fd06f          	j	214 <__riscv_restore_0>
    29a8:	4705                	li	a4,1
    29aa:	b7fd                	j	2998 <WCHNET_Tx+0x1e>

000029ac <GetChipID>:
    29ac:	1ffff7b7          	lui	a5,0x1ffff
    29b0:	7067d503          	lhu	a0,1798(a5) # 1ffff706 <_data_lma+0x1fff5ebe>
    29b4:	0f057513          	andi	a0,a0,240
    29b8:	8082                	ret

000029ba <getTxBuffAddr>:
    29ba:	837fd2ef          	jal	t0,1f0 <__riscv_save_0>
    29be:	200097b7          	lui	a5,0x20009
    29c2:	ba07a783          	lw	a5,-1120(a5) # 20008ba0 <WCHCfg+0x20>
    29c6:	4901                	li	s2,0
    29c8:	c7b9                	beqz	a5,2a16 <getTxBuffAddr+0x5c>
    29ca:	8681a483          	lw	s1,-1944(gp) # 20000088 <DMATxDescToSet>
    29ce:	c4a1                	beqz	s1,2a16 <getTxBuffAddr+0x5c>
    29d0:	409c                	lw	a5,0(s1)
    29d2:	0084a903          	lw	s2,8(s1)
    29d6:	8c418413          	addi	s0,gp,-1852 # 200000e4 <TxTimer>
    29da:	0207dc63          	bgez	a5,2a12 <getTxBuffAddr+0x58>
    29de:	fcfff0ef          	jal	ra,29ac <GetChipID>
    29e2:	4014                	lw	a3,0(s0)
    29e4:	4781                	li	a5,0
    29e6:	08000613          	li	a2,128
    29ea:	06300813          	li	a6,99
    29ee:	68a1                	lui	a7,0x8
    29f0:	03000313          	li	t1,48
    29f4:	00c50463          	beq	a0,a2,29fc <getTxBuffAddr+0x42>
    29f8:	02651263          	bne	a0,t1,2a1c <getTxBuffAddr+0x62>
    29fc:	8781a703          	lw	a4,-1928(gp) # 20000098 <LocalTime>
    2a00:	8f15                	sub	a4,a4,a3
    2a02:	00e86463          	bltu	a6,a4,2a0a <getTxBuffAddr+0x50>
    2a06:	00f8fb63          	bgeu	a7,a5,2a1c <getTxBuffAddr+0x62>
    2a0a:	409c                	lw	a5,0(s1)
    2a0c:	0786                	slli	a5,a5,0x1
    2a0e:	8385                	srli	a5,a5,0x1
    2a10:	c09c                	sw	a5,0(s1)
    2a12:	00042023          	sw	zero,0(s0)
    2a16:	854a                	mv	a0,s2
    2a18:	ffcfd06f          	j	214 <__riscv_restore_0>
    2a1c:	4098                	lw	a4,0(s1)
    2a1e:	fe075ae3          	bgez	a4,2a12 <getTxBuffAddr+0x58>
    2a22:	0785                	addi	a5,a5,1
    2a24:	bfc1                	j	29f4 <getTxBuffAddr+0x3a>

00002a26 <IPCheckParaInit>:
    2a26:	8781a703          	lw	a4,-1928(gp) # 20000098 <LocalTime>
    2a2a:	200097b7          	lui	a5,0x20009
    2a2e:	ab878793          	addi	a5,a5,-1352 # 20008ab8 <SelARP>
    2a32:	a388                	sb	a0,0(a5)
    2a34:	00079123          	sh	zero,2(a5)
    2a38:	00079223          	sh	zero,4(a5)
    2a3c:	c798                	sw	a4,8(a5)
    2a3e:	000780a3          	sb	zero,1(a5)
    2a42:	8082                	ret

00002a44 <SelIPARPSend>:
    2a44:	facfd2ef          	jal	t0,1f0 <__riscv_save_0>
    2a48:	200094b7          	lui	s1,0x20009
    2a4c:	bac48413          	addi	s0,s1,-1108 # 20008bac <WCHNetIf>
    2a50:	405c                	lw	a5,4(s0)
    2a52:	1141                	addi	sp,sp,-16
    2a54:	006c                	addi	a1,sp,12
    2a56:	bac48513          	addi	a0,s1,-1108
    2a5a:	c63e                	sw	a5,12(sp)
    2a5c:	00042223          	sw	zero,4(s0)
    2a60:	2fe010ef          	jal	ra,3d5e <etharp_request>
    2a64:	47b2                	lw	a5,12(sp)
    2a66:	006c                	addi	a1,sp,12
    2a68:	bac48513          	addi	a0,s1,-1108
    2a6c:	c05c                	sw	a5,4(s0)
    2a6e:	445c                	lw	a5,12(s0)
    2a70:	c63e                	sw	a5,12(sp)
    2a72:	2ec010ef          	jal	ra,3d5e <etharp_request>
    2a76:	0141                	addi	sp,sp,16
    2a78:	f9cfd06f          	j	214 <__riscv_restore_0>

00002a7c <IPCheckTmr>:
    2a7c:	200097b7          	lui	a5,0x20009
    2a80:	ab878793          	addi	a5,a5,-1352 # 20008ab8 <SelARP>
    2a84:	2398                	lbu	a4,0(a5)
    2a86:	e319                	bnez	a4,2a8c <IPCheckTmr+0x10>
    2a88:	c788                	sw	a0,8(a5)
    2a8a:	8082                	ret
    2a8c:	4798                	lw	a4,8(a5)
    2a8e:	3e700693          	li	a3,999
    2a92:	40e50733          	sub	a4,a0,a4
    2a96:	02e6f363          	bgeu	a3,a4,2abc <IPCheckTmr+0x40>
    2a9a:	f56fd2ef          	jal	t0,1f0 <__riscv_save_0>
    2a9e:	23ba                	lhu	a4,2(a5)
    2aa0:	c788                	sw	a0,8(a5)
    2aa2:	4691                	li	a3,4
    2aa4:	00e6f763          	bgeu	a3,a4,2ab2 <IPCheckTmr+0x36>
    2aa8:	4501                	li	a0,0
    2aaa:	f7dff0ef          	jal	ra,2a26 <IPCheckParaInit>
    2aae:	f66fd06f          	j	214 <__riscv_restore_0>
    2ab2:	0705                	addi	a4,a4,1
    2ab4:	a3ba                	sh	a4,2(a5)
    2ab6:	f8fff0ef          	jal	ra,2a44 <SelIPARPSend>
    2aba:	bfd5                	j	2aae <IPCheckTmr+0x32>
    2abc:	8082                	ret

00002abe <IPConflictHandle>:
    2abe:	f32fd2ef          	jal	t0,1f0 <__riscv_save_0>
    2ac2:	842a                	mv	s0,a0
    2ac4:	4501                	li	a0,0
    2ac6:	f61ff0ef          	jal	ra,2a26 <IPCheckParaInit>
    2aca:	200097b7          	lui	a5,0x20009
    2ace:	ab878793          	addi	a5,a5,-1352 # 20008ab8 <SelARP>
    2ad2:	c811                	beqz	s0,2ae6 <IPConflictHandle+0x28>
    2ad4:	4705                	li	a4,1
    2ad6:	b398                	sb	a4,1(a5)
    2ad8:	200097b7          	lui	a5,0x20009
    2adc:	4709                	li	a4,2
    2ade:	b6e7a423          	sw	a4,-1176(a5) # 20008b68 <NetInf+0x2c>
    2ae2:	f32fd06f          	j	214 <__riscv_restore_0>
    2ae6:	000780a3          	sb	zero,1(a5)
    2aea:	bfe5                	j	2ae2 <IPConflictHandle+0x24>

00002aec <NET_TCPError>:
    2aec:	8082                	ret

00002aee <LwipTCPSendCallBack>:
    2aee:	03852803          	lw	a6,56(a0)
    2af2:	02080b63          	beqz	a6,2b28 <LwipTCPSendCallBack+0x3a>
    2af6:	efafd2ef          	jal	t0,1f0 <__riscv_save_0>
    2afa:	5dfc                	lw	a5,124(a1)
    2afc:	4701                	li	a4,0
    2afe:	c791                	beqz	a5,2b0a <LwipTCPSendCallBack+0x1c>
    2b00:	0705                	addi	a4,a4,1
    2b02:	0742                	slli	a4,a4,0x10
    2b04:	8341                	srli	a4,a4,0x10
    2b06:	439c                	lw	a5,0(a5)
    2b08:	bfdd                	j	2afe <LwipTCPSendCallBack+0x10>
    2b0a:	0805a783          	lw	a5,128(a1) # 4080 <ethernet_input+0x3e>
    2b0e:	c791                	beqz	a5,2b1a <LwipTCPSendCallBack+0x2c>
    2b10:	0705                	addi	a4,a4,1
    2b12:	0742                	slli	a4,a4,0x10
    2b14:	8341                	srli	a4,a4,0x10
    2b16:	439c                	lw	a5,0(a5)
    2b18:	bfdd                	j	2b0e <LwipTCPSendCallBack+0x20>
    2b1a:	4681                	li	a3,0
    2b1c:	4601                	li	a2,0
    2b1e:	4581                	li	a1,0
    2b20:	9802                	jalr	a6
    2b22:	4501                	li	a0,0
    2b24:	ef0fd06f          	j	214 <__riscv_restore_0>
    2b28:	4501                	li	a0,0
    2b2a:	8082                	ret

00002b2c <LwipTCPPollCallBack>:
    2b2c:	4501                	li	a0,0
    2b2e:	8082                	ret

00002b30 <SocketIPRAWReceive>:
    2b30:	e98fd2ef          	jal	t0,1c8 <__riscv_save_10>
    2b34:	425c                	lw	a5,4(a2)
    2b36:	00852a03          	lw	s4,8(a0)
    2b3a:	00c52903          	lw	s2,12(a0)
    2b3e:	4900                	lw	s0,16(a0)
    2b40:	84aa                	mv	s1,a0
    2b42:	2388                	lbu	a0,0(a5)
    2b44:	339c                	lbu	a5,1(a5)
    2b46:	89b2                	mv	s3,a2
    2b48:	07a2                	slli	a5,a5,0x8
    2b4a:	8d5d                	or	a0,a0,a5
    2b4c:	726010ef          	jal	ra,4272 <ntohs>
    2b50:	00655593          	srli	a1,a0,0x6
    2b54:	03c5f593          	andi	a1,a1,60
    2b58:	40b005b3          	neg	a1,a1
    2b5c:	854e                	mv	a0,s3
    2b5e:	281020ef          	jal	ra,55de <pbuf_header>
    2b62:	e549                	bnez	a0,2bec <SocketIPRAWReceive+0xbc>
    2b64:	44dc                	lw	a5,12(s1)
    2b66:	4c98                	lw	a4,24(s1)
    2b68:	0089db03          	lhu	s6,8(s3)
    2b6c:	8f99                	sub	a5,a5,a4
    2b6e:	0167f863          	bgeu	a5,s6,2b7e <SocketIPRAWReceive+0x4e>
    2b72:	854e                	mv	a0,s3
    2b74:	2d9020ef          	jal	ra,564c <pbuf_free>
    2b78:	4505                	li	a0,1
    2b7a:	e86fd06f          	j	200 <__riscv_restore_10>
    2b7e:	9a4a                	add	s4,s4,s2
    2b80:	894e                	mv	s2,s3
    2b82:	00a95603          	lhu	a2,10(s2)
    2b86:	408a0ab3          	sub	s5,s4,s0
    2b8a:	00492b83          	lw	s7,4(s2)
    2b8e:	04caf463          	bgeu	s5,a2,2bd6 <SocketIPRAWReceive+0xa6>
    2b92:	8656                	mv	a2,s5
    2b94:	85de                	mv	a1,s7
    2b96:	8522                	mv	a0,s0
    2b98:	211060ef          	jal	ra,95a8 <memcpy>
    2b9c:	00a95783          	lhu	a5,10(s2)
    2ba0:	4498                	lw	a4,8(s1)
    2ba2:	41440433          	sub	s0,s0,s4
    2ba6:	943e                	add	s0,s0,a5
    2ba8:	8622                	mv	a2,s0
    2baa:	015b85b3          	add	a1,s7,s5
    2bae:	853a                	mv	a0,a4
    2bb0:	1f9060ef          	jal	ra,95a8 <memcpy>
    2bb4:	942a                	add	s0,s0,a0
    2bb6:	00092903          	lw	s2,0(s2)
    2bba:	fc0914e3          	bnez	s2,2b82 <SocketIPRAWReceive+0x52>
    2bbe:	854e                	mv	a0,s3
    2bc0:	28d020ef          	jal	ra,564c <pbuf_free>
    2bc4:	4c9c                	lw	a5,24(s1)
    2bc6:	c880                	sw	s0,16(s1)
    2bc8:	97da                	add	a5,a5,s6
    2bca:	cc9c                	sw	a5,24(s1)
    2bcc:	409c                	lw	a5,0(s1)
    2bce:	0047e793          	ori	a5,a5,4
    2bd2:	c09c                	sw	a5,0(s1)
    2bd4:	b755                	j	2b78 <SocketIPRAWReceive+0x48>
    2bd6:	8522                	mv	a0,s0
    2bd8:	85de                	mv	a1,s7
    2bda:	1cf060ef          	jal	ra,95a8 <memcpy>
    2bde:	00a95783          	lhu	a5,10(s2)
    2be2:	943e                	add	s0,s0,a5
    2be4:	fd5799e3          	bne	a5,s5,2bb6 <SocketIPRAWReceive+0x86>
    2be8:	4480                	lw	s0,8(s1)
    2bea:	b7f1                	j	2bb6 <SocketIPRAWReceive+0x86>
    2bec:	4501                	li	a0,0
    2bee:	b771                	j	2b7a <SocketIPRAWReceive+0x4a>

00002bf0 <SocketUdpReceive>:
    2bf0:	ca71                	beqz	a2,2cc4 <SocketUdpReceive+0xd4>
    2bf2:	dd6fd2ef          	jal	t0,1c8 <__riscv_save_10>
    2bf6:	00c52b83          	lw	s7,12(a0)
    2bfa:	4d1c                	lw	a5,24(a0)
    2bfc:	00865b03          	lhu	s6,8(a2) # 8008 <tcp_output+0x62>
    2c00:	8aba                	mv	s5,a4
    2c02:	40fb87b3          	sub	a5,s7,a5
    2c06:	8a36                	mv	s4,a3
    2c08:	8932                	mv	s2,a2
    2c0a:	842a                	mv	s0,a0
    2c0c:	0167f763          	bgeu	a5,s6,2c1a <SocketUdpReceive+0x2a>
    2c10:	8532                	mv	a0,a2
    2c12:	23b020ef          	jal	ra,564c <pbuf_free>
    2c16:	deafd06f          	j	200 <__riscv_restore_10>
    2c1a:	451c                	lw	a5,8(a0)
    2c1c:	4904                	lw	s1,16(a0)
    2c1e:	89b2                	mv	s3,a2
    2c20:	9bbe                	add	s7,s7,a5
    2c22:	00a9d603          	lhu	a2,10(s3)
    2c26:	409b8c33          	sub	s8,s7,s1
    2c2a:	0049ac83          	lw	s9,4(s3)
    2c2e:	06cc7763          	bgeu	s8,a2,2c9c <SocketUdpReceive+0xac>
    2c32:	8662                	mv	a2,s8
    2c34:	85e6                	mv	a1,s9
    2c36:	8526                	mv	a0,s1
    2c38:	171060ef          	jal	ra,95a8 <memcpy>
    2c3c:	00a9d783          	lhu	a5,10(s3)
    2c40:	4418                	lw	a4,8(s0)
    2c42:	417484b3          	sub	s1,s1,s7
    2c46:	94be                	add	s1,s1,a5
    2c48:	8626                	mv	a2,s1
    2c4a:	018c85b3          	add	a1,s9,s8
    2c4e:	853a                	mv	a0,a4
    2c50:	159060ef          	jal	ra,95a8 <memcpy>
    2c54:	94aa                	add	s1,s1,a0
    2c56:	0009a983          	lw	s3,0(s3)
    2c5a:	fc0994e3          	bnez	s3,2c22 <SocketUdpReceive+0x32>
    2c5e:	854a                	mv	a0,s2
    2c60:	1ed020ef          	jal	ra,564c <pbuf_free>
    2c64:	03842803          	lw	a6,56(s0)
    2c68:	04080563          	beqz	a6,2cb2 <SocketUdpReceive+0xc2>
    2c6c:	001a4583          	lbu	a1,1(s4)
    2c70:	000a4783          	lbu	a5,0(s4)
    2c74:	4814                	lw	a3,16(s0)
    2c76:	05a2                	slli	a1,a1,0x8
    2c78:	8ddd                	or	a1,a1,a5
    2c7a:	002a4783          	lbu	a5,2(s4)
    2c7e:	875a                	mv	a4,s6
    2c80:	8656                	mv	a2,s5
    2c82:	07c2                	slli	a5,a5,0x10
    2c84:	8fcd                	or	a5,a5,a1
    2c86:	003a4583          	lbu	a1,3(s4)
    2c8a:	8522                	mv	a0,s0
    2c8c:	05e2                	slli	a1,a1,0x18
    2c8e:	8ddd                	or	a1,a1,a5
    2c90:	9802                	jalr	a6
    2c92:	441c                	lw	a5,8(s0)
    2c94:	00042c23          	sw	zero,24(s0)
    2c98:	c81c                	sw	a5,16(s0)
    2c9a:	bfb5                	j	2c16 <SocketUdpReceive+0x26>
    2c9c:	8526                	mv	a0,s1
    2c9e:	85e6                	mv	a1,s9
    2ca0:	109060ef          	jal	ra,95a8 <memcpy>
    2ca4:	00a9d783          	lhu	a5,10(s3)
    2ca8:	94be                	add	s1,s1,a5
    2caa:	fb8796e3          	bne	a5,s8,2c56 <SocketUdpReceive+0x66>
    2cae:	4404                	lw	s1,8(s0)
    2cb0:	b75d                	j	2c56 <SocketUdpReceive+0x66>
    2cb2:	4c18                	lw	a4,24(s0)
    2cb4:	401c                	lw	a5,0(s0)
    2cb6:	c804                	sw	s1,16(s0)
    2cb8:	975a                	add	a4,a4,s6
    2cba:	0047e793          	ori	a5,a5,4
    2cbe:	cc18                	sw	a4,24(s0)
    2cc0:	c01c                	sw	a5,0(s0)
    2cc2:	bf91                	j	2c16 <SocketUdpReceive+0x26>
    2cc4:	8082                	ret

00002cc6 <WCHSocketTCPReceive>:
    2cc6:	5118                	lw	a4,32(a0)
    2cc8:	4795                	li	a5,5
    2cca:	0cf71a63          	bne	a4,a5,2d9e <WCHSocketTCPReceive+0xd8>
    2cce:	cfafd2ef          	jal	t0,1c8 <__riscv_save_10>
    2cd2:	491c                	lw	a5,16(a0)
    2cd4:	842a                	mv	s0,a0
    2cd6:	557d                	li	a0,-1
    2cd8:	cfd9                	beqz	a5,2d76 <WCHSocketTCPReceive+0xb0>
    2cda:	8a32                	mv	s4,a2
    2cdc:	84ae                	mv	s1,a1
    2cde:	ca55                	beqz	a2,2d92 <WCHSocketTCPReceive+0xcc>
    2ce0:	00842a83          	lw	s5,8(s0)
    2ce4:	4458                	lw	a4,12(s0)
    2ce6:	00865b83          	lhu	s7,8(a2)
    2cea:	8932                	mv	s2,a2
    2cec:	9aba                	add	s5,s5,a4
    2cee:	0ac2                	slli	s5,s5,0x10
    2cf0:	010ada93          	srli	s5,s5,0x10
    2cf4:	01079993          	slli	s3,a5,0x10
    2cf8:	0109d993          	srli	s3,s3,0x10
    2cfc:	413a8b33          	sub	s6,s5,s3
    2d00:	00a95603          	lhu	a2,10(s2)
    2d04:	0b42                	slli	s6,s6,0x10
    2d06:	010b5b13          	srli	s6,s6,0x10
    2d0a:	00492c03          	lw	s8,4(s2)
    2d0e:	06cb7663          	bgeu	s6,a2,2d7a <WCHSocketTCPReceive+0xb4>
    2d12:	865a                	mv	a2,s6
    2d14:	85e2                	mv	a1,s8
    2d16:	853e                	mv	a0,a5
    2d18:	091060ef          	jal	ra,95a8 <memcpy>
    2d1c:	00a95703          	lhu	a4,10(s2)
    2d20:	441c                	lw	a5,8(s0)
    2d22:	016c05b3          	add	a1,s8,s6
    2d26:	41570733          	sub	a4,a4,s5
    2d2a:	99ba                	add	s3,s3,a4
    2d2c:	09c2                	slli	s3,s3,0x10
    2d2e:	0109d993          	srli	s3,s3,0x10
    2d32:	853e                	mv	a0,a5
    2d34:	864e                	mv	a2,s3
    2d36:	073060ef          	jal	ra,95a8 <memcpy>
    2d3a:	013507b3          	add	a5,a0,s3
    2d3e:	00092903          	lw	s2,0(s2)
    2d42:	fa0919e3          	bnez	s2,2cf4 <WCHSocketTCPReceive+0x2e>
    2d46:	4c18                	lw	a4,24(s0)
    2d48:	c81c                	sw	a5,16(s0)
    2d4a:	8552                	mv	a0,s4
    2d4c:	975e                	add	a4,a4,s7
    2d4e:	cc18                	sw	a4,24(s0)
    2d50:	4018                	lw	a4,0(s0)
    2d52:	00476713          	ori	a4,a4,4
    2d56:	c018                	sw	a4,0(s0)
    2d58:	0f5020ef          	jal	ra,564c <pbuf_free>
    2d5c:	38fe                	lhu	a5,54(s1)
    2d5e:	4c18                	lw	a4,24(s0)
    2d60:	8526                	mv	a0,s1
    2d62:	41778bb3          	sub	s7,a5,s7
    2d66:	445c                	lw	a5,12(s0)
    2d68:	03749b23          	sh	s7,54(s1)
    2d6c:	8f99                	sub	a5,a5,a4
    2d6e:	b4de                	sh	a5,44(s1)
    2d70:	685020ef          	jal	ra,5bf4 <tcp_update_rcv_ann_wnd>
    2d74:	4501                	li	a0,0
    2d76:	c8afd06f          	j	200 <__riscv_restore_10>
    2d7a:	853e                	mv	a0,a5
    2d7c:	85e2                	mv	a1,s8
    2d7e:	02b060ef          	jal	ra,95a8 <memcpy>
    2d82:	00a95703          	lhu	a4,10(s2)
    2d86:	00e507b3          	add	a5,a0,a4
    2d8a:	fb671ae3          	bne	a4,s6,2d3e <WCHSocketTCPReceive+0x78>
    2d8e:	441c                	lw	a5,8(s0)
    2d90:	b77d                	j	2d3e <WCHSocketTCPReceive+0x78>
    2d92:	4501                	li	a0,0
    2d94:	f2ed                	bnez	a3,2d76 <WCHSocketTCPReceive+0xb0>
    2d96:	852e                	mv	a0,a1
    2d98:	2ea030ef          	jal	ra,6082 <tcp_close>
    2d9c:	bfe9                	j	2d76 <WCHSocketTCPReceive+0xb0>
    2d9e:	5565                	li	a0,-7
    2da0:	8082                	ret

00002da2 <LwipTcpConnectedCallBack>:
    2da2:	c4efd2ef          	jal	t0,1f0 <__riscv_save_0>
    2da6:	842e                	mv	s0,a1
    2da8:	000035b7          	lui	a1,0x3
    2dac:	84aa                	mv	s1,a0
    2dae:	cc658593          	addi	a1,a1,-826 # 2cc6 <WCHSocketTCPReceive>
    2db2:	8522                	mv	a0,s0
    2db4:	739020ef          	jal	ra,5cec <tcp_recv>
    2db8:	000035b7          	lui	a1,0x3
    2dbc:	8522                	mv	a0,s0
    2dbe:	aee58593          	addi	a1,a1,-1298 # 2aee <LwipTCPSendCallBack>
    2dc2:	731020ef          	jal	ra,5cf2 <tcp_sent>
    2dc6:	000035b7          	lui	a1,0x3
    2dca:	8522                	mv	a0,s0
    2dcc:	4605                	li	a2,1
    2dce:	b2c58593          	addi	a1,a1,-1236 # 2b2c <LwipTCPPollCallBack>
    2dd2:	72d020ef          	jal	ra,5cfe <tcp_poll>
    2dd6:	209c                	lbu	a5,0(s1)
    2dd8:	4501                	li	a0,0
    2dda:	0087e793          	ori	a5,a5,8
    2dde:	c09c                	sw	a5,0(s1)
    2de0:	c34fd06f          	j	214 <__riscv_restore_0>

00002de4 <ErrorEncode>:
    2de4:	c919                	beqz	a0,2dfa <ErrorEncode+0x16>
    2de6:	40a00533          	neg	a0,a0
    2dea:	67a5                	lui	a5,0x9
    2dec:	7e078793          	addi	a5,a5,2016 # 97e0 <ErrTable>
    2df0:	0ff57513          	andi	a0,a0,255
    2df4:	953e                	add	a0,a0,a5
    2df6:	2108                	lbu	a0,0(a0)
    2df8:	8082                	ret
    2dfa:	4501                	li	a0,0
    2dfc:	8082                	ret

00002dfe <WCHSocketInit>:
    2dfe:	bf2fd2ef          	jal	t0,1f0 <__riscv_save_0>
    2e02:	03c00793          	li	a5,60
    2e06:	02f587b3          	mul	a5,a1,a5
    2e0a:	20009437          	lui	s0,0x20009
    2e0e:	a7c40713          	addi	a4,s0,-1412 # 20008a7c <SocketInf>
    2e12:	892a                	mv	s2,a0
    2e14:	84ae                	mv	s1,a1
    2e16:	03c00613          	li	a2,60
    2e1a:	4581                	li	a1,0
    2e1c:	a7c40413          	addi	s0,s0,-1412
    2e20:	97ba                	add	a5,a5,a4
    2e22:	853e                	mv	a0,a5
    2e24:	bfcfd0ef          	jal	ra,220 <memset>
    2e28:	00090763          	beqz	s2,2e36 <WCHSocketInit+0x38>
    2e2c:	03c00613          	li	a2,60
    2e30:	85ca                	mv	a1,s2
    2e32:	776060ef          	jal	ra,95a8 <memcpy>
    2e36:	03c00593          	li	a1,60
    2e3a:	02b485b3          	mul	a1,s1,a1
    2e3e:	95a2                	add	a1,a1,s0
    2e40:	459c                	lw	a5,8(a1)
    2e42:	c99c                	sw	a5,16(a1)
    2e44:	c9dc                	sw	a5,20(a1)
    2e46:	bcefd06f          	j	214 <__riscv_restore_0>

00002e4a <WCHNET_Init>:
    2e4a:	b8cfd2ef          	jal	t0,1d6 <__riscv_save_4>
    2e4e:	8a2a                	mv	s4,a0
    2e50:	20009537          	lui	a0,0x20009
    2e54:	1141                	addi	sp,sp,-16
    2e56:	89ae                	mv	s3,a1
    2e58:	84b2                	mv	s1,a2
    2e5a:	4581                	li	a1,0
    2e5c:	4661                	li	a2,24
    2e5e:	ac450513          	addi	a0,a0,-1340 # 20008ac4 <DHCPCtrl>
    2e62:	c636                	sw	a3,12(sp)
    2e64:	bbcfd0ef          	jal	ra,220 <memset>
    2e68:	46b2                	lw	a3,12(sp)
    2e6a:	20009437          	lui	s0,0x20009
    2e6e:	b3c40913          	addi	s2,s0,-1220 # 20008b3c <NetInf>
    2e72:	85b6                	mv	a1,a3
    2e74:	4619                	li	a2,6
    2e76:	00c90513          	addi	a0,s2,12
    2e7a:	72e060ef          	jal	ra,95a8 <memcpy>
    2e7e:	4611                	li	a2,4
    2e80:	85d2                	mv	a1,s4
    2e82:	b3c40513          	addi	a0,s0,-1220
    2e86:	722060ef          	jal	ra,95a8 <memcpy>
    2e8a:	4611                	li	a2,4
    2e8c:	85ce                	mv	a1,s3
    2e8e:	00490513          	addi	a0,s2,4
    2e92:	716060ef          	jal	ra,95a8 <memcpy>
    2e96:	b3c40413          	addi	s0,s0,-1220
    2e9a:	e0a1                	bnez	s1,2eda <WCHNET_Init+0x90>
    2e9c:	010007b7          	lui	a5,0x1000
    2ea0:	17fd                	addi	a5,a5,-1
    2ea2:	c41c                	sw	a5,8(s0)
    2ea4:	4481                	li	s1,0
    2ea6:	8cc1c783          	lbu	a5,-1844(gp) # 200000ec <SockNumber>
    2eaa:	02f4cf63          	blt	s1,a5,2ee8 <WCHNET_Init+0x9e>
    2eae:	340010ef          	jal	ra,41ee <wch_ethernetif_init>
    2eb2:	4785                	li	a5,1
    2eb4:	d05c                	sw	a5,36(s0)
    2eb6:	6715                	lui	a4,0x5
    2eb8:	200097b7          	lui	a5,0x20009
    2ebc:	b3078793          	addi	a5,a5,-1232 # 20008b30 <KeepLiveCfg>
    2ec0:	e2070713          	addi	a4,a4,-480 # 4e20 <dhcp_option_long+0x30>
    2ec4:	c398                	sw	a4,0(a5)
    2ec6:	6711                	lui	a4,0x4
    2ec8:	a9870713          	addi	a4,a4,-1384 # 3a98 <find_entry+0x17a>
    2ecc:	c3d8                	sw	a4,4(a5)
    2ece:	4725                	li	a4,9
    2ed0:	c798                	sw	a4,8(a5)
    2ed2:	4501                	li	a0,0
    2ed4:	0141                	addi	sp,sp,16
    2ed6:	b34fd06f          	j	20a <__riscv_restore_4>
    2eda:	4611                	li	a2,4
    2edc:	85a6                	mv	a1,s1
    2ede:	00840513          	addi	a0,s0,8
    2ee2:	6c6060ef          	jal	ra,95a8 <memcpy>
    2ee6:	bf7d                	j	2ea4 <WCHNET_Init+0x5a>
    2ee8:	0ff4f593          	andi	a1,s1,255
    2eec:	4501                	li	a0,0
    2eee:	f11ff0ef          	jal	ra,2dfe <WCHSocketInit>
    2ef2:	0485                	addi	s1,s1,1
    2ef4:	bf4d                	j	2ea6 <WCHNET_Init+0x5c>

00002ef6 <WCHNET_ConfigKeepLive>:
    2ef6:	4118                	lw	a4,0(a0)
    2ef8:	200097b7          	lui	a5,0x20009
    2efc:	b3078793          	addi	a5,a5,-1232 # 20008b30 <KeepLiveCfg>
    2f00:	c398                	sw	a4,0(a5)
    2f02:	4158                	lw	a4,4(a0)
    2f04:	c3d8                	sw	a4,4(a5)
    2f06:	4518                	lw	a4,8(a0)
    2f08:	c798                	sw	a4,8(a5)
    2f0a:	8082                	ret

00002f0c <WCHNET_ConfigLIB>:
    2f0c:	5518                	lw	a4,40(a0)
    2f0e:	123457b7          	lui	a5,0x12345
    2f12:	67878793          	addi	a5,a5,1656 # 12345678 <_data_lma+0x1233be30>
    2f16:	12f71063          	bne	a4,a5,3036 <WCHNET_ConfigLIB+0x12a>
    2f1a:	abcfd2ef          	jal	t0,1d6 <__riscv_save_4>
    2f1e:	511c                	lw	a5,32(a0)
    2f20:	842a                	mv	s0,a0
    2f22:	4525                	li	a0,9
    2f24:	10078163          	beqz	a5,3026 <WCHNET_ConfigLIB+0x11a>
    2f28:	20009937          	lui	s2,0x20009
    2f2c:	04400613          	li	a2,68
    2f30:	4581                	li	a1,0
    2f32:	b3c90513          	addi	a0,s2,-1220 # 20008b3c <NetInf>
    2f36:	aeafd0ef          	jal	ra,220 <memset>
    2f3a:	200094b7          	lui	s1,0x20009
    2f3e:	02c00613          	li	a2,44
    2f42:	4581                	li	a1,0
    2f44:	b8048513          	addi	a0,s1,-1152 # 20008b80 <WCHCfg>
    2f48:	ad8fd0ef          	jal	ra,220 <memset>
    2f4c:	02c00613          	li	a2,44
    2f50:	85a2                	mv	a1,s0
    2f52:	b8048513          	addi	a0,s1,-1152
    2f56:	652060ef          	jal	ra,95a8 <memcpy>
    2f5a:	b8048993          	addi	s3,s1,-1152
    2f5e:	0149a703          	lw	a4,20(s3)
    2f62:	864a                	mv	a2,s2
    2f64:	b8048793          	addi	a5,s1,-1152
    2f68:	eb25                	bnez	a4,2fd8 <WCHNET_ConfigLIB+0xcc>
    2f6a:	66a5                	lui	a3,0x9
    2f6c:	7c06d703          	lhu	a4,1984(a3) # 97c0 <MemNum>
    2f70:	7c068693          	addi	a3,a3,1984
    2f74:	22ae                	lhu	a1,2(a3)
    2f76:	972e                	add	a4,a4,a1
    2f78:	22ce                	lhu	a1,4(a3)
    2f7a:	22f6                	lhu	a3,6(a3)
    2f7c:	972e                	add	a4,a4,a1
    2f7e:	9736                	add	a4,a4,a3
    2f80:	01271693          	slli	a3,a4,0x12
    2f84:	0a06d363          	bgez	a3,302a <WCHNET_ConfigLIB+0x11e>
    2f88:	cbd8                	sw	a4,20(a5)
    2f8a:	4bd8                	lw	a4,20(a5)
    2f8c:	00e75693          	srli	a3,a4,0xe
    2f90:	8afd                	andi	a3,a3,31
    2f92:	ea89                	bnez	a3,2fa4 <WCHNET_ConfigLIB+0x98>
    2f94:	fff846b7          	lui	a3,0xfff84
    2f98:	16fd                	addi	a3,a3,-1
    2f9a:	8f75                	and	a4,a4,a3
    2f9c:	000506b7          	lui	a3,0x50
    2fa0:	8f55                	or	a4,a4,a3
    2fa2:	cbd8                	sw	a4,20(a5)
    2fa4:	4bd8                	lw	a4,20(a5)
    2fa6:	01375693          	srli	a3,a4,0x13
    2faa:	8afd                	andi	a3,a3,31
    2fac:	ea89                	bnez	a3,2fbe <WCHNET_ConfigLIB+0xb2>
    2fae:	fff846b7          	lui	a3,0xfff84
    2fb2:	16fd                	addi	a3,a3,-1
    2fb4:	8f75                	and	a4,a4,a3
    2fb6:	005006b7          	lui	a3,0x500
    2fba:	8f55                	or	a4,a4,a3
    2fbc:	cbd8                	sw	a4,20(a5)
    2fbe:	4bd8                	lw	a4,20(a5)
    2fc0:	00671693          	slli	a3,a4,0x6
    2fc4:	0006ca63          	bltz	a3,2fd8 <WCHNET_ConfigLIB+0xcc>
    2fc8:	fe0006b7          	lui	a3,0xfe000
    2fcc:	16fd                	addi	a3,a3,-1
    2fce:	8f75                	and	a4,a4,a3
    2fd0:	140006b7          	lui	a3,0x14000
    2fd4:	8f55                	or	a4,a4,a3
    2fd6:	cbd8                	sw	a4,20(a5)
    2fd8:	4bd8                	lw	a4,20(a5)
    2fda:	01b75693          	srli	a3,a4,0x1b
    2fde:	e689                	bnez	a3,2fe8 <WCHNET_ConfigLIB+0xdc>
    2fe0:	400006b7          	lui	a3,0x40000
    2fe4:	8f55                	or	a4,a4,a3
    2fe6:	cbd8                	sw	a4,20(a5)
    2fe8:	53d8                	lw	a4,36(a5)
    2fea:	e711                	bnez	a4,2ff6 <WCHNET_ConfigLIB+0xea>
    2fec:	00003737          	lui	a4,0x3
    2ff0:	8d270713          	addi	a4,a4,-1838 # 28d2 <WCHNET_Rx>
    2ff4:	d3d8                	sw	a4,36(a5)
    2ff6:	4bd4                	lw	a3,20(a5)
    2ff8:	4501                	li	a0,0
    2ffa:	00e6d713          	srli	a4,a3,0xe
    2ffe:	8b7d                	andi	a4,a4,31
    3000:	8cd18623          	sb	a3,-1844(gp) # 200000ec <SockNumber>
    3004:	b3c60793          	addi	a5,a2,-1220
    3008:	cf98                	sw	a4,24(a5)
    300a:	0136d713          	srli	a4,a3,0x13
    300e:	8b7d                	andi	a4,a4,31
    3010:	03200613          	li	a2,50
    3014:	02c70733          	mul	a4,a4,a2
    3018:	cfd8                	sw	a4,28(a5)
    301a:	00669713          	slli	a4,a3,0x6
    301e:	00075463          	bgez	a4,3026 <WCHNET_ConfigLIB+0x11a>
    3022:	4709                	li	a4,2
    3024:	c3b8                	sw	a4,64(a5)
    3026:	9e4fd06f          	j	20a <__riscv_restore_4>
    302a:	76f9                	lui	a3,0xffffe
    302c:	16fd                	addi	a3,a3,-1
    302e:	8f75                	and	a4,a4,a3
    3030:	6689                	lui	a3,0x2
    3032:	8f55                	or	a4,a4,a3
    3034:	bf91                	j	2f88 <WCHNET_ConfigLIB+0x7c>
    3036:	0ff00513          	li	a0,255
    303a:	8082                	ret

0000303c <WCHNET_GetVer>:
    303c:	4569                	li	a0,26
    303e:	8082                	ret

00003040 <WCHFindCorrectTCBPcb>:
    3040:	8cc1c603          	lbu	a2,-1844(gp) # 200000ec <SockNumber>
    3044:	200097b7          	lui	a5,0x20009
    3048:	a7c78693          	addi	a3,a5,-1412 # 20008a7c <SocketInf>
    304c:	4701                	li	a4,0
    304e:	a7c78793          	addi	a5,a5,-1412
    3052:	00e61763          	bne	a2,a4,3060 <WCHFindCorrectTCBPcb+0x20>
    3056:	4781                	li	a5,0
    3058:	02f71363          	bne	a4,a5,307e <WCHFindCorrectTCBPcb+0x3e>
    305c:	4501                	li	a0,0
    305e:	8082                	ret
    3060:	0307a803          	lw	a6,48(a5)
    3064:	00a81763          	bne	a6,a0,3072 <WCHFindCorrectTCBPcb+0x32>
    3068:	c509                	beqz	a0,3072 <WCHFindCorrectTCBPcb+0x32>
    306a:	4505                	li	a0,1
    306c:	d9ed                	beqz	a1,305e <WCHFindCorrectTCBPcb+0x1e>
    306e:	a198                	sb	a4,0(a1)
    3070:	8082                	ret
    3072:	0705                	addi	a4,a4,1
    3074:	0ff77713          	andi	a4,a4,255
    3078:	03c78793          	addi	a5,a5,60
    307c:	bfd9                	j	3052 <WCHFindCorrectTCBPcb+0x12>
    307e:	5ad0                	lw	a2,52(a3)
    3080:	00a61963          	bne	a2,a0,3092 <WCHFindCorrectTCBPcb+0x52>
    3084:	c519                	beqz	a0,3092 <WCHFindCorrectTCBPcb+0x52>
    3086:	4505                	li	a0,1
    3088:	d9f9                	beqz	a1,305e <WCHFindCorrectTCBPcb+0x1e>
    308a:	f807e793          	ori	a5,a5,-128
    308e:	a19c                	sb	a5,0(a1)
    3090:	8082                	ret
    3092:	0785                	addi	a5,a5,1
    3094:	0ff7f793          	andi	a5,a5,255
    3098:	03c68693          	addi	a3,a3,60 # 203c <ETH_Configuration+0x82>
    309c:	bf75                	j	3058 <WCHFindCorrectTCBPcb+0x18>

0000309e <WCHNET_SocketCreat>:
    309e:	938fd2ef          	jal	t0,1d6 <__riscv_save_4>
    30a2:	20009937          	lui	s2,0x20009
    30a6:	00050023          	sb	zero,0(a0)
    30aa:	8cc1c703          	lbu	a4,-1844(gp) # 200000ec <SockNumber>
    30ae:	1141                	addi	sp,sp,-16
    30b0:	a7c90793          	addi	a5,s2,-1412 # 20008a7c <SocketInf>
    30b4:	4481                	li	s1,0
    30b6:	a7c90913          	addi	s2,s2,-1412
    30ba:	00971763          	bne	a4,s1,30c8 <WCHNET_SocketCreat+0x2a>
    30be:	02000513          	li	a0,32
    30c2:	0141                	addi	sp,sp,16
    30c4:	946fd06f          	j	20a <__riscv_restore_4>
    30c8:	03c78793          	addi	a5,a5,60
    30cc:	fe47a683          	lw	a3,-28(a5)
    30d0:	18068163          	beqz	a3,3252 <WCHNET_SocketCreat+0x1b4>
    30d4:	0485                	addi	s1,s1,1
    30d6:	0ff4f493          	andi	s1,s1,255
    30da:	b7c5                	j	30ba <WCHNET_SocketCreat+0x1c>
    30dc:	200097b7          	lui	a5,0x20009
    30e0:	b3c7a783          	lw	a5,-1220(a5) # 20008b3c <NetInf>
    30e4:	006c                	addi	a1,sp,12
    30e6:	c63e                	sw	a5,12(sp)
    30e8:	09b020ef          	jal	ra,5982 <raw_bind>
    30ec:	4611                	li	a2,4
    30ee:	02c40593          	addi	a1,s0,44
    30f2:	0068                	addi	a0,sp,12
    30f4:	4b4060ef          	jal	ra,95a8 <memcpy>
    30f8:	006c                	addi	a1,sp,12
    30fa:	854e                	mv	a0,s3
    30fc:	0a5020ef          	jal	ra,59a0 <raw_connect>
    3100:	03c00613          	li	a2,60
    3104:	02c48633          	mul	a2,s1,a2
    3108:	000035b7          	lui	a1,0x3
    310c:	b3058593          	addi	a1,a1,-1232 # 2b30 <SocketIPRAWReceive>
    3110:	854e                	mv	a0,s3
    3112:	964a                	add	a2,a2,s2
    3114:	0ab020ef          	jal	ra,59be <raw_recv>
    3118:	4795                	li	a5,5
    311a:	20009537          	lui	a0,0x20009
    311e:	006c                	addi	a1,sp,12
    3120:	03342823          	sw	s3,48(s0)
    3124:	d01c                	sw	a5,32(s0)
    3126:	bac50513          	addi	a0,a0,-1108 # 20008bac <WCHNetIf>
    312a:	435000ef          	jal	ra,3d5e <etharp_request>
    312e:	85a6                	mv	a1,s1
    3130:	8522                	mv	a0,s0
    3132:	ccdff0ef          	jal	ra,2dfe <WCHSocketInit>
    3136:	4501                	li	a0,0
    3138:	b769                	j	30c2 <WCHNET_SocketCreat+0x24>
    313a:	4709                	li	a4,2
    313c:	0ae79063          	bne	a5,a4,31dc <WCHNET_SocketCreat+0x13e>
    3140:	187050ef          	jal	ra,8ac6 <udp_new>
    3144:	89aa                	mv	s3,a0
    3146:	12050363          	beqz	a0,326c <WCHNET_SocketCreat+0x1ce>
    314a:	02c40a93          	addi	s5,s0,44
    314e:	4611                	li	a2,4
    3150:	85d6                	mv	a1,s5
    3152:	0068                	addi	a0,sp,12
    3154:	454060ef          	jal	ra,95a8 <memcpy>
    3158:	4a32                	lw	s4,12(sp)
    315a:	f0000537          	lui	a0,0xf0000
    315e:	146010ef          	jal	ra,42a4 <ntohl>
    3162:	00aa7a33          	and	s4,s4,a0
    3166:	e0000537          	lui	a0,0xe0000
    316a:	13a010ef          	jal	ra,42a4 <ntohl>
    316e:	04aa0063          	beq	s4,a0,31ae <WCHNET_SocketCreat+0x110>
    3172:	200095b7          	lui	a1,0x20009
    3176:	bac58593          	addi	a1,a1,-1108 # 20008bac <WCHNetIf>
    317a:	0068                	addi	a0,sp,12
    317c:	5aa010ef          	jal	ra,4726 <ip_addr_isbroadcast>
    3180:	e51d                	bnez	a0,31ae <WCHNET_SocketCreat+0x110>
    3182:	200097b7          	lui	a5,0x20009
    3186:	b3c7a783          	lw	a5,-1220(a5) # 20008b3c <NetInf>
    318a:	3412                	lhu	a2,40(s0)
    318c:	006c                	addi	a1,sp,12
    318e:	854e                	mv	a0,s3
    3190:	c63e                	sw	a5,12(sp)
    3192:	700050ef          	jal	ra,8892 <udp_bind>
    3196:	e11d                	bnez	a0,31bc <WCHNET_SocketCreat+0x11e>
    3198:	85d6                	mv	a1,s5
    319a:	4611                	li	a2,4
    319c:	0068                	addi	a0,sp,12
    319e:	40a060ef          	jal	ra,95a8 <memcpy>
    31a2:	3052                	lhu	a2,36(s0)
    31a4:	006c                	addi	a1,sp,12
    31a6:	854e                	mv	a0,s3
    31a8:	09b050ef          	jal	ra,8a42 <udp_connect>
    31ac:	a039                	j	31ba <WCHNET_SocketCreat+0x11c>
    31ae:	3412                	lhu	a2,40(s0)
    31b0:	84818593          	addi	a1,gp,-1976 # 20000068 <ip_addr_any>
    31b4:	854e                	mv	a0,s3
    31b6:	6dc050ef          	jal	ra,8892 <udp_bind>
    31ba:	c501                	beqz	a0,31c2 <WCHNET_SocketCreat+0x124>
    31bc:	c29ff0ef          	jal	ra,2de4 <ErrorEncode>
    31c0:	b709                	j	30c2 <WCHNET_SocketCreat+0x24>
    31c2:	03c00613          	li	a2,60
    31c6:	02c48633          	mul	a2,s1,a2
    31ca:	000035b7          	lui	a1,0x3
    31ce:	bf058593          	addi	a1,a1,-1040 # 2bf0 <SocketUdpReceive>
    31d2:	854e                	mv	a0,s3
    31d4:	964a                	add	a2,a2,s2
    31d6:	0eb050ef          	jal	ra,8ac0 <udp_recv>
    31da:	bf3d                	j	3118 <WCHNET_SocketCreat+0x7a>
    31dc:	470d                	li	a4,3
    31de:	02100513          	li	a0,33
    31e2:	eee790e3          	bne	a5,a4,30c2 <WCHNET_SocketCreat+0x24>
    31e6:	25c030ef          	jal	ra,6442 <tcp_new>
    31ea:	445c                	lw	a5,12(s0)
    31ec:	3412                	lhu	a2,40(s0)
    31ee:	006c                	addi	a1,sp,12
    31f0:	b95e                	sh	a5,52(a0)
    31f2:	200097b7          	lui	a5,0x20009
    31f6:	b3c7a783          	lw	a5,-1220(a5) # 20008b3c <NetInf>
    31fa:	89aa                	mv	s3,a0
    31fc:	c63e                	sw	a5,12(sp)
    31fe:	0e1020ef          	jal	ra,5ade <tcp_bind>
    3202:	8a2a                	mv	s4,a0
    3204:	c511                	beqz	a0,3210 <WCHNET_SocketCreat+0x172>
    3206:	854e                	mv	a0,s3
    3208:	67b020ef          	jal	ra,6082 <tcp_close>
    320c:	8552                	mv	a0,s4
    320e:	b77d                	j	31bc <WCHNET_SocketCreat+0x11e>
    3210:	03c00593          	li	a1,60
    3214:	02b485b3          	mul	a1,s1,a1
    3218:	854e                	mv	a0,s3
    321a:	95ca                	add	a1,a1,s2
    321c:	2cd020ef          	jal	ra,5ce8 <tcp_arg>
    3220:	000035b7          	lui	a1,0x3
    3224:	854e                	mv	a0,s3
    3226:	aec58593          	addi	a1,a1,-1300 # 2aec <NET_TCPError>
    322a:	2cf020ef          	jal	ra,5cf8 <tcp_err>
    322e:	4795                	li	a5,5
    3230:	85a6                	mv	a1,s1
    3232:	8522                	mv	a0,s0
    3234:	03342823          	sw	s3,48(s0)
    3238:	03342a23          	sw	s3,52(s0)
    323c:	d01c                	sw	a5,32(s0)
    323e:	bc1ff0ef          	jal	ra,2dfe <WCHSocketInit>
    3242:	20009537          	lui	a0,0x20009
    3246:	006c                	addi	a1,sp,12
    3248:	bac50513          	addi	a0,a0,-1108 # 20008bac <WCHNetIf>
    324c:	313000ef          	jal	ra,3d5e <etharp_request>
    3250:	b5dd                	j	3136 <WCHNET_SocketCreat+0x98>
    3252:	a104                	sb	s1,0(a0)
    3254:	4ddc                	lw	a5,28(a1)
    3256:	c1c4                	sw	s1,4(a1)
    3258:	842e                	mv	s0,a1
    325a:	ee0790e3          	bnez	a5,313a <WCHNET_SocketCreat+0x9c>
    325e:	02844503          	lbu	a0,40(s0)
    3262:	7f0020ef          	jal	ra,5a52 <raw_new>
    3266:	89aa                	mv	s3,a0
    3268:	e6051ae3          	bnez	a0,30dc <WCHNET_SocketCreat+0x3e>
    326c:	4545                	li	a0,17
    326e:	bd91                	j	30c2 <WCHNET_SocketCreat+0x24>

00003270 <tcp_recved_socket>:
    3270:	f81fc2ef          	jal	t0,1f0 <__riscv_save_0>
    3274:	b54e                	sh	a1,44(a0)
    3276:	842a                	mv	s0,a0
    3278:	17d020ef          	jal	ra,5bf4 <tcp_update_rcv_ann_wnd>
    327c:	cd09                	beqz	a0,3296 <tcp_recved_socket+0x26>
    327e:	02644783          	lbu	a5,38(s0)
    3282:	8522                	mv	a0,s0
    3284:	0027e793          	ori	a5,a5,2
    3288:	02f40323          	sb	a5,38(s0)
    328c:	51b040ef          	jal	ra,7fa6 <tcp_output>
    3290:	4505                	li	a0,1
    3292:	f83fc06f          	j	214 <__riscv_restore_0>
    3296:	200097b7          	lui	a5,0x20009
    329a:	b907a783          	lw	a5,-1136(a5) # 20008b90 <WCHCfg+0x10>
    329e:	83a1                	srli	a5,a5,0x8
    32a0:	8b85                	andi	a5,a5,1
    32a2:	d7fd                	beqz	a5,3290 <tcp_recved_socket+0x20>
    32a4:	02644783          	lbu	a5,38(s0)
    32a8:	8b85                	andi	a5,a5,1
    32aa:	d3fd                	beqz	a5,3290 <tcp_recved_socket+0x20>
    32ac:	4789                	li	a5,2
    32ae:	02f403a3          	sb	a5,39(s0)
    32b2:	4705                	li	a4,1
    32b4:	8ce1a823          	sw	a4,-1840(gp) # 200000f0 <tcpSendAckFlag>
    32b8:	bfe1                	j	3290 <tcp_recved_socket+0x20>

000032ba <WCHNET_ModifyRecvBuf>:
    32ba:	8cc1c783          	lbu	a5,-1844(gp) # 200000ec <SockNumber>
    32be:	04f57663          	bgeu	a0,a5,330a <WCHNET_ModifyRecvBuf+0x50>
    32c2:	03c00713          	li	a4,60
    32c6:	02e50533          	mul	a0,a0,a4
    32ca:	200097b7          	lui	a5,0x20009
    32ce:	a7c78793          	addi	a5,a5,-1412 # 20008a7c <SocketInf>
    32d2:	953e                	add	a0,a0,a5
    32d4:	4d58                	lw	a4,28(a0)
    32d6:	00052c23          	sw	zero,24(a0)
    32da:	c550                	sw	a2,12(a0)
    32dc:	c50c                	sw	a1,8(a0)
    32de:	c90c                	sw	a1,16(a0)
    32e0:	c94c                	sw	a1,20(a0)
    32e2:	478d                	li	a5,3
    32e4:	02f71363          	bne	a4,a5,330a <WCHNET_ModifyRecvBuf+0x50>
    32e8:	5908                	lw	a0,48(a0)
    32ea:	c105                	beqz	a0,330a <WCHNET_ModifyRecvBuf+0x50>
    32ec:	395a                	lhu	a4,52(a0)
    32ee:	00163793          	seqz	a5,a2
    32f2:	00f71c63          	bne	a4,a5,330a <WCHNET_ModifyRecvBuf+0x50>
    32f6:	efbfc2ef          	jal	t0,1f0 <__riscv_save_0>
    32fa:	01061593          	slli	a1,a2,0x10
    32fe:	81c1                	srli	a1,a1,0x10
    3300:	b94e                	sh	a1,52(a0)
    3302:	f6fff0ef          	jal	ra,3270 <tcp_recved_socket>
    3306:	f0ffc06f          	j	214 <__riscv_restore_0>
    330a:	8082                	ret

0000330c <WCHNET_SocketRecv>:
    330c:	ecbfc2ef          	jal	t0,1d6 <__riscv_save_4>
    3310:	4214                	lw	a3,0(a2)
    3312:	4469                	li	s0,26
    3314:	cecd                	beqz	a3,33ce <WCHNET_SocketRecv+0xc2>
    3316:	00062023          	sw	zero,0(a2)
    331a:	8a32                	mv	s4,a2
    331c:	03c00613          	li	a2,60
    3320:	02c50633          	mul	a2,a0,a2
    3324:	200094b7          	lui	s1,0x20009
    3328:	a7c48713          	addi	a4,s1,-1412 # 20008a7c <SocketInf>
    332c:	89aa                	mv	s3,a0
    332e:	87ae                	mv	a5,a1
    3330:	a7c48493          	addi	s1,s1,-1412
    3334:	9732                	add	a4,a4,a2
    3336:	00872b03          	lw	s6,8(a4)
    333a:	4750                	lw	a2,12(a4)
    333c:	01872903          	lw	s2,24(a4)
    3340:	4b40                	lw	s0,20(a4)
    3342:	9b32                	add	s6,s6,a2
    3344:	0126f363          	bgeu	a3,s2,334a <WCHNET_SocketRecv+0x3e>
    3348:	8936                	mv	s2,a3
    334a:	408b0ab3          	sub	s5,s6,s0
    334e:	092af363          	bgeu	s5,s2,33d4 <WCHNET_SocketRecv+0xc8>
    3352:	cb81                	beqz	a5,3362 <WCHNET_SocketRecv+0x56>
    3354:	853e                	mv	a0,a5
    3356:	8656                	mv	a2,s5
    3358:	85a2                	mv	a1,s0
    335a:	24e060ef          	jal	ra,95a8 <memcpy>
    335e:	015507b3          	add	a5,a0,s5
    3362:	03c00713          	li	a4,60
    3366:	02e98733          	mul	a4,s3,a4
    336a:	944a                	add	s0,s0,s2
    336c:	41640433          	sub	s0,s0,s6
    3370:	9726                	add	a4,a4,s1
    3372:	00872a83          	lw	s5,8(a4)
    3376:	c791                	beqz	a5,3382 <WCHNET_SocketRecv+0x76>
    3378:	8622                	mv	a2,s0
    337a:	85d6                	mv	a1,s5
    337c:	853e                	mv	a0,a5
    337e:	22a060ef          	jal	ra,95a8 <memcpy>
    3382:	9456                	add	s0,s0,s5
    3384:	03c00793          	li	a5,60
    3388:	02f987b3          	mul	a5,s3,a5
    338c:	012a2023          	sw	s2,0(s4)
    3390:	97a6                	add	a5,a5,s1
    3392:	4f98                	lw	a4,24(a5)
    3394:	cbc0                	sw	s0,20(a5)
    3396:	41270933          	sub	s2,a4,s2
    339a:	0127ac23          	sw	s2,24(a5)
    339e:	00091863          	bnez	s2,33ae <WCHNET_SocketRecv+0xa2>
    33a2:	4798                	lw	a4,8(a5)
    33a4:	cbd8                	sw	a4,20(a5)
    33a6:	cb98                	sw	a4,16(a5)
    33a8:	4398                	lw	a4,0(a5)
    33aa:	9b6d                	andi	a4,a4,-5
    33ac:	c398                	sw	a4,0(a5)
    33ae:	03c00793          	li	a5,60
    33b2:	02f989b3          	mul	s3,s3,a5
    33b6:	478d                	li	a5,3
    33b8:	4401                	li	s0,0
    33ba:	94ce                	add	s1,s1,s3
    33bc:	4cd8                	lw	a4,28(s1)
    33be:	00f71863          	bne	a4,a5,33ce <WCHNET_SocketRecv+0xc2>
    33c2:	00091663          	bnez	s2,33ce <WCHNET_SocketRecv+0xc2>
    33c6:	24ce                	lhu	a1,12(s1)
    33c8:	5888                	lw	a0,48(s1)
    33ca:	ea7ff0ef          	jal	ra,3270 <tcp_recved_socket>
    33ce:	8522                	mv	a0,s0
    33d0:	e3bfc06f          	j	20a <__riscv_restore_4>
    33d4:	c791                	beqz	a5,33e0 <WCHNET_SocketRecv+0xd4>
    33d6:	864a                	mv	a2,s2
    33d8:	85a2                	mv	a1,s0
    33da:	853e                	mv	a0,a5
    33dc:	1cc060ef          	jal	ra,95a8 <memcpy>
    33e0:	944a                	add	s0,s0,s2
    33e2:	fb2a91e3          	bne	s5,s2,3384 <WCHNET_SocketRecv+0x78>
    33e6:	03c00793          	li	a5,60
    33ea:	02f987b3          	mul	a5,s3,a5
    33ee:	97a6                	add	a5,a5,s1
    33f0:	4780                	lw	s0,8(a5)
    33f2:	bf49                	j	3384 <WCHNET_SocketRecv+0x78>

000033f4 <SocketIPRawSend>:
    33f4:	dd5fc2ef          	jal	t0,1c8 <__riscv_save_10>
    33f8:	4200                	lw	s0,0(a2)
    33fa:	00062023          	sw	zero,0(a2)
    33fe:	c455                	beqz	s0,34aa <SocketIPRawSend+0xb6>
    3400:	87aa                	mv	a5,a0
    3402:	4569                	li	a0,26
    3404:	c5d9                	beqz	a1,3492 <SocketIPRawSend+0x9e>
    3406:	03c00513          	li	a0,60
    340a:	02a787b3          	mul	a5,a5,a0
    340e:	20009537          	lui	a0,0x20009
    3412:	a7c50513          	addi	a0,a0,-1412 # 20008a7c <SocketInf>
    3416:	20009ab7          	lui	s5,0x20009
    341a:	4481                	li	s1,0
    341c:	97aa                	add	a5,a5,a0
    341e:	0307ab03          	lw	s6,48(a5)
    3422:	b3ca8793          	addi	a5,s5,-1220 # 20008b3c <NetInf>
    3426:	43bc                	lw	a5,64(a5)
    3428:	b3ca8a93          	addi	s5,s5,-1220
    342c:	8b89                	andi	a5,a5,2
    342e:	e399                	bnez	a5,3434 <SocketIPRawSend+0x40>
    3430:	0c700493          	li	s1,199
    3434:	5c800793          	li	a5,1480
    3438:	0087f463          	bgeu	a5,s0,3440 <SocketIPRawSend+0x4c>
    343c:	5c800413          	li	s0,1480
    3440:	01041c93          	slli	s9,s0,0x10
    3444:	8a32                	mv	s4,a2
    3446:	892e                	mv	s2,a1
    3448:	010cdc93          	srli	s9,s9,0x10
    344c:	0c800c13          	li	s8,200
    3450:	4601                	li	a2,0
    3452:	85e6                	mv	a1,s9
    3454:	4501                	li	a0,0
    3456:	244020ef          	jal	ra,569a <pbuf_alloc>
    345a:	89aa                	mv	s3,a0
    345c:	c929                	beqz	a0,34ae <SocketIPRawSend+0xba>
    345e:	4148                	lw	a0,4(a0)
    3460:	8622                	mv	a2,s0
    3462:	85ca                	mv	a1,s2
    3464:	020aae23          	sw	zero,60(s5)
    3468:	140060ef          	jal	ra,95a8 <memcpy>
    346c:	85ce                	mv	a1,s3
    346e:	855a                	mv	a0,s6
    3470:	5d2020ef          	jal	ra,5a42 <raw_send>
    3474:	8baa                	mv	s7,a0
    3476:	854e                	mv	a0,s3
    3478:	1d4020ef          	jal	ra,564c <pbuf_free>
    347c:	03caa783          	lw	a5,60(s5)
    3480:	cb99                	beqz	a5,3496 <SocketIPRawSend+0xa2>
    3482:	0485                	addi	s1,s1,1
    3484:	04c2                	slli	s1,s1,0x10
    3486:	80c1                	srli	s1,s1,0x10
    3488:	be8ff0ef          	jal	ra,2870 <WCHNET_NetInput>
    348c:	fd8492e3          	bne	s1,s8,3450 <SocketIPRawSend+0x5c>
    3490:	454d                	li	a0,19
    3492:	d6ffc06f          	j	200 <__riscv_restore_10>
    3496:	000bd663          	bgez	s7,34a2 <SocketIPRawSend+0xae>
    349a:	855e                	mv	a0,s7
    349c:	949ff0ef          	jal	ra,2de4 <ErrorEncode>
    34a0:	bfcd                	j	3492 <SocketIPRawSend+0x9e>
    34a2:	008a2023          	sw	s0,0(s4)
    34a6:	4501                	li	a0,0
    34a8:	b7ed                	j	3492 <SocketIPRawSend+0x9e>
    34aa:	4569                	li	a0,26
    34ac:	b7dd                	j	3492 <SocketIPRawSend+0x9e>
    34ae:	4545                	li	a0,17
    34b0:	b7cd                	j	3492 <SocketIPRawSend+0x9e>

000034b2 <SocketUdpSend>:
    34b2:	d17fc2ef          	jal	t0,1c8 <__riscv_save_10>
    34b6:	4200                	lw	s0,0(a2)
    34b8:	00062023          	sw	zero,0(a2)
    34bc:	c455                	beqz	s0,3568 <SocketUdpSend+0xb6>
    34be:	87aa                	mv	a5,a0
    34c0:	4569                	li	a0,26
    34c2:	c5d9                	beqz	a1,3550 <SocketUdpSend+0x9e>
    34c4:	03c00513          	li	a0,60
    34c8:	02a787b3          	mul	a5,a5,a0
    34cc:	20009537          	lui	a0,0x20009
    34d0:	a7c50513          	addi	a0,a0,-1412 # 20008a7c <SocketInf>
    34d4:	20009ab7          	lui	s5,0x20009
    34d8:	4481                	li	s1,0
    34da:	97aa                	add	a5,a5,a0
    34dc:	0307ab03          	lw	s6,48(a5)
    34e0:	b3ca8793          	addi	a5,s5,-1220 # 20008b3c <NetInf>
    34e4:	43bc                	lw	a5,64(a5)
    34e6:	b3ca8a93          	addi	s5,s5,-1220
    34ea:	8b89                	andi	a5,a5,2
    34ec:	e399                	bnez	a5,34f2 <SocketUdpSend+0x40>
    34ee:	0c700493          	li	s1,199
    34f2:	5c000793          	li	a5,1472
    34f6:	0087f463          	bgeu	a5,s0,34fe <SocketUdpSend+0x4c>
    34fa:	5c000413          	li	s0,1472
    34fe:	01041c93          	slli	s9,s0,0x10
    3502:	8a32                	mv	s4,a2
    3504:	892e                	mv	s2,a1
    3506:	010cdc93          	srli	s9,s9,0x10
    350a:	0c800c13          	li	s8,200
    350e:	4601                	li	a2,0
    3510:	85e6                	mv	a1,s9
    3512:	4501                	li	a0,0
    3514:	186020ef          	jal	ra,569a <pbuf_alloc>
    3518:	89aa                	mv	s3,a0
    351a:	c929                	beqz	a0,356c <SocketUdpSend+0xba>
    351c:	4148                	lw	a0,4(a0)
    351e:	8622                	mv	a2,s0
    3520:	85ca                	mv	a1,s2
    3522:	020aae23          	sw	zero,60(s5)
    3526:	082060ef          	jal	ra,95a8 <memcpy>
    352a:	85ce                	mv	a1,s3
    352c:	855a                	mv	a0,s6
    352e:	502050ef          	jal	ra,8a30 <udp_send>
    3532:	8baa                	mv	s7,a0
    3534:	854e                	mv	a0,s3
    3536:	116020ef          	jal	ra,564c <pbuf_free>
    353a:	03caa783          	lw	a5,60(s5)
    353e:	cb99                	beqz	a5,3554 <SocketUdpSend+0xa2>
    3540:	0485                	addi	s1,s1,1
    3542:	04c2                	slli	s1,s1,0x10
    3544:	80c1                	srli	s1,s1,0x10
    3546:	b2aff0ef          	jal	ra,2870 <WCHNET_NetInput>
    354a:	fd8492e3          	bne	s1,s8,350e <SocketUdpSend+0x5c>
    354e:	454d                	li	a0,19
    3550:	cb1fc06f          	j	200 <__riscv_restore_10>
    3554:	000bd663          	bgez	s7,3560 <SocketUdpSend+0xae>
    3558:	855e                	mv	a0,s7
    355a:	88bff0ef          	jal	ra,2de4 <ErrorEncode>
    355e:	bfcd                	j	3550 <SocketUdpSend+0x9e>
    3560:	008a2023          	sw	s0,0(s4)
    3564:	4501                	li	a0,0
    3566:	b7ed                	j	3550 <SocketUdpSend+0x9e>
    3568:	4569                	li	a0,26
    356a:	b7dd                	j	3550 <SocketUdpSend+0x9e>
    356c:	4545                	li	a0,17
    356e:	b7cd                	j	3550 <SocketUdpSend+0x9e>

00003570 <SocketTcpSend>:
    3570:	c59fc2ef          	jal	t0,1c8 <__riscv_save_10>
    3574:	00062983          	lw	s3,0(a2)
    3578:	00062023          	sw	zero,0(a2)
    357c:	0c098e63          	beqz	s3,3658 <SocketTcpSend+0xe8>
    3580:	87aa                	mv	a5,a0
    3582:	8b2e                	mv	s6,a1
    3584:	4569                	li	a0,26
    3586:	c1a1                	beqz	a1,35c6 <SocketTcpSend+0x56>
    3588:	03c00513          	li	a0,60
    358c:	02a787b3          	mul	a5,a5,a0
    3590:	20009537          	lui	a0,0x20009
    3594:	a7c50513          	addi	a0,a0,-1412 # 20008a7c <SocketInf>
    3598:	20009a37          	lui	s4,0x20009
    359c:	8bb2                	mv	s7,a2
    359e:	0c900a93          	li	s5,201
    35a2:	4481                	li	s1,0
    35a4:	4c11                	li	s8,4
    35a6:	b80a0a13          	addi	s4,s4,-1152 # 20008b80 <WCHCfg>
    35aa:	5cfd                	li	s9,-1
    35ac:	97aa                	add	a5,a5,a0
    35ae:	0307a903          	lw	s2,48(a5)
    35b2:	1afd                	addi	s5,s5,-1
    35b4:	0ac2                	slli	s5,s5,0x10
    35b6:	010ada93          	srli	s5,s5,0x10
    35ba:	000a9863          	bnez	s5,35ca <SocketTcpSend+0x5a>
    35be:	000ba783          	lw	a5,0(s7)
    35c2:	cbc9                	beqz	a5,3654 <SocketTcpSend+0xe4>
    35c4:	4501                	li	a0,0
    35c6:	c3bfc06f          	j	200 <__riscv_restore_10>
    35ca:	01092783          	lw	a5,16(s2)
    35ce:	09879763          	bne	a5,s8,365c <SocketTcpSend+0xec>
    35d2:	a9eff0ef          	jal	ra,2870 <WCHNET_NetInput>
    35d6:	07695703          	lhu	a4,118(s2)
    35da:	e319                	bnez	a4,35e0 <SocketTcpSend+0x70>
    35dc:	4545                	li	a0,17
    35de:	b7e5                	j	35c6 <SocketTcpSend+0x56>
    35e0:	010a2783          	lw	a5,16(s4)
    35e4:	8b85                	andi	a5,a5,1
    35e6:	e399                	bnez	a5,35ec <SocketTcpSend+0x7c>
    35e8:	ff376ae3          	bltu	a4,s3,35dc <SocketTcpSend+0x6c>
    35ec:	004a2403          	lw	s0,4(s4)
    35f0:	00877363          	bgeu	a4,s0,35f6 <SocketTcpSend+0x86>
    35f4:	843a                	mv	s0,a4
    35f6:	0089f363          	bgeu	s3,s0,35fc <SocketTcpSend+0x8c>
    35fa:	844e                	mv	s0,s3
    35fc:	01041613          	slli	a2,s0,0x10
    3600:	8241                	srli	a2,a2,0x10
    3602:	4685                	li	a3,1
    3604:	e391                	bnez	a5,3608 <SocketTcpSend+0x98>
    3606:	4681                	li	a3,0
    3608:	85da                	mv	a1,s6
    360a:	854a                	mv	a0,s2
    360c:	0fb040ef          	jal	ra,7f06 <tcp_write>
    3610:	84aa                	mv	s1,a0
    3612:	854a                	mv	a0,s2
    3614:	e48d                	bnez	s1,363e <SocketTcpSend+0xce>
    3616:	191040ef          	jal	ra,7fa6 <tcp_output>
    361a:	000ba783          	lw	a5,0(s7)
    361e:	408989b3          	sub	s3,s3,s0
    3622:	84aa                	mv	s1,a0
    3624:	97a2                	add	a5,a5,s0
    3626:	00fba023          	sw	a5,0(s7)
    362a:	9b22                	add	s6,s6,s0
    362c:	f8098ce3          	beqz	s3,35c4 <SocketTcpSend+0x54>
    3630:	010a2783          	lw	a5,16(s4)
    3634:	8b85                	andi	a5,a5,1
    3636:	ffb5                	bnez	a5,35b2 <SocketTcpSend+0x42>
    3638:	facff0ef          	jal	ra,2de4 <ErrorEncode>
    363c:	b769                	j	35c6 <SocketTcpSend+0x56>
    363e:	01949963          	bne	s1,s9,3650 <SocketTcpSend+0xe0>
    3642:	165040ef          	jal	ra,7fa6 <tcp_output>
    3646:	010a2783          	lw	a5,16(s4)
    364a:	8b85                	andi	a5,a5,1
    364c:	f3bd                	bnez	a5,35b2 <SocketTcpSend+0x42>
    364e:	b779                	j	35dc <SocketTcpSend+0x6c>
    3650:	157040ef          	jal	ra,7fa6 <tcp_output>
    3654:	8526                	mv	a0,s1
    3656:	b7cd                	j	3638 <SocketTcpSend+0xc8>
    3658:	4569                	li	a0,26
    365a:	b7b5                	j	35c6 <SocketTcpSend+0x56>
    365c:	455d                	li	a0,23
    365e:	b7a5                	j	35c6 <SocketTcpSend+0x56>

00003660 <WCHNET_SocketSend>:
    3660:	03c00793          	li	a5,60
    3664:	02f507b3          	mul	a5,a0,a5
    3668:	20009737          	lui	a4,0x20009
    366c:	a7c70713          	addi	a4,a4,-1412 # 20008a7c <SocketInf>
    3670:	97ba                	add	a5,a5,a4
    3672:	0207a803          	lw	a6,32(a5)
    3676:	4715                	li	a4,5
    3678:	00e80763          	beq	a6,a4,3686 <WCHNET_SocketSend+0x26>
    367c:	47dd                	li	a5,23
    367e:	00062023          	sw	zero,0(a2)
    3682:	853e                	mv	a0,a5
    3684:	8082                	ret
    3686:	b6bfc2ef          	jal	t0,1f0 <__riscv_save_0>
    368a:	4fd8                	lw	a4,28(a5)
    368c:	478d                	li	a5,3
    368e:	00f71863          	bne	a4,a5,369e <WCHNET_SocketSend+0x3e>
    3692:	edfff0ef          	jal	ra,3570 <SocketTcpSend>
    3696:	87aa                	mv	a5,a0
    3698:	853e                	mv	a0,a5
    369a:	b7bfc06f          	j	214 <__riscv_restore_0>
    369e:	e701                	bnez	a4,36a6 <WCHNET_SocketSend+0x46>
    36a0:	d55ff0ef          	jal	ra,33f4 <SocketIPRawSend>
    36a4:	bfcd                	j	3696 <WCHNET_SocketSend+0x36>
    36a6:	4689                	li	a3,2
    36a8:	0fa00793          	li	a5,250
    36ac:	fed716e3          	bne	a4,a3,3698 <WCHNET_SocketSend+0x38>
    36b0:	e03ff0ef          	jal	ra,34b2 <SocketUdpSend>
    36b4:	b7cd                	j	3696 <WCHNET_SocketSend+0x36>

000036b6 <WCHScokedIntHandle>:
    36b6:	b3bfc2ef          	jal	t0,1f0 <__riscv_save_0>
    36ba:	47a1                	li	a5,8
    36bc:	84aa                	mv	s1,a0
    36be:	2100                	lbu	s0,0(a0)
    36c0:	02f58a63          	beq	a1,a5,36f4 <WCHScokedIntHandle+0x3e>
    36c4:	00b7ec63          	bltu	a5,a1,36dc <WCHScokedIntHandle+0x26>
    36c8:	4785                	li	a5,1
    36ca:	02f58163          	beq	a1,a5,36ec <WCHScokedIntHandle+0x36>
    36ce:	4789                	li	a5,2
    36d0:	00246413          	ori	s0,s0,2
    36d4:	00f58e63          	beq	a1,a5,36f0 <WCHScokedIntHandle+0x3a>
    36d8:	b3dfc06f          	j	214 <__riscv_restore_0>
    36dc:	47c1                	li	a5,16
    36de:	00f58e63          	beq	a1,a5,36fa <WCHScokedIntHandle+0x44>
    36e2:	04000793          	li	a5,64
    36e6:	04046413          	ori	s0,s0,64
    36ea:	b7ed                	j	36d4 <WCHScokedIntHandle+0x1e>
    36ec:	00146413          	ori	s0,s0,1
    36f0:	c080                	sw	s0,0(s1)
    36f2:	b7dd                	j	36d8 <WCHScokedIntHandle+0x22>
    36f4:	00846413          	ori	s0,s0,8
    36f8:	bfe5                	j	36f0 <WCHScokedIntHandle+0x3a>
    36fa:	5948                	lw	a0,52(a0)
    36fc:	01046413          	ori	s0,s0,16
    3700:	d965                	beqz	a0,36f0 <WCHScokedIntHandle+0x3a>
    3702:	181020ef          	jal	ra,6082 <tcp_close>
    3706:	b7ed                	j	36f0 <WCHScokedIntHandle+0x3a>

00003708 <LwipRemoveTcpPcb>:
    3708:	ae9fc2ef          	jal	t0,1f0 <__riscv_save_0>
    370c:	1141                	addi	sp,sp,-16
    370e:	00f10593          	addi	a1,sp,15
    3712:	892a                	mv	s2,a0
    3714:	000107a3          	sb	zero,15(sp)
    3718:	929ff0ef          	jal	ra,3040 <WCHFindCorrectTCBPcb>
    371c:	c515                	beqz	a0,3748 <LwipRemoveTcpPcb+0x40>
    371e:	8780                	lbu	s0,15(sp)
    3720:	01841793          	slli	a5,s0,0x18
    3724:	87e1                	srai	a5,a5,0x18
    3726:	0207d463          	bgez	a5,374e <LwipRemoveTcpPcb+0x46>
    372a:	07f47413          	andi	s0,s0,127
    372e:	03c00713          	li	a4,60
    3732:	02e40433          	mul	s0,s0,a4
    3736:	200097b7          	lui	a5,0x20009
    373a:	a7c78793          	addi	a5,a5,-1412 # 20008a7c <SocketInf>
    373e:	943e                	add	s0,s0,a5
    3740:	02042a23          	sw	zero,52(s0)
    3744:	02042023          	sw	zero,32(s0)
    3748:	0141                	addi	sp,sp,16
    374a:	acbfc06f          	j	214 <__riscv_restore_0>
    374e:	8cc1c783          	lbu	a5,-1844(gp) # 200000ec <SockNumber>
    3752:	fef47be3          	bgeu	s0,a5,3748 <LwipRemoveTcpPcb+0x40>
    3756:	03c00713          	li	a4,60
    375a:	02e40733          	mul	a4,s0,a4
    375e:	200097b7          	lui	a5,0x20009
    3762:	a7c78513          	addi	a0,a5,-1412 # 20008a7c <SocketInf>
    3766:	a7c78493          	addi	s1,a5,-1412
    376a:	953a                	add	a0,a0,a4
    376c:	4d54                	lw	a3,28(a0)
    376e:	470d                	li	a4,3
    3770:	fce69ce3          	bne	a3,a4,3748 <LwipRemoveTcpPcb+0x40>
    3774:	01092783          	lw	a5,16(s2)
    3778:	4705                	li	a4,1
    377a:	17dd                	addi	a5,a5,-9
    377c:	0ff7f793          	andi	a5,a5,255
    3780:	00f76d63          	bltu	a4,a5,379a <LwipRemoveTcpPcb+0x92>
    3784:	45c1                	li	a1,16
    3786:	f31ff0ef          	jal	ra,36b6 <WCHScokedIntHandle>
    378a:	03c00793          	li	a5,60
    378e:	02f40433          	mul	s0,s0,a5
    3792:	9426                	add	s0,s0,s1
    3794:	02042823          	sw	zero,48(s0)
    3798:	b775                	j	3744 <LwipRemoveTcpPcb+0x3c>
    379a:	211c                	lbu	a5,0(a0)
    379c:	0407e793          	ori	a5,a5,64
    37a0:	c11c                	sw	a5,0(a0)
    37a2:	b7e5                	j	378a <LwipRemoveTcpPcb+0x82>

000037a4 <WCHNET_QueryGlobalInt>:
    37a4:	20009737          	lui	a4,0x20009
    37a8:	8cc1c683          	lbu	a3,-1844(gp) # 200000ec <SockNumber>
    37ac:	a7c70713          	addi	a4,a4,-1412 # 20008a7c <SocketInf>
    37b0:	4781                	li	a5,0
    37b2:	00f68f63          	beq	a3,a5,37d0 <WCHNET_QueryGlobalInt+0x2c>
    37b6:	03c70713          	addi	a4,a4,60
    37ba:	fc472603          	lw	a2,-60(a4)
    37be:	ce11                	beqz	a2,37da <WCHNET_QueryGlobalInt+0x36>
    37c0:	200097b7          	lui	a5,0x20009
    37c4:	b3c78793          	addi	a5,a5,-1220 # 20008b3c <NetInf>
    37c8:	57d8                	lw	a4,44(a5)
    37ca:	01076713          	ori	a4,a4,16
    37ce:	d7d8                	sw	a4,44(a5)
    37d0:	200097b7          	lui	a5,0x20009
    37d4:	b687c503          	lbu	a0,-1176(a5) # 20008b68 <NetInf+0x2c>
    37d8:	8082                	ret
    37da:	0785                	addi	a5,a5,1
    37dc:	0ff7f793          	andi	a5,a5,255
    37e0:	bfc9                	j	37b2 <WCHNET_QueryGlobalInt+0xe>

000037e2 <WCHNET_GetGlobalInt>:
    37e2:	a0ffc2ef          	jal	t0,1f0 <__riscv_save_0>
    37e6:	fbfff0ef          	jal	ra,37a4 <WCHNET_QueryGlobalInt>
    37ea:	200097b7          	lui	a5,0x20009
    37ee:	b607a423          	sw	zero,-1176(a5) # 20008b68 <NetInf+0x2c>
    37f2:	a23fc06f          	j	214 <__riscv_restore_0>

000037f6 <WCHNET_GetSocketInt>:
    37f6:	8cc1c783          	lbu	a5,-1844(gp) # 200000ec <SockNumber>
    37fa:	02f57163          	bgeu	a0,a5,381c <WCHNET_GetSocketInt+0x26>
    37fe:	03c00793          	li	a5,60
    3802:	02f50533          	mul	a0,a0,a5
    3806:	200097b7          	lui	a5,0x20009
    380a:	a7c78793          	addi	a5,a5,-1412 # 20008a7c <SocketInf>
    380e:	97aa                	add	a5,a5,a0
    3810:	4398                	lw	a4,0(a5)
    3812:	0ff77513          	andi	a0,a4,255
    3816:	8b11                	andi	a4,a4,4
    3818:	c398                	sw	a4,0(a5)
    381a:	8082                	ret
    381c:	4501                	li	a0,0
    381e:	8082                	ret

00003820 <WCHNET_GetPHYStatus>:
    3820:	200097b7          	lui	a5,0x20009
    3824:	b5c7c503          	lbu	a0,-1188(a5) # 20008b5c <NetInf+0x20>
    3828:	8082                	ret

0000382a <WCHNET_SocketSetKeepLive>:
    382a:	03c00793          	li	a5,60
    382e:	02f50533          	mul	a0,a0,a5
    3832:	200097b7          	lui	a5,0x20009
    3836:	a7c78793          	addi	a5,a5,-1412 # 20008a7c <SocketInf>
    383a:	953e                	add	a0,a0,a5
    383c:	591c                	lw	a5,48(a0)
    383e:	cf95                	beqz	a5,387a <WCHNET_SocketSetKeepLive+0x50>
    3840:	5114                	lw	a3,32(a0)
    3842:	4715                	li	a4,5
    3844:	455d                	li	a0,23
    3846:	02e69b63          	bne	a3,a4,387c <WCHNET_SocketSetKeepLive+0x52>
    384a:	8985                	andi	a1,a1,1
    384c:	279a                	lhu	a4,8(a5)
    384e:	c19d                	beqz	a1,3874 <WCHNET_SocketSetKeepLive+0x4a>
    3850:	00876713          	ori	a4,a4,8
    3854:	a79a                	sh	a4,8(a5)
    3856:	20009737          	lui	a4,0x20009
    385a:	b3070713          	addi	a4,a4,-1232 # 20008b30 <KeepLiveCfg>
    385e:	4314                	lw	a3,0(a4)
    3860:	0ad7a023          	sw	a3,160(a5)
    3864:	4354                	lw	a3,4(a4)
    3866:	4718                	lw	a4,8(a4)
    3868:	0ad7a223          	sw	a3,164(a5)
    386c:	0ae7a423          	sw	a4,168(a5)
    3870:	4501                	li	a0,0
    3872:	8082                	ret
    3874:	9b5d                	andi	a4,a4,-9
    3876:	a79a                	sh	a4,8(a5)
    3878:	bfe5                	j	3870 <WCHNET_SocketSetKeepLive+0x46>
    387a:	455d                	li	a0,23
    387c:	8082                	ret

0000387e <WCHNET_SocketConnect>:
    387e:	973fc2ef          	jal	t0,1f0 <__riscv_save_0>
    3882:	03c00413          	li	s0,60
    3886:	02850433          	mul	s0,a0,s0
    388a:	20009537          	lui	a0,0x20009
    388e:	a7c50513          	addi	a0,a0,-1412 # 20008a7c <SocketInf>
    3892:	1141                	addi	sp,sp,-16
    3894:	942a                	add	s0,s0,a0
    3896:	5804                	lw	s1,48(s0)
    3898:	455d                	li	a0,23
    389a:	cc8d                	beqz	s1,38d4 <WCHNET_SocketConnect+0x56>
    389c:	5018                	lw	a4,32(s0)
    389e:	4795                	li	a5,5
    38a0:	455d                	li	a0,23
    38a2:	02f71963          	bne	a4,a5,38d4 <WCHNET_SocketConnect+0x56>
    38a6:	545c                	lw	a5,44(s0)
    38a8:	02042a23          	sw	zero,52(s0)
    38ac:	000036b7          	lui	a3,0x3
    38b0:	c63e                	sw	a5,12(sp)
    38b2:	3052                	lhu	a2,36(s0)
    38b4:	da268693          	addi	a3,a3,-606 # 2da2 <LwipTcpConnectedCallBack>
    38b8:	006c                	addi	a1,sp,12
    38ba:	8526                	mv	a0,s1
    38bc:	3c5020ef          	jal	ra,6480 <tcp_connect>
    38c0:	892a                	mv	s2,a0
    38c2:	cd01                	beqz	a0,38da <WCHNET_SocketConnect+0x5c>
    38c4:	8526                	mv	a0,s1
    38c6:	7bc020ef          	jal	ra,6082 <tcp_close>
    38ca:	854a                	mv	a0,s2
    38cc:	02042023          	sw	zero,32(s0)
    38d0:	d14ff0ef          	jal	ra,2de4 <ErrorEncode>
    38d4:	0141                	addi	sp,sp,16
    38d6:	93ffc06f          	j	214 <__riscv_restore_0>
    38da:	0264c783          	lbu	a5,38(s1)
    38de:	4501                	li	a0,0
    38e0:	fbf7f793          	andi	a5,a5,-65
    38e4:	02f48323          	sb	a5,38(s1)
    38e8:	b7f5                	j	38d4 <WCHNET_SocketConnect+0x56>

000038ea <QueryPingEnable>:
    38ea:	200097b7          	lui	a5,0x20009
    38ee:	b947a503          	lw	a0,-1132(a5) # 20008b94 <WCHCfg+0x14>
    38f2:	8135                	srli	a0,a0,0xd
    38f4:	8905                	andi	a0,a0,1
    38f6:	8082                	ret

000038f8 <LwipUnreachPort>:
    38f8:	200097b7          	lui	a5,0x20009
    38fc:	b3c78793          	addi	a5,a5,-1220 # 20008b3c <NetInf>
    3900:	4705                	li	a4,1
    3902:	1141                	addi	sp,sp,-16
    3904:	cbc8                	sw	a0,20(a5)
    3906:	db94                	sw	a3,48(a5)
    3908:	dbd0                	sw	a2,52(a5)
    390a:	df8c                	sw	a1,56(a5)
    390c:	d7d8                	sw	a4,44(a5)
    390e:	0141                	addi	sp,sp,16
    3910:	8082                	ret

00003912 <LwipArpCheck>:
    3912:	200097b7          	lui	a5,0x20009
    3916:	4705                	li	a4,1
    3918:	b6e7ac23          	sw	a4,-1160(a5) # 20008b78 <NetInf+0x3c>
    391c:	8082                	ret

0000391e <find_entry>:
    391e:	8d3fc2ef          	jal	t0,1f0 <__riscv_save_0>
    3922:	200097b7          	lui	a5,0x20009
    3926:	b8c7a603          	lw	a2,-1140(a5) # 20008b8c <WCHCfg+0xc>
    392a:	8241a683          	lw	a3,-2012(gp) # 20000044 <arp_table>
    392e:	01861713          	slli	a4,a2,0x18
    3932:	8761                	srai	a4,a4,0x18
    3934:	14050b63          	beqz	a0,3a8a <find_entry+0x16c>
    3938:	8d41c783          	lbu	a5,-1836(gp) # 200000f4 <etharp_cached_entry>
    393c:	4861                	li	a6,24
    393e:	4889                	li	a7,2
    3940:	03078833          	mul	a6,a5,a6
    3944:	9836                	add	a6,a6,a3
    3946:	00c82303          	lw	t1,12(a6)
    394a:	15131063          	bne	t1,a7,3a8a <find_entry+0x16c>
    394e:	00154303          	lbu	t1,1(a0)
    3952:	00054883          	lbu	a7,0(a0)
    3956:	00082803          	lw	a6,0(a6)
    395a:	0322                	slli	t1,t1,0x8
    395c:	01136333          	or	t1,t1,a7
    3960:	00254883          	lbu	a7,2(a0)
    3964:	08c2                	slli	a7,a7,0x10
    3966:	0068e333          	or	t1,a7,t1
    396a:	00354883          	lbu	a7,3(a0)
    396e:	08e2                	slli	a7,a7,0x18
    3970:	0068e8b3          	or	a7,a7,t1
    3974:	11089b63          	bne	a7,a6,3a8a <find_entry+0x16c>
    3978:	07e2                	slli	a5,a5,0x18
    397a:	87e1                	srai	a5,a5,0x18
    397c:	853e                	mv	a0,a5
    397e:	897fc06f          	j	214 <__riscv_restore_0>
    3982:	025788b3          	mul	a7,a5,t0
    3986:	98b6                	add	a7,a7,a3
    3988:	00c8ae03          	lw	t3,12(a7) # 800c <tcp_output+0x66>
    398c:	07061963          	bne	a2,a6,39fe <find_entry+0xe0>
    3990:	060e1763          	bnez	t3,39fe <find_entry+0xe0>
    3994:	01879813          	slli	a6,a5,0x18
    3998:	41885813          	srai	a6,a6,0x18
    399c:	0785                	addi	a5,a5,1
    399e:	0ff7f793          	andi	a5,a5,255
    39a2:	fec7e0e3          	bltu	a5,a2,3982 <find_entry+0x64>
    39a6:	01061763          	bne	a2,a6,39b4 <find_entry+0x96>
    39aa:	0015f893          	andi	a7,a1,1
    39ae:	57fd                	li	a5,-1
    39b0:	fc0886e3          	beqz	a7,397c <find_entry+0x5e>
    39b4:	8989                	andi	a1,a1,2
    39b6:	57fd                	li	a5,-1
    39b8:	f1f1                	bnez	a1,397c <find_entry+0x5e>
    39ba:	0ff87793          	andi	a5,a6,255
    39be:	00c86b63          	bltu	a6,a2,39d4 <find_entry+0xb6>
    39c2:	0ff37793          	andi	a5,t1,255
    39c6:	00c36763          	bltu	t1,a2,39d4 <find_entry+0xb6>
    39ca:	57fd                	li	a5,-1
    39cc:	fac778e3          	bgeu	a4,a2,397c <find_entry+0x5e>
    39d0:	0ff77793          	andi	a5,a4,255
    39d4:	4761                	li	a4,24
    39d6:	02e78733          	mul	a4,a5,a4
    39da:	96ba                	add	a3,a3,a4
    39dc:	0006a623          	sw	zero,12(a3)
    39e0:	cd01                	beqz	a0,39f8 <find_entry+0xda>
    39e2:	3110                	lbu	a2,1(a0)
    39e4:	2118                	lbu	a4,0(a0)
    39e6:	0622                	slli	a2,a2,0x8
    39e8:	8e59                	or	a2,a2,a4
    39ea:	2138                	lbu	a4,2(a0)
    39ec:	0742                	slli	a4,a4,0x10
    39ee:	8e59                	or	a2,a2,a4
    39f0:	3138                	lbu	a4,3(a0)
    39f2:	0762                	slli	a4,a4,0x18
    39f4:	8f51                	or	a4,a4,a2
    39f6:	c298                	sw	a4,0(a3)
    39f8:	00068823          	sb	zero,16(a3)
    39fc:	a80d                	j	3a2e <find_entry+0x110>
    39fe:	047e1463          	bne	t3,t2,3a46 <find_entry+0x128>
    3a02:	c90d                	beqz	a0,3a34 <find_entry+0x116>
    3a04:	00154e83          	lbu	t4,1(a0)
    3a08:	00054e03          	lbu	t3,0(a0)
    3a0c:	0ea2                	slli	t4,t4,0x8
    3a0e:	01ceeeb3          	or	t4,t4,t3
    3a12:	00254e03          	lbu	t3,2(a0)
    3a16:	0e42                	slli	t3,t3,0x10
    3a18:	01de6eb3          	or	t4,t3,t4
    3a1c:	00354e03          	lbu	t3,3(a0)
    3a20:	0e62                	slli	t3,t3,0x18
    3a22:	01de6e33          	or	t3,t3,t4
    3a26:	0008ae83          	lw	t4,0(a7)
    3a2a:	01de1563          	bne	t3,t4,3a34 <find_entry+0x116>
    3a2e:	8cf18a23          	sb	a5,-1836(gp) # 200000f4 <etharp_cached_entry>
    3a32:	b799                	j	3978 <find_entry+0x5a>
    3a34:	0108c883          	lbu	a7,16(a7)
    3a38:	f7e8e2e3          	bltu	a7,t5,399c <find_entry+0x7e>
    3a3c:	01879713          	slli	a4,a5,0x18
    3a40:	8761                	srai	a4,a4,0x18
    3a42:	8f46                	mv	t5,a7
    3a44:	bfa1                	j	399c <find_entry+0x7e>
    3a46:	f48e1be3          	bne	t3,s0,399c <find_entry+0x7e>
    3a4a:	c515                	beqz	a0,3a76 <find_entry+0x158>
    3a4c:	00154e83          	lbu	t4,1(a0)
    3a50:	00054e03          	lbu	t3,0(a0)
    3a54:	0ea2                	slli	t4,t4,0x8
    3a56:	01ceeeb3          	or	t4,t4,t3
    3a5a:	00254e03          	lbu	t3,2(a0)
    3a5e:	0e42                	slli	t3,t3,0x10
    3a60:	01de6eb3          	or	t4,t3,t4
    3a64:	00354e03          	lbu	t3,3(a0)
    3a68:	0e62                	slli	t3,t3,0x18
    3a6a:	01de6e33          	or	t3,t3,t4
    3a6e:	0008ae83          	lw	t4,0(a7)
    3a72:	fbde0ee3          	beq	t3,t4,3a2e <find_entry+0x110>
    3a76:	0108c883          	lbu	a7,16(a7)
    3a7a:	f3f8e1e3          	bltu	a7,t6,399c <find_entry+0x7e>
    3a7e:	01879313          	slli	t1,a5,0x18
    3a82:	41835313          	srai	t1,t1,0x18
    3a86:	8fc6                	mv	t6,a7
    3a88:	bf11                	j	399c <find_entry+0x7e>
    3a8a:	883a                	mv	a6,a4
    3a8c:	833a                	mv	t1,a4
    3a8e:	4f81                	li	t6,0
    3a90:	4f01                	li	t5,0
    3a92:	4781                	li	a5,0
    3a94:	42e1                	li	t0,24
    3a96:	4385                	li	t2,1
    3a98:	4409                	li	s0,2
    3a9a:	b721                	j	39a2 <find_entry+0x84>

00003a9c <update_arp_entry>:
    3a9c:	f3afc2ef          	jal	t0,1d6 <__riscv_save_4>
    3aa0:	3198                	lbu	a4,1(a1)
    3aa2:	219c                	lbu	a5,0(a1)
    3aa4:	8a36                	mv	s4,a3
    3aa6:	0722                	slli	a4,a4,0x8
    3aa8:	8f5d                	or	a4,a4,a5
    3aaa:	21bc                	lbu	a5,2(a1)
    3aac:	4154                	lw	a3,4(a0)
    3aae:	07c2                	slli	a5,a5,0x10
    3ab0:	8f5d                	or	a4,a4,a5
    3ab2:	31bc                	lbu	a5,3(a1)
    3ab4:	07e2                	slli	a5,a5,0x18
    3ab6:	8fd9                	or	a5,a5,a4
    3ab8:	00f69b63          	bne	a3,a5,3ace <update_arp_entry+0x32>
    3abc:	e689                	bnez	a3,3ac6 <update_arp_entry+0x2a>
    3abe:	57d9                	li	a5,-10
    3ac0:	853e                	mv	a0,a5
    3ac2:	f48fc06f          	j	20a <__riscv_restore_4>
    3ac6:	4505                	li	a0,1
    3ac8:	ff7fe0ef          	jal	ra,2abe <IPConflictHandle>
    3acc:	bfcd                	j	3abe <update_arp_entry+0x22>
    3ace:	dbe5                	beqz	a5,3abe <update_arp_entry+0x22>
    3ad0:	842e                	mv	s0,a1
    3ad2:	892a                	mv	s2,a0
    3ad4:	85aa                	mv	a1,a0
    3ad6:	8522                	mv	a0,s0
    3ad8:	89b2                	mv	s3,a2
    3ada:	44d000ef          	jal	ra,4726 <ip_addr_isbroadcast>
    3ade:	f165                	bnez	a0,3abe <update_arp_entry+0x22>
    3ae0:	301c                	lbu	a5,1(s0)
    3ae2:	2004                	lbu	s1,0(s0)
    3ae4:	f0000537          	lui	a0,0xf0000
    3ae8:	07a2                	slli	a5,a5,0x8
    3aea:	8fc5                	or	a5,a5,s1
    3aec:	2024                	lbu	s1,2(s0)
    3aee:	04c2                	slli	s1,s1,0x10
    3af0:	8fc5                	or	a5,a5,s1
    3af2:	3024                	lbu	s1,3(s0)
    3af4:	04e2                	slli	s1,s1,0x18
    3af6:	8cdd                	or	s1,s1,a5
    3af8:	7ac000ef          	jal	ra,42a4 <ntohl>
    3afc:	8ce9                	and	s1,s1,a0
    3afe:	e0000537          	lui	a0,0xe0000
    3b02:	7a2000ef          	jal	ra,42a4 <ntohl>
    3b06:	faa48ce3          	beq	s1,a0,3abe <update_arp_entry+0x22>
    3b0a:	85d2                	mv	a1,s4
    3b0c:	8522                	mv	a0,s0
    3b0e:	e11ff0ef          	jal	ra,391e <find_entry>
    3b12:	87aa                	mv	a5,a0
    3b14:	fa0546e3          	bltz	a0,3ac0 <update_arp_entry+0x24>
    3b18:	47e1                	li	a5,24
    3b1a:	02f507b3          	mul	a5,a0,a5
    3b1e:	8241a503          	lw	a0,-2012(gp) # 20000044 <arp_table>
    3b22:	953e                	add	a0,a0,a5
    3b24:	4789                	li	a5,2
    3b26:	c55c                	sw	a5,12(a0)
    3b28:	01252a23          	sw	s2,20(a0) # e0000014 <_eusrstack+0xbfff0014>
    3b2c:	00598793          	addi	a5,s3,5
    3b30:	00950713          	addi	a4,a0,9
    3b34:	2394                	lbu	a3,0(a5)
    3b36:	177d                	addi	a4,a4,-1
    3b38:	b314                	sb	a3,1(a4)
    3b3a:	fff78693          	addi	a3,a5,-1
    3b3e:	00f99663          	bne	s3,a5,3b4a <update_arp_entry+0xae>
    3b42:	00050823          	sb	zero,16(a0)
    3b46:	4781                	li	a5,0
    3b48:	bfa5                	j	3ac0 <update_arp_entry+0x24>
    3b4a:	87b6                	mv	a5,a3
    3b4c:	b7e5                	j	3b34 <update_arp_entry+0x98>

00003b4e <etharp_tmr>:
    3b4e:	200097b7          	lui	a5,0x20009
    3b52:	b8c7a503          	lw	a0,-1140(a5) # 20008b8c <WCHCfg+0xc>
    3b56:	8241a803          	lw	a6,-2012(gp) # 20000044 <arp_table>
    3b5a:	4701                	li	a4,0
    3b5c:	48e1                	li	a7,24
    3b5e:	4309                	li	t1,2
    3b60:	4605                	li	a2,1
    3b62:	0ef00e13          	li	t3,239
    3b66:	00a76363          	bltu	a4,a0,3b6c <etharp_tmr+0x1e>
    3b6a:	8082                	ret
    3b6c:	031706b3          	mul	a3,a4,a7
    3b70:	96c2                	add	a3,a3,a6
    3b72:	2a9c                	lbu	a5,16(a3)
    3b74:	46cc                	lw	a1,12(a3)
    3b76:	0785                	addi	a5,a5,1
    3b78:	0ff7f793          	andi	a5,a5,255
    3b7c:	aa9c                	sb	a5,16(a3)
    3b7e:	00659863          	bne	a1,t1,3b8e <etharp_tmr+0x40>
    3b82:	00fe6a63          	bltu	t3,a5,3b96 <etharp_tmr+0x48>
    3b86:	0705                	addi	a4,a4,1
    3b88:	0ff77713          	andi	a4,a4,255
    3b8c:	bfe9                	j	3b66 <etharp_tmr+0x18>
    3b8e:	fec59ce3          	bne	a1,a2,3b86 <etharp_tmr+0x38>
    3b92:	fef67ae3          	bgeu	a2,a5,3b86 <etharp_tmr+0x38>
    3b96:	0006a623          	sw	zero,12(a3)
    3b9a:	b7f5                	j	3b86 <etharp_tmr+0x38>

00003b9c <etharp_ip_input>:
    3b9c:	cd21                	beqz	a0,3bf4 <etharp_ip_input+0x58>
    3b9e:	e52fc2ef          	jal	t0,1f0 <__riscv_save_0>
    3ba2:	41c4                	lw	s1,4(a1)
    3ba4:	842a                	mv	s0,a0
    3ba6:	34dc                	lbu	a5,13(s1)
    3ba8:	24c8                	lbu	a0,12(s1)
    3baa:	07a2                	slli	a5,a5,0x8
    3bac:	8d5d                	or	a0,a0,a5
    3bae:	6b6000ef          	jal	ra,4264 <htons>
    3bb2:	67a1                	lui	a5,0x8
    3bb4:	10078793          	addi	a5,a5,256 # 8100 <tcp_output+0x15a>
    3bb8:	01248593          	addi	a1,s1,18
    3bbc:	00f50463          	beq	a0,a5,3bc4 <etharp_ip_input+0x28>
    3bc0:	00e48593          	addi	a1,s1,14
    3bc4:	35d8                	lbu	a4,13(a1)
    3bc6:	25dc                	lbu	a5,12(a1)
    3bc8:	0722                	slli	a4,a4,0x8
    3bca:	8f5d                	or	a4,a4,a5
    3bcc:	25fc                	lbu	a5,14(a1)
    3bce:	07c2                	slli	a5,a5,0x10
    3bd0:	8f5d                	or	a4,a4,a5
    3bd2:	35fc                	lbu	a5,15(a1)
    3bd4:	07e2                	slli	a5,a5,0x18
    3bd6:	8fd9                	or	a5,a5,a4
    3bd8:	4058                	lw	a4,4(s0)
    3bda:	8fb9                	xor	a5,a5,a4
    3bdc:	4418                	lw	a4,8(s0)
    3bde:	8ff9                	and	a5,a5,a4
    3be0:	eb81                	bnez	a5,3bf0 <etharp_ip_input+0x54>
    3be2:	4681                	li	a3,0
    3be4:	00648613          	addi	a2,s1,6
    3be8:	05b1                	addi	a1,a1,12
    3bea:	8522                	mv	a0,s0
    3bec:	eb1ff0ef          	jal	ra,3a9c <update_arp_entry>
    3bf0:	e24fc06f          	j	214 <__riscv_restore_0>
    3bf4:	8082                	ret

00003bf6 <etharp_arp_input>:
    3bf6:	16050363          	beqz	a0,3d5c <etharp_arp_input+0x166>
    3bfa:	ddcfc2ef          	jal	t0,1d6 <__riscv_save_4>
    3bfe:	263a                	lhu	a4,10(a2)
    3c00:	02900793          	li	a5,41
    3c04:	1141                	addi	sp,sp,-16
    3c06:	89b2                	mv	s3,a2
    3c08:	8a2e                	mv	s4,a1
    3c0a:	84aa                	mv	s1,a0
    3c0c:	00e7e863          	bltu	a5,a4,3c1c <etharp_arp_input+0x26>
    3c10:	854e                	mv	a0,s3
    3c12:	23b010ef          	jal	ra,564c <pbuf_free>
    3c16:	0141                	addi	sp,sp,16
    3c18:	df2fc06f          	j	20a <__riscv_restore_4>
    3c1c:	00462903          	lw	s2,4(a2)
    3c20:	00d94783          	lbu	a5,13(s2)
    3c24:	00c94503          	lbu	a0,12(s2)
    3c28:	01290413          	addi	s0,s2,18
    3c2c:	07a2                	slli	a5,a5,0x8
    3c2e:	8d5d                	or	a0,a0,a5
    3c30:	2d15                	jal	4264 <htons>
    3c32:	67a1                	lui	a5,0x8
    3c34:	10078793          	addi	a5,a5,256 # 8100 <tcp_output+0x15a>
    3c38:	00f50463          	beq	a0,a5,3c40 <etharp_arp_input+0x4a>
    3c3c:	00e90413          	addi	s0,s2,14
    3c40:	00144a83          	lbu	s5,1(s0)
    3c44:	201c                	lbu	a5,0(s0)
    3c46:	4505                	li	a0,1
    3c48:	0aa2                	slli	s5,s5,0x8
    3c4a:	00faeab3          	or	s5,s5,a5
    3c4e:	2d19                	jal	4264 <htons>
    3c50:	fcaa90e3          	bne	s5,a0,3c10 <etharp_arp_input+0x1a>
    3c54:	00544a83          	lbu	s5,5(s0)
    3c58:	205c                	lbu	a5,4(s0)
    3c5a:	60400513          	li	a0,1540
    3c5e:	0aa2                	slli	s5,s5,0x8
    3c60:	00faeab3          	or	s5,s5,a5
    3c64:	2501                	jal	4264 <htons>
    3c66:	faaa95e3          	bne	s5,a0,3c10 <etharp_arp_input+0x1a>
    3c6a:	00344a83          	lbu	s5,3(s0)
    3c6e:	203c                	lbu	a5,2(s0)
    3c70:	6505                	lui	a0,0x1
    3c72:	0aa2                	slli	s5,s5,0x8
    3c74:	80050513          	addi	a0,a0,-2048 # 800 <__stack_size>
    3c78:	00faeab3          	or	s5,s5,a5
    3c7c:	23e5                	jal	4264 <htons>
    3c7e:	f8aa99e3          	bne	s5,a0,3c10 <etharp_arp_input+0x1a>
    3c82:	00e40a93          	addi	s5,s0,14
    3c86:	4611                	li	a2,4
    3c88:	85d6                	mv	a1,s5
    3c8a:	0068                	addi	a0,sp,12
    3c8c:	11d050ef          	jal	ra,95a8 <memcpy>
    3c90:	40d4                	lw	a3,4(s1)
    3c92:	00840613          	addi	a2,s0,8
    3c96:	c2ad                	beqz	a3,3cf8 <etharp_arp_input+0x102>
    3c98:	3c18                	lbu	a4,25(s0)
    3c9a:	2c1c                	lbu	a5,24(s0)
    3c9c:	0722                	slli	a4,a4,0x8
    3c9e:	8f5d                	or	a4,a4,a5
    3ca0:	2c3c                	lbu	a5,26(s0)
    3ca2:	07c2                	slli	a5,a5,0x10
    3ca4:	8f5d                	or	a4,a4,a5
    3ca6:	3c3c                	lbu	a5,27(s0)
    3ca8:	07e2                	slli	a5,a5,0x18
    3caa:	8fd9                	or	a5,a5,a4
    3cac:	04f69663          	bne	a3,a5,3cf8 <etharp_arp_input+0x102>
    3cb0:	4685                	li	a3,1
    3cb2:	006c                	addi	a1,sp,12
    3cb4:	8526                	mv	a0,s1
    3cb6:	de7ff0ef          	jal	ra,3a9c <update_arp_entry>
    3cba:	4b05                	li	s6,1
    3cbc:	307c                	lbu	a5,7(s0)
    3cbe:	2068                	lbu	a0,6(s0)
    3cc0:	07a2                	slli	a5,a5,0x8
    3cc2:	8d5d                	or	a0,a0,a5
    3cc4:	2345                	jal	4264 <htons>
    3cc6:	4785                	li	a5,1
    3cc8:	02f50f63          	beq	a0,a5,3d06 <etharp_arp_input+0x110>
    3ccc:	4789                	li	a5,2
    3cce:	f4f511e3          	bne	a0,a5,3c10 <etharp_arp_input+0x1a>
    3cd2:	006c                	addi	a1,sp,12
    3cd4:	8526                	mv	a0,s1
    3cd6:	33e010ef          	jal	ra,5014 <dhcp_arp_reply>
    3cda:	200097b7          	lui	a5,0x20009
    3cde:	ac47a703          	lw	a4,-1340(a5) # 20008ac4 <DHCPCtrl>
    3ce2:	f20707e3          	beqz	a4,3c10 <etharp_arp_input+0x1a>
    3ce6:	ac478793          	addi	a5,a5,-1340
    3cea:	47dc                	lw	a5,12(a5)
    3cec:	f20782e3          	beqz	a5,3c10 <etharp_arp_input+0x1a>
    3cf0:	006c                	addi	a1,sp,12
    3cf2:	8526                	mv	a0,s1
    3cf4:	9782                	jalr	a5
    3cf6:	bf29                	j	3c10 <etharp_arp_input+0x1a>
    3cf8:	4681                	li	a3,0
    3cfa:	006c                	addi	a1,sp,12
    3cfc:	8526                	mv	a0,s1
    3cfe:	d9fff0ef          	jal	ra,3a9c <update_arp_entry>
    3d02:	4b01                	li	s6,0
    3d04:	bf65                	j	3cbc <etharp_arp_input+0xc6>
    3d06:	f00b05e3          	beqz	s6,3c10 <etharp_arp_input+0x1a>
    3d0a:	4509                	li	a0,2
    3d0c:	2ba1                	jal	4264 <htons>
    3d0e:	a068                	sb	a0,6(s0)
    3d10:	8121                	srli	a0,a0,0x8
    3d12:	b068                	sb	a0,7(s0)
    3d14:	4611                	li	a2,4
    3d16:	85d6                	mv	a1,s5
    3d18:	01840513          	addi	a0,s0,24
    3d1c:	08d050ef          	jal	ra,95a8 <memcpy>
    3d20:	4611                	li	a2,4
    3d22:	00448593          	addi	a1,s1,4
    3d26:	8556                	mv	a0,s5
    3d28:	081050ef          	jal	ra,95a8 <memcpy>
    3d2c:	0435                	addi	s0,s0,13
    3d2e:	0915                	addi	s2,s2,5
    3d30:	4795                	li	a5,5
    3d32:	56fd                	li	a3,-1
    3d34:	2018                	lbu	a4,0(s0)
    3d36:	197d                	addi	s2,s2,-1
    3d38:	147d                	addi	s0,s0,-1
    3d3a:	b438                	sb	a4,11(s0)
    3d3c:	00e900a3          	sb	a4,1(s2)
    3d40:	00fa0733          	add	a4,s4,a5
    3d44:	2318                	lbu	a4,0(a4)
    3d46:	17fd                	addi	a5,a5,-1
    3d48:	b018                	sb	a4,1(s0)
    3d4a:	00e903a3          	sb	a4,7(s2)
    3d4e:	fed793e3          	bne	a5,a3,3d34 <etharp_arp_input+0x13e>
    3d52:	4c9c                	lw	a5,24(s1)
    3d54:	85ce                	mv	a1,s3
    3d56:	8526                	mv	a0,s1
    3d58:	9782                	jalr	a5
    3d5a:	bd5d                	j	3c10 <etharp_arp_input+0x1a>
    3d5c:	8082                	ret

00003d5e <etharp_request>:
    3d5e:	c78fc2ef          	jal	t0,1d6 <__riscv_save_4>
    3d62:	892a                	mv	s2,a0
    3d64:	89ae                	mv	s3,a1
    3d66:	4601                	li	a2,0
    3d68:	02a00593          	li	a1,42
    3d6c:	450d                	li	a0,3
    3d6e:	12d010ef          	jal	ra,569a <pbuf_alloc>
    3d72:	547d                	li	s0,-1
    3d74:	c94d                	beqz	a0,3e26 <etharp_request+0xc8>
    3d76:	4140                	lw	s0,4(a0)
    3d78:	84aa                	mv	s1,a0
    3d7a:	4505                	li	a0,1
    3d7c:	21e5                	jal	4264 <htons>
    3d7e:	a848                	sb	a0,20(s0)
    3d80:	8121                	srli	a0,a0,0x8
    3d82:	b848                	sb	a0,21(s0)
    3d84:	02e90693          	addi	a3,s2,46
    3d88:	00540793          	addi	a5,s0,5
    3d8c:	4715                	li	a4,5
    3d8e:	84018593          	addi	a1,gp,-1984 # 20000060 <ethzero>
    3d92:	83818613          	addi	a2,gp,-1992 # 20000058 <ethbroadcast>
    3d96:	557d                	li	a0,-1
    3d98:	0006c803          	lbu	a6,0(a3)
    3d9c:	17fd                	addi	a5,a5,-1
    3d9e:	16fd                	addi	a3,a3,-1
    3da0:	01078ba3          	sb	a6,23(a5)
    3da4:	00e58833          	add	a6,a1,a4
    3da8:	00084803          	lbu	a6,0(a6)
    3dac:	030780a3          	sb	a6,33(a5)
    3db0:	00e60833          	add	a6,a2,a4
    3db4:	00084803          	lbu	a6,0(a6)
    3db8:	177d                	addi	a4,a4,-1
    3dba:	010780a3          	sb	a6,1(a5)
    3dbe:	0016c803          	lbu	a6,1(a3)
    3dc2:	010783a3          	sb	a6,7(a5)
    3dc6:	fca719e3          	bne	a4,a0,3d98 <etharp_request+0x3a>
    3dca:	4611                	li	a2,4
    3dcc:	00490593          	addi	a1,s2,4
    3dd0:	01c40513          	addi	a0,s0,28
    3dd4:	7d4050ef          	jal	ra,95a8 <memcpy>
    3dd8:	85ce                	mv	a1,s3
    3dda:	4611                	li	a2,4
    3ddc:	02640513          	addi	a0,s0,38
    3de0:	7c8050ef          	jal	ra,95a8 <memcpy>
    3de4:	4505                	li	a0,1
    3de6:	29bd                	jal	4264 <htons>
    3de8:	a468                	sb	a0,14(s0)
    3dea:	6985                	lui	s3,0x1
    3dec:	8121                	srli	a0,a0,0x8
    3dee:	b468                	sb	a0,15(s0)
    3df0:	80098513          	addi	a0,s3,-2048 # 800 <__stack_size>
    3df4:	2985                	jal	4264 <htons>
    3df6:	a808                	sb	a0,16(s0)
    3df8:	8121                	srli	a0,a0,0x8
    3dfa:	b808                	sb	a0,17(s0)
    3dfc:	60400513          	li	a0,1540
    3e00:	2195                	jal	4264 <htons>
    3e02:	a828                	sb	a0,18(s0)
    3e04:	8121                	srli	a0,a0,0x8
    3e06:	b828                	sb	a0,19(s0)
    3e08:	80698513          	addi	a0,s3,-2042
    3e0c:	29a1                	jal	4264 <htons>
    3e0e:	01892783          	lw	a5,24(s2)
    3e12:	a448                	sb	a0,12(s0)
    3e14:	8121                	srli	a0,a0,0x8
    3e16:	b448                	sb	a0,13(s0)
    3e18:	85a6                	mv	a1,s1
    3e1a:	854a                	mv	a0,s2
    3e1c:	9782                	jalr	a5
    3e1e:	842a                	mv	s0,a0
    3e20:	8526                	mv	a0,s1
    3e22:	02b010ef          	jal	ra,564c <pbuf_free>
    3e26:	8522                	mv	a0,s0
    3e28:	be2fc06f          	j	20a <__riscv_restore_4>

00003e2c <etharp_query>:
    3e2c:	baafc2ef          	jal	t0,1d6 <__riscv_save_4>
    3e30:	842e                	mv	s0,a1
    3e32:	892a                	mv	s2,a0
    3e34:	85aa                	mv	a1,a0
    3e36:	8522                	mv	a0,s0
    3e38:	89b2                	mv	s3,a2
    3e3a:	0ed000ef          	jal	ra,4726 <ip_addr_isbroadcast>
    3e3e:	c501                	beqz	a0,3e46 <etharp_query+0x1a>
    3e40:	5559                	li	a0,-10
    3e42:	bc8fc06f          	j	20a <__riscv_restore_4>
    3e46:	301c                	lbu	a5,1(s0)
    3e48:	2004                	lbu	s1,0(s0)
    3e4a:	f0000537          	lui	a0,0xf0000
    3e4e:	07a2                	slli	a5,a5,0x8
    3e50:	8fc5                	or	a5,a5,s1
    3e52:	2024                	lbu	s1,2(s0)
    3e54:	04c2                	slli	s1,s1,0x10
    3e56:	8fc5                	or	a5,a5,s1
    3e58:	3024                	lbu	s1,3(s0)
    3e5a:	04e2                	slli	s1,s1,0x18
    3e5c:	8cdd                	or	s1,s1,a5
    3e5e:	2199                	jal	42a4 <ntohl>
    3e60:	8ce9                	and	s1,s1,a0
    3e62:	e0000537          	lui	a0,0xe0000
    3e66:	293d                	jal	42a4 <ntohl>
    3e68:	fca48ce3          	beq	s1,a0,3e40 <etharp_query+0x14>
    3e6c:	3018                	lbu	a4,1(s0)
    3e6e:	201c                	lbu	a5,0(s0)
    3e70:	0722                	slli	a4,a4,0x8
    3e72:	8f5d                	or	a4,a4,a5
    3e74:	203c                	lbu	a5,2(s0)
    3e76:	07c2                	slli	a5,a5,0x10
    3e78:	8f5d                	or	a4,a4,a5
    3e7a:	303c                	lbu	a5,3(s0)
    3e7c:	07e2                	slli	a5,a5,0x18
    3e7e:	8fd9                	or	a5,a5,a4
    3e80:	d3e1                	beqz	a5,3e40 <etharp_query+0x14>
    3e82:	4585                	li	a1,1
    3e84:	8522                	mv	a0,s0
    3e86:	a99ff0ef          	jal	ra,391e <find_entry>
    3e8a:	fa054ce3          	bltz	a0,3e42 <etharp_query+0x16>
    3e8e:	47e1                	li	a5,24
    3e90:	02f504b3          	mul	s1,a0,a5
    3e94:	8241a703          	lw	a4,-2012(gp) # 20000044 <arp_table>
    3e98:	82418a13          	addi	s4,gp,-2012 # 20000044 <arp_table>
    3e9c:	4785                	li	a5,1
    3e9e:	9726                	add	a4,a4,s1
    3ea0:	4754                	lw	a3,12(a4)
    3ea2:	ea99                	bnez	a3,3eb8 <etharp_query+0x8c>
    3ea4:	c75c                	sw	a5,12(a4)
    3ea6:	a6dff0ef          	jal	ra,3912 <LwipArpCheck>
    3eaa:	85a2                	mv	a1,s0
    3eac:	854a                	mv	a0,s2
    3eae:	eb1ff0ef          	jal	ra,3d5e <etharp_request>
    3eb2:	f80988e3          	beqz	s3,3e42 <etharp_query+0x16>
    3eb6:	a031                	j	3ec2 <etharp_query+0x96>
    3eb8:	fef687e3          	beq	a3,a5,3ea6 <etharp_query+0x7a>
    3ebc:	557d                	li	a0,-1
    3ebe:	fe0984e3          	beqz	s3,3ea6 <etharp_query+0x7a>
    3ec2:	000a2783          	lw	a5,0(s4)
    3ec6:	4709                	li	a4,2
    3ec8:	97a6                	add	a5,a5,s1
    3eca:	47d4                	lw	a3,12(a5)
    3ecc:	f6e69be3          	bne	a3,a4,3e42 <etharp_query+0x16>
    3ed0:	0049a403          	lw	s0,4(s3)
    3ed4:	00978713          	addi	a4,a5,9
    3ed8:	02e90613          	addi	a2,s2,46
    3edc:	00540693          	addi	a3,s0,5
    3ee0:	078d                	addi	a5,a5,3
    3ee2:	230c                	lbu	a1,0(a4)
    3ee4:	177d                	addi	a4,a4,-1
    3ee6:	16fd                	addi	a3,a3,-1
    3ee8:	b28c                	sb	a1,1(a3)
    3eea:	220c                	lbu	a1,0(a2)
    3eec:	167d                	addi	a2,a2,-1
    3eee:	b2ec                	sb	a1,7(a3)
    3ef0:	fef719e3          	bne	a4,a5,3ee2 <etharp_query+0xb6>
    3ef4:	6505                	lui	a0,0x1
    3ef6:	80050513          	addi	a0,a0,-2048 # 800 <__stack_size>
    3efa:	26ad                	jal	4264 <htons>
    3efc:	01892783          	lw	a5,24(s2)
    3f00:	a448                	sb	a0,12(s0)
    3f02:	8121                	srli	a0,a0,0x8
    3f04:	b448                	sb	a0,13(s0)
    3f06:	85ce                	mv	a1,s3
    3f08:	854a                	mv	a0,s2
    3f0a:	9782                	jalr	a5
    3f0c:	bf1d                	j	3e42 <etharp_query+0x16>

00003f0e <etharp_output>:
    3f0e:	ac8fc2ef          	jal	t0,1d6 <__riscv_save_4>
    3f12:	84ae                	mv	s1,a1
    3f14:	1141                	addi	sp,sp,-16
    3f16:	892a                	mv	s2,a0
    3f18:	45b9                	li	a1,14
    3f1a:	8526                	mv	a0,s1
    3f1c:	8432                	mv	s0,a2
    3f1e:	6c0010ef          	jal	ra,55de <pbuf_header>
    3f22:	10051e63          	bnez	a0,403e <etharp_output+0x130>
    3f26:	85ca                	mv	a1,s2
    3f28:	8522                	mv	a0,s0
    3f2a:	7fc000ef          	jal	ra,4726 <ip_addr_isbroadcast>
    3f2e:	10051563          	bnez	a0,4038 <etharp_output+0x12a>
    3f32:	301c                	lbu	a5,1(s0)
    3f34:	00044983          	lbu	s3,0(s0)
    3f38:	f0000537          	lui	a0,0xf0000
    3f3c:	07a2                	slli	a5,a5,0x8
    3f3e:	0137e7b3          	or	a5,a5,s3
    3f42:	00244983          	lbu	s3,2(s0)
    3f46:	09c2                	slli	s3,s3,0x10
    3f48:	00f9e7b3          	or	a5,s3,a5
    3f4c:	00344983          	lbu	s3,3(s0)
    3f50:	09e2                	slli	s3,s3,0x18
    3f52:	00f9e9b3          	or	s3,s3,a5
    3f56:	26b9                	jal	42a4 <ntohl>
    3f58:	00a9f9b3          	and	s3,s3,a0
    3f5c:	e0000537          	lui	a0,0xe0000
    3f60:	2691                	jal	42a4 <ntohl>
    3f62:	2010                	lbu	a2,0(s0)
    3f64:	3014                	lbu	a3,1(s0)
    3f66:	2038                	lbu	a4,2(s0)
    3f68:	303c                	lbu	a5,3(s0)
    3f6a:	08a99c63          	bne	s3,a0,4002 <etharp_output+0xf4>
    3f6e:	00869513          	slli	a0,a3,0x8
    3f72:	8d51                	or	a0,a0,a2
    3f74:	0742                	slli	a4,a4,0x10
    3f76:	8d59                	or	a0,a0,a4
    3f78:	07e2                	slli	a5,a5,0x18
    3f7a:	4585                	li	a1,1
    3f7c:	846c                	sh	a1,8(sp)
    3f7e:	8d5d                	or	a0,a0,a5
    3f80:	05e00593          	li	a1,94
    3f84:	854c                	sb	a1,10(sp)
    3f86:	2e39                	jal	42a4 <ntohl>
    3f88:	8141                	srli	a0,a0,0x10
    3f8a:	07f57513          	andi	a0,a0,127
    3f8e:	85c8                	sb	a0,11(sp)
    3f90:	3008                	lbu	a0,1(s0)
    3f92:	201c                	lbu	a5,0(s0)
    3f94:	0522                	slli	a0,a0,0x8
    3f96:	8d5d                	or	a0,a0,a5
    3f98:	203c                	lbu	a5,2(s0)
    3f9a:	07c2                	slli	a5,a5,0x10
    3f9c:	8fc9                	or	a5,a5,a0
    3f9e:	3028                	lbu	a0,3(s0)
    3fa0:	0562                	slli	a0,a0,0x18
    3fa2:	8d5d                	or	a0,a0,a5
    3fa4:	2601                	jal	42a4 <ntohl>
    3fa6:	8121                	srli	a0,a0,0x8
    3fa8:	8648                	sb	a0,12(sp)
    3faa:	3008                	lbu	a0,1(s0)
    3fac:	201c                	lbu	a5,0(s0)
    3fae:	0522                	slli	a0,a0,0x8
    3fb0:	8d5d                	or	a0,a0,a5
    3fb2:	203c                	lbu	a5,2(s0)
    3fb4:	07c2                	slli	a5,a5,0x10
    3fb6:	8fc9                	or	a5,a5,a0
    3fb8:	3028                	lbu	a0,3(s0)
    3fba:	0562                	slli	a0,a0,0x18
    3fbc:	8d5d                	or	a0,a0,a5
    3fbe:	24dd                	jal	42a4 <ntohl>
    3fc0:	86c8                	sb	a0,13(sp)
    3fc2:	0034                	addi	a3,sp,8
    3fc4:	40c0                	lw	s0,4(s1)
    3fc6:	4795                	li	a5,5
    3fc8:	567d                	li	a2,-1
    3fca:	00540713          	addi	a4,s0,5
    3fce:	00f685b3          	add	a1,a3,a5
    3fd2:	218c                	lbu	a1,0(a1)
    3fd4:	177d                	addi	a4,a4,-1
    3fd6:	b30c                	sb	a1,1(a4)
    3fd8:	00f905b3          	add	a1,s2,a5
    3fdc:	0295c583          	lbu	a1,41(a1)
    3fe0:	17fd                	addi	a5,a5,-1
    3fe2:	b36c                	sb	a1,7(a4)
    3fe4:	fec795e3          	bne	a5,a2,3fce <etharp_output+0xc0>
    3fe8:	6505                	lui	a0,0x1
    3fea:	80050513          	addi	a0,a0,-2048 # 800 <__stack_size>
    3fee:	2c9d                	jal	4264 <htons>
    3ff0:	01892783          	lw	a5,24(s2)
    3ff4:	a448                	sb	a0,12(s0)
    3ff6:	8121                	srli	a0,a0,0x8
    3ff8:	b448                	sb	a0,13(s0)
    3ffa:	85a6                	mv	a1,s1
    3ffc:	854a                	mv	a0,s2
    3ffe:	9782                	jalr	a5
    4000:	a80d                	j	4032 <etharp_output+0x124>
    4002:	06a2                	slli	a3,a3,0x8
    4004:	8ed1                	or	a3,a3,a2
    4006:	0742                	slli	a4,a4,0x10
    4008:	8f55                	or	a4,a4,a3
    400a:	07e2                	slli	a5,a5,0x18
    400c:	8fd9                	or	a5,a5,a4
    400e:	00492703          	lw	a4,4(s2)
    4012:	8fb9                	xor	a5,a5,a4
    4014:	00892703          	lw	a4,8(s2)
    4018:	8ff9                	and	a5,a5,a4
    401a:	c799                	beqz	a5,4028 <etharp_output+0x11a>
    401c:	00c92783          	lw	a5,12(s2)
    4020:	5571                	li	a0,-4
    4022:	cb81                	beqz	a5,4032 <etharp_output+0x124>
    4024:	00c90413          	addi	s0,s2,12
    4028:	8626                	mv	a2,s1
    402a:	85a2                	mv	a1,s0
    402c:	854a                	mv	a0,s2
    402e:	dffff0ef          	jal	ra,3e2c <etharp_query>
    4032:	0141                	addi	sp,sp,16
    4034:	9d6fc06f          	j	20a <__riscv_restore_4>
    4038:	83818693          	addi	a3,gp,-1992 # 20000058 <ethbroadcast>
    403c:	b761                	j	3fc4 <etharp_output+0xb6>
    403e:	5579                	li	a0,-2
    4040:	bfcd                	j	4032 <etharp_output+0x124>

00004042 <ethernet_input>:
    4042:	9aefc2ef          	jal	t0,1f0 <__riscv_save_0>
    4046:	4144                	lw	s1,4(a0)
    4048:	842a                	mv	s0,a0
    404a:	892e                	mv	s2,a1
    404c:	34dc                	lbu	a5,13(s1)
    404e:	24c8                	lbu	a0,12(s1)
    4050:	07a2                	slli	a5,a5,0x8
    4052:	8d5d                	or	a0,a0,a5
    4054:	2c01                	jal	4264 <htons>
    4056:	67a1                	lui	a5,0x8
    4058:	10078793          	addi	a5,a5,256 # 8100 <tcp_output+0x15a>
    405c:	00f51763          	bne	a0,a5,406a <ethernet_input+0x28>
    4060:	389c                	lbu	a5,17(s1)
    4062:	2888                	lbu	a0,16(s1)
    4064:	07a2                	slli	a5,a5,0x8
    4066:	8d5d                	or	a0,a0,a5
    4068:	2af5                	jal	4264 <htons>
    406a:	80050793          	addi	a5,a0,-2048
    406e:	cb91                	beqz	a5,4082 <ethernet_input+0x40>
    4070:	6785                	lui	a5,0x1
    4072:	80678793          	addi	a5,a5,-2042 # 806 <__stack_size+0x6>
    4076:	04f50263          	beq	a0,a5,40ba <ethernet_input+0x78>
    407a:	8522                	mv	a0,s0
    407c:	5d0010ef          	jal	ra,564c <pbuf_free>
    4080:	a815                	j	40b4 <ethernet_input+0x72>
    4082:	85a2                	mv	a1,s0
    4084:	854a                	mv	a0,s2
    4086:	b17ff0ef          	jal	ra,3b9c <etharp_ip_input>
    408a:	34dc                	lbu	a5,13(s1)
    408c:	24c8                	lbu	a0,12(s1)
    408e:	07a2                	slli	a5,a5,0x8
    4090:	8d5d                	or	a0,a0,a5
    4092:	2ac9                	jal	4264 <htons>
    4094:	67a1                	lui	a5,0x8
    4096:	10078793          	addi	a5,a5,256 # 8100 <tcp_output+0x15a>
    409a:	45b9                	li	a1,14
    409c:	00f51363          	bne	a0,a5,40a2 <ethernet_input+0x60>
    40a0:	45c9                	li	a1,18
    40a2:	40b005b3          	neg	a1,a1
    40a6:	8522                	mv	a0,s0
    40a8:	536010ef          	jal	ra,55de <pbuf_header>
    40ac:	f579                	bnez	a0,407a <ethernet_input+0x38>
    40ae:	85ca                	mv	a1,s2
    40b0:	8522                	mv	a0,s0
    40b2:	24a9                	jal	42fc <ip_input>
    40b4:	4501                	li	a0,0
    40b6:	95efc06f          	j	214 <__riscv_restore_0>
    40ba:	8622                	mv	a2,s0
    40bc:	02990593          	addi	a1,s2,41
    40c0:	854a                	mv	a0,s2
    40c2:	b35ff0ef          	jal	ra,3bf6 <etharp_arp_input>
    40c6:	b7fd                	j	40b4 <ethernet_input+0x72>

000040c8 <ethernetif_init>:
    40c8:	928fc2ef          	jal	t0,1f0 <__riscv_save_0>
    40cc:	200097b7          	lui	a5,0x20009
    40d0:	adc78793          	addi	a5,a5,-1316 # 20008adc <dhcp_host_name>
    40d4:	d15c                	sw	a5,36(a0)
    40d6:	06500793          	li	a5,101
    40da:	02f509a3          	sb	a5,51(a0)
    40de:	06e00793          	li	a5,110
    40e2:	02f50a23          	sb	a5,52(a0)
    40e6:	000047b7          	lui	a5,0x4
    40ea:	f0e78793          	addi	a5,a5,-242 # 3f0e <etharp_output>
    40ee:	c95c                	sw	a5,20(a0)
    40f0:	000047b7          	lui	a5,0x4
    40f4:	12c78793          	addi	a5,a5,300 # 412c <low_level_output>
    40f8:	cd1c                	sw	a5,24(a0)
    40fa:	200095b7          	lui	a1,0x20009
    40fe:	4799                	li	a5,6
    4100:	842a                	mv	s0,a0
    4102:	02f50423          	sb	a5,40(a0)
    4106:	00052e23          	sw	zero,28(a0)
    410a:	4619                	li	a2,6
    410c:	bd558593          	addi	a1,a1,-1067 # 20008bd5 <WCHNetIf+0x29>
    4110:	02950513          	addi	a0,a0,41
    4114:	494050ef          	jal	ra,95a8 <memcpy>
    4118:	5dc00793          	li	a5,1500
    411c:	b81e                	sh	a5,48(s0)
    411e:	03300793          	li	a5,51
    4122:	02f40923          	sb	a5,50(s0)
    4126:	4501                	li	a0,0
    4128:	8ecfc06f          	j	214 <__riscv_restore_0>

0000412c <low_level_output>:
    412c:	8c4fc2ef          	jal	t0,1f0 <__riscv_save_0>
    4130:	64b1                	lui	s1,0xc
    4132:	842e                	mv	s0,a1
    4134:	35148493          	addi	s1,s1,849 # c351 <_data_lma+0x2b09>
    4138:	ee8ff0ef          	jal	ra,3820 <WCHNET_GetPHYStatus>
    413c:	8911                	andi	a0,a0,4
    413e:	cd15                	beqz	a0,417a <low_level_output+0x4e>
    4140:	14fd                	addi	s1,s1,-1
    4142:	cc85                	beqz	s1,417a <low_level_output+0x4e>
    4144:	877fe0ef          	jal	ra,29ba <getTxBuffAddr>
    4148:	892a                	mv	s2,a0
    414a:	d57d                	beqz	a0,4138 <low_level_output+0xc>
    414c:	87aa                	mv	a5,a0
    414e:	4481                	li	s1,0
    4150:	e801                	bnez	s0,4160 <low_level_output+0x34>
    4152:	85ca                	mv	a1,s2
    4154:	8526                	mv	a0,s1
    4156:	825fe0ef          	jal	ra,297a <WCHNET_Tx>
    415a:	4501                	li	a0,0
    415c:	8b8fc06f          	j	214 <__riscv_restore_0>
    4160:	2432                	lhu	a2,10(s0)
    4162:	404c                	lw	a1,4(s0)
    4164:	853e                	mv	a0,a5
    4166:	442050ef          	jal	ra,95a8 <memcpy>
    416a:	243a                	lhu	a4,10(s0)
    416c:	4000                	lw	s0,0(s0)
    416e:	94ba                	add	s1,s1,a4
    4170:	04c2                	slli	s1,s1,0x10
    4172:	00e507b3          	add	a5,a0,a4
    4176:	80c1                	srli	s1,s1,0x10
    4178:	bfe1                	j	4150 <low_level_output+0x24>
    417a:	5551                	li	a0,-12
    417c:	b7c5                	j	415c <low_level_output+0x30>

0000417e <ethernetif_input>:
    417e:	858fc2ef          	jal	t0,1d6 <__riscv_save_4>
    4182:	200097b7          	lui	a5,0x20009
    4186:	ba47a783          	lw	a5,-1116(a5) # 20008ba4 <WCHCfg+0x24>
    418a:	89aa                	mv	s3,a0
    418c:	8d818513          	addi	a0,gp,-1832 # 200000f8 <frame>
    4190:	8d818493          	addi	s1,gp,-1832 # 200000f8 <frame>
    4194:	9782                	jalr	a5
    4196:	408c                	lw	a1,0(s1)
    4198:	c9a9                	beqz	a1,41ea <ethernetif_input+0x6c>
    419a:	8cd1c783          	lbu	a5,-1843(gp) # 200000ed <phydata>
    419e:	8d818413          	addi	s0,gp,-1832 # 200000f8 <frame>
    41a2:	0ff7f793          	andi	a5,a5,255
    41a6:	e781                	bnez	a5,41ae <ethernetif_input+0x30>
    41a8:	4785                	li	a5,1
    41aa:	8cf186a3          	sb	a5,-1843(gp) # 200000ed <phydata>
    41ae:	05c2                	slli	a1,a1,0x10
    41b0:	460d                	li	a2,3
    41b2:	81c1                	srli	a1,a1,0x10
    41b4:	450d                	li	a0,3
    41b6:	4044                	lw	s1,4(s0)
    41b8:	4e2010ef          	jal	ra,569a <pbuf_alloc>
    41bc:	892a                	mv	s2,a0
    41be:	c515                	beqz	a0,41ea <ethernetif_input+0x6c>
    41c0:	842a                	mv	s0,a0
    41c2:	2432                	lhu	a2,10(s0)
    41c4:	4048                	lw	a0,4(s0)
    41c6:	85a6                	mv	a1,s1
    41c8:	3e0050ef          	jal	ra,95a8 <memcpy>
    41cc:	243e                	lhu	a5,10(s0)
    41ce:	4000                	lw	s0,0(s0)
    41d0:	94be                	add	s1,s1,a5
    41d2:	f865                	bnez	s0,41c2 <ethernetif_input+0x44>
    41d4:	f94fe0ef          	jal	ra,2968 <setRxBuffAddr>
    41d8:	0109a783          	lw	a5,16(s3)
    41dc:	85ce                	mv	a1,s3
    41de:	854a                	mv	a0,s2
    41e0:	9782                	jalr	a5
    41e2:	c501                	beqz	a0,41ea <ethernetif_input+0x6c>
    41e4:	854a                	mv	a0,s2
    41e6:	466010ef          	jal	ra,564c <pbuf_free>
    41ea:	820fc06f          	j	20a <__riscv_restore_4>

000041ee <wch_ethernetif_init>:
    41ee:	802fc2ef          	jal	t0,1f0 <__riscv_save_0>
    41f2:	1141                	addi	sp,sp,-16
    41f4:	20009437          	lui	s0,0x20009
    41f8:	c202                	sw	zero,4(sp)
    41fa:	c402                	sw	zero,8(sp)
    41fc:	c602                	sw	zero,12(sp)
    41fe:	799000ef          	jal	ra,5196 <lwip_init>
    4202:	bac40513          	addi	a0,s0,-1108 # 20008bac <WCHNetIf>
    4206:	200095b7          	lui	a1,0x20009
    420a:	4619                	li	a2,6
    420c:	b4858593          	addi	a1,a1,-1208 # 20008b48 <NetInf+0xc>
    4210:	02950513          	addi	a0,a0,41
    4214:	394050ef          	jal	ra,95a8 <memcpy>
    4218:	200097b7          	lui	a5,0x20009
    421c:	b3c7a703          	lw	a4,-1220(a5) # 20008b3c <NetInf>
    4220:	b3c78793          	addi	a5,a5,-1220
    4224:	bac40513          	addi	a0,s0,-1108
    4228:	c23a                	sw	a4,4(sp)
    422a:	4798                	lw	a4,8(a5)
    422c:	43dc                	lw	a5,4(a5)
    422e:	c43a                	sw	a4,8(sp)
    4230:	c63e                	sw	a5,12(sp)
    4232:	8e01ac23          	sw	zero,-1800(gp) # 20000118 <netif_list>
    4236:	8e01aa23          	sw	zero,-1804(gp) # 20000114 <netif_default>
    423a:	396010ef          	jal	ra,55d0 <netif_set_default>
    423e:	00004837          	lui	a6,0x4
    4242:	000047b7          	lui	a5,0x4
    4246:	0074                	addi	a3,sp,12
    4248:	0030                	addi	a2,sp,8
    424a:	004c                	addi	a1,sp,4
    424c:	04280813          	addi	a6,a6,66 # 4042 <ethernet_input>
    4250:	0c878793          	addi	a5,a5,200 # 40c8 <ethernetif_init>
    4254:	4701                	li	a4,0
    4256:	bac40513          	addi	a0,s0,-1108
    425a:	31c010ef          	jal	ra,5576 <netif_add>
    425e:	0141                	addi	sp,sp,16
    4260:	fb5fb06f          	j	214 <__riscv_restore_0>

00004264 <htons>:
    4264:	00851793          	slli	a5,a0,0x8
    4268:	8121                	srli	a0,a0,0x8
    426a:	8d5d                	or	a0,a0,a5
    426c:	0542                	slli	a0,a0,0x10
    426e:	8141                	srli	a0,a0,0x10
    4270:	8082                	ret

00004272 <ntohs>:
    4272:	00851793          	slli	a5,a0,0x8
    4276:	8121                	srli	a0,a0,0x8
    4278:	8d5d                	or	a0,a0,a5
    427a:	0542                	slli	a0,a0,0x10
    427c:	8141                	srli	a0,a0,0x10
    427e:	8082                	ret

00004280 <htonl>:
    4280:	01855713          	srli	a4,a0,0x18
    4284:	01851793          	slli	a5,a0,0x18
    4288:	8fd9                	or	a5,a5,a4
    428a:	00ff06b7          	lui	a3,0xff0
    428e:	00851713          	slli	a4,a0,0x8
    4292:	8f75                	and	a4,a4,a3
    4294:	8fd9                	or	a5,a5,a4
    4296:	6741                	lui	a4,0x10
    4298:	f0070713          	addi	a4,a4,-256 # ff00 <_data_lma+0x66b8>
    429c:	8121                	srli	a0,a0,0x8
    429e:	8d79                	and	a0,a0,a4
    42a0:	8d5d                	or	a0,a0,a5
    42a2:	8082                	ret

000042a4 <ntohl>:
    42a4:	f4dfb2ef          	jal	t0,1f0 <__riscv_save_0>
    42a8:	fd9ff0ef          	jal	ra,4280 <htonl>
    42ac:	f69fb06f          	j	214 <__riscv_restore_0>

000042b0 <ip_route>:
    42b0:	f41fb2ef          	jal	t0,1f0 <__riscv_save_0>
    42b4:	8f81a403          	lw	s0,-1800(gp) # 20000118 <netif_list>
    42b8:	84aa                	mv	s1,a0
    42ba:	ec01                	bnez	s0,42d2 <ip_route+0x22>
    42bc:	8f41a503          	lw	a0,-1804(gp) # 20000114 <netif_default>
    42c0:	c511                	beqz	a0,42cc <ip_route+0x1c>
    42c2:	314010ef          	jal	ra,55d6 <netif_is_up>
    42c6:	c119                	beqz	a0,42cc <ip_route+0x1c>
    42c8:	8f41a403          	lw	s0,-1804(gp) # 20000114 <netif_default>
    42cc:	8522                	mv	a0,s0
    42ce:	f47fb06f          	j	214 <__riscv_restore_0>
    42d2:	8522                	mv	a0,s0
    42d4:	302010ef          	jal	ra,55d6 <netif_is_up>
    42d8:	c105                	beqz	a0,42f8 <ip_route+0x48>
    42da:	3098                	lbu	a4,1(s1)
    42dc:	209c                	lbu	a5,0(s1)
    42de:	0722                	slli	a4,a4,0x8
    42e0:	8f5d                	or	a4,a4,a5
    42e2:	20bc                	lbu	a5,2(s1)
    42e4:	07c2                	slli	a5,a5,0x10
    42e6:	8f5d                	or	a4,a4,a5
    42e8:	30bc                	lbu	a5,3(s1)
    42ea:	07e2                	slli	a5,a5,0x18
    42ec:	8fd9                	or	a5,a5,a4
    42ee:	4058                	lw	a4,4(s0)
    42f0:	8fb9                	xor	a5,a5,a4
    42f2:	4418                	lw	a4,8(s0)
    42f4:	8ff9                	and	a5,a5,a4
    42f6:	dbf9                	beqz	a5,42cc <ip_route+0x1c>
    42f8:	4000                	lw	s0,0(s0)
    42fa:	b7c1                	j	42ba <ip_route+0xa>

000042fc <ip_input>:
    42fc:	ecdfb2ef          	jal	t0,1c8 <__riscv_save_10>
    4300:	4140                	lw	s0,4(a0)
    4302:	84aa                	mv	s1,a0
    4304:	89ae                	mv	s3,a1
    4306:	301c                	lbu	a5,1(s0)
    4308:	2008                	lbu	a0,0(s0)
    430a:	07a2                	slli	a5,a5,0x8
    430c:	8d5d                	or	a0,a0,a5
    430e:	f65ff0ef          	jal	ra,4272 <ntohs>
    4312:	8131                	srli	a0,a0,0xc
    4314:	0542                	slli	a0,a0,0x10
    4316:	8141                	srli	a0,a0,0x10
    4318:	4791                	li	a5,4
    431a:	00f50663          	beq	a0,a5,4326 <ip_input+0x2a>
    431e:	8526                	mv	a0,s1
    4320:	32c010ef          	jal	ra,564c <pbuf_free>
    4324:	a431                	j	4530 <ip_input+0x234>
    4326:	301c                	lbu	a5,1(s0)
    4328:	2008                	lbu	a0,0(s0)
    432a:	07a2                	slli	a5,a5,0x8
    432c:	8d5d                	or	a0,a0,a5
    432e:	f45ff0ef          	jal	ra,4272 <ntohs>
    4332:	8119                	srli	a0,a0,0x6
    4334:	303c                	lbu	a5,3(s0)
    4336:	03c57a13          	andi	s4,a0,60
    433a:	2028                	lbu	a0,2(s0)
    433c:	07a2                	slli	a5,a5,0x8
    433e:	8d5d                	or	a0,a0,a5
    4340:	f33ff0ef          	jal	ra,4272 <ntohs>
    4344:	24be                	lhu	a5,10(s1)
    4346:	892a                	mv	s2,a0
    4348:	fd47ebe3          	bltu	a5,s4,431e <ip_input+0x22>
    434c:	249e                	lhu	a5,8(s1)
    434e:	fca7e8e3          	bltu	a5,a0,431e <ip_input+0x22>
    4352:	85d2                	mv	a1,s4
    4354:	8522                	mv	a0,s0
    4356:	40b040ef          	jal	ra,8f60 <inet_chksum>
    435a:	f171                	bnez	a0,431e <ip_input+0x22>
    435c:	85ca                	mv	a1,s2
    435e:	8526                	mv	a0,s1
    4360:	47a010ef          	jal	ra,57da <pbuf_realloc>
    4364:	f0000537          	lui	a0,0xf0000
    4368:	f3dff0ef          	jal	ra,42a4 <ntohl>
    436c:	e0000537          	lui	a0,0xe0000
    4370:	f35ff0ef          	jal	ra,42a4 <ntohl>
    4374:	894e                	mv	s2,s3
    4376:	4b05                	li	s6,1
    4378:	01040b93          	addi	s7,s0,16
    437c:	854a                	mv	a0,s2
    437e:	258010ef          	jal	ra,55d6 <netif_is_up>
    4382:	e511                	bnez	a0,438e <ip_input+0x92>
    4384:	120b1363          	bnez	s6,44aa <ip_input+0x1ae>
    4388:	00092903          	lw	s2,0(s2)
    438c:	a20d                	j	44ae <ip_input+0x1b2>
    438e:	00490793          	addi	a5,s2,4
    4392:	dbed                	beqz	a5,4384 <ip_input+0x88>
    4394:	00492683          	lw	a3,4(s2)
    4398:	d6f5                	beqz	a3,4384 <ip_input+0x88>
    439a:	3818                	lbu	a4,17(s0)
    439c:	281c                	lbu	a5,16(s0)
    439e:	0722                	slli	a4,a4,0x8
    43a0:	8f5d                	or	a4,a4,a5
    43a2:	283c                	lbu	a5,18(s0)
    43a4:	07c2                	slli	a5,a5,0x10
    43a6:	8f5d                	or	a4,a4,a5
    43a8:	383c                	lbu	a5,19(s0)
    43aa:	07e2                	slli	a5,a5,0x18
    43ac:	8fd9                	or	a5,a5,a4
    43ae:	04f68263          	beq	a3,a5,43f2 <ip_input+0xf6>
    43b2:	85ca                	mv	a1,s2
    43b4:	855e                	mv	a0,s7
    43b6:	2e85                	jal	4726 <ip_addr_isbroadcast>
    43b8:	ed0d                	bnez	a0,43f2 <ip_input+0xf6>
    43ba:	381c                	lbu	a5,17(s0)
    43bc:	01044a83          	lbu	s5,16(s0)
    43c0:	f0000537          	lui	a0,0xf0000
    43c4:	07a2                	slli	a5,a5,0x8
    43c6:	0157e7b3          	or	a5,a5,s5
    43ca:	01244a83          	lbu	s5,18(s0)
    43ce:	0ac2                	slli	s5,s5,0x10
    43d0:	00fae7b3          	or	a5,s5,a5
    43d4:	01344a83          	lbu	s5,19(s0)
    43d8:	0ae2                	slli	s5,s5,0x18
    43da:	00faeab3          	or	s5,s5,a5
    43de:	ec7ff0ef          	jal	ra,42a4 <ntohl>
    43e2:	00aafab3          	and	s5,s5,a0
    43e6:	e0000537          	lui	a0,0xe0000
    43ea:	ebbff0ef          	jal	ra,42a4 <ntohl>
    43ee:	f8aa9be3          	bne	s5,a0,4384 <ip_input+0x88>
    43f2:	3458                	lbu	a4,13(s0)
    43f4:	245c                	lbu	a5,12(s0)
    43f6:	0722                	slli	a4,a4,0x8
    43f8:	8f5d                	or	a4,a4,a5
    43fa:	247c                	lbu	a5,14(s0)
    43fc:	07c2                	slli	a5,a5,0x10
    43fe:	8f5d                	or	a4,a4,a5
    4400:	347c                	lbu	a5,15(s0)
    4402:	07e2                	slli	a5,a5,0x18
    4404:	8fd9                	or	a5,a5,a4
    4406:	c3b9                	beqz	a5,444c <ip_input+0x150>
    4408:	85ce                	mv	a1,s3
    440a:	00c40513          	addi	a0,s0,12
    440e:	2e21                	jal	4726 <ip_addr_isbroadcast>
    4410:	f00517e3          	bnez	a0,431e <ip_input+0x22>
    4414:	345c                	lbu	a5,13(s0)
    4416:	00c44a03          	lbu	s4,12(s0)
    441a:	f0000537          	lui	a0,0xf0000
    441e:	07a2                	slli	a5,a5,0x8
    4420:	0147e7b3          	or	a5,a5,s4
    4424:	00e44a03          	lbu	s4,14(s0)
    4428:	0a42                	slli	s4,s4,0x10
    442a:	00fa67b3          	or	a5,s4,a5
    442e:	00f44a03          	lbu	s4,15(s0)
    4432:	0a62                	slli	s4,s4,0x18
    4434:	00fa6a33          	or	s4,s4,a5
    4438:	e6dff0ef          	jal	ra,42a4 <ntohl>
    443c:	00aa7a33          	and	s4,s4,a0
    4440:	e0000537          	lui	a0,0xe0000
    4444:	e61ff0ef          	jal	ra,42a4 <ntohl>
    4448:	ecaa0be3          	beq	s4,a0,431e <ip_input+0x22>
    444c:	ec0909e3          	beqz	s2,431e <ip_input+0x22>
    4450:	00744903          	lbu	s2,7(s0)
    4454:	2068                	lbu	a0,6(s0)
    4456:	0922                	slli	s2,s2,0x8
    4458:	00a96933          	or	s2,s2,a0
    445c:	6511                	lui	a0,0x4
    445e:	157d                	addi	a0,a0,-1
    4460:	e05ff0ef          	jal	ra,4264 <htons>
    4464:	00a97533          	and	a0,s2,a0
    4468:	c511                	beqz	a0,4474 <ip_input+0x178>
    446a:	8526                	mv	a0,s1
    446c:	26ed                	jal	4856 <ip_reass>
    446e:	84aa                	mv	s1,a0
    4470:	c161                	beqz	a0,4530 <ip_input+0x234>
    4472:	4140                	lw	s0,4(a0)
    4474:	85ce                	mv	a1,s3
    4476:	8526                	mv	a0,s1
    4478:	4a2010ef          	jal	ra,591a <raw_input>
    447c:	e955                	bnez	a0,4530 <ip_input+0x234>
    447e:	341c                	lbu	a5,9(s0)
    4480:	2408                	lbu	a0,8(s0)
    4482:	07a2                	slli	a5,a5,0x8
    4484:	8d5d                	or	a0,a0,a5
    4486:	dedff0ef          	jal	ra,4272 <ntohs>
    448a:	0ff57513          	andi	a0,a0,255
    448e:	4799                	li	a5,6
    4490:	0af50363          	beq	a0,a5,4536 <ip_input+0x23a>
    4494:	47c5                	li	a5,17
    4496:	08f50963          	beq	a0,a5,4528 <ip_input+0x22c>
    449a:	4785                	li	a5,1
    449c:	0af51263          	bne	a0,a5,4540 <ip_input+0x244>
    44a0:	85ce                	mv	a1,s3
    44a2:	8526                	mv	a0,s1
    44a4:	6bc040ef          	jal	ra,8b60 <icmp_input>
    44a8:	a061                	j	4530 <ip_input+0x234>
    44aa:	8f81a903          	lw	s2,-1800(gp) # 20000118 <netif_list>
    44ae:	01391463          	bne	s2,s3,44b6 <ip_input+0x1ba>
    44b2:	00092903          	lw	s2,0(s2)
    44b6:	4b01                	li	s6,0
    44b8:	ec0912e3          	bnez	s2,437c <ip_input+0x80>
    44bc:	341c                	lbu	a5,9(s0)
    44be:	2408                	lbu	a0,8(s0)
    44c0:	07a2                	slli	a5,a5,0x8
    44c2:	8d5d                	or	a0,a0,a5
    44c4:	dafff0ef          	jal	ra,4272 <ntohs>
    44c8:	0ff57513          	andi	a0,a0,255
    44cc:	47c5                	li	a5,17
    44ce:	00f51e63          	bne	a0,a5,44ea <ip_input+0x1ee>
    44d2:	014407b3          	add	a5,s0,s4
    44d6:	23a8                	lbu	a0,2(a5)
    44d8:	33bc                	lbu	a5,3(a5)
    44da:	07a2                	slli	a5,a5,0x8
    44dc:	8d5d                	or	a0,a0,a5
    44de:	d95ff0ef          	jal	ra,4272 <ntohs>
    44e2:	04400793          	li	a5,68
    44e6:	02f50d63          	beq	a0,a5,4520 <ip_input+0x224>
    44ea:	4a85                	li	s5,1
    44ec:	341c                	lbu	a5,9(s0)
    44ee:	2408                	lbu	a0,8(s0)
    44f0:	07a2                	slli	a5,a5,0x8
    44f2:	8d5d                	or	a0,a0,a5
    44f4:	d7fff0ef          	jal	ra,4272 <ntohs>
    44f8:	0ff57513          	andi	a0,a0,255
    44fc:	47c5                	li	a5,17
    44fe:	08f51963          	bne	a0,a5,4590 <ip_input+0x294>
    4502:	9a22                	add	s4,s4,s0
    4504:	003a4783          	lbu	a5,3(s4)
    4508:	002a4503          	lbu	a0,2(s4)
    450c:	07a2                	slli	a5,a5,0x8
    450e:	8d5d                	or	a0,a0,a5
    4510:	d63ff0ef          	jal	ra,4272 <ntohs>
    4514:	76c00793          	li	a5,1900
    4518:	06f51c63          	bne	a0,a5,4590 <ip_input+0x294>
    451c:	894e                	mv	s2,s3
    451e:	b73d                	j	444c <ip_input+0x150>
    4520:	f20998e3          	bnez	s3,4450 <ip_input+0x154>
    4524:	4a81                	li	s5,0
    4526:	b7d9                	j	44ec <ip_input+0x1f0>
    4528:	85ce                	mv	a1,s3
    452a:	8526                	mv	a0,s1
    452c:	12e040ef          	jal	ra,865a <udp_input>
    4530:	4501                	li	a0,0
    4532:	ccffb06f          	j	200 <__riscv_restore_10>
    4536:	85ce                	mv	a1,s3
    4538:	8526                	mv	a0,s1
    453a:	2c5020ef          	jal	ra,6ffe <tcp_input>
    453e:	bfcd                	j	4530 <ip_input+0x234>
    4540:	85ce                	mv	a1,s3
    4542:	01040513          	addi	a0,s0,16
    4546:	22c5                	jal	4726 <ip_addr_isbroadcast>
    4548:	dc051be3          	bnez	a0,431e <ip_input+0x22>
    454c:	381c                	lbu	a5,17(s0)
    454e:	01044903          	lbu	s2,16(s0)
    4552:	f0000537          	lui	a0,0xf0000
    4556:	07a2                	slli	a5,a5,0x8
    4558:	0127e7b3          	or	a5,a5,s2
    455c:	01244903          	lbu	s2,18(s0)
    4560:	0942                	slli	s2,s2,0x10
    4562:	00f967b3          	or	a5,s2,a5
    4566:	01344903          	lbu	s2,19(s0)
    456a:	0962                	slli	s2,s2,0x18
    456c:	00f96933          	or	s2,s2,a5
    4570:	d35ff0ef          	jal	ra,42a4 <ntohl>
    4574:	00a97933          	and	s2,s2,a0
    4578:	e0000537          	lui	a0,0xe0000
    457c:	d29ff0ef          	jal	ra,42a4 <ntohl>
    4580:	d8a90fe3          	beq	s2,a0,431e <ip_input+0x22>
    4584:	c0c0                	sw	s0,4(s1)
    4586:	4589                	li	a1,2
    4588:	8526                	mv	a0,s1
    458a:	027040ef          	jal	ra,8db0 <icmp_dest_unreach>
    458e:	bb41                	j	431e <ip_input+0x22>
    4590:	e60a91e3          	bnez	s5,43f2 <ip_input+0xf6>
    4594:	b369                	j	431e <ip_input+0x22>

00004596 <ip_output_if>:
    4596:	c33fb2ef          	jal	t0,1c8 <__riscv_save_10>
    459a:	89aa                	mv	s3,a0
    459c:	8942                	mv	s2,a6
    459e:	12060f63          	beqz	a2,46dc <ip_output_if+0x146>
    45a2:	8aae                	mv	s5,a1
    45a4:	45d1                	li	a1,20
    45a6:	8a3a                	mv	s4,a4
    45a8:	84b2                	mv	s1,a2
    45aa:	8bb6                	mv	s7,a3
    45ac:	8b3e                	mv	s6,a5
    45ae:	030010ef          	jal	ra,55de <pbuf_header>
    45b2:	5779                	li	a4,-2
    45b4:	12051163          	bnez	a0,46d6 <ip_output_if+0x140>
    45b8:	0049a403          	lw	s0,4(s3)
    45bc:	0ba2                	slli	s7,s7,0x8
    45be:	341c                	lbu	a5,9(s0)
    45c0:	2408                	lbu	a0,8(s0)
    45c2:	07a2                	slli	a5,a5,0x8
    45c4:	8d5d                	or	a0,a0,a5
    45c6:	cadff0ef          	jal	ra,4272 <ntohs>
    45ca:	0ff57513          	andi	a0,a0,255
    45ce:	01756533          	or	a0,a0,s7
    45d2:	c93ff0ef          	jal	ra,4264 <htons>
    45d6:	00855713          	srli	a4,a0,0x8
    45da:	b418                	sb	a4,9(s0)
    45dc:	a408                	sb	a0,8(s0)
    45de:	c95ff0ef          	jal	ra,4272 <ntohs>
    45e2:	8121                	srli	a0,a0,0x8
    45e4:	0542                	slli	a0,a0,0x10
    45e6:	8141                	srli	a0,a0,0x10
    45e8:	0522                	slli	a0,a0,0x8
    45ea:	01656533          	or	a0,a0,s6
    45ee:	0542                	slli	a0,a0,0x10
    45f0:	8141                	srli	a0,a0,0x10
    45f2:	c73ff0ef          	jal	ra,4264 <htons>
    45f6:	3098                	lbu	a4,1(s1)
    45f8:	209c                	lbu	a5,0(s1)
    45fa:	a408                	sb	a0,8(s0)
    45fc:	0722                	slli	a4,a4,0x8
    45fe:	8f5d                	or	a4,a4,a5
    4600:	20bc                	lbu	a5,2(s1)
    4602:	8121                	srli	a0,a0,0x8
    4604:	b408                	sb	a0,9(s0)
    4606:	07c2                	slli	a5,a5,0x10
    4608:	8f5d                	or	a4,a4,a5
    460a:	30bc                	lbu	a5,3(s1)
    460c:	6511                	lui	a0,0x4
    460e:	50050513          	addi	a0,a0,1280 # 4500 <ip_input+0x204>
    4612:	07e2                	slli	a5,a5,0x18
    4614:	8fd9                	or	a5,a5,a4
    4616:	0087d713          	srli	a4,a5,0x8
    461a:	a81c                	sb	a5,16(s0)
    461c:	b818                	sb	a4,17(s0)
    461e:	0107d713          	srli	a4,a5,0x10
    4622:	83e1                	srli	a5,a5,0x18
    4624:	b83c                	sb	a5,19(s0)
    4626:	a838                	sb	a4,18(s0)
    4628:	00aa6533          	or	a0,s4,a0
    462c:	c39ff0ef          	jal	ra,4264 <htons>
    4630:	a008                	sb	a0,0(s0)
    4632:	8121                	srli	a0,a0,0x8
    4634:	b008                	sb	a0,1(s0)
    4636:	0089d503          	lhu	a0,8(s3)
    463a:	8e018a13          	addi	s4,gp,-1824 # 20000100 <ip_id.2936>
    463e:	c27ff0ef          	jal	ra,4264 <htons>
    4642:	a028                	sb	a0,2(s0)
    4644:	8121                	srli	a0,a0,0x8
    4646:	b028                	sb	a0,3(s0)
    4648:	000a5503          	lhu	a0,0(s4)
    464c:	00040323          	sb	zero,6(s0)
    4650:	000403a3          	sb	zero,7(s0)
    4654:	c11ff0ef          	jal	ra,4264 <htons>
    4658:	000a5783          	lhu	a5,0(s4)
    465c:	a048                	sb	a0,4(s0)
    465e:	8121                	srli	a0,a0,0x8
    4660:	0785                	addi	a5,a5,1
    4662:	b048                	sb	a0,5(s0)
    4664:	00fa1023          	sh	a5,0(s4)
    4668:	020a8163          	beqz	s5,468a <ip_output_if+0xf4>
    466c:	001ac703          	lbu	a4,1(s5)
    4670:	000ac783          	lbu	a5,0(s5)
    4674:	0722                	slli	a4,a4,0x8
    4676:	8f5d                	or	a4,a4,a5
    4678:	002ac783          	lbu	a5,2(s5)
    467c:	07c2                	slli	a5,a5,0x10
    467e:	8f5d                	or	a4,a4,a5
    4680:	003ac783          	lbu	a5,3(s5)
    4684:	07e2                	slli	a5,a5,0x18
    4686:	8fd9                	or	a5,a5,a4
    4688:	e799                	bnez	a5,4696 <ip_output_if+0x100>
    468a:	00490713          	addi	a4,s2,4
    468e:	4781                	li	a5,0
    4690:	c319                	beqz	a4,4696 <ip_output_if+0x100>
    4692:	00492783          	lw	a5,4(s2)
    4696:	0087d713          	srli	a4,a5,0x8
    469a:	a45c                	sb	a5,12(s0)
    469c:	b458                	sb	a4,13(s0)
    469e:	0107d713          	srli	a4,a5,0x10
    46a2:	83e1                	srli	a5,a5,0x18
    46a4:	a478                	sb	a4,14(s0)
    46a6:	b47c                	sb	a5,15(s0)
    46a8:	00040523          	sb	zero,10(s0)
    46ac:	000405a3          	sb	zero,11(s0)
    46b0:	45d1                	li	a1,20
    46b2:	8522                	mv	a0,s0
    46b4:	0ad040ef          	jal	ra,8f60 <inet_chksum>
    46b8:	a428                	sb	a0,10(s0)
    46ba:	8121                	srli	a0,a0,0x8
    46bc:	b428                	sb	a0,11(s0)
    46be:	03095783          	lhu	a5,48(s2)
    46c2:	c385                	beqz	a5,46e2 <ip_output_if+0x14c>
    46c4:	0089d703          	lhu	a4,8(s3)
    46c8:	00e7fd63          	bgeu	a5,a4,46e2 <ip_output_if+0x14c>
    46cc:	8626                	mv	a2,s1
    46ce:	85ca                	mv	a1,s2
    46d0:	854e                	mv	a0,s3
    46d2:	2385                	jal	4c32 <ip_frag>
    46d4:	872a                	mv	a4,a0
    46d6:	853a                	mv	a0,a4
    46d8:	b29fb06f          	j	200 <__riscv_restore_10>
    46dc:	4144                	lw	s1,4(a0)
    46de:	04c1                	addi	s1,s1,16
    46e0:	bff9                	j	46be <ip_output_if+0x128>
    46e2:	01492783          	lw	a5,20(s2)
    46e6:	8626                	mv	a2,s1
    46e8:	85ce                	mv	a1,s3
    46ea:	854a                	mv	a0,s2
    46ec:	9782                	jalr	a5
    46ee:	b7dd                	j	46d4 <ip_output_if+0x13e>

000046f0 <ip_output>:
    46f0:	b01fb2ef          	jal	t0,1f0 <__riscv_save_0>
    46f4:	1101                	addi	sp,sp,-32
    46f6:	842a                	mv	s0,a0
    46f8:	8532                	mv	a0,a2
    46fa:	ce2e                	sw	a1,28(sp)
    46fc:	cc36                	sw	a3,24(sp)
    46fe:	ca3a                	sw	a4,20(sp)
    4700:	c83e                	sw	a5,16(sp)
    4702:	c632                	sw	a2,12(sp)
    4704:	badff0ef          	jal	ra,42b0 <ip_route>
    4708:	cd09                	beqz	a0,4722 <ip_output+0x32>
    470a:	47c2                	lw	a5,16(sp)
    470c:	4752                	lw	a4,20(sp)
    470e:	46e2                	lw	a3,24(sp)
    4710:	4632                	lw	a2,12(sp)
    4712:	45f2                	lw	a1,28(sp)
    4714:	882a                	mv	a6,a0
    4716:	8522                	mv	a0,s0
    4718:	e7fff0ef          	jal	ra,4596 <ip_output_if>
    471c:	6105                	addi	sp,sp,32
    471e:	af7fb06f          	j	214 <__riscv_restore_0>
    4722:	5571                	li	a0,-4
    4724:	bfe5                	j	471c <ip_output+0x2c>

00004726 <ip_addr_isbroadcast>:
    4726:	3118                	lbu	a4,1(a0)
    4728:	211c                	lbu	a5,0(a0)
    472a:	0722                	slli	a4,a4,0x8
    472c:	8f5d                	or	a4,a4,a5
    472e:	213c                	lbu	a5,2(a0)
    4730:	07c2                	slli	a5,a5,0x10
    4732:	8f5d                	or	a4,a4,a5
    4734:	313c                	lbu	a5,3(a0)
    4736:	07e2                	slli	a5,a5,0x18
    4738:	8fd9                	or	a5,a5,a4
    473a:	fff78693          	addi	a3,a5,-1
    473e:	5775                	li	a4,-3
    4740:	02d76663          	bltu	a4,a3,476c <ip_addr_isbroadcast+0x46>
    4744:	0325c703          	lbu	a4,50(a1)
    4748:	4501                	li	a0,0
    474a:	8b09                	andi	a4,a4,2
    474c:	c30d                	beqz	a4,476e <ip_addr_isbroadcast+0x48>
    474e:	41d8                	lw	a4,4(a1)
    4750:	00f70f63          	beq	a4,a5,476e <ip_addr_isbroadcast+0x48>
    4754:	4594                	lw	a3,8(a1)
    4756:	8f3d                	xor	a4,a4,a5
    4758:	8f75                	and	a4,a4,a3
    475a:	eb11                	bnez	a4,476e <ip_addr_isbroadcast+0x48>
    475c:	fff6c513          	not	a0,a3
    4760:	8fe9                	and	a5,a5,a0
    4762:	40a78533          	sub	a0,a5,a0
    4766:	00153513          	seqz	a0,a0
    476a:	8082                	ret
    476c:	4505                	li	a0,1
    476e:	8082                	ret

00004770 <ip_reass_tmr>:
    4770:	a59fb2ef          	jal	t0,1c8 <__riscv_save_10>
    4774:	8e41a403          	lw	s0,-1820(gp) # 20000104 <reassdatagrams>
    4778:	44c5                	li	s1,17
    477a:	4b01                	li	s6,0
    477c:	8e418913          	addi	s2,gp,-1820 # 20000104 <reassdatagrams>
    4780:	e019                	bnez	s0,4786 <ip_reass_tmr+0x16>
    4782:	a7ffb06f          	j	200 <__riscv_restore_10>
    4786:	14fd                	addi	s1,s1,-1
    4788:	0ff4f493          	andi	s1,s1,255
    478c:	d8fd                	beqz	s1,4782 <ip_reass_tmr+0x12>
    478e:	3c7c                	lbu	a5,31(s0)
    4790:	00042c03          	lw	s8,0(s0)
    4794:	c791                	beqz	a5,47a0 <ip_reass_tmr+0x30>
    4796:	17fd                	addi	a5,a5,-1
    4798:	bc7c                	sb	a5,31(s0)
    479a:	8b22                	mv	s6,s0
    479c:	8462                	mv	s0,s8
    479e:	b7cd                	j	4780 <ip_reass_tmr+0x10>
    47a0:	00442983          	lw	s3,4(s0)
    47a4:	4a81                	li	s5,0
    47a6:	0049a503          	lw	a0,4(s3)
    47aa:	315c                	lbu	a5,5(a0)
    47ac:	2158                	lbu	a4,4(a0)
    47ae:	07a2                	slli	a5,a5,0x8
    47b0:	8fd9                	or	a5,a5,a4
    47b2:	ef85                	bnez	a5,47ea <ip_reass_tmr+0x7a>
    47b4:	3118                	lbu	a4,1(a0)
    47b6:	211c                	lbu	a5,0(a0)
    47b8:	4651                	li	a2,20
    47ba:	0722                	slli	a4,a4,0x8
    47bc:	8f5d                	or	a4,a4,a5
    47be:	213c                	lbu	a5,2(a0)
    47c0:	00840593          	addi	a1,s0,8
    47c4:	07c2                	slli	a5,a5,0x10
    47c6:	8f5d                	or	a4,a4,a5
    47c8:	313c                	lbu	a5,3(a0)
    47ca:	07e2                	slli	a5,a5,0x18
    47cc:	8fd9                	or	a5,a5,a4
    47ce:	c05c                	sw	a5,4(s0)
    47d0:	5d9040ef          	jal	ra,95a8 <memcpy>
    47d4:	4585                	li	a1,1
    47d6:	854e                	mv	a0,s3
    47d8:	5ec040ef          	jal	ra,8dc4 <icmp_time_exceeded>
    47dc:	854e                	mv	a0,s3
    47de:	054010ef          	jal	ra,5832 <pbuf_clen>
    47e2:	8aaa                	mv	s5,a0
    47e4:	854e                	mv	a0,s3
    47e6:	667000ef          	jal	ra,564c <pbuf_free>
    47ea:	00442983          	lw	s3,4(s0)
    47ee:	02099663          	bnez	s3,481a <ip_reass_tmr+0xaa>
    47f2:	00092703          	lw	a4,0(s2)
    47f6:	401c                	lw	a5,0(s0)
    47f8:	04e41c63          	bne	s0,a4,4850 <ip_reass_tmr+0xe0>
    47fc:	00f92023          	sw	a5,0(s2)
    4800:	85a2                	mv	a1,s0
    4802:	4515                	li	a0,5
    4804:	477000ef          	jal	ra,547a <memp_free>
    4808:	8e218713          	addi	a4,gp,-1822 # 20000102 <ip_reass_pbufcount>
    480c:	231e                	lhu	a5,0(a4)
    480e:	845a                	mv	s0,s6
    4810:	41578ab3          	sub	s5,a5,s5
    4814:	01571023          	sh	s5,0(a4)
    4818:	b749                	j	479a <ip_reass_tmr+0x2a>
    481a:	0049a703          	lw	a4,4(s3)
    481e:	854e                	mv	a0,s3
    4820:	331c                	lbu	a5,1(a4)
    4822:	00074a03          	lbu	s4,0(a4)
    4826:	07a2                	slli	a5,a5,0x8
    4828:	0147e7b3          	or	a5,a5,s4
    482c:	00274a03          	lbu	s4,2(a4)
    4830:	0a42                	slli	s4,s4,0x10
    4832:	00fa67b3          	or	a5,s4,a5
    4836:	00374a03          	lbu	s4,3(a4)
    483a:	0a62                	slli	s4,s4,0x18
    483c:	00fa6a33          	or	s4,s4,a5
    4840:	7f3000ef          	jal	ra,5832 <pbuf_clen>
    4844:	9aaa                	add	s5,s5,a0
    4846:	854e                	mv	a0,s3
    4848:	605000ef          	jal	ra,564c <pbuf_free>
    484c:	89d2                	mv	s3,s4
    484e:	b745                	j	47ee <ip_reass_tmr+0x7e>
    4850:	00fb2023          	sw	a5,0(s6)
    4854:	b775                	j	4800 <ip_reass_tmr+0x90>

00004856 <ip_reass>:
    4856:	973fb2ef          	jal	t0,1c8 <__riscv_save_10>
    485a:	4144                	lw	s1,4(a0)
    485c:	892a                	mv	s2,a0
    485e:	309c                	lbu	a5,1(s1)
    4860:	2088                	lbu	a0,0(s1)
    4862:	07a2                	slli	a5,a5,0x8
    4864:	8d5d                	or	a0,a0,a5
    4866:	a0dff0ef          	jal	ra,4272 <ntohs>
    486a:	8119                	srli	a0,a0,0x6
    486c:	03c57513          	andi	a0,a0,60
    4870:	47d1                	li	a5,20
    4872:	26f51263          	bne	a0,a5,4ad6 <ip_reass+0x280>
    4876:	30fc                	lbu	a5,7(s1)
    4878:	20e8                	lbu	a0,6(s1)
    487a:	07a2                	slli	a5,a5,0x8
    487c:	8d5d                	or	a0,a0,a5
    487e:	9f5ff0ef          	jal	ra,4272 <ntohs>
    4882:	30bc                	lbu	a5,3(s1)
    4884:	8b2a                	mv	s6,a0
    4886:	20a8                	lbu	a0,2(s1)
    4888:	07a2                	slli	a5,a5,0x8
    488a:	8d5d                	or	a0,a0,a5
    488c:	9e7ff0ef          	jal	ra,4272 <ntohs>
    4890:	309c                	lbu	a5,1(s1)
    4892:	8caa                	mv	s9,a0
    4894:	2088                	lbu	a0,0(s1)
    4896:	07a2                	slli	a5,a5,0x8
    4898:	8d5d                	or	a0,a0,a5
    489a:	9d9ff0ef          	jal	ra,4272 <ntohs>
    489e:	8c2a                	mv	s8,a0
    48a0:	854a                	mv	a0,s2
    48a2:	791000ef          	jal	ra,5832 <pbuf_clen>
    48a6:	200097b7          	lui	a5,0x20009
    48aa:	b907a783          	lw	a5,-1136(a5) # 20008b90 <WCHCfg+0x10>
    48ae:	8e21d703          	lhu	a4,-1822(gp) # 20000102 <ip_reass_pbufcount>
    48b2:	8d2a                	mv	s10,a0
    48b4:	838d                	srli	a5,a5,0x3
    48b6:	972a                	add	a4,a4,a0
    48b8:	8bfd                	andi	a5,a5,31
    48ba:	8e218993          	addi	s3,gp,-1822 # 20000102 <ip_reass_pbufcount>
    48be:	20e7ec63          	bltu	a5,a4,4ad6 <ip_reass+0x280>
    48c2:	8e41a403          	lw	s0,-1820(gp) # 20000104 <reassdatagrams>
    48c6:	4a81                	li	s5,0
    48c8:	8e418a13          	addi	s4,gp,-1820 # 20000104 <reassdatagrams>
    48cc:	e81d                	bnez	s0,4902 <ip_reass+0xac>
    48ce:	4515                	li	a0,5
    48d0:	38b000ef          	jal	ra,545a <memp_malloc>
    48d4:	842a                	mv	s0,a0
    48d6:	20050063          	beqz	a0,4ad6 <ip_reass+0x280>
    48da:	4671                	li	a2,28
    48dc:	4581                	li	a1,0
    48de:	00440513          	addi	a0,s0,4
    48e2:	93ffb0ef          	jal	ra,220 <memset>
    48e6:	478d                	li	a5,3
    48e8:	bc7c                	sb	a5,31(s0)
    48ea:	000a2783          	lw	a5,0(s4)
    48ee:	008a2023          	sw	s0,0(s4)
    48f2:	c01c                	sw	a5,0(s0)
    48f4:	4651                	li	a2,20
    48f6:	85a6                	mv	a1,s1
    48f8:	00840513          	addi	a0,s0,8
    48fc:	4ad040ef          	jal	ra,95a8 <memcpy>
    4900:	ac95                	j	4b74 <ip_reass+0x31e>
    4902:	34d8                	lbu	a4,13(s1)
    4904:	24dc                	lbu	a5,12(s1)
    4906:	0722                	slli	a4,a4,0x8
    4908:	8f5d                	or	a4,a4,a5
    490a:	24fc                	lbu	a5,14(s1)
    490c:	07c2                	slli	a5,a5,0x10
    490e:	8f5d                	or	a4,a4,a5
    4910:	34fc                	lbu	a5,15(s1)
    4912:	07e2                	slli	a5,a5,0x18
    4914:	8fd9                	or	a5,a5,a4
    4916:	4858                	lw	a4,20(s0)
    4918:	02f71663          	bne	a4,a5,4944 <ip_reass+0xee>
    491c:	3898                	lbu	a4,17(s1)
    491e:	289c                	lbu	a5,16(s1)
    4920:	0722                	slli	a4,a4,0x8
    4922:	8f5d                	or	a4,a4,a5
    4924:	28bc                	lbu	a5,18(s1)
    4926:	07c2                	slli	a5,a5,0x10
    4928:	8f5d                	or	a4,a4,a5
    492a:	38bc                	lbu	a5,19(s1)
    492c:	07e2                	slli	a5,a5,0x18
    492e:	8fd9                	or	a5,a5,a4
    4930:	4c18                	lw	a4,24(s0)
    4932:	00f71963          	bne	a4,a5,4944 <ip_reass+0xee>
    4936:	30dc                	lbu	a5,5(s1)
    4938:	20d4                	lbu	a3,4(s1)
    493a:	245a                	lhu	a4,12(s0)
    493c:	07a2                	slli	a5,a5,0x8
    493e:	8fd5                	or	a5,a5,a3
    4940:	20f70663          	beq	a4,a5,4b4c <ip_reass+0x2f6>
    4944:	8aa2                	mv	s5,s0
    4946:	4000                	lw	s0,0(s0)
    4948:	b751                	j	48cc <ip_reass+0x76>
    494a:	42cc                	lw	a1,4(a3)
    494c:	0055c803          	lbu	a6,5(a1)
    4950:	0045c303          	lbu	t1,4(a1)
    4954:	0822                	slli	a6,a6,0x8
    4956:	00686833          	or	a6,a6,t1
    495a:	0d067c63          	bgeu	a2,a6,4a32 <ip_reass+0x1dc>
    495e:	0086d593          	srli	a1,a3,0x8
    4962:	a394                	sb	a3,0(a5)
    4964:	b38c                	sb	a1,1(a5)
    4966:	0106d593          	srli	a1,a3,0x10
    496a:	82e1                	srli	a3,a3,0x18
    496c:	a3ac                	sb	a1,2(a5)
    496e:	b3b4                	sb	a3,3(a5)
    4970:	2a070e63          	beqz	a4,4c2c <ip_reass+0x3d6>
    4974:	3374                	lbu	a3,7(a4)
    4976:	236c                	lbu	a1,6(a4)
    4978:	06a2                	slli	a3,a3,0x8
    497a:	8ecd                	or	a3,a3,a1
    497c:	14d66463          	bltu	a2,a3,4ac4 <ip_reass+0x26e>
    4980:	14a86263          	bltu	a6,a0,4ac4 <ip_reass+0x26e>
    4984:	00895693          	srli	a3,s2,0x8
    4988:	01270023          	sb	s2,0(a4)
    498c:	b314                	sb	a3,1(a4)
    498e:	01095693          	srli	a3,s2,0x10
    4992:	01895913          	srli	s2,s2,0x18
    4996:	a334                	sb	a3,2(a4)
    4998:	012701a3          	sb	s2,3(a4)
    499c:	2c78                	lbu	a4,30(s0)
    499e:	4b01                	li	s6,0
    49a0:	8b05                	andi	a4,a4,1
    49a2:	18070f63          	beqz	a4,4b40 <ip_reass+0x2ea>
    49a6:	18088d63          	beqz	a7,4b40 <ip_reass+0x2ea>
    49aa:	4058                	lw	a4,4(s0)
    49ac:	4344                	lw	s1,4(a4)
    49ae:	30d8                	lbu	a4,5(s1)
    49b0:	20d4                	lbu	a3,4(s1)
    49b2:	0722                	slli	a4,a4,0x8
    49b4:	8f55                	or	a4,a4,a3
    49b6:	18071563          	bnez	a4,4b40 <ip_reass+0x2ea>
    49ba:	3394                	lbu	a3,1(a5)
    49bc:	2398                	lbu	a4,0(a5)
    49be:	06a2                	slli	a3,a3,0x8
    49c0:	8ed9                	or	a3,a3,a4
    49c2:	23b8                	lbu	a4,2(a5)
    49c4:	0742                	slli	a4,a4,0x10
    49c6:	8ed9                	or	a3,a3,a4
    49c8:	33b8                	lbu	a4,3(a5)
    49ca:	0762                	slli	a4,a4,0x18
    49cc:	8f55                	or	a4,a4,a3
    49ce:	e761                	bnez	a4,4a96 <ip_reass+0x240>
    49d0:	2c5e                	lhu	a5,28(s0)
    49d2:	0004c903          	lbu	s2,0(s1)
    49d6:	4651                	li	a2,20
    49d8:	07d1                	addi	a5,a5,20
    49da:	ac5e                	sh	a5,28(s0)
    49dc:	309c                	lbu	a5,1(s1)
    49de:	00840593          	addi	a1,s0,8
    49e2:	8526                	mv	a0,s1
    49e4:	07a2                	slli	a5,a5,0x8
    49e6:	0127e7b3          	or	a5,a5,s2
    49ea:	0024c903          	lbu	s2,2(s1)
    49ee:	0942                	slli	s2,s2,0x10
    49f0:	00f967b3          	or	a5,s2,a5
    49f4:	0034c903          	lbu	s2,3(s1)
    49f8:	0962                	slli	s2,s2,0x18
    49fa:	00f96933          	or	s2,s2,a5
    49fe:	3ab040ef          	jal	ra,95a8 <memcpy>
    4a02:	2c4a                	lhu	a0,28(s0)
    4a04:	861ff0ef          	jal	ra,4264 <htons>
    4a08:	a0a8                	sb	a0,2(s1)
    4a0a:	8121                	srli	a0,a0,0x8
    4a0c:	b0a8                	sb	a0,3(s1)
    4a0e:	00048323          	sb	zero,6(s1)
    4a12:	000483a3          	sb	zero,7(s1)
    4a16:	00048523          	sb	zero,10(s1)
    4a1a:	000485a3          	sb	zero,11(s1)
    4a1e:	45d1                	li	a1,20
    4a20:	8526                	mv	a0,s1
    4a22:	53e040ef          	jal	ra,8f60 <inet_chksum>
    4a26:	a4a8                	sb	a0,10(s1)
    4a28:	8121                	srli	a0,a0,0x8
    4a2a:	b4a8                	sb	a0,11(s1)
    4a2c:	00442b03          	lw	s6,4(s0)
    4a30:	a0d5                	j	4b14 <ip_reass+0x2be>
    4a32:	09060963          	beq	a2,a6,4ac4 <ip_reass+0x26e>
    4a36:	31f4                	lbu	a3,7(a1)
    4a38:	0065c303          	lbu	t1,6(a1)
    4a3c:	06a2                	slli	a3,a3,0x8
    4a3e:	0066e6b3          	or	a3,a3,t1
    4a42:	08d66163          	bltu	a2,a3,4ac4 <ip_reass+0x26e>
    4a46:	cb01                	beqz	a4,4a56 <ip_reass+0x200>
    4a48:	2374                	lbu	a3,6(a4)
    4a4a:	3378                	lbu	a4,7(a4)
    4a4c:	0722                	slli	a4,a4,0x8
    4a4e:	8f55                	or	a4,a4,a3
    4a50:	00e80363          	beq	a6,a4,4a56 <ip_reass+0x200>
    4a54:	4881                	li	a7,0
    4a56:	3198                	lbu	a4,1(a1)
    4a58:	2194                	lbu	a3,0(a1)
    4a5a:	0722                	slli	a4,a4,0x8
    4a5c:	8f55                	or	a4,a4,a3
    4a5e:	21b4                	lbu	a3,2(a1)
    4a60:	06c2                	slli	a3,a3,0x10
    4a62:	8f55                	or	a4,a4,a3
    4a64:	31b4                	lbu	a3,3(a1)
    4a66:	06e2                	slli	a3,a3,0x18
    4a68:	8ed9                	or	a3,a3,a4
    4a6a:	872e                	mv	a4,a1
    4a6c:	aa65                	j	4c24 <ip_reass+0x3ce>
    4a6e:	00895693          	srli	a3,s2,0x8
    4a72:	01270023          	sb	s2,0(a4)
    4a76:	b314                	sb	a3,1(a4)
    4a78:	01095693          	srli	a3,s2,0x10
    4a7c:	01895913          	srli	s2,s2,0x18
    4a80:	a334                	sb	a3,2(a4)
    4a82:	012701a3          	sb	s2,3(a4)
    4a86:	2374                	lbu	a3,6(a4)
    4a88:	3378                	lbu	a4,7(a4)
    4a8a:	0722                	slli	a4,a4,0x8
    4a8c:	8f55                	or	a4,a4,a3
    4a8e:	f0e607e3          	beq	a2,a4,499c <ip_reass+0x146>
    4a92:	4881                	li	a7,0
    4a94:	b721                	j	499c <ip_reass+0x146>
    4a96:	4354                	lw	a3,4(a4)
    4a98:	23ec                	lbu	a1,6(a5)
    4a9a:	33f8                	lbu	a4,7(a5)
    4a9c:	32dc                	lbu	a5,5(a3)
    4a9e:	22d0                	lbu	a2,4(a3)
    4aa0:	0722                	slli	a4,a4,0x8
    4aa2:	07a2                	slli	a5,a5,0x8
    4aa4:	8f4d                	or	a4,a4,a1
    4aa6:	8fd1                	or	a5,a5,a2
    4aa8:	02f71a63          	bne	a4,a5,4adc <ip_reass+0x286>
    4aac:	329c                	lbu	a5,1(a3)
    4aae:	2298                	lbu	a4,0(a3)
    4ab0:	07a2                	slli	a5,a5,0x8
    4ab2:	8fd9                	or	a5,a5,a4
    4ab4:	22b8                	lbu	a4,2(a3)
    4ab6:	0742                	slli	a4,a4,0x10
    4ab8:	8fd9                	or	a5,a5,a4
    4aba:	32b8                	lbu	a4,3(a3)
    4abc:	0762                	slli	a4,a4,0x18
    4abe:	8f5d                	or	a4,a4,a5
    4ac0:	87b6                	mv	a5,a3
    4ac2:	b731                	j	49ce <ip_reass+0x178>
    4ac4:	854a                	mv	a0,s2
    4ac6:	56d000ef          	jal	ra,5832 <pbuf_clen>
    4aca:	0009d783          	lhu	a5,0(s3)
    4ace:	40a78533          	sub	a0,a5,a0
    4ad2:	00a99023          	sh	a0,0(s3)
    4ad6:	854a                	mv	a0,s2
    4ad8:	375000ef          	jal	ra,564c <pbuf_free>
    4adc:	4b01                	li	s6,0
    4ade:	a08d                	j	4b40 <ip_reass+0x2ea>
    4ae0:	55b1                	li	a1,-20
    4ae2:	854a                	mv	a0,s2
    4ae4:	00492483          	lw	s1,4(s2)
    4ae8:	2f7000ef          	jal	ra,55de <pbuf_header>
    4aec:	85ca                	mv	a1,s2
    4aee:	855a                	mv	a0,s6
    4af0:	55f000ef          	jal	ra,584e <pbuf_cat>
    4af4:	309c                	lbu	a5,1(s1)
    4af6:	0004c903          	lbu	s2,0(s1)
    4afa:	07a2                	slli	a5,a5,0x8
    4afc:	0127e7b3          	or	a5,a5,s2
    4b00:	0024c903          	lbu	s2,2(s1)
    4b04:	0942                	slli	s2,s2,0x10
    4b06:	00f967b3          	or	a5,s2,a5
    4b0a:	0034c903          	lbu	s2,3(s1)
    4b0e:	0962                	slli	s2,s2,0x18
    4b10:	00f96933          	or	s2,s2,a5
    4b14:	fc0916e3          	bnez	s2,4ae0 <ip_reass+0x28a>
    4b18:	000a2703          	lw	a4,0(s4)
    4b1c:	401c                	lw	a5,0(s0)
    4b1e:	02e41463          	bne	s0,a4,4b46 <ip_reass+0x2f0>
    4b22:	00fa2023          	sw	a5,0(s4)
    4b26:	85a2                	mv	a1,s0
    4b28:	4515                	li	a0,5
    4b2a:	151000ef          	jal	ra,547a <memp_free>
    4b2e:	855a                	mv	a0,s6
    4b30:	503000ef          	jal	ra,5832 <pbuf_clen>
    4b34:	0009d783          	lhu	a5,0(s3)
    4b38:	40a78533          	sub	a0,a5,a0
    4b3c:	00a99023          	sh	a0,0(s3)
    4b40:	855a                	mv	a0,s6
    4b42:	ebefb06f          	j	200 <__riscv_restore_10>
    4b46:	00faa023          	sw	a5,0(s5)
    4b4a:	bff1                	j	4b26 <ip_reass+0x2d0>
    4b4c:	30fc                	lbu	a5,7(s1)
    4b4e:	20e8                	lbu	a0,6(s1)
    4b50:	6b89                	lui	s7,0x2
    4b52:	07a2                	slli	a5,a5,0x8
    4b54:	8d5d                	or	a0,a0,a5
    4b56:	f1cff0ef          	jal	ra,4272 <ntohs>
    4b5a:	1bfd                	addi	s7,s7,-1
    4b5c:	01757533          	and	a0,a0,s7
    4b60:	0542                	slli	a0,a0,0x10
    4b62:	8141                	srli	a0,a0,0x10
    4b64:	e901                	bnez	a0,4b74 <ip_reass+0x31e>
    4b66:	246a                	lhu	a0,14(s0)
    4b68:	f0aff0ef          	jal	ra,4272 <ntohs>
    4b6c:	01757533          	and	a0,a0,s7
    4b70:	d80512e3          	bnez	a0,48f4 <ip_reass+0x9e>
    4b74:	0009d783          	lhu	a5,0(s3)
    4b78:	9d3e                	add	s10,s10,a5
    4b7a:	01a99023          	sh	s10,0(s3)
    4b7e:	30fc                	lbu	a5,7(s1)
    4b80:	20e8                	lbu	a0,6(s1)
    4b82:	07a2                	slli	a5,a5,0x8
    4b84:	8d5d                	or	a0,a0,a5
    4b86:	eecff0ef          	jal	ra,4272 <ntohs>
    4b8a:	01251793          	slli	a5,a0,0x12
    4b8e:	0207c263          	bltz	a5,4bb2 <ip_reass+0x35c>
    4b92:	013b1513          	slli	a0,s6,0x13
    4b96:	2c7c                	lbu	a5,30(s0)
    4b98:	814d                	srli	a0,a0,0x13
    4b9a:	050e                	slli	a0,a0,0x3
    4b9c:	006c5c13          	srli	s8,s8,0x6
    4ba0:	9566                	add	a0,a0,s9
    4ba2:	03cc7c13          	andi	s8,s8,60
    4ba6:	0017e793          	ori	a5,a5,1
    4baa:	41850533          	sub	a0,a0,s8
    4bae:	ac7c                	sb	a5,30(s0)
    4bb0:	ac4a                	sh	a0,28(s0)
    4bb2:	00492483          	lw	s1,4(s2)
    4bb6:	30bc                	lbu	a5,3(s1)
    4bb8:	20a8                	lbu	a0,2(s1)
    4bba:	07a2                	slli	a5,a5,0x8
    4bbc:	8d5d                	or	a0,a0,a5
    4bbe:	eb4ff0ef          	jal	ra,4272 <ntohs>
    4bc2:	309c                	lbu	a5,1(s1)
    4bc4:	8b2a                	mv	s6,a0
    4bc6:	2088                	lbu	a0,0(s1)
    4bc8:	07a2                	slli	a5,a5,0x8
    4bca:	8d5d                	or	a0,a0,a5
    4bcc:	ea6ff0ef          	jal	ra,4272 <ntohs>
    4bd0:	30fc                	lbu	a5,7(s1)
    4bd2:	8baa                	mv	s7,a0
    4bd4:	20e8                	lbu	a0,6(s1)
    4bd6:	07a2                	slli	a5,a5,0x8
    4bd8:	006bdb93          	srli	s7,s7,0x6
    4bdc:	8d5d                	or	a0,a0,a5
    4bde:	e94ff0ef          	jal	ra,4272 <ntohs>
    4be2:	054e                	slli	a0,a0,0x13
    4be4:	814d                	srli	a0,a0,0x13
    4be6:	00351613          	slli	a2,a0,0x3
    4bea:	00cb0533          	add	a0,s6,a2
    4bee:	03cbfb13          	andi	s6,s7,60
    4bf2:	00492783          	lw	a5,4(s2)
    4bf6:	41650533          	sub	a0,a0,s6
    4bfa:	0542                	slli	a0,a0,0x10
    4bfc:	00865713          	srli	a4,a2,0x8
    4c00:	8141                	srli	a0,a0,0x10
    4c02:	4054                	lw	a3,4(s0)
    4c04:	b3d8                	sb	a4,5(a5)
    4c06:	00855713          	srli	a4,a0,0x8
    4c0a:	b3f8                	sb	a4,7(a5)
    4c0c:	00078023          	sb	zero,0(a5)
    4c10:	000780a3          	sb	zero,1(a5)
    4c14:	00078123          	sb	zero,2(a5)
    4c18:	000781a3          	sb	zero,3(a5)
    4c1c:	a3d0                	sb	a2,4(a5)
    4c1e:	a3e8                	sb	a0,6(a5)
    4c20:	4885                	li	a7,1
    4c22:	4701                	li	a4,0
    4c24:	d20693e3          	bnez	a3,494a <ip_reass+0xf4>
    4c28:	e40713e3          	bnez	a4,4a6e <ip_reass+0x218>
    4c2c:	01242223          	sw	s2,4(s0)
    4c30:	b3b5                	j	499c <ip_reass+0x146>

00004c32 <ip_frag>:
    4c32:	d8efb2ef          	jal	t0,1c0 <__riscv_save_12>
    4c36:	00452c03          	lw	s8,4(a0)
    4c3a:	1101                	addi	sp,sp,-32
    4c3c:	ca32                	sw	a2,20(sp)
    4c3e:	007c4703          	lbu	a4,7(s8)
    4c42:	8daa                	mv	s11,a0
    4c44:	006c4503          	lbu	a0,6(s8)
    4c48:	0722                	slli	a4,a4,0x8
    4c4a:	0305db83          	lhu	s7,48(a1)
    4c4e:	8d59                	or	a0,a0,a4
    4c50:	8cae                	mv	s9,a1
    4c52:	e20ff0ef          	jal	ra,4272 <ntohs>
    4c56:	6689                	lui	a3,0x2
    4c58:	00d577b3          	and	a5,a0,a3
    4c5c:	fecb8a13          	addi	s4,s7,-20 # 1fec <ETH_Configuration+0x32>
    4c60:	46a1                	li	a3,8
    4c62:	02da4a33          	div	s4,s4,a3
    4c66:	008dd483          	lhu	s1,8(s11)
    4c6a:	6709                	lui	a4,0x2
    4c6c:	177d                	addi	a4,a4,-1
    4c6e:	c63e                	sw	a5,12(sp)
    4c70:	00e57933          	and	s2,a0,a4
    4c74:	14b1                	addi	s1,s1,-20
    4c76:	0942                	slli	s2,s2,0x10
    4c78:	04c2                	slli	s1,s1,0x10
    4c7a:	01095913          	srli	s2,s2,0x10
    4c7e:	80c1                	srli	s1,s1,0x10
    4c80:	4401                	li	s0,0
    4c82:	4d51                	li	s10,20
    4c84:	cc3a                	sw	a4,24(sp)
    4c86:	0a42                	slli	s4,s4,0x10
    4c88:	010a5a13          	srli	s4,s4,0x10
    4c8c:	003a1693          	slli	a3,s4,0x3
    4c90:	01069793          	slli	a5,a3,0x10
    4c94:	83c1                	srli	a5,a5,0x10
    4c96:	c83e                	sw	a5,16(sp)
    4c98:	fedb8793          	addi	a5,s7,-19
    4c9c:	ce3e                	sw	a5,28(sp)
    4c9e:	e489                	bnez	s1,4ca8 <ip_frag+0x76>
    4ca0:	4501                	li	a0,0
    4ca2:	6105                	addi	sp,sp,32
    4ca4:	d58fb06f          	j	1fc <__riscv_restore_12>
    4ca8:	47e2                	lw	a5,24(sp)
    4caa:	8aa6                	mv	s5,s1
    4cac:	00f97b33          	and	s6,s2,a5
    4cb0:	47b2                	lw	a5,12(sp)
    4cb2:	0167eb33          	or	s6,a5,s6
    4cb6:	47f2                	lw	a5,28(sp)
    4cb8:	00f4c663          	blt	s1,a5,4cc4 <ip_frag+0x92>
    4cbc:	4ac2                	lw	s5,16(sp)
    4cbe:	6789                	lui	a5,0x2
    4cc0:	00fb6b33          	or	s6,s6,a5
    4cc4:	4601                	li	a2,0
    4cc6:	45d1                	li	a1,20
    4cc8:	4509                	li	a0,2
    4cca:	1d1000ef          	jal	ra,569a <pbuf_alloc>
    4cce:	89aa                	mv	s3,a0
    4cd0:	c939                	beqz	a0,4d26 <ip_frag+0xf4>
    4cd2:	4148                	lw	a0,4(a0)
    4cd4:	4651                	li	a2,20
    4cd6:	85e2                	mv	a1,s8
    4cd8:	0d1040ef          	jal	ra,95a8 <memcpy>
    4cdc:	004da603          	lw	a2,4(s11)
    4ce0:	0049ab83          	lw	s7,4(s3)
    4ce4:	966a                	add	a2,a2,s10
    4ce6:	00cda223          	sw	a2,4(s11)
    4cea:	00add603          	lhu	a2,10(s11)
    4cee:	41a606b3          	sub	a3,a2,s10
    4cf2:	00dd9523          	sh	a3,10(s11)
    4cf6:	8d56                	mv	s10,s5
    4cf8:	040d0963          	beqz	s10,4d4a <ip_frag+0x118>
    4cfc:	00add403          	lhu	s0,10(s11)
    4d00:	008d7363          	bgeu	s10,s0,4d06 <ip_frag+0xd4>
    4d04:	846a                	mv	s0,s10
    4d06:	0442                	slli	s0,s0,0x10
    4d08:	8041                	srli	s0,s0,0x10
    4d0a:	e401                	bnez	s0,4d12 <ip_frag+0xe0>
    4d0c:	000dad83          	lw	s11,0(s11)
    4d10:	b7e5                	j	4cf8 <ip_frag+0xc6>
    4d12:	4581                	li	a1,0
    4d14:	4609                	li	a2,2
    4d16:	450d                	li	a0,3
    4d18:	183000ef          	jal	ra,569a <pbuf_alloc>
    4d1c:	85aa                	mv	a1,a0
    4d1e:	e511                	bnez	a0,4d2a <ip_frag+0xf8>
    4d20:	854e                	mv	a0,s3
    4d22:	12b000ef          	jal	ra,564c <pbuf_free>
    4d26:	557d                	li	a0,-1
    4d28:	bfad                	j	4ca2 <ip_frag+0x70>
    4d2a:	004da603          	lw	a2,4(s11)
    4d2e:	a502                	sh	s0,8(a0)
    4d30:	a522                	sh	s0,10(a0)
    4d32:	c150                	sw	a2,4(a0)
    4d34:	854e                	mv	a0,s3
    4d36:	319000ef          	jal	ra,584e <pbuf_cat>
    4d3a:	408d06b3          	sub	a3,s10,s0
    4d3e:	01069d13          	slli	s10,a3,0x10
    4d42:	010d5d13          	srli	s10,s10,0x10
    4d46:	fc0d13e3          	bnez	s10,4d0c <ip_frag+0xda>
    4d4a:	855a                	mv	a0,s6
    4d4c:	d18ff0ef          	jal	ra,4264 <htons>
    4d50:	00ab8323          	sb	a0,6(s7)
    4d54:	8121                	srli	a0,a0,0x8
    4d56:	00ab83a3          	sb	a0,7(s7)
    4d5a:	014a8513          	addi	a0,s5,20
    4d5e:	0542                	slli	a0,a0,0x10
    4d60:	8141                	srli	a0,a0,0x10
    4d62:	d02ff0ef          	jal	ra,4264 <htons>
    4d66:	00ab8123          	sb	a0,2(s7)
    4d6a:	8121                	srli	a0,a0,0x8
    4d6c:	00ab81a3          	sb	a0,3(s7)
    4d70:	45d1                	li	a1,20
    4d72:	000b8523          	sb	zero,10(s7)
    4d76:	000b85a3          	sb	zero,11(s7)
    4d7a:	855e                	mv	a0,s7
    4d7c:	1e4040ef          	jal	ra,8f60 <inet_chksum>
    4d80:	014ca703          	lw	a4,20(s9)
    4d84:	4652                	lw	a2,20(sp)
    4d86:	00ab8523          	sb	a0,10(s7)
    4d8a:	8121                	srli	a0,a0,0x8
    4d8c:	00ab85a3          	sb	a0,11(s7)
    4d90:	85ce                	mv	a1,s3
    4d92:	8566                	mv	a0,s9
    4d94:	9702                	jalr	a4
    4d96:	415484b3          	sub	s1,s1,s5
    4d9a:	9952                	add	s2,s2,s4
    4d9c:	854e                	mv	a0,s3
    4d9e:	04c2                	slli	s1,s1,0x10
    4da0:	0942                	slli	s2,s2,0x10
    4da2:	0ab000ef          	jal	ra,564c <pbuf_free>
    4da6:	80c1                	srli	s1,s1,0x10
    4da8:	01095913          	srli	s2,s2,0x10
    4dac:	8d22                	mv	s10,s0
    4dae:	bdc5                	j	4c9e <ip_frag+0x6c>

00004db0 <dhcp_set_state>:
    4db0:	293c                	lbu	a5,18(a0)
    4db2:	00b78563          	beq	a5,a1,4dbc <dhcp_set_state+0xc>
    4db6:	a92c                	sb	a1,18(a0)
    4db8:	000509a3          	sb	zero,19(a0)
    4dbc:	8082                	ret

00004dbe <dhcp_option>:
    4dbe:	2d5e                	lhu	a5,28(a0)
    4dc0:	4d18                	lw	a4,24(a0)
    4dc2:	00f706b3          	add	a3,a4,a5
    4dc6:	0eb68823          	sb	a1,240(a3) # 20f0 <WCHNET_ETHIsr+0x56>
    4dca:	00278693          	addi	a3,a5,2 # 2002 <ETH_Configuration+0x48>
    4dce:	0785                	addi	a5,a5,1
    4dd0:	07c2                	slli	a5,a5,0x10
    4dd2:	83c1                	srli	a5,a5,0x10
    4dd4:	ad56                	sh	a3,28(a0)
    4dd6:	97ba                	add	a5,a5,a4
    4dd8:	0ec78823          	sb	a2,240(a5)
    4ddc:	8082                	ret

00004dde <dhcp_option_byte>:
    4dde:	2d5a                	lhu	a4,28(a0)
    4de0:	4d1c                	lw	a5,24(a0)
    4de2:	00170693          	addi	a3,a4,1 # 2001 <ETH_Configuration+0x47>
    4de6:	ad56                	sh	a3,28(a0)
    4de8:	97ba                	add	a5,a5,a4
    4dea:	0eb78823          	sb	a1,240(a5)
    4dee:	8082                	ret

00004df0 <dhcp_option_long>:
    4df0:	2d5e                	lhu	a5,28(a0)
    4df2:	4d18                	lw	a4,24(a0)
    4df4:	0185d613          	srli	a2,a1,0x18
    4df8:	00f706b3          	add	a3,a4,a5
    4dfc:	0ec68823          	sb	a2,240(a3)
    4e00:	00178693          	addi	a3,a5,1
    4e04:	06c2                	slli	a3,a3,0x10
    4e06:	82c1                	srli	a3,a3,0x10
    4e08:	96ba                	add	a3,a3,a4
    4e0a:	0105d613          	srli	a2,a1,0x10
    4e0e:	0ec68823          	sb	a2,240(a3)
    4e12:	00278693          	addi	a3,a5,2
    4e16:	06c2                	slli	a3,a3,0x10
    4e18:	82c1                	srli	a3,a3,0x10
    4e1a:	96ba                	add	a3,a3,a4
    4e1c:	0085d613          	srli	a2,a1,0x8
    4e20:	0ec68823          	sb	a2,240(a3)
    4e24:	00478693          	addi	a3,a5,4
    4e28:	078d                	addi	a5,a5,3
    4e2a:	07c2                	slli	a5,a5,0x10
    4e2c:	83c1                	srli	a5,a5,0x10
    4e2e:	ad56                	sh	a3,28(a0)
    4e30:	97ba                	add	a5,a5,a4
    4e32:	0eb78823          	sb	a1,240(a5)
    4e36:	8082                	ret

00004e38 <dhcp_option_trailer>:
    4e38:	c115                	beqz	a0,4e5c <dhcp_option_trailer+0x24>
    4e3a:	2d5e                	lhu	a5,28(a0)
    4e3c:	4d18                	lw	a4,24(a0)
    4e3e:	04300613          	li	a2,67
    4e42:	00178693          	addi	a3,a5,1
    4e46:	ad56                	sh	a3,28(a0)
    4e48:	97ba                	add	a5,a5,a4
    4e4a:	56fd                	li	a3,-1
    4e4c:	0ed78823          	sb	a3,240(a5)
    4e50:	2d5e                	lhu	a5,28(a0)
    4e52:	00f67663          	bgeu	a2,a5,4e5e <dhcp_option_trailer+0x26>
    4e56:	0037f693          	andi	a3,a5,3
    4e5a:	e291                	bnez	a3,4e5e <dhcp_option_trailer+0x26>
    4e5c:	8082                	ret
    4e5e:	00178693          	addi	a3,a5,1
    4e62:	ad56                	sh	a3,28(a0)
    4e64:	97ba                	add	a5,a5,a4
    4e66:	0e078823          	sb	zero,240(a5)
    4e6a:	b7dd                	j	4e50 <dhcp_option_trailer+0x18>

00004e6c <dhcp_create_request>:
    4e6c:	18050263          	beqz	a0,4ff0 <dhcp_create_request+0x184>
    4e70:	b80fb2ef          	jal	t0,1f0 <__riscv_save_0>
    4e74:	5104                	lw	s1,32(a0)
    4e76:	57dd                	li	a5,-9
    4e78:	16048963          	beqz	s1,4fea <dhcp_create_request+0x17e>
    4e7c:	892a                	mv	s2,a0
    4e7e:	4601                	li	a2,0
    4e80:	13400593          	li	a1,308
    4e84:	4501                	li	a0,0
    4e86:	015000ef          	jal	ra,569a <pbuf_alloc>
    4e8a:	c8c8                	sw	a0,20(s1)
    4e8c:	872a                	mv	a4,a0
    4e8e:	57fd                	li	a5,-1
    4e90:	14050d63          	beqz	a0,4fea <dhcp_create_request+0x17e>
    4e94:	38bc                	lbu	a5,19(s1)
    4e96:	ef99                	bnez	a5,4eb4 <dhcp_create_request+0x48>
    4e98:	28bc                	lbu	a5,18(s1)
    4e9a:	4605                	li	a2,1
    4e9c:	00c78c63          	beq	a5,a2,4eb4 <dhcp_create_request+0x48>
    4ea0:	17f1                	addi	a5,a5,-4
    4ea2:	0ff7f793          	andi	a5,a5,255
    4ea6:	00f67763          	bgeu	a2,a5,4eb4 <dhcp_create_request+0x48>
    4eaa:	8201a783          	lw	a5,-2016(gp) # 20000040 <DHCPXid>
    4eae:	0785                	addi	a5,a5,1
    4eb0:	82f1a023          	sw	a5,-2016(gp) # 20000040 <DHCPXid>
    4eb4:	4340                	lw	s0,4(a4)
    4eb6:	8201a503          	lw	a0,-2016(gp) # 20000040 <DHCPXid>
    4eba:	4785                	li	a5,1
    4ebc:	cc80                	sw	s0,24(s1)
    4ebe:	c088                	sw	a0,0(s1)
    4ec0:	a01c                	sb	a5,0(s0)
    4ec2:	b01c                	sb	a5,1(s0)
    4ec4:	4799                	li	a5,6
    4ec6:	a03c                	sb	a5,2(s0)
    4ec8:	000401a3          	sb	zero,3(s0)
    4ecc:	bb4ff0ef          	jal	ra,4280 <htonl>
    4ed0:	00855793          	srli	a5,a0,0x8
    4ed4:	a048                	sb	a0,4(s0)
    4ed6:	b05c                	sb	a5,5(s0)
    4ed8:	01055793          	srli	a5,a0,0x10
    4edc:	8161                	srli	a0,a0,0x18
    4ede:	a07c                	sb	a5,6(s0)
    4ee0:	b068                	sb	a0,7(s0)
    4ee2:	4c80                	lw	s0,24(s1)
    4ee4:	4729                	li	a4,10
    4ee6:	00040423          	sb	zero,8(s0)
    4eea:	000404a3          	sb	zero,9(s0)
    4eee:	00040523          	sb	zero,10(s0)
    4ef2:	000405a3          	sb	zero,11(s0)
    4ef6:	00040623          	sb	zero,12(s0)
    4efa:	000406a3          	sb	zero,13(s0)
    4efe:	00040723          	sb	zero,14(s0)
    4f02:	000407a3          	sb	zero,15(s0)
    4f06:	28bc                	lbu	a5,18(s1)
    4f08:	00e78863          	beq	a5,a4,4f18 <dhcp_create_request+0xac>
    4f0c:	17f1                	addi	a5,a5,-4
    4f0e:	0ff7f793          	andi	a5,a5,255
    4f12:	4705                	li	a4,1
    4f14:	00f76e63          	bltu	a4,a5,4f30 <dhcp_create_request+0xc4>
    4f18:	00494783          	lbu	a5,4(s2)
    4f1c:	a45c                	sb	a5,12(s0)
    4f1e:	00594783          	lbu	a5,5(s2)
    4f22:	b45c                	sb	a5,13(s0)
    4f24:	00694783          	lbu	a5,6(s2)
    4f28:	a47c                	sb	a5,14(s0)
    4f2a:	00794783          	lbu	a5,7(s2)
    4f2e:	b47c                	sb	a5,15(s0)
    4f30:	00040823          	sb	zero,16(s0)
    4f34:	000408a3          	sb	zero,17(s0)
    4f38:	00040923          	sb	zero,18(s0)
    4f3c:	000409a3          	sb	zero,19(s0)
    4f40:	00040a23          	sb	zero,20(s0)
    4f44:	00040aa3          	sb	zero,21(s0)
    4f48:	00040b23          	sb	zero,22(s0)
    4f4c:	00040ba3          	sb	zero,23(s0)
    4f50:	00040c23          	sb	zero,24(s0)
    4f54:	00040ca3          	sb	zero,25(s0)
    4f58:	00040d23          	sb	zero,26(s0)
    4f5c:	00040da3          	sb	zero,27(s0)
    4f60:	02894583          	lbu	a1,40(s2)
    4f64:	4781                	li	a5,0
    4f66:	4641                	li	a2,16
    4f68:	01079713          	slli	a4,a5,0x10
    4f6c:	8341                	srli	a4,a4,0x10
    4f6e:	4681                	li	a3,0
    4f70:	00b77663          	bgeu	a4,a1,4f7c <dhcp_create_request+0x110>
    4f74:	00f90733          	add	a4,s2,a5
    4f78:	02974683          	lbu	a3,41(a4)
    4f7c:	00f40733          	add	a4,s0,a5
    4f80:	af54                	sb	a3,28(a4)
    4f82:	0785                	addi	a5,a5,1
    4f84:	fec792e3          	bne	a5,a2,4f68 <dhcp_create_request+0xfc>
    4f88:	02c40713          	addi	a4,s0,44
    4f8c:	06c40793          	addi	a5,s0,108
    4f90:	00070023          	sb	zero,0(a4)
    4f94:	0705                	addi	a4,a4,1
    4f96:	fee79de3          	bne	a5,a4,4f90 <dhcp_create_request+0x124>
    4f9a:	0ec40713          	addi	a4,s0,236
    4f9e:	00078023          	sb	zero,0(a5)
    4fa2:	0785                	addi	a5,a5,1
    4fa4:	fee79de3          	bne	a5,a4,4f9e <dhcp_create_request+0x132>
    4fa8:	63825537          	lui	a0,0x63825
    4fac:	36350513          	addi	a0,a0,867 # 63825363 <_eusrstack+0x43815363>
    4fb0:	ad0ff0ef          	jal	ra,4280 <htonl>
    4fb4:	00855793          	srli	a5,a0,0x8
    4fb8:	0ea40623          	sb	a0,236(s0)
    4fbc:	0ef406a3          	sb	a5,237(s0)
    4fc0:	4c90                	lw	a2,24(s1)
    4fc2:	01055793          	srli	a5,a0,0x10
    4fc6:	8161                	srli	a0,a0,0x18
    4fc8:	0ef40723          	sb	a5,238(s0)
    4fcc:	0ea407a3          	sb	a0,239(s0)
    4fd0:	00049e23          	sh	zero,28(s1)
    4fd4:	4781                	li	a5,0
    4fd6:	04400713          	li	a4,68
    4fda:	00f606b3          	add	a3,a2,a5
    4fde:	0ef68823          	sb	a5,240(a3)
    4fe2:	0785                	addi	a5,a5,1
    4fe4:	fee79be3          	bne	a5,a4,4fda <dhcp_create_request+0x16e>
    4fe8:	4781                	li	a5,0
    4fea:	853e                	mv	a0,a5
    4fec:	a28fb06f          	j	214 <__riscv_restore_0>
    4ff0:	57d9                	li	a5,-10
    4ff2:	853e                	mv	a0,a5
    4ff4:	8082                	ret

00004ff6 <dhcp_delete_request>:
    4ff6:	cd11                	beqz	a0,5012 <dhcp_delete_request+0x1c>
    4ff8:	9f8fb2ef          	jal	t0,1f0 <__riscv_save_0>
    4ffc:	5100                	lw	s0,32(a0)
    4ffe:	c801                	beqz	s0,500e <dhcp_delete_request+0x18>
    5000:	4848                	lw	a0,20(s0)
    5002:	c111                	beqz	a0,5006 <dhcp_delete_request+0x10>
    5004:	25a1                	jal	564c <pbuf_free>
    5006:	00042a23          	sw	zero,20(s0)
    500a:	00042c23          	sw	zero,24(s0)
    500e:	a06fb06f          	j	214 <__riscv_restore_0>
    5012:	8082                	ret

00005014 <dhcp_arp_reply>:
    5014:	18050063          	beqz	a0,5194 <dhcp_arp_reply+0x180>
    5018:	9d8fb2ef          	jal	t0,1f0 <__riscv_save_0>
    501c:	5100                	lw	s0,32(a0)
    501e:	16040963          	beqz	s0,5190 <dhcp_arp_reply+0x17c>
    5022:	2838                	lbu	a4,18(s0)
    5024:	47a1                	li	a5,8
    5026:	16f71563          	bne	a4,a5,5190 <dhcp_arp_reply+0x17c>
    502a:	3198                	lbu	a4,1(a1)
    502c:	219c                	lbu	a5,0(a1)
    502e:	0722                	slli	a4,a4,0x8
    5030:	8f5d                	or	a4,a4,a5
    5032:	21bc                	lbu	a5,2(a1)
    5034:	07c2                	slli	a5,a5,0x10
    5036:	8f5d                	or	a4,a4,a5
    5038:	31bc                	lbu	a5,3(a1)
    503a:	07e2                	slli	a5,a5,0x18
    503c:	8fd9                	or	a5,a5,a4
    503e:	5418                	lw	a4,40(s0)
    5040:	14e79863          	bne	a5,a4,5190 <dhcp_arp_reply+0x17c>
    5044:	84aa                	mv	s1,a0
    5046:	45b1                	li	a1,12
    5048:	8522                	mv	a0,s0
    504a:	d67ff0ef          	jal	ra,4db0 <dhcp_set_state>
    504e:	8526                	mv	a0,s1
    5050:	e1dff0ef          	jal	ra,4e6c <dhcp_create_request>
    5054:	12051963          	bnez	a0,5186 <dhcp_arp_reply+0x172>
    5058:	4605                	li	a2,1
    505a:	03500593          	li	a1,53
    505e:	8522                	mv	a0,s0
    5060:	d5fff0ef          	jal	ra,4dbe <dhcp_option>
    5064:	4591                	li	a1,4
    5066:	8522                	mv	a0,s0
    5068:	d77ff0ef          	jal	ra,4dde <dhcp_option_byte>
    506c:	4611                	li	a2,4
    506e:	03200593          	li	a1,50
    5072:	8522                	mv	a0,s0
    5074:	d4bff0ef          	jal	ra,4dbe <dhcp_option>
    5078:	5408                	lw	a0,40(s0)
    507a:	a2aff0ef          	jal	ra,42a4 <ntohl>
    507e:	85aa                	mv	a1,a0
    5080:	8522                	mv	a0,s0
    5082:	d6fff0ef          	jal	ra,4df0 <dhcp_option_long>
    5086:	4611                	li	a2,4
    5088:	03600593          	li	a1,54
    508c:	8522                	mv	a0,s0
    508e:	d31ff0ef          	jal	ra,4dbe <dhcp_option>
    5092:	5048                	lw	a0,36(s0)
    5094:	a10ff0ef          	jal	ra,42a4 <ntohl>
    5098:	85aa                	mv	a1,a0
    509a:	8522                	mv	a0,s0
    509c:	d55ff0ef          	jal	ra,4df0 <dhcp_option_long>
    50a0:	461d                	li	a2,7
    50a2:	03d00593          	li	a1,61
    50a6:	8522                	mv	a0,s0
    50a8:	d17ff0ef          	jal	ra,4dbe <dhcp_option>
    50ac:	2c5e                	lhu	a5,28(s0)
    50ae:	4c18                	lw	a4,24(s0)
    50b0:	4605                	li	a2,1
    50b2:	8522                	mv	a0,s0
    50b4:	00f706b3          	add	a3,a4,a5
    50b8:	0ec68823          	sb	a2,240(a3)
    50bc:	00278613          	addi	a2,a5,2
    50c0:	0642                	slli	a2,a2,0x10
    50c2:	8241                	srli	a2,a2,0x10
    50c4:	ac52                	sh	a2,28(s0)
    50c6:	00178693          	addi	a3,a5,1
    50ca:	0294c583          	lbu	a1,41(s1)
    50ce:	06c2                	slli	a3,a3,0x10
    50d0:	82c1                	srli	a3,a3,0x10
    50d2:	96ba                	add	a3,a3,a4
    50d4:	0eb68823          	sb	a1,240(a3)
    50d8:	00378693          	addi	a3,a5,3
    50dc:	06c2                	slli	a3,a3,0x10
    50de:	82c1                	srli	a3,a3,0x10
    50e0:	ac56                	sh	a3,28(s0)
    50e2:	02a4c583          	lbu	a1,42(s1)
    50e6:	963a                	add	a2,a2,a4
    50e8:	96ba                	add	a3,a3,a4
    50ea:	0eb60823          	sb	a1,240(a2)
    50ee:	00478613          	addi	a2,a5,4
    50f2:	0642                	slli	a2,a2,0x10
    50f4:	8241                	srli	a2,a2,0x10
    50f6:	ac52                	sh	a2,28(s0)
    50f8:	02b4c583          	lbu	a1,43(s1)
    50fc:	963a                	add	a2,a2,a4
    50fe:	0eb68823          	sb	a1,240(a3)
    5102:	00578693          	addi	a3,a5,5
    5106:	06c2                	slli	a3,a3,0x10
    5108:	82c1                	srli	a3,a3,0x10
    510a:	ac56                	sh	a3,28(s0)
    510c:	02c4c583          	lbu	a1,44(s1)
    5110:	96ba                	add	a3,a3,a4
    5112:	0eb60823          	sb	a1,240(a2)
    5116:	00678613          	addi	a2,a5,6
    511a:	0642                	slli	a2,a2,0x10
    511c:	8241                	srli	a2,a2,0x10
    511e:	ac52                	sh	a2,28(s0)
    5120:	02d4c583          	lbu	a1,45(s1)
    5124:	079d                	addi	a5,a5,7
    5126:	9732                	add	a4,a4,a2
    5128:	0eb68823          	sb	a1,240(a3)
    512c:	ac5e                	sh	a5,28(s0)
    512e:	02e4c783          	lbu	a5,46(s1)
    5132:	0ef70823          	sb	a5,240(a4)
    5136:	d03ff0ef          	jal	ra,4e38 <dhcp_option_trailer>
    513a:	2c4e                	lhu	a1,28(s0)
    513c:	4848                	lw	a0,20(s0)
    513e:	0f058593          	addi	a1,a1,240
    5142:	05c2                	slli	a1,a1,0x10
    5144:	81c1                	srli	a1,a1,0x10
    5146:	2d51                	jal	57da <pbuf_realloc>
    5148:	02844703          	lbu	a4,40(s0)
    514c:	4c1c                	lw	a5,24(s0)
    514e:	484c                	lw	a1,20(s0)
    5150:	4048                	lw	a0,4(s0)
    5152:	a7d8                	sb	a4,12(a5)
    5154:	02944703          	lbu	a4,41(s0)
    5158:	0044a903          	lw	s2,4(s1)
    515c:	b7d8                	sb	a4,13(a5)
    515e:	02a44703          	lbu	a4,42(s0)
    5162:	04300693          	li	a3,67
    5166:	84c18613          	addi	a2,gp,-1972 # 2000006c <ip_addr_broadcast>
    516a:	a7f8                	sb	a4,14(a5)
    516c:	02b44703          	lbu	a4,43(s0)
    5170:	b7f8                	sb	a4,15(a5)
    5172:	0004a223          	sw	zero,4(s1)
    5176:	8726                	mv	a4,s1
    5178:	7b4030ef          	jal	ra,892c <udp_sendto_if>
    517c:	8526                	mv	a0,s1
    517e:	0124a223          	sw	s2,4(s1)
    5182:	e75ff0ef          	jal	ra,4ff6 <dhcp_delete_request>
    5186:	383c                	lbu	a5,19(s0)
    5188:	0785                	addi	a5,a5,1
    518a:	b83c                	sb	a5,19(s0)
    518c:	4785                	li	a5,1
    518e:	ac7e                	sh	a5,30(s0)
    5190:	884fb06f          	j	214 <__riscv_restore_0>
    5194:	8082                	ret

00005196 <lwip_init>:
    5196:	85afb2ef          	jal	t0,1f0 <__riscv_save_0>
    519a:	2811                	jal	51ae <mem_init>
    519c:	24bd                	jal	540a <memp_init>
    519e:	200097b7          	lui	a5,0x20009
    51a2:	b247a783          	lw	a5,-1244(a5) # 20008b24 <DNSInf+0x8>
    51a6:	c391                	beqz	a5,51aa <lwip_init+0x14>
    51a8:	9782                	jalr	a5
    51aa:	86afb06f          	j	214 <__riscv_restore_0>

000051ae <mem_init>:
    51ae:	20006737          	lui	a4,0x20006
    51b2:	ee370713          	addi	a4,a4,-285 # 20005ee3 <Mem_Heap_Memory+0x3>
    51b6:	9b71                	andi	a4,a4,-4
    51b8:	8ee1a623          	sw	a4,-1812(gp) # 2000010c <ram>
    51bc:	200097b7          	lui	a5,0x20009
    51c0:	b887a783          	lw	a5,-1144(a5) # 20008b88 <WCHCfg+0x8>
    51c4:	00071123          	sh	zero,2(a4)
    51c8:	078d                	addi	a5,a5,3
    51ca:	9bf1                	andi	a5,a5,-4
    51cc:	01079693          	slli	a3,a5,0x10
    51d0:	82c1                	srli	a3,a3,0x10
    51d2:	97ba                	add	a5,a5,a4
    51d4:	a316                	sh	a3,0(a4)
    51d6:	00070223          	sb	zero,4(a4)
    51da:	8ef1a823          	sw	a5,-1808(gp) # 20000110 <ram_end>
    51de:	4605                	li	a2,1
    51e0:	a3d0                	sb	a2,4(a5)
    51e2:	a396                	sh	a3,0(a5)
    51e4:	a3b6                	sh	a3,2(a5)
    51e6:	8ee1a423          	sw	a4,-1816(gp) # 20000108 <lfree>
    51ea:	8082                	ret

000051ec <mem_free>:
    51ec:	c149                	beqz	a0,526e <mem_free+0x82>
    51ee:	8ec1a783          	lw	a5,-1812(gp) # 2000010c <ram>
    51f2:	06f56e63          	bltu	a0,a5,526e <mem_free+0x82>
    51f6:	8f01a583          	lw	a1,-1808(gp) # 20000110 <ram_end>
    51fa:	06b57a63          	bgeu	a0,a1,526e <mem_free+0x82>
    51fe:	8e81a683          	lw	a3,-1816(gp) # 20000108 <lfree>
    5202:	ff850613          	addi	a2,a0,-8
    5206:	fe050e23          	sb	zero,-4(a0)
    520a:	8e818713          	addi	a4,gp,-1816 # 20000108 <lfree>
    520e:	00d67363          	bgeu	a2,a3,5214 <mem_free+0x28>
    5212:	c310                	sw	a2,0(a4)
    5214:	ff855683          	lhu	a3,-8(a0)
    5218:	96be                	add	a3,a3,a5
    521a:	02d60463          	beq	a2,a3,5242 <mem_free+0x56>
    521e:	0046c803          	lbu	a6,4(a3)
    5222:	02081063          	bnez	a6,5242 <mem_free+0x56>
    5226:	00d58e63          	beq	a1,a3,5242 <mem_free+0x56>
    522a:	430c                	lw	a1,0(a4)
    522c:	00b69363          	bne	a3,a1,5232 <mem_free+0x46>
    5230:	c310                	sw	a2,0(a4)
    5232:	228e                	lhu	a1,0(a3)
    5234:	feb51c23          	sh	a1,-8(a0)
    5238:	2296                	lhu	a3,0(a3)
    523a:	40f605b3          	sub	a1,a2,a5
    523e:	96be                	add	a3,a3,a5
    5240:	a2ae                	sh	a1,2(a3)
    5242:	ffa55583          	lhu	a1,-6(a0)
    5246:	00b786b3          	add	a3,a5,a1
    524a:	02d60263          	beq	a2,a3,526e <mem_free+0x82>
    524e:	0046c803          	lbu	a6,4(a3)
    5252:	00081e63          	bnez	a6,526e <mem_free+0x82>
    5256:	00072803          	lw	a6,0(a4)
    525a:	01061363          	bne	a2,a6,5260 <mem_free+0x74>
    525e:	c314                	sw	a3,0(a4)
    5260:	ff855703          	lhu	a4,-8(a0)
    5264:	a29a                	sh	a4,0(a3)
    5266:	ff855703          	lhu	a4,-8(a0)
    526a:	97ba                	add	a5,a5,a4
    526c:	a3ae                	sh	a1,2(a5)
    526e:	8082                	ret

00005270 <mem_realloc>:
    5270:	058d                	addi	a1,a1,3
    5272:	05c2                	slli	a1,a1,0x10
    5274:	81c1                	srli	a1,a1,0x10
    5276:	99f1                	andi	a1,a1,-4
    5278:	05c2                	slli	a1,a1,0x10
    527a:	81c1                	srli	a1,a1,0x10
    527c:	4731                	li	a4,12
    527e:	87ae                	mv	a5,a1
    5280:	00e5f363          	bgeu	a1,a4,5286 <mem_realloc+0x16>
    5284:	47b1                	li	a5,12
    5286:	20009737          	lui	a4,0x20009
    528a:	b8872603          	lw	a2,-1144(a4) # 20008b88 <WCHCfg+0x8>
    528e:	07c2                	slli	a5,a5,0x10
    5290:	83c1                	srli	a5,a5,0x10
    5292:	060d                	addi	a2,a2,3
    5294:	9a71                	andi	a2,a2,-4
    5296:	0af66063          	bltu	a2,a5,5336 <mem_realloc+0xc6>
    529a:	8ec1a703          	lw	a4,-1812(gp) # 2000010c <ram>
    529e:	08e56d63          	bltu	a0,a4,5338 <mem_realloc+0xc8>
    52a2:	8f01a683          	lw	a3,-1808(gp) # 20000110 <ram_end>
    52a6:	08d57963          	bgeu	a0,a3,5338 <mem_realloc+0xc8>
    52aa:	ff850693          	addi	a3,a0,-8
    52ae:	ff855883          	lhu	a7,-8(a0)
    52b2:	8e99                	sub	a3,a3,a4
    52b4:	06c2                	slli	a3,a3,0x10
    52b6:	82c1                	srli	a3,a3,0x10
    52b8:	ff888593          	addi	a1,a7,-8
    52bc:	8d95                	sub	a1,a1,a3
    52be:	05c2                	slli	a1,a1,0x10
    52c0:	81c1                	srli	a1,a1,0x10
    52c2:	06f5ea63          	bltu	a1,a5,5336 <mem_realloc+0xc6>
    52c6:	06f58963          	beq	a1,a5,5338 <mem_realloc+0xc8>
    52ca:	01170333          	add	t1,a4,a7
    52ce:	00434803          	lbu	a6,4(t1) # 80000004 <_eusrstack+0x5fff0004>
    52d2:	02081463          	bnez	a6,52fa <mem_realloc+0x8a>
    52d6:	00868593          	addi	a1,a3,8
    52da:	8e818813          	addi	a6,gp,-1816 # 20000108 <lfree>
    52de:	97ae                	add	a5,a5,a1
    52e0:	00082e03          	lw	t3,0(a6)
    52e4:	07c2                	slli	a5,a5,0x10
    52e6:	83c1                	srli	a5,a5,0x10
    52e8:	00035883          	lhu	a7,0(t1)
    52ec:	00f705b3          	add	a1,a4,a5
    52f0:	026e1663          	bne	t3,t1,531c <mem_realloc+0xac>
    52f4:	00b82023          	sw	a1,0(a6)
    52f8:	a015                	j	531c <mem_realloc+0xac>
    52fa:	01478813          	addi	a6,a5,20
    52fe:	0305ed63          	bltu	a1,a6,5338 <mem_realloc+0xc8>
    5302:	00868593          	addi	a1,a3,8
    5306:	97ae                	add	a5,a5,a1
    5308:	8e818813          	addi	a6,gp,-1816 # 20000108 <lfree>
    530c:	07c2                	slli	a5,a5,0x10
    530e:	00082303          	lw	t1,0(a6)
    5312:	83c1                	srli	a5,a5,0x10
    5314:	00f705b3          	add	a1,a4,a5
    5318:	fc65eee3          	bltu	a1,t1,52f4 <mem_realloc+0x84>
    531c:	01159023          	sh	a7,0(a1)
    5320:	a1b6                	sh	a3,2(a1)
    5322:	00058223          	sb	zero,4(a1)
    5326:	fef51c23          	sh	a5,-8(a0)
    532a:	2196                	lhu	a3,0(a1)
    532c:	00d60663          	beq	a2,a3,5338 <mem_realloc+0xc8>
    5330:	9736                	add	a4,a4,a3
    5332:	a33e                	sh	a5,2(a4)
    5334:	8082                	ret
    5336:	4501                	li	a0,0
    5338:	8082                	ret

0000533a <mem_malloc>:
    533a:	c539                	beqz	a0,5388 <mem_malloc+0x4e>
    533c:	00350713          	addi	a4,a0,3
    5340:	0742                	slli	a4,a4,0x10
    5342:	8341                	srli	a4,a4,0x10
    5344:	9b71                	andi	a4,a4,-4
    5346:	0742                	slli	a4,a4,0x10
    5348:	8341                	srli	a4,a4,0x10
    534a:	46b1                	li	a3,12
    534c:	87ba                	mv	a5,a4
    534e:	00d77363          	bgeu	a4,a3,5354 <mem_malloc+0x1a>
    5352:	47b1                	li	a5,12
    5354:	20009737          	lui	a4,0x20009
    5358:	b8872603          	lw	a2,-1144(a4) # 20008b88 <WCHCfg+0x8>
    535c:	07c2                	slli	a5,a5,0x10
    535e:	83c1                	srli	a5,a5,0x10
    5360:	060d                	addi	a2,a2,3
    5362:	9a71                	andi	a2,a2,-4
    5364:	4501                	li	a0,0
    5366:	02f66263          	bltu	a2,a5,538a <mem_malloc+0x50>
    536a:	8e81a703          	lw	a4,-1816(gp) # 20000108 <lfree>
    536e:	8ec1ae83          	lw	t4,-1812(gp) # 2000010c <ram>
    5372:	8e818593          	addi	a1,gp,-1816 # 20000108 <lfree>
    5376:	40f60333          	sub	t1,a2,a5
    537a:	41d706b3          	sub	a3,a4,t4
    537e:	06c2                	slli	a3,a3,0x10
    5380:	82c1                	srli	a3,a3,0x10
    5382:	5e61                	li	t3,-8
    5384:	0066e463          	bltu	a3,t1,538c <mem_malloc+0x52>
    5388:	4501                	li	a0,0
    538a:	8082                	ret
    538c:	00de8533          	add	a0,t4,a3
    5390:	00454803          	lbu	a6,4(a0)
    5394:	00055883          	lhu	a7,0(a0)
    5398:	06081763          	bnez	a6,5406 <mem_malloc+0xcc>
    539c:	40de0833          	sub	a6,t3,a3
    53a0:	9846                	add	a6,a6,a7
    53a2:	06f86263          	bltu	a6,a5,5406 <mem_malloc+0xcc>
    53a6:	01478313          	addi	t1,a5,20
    53aa:	04686263          	bltu	a6,t1,53ee <mem_malloc+0xb4>
    53ae:	07a1                	addi	a5,a5,8
    53b0:	97b6                	add	a5,a5,a3
    53b2:	07c2                	slli	a5,a5,0x10
    53b4:	83c1                	srli	a5,a5,0x10
    53b6:	00fe8833          	add	a6,t4,a5
    53ba:	01181023          	sh	a7,0(a6)
    53be:	00d81123          	sh	a3,2(a6)
    53c2:	00080223          	sb	zero,4(a6)
    53c6:	4685                	li	a3,1
    53c8:	a11e                	sh	a5,0(a0)
    53ca:	a154                	sb	a3,4(a0)
    53cc:	00085683          	lhu	a3,0(a6)
    53d0:	00d60463          	beq	a2,a3,53d8 <mem_malloc+0x9e>
    53d4:	96f6                	add	a3,a3,t4
    53d6:	a2be                	sh	a5,2(a3)
    53d8:	00a71963          	bne	a4,a0,53ea <mem_malloc+0xb0>
    53dc:	8f01a683          	lw	a3,-1808(gp) # 20000110 <ram_end>
    53e0:	4781                	li	a5,0
    53e2:	2350                	lbu	a2,4(a4)
    53e4:	ee01                	bnez	a2,53fc <mem_malloc+0xc2>
    53e6:	c391                	beqz	a5,53ea <mem_malloc+0xb0>
    53e8:	c198                	sw	a4,0(a1)
    53ea:	0521                	addi	a0,a0,8
    53ec:	8082                	ret
    53ee:	4785                	li	a5,1
    53f0:	a15c                	sb	a5,4(a0)
    53f2:	b7dd                	j	53d8 <mem_malloc+0x9e>
    53f4:	231a                	lhu	a4,0(a4)
    53f6:	4785                	li	a5,1
    53f8:	9776                	add	a4,a4,t4
    53fa:	b7e5                	j	53e2 <mem_malloc+0xa8>
    53fc:	fee69ce3          	bne	a3,a4,53f4 <mem_malloc+0xba>
    5400:	d7ed                	beqz	a5,53ea <mem_malloc+0xb0>
    5402:	c194                	sw	a3,0(a1)
    5404:	b7dd                	j	53ea <mem_malloc+0xb0>
    5406:	86c6                	mv	a3,a7
    5408:	bfb5                	j	5384 <mem_malloc+0x4a>

0000540a <memp_init>:
    540a:	8281a583          	lw	a1,-2008(gp) # 20000048 <memp_num>
    540e:	82c1a683          	lw	a3,-2004(gp) # 2000004c <memp_sizes>
    5412:	200077b7          	lui	a5,0x20007
    5416:	15f78793          	addi	a5,a5,351 # 2000715f <Memp_Memory+0x3>
    541a:	20009737          	lui	a4,0x20009
    541e:	9bf1                	andi	a5,a5,-4
    5420:	be470713          	addi	a4,a4,-1052 # 20008be4 <memp_tab>
    5424:	01068513          	addi	a0,a3,16
    5428:	0005d803          	lhu	a6,0(a1)
    542c:	00072023          	sw	zero,0(a4)
    5430:	4601                	li	a2,0
    5432:	00c81863          	bne	a6,a2,5442 <memp_init+0x38>
    5436:	0689                	addi	a3,a3,2
    5438:	0711                	addi	a4,a4,4
    543a:	0589                	addi	a1,a1,2
    543c:	fea696e3          	bne	a3,a0,5428 <memp_init+0x1e>
    5440:	8082                	ret
    5442:	00072883          	lw	a7,0(a4)
    5446:	0605                	addi	a2,a2,1
    5448:	0642                	slli	a2,a2,0x10
    544a:	0117a023          	sw	a7,0(a5)
    544e:	0006d883          	lhu	a7,0(a3)
    5452:	c31c                	sw	a5,0(a4)
    5454:	8241                	srli	a2,a2,0x10
    5456:	97c6                	add	a5,a5,a7
    5458:	bfe9                	j	5432 <memp_init+0x28>

0000545a <memp_malloc>:
    545a:	479d                	li	a5,7
    545c:	00a7ed63          	bltu	a5,a0,5476 <memp_malloc+0x1c>
    5460:	200097b7          	lui	a5,0x20009
    5464:	050a                	slli	a0,a0,0x2
    5466:	be478793          	addi	a5,a5,-1052 # 20008be4 <memp_tab>
    546a:	97aa                	add	a5,a5,a0
    546c:	4388                	lw	a0,0(a5)
    546e:	c509                	beqz	a0,5478 <memp_malloc+0x1e>
    5470:	4118                	lw	a4,0(a0)
    5472:	c398                	sw	a4,0(a5)
    5474:	8082                	ret
    5476:	4501                	li	a0,0
    5478:	8082                	ret

0000547a <memp_free>:
    547a:	c999                	beqz	a1,5490 <memp_free+0x16>
    547c:	00251793          	slli	a5,a0,0x2
    5480:	20009537          	lui	a0,0x20009
    5484:	be450513          	addi	a0,a0,-1052 # 20008be4 <memp_tab>
    5488:	953e                	add	a0,a0,a5
    548a:	411c                	lw	a5,0(a0)
    548c:	c19c                	sw	a5,0(a1)
    548e:	c10c                	sw	a1,0(a0)
    5490:	8082                	ret

00005492 <netif_set_ipaddr>:
    5492:	d45fa2ef          	jal	t0,1d6 <__riscv_save_4>
    5496:	3198                	lbu	a4,1(a1)
    5498:	219c                	lbu	a5,0(a1)
    549a:	84aa                	mv	s1,a0
    549c:	0722                	slli	a4,a4,0x8
    549e:	8f5d                	or	a4,a4,a5
    54a0:	21bc                	lbu	a5,2(a1)
    54a2:	842e                	mv	s0,a1
    54a4:	07c2                	slli	a5,a5,0x10
    54a6:	8f5d                	or	a4,a4,a5
    54a8:	31bc                	lbu	a5,3(a1)
    54aa:	07e2                	slli	a5,a5,0x18
    54ac:	8fd9                	or	a5,a5,a4
    54ae:	4158                	lw	a4,4(a0)
    54b0:	00e79f63          	bne	a5,a4,54ce <netif_set_ipaddr+0x3c>
    54b4:	3018                	lbu	a4,1(s0)
    54b6:	201c                	lbu	a5,0(s0)
    54b8:	0722                	slli	a4,a4,0x8
    54ba:	8f5d                	or	a4,a4,a5
    54bc:	203c                	lbu	a5,2(s0)
    54be:	07c2                	slli	a5,a5,0x10
    54c0:	8f5d                	or	a4,a4,a5
    54c2:	303c                	lbu	a5,3(s0)
    54c4:	07e2                	slli	a5,a5,0x18
    54c6:	8fd9                	or	a5,a5,a4
    54c8:	c0dc                	sw	a5,4(s1)
    54ca:	d41fa06f          	j	20a <__riscv_restore_4>
    54ce:	9041a503          	lw	a0,-1788(gp) # 20000124 <tcp_active_pcbs>
    54d2:	4901                	li	s2,0
    54d4:	06400993          	li	s3,100
    54d8:	c105                	beqz	a0,54f8 <netif_set_ipaddr+0x66>
    54da:	4118                	lw	a4,0(a0)
    54dc:	40dc                	lw	a5,4(s1)
    54de:	00c52a03          	lw	s4,12(a0)
    54e2:	04f71163          	bne	a4,a5,5524 <netif_set_ipaddr+0x92>
    54e6:	4585                	li	a1,1
    54e8:	57d000ef          	jal	ra,6264 <tcp_abandon>
    54ec:	00190793          	addi	a5,s2,1
    54f0:	0ff7f793          	andi	a5,a5,255
    54f4:	0329f763          	bgeu	s3,s2,5522 <netif_set_ipaddr+0x90>
    54f8:	90c1a783          	lw	a5,-1780(gp) # 2000012c <tcp_listen_pcbs>
    54fc:	dfc5                	beqz	a5,54b4 <netif_set_ipaddr+0x22>
    54fe:	4398                	lw	a4,0(a5)
    5500:	cf19                	beqz	a4,551e <netif_set_ipaddr+0x8c>
    5502:	40d4                	lw	a3,4(s1)
    5504:	00d71d63          	bne	a4,a3,551e <netif_set_ipaddr+0x8c>
    5508:	3014                	lbu	a3,1(s0)
    550a:	2018                	lbu	a4,0(s0)
    550c:	06a2                	slli	a3,a3,0x8
    550e:	8ed9                	or	a3,a3,a4
    5510:	2038                	lbu	a4,2(s0)
    5512:	0742                	slli	a4,a4,0x10
    5514:	8ed9                	or	a3,a3,a4
    5516:	3038                	lbu	a4,3(s0)
    5518:	0762                	slli	a4,a4,0x18
    551a:	8f55                	or	a4,a4,a3
    551c:	c398                	sw	a4,0(a5)
    551e:	47dc                	lw	a5,12(a5)
    5520:	bff1                	j	54fc <netif_set_ipaddr+0x6a>
    5522:	893e                	mv	s2,a5
    5524:	8552                	mv	a0,s4
    5526:	bf4d                	j	54d8 <netif_set_ipaddr+0x46>

00005528 <netif_set_addr>:
    5528:	cc9fa2ef          	jal	t0,1f0 <__riscv_save_0>
    552c:	1141                	addi	sp,sp,-16
    552e:	c632                	sw	a2,12(sp)
    5530:	c436                	sw	a3,8(sp)
    5532:	842a                	mv	s0,a0
    5534:	f5fff0ef          	jal	ra,5492 <netif_set_ipaddr>
    5538:	4632                	lw	a2,12(sp)
    553a:	46a2                	lw	a3,8(sp)
    553c:	4781                	li	a5,0
    553e:	ca19                	beqz	a2,5554 <netif_set_addr+0x2c>
    5540:	3218                	lbu	a4,1(a2)
    5542:	221c                	lbu	a5,0(a2)
    5544:	0722                	slli	a4,a4,0x8
    5546:	8f5d                	or	a4,a4,a5
    5548:	223c                	lbu	a5,2(a2)
    554a:	07c2                	slli	a5,a5,0x10
    554c:	8f5d                	or	a4,a4,a5
    554e:	323c                	lbu	a5,3(a2)
    5550:	07e2                	slli	a5,a5,0x18
    5552:	8fd9                	or	a5,a5,a4
    5554:	c41c                	sw	a5,8(s0)
    5556:	4781                	li	a5,0
    5558:	ca99                	beqz	a3,556e <netif_set_addr+0x46>
    555a:	3298                	lbu	a4,1(a3)
    555c:	229c                	lbu	a5,0(a3)
    555e:	0722                	slli	a4,a4,0x8
    5560:	8f5d                	or	a4,a4,a5
    5562:	22bc                	lbu	a5,2(a3)
    5564:	07c2                	slli	a5,a5,0x10
    5566:	8f5d                	or	a4,a4,a5
    5568:	32bc                	lbu	a5,3(a3)
    556a:	07e2                	slli	a5,a5,0x18
    556c:	8fd9                	or	a5,a5,a4
    556e:	c45c                	sw	a5,12(s0)
    5570:	0141                	addi	sp,sp,16
    5572:	ca3fa06f          	j	214 <__riscv_restore_0>

00005576 <netif_add>:
    5576:	c7bfa2ef          	jal	t0,1f0 <__riscv_save_0>
    557a:	cd58                	sw	a4,28(a0)
    557c:	8fc18713          	addi	a4,gp,-1796 # 2000011c <netifnum.2471>
    5580:	00074883          	lbu	a7,0(a4)
    5584:	1141                	addi	sp,sp,-16
    5586:	00052223          	sw	zero,4(a0)
    558a:	00052423          	sw	zero,8(a0)
    558e:	00052623          	sw	zero,12(a0)
    5592:	02050923          	sb	zero,50(a0)
    5596:	02052023          	sw	zero,32(a0)
    559a:	00188313          	addi	t1,a7,1
    559e:	03150aa3          	sb	a7,53(a0)
    55a2:	01052823          	sw	a6,16(a0)
    55a6:	842a                	mv	s0,a0
    55a8:	c63e                	sw	a5,12(sp)
    55aa:	00670023          	sb	t1,0(a4)
    55ae:	f7bff0ef          	jal	ra,5528 <netif_set_addr>
    55b2:	47b2                	lw	a5,12(sp)
    55b4:	8522                	mv	a0,s0
    55b6:	9782                	jalr	a5
    55b8:	e911                	bnez	a0,55cc <netif_add+0x56>
    55ba:	8f818793          	addi	a5,gp,-1800 # 20000118 <netif_list>
    55be:	4398                	lw	a4,0(a5)
    55c0:	c018                	sw	a4,0(s0)
    55c2:	c380                	sw	s0,0(a5)
    55c4:	8522                	mv	a0,s0
    55c6:	0141                	addi	sp,sp,16
    55c8:	c4dfa06f          	j	214 <__riscv_restore_0>
    55cc:	4401                	li	s0,0
    55ce:	bfdd                	j	55c4 <netif_add+0x4e>

000055d0 <netif_set_default>:
    55d0:	8ea1aa23          	sw	a0,-1804(gp) # 20000114 <netif_default>
    55d4:	8082                	ret

000055d6 <netif_is_up>:
    55d6:	03254503          	lbu	a0,50(a0)
    55da:	8905                	andi	a0,a0,1
    55dc:	8082                	ret

000055de <pbuf_header>:
    55de:	87aa                	mv	a5,a0
    55e0:	4501                	li	a0,0
    55e2:	c5a5                	beqz	a1,564a <pbuf_header+0x6c>
    55e4:	c3bd                	beqz	a5,564a <pbuf_header+0x6c>
    55e6:	01059613          	slli	a2,a1,0x10
    55ea:	8241                	srli	a2,a2,0x10
    55ec:	8832                	mv	a6,a2
    55ee:	0005db63          	bgez	a1,5604 <pbuf_header+0x26>
    55f2:	40c00833          	neg	a6,a2
    55f6:	27ba                	lhu	a4,10(a5)
    55f8:	0842                	slli	a6,a6,0x10
    55fa:	01085813          	srli	a6,a6,0x10
    55fe:	4505                	li	a0,1
    5600:	05076563          	bltu	a4,a6,564a <pbuf_header+0x6c>
    5604:	27d4                	lbu	a3,12(a5)
    5606:	43d8                	lw	a4,4(a5)
    5608:	c681                	beqz	a3,5610 <pbuf_header+0x32>
    560a:	450d                	li	a0,3
    560c:	02a69163          	bne	a3,a0,562e <pbuf_header+0x50>
    5610:	8f0d                	sub	a4,a4,a1
    5612:	01078693          	addi	a3,a5,16
    5616:	4505                	li	a0,1
    5618:	02d76963          	bltu	a4,a3,564a <pbuf_header+0x6c>
    561c:	c3d8                	sw	a4,4(a5)
    561e:	27ba                	lhu	a4,10(a5)
    5620:	4501                	li	a0,0
    5622:	9732                	add	a4,a4,a2
    5624:	a7ba                	sh	a4,10(a5)
    5626:	279a                	lhu	a4,8(a5)
    5628:	963a                	add	a2,a2,a4
    562a:	a792                	sh	a2,8(a5)
    562c:	8082                	ret
    562e:	16fd                	addi	a3,a3,-1
    5630:	06c2                	slli	a3,a3,0x10
    5632:	82c1                	srli	a3,a3,0x10
    5634:	4885                	li	a7,1
    5636:	4505                	li	a0,1
    5638:	00d8e963          	bltu	a7,a3,564a <pbuf_header+0x6c>
    563c:	0005d763          	bgez	a1,564a <pbuf_header+0x6c>
    5640:	27b6                	lhu	a3,10(a5)
    5642:	0106e463          	bltu	a3,a6,564a <pbuf_header+0x6c>
    5646:	8f0d                	sub	a4,a4,a1
    5648:	bfd1                	j	561c <pbuf_header+0x3e>
    564a:	8082                	ret

0000564c <pbuf_free>:
    564c:	b8bfa2ef          	jal	t0,1d6 <__riscv_save_4>
    5650:	4401                	li	s0,0
    5652:	cd0d                	beqz	a0,568c <pbuf_free+0x40>
    5654:	85aa                	mv	a1,a0
    5656:	4401                	li	s0,0
    5658:	490d                	li	s2,3
    565a:	4985                	li	s3,1
    565c:	25fe                	lhu	a5,14(a1)
    565e:	17fd                	addi	a5,a5,-1
    5660:	07c2                	slli	a5,a5,0x10
    5662:	83c1                	srli	a5,a5,0x10
    5664:	a5fe                	sh	a5,14(a1)
    5666:	e39d                	bnez	a5,568c <pbuf_free+0x40>
    5668:	25dc                	lbu	a5,12(a1)
    566a:	4184                	lw	s1,0(a1)
    566c:	451d                	li	a0,7
    566e:	01278863          	beq	a5,s2,567e <pbuf_free+0x32>
    5672:	17fd                	addi	a5,a5,-1
    5674:	07c2                	slli	a5,a5,0x10
    5676:	83c1                	srli	a5,a5,0x10
    5678:	00f9ed63          	bltu	s3,a5,5692 <pbuf_free+0x46>
    567c:	4519                	li	a0,6
    567e:	dfdff0ef          	jal	ra,547a <memp_free>
    5682:	0405                	addi	s0,s0,1
    5684:	0ff47413          	andi	s0,s0,255
    5688:	85a6                	mv	a1,s1
    568a:	f8e9                	bnez	s1,565c <pbuf_free+0x10>
    568c:	8522                	mv	a0,s0
    568e:	b7dfa06f          	j	20a <__riscv_restore_4>
    5692:	852e                	mv	a0,a1
    5694:	b59ff0ef          	jal	ra,51ec <mem_free>
    5698:	b7ed                	j	5682 <pbuf_free+0x36>

0000569a <pbuf_alloc>:
    569a:	b3dfa2ef          	jal	t0,1d6 <__riscv_save_4>
    569e:	4785                	li	a5,1
    56a0:	00f50d63          	beq	a0,a5,56ba <pbuf_alloc+0x20>
    56a4:	c531                	beqz	a0,56f0 <pbuf_alloc+0x56>
    56a6:	4789                	li	a5,2
    56a8:	04f50663          	beq	a0,a5,56f4 <pbuf_alloc+0x5a>
    56ac:	478d                	li	a5,3
    56ae:	04f50563          	beq	a0,a5,56f8 <pbuf_alloc+0x5e>
    56b2:	4401                	li	s0,0
    56b4:	8522                	mv	a0,s0
    56b6:	b55fa06f          	j	20a <__riscv_restore_4>
    56ba:	4481                	li	s1,0
    56bc:	04d1                	addi	s1,s1,20
    56be:	04b9                	addi	s1,s1,14
    56c0:	04c2                	slli	s1,s1,0x10
    56c2:	80c1                	srli	s1,s1,0x10
    56c4:	4789                	li	a5,2
    56c6:	89b2                	mv	s3,a2
    56c8:	892e                	mv	s2,a1
    56ca:	02c7e963          	bltu	a5,a2,56fc <pbuf_alloc+0x62>
    56ce:	ca79                	beqz	a2,57a4 <pbuf_alloc+0x10a>
    56d0:	4519                	li	a0,6
    56d2:	d89ff0ef          	jal	ra,545a <memp_malloc>
    56d6:	842a                	mv	s0,a0
    56d8:	dd69                	beqz	a0,56b2 <pbuf_alloc+0x18>
    56da:	00052223          	sw	zero,4(a0)
    56de:	01251423          	sh	s2,8(a0)
    56e2:	01251523          	sh	s2,10(a0)
    56e6:	00052023          	sw	zero,0(a0)
    56ea:	01350623          	sb	s3,12(a0)
    56ee:	a0b5                	j	575a <pbuf_alloc+0xc0>
    56f0:	44d1                	li	s1,20
    56f2:	b7e9                	j	56bc <pbuf_alloc+0x22>
    56f4:	4481                	li	s1,0
    56f6:	b7e1                	j	56be <pbuf_alloc+0x24>
    56f8:	4481                	li	s1,0
    56fa:	b7e9                	j	56c4 <pbuf_alloc+0x2a>
    56fc:	478d                	li	a5,3
    56fe:	4401                	li	s0,0
    5700:	faf61ae3          	bne	a2,a5,56b4 <pbuf_alloc+0x1a>
    5704:	451d                	li	a0,7
    5706:	d55ff0ef          	jal	ra,545a <memp_malloc>
    570a:	842a                	mv	s0,a0
    570c:	d15d                	beqz	a0,56b2 <pbuf_alloc+0x18>
    570e:	009507b3          	add	a5,a0,s1
    5712:	07cd                	addi	a5,a5,19
    5714:	9bf1                	andi	a5,a5,-4
    5716:	20009737          	lui	a4,0x20009
    571a:	c15c                	sw	a5,4(a0)
    571c:	b8070793          	addi	a5,a4,-1152 # 20008b80 <WCHCfg>
    5720:	43dc                	lw	a5,4(a5)
    5722:	048d                	addi	s1,s1,3
    5724:	98f1                	andi	s1,s1,-4
    5726:	03978793          	addi	a5,a5,57
    572a:	9bf1                	andi	a5,a5,-4
    572c:	01350623          	sb	s3,12(a0)
    5730:	00052023          	sw	zero,0(a0)
    5734:	01251423          	sh	s2,8(a0)
    5738:	409784b3          	sub	s1,a5,s1
    573c:	b8070993          	addi	s3,a4,-1152
    5740:	00997363          	bgeu	s2,s1,5746 <pbuf_alloc+0xac>
    5744:	84ca                	mv	s1,s2
    5746:	4785                	li	a5,1
    5748:	a426                	sh	s1,10(s0)
    574a:	a47e                	sh	a5,14(s0)
    574c:	409904b3          	sub	s1,s2,s1
    5750:	4a0d                	li	s4,3
    5752:	8922                	mv	s2,s0
    5754:	4a85                	li	s5,1
    5756:	00904763          	bgtz	s1,5764 <pbuf_alloc+0xca>
    575a:	4785                	li	a5,1
    575c:	a47e                	sh	a5,14(s0)
    575e:	000406a3          	sb	zero,13(s0)
    5762:	bf89                	j	56b4 <pbuf_alloc+0x1a>
    5764:	451d                	li	a0,7
    5766:	cf5ff0ef          	jal	ra,545a <memp_malloc>
    576a:	e509                	bnez	a0,5774 <pbuf_alloc+0xda>
    576c:	8522                	mv	a0,s0
    576e:	edfff0ef          	jal	ra,564c <pbuf_free>
    5772:	b781                	j	56b2 <pbuf_alloc+0x18>
    5774:	0049a783          	lw	a5,4(s3)
    5778:	01451623          	sh	s4,12(a0)
    577c:	00052023          	sw	zero,0(a0)
    5780:	00a92023          	sw	a0,0(s2)
    5784:	03978793          	addi	a5,a5,57
    5788:	a506                	sh	s1,8(a0)
    578a:	9bf1                	andi	a5,a5,-4
    578c:	00f4f363          	bgeu	s1,a5,5792 <pbuf_alloc+0xf8>
    5790:	87a6                	mv	a5,s1
    5792:	01050713          	addi	a4,a0,16
    5796:	a53e                	sh	a5,10(a0)
    5798:	c158                	sw	a4,4(a0)
    579a:	01551723          	sh	s5,14(a0)
    579e:	8c9d                	sub	s1,s1,a5
    57a0:	892a                	mv	s2,a0
    57a2:	bf55                	j	5756 <pbuf_alloc+0xbc>
    57a4:	00358793          	addi	a5,a1,3
    57a8:	01348513          	addi	a0,s1,19
    57ac:	9bf1                	andi	a5,a5,-4
    57ae:	9971                	andi	a0,a0,-4
    57b0:	953e                	add	a0,a0,a5
    57b2:	0542                	slli	a0,a0,0x10
    57b4:	8141                	srli	a0,a0,0x10
    57b6:	b85ff0ef          	jal	ra,533a <mem_malloc>
    57ba:	842a                	mv	s0,a0
    57bc:	ee050be3          	beqz	a0,56b2 <pbuf_alloc+0x18>
    57c0:	94aa                	add	s1,s1,a0
    57c2:	04cd                	addi	s1,s1,19
    57c4:	98f1                	andi	s1,s1,-4
    57c6:	c144                	sw	s1,4(a0)
    57c8:	01251423          	sh	s2,8(a0)
    57cc:	01251523          	sh	s2,10(a0)
    57d0:	00052023          	sw	zero,0(a0)
    57d4:	00050623          	sb	zero,12(a0)
    57d8:	b749                	j	575a <pbuf_alloc+0xc0>

000057da <pbuf_realloc>:
    57da:	251e                	lhu	a5,8(a0)
    57dc:	04f5fa63          	bgeu	a1,a5,5830 <pbuf_realloc+0x56>
    57e0:	a11fa2ef          	jal	t0,1f0 <__riscv_save_0>
    57e4:	842a                	mv	s0,a0
    57e6:	84ae                	mv	s1,a1
    57e8:	40f587b3          	sub	a5,a1,a5
    57ec:	242e                	lhu	a1,10(s0)
    57ee:	0295e963          	bltu	a1,s1,5820 <pbuf_realloc+0x46>
    57f2:	245c                	lbu	a5,12(s0)
    57f4:	ef81                	bnez	a5,580c <pbuf_realloc+0x32>
    57f6:	00958b63          	beq	a1,s1,580c <pbuf_realloc+0x32>
    57fa:	404c                	lw	a1,4(s0)
    57fc:	8522                	mv	a0,s0
    57fe:	8d81                	sub	a1,a1,s0
    5800:	95a6                	add	a1,a1,s1
    5802:	05c2                	slli	a1,a1,0x10
    5804:	81c1                	srli	a1,a1,0x10
    5806:	a6bff0ef          	jal	ra,5270 <mem_realloc>
    580a:	842a                	mv	s0,a0
    580c:	4008                	lw	a0,0(s0)
    580e:	a426                	sh	s1,10(s0)
    5810:	a406                	sh	s1,8(s0)
    5812:	c119                	beqz	a0,5818 <pbuf_realloc+0x3e>
    5814:	e39ff0ef          	jal	ra,564c <pbuf_free>
    5818:	00042023          	sw	zero,0(s0)
    581c:	9f9fa06f          	j	214 <__riscv_restore_0>
    5820:	241a                	lhu	a4,8(s0)
    5822:	8c8d                	sub	s1,s1,a1
    5824:	04c2                	slli	s1,s1,0x10
    5826:	973e                	add	a4,a4,a5
    5828:	a41a                	sh	a4,8(s0)
    582a:	80c1                	srli	s1,s1,0x10
    582c:	4000                	lw	s0,0(s0)
    582e:	bf7d                	j	57ec <pbuf_realloc+0x12>
    5830:	8082                	ret

00005832 <pbuf_clen>:
    5832:	4781                	li	a5,0
    5834:	e119                	bnez	a0,583a <pbuf_clen+0x8>
    5836:	853e                	mv	a0,a5
    5838:	8082                	ret
    583a:	0785                	addi	a5,a5,1
    583c:	0ff7f793          	andi	a5,a5,255
    5840:	4108                	lw	a0,0(a0)
    5842:	bfcd                	j	5834 <pbuf_clen+0x2>

00005844 <pbuf_ref>:
    5844:	c501                	beqz	a0,584c <pbuf_ref+0x8>
    5846:	257e                	lhu	a5,14(a0)
    5848:	0785                	addi	a5,a5,1
    584a:	a57e                	sh	a5,14(a0)
    584c:	8082                	ret

0000584e <pbuf_cat>:
    584e:	cd09                	beqz	a0,5868 <pbuf_cat+0x1a>
    5850:	e199                	bnez	a1,5856 <pbuf_cat+0x8>
    5852:	8082                	ret
    5854:	853a                	mv	a0,a4
    5856:	259e                	lhu	a5,8(a1)
    5858:	2516                	lhu	a3,8(a0)
    585a:	4118                	lw	a4,0(a0)
    585c:	97b6                	add	a5,a5,a3
    585e:	07c2                	slli	a5,a5,0x10
    5860:	83c1                	srli	a5,a5,0x10
    5862:	a51e                	sh	a5,8(a0)
    5864:	fb65                	bnez	a4,5854 <pbuf_cat+0x6>
    5866:	c10c                	sw	a1,0(a0)
    5868:	8082                	ret

0000586a <pbuf_chain>:
    586a:	987fa2ef          	jal	t0,1f0 <__riscv_save_0>
    586e:	842e                	mv	s0,a1
    5870:	fdfff0ef          	jal	ra,584e <pbuf_cat>
    5874:	8522                	mv	a0,s0
    5876:	fcfff0ef          	jal	ra,5844 <pbuf_ref>
    587a:	99bfa06f          	j	214 <__riscv_restore_0>

0000587e <pbuf_copy>:
    587e:	cd3d                	beqz	a0,58fc <pbuf_copy+0x7e>
    5880:	957fa2ef          	jal	t0,1d6 <__riscv_save_4>
    5884:	842a                	mv	s0,a0
    5886:	84ae                	mv	s1,a1
    5888:	5559                	li	a0,-10
    588a:	c5ad                	beqz	a1,58f4 <pbuf_copy+0x76>
    588c:	241a                	lhu	a4,8(s0)
    588e:	259e                	lhu	a5,8(a1)
    5890:	06f76263          	bltu	a4,a5,58f4 <pbuf_copy+0x76>
    5894:	4901                	li	s2,0
    5896:	4a01                	li	s4,0
    5898:	00a45983          	lhu	s3,10(s0)
    589c:	24be                	lhu	a5,10(s1)
    589e:	414989b3          	sub	s3,s3,s4
    58a2:	412787b3          	sub	a5,a5,s2
    58a6:	04f9c963          	blt	s3,a5,58f8 <pbuf_copy+0x7a>
    58aa:	01079993          	slli	s3,a5,0x10
    58ae:	4048                	lw	a0,4(s0)
    58b0:	40cc                	lw	a1,4(s1)
    58b2:	0109d993          	srli	s3,s3,0x10
    58b6:	9552                	add	a0,a0,s4
    58b8:	95ca                	add	a1,a1,s2
    58ba:	864e                	mv	a2,s3
    58bc:	4ed030ef          	jal	ra,95a8 <memcpy>
    58c0:	9a4e                	add	s4,s4,s3
    58c2:	243e                	lhu	a5,10(s0)
    58c4:	0a42                	slli	s4,s4,0x10
    58c6:	994e                	add	s2,s2,s3
    58c8:	0942                	slli	s2,s2,0x10
    58ca:	010a5a13          	srli	s4,s4,0x10
    58ce:	01095913          	srli	s2,s2,0x10
    58d2:	01479463          	bne	a5,s4,58da <pbuf_copy+0x5c>
    58d6:	4000                	lw	s0,0(s0)
    58d8:	4a01                	li	s4,0
    58da:	24be                	lhu	a5,10(s1)
    58dc:	00f96563          	bltu	s2,a5,58e6 <pbuf_copy+0x68>
    58e0:	4084                	lw	s1,0(s1)
    58e2:	cc99                	beqz	s1,5900 <pbuf_copy+0x82>
    58e4:	4901                	li	s2,0
    58e6:	24ba                	lhu	a4,10(s1)
    58e8:	249e                	lhu	a5,8(s1)
    58ea:	02f71663          	bne	a4,a5,5916 <pbuf_copy+0x98>
    58ee:	409c                	lw	a5,0(s1)
    58f0:	c39d                	beqz	a5,5916 <pbuf_copy+0x98>
    58f2:	555d                	li	a0,-9
    58f4:	917fa06f          	j	20a <__riscv_restore_4>
    58f8:	09c2                	slli	s3,s3,0x10
    58fa:	bf55                	j	58ae <pbuf_copy+0x30>
    58fc:	5559                	li	a0,-10
    58fe:	8082                	ret
    5900:	c809                	beqz	s0,5912 <pbuf_copy+0x94>
    5902:	4901                	li	s2,0
    5904:	243a                	lhu	a4,10(s0)
    5906:	241e                	lhu	a5,8(s0)
    5908:	00f71463          	bne	a4,a5,5910 <pbuf_copy+0x92>
    590c:	401c                	lw	a5,0(s0)
    590e:	f3f5                	bnez	a5,58f2 <pbuf_copy+0x74>
    5910:	f4c1                	bnez	s1,5898 <pbuf_copy+0x1a>
    5912:	4501                	li	a0,0
    5914:	b7c5                	j	58f4 <pbuf_copy+0x76>
    5916:	f47d                	bnez	s0,5904 <pbuf_copy+0x86>
    5918:	b741                	j	5898 <pbuf_copy+0x1a>

0000591a <raw_input>:
    591a:	8bdfa2ef          	jal	t0,1d6 <__riscv_save_4>
    591e:	00452903          	lw	s2,4(a0)
    5922:	89aa                	mv	s3,a0
    5924:	00994783          	lbu	a5,9(s2)
    5928:	00894503          	lbu	a0,8(s2)
    592c:	4a01                	li	s4,0
    592e:	07a2                	slli	a5,a5,0x8
    5930:	8d5d                	or	a0,a0,a5
    5932:	941fe0ef          	jal	ra,4272 <ntohs>
    5936:	0ff57a93          	andi	s5,a0,255
    593a:	9001a403          	lw	s0,-1792(gp) # 20000120 <raw_pcbs>
    593e:	0931                	addi	s2,s2,12
    5940:	90018493          	addi	s1,gp,-1792 # 20000120 <raw_pcbs>
    5944:	e401                	bnez	s0,594c <raw_input+0x32>
    5946:	4501                	li	a0,0
    5948:	8c3fa06f          	j	20a <__riscv_restore_4>
    594c:	281c                	lbu	a5,16(s0)
    594e:	4501                	li	a0,0
    5950:	03579463          	bne	a5,s5,5978 <raw_input+0x5e>
    5954:	485c                	lw	a5,20(s0)
    5956:	c38d                	beqz	a5,5978 <raw_input+0x5e>
    5958:	4c08                	lw	a0,24(s0)
    595a:	86ca                	mv	a3,s2
    595c:	864e                	mv	a2,s3
    595e:	85a2                	mv	a1,s0
    5960:	9782                	jalr	a5
    5962:	c919                	beqz	a0,5978 <raw_input+0x5e>
    5964:	000a0863          	beqz	s4,5974 <raw_input+0x5a>
    5968:	445c                	lw	a5,12(s0)
    596a:	00fa2623          	sw	a5,12(s4)
    596e:	409c                	lw	a5,0(s1)
    5970:	c080                	sw	s0,0(s1)
    5972:	c45c                	sw	a5,12(s0)
    5974:	4505                	li	a0,1
    5976:	4981                	li	s3,0
    5978:	445c                	lw	a5,12(s0)
    597a:	8a22                	mv	s4,s0
    597c:	f571                	bnez	a0,5948 <raw_input+0x2e>
    597e:	843e                	mv	s0,a5
    5980:	b7d1                	j	5944 <raw_input+0x2a>

00005982 <raw_bind>:
    5982:	4781                	li	a5,0
    5984:	c999                	beqz	a1,599a <raw_bind+0x18>
    5986:	3198                	lbu	a4,1(a1)
    5988:	219c                	lbu	a5,0(a1)
    598a:	0722                	slli	a4,a4,0x8
    598c:	8f5d                	or	a4,a4,a5
    598e:	21bc                	lbu	a5,2(a1)
    5990:	07c2                	slli	a5,a5,0x10
    5992:	8f5d                	or	a4,a4,a5
    5994:	31bc                	lbu	a5,3(a1)
    5996:	07e2                	slli	a5,a5,0x18
    5998:	8fd9                	or	a5,a5,a4
    599a:	c11c                	sw	a5,0(a0)
    599c:	4501                	li	a0,0
    599e:	8082                	ret

000059a0 <raw_connect>:
    59a0:	4781                	li	a5,0
    59a2:	c999                	beqz	a1,59b8 <raw_connect+0x18>
    59a4:	3198                	lbu	a4,1(a1)
    59a6:	219c                	lbu	a5,0(a1)
    59a8:	0722                	slli	a4,a4,0x8
    59aa:	8f5d                	or	a4,a4,a5
    59ac:	21bc                	lbu	a5,2(a1)
    59ae:	07c2                	slli	a5,a5,0x10
    59b0:	8f5d                	or	a4,a4,a5
    59b2:	31bc                	lbu	a5,3(a1)
    59b4:	07e2                	slli	a5,a5,0x18
    59b6:	8fd9                	or	a5,a5,a4
    59b8:	c15c                	sw	a5,4(a0)
    59ba:	4501                	li	a0,0
    59bc:	8082                	ret

000059be <raw_recv>:
    59be:	c94c                	sw	a1,20(a0)
    59c0:	cd10                	sw	a2,24(a0)
    59c2:	8082                	ret

000059c4 <raw_sendto>:
    59c4:	813fa2ef          	jal	t0,1d6 <__riscv_save_4>
    59c8:	84ae                	mv	s1,a1
    59ca:	892a                	mv	s2,a0
    59cc:	45d1                	li	a1,20
    59ce:	8526                	mv	a0,s1
    59d0:	89b2                	mv	s3,a2
    59d2:	c0dff0ef          	jal	ra,55de <pbuf_header>
    59d6:	c915                	beqz	a0,5a0a <raw_sendto+0x46>
    59d8:	4601                	li	a2,0
    59da:	4581                	li	a1,0
    59dc:	4505                	li	a0,1
    59de:	cbdff0ef          	jal	ra,569a <pbuf_alloc>
    59e2:	842a                	mv	s0,a0
    59e4:	e509                	bnez	a0,59ee <raw_sendto+0x2a>
    59e6:	597d                	li	s2,-1
    59e8:	854a                	mv	a0,s2
    59ea:	821fa06f          	j	20a <__riscv_restore_4>
    59ee:	85a6                	mv	a1,s1
    59f0:	e7bff0ef          	jal	ra,586a <pbuf_chain>
    59f4:	854e                	mv	a0,s3
    59f6:	8bbfe0ef          	jal	ra,42b0 <ip_route>
    59fa:	ed19                	bnez	a0,5a18 <raw_sendto+0x54>
    59fc:	5971                	li	s2,-4
    59fe:	fe9405e3          	beq	s0,s1,59e8 <raw_sendto+0x24>
    5a02:	8522                	mv	a0,s0
    5a04:	c49ff0ef          	jal	ra,564c <pbuf_free>
    5a08:	b7c5                	j	59e8 <raw_sendto+0x24>
    5a0a:	55b1                	li	a1,-20
    5a0c:	8526                	mv	a0,s1
    5a0e:	bd1ff0ef          	jal	ra,55de <pbuf_header>
    5a12:	f971                	bnez	a0,59e6 <raw_sendto+0x22>
    5a14:	8426                	mv	s0,s1
    5a16:	bff9                	j	59f4 <raw_sendto+0x30>
    5a18:	85ca                	mv	a1,s2
    5a1a:	00090563          	beqz	s2,5a24 <raw_sendto+0x60>
    5a1e:	00092783          	lw	a5,0(s2)
    5a22:	e399                	bnez	a5,5a28 <raw_sendto+0x64>
    5a24:	00450593          	addi	a1,a0,4
    5a28:	01094783          	lbu	a5,16(s2)
    5a2c:	00a94703          	lbu	a4,10(s2)
    5a30:	00b94683          	lbu	a3,11(s2)
    5a34:	882a                	mv	a6,a0
    5a36:	864e                	mv	a2,s3
    5a38:	8522                	mv	a0,s0
    5a3a:	b5dfe0ef          	jal	ra,4596 <ip_output_if>
    5a3e:	892a                	mv	s2,a0
    5a40:	bf7d                	j	59fe <raw_sendto+0x3a>

00005a42 <raw_send>:
    5a42:	faefa2ef          	jal	t0,1f0 <__riscv_save_0>
    5a46:	00450613          	addi	a2,a0,4
    5a4a:	f7bff0ef          	jal	ra,59c4 <raw_sendto>
    5a4e:	fc6fa06f          	j	214 <__riscv_restore_0>

00005a52 <raw_new>:
    5a52:	f9efa2ef          	jal	t0,1f0 <__riscv_save_0>
    5a56:	84aa                	mv	s1,a0
    5a58:	4501                	li	a0,0
    5a5a:	a01ff0ef          	jal	ra,545a <memp_malloc>
    5a5e:	842a                	mv	s0,a0
    5a60:	cd11                	beqz	a0,5a7c <raw_new+0x2a>
    5a62:	4671                	li	a2,28
    5a64:	4581                	li	a1,0
    5a66:	fbafa0ef          	jal	ra,220 <memset>
    5a6a:	f8000793          	li	a5,-128
    5a6e:	b43c                	sb	a5,11(s0)
    5a70:	90018793          	addi	a5,gp,-1792 # 20000120 <raw_pcbs>
    5a74:	4398                	lw	a4,0(a5)
    5a76:	a804                	sb	s1,16(s0)
    5a78:	c380                	sw	s0,0(a5)
    5a7a:	c458                	sw	a4,12(s0)
    5a7c:	8522                	mv	a0,s0
    5a7e:	f96fa06f          	j	214 <__riscv_restore_0>

00005a82 <tcp_new_port>:
    5a82:	9041a683          	lw	a3,-1788(gp) # 20000124 <tcp_active_pcbs>
    5a86:	91c1a603          	lw	a2,-1764(gp) # 2000013c <tcp_tw_pcbs>
    5a8a:	90c1a583          	lw	a1,-1780(gp) # 2000012c <tcp_listen_pcbs>
    5a8e:	8341d503          	lhu	a0,-1996(gp) # 20000054 <port.3018>
    5a92:	83418793          	addi	a5,gp,-1996 # 20000054 <port.3018>
    5a96:	00150713          	addi	a4,a0,1
    5a9a:	01071513          	slli	a0,a4,0x10
    5a9e:	01071813          	slli	a6,a4,0x10
    5aa2:	8141                	srli	a0,a0,0x10
    5aa4:	00085363          	bgez	a6,5aaa <tcp_new_port+0x28>
    5aa8:	6505                	lui	a0,0x1
    5aaa:	8736                	mv	a4,a3
    5aac:	e719                	bnez	a4,5aba <tcp_new_port+0x38>
    5aae:	8732                	mv	a4,a2
    5ab0:	eb19                	bnez	a4,5ac6 <tcp_new_port+0x44>
    5ab2:	872e                	mv	a4,a1
    5ab4:	ef19                	bnez	a4,5ad2 <tcp_new_port+0x50>
    5ab6:	a38a                	sh	a0,0(a5)
    5ab8:	8082                	ret
    5aba:	01c75803          	lhu	a6,28(a4)
    5abe:	fca80ce3          	beq	a6,a0,5a96 <tcp_new_port+0x14>
    5ac2:	4758                	lw	a4,12(a4)
    5ac4:	b7e5                	j	5aac <tcp_new_port+0x2a>
    5ac6:	01c75803          	lhu	a6,28(a4)
    5aca:	fca806e3          	beq	a6,a0,5a96 <tcp_new_port+0x14>
    5ace:	4758                	lw	a4,12(a4)
    5ad0:	b7c5                	j	5ab0 <tcp_new_port+0x2e>
    5ad2:	01c75803          	lhu	a6,28(a4)
    5ad6:	fca800e3          	beq	a6,a0,5a96 <tcp_new_port+0x14>
    5ada:	4758                	lw	a4,12(a4)
    5adc:	bfe1                	j	5ab4 <tcp_new_port+0x32>

00005ade <tcp_bind>:
    5ade:	491c                	lw	a5,16(a0)
    5ae0:	10079663          	bnez	a5,5bec <tcp_bind+0x10e>
    5ae4:	ef2fa2ef          	jal	t0,1d6 <__riscv_save_4>
    5ae8:	1141                	addi	sp,sp,-16
    5aea:	84aa                	mv	s1,a0
    5aec:	8432                	mv	s0,a2
    5aee:	e611                	bnez	a2,5afa <tcp_bind+0x1c>
    5af0:	c62e                	sw	a1,12(sp)
    5af2:	f91ff0ef          	jal	ra,5a82 <tcp_new_port>
    5af6:	45b2                	lw	a1,12(sp)
    5af8:	842a                	mv	s0,a0
    5afa:	90c1a703          	lw	a4,-1780(gp) # 2000012c <tcp_listen_pcbs>
    5afe:	e731                	bnez	a4,5b4a <tcp_bind+0x6c>
    5b00:	9041a703          	lw	a4,-1788(gp) # 20000124 <tcp_active_pcbs>
    5b04:	eb25                	bnez	a4,5b74 <tcp_bind+0x96>
    5b06:	9081a983          	lw	s3,-1784(gp) # 20000128 <tcp_bound_pcbs>
    5b0a:	90818913          	addi	s2,gp,-1784 # 20000128 <tcp_bound_pcbs>
    5b0e:	874e                	mv	a4,s3
    5b10:	e759                	bnez	a4,5b9e <tcp_bind+0xc0>
    5b12:	91c1a783          	lw	a5,-1764(gp) # 2000013c <tcp_tw_pcbs>
    5b16:	ebcd                	bnez	a5,5bc8 <tcp_bind+0xea>
    5b18:	c185                	beqz	a1,5b38 <tcp_bind+0x5a>
    5b1a:	3198                	lbu	a4,1(a1)
    5b1c:	219c                	lbu	a5,0(a1)
    5b1e:	0722                	slli	a4,a4,0x8
    5b20:	8f5d                	or	a4,a4,a5
    5b22:	21bc                	lbu	a5,2(a1)
    5b24:	07c2                	slli	a5,a5,0x10
    5b26:	8f5d                	or	a4,a4,a5
    5b28:	31bc                	lbu	a5,3(a1)
    5b2a:	07e2                	slli	a5,a5,0x18
    5b2c:	8fd9                	or	a5,a5,a4
    5b2e:	c789                	beqz	a5,5b38 <tcp_bind+0x5a>
    5b30:	4611                	li	a2,4
    5b32:	8526                	mv	a0,s1
    5b34:	275030ef          	jal	ra,95a8 <memcpy>
    5b38:	acc2                	sh	s0,28(s1)
    5b3a:	0134a623          	sw	s3,12(s1)
    5b3e:	00992023          	sw	s1,0(s2)
    5b42:	4501                	li	a0,0
    5b44:	0141                	addi	sp,sp,16
    5b46:	ec4fa06f          	j	20a <__riscv_restore_4>
    5b4a:	2f5e                	lhu	a5,28(a4)
    5b4c:	02879263          	bne	a5,s0,5b70 <tcp_bind+0x92>
    5b50:	4310                	lw	a2,0(a4)
    5b52:	ce59                	beqz	a2,5bf0 <tcp_bind+0x112>
    5b54:	cdd1                	beqz	a1,5bf0 <tcp_bind+0x112>
    5b56:	3194                	lbu	a3,1(a1)
    5b58:	219c                	lbu	a5,0(a1)
    5b5a:	06a2                	slli	a3,a3,0x8
    5b5c:	8edd                	or	a3,a3,a5
    5b5e:	21bc                	lbu	a5,2(a1)
    5b60:	07c2                	slli	a5,a5,0x10
    5b62:	8edd                	or	a3,a3,a5
    5b64:	31bc                	lbu	a5,3(a1)
    5b66:	07e2                	slli	a5,a5,0x18
    5b68:	8fd5                	or	a5,a5,a3
    5b6a:	c3d9                	beqz	a5,5bf0 <tcp_bind+0x112>
    5b6c:	08f60263          	beq	a2,a5,5bf0 <tcp_bind+0x112>
    5b70:	4758                	lw	a4,12(a4)
    5b72:	b771                	j	5afe <tcp_bind+0x20>
    5b74:	2f5e                	lhu	a5,28(a4)
    5b76:	02879263          	bne	a5,s0,5b9a <tcp_bind+0xbc>
    5b7a:	4310                	lw	a2,0(a4)
    5b7c:	ca35                	beqz	a2,5bf0 <tcp_bind+0x112>
    5b7e:	c9ad                	beqz	a1,5bf0 <tcp_bind+0x112>
    5b80:	3194                	lbu	a3,1(a1)
    5b82:	219c                	lbu	a5,0(a1)
    5b84:	06a2                	slli	a3,a3,0x8
    5b86:	8edd                	or	a3,a3,a5
    5b88:	21bc                	lbu	a5,2(a1)
    5b8a:	07c2                	slli	a5,a5,0x10
    5b8c:	8edd                	or	a3,a3,a5
    5b8e:	31bc                	lbu	a5,3(a1)
    5b90:	07e2                	slli	a5,a5,0x18
    5b92:	8fd5                	or	a5,a5,a3
    5b94:	cfb1                	beqz	a5,5bf0 <tcp_bind+0x112>
    5b96:	04f60d63          	beq	a2,a5,5bf0 <tcp_bind+0x112>
    5b9a:	4758                	lw	a4,12(a4)
    5b9c:	b7a5                	j	5b04 <tcp_bind+0x26>
    5b9e:	2f5e                	lhu	a5,28(a4)
    5ba0:	02879263          	bne	a5,s0,5bc4 <tcp_bind+0xe6>
    5ba4:	4310                	lw	a2,0(a4)
    5ba6:	c629                	beqz	a2,5bf0 <tcp_bind+0x112>
    5ba8:	c5a1                	beqz	a1,5bf0 <tcp_bind+0x112>
    5baa:	3194                	lbu	a3,1(a1)
    5bac:	219c                	lbu	a5,0(a1)
    5bae:	06a2                	slli	a3,a3,0x8
    5bb0:	8edd                	or	a3,a3,a5
    5bb2:	21bc                	lbu	a5,2(a1)
    5bb4:	07c2                	slli	a5,a5,0x10
    5bb6:	8edd                	or	a3,a3,a5
    5bb8:	31bc                	lbu	a5,3(a1)
    5bba:	07e2                	slli	a5,a5,0x18
    5bbc:	8fd5                	or	a5,a5,a3
    5bbe:	cb8d                	beqz	a5,5bf0 <tcp_bind+0x112>
    5bc0:	02f60863          	beq	a2,a5,5bf0 <tcp_bind+0x112>
    5bc4:	4758                	lw	a4,12(a4)
    5bc6:	b7a9                	j	5b10 <tcp_bind+0x32>
    5bc8:	2fda                	lhu	a4,28(a5)
    5bca:	00871f63          	bne	a4,s0,5be8 <tcp_bind+0x10a>
    5bce:	3194                	lbu	a3,1(a1)
    5bd0:	2198                	lbu	a4,0(a1)
    5bd2:	06a2                	slli	a3,a3,0x8
    5bd4:	8ed9                	or	a3,a3,a4
    5bd6:	21b8                	lbu	a4,2(a1)
    5bd8:	0742                	slli	a4,a4,0x10
    5bda:	8ed9                	or	a3,a3,a4
    5bdc:	31b8                	lbu	a4,3(a1)
    5bde:	0762                	slli	a4,a4,0x18
    5be0:	8f55                	or	a4,a4,a3
    5be2:	4394                	lw	a3,0(a5)
    5be4:	00e68663          	beq	a3,a4,5bf0 <tcp_bind+0x112>
    5be8:	47dc                	lw	a5,12(a5)
    5bea:	b735                	j	5b16 <tcp_bind+0x38>
    5bec:	554d                	li	a0,-13
    5bee:	8082                	ret
    5bf0:	5555                	li	a0,-11
    5bf2:	bf89                	j	5b44 <tcp_bind+0x66>

00005bf4 <tcp_update_rcv_ann_wnd>:
    5bf4:	87aa                	mv	a5,a0
    5bf6:	02c55803          	lhu	a6,44(a0) # 102c <RCC_GetClocksFreq+0x6e>
    5bfa:	5914                	lw	a3,48(a0)
    5bfc:	3bd2                	lhu	a2,52(a5)
    5bfe:	550c                	lw	a1,40(a0)
    5c00:	0407d883          	lhu	a7,64(a5)
    5c04:	40d80533          	sub	a0,a6,a3
    5c08:	8205                	srli	a2,a2,0x1
    5c0a:	952e                	add	a0,a0,a1
    5c0c:	8732                	mv	a4,a2
    5c0e:	00c8f363          	bgeu	a7,a2,5c14 <tcp_update_rcv_ann_wnd+0x20>
    5c12:	8746                	mv	a4,a7
    5c14:	0742                	slli	a4,a4,0x10
    5c16:	8341                	srli	a4,a4,0x10
    5c18:	40e50733          	sub	a4,a0,a4
    5c1c:	00074563          	bltz	a4,5c26 <tcp_update_rcv_ann_wnd+0x32>
    5c20:	03079723          	sh	a6,46(a5)
    5c24:	8082                	ret
    5c26:	40d58733          	sub	a4,a1,a3
    5c2a:	00e05663          	blez	a4,5c36 <tcp_update_rcv_ann_wnd+0x42>
    5c2e:	02079723          	sh	zero,46(a5)
    5c32:	4501                	li	a0,0
    5c34:	8082                	ret
    5c36:	8e8d                	sub	a3,a3,a1
    5c38:	b7f6                	sh	a3,46(a5)
    5c3a:	bfe5                	j	5c32 <tcp_update_rcv_ann_wnd+0x3e>

00005c3c <tcp_recved>:
    5c3c:	db4fa2ef          	jal	t0,1f0 <__riscv_save_0>
    5c40:	355e                	lhu	a5,44(a0)
    5c42:	842a                	mv	s0,a0
    5c44:	95be                	add	a1,a1,a5
    5c46:	05c2                	slli	a1,a1,0x10
    5c48:	395e                	lhu	a5,52(a0)
    5c4a:	81c1                	srli	a1,a1,0x10
    5c4c:	b54e                	sh	a1,44(a0)
    5c4e:	00b7f363          	bgeu	a5,a1,5c54 <tcp_recved+0x18>
    5c52:	b55e                	sh	a5,44(a0)
    5c54:	8522                	mv	a0,s0
    5c56:	f9fff0ef          	jal	ra,5bf4 <tcp_update_rcv_ann_wnd>
    5c5a:	385e                	lhu	a5,52(s0)
    5c5c:	8389                	srli	a5,a5,0x2
    5c5e:	00f54b63          	blt	a0,a5,5c74 <tcp_recved+0x38>
    5c62:	02644783          	lbu	a5,38(s0)
    5c66:	8522                	mv	a0,s0
    5c68:	0027e793          	ori	a5,a5,2
    5c6c:	02f40323          	sb	a5,38(s0)
    5c70:	336020ef          	jal	ra,7fa6 <tcp_output>
    5c74:	da0fa06f          	j	214 <__riscv_restore_0>

00005c78 <tcp_seg_free>:
    5c78:	d78fa2ef          	jal	t0,1f0 <__riscv_save_0>
    5c7c:	1141                	addi	sp,sp,-16
    5c7e:	4401                	li	s0,0
    5c80:	cd09                	beqz	a0,5c9a <tcp_seg_free+0x22>
    5c82:	85aa                	mv	a1,a0
    5c84:	4148                	lw	a0,4(a0)
    5c86:	4401                	li	s0,0
    5c88:	c511                	beqz	a0,5c94 <tcp_seg_free+0x1c>
    5c8a:	c62e                	sw	a1,12(sp)
    5c8c:	9c1ff0ef          	jal	ra,564c <pbuf_free>
    5c90:	45b2                	lw	a1,12(sp)
    5c92:	842a                	mv	s0,a0
    5c94:	4511                	li	a0,4
    5c96:	fe4ff0ef          	jal	ra,547a <memp_free>
    5c9a:	8522                	mv	a0,s0
    5c9c:	0141                	addi	sp,sp,16
    5c9e:	d76fa06f          	j	214 <__riscv_restore_0>

00005ca2 <tcp_segs_free>:
    5ca2:	d4efa2ef          	jal	t0,1f0 <__riscv_save_0>
    5ca6:	4401                	li	s0,0
    5ca8:	e501                	bnez	a0,5cb0 <tcp_segs_free+0xe>
    5caa:	8522                	mv	a0,s0
    5cac:	d68fa06f          	j	214 <__riscv_restore_0>
    5cb0:	4104                	lw	s1,0(a0)
    5cb2:	fc7ff0ef          	jal	ra,5c78 <tcp_seg_free>
    5cb6:	942a                	add	s0,s0,a0
    5cb8:	0ff47413          	andi	s0,s0,255
    5cbc:	8526                	mv	a0,s1
    5cbe:	b7ed                	j	5ca8 <tcp_segs_free+0x6>

00005cc0 <tcp_seg_copy>:
    5cc0:	d30fa2ef          	jal	t0,1f0 <__riscv_save_0>
    5cc4:	1141                	addi	sp,sp,-16
    5cc6:	c62a                	sw	a0,12(sp)
    5cc8:	4511                	li	a0,4
    5cca:	f90ff0ef          	jal	ra,545a <memp_malloc>
    5cce:	842a                	mv	s0,a0
    5cd0:	c901                	beqz	a0,5ce0 <tcp_seg_copy+0x20>
    5cd2:	45b2                	lw	a1,12(sp)
    5cd4:	4651                	li	a2,20
    5cd6:	0d3030ef          	jal	ra,95a8 <memcpy>
    5cda:	4048                	lw	a0,4(s0)
    5cdc:	b69ff0ef          	jal	ra,5844 <pbuf_ref>
    5ce0:	8522                	mv	a0,s0
    5ce2:	0141                	addi	sp,sp,16
    5ce4:	d30fa06f          	j	214 <__riscv_restore_0>

00005ce8 <tcp_arg>:
    5ce8:	cd0c                	sw	a1,24(a0)
    5cea:	8082                	ret

00005cec <tcp_recv>:
    5cec:	08b52823          	sw	a1,144(a0)
    5cf0:	8082                	ret

00005cf2 <tcp_sent>:
    5cf2:	08b52623          	sw	a1,140(a0)
    5cf6:	8082                	ret

00005cf8 <tcp_err>:
    5cf8:	08b52e23          	sw	a1,156(a0)
    5cfc:	8082                	ret

00005cfe <tcp_poll>:
    5cfe:	08b52c23          	sw	a1,152(a0)
    5d02:	02c50ea3          	sb	a2,61(a0)
    5d06:	8082                	ret

00005d08 <tcp_pcb_purge>:
    5d08:	491c                	lw	a5,16(a0)
    5d0a:	4705                	li	a4,1
    5d0c:	04f77463          	bgeu	a4,a5,5d54 <tcp_pcb_purge+0x4c>
    5d10:	4729                	li	a4,10
    5d12:	04e78163          	beq	a5,a4,5d54 <tcp_pcb_purge+0x4c>
    5d16:	cdafa2ef          	jal	t0,1f0 <__riscv_save_0>
    5d1a:	842a                	mv	s0,a0
    5d1c:	08852503          	lw	a0,136(a0)
    5d20:	c509                	beqz	a0,5d2a <tcp_pcb_purge+0x22>
    5d22:	92bff0ef          	jal	ra,564c <pbuf_free>
    5d26:	08042423          	sw	zero,136(s0)
    5d2a:	08442503          	lw	a0,132(s0)
    5d2e:	57fd                	li	a5,-1
    5d30:	bc7e                	sh	a5,62(s0)
    5d32:	f71ff0ef          	jal	ra,5ca2 <tcp_segs_free>
    5d36:	5c68                	lw	a0,124(s0)
    5d38:	08042223          	sw	zero,132(s0)
    5d3c:	f67ff0ef          	jal	ra,5ca2 <tcp_segs_free>
    5d40:	08042503          	lw	a0,128(s0)
    5d44:	f5fff0ef          	jal	ra,5ca2 <tcp_segs_free>
    5d48:	06042e23          	sw	zero,124(s0)
    5d4c:	08042023          	sw	zero,128(s0)
    5d50:	cc4fa06f          	j	214 <__riscv_restore_0>
    5d54:	8082                	ret

00005d56 <tcp_slowtmr>:
    5d56:	c6afa2ef          	jal	t0,1c0 <__riscv_save_12>
    5d5a:	200094b7          	lui	s1,0x20009
    5d5e:	b3c48793          	addi	a5,s1,-1220 # 20008b3c <NetInf>
    5d62:	91018713          	addi	a4,gp,-1776 # 20000130 <tcp_ticks>
    5d66:	0187cc03          	lbu	s8,24(a5)
    5d6a:	431c                	lw	a5,0(a4)
    5d6c:	6aa9                	lui	s5,0xa
    5d6e:	0785                	addi	a5,a5,1
    5d70:	9041ad03          	lw	s10,-1788(gp) # 20000124 <tcp_active_pcbs>
    5d74:	c31c                	sw	a5,0(a4)
    5d76:	06600913          	li	s2,102
    5d7a:	4a01                	li	s4,0
    5d7c:	b3c48493          	addi	s1,s1,-1220
    5d80:	91018413          	addi	s0,gp,-1776 # 20000130 <tcp_ticks>
    5d84:	90418993          	addi	s3,gp,-1788 # 20000124 <tcp_active_pcbs>
    5d88:	4c8d                	li	s9,3
    5d8a:	810a8a93          	addi	s5,s5,-2032 # 9810 <tcp_backoff>
    5d8e:	85018b13          	addi	s6,gp,-1968 # 20000070 <tcp_persist_backoff>
    5d92:	000d1a63          	bnez	s10,5da6 <tcp_slowtmr+0x50>
    5d96:	91c1a403          	lw	s0,-1764(gp) # 2000013c <tcp_tw_pcbs>
    5d9a:	91c18493          	addi	s1,gp,-1764 # 2000013c <tcp_tw_pcbs>
    5d9e:	24041963          	bnez	s0,5ff0 <tcp_slowtmr+0x29a>
    5da2:	c5afa06f          	j	1fc <__riscv_restore_12>
    5da6:	197d                	addi	s2,s2,-1
    5da8:	0ff97913          	andi	s2,s2,255
    5dac:	fe090be3          	beqz	s2,5da2 <tcp_slowtmr+0x4c>
    5db0:	052d4603          	lbu	a2,82(s10)
    5db4:	010d2683          	lw	a3,16(s10)
    5db8:	4d85                	li	s11,1
    5dba:	02cc0263          	beq	s8,a2,5dde <tcp_slowtmr+0x88>
    5dbe:	0b0d4d83          	lbu	s11,176(s10)
    5dc2:	100d8463          	beqz	s11,5eca <tcp_slowtmr+0x174>
    5dc6:	0acd2703          	lw	a4,172(s10)
    5dca:	01bb06b3          	add	a3,s6,s11
    5dce:	fff6c683          	lbu	a3,-1(a3)
    5dd2:	0705                	addi	a4,a4,1
    5dd4:	0aed2623          	sw	a4,172(s10)
    5dd8:	0cd77c63          	bgeu	a4,a3,5eb0 <tcp_slowtmr+0x15a>
    5ddc:	4d81                	li	s11,0
    5dde:	010d2703          	lw	a4,16(s10)
    5de2:	4699                	li	a3,6
    5de4:	00d71d63          	bne	a4,a3,5dfe <tcp_slowtmr+0xa8>
    5de8:	038d2603          	lw	a2,56(s10)
    5dec:	4014                	lw	a3,0(s0)
    5dee:	8e91                	sub	a3,a3,a2
    5df0:	4c90                	lw	a2,24(s1)
    5df2:	00d67663          	bgeu	a2,a3,5dfe <tcp_slowtmr+0xa8>
    5df6:	001d8793          	addi	a5,s11,1
    5dfa:	0ff7fd93          	andi	s11,a5,255
    5dfe:	008d5683          	lhu	a3,8(s10)
    5e02:	4b81                	li	s7,0
    5e04:	8aa1                	andi	a3,a3,8
    5e06:	ce95                	beqz	a3,5e42 <tcp_slowtmr+0xec>
    5e08:	4691                	li	a3,4
    5e0a:	00d70563          	beq	a4,a3,5e14 <tcp_slowtmr+0xbe>
    5e0e:	469d                	li	a3,7
    5e10:	02d71963          	bne	a4,a3,5e42 <tcp_slowtmr+0xec>
    5e14:	0a4d2883          	lw	a7,164(s10)
    5e18:	0a8d2683          	lw	a3,168(s10)
    5e1c:	0a0d2503          	lw	a0,160(s10)
    5e20:	4ccc                	lw	a1,28(s1)
    5e22:	02d886b3          	mul	a3,a7,a3
    5e26:	4010                	lw	a2,0(s0)
    5e28:	038d2703          	lw	a4,56(s10)
    5e2c:	8e19                	sub	a2,a2,a4
    5e2e:	96aa                	add	a3,a3,a0
    5e30:	02b6d6b3          	divu	a3,a3,a1
    5e34:	10c6fc63          	bgeu	a3,a2,5f4c <tcp_slowtmr+0x1f6>
    5e38:	001d8793          	addi	a5,s11,1
    5e3c:	0ff7fd93          	andi	s11,a5,255
    5e40:	4b85                	li	s7,1
    5e42:	084d2503          	lw	a0,132(s10)
    5e46:	c105                	beqz	a0,5e66 <tcp_slowtmr+0x110>
    5e48:	038d2703          	lw	a4,56(s10)
    5e4c:	4014                	lw	a3,0(s0)
    5e4e:	4619                	li	a2,6
    5e50:	8e99                	sub	a3,a3,a4
    5e52:	050d1703          	lh	a4,80(s10)
    5e56:	02c70733          	mul	a4,a4,a2
    5e5a:	00e6e663          	bltu	a3,a4,5e66 <tcp_slowtmr+0x110>
    5e5e:	e45ff0ef          	jal	ra,5ca2 <tcp_segs_free>
    5e62:	080d2223          	sw	zero,132(s10)
    5e66:	010d2703          	lw	a4,16(s10)
    5e6a:	11971463          	bne	a4,s9,5f72 <tcp_slowtmr+0x21c>
    5e6e:	038d2683          	lw	a3,56(s10)
    5e72:	4018                	lw	a4,0(s0)
    5e74:	8f15                	sub	a4,a4,a3
    5e76:	4c94                	lw	a3,24(s1)
    5e78:	10e6e863          	bltu	a3,a4,5f88 <tcp_slowtmr+0x232>
    5e7c:	100d9663          	bnez	s11,5f88 <tcp_slowtmr+0x232>
    5e80:	03cd4783          	lbu	a5,60(s10)
    5e84:	03dd4703          	lbu	a4,61(s10)
    5e88:	0785                	addi	a5,a5,1
    5e8a:	0ff7f793          	andi	a5,a5,255
    5e8e:	02fd0e23          	sb	a5,60(s10)
    5e92:	00e7eb63          	bltu	a5,a4,5ea8 <tcp_slowtmr+0x152>
    5e96:	098d2783          	lw	a5,152(s10)
    5e9a:	020d0e23          	sb	zero,60(s10)
    5e9e:	14079263          	bnez	a5,5fe2 <tcp_slowtmr+0x28c>
    5ea2:	856a                	mv	a0,s10
    5ea4:	102020ef          	jal	ra,7fa6 <tcp_output>
    5ea8:	8a6a                	mv	s4,s10
    5eaa:	00cd2d03          	lw	s10,12(s10)
    5eae:	b5d5                	j	5d92 <tcp_slowtmr+0x3c>
    5eb0:	0a0d2623          	sw	zero,172(s10)
    5eb4:	4719                	li	a4,6
    5eb6:	01b76663          	bltu	a4,s11,5ec2 <tcp_slowtmr+0x16c>
    5eba:	001d8793          	addi	a5,s11,1
    5ebe:	0afd0823          	sb	a5,176(s10)
    5ec2:	856a                	mv	a0,s10
    5ec4:	6c4020ef          	jal	ra,8588 <tcp_zero_window_probe>
    5ec8:	bf11                	j	5ddc <tcp_slowtmr+0x86>
    5eca:	03ed1703          	lh	a4,62(s10)
    5ece:	00074563          	bltz	a4,5ed8 <tcp_slowtmr+0x182>
    5ed2:	0705                	addi	a4,a4,1
    5ed4:	02ed1f23          	sh	a4,62(s10)
    5ed8:	080d2703          	lw	a4,128(s10)
    5edc:	f00700e3          	beqz	a4,5ddc <tcp_slowtmr+0x86>
    5ee0:	03ed1583          	lh	a1,62(s10)
    5ee4:	050d1703          	lh	a4,80(s10)
    5ee8:	eeb75ae3          	bge	a4,a1,5ddc <tcp_slowtmr+0x86>
    5eec:	02dcf463          	bgeu	s9,a3,5f14 <tcp_slowtmr+0x1be>
    5ef0:	04cd1703          	lh	a4,76(s10)
    5ef4:	04ed1683          	lh	a3,78(s10)
    5ef8:	47b1                	li	a5,12
    5efa:	870d                	srai	a4,a4,0x3
    5efc:	9736                	add	a4,a4,a3
    5efe:	0ff67693          	andi	a3,a2,255
    5f02:	00c7f363          	bgeu	a5,a2,5f08 <tcp_slowtmr+0x1b2>
    5f06:	46b1                	li	a3,12
    5f08:	96d6                	add	a3,a3,s5
    5f0a:	2294                	lbu	a3,0(a3)
    5f0c:	00d71733          	sll	a4,a4,a3
    5f10:	04ed1823          	sh	a4,80(s10)
    5f14:	05ad5683          	lhu	a3,90(s10)
    5f18:	064d5703          	lhu	a4,100(s10)
    5f1c:	020d1f23          	sh	zero,62(s10)
    5f20:	00e6f363          	bgeu	a3,a4,5f26 <tcp_slowtmr+0x1d0>
    5f24:	8736                	mv	a4,a3
    5f26:	0742                	slli	a4,a4,0x10
    5f28:	8341                	srli	a4,a4,0x10
    5f2a:	040d5683          	lhu	a3,64(s10)
    5f2e:	8305                	srli	a4,a4,0x1
    5f30:	04ed1e23          	sh	a4,92(s10)
    5f34:	00d77663          	bgeu	a4,a3,5f40 <tcp_slowtmr+0x1ea>
    5f38:	00169713          	slli	a4,a3,0x1
    5f3c:	04ed1e23          	sh	a4,92(s10)
    5f40:	04dd1d23          	sh	a3,90(s10)
    5f44:	856a                	mv	a0,s10
    5f46:	4d0020ef          	jal	ra,8416 <tcp_rexmit_rto>
    5f4a:	bd51                	j	5dde <tcp_slowtmr+0x88>
    5f4c:	0b1d4703          	lbu	a4,177(s10)
    5f50:	4b81                	li	s7,0
    5f52:	03170733          	mul	a4,a4,a7
    5f56:	972a                	add	a4,a4,a0
    5f58:	02b75733          	divu	a4,a4,a1
    5f5c:	eec773e3          	bgeu	a4,a2,5e42 <tcp_slowtmr+0xec>
    5f60:	856a                	mv	a0,s10
    5f62:	5c8020ef          	jal	ra,852a <tcp_keepalive>
    5f66:	0b1d4703          	lbu	a4,177(s10)
    5f6a:	0705                	addi	a4,a4,1
    5f6c:	0aed08a3          	sb	a4,177(s10)
    5f70:	bdc9                	j	5e42 <tcp_slowtmr+0xec>
    5f72:	46a5                	li	a3,9
    5f74:	f0d714e3          	bne	a4,a3,5e7c <tcp_slowtmr+0x126>
    5f78:	038d2703          	lw	a4,56(s10)
    5f7c:	4014                	lw	a3,0(s0)
    5f7e:	8e99                	sub	a3,a3,a4
    5f80:	4c98                	lw	a4,24(s1)
    5f82:	0706                	slli	a4,a4,0x1
    5f84:	eed77ce3          	bgeu	a4,a3,5e7c <tcp_slowtmr+0x126>
    5f88:	856a                	mv	a0,s10
    5f8a:	f7efd0ef          	jal	ra,3708 <LwipRemoveTcpPcb>
    5f8e:	856a                	mv	a0,s10
    5f90:	d79ff0ef          	jal	ra,5d08 <tcp_pcb_purge>
    5f94:	00cd2783          	lw	a5,12(s10)
    5f98:	040a0263          	beqz	s4,5fdc <tcp_slowtmr+0x286>
    5f9c:	00fa2623          	sw	a5,12(s4)
    5fa0:	09cd2783          	lw	a5,156(s10)
    5fa4:	c789                	beqz	a5,5fae <tcp_slowtmr+0x258>
    5fa6:	018d2503          	lw	a0,24(s10)
    5faa:	55ed                	li	a1,-5
    5fac:	9782                	jalr	a5
    5fae:	000b8f63          	beqz	s7,5fcc <tcp_slowtmr+0x276>
    5fb2:	024d5783          	lhu	a5,36(s10)
    5fb6:	01cd5703          	lhu	a4,28(s10)
    5fba:	028d2583          	lw	a1,40(s10)
    5fbe:	060d2503          	lw	a0,96(s10)
    5fc2:	004d0693          	addi	a3,s10,4
    5fc6:	866a                	mv	a2,s10
    5fc8:	346020ef          	jal	ra,830e <tcp_rst>
    5fcc:	00cd2b83          	lw	s7,12(s10)
    5fd0:	85ea                	mv	a1,s10
    5fd2:	4509                	li	a0,2
    5fd4:	ca6ff0ef          	jal	ra,547a <memp_free>
    5fd8:	8d5e                	mv	s10,s7
    5fda:	bb65                	j	5d92 <tcp_slowtmr+0x3c>
    5fdc:	00f9a023          	sw	a5,0(s3)
    5fe0:	b7c1                	j	5fa0 <tcp_slowtmr+0x24a>
    5fe2:	018d2503          	lw	a0,24(s10)
    5fe6:	85ea                	mv	a1,s10
    5fe8:	9782                	jalr	a5
    5fea:	ea050ce3          	beqz	a0,5ea2 <tcp_slowtmr+0x14c>
    5fee:	bd6d                	j	5ea8 <tcp_slowtmr+0x152>
    5ff0:	8522                	mv	a0,s0
    5ff2:	f16fd0ef          	jal	ra,3708 <LwipRemoveTcpPcb>
    5ff6:	8522                	mv	a0,s0
    5ff8:	d11ff0ef          	jal	ra,5d08 <tcp_pcb_purge>
    5ffc:	00c42903          	lw	s2,12(s0)
    6000:	85a2                	mv	a1,s0
    6002:	4509                	li	a0,2
    6004:	0124a023          	sw	s2,0(s1)
    6008:	844a                	mv	s0,s2
    600a:	c70ff0ef          	jal	ra,547a <memp_free>
    600e:	bb41                	j	5d9e <tcp_slowtmr+0x48>

00006010 <tcp_pcb_remove>:
    6010:	9e0fa2ef          	jal	t0,1f0 <__riscv_save_0>
    6014:	411c                	lw	a5,0(a0)
    6016:	842e                	mv	s0,a1
    6018:	04b79063          	bne	a5,a1,6058 <tcp_pcb_remove+0x48>
    601c:	45dc                	lw	a5,12(a1)
    601e:	c11c                	sw	a5,0(a0)
    6020:	00042623          	sw	zero,12(s0)
    6024:	8522                	mv	a0,s0
    6026:	ce3ff0ef          	jal	ra,5d08 <tcp_pcb_purge>
    602a:	481c                	lw	a5,16(s0)
    602c:	4729                	li	a4,10
    602e:	02e78163          	beq	a5,a4,6050 <tcp_pcb_remove+0x40>
    6032:	4705                	li	a4,1
    6034:	00e78e63          	beq	a5,a4,6050 <tcp_pcb_remove+0x40>
    6038:	02644783          	lbu	a5,38(s0)
    603c:	0017f713          	andi	a4,a5,1
    6040:	cb01                	beqz	a4,6050 <tcp_pcb_remove+0x40>
    6042:	0027e793          	ori	a5,a5,2
    6046:	02f40323          	sb	a5,38(s0)
    604a:	8522                	mv	a0,s0
    604c:	75b010ef          	jal	ra,7fa6 <tcp_output>
    6050:	00042823          	sw	zero,16(s0)
    6054:	9c0fa06f          	j	214 <__riscv_restore_0>
    6058:	90f1ac23          	sw	a5,-1768(gp) # 20000138 <tcp_tmp_pcb>
    605c:	4681                	li	a3,0
    605e:	91818713          	addi	a4,gp,-1768 # 20000138 <tcp_tmp_pcb>
    6062:	e789                	bnez	a5,606c <tcp_pcb_remove+0x5c>
    6064:	ded5                	beqz	a3,6020 <tcp_pcb_remove+0x10>
    6066:	00072023          	sw	zero,0(a4)
    606a:	bf5d                	j	6020 <tcp_pcb_remove+0x10>
    606c:	47d0                	lw	a2,12(a5)
    606e:	00861763          	bne	a2,s0,607c <tcp_pcb_remove+0x6c>
    6072:	c291                	beqz	a3,6076 <tcp_pcb_remove+0x66>
    6074:	c31c                	sw	a5,0(a4)
    6076:	4458                	lw	a4,12(s0)
    6078:	c7d8                	sw	a4,12(a5)
    607a:	b75d                	j	6020 <tcp_pcb_remove+0x10>
    607c:	4685                	li	a3,1
    607e:	87b2                	mv	a5,a2
    6080:	b7cd                	j	6062 <tcp_pcb_remove+0x52>

00006082 <tcp_close>:
    6082:	491c                	lw	a5,16(a0)
    6084:	471d                	li	a4,7
    6086:	0af76563          	bltu	a4,a5,6130 <tcp_close+0xae>
    608a:	966fa2ef          	jal	t0,1f0 <__riscv_save_0>
    608e:	6725                	lui	a4,0x9
    6090:	078a                	slli	a5,a5,0x2
    6092:	7f070713          	addi	a4,a4,2032 # 97f0 <ErrTable+0x10>
    6096:	97ba                	add	a5,a5,a4
    6098:	439c                	lw	a5,0(a5)
    609a:	842a                	mv	s0,a0
    609c:	8782                	jr	a5
    609e:	e6afd0ef          	jal	ra,3708 <LwipRemoveTcpPcb>
    60a2:	90818713          	addi	a4,gp,-1784 # 20000128 <tcp_bound_pcbs>
    60a6:	431c                	lw	a5,0(a4)
    60a8:	00879963          	bne	a5,s0,60ba <tcp_close+0x38>
    60ac:	445c                	lw	a5,12(s0)
    60ae:	c31c                	sw	a5,0(a4)
    60b0:	00042623          	sw	zero,12(s0)
    60b4:	85a2                	mv	a1,s0
    60b6:	4509                	li	a0,2
    60b8:	a83d                	j	60f6 <tcp_close+0x74>
    60ba:	90f1ac23          	sw	a5,-1768(gp) # 20000138 <tcp_tmp_pcb>
    60be:	4681                	li	a3,0
    60c0:	91818713          	addi	a4,gp,-1768 # 20000138 <tcp_tmp_pcb>
    60c4:	e789                	bnez	a5,60ce <tcp_close+0x4c>
    60c6:	d6ed                	beqz	a3,60b0 <tcp_close+0x2e>
    60c8:	00072023          	sw	zero,0(a4)
    60cc:	b7d5                	j	60b0 <tcp_close+0x2e>
    60ce:	47d0                	lw	a2,12(a5)
    60d0:	00861763          	bne	a2,s0,60de <tcp_close+0x5c>
    60d4:	c291                	beqz	a3,60d8 <tcp_close+0x56>
    60d6:	c31c                	sw	a5,0(a4)
    60d8:	4458                	lw	a4,12(s0)
    60da:	c7d8                	sw	a4,12(a5)
    60dc:	bfd1                	j	60b0 <tcp_close+0x2e>
    60de:	4685                	li	a3,1
    60e0:	87b2                	mv	a5,a2
    60e2:	b7cd                	j	60c4 <tcp_close+0x42>
    60e4:	e24fd0ef          	jal	ra,3708 <LwipRemoveTcpPcb>
    60e8:	85a2                	mv	a1,s0
    60ea:	90c18513          	addi	a0,gp,-1780 # 2000012c <tcp_listen_pcbs>
    60ee:	f23ff0ef          	jal	ra,6010 <tcp_pcb_remove>
    60f2:	85a2                	mv	a1,s0
    60f4:	450d                	li	a0,3
    60f6:	b84ff0ef          	jal	ra,547a <memp_free>
    60fa:	4501                	li	a0,0
    60fc:	a831                	j	6118 <tcp_close+0x96>
    60fe:	e0afd0ef          	jal	ra,3708 <LwipRemoveTcpPcb>
    6102:	85a2                	mv	a1,s0
    6104:	90418513          	addi	a0,gp,-1788 # 20000124 <tcp_active_pcbs>
    6108:	f09ff0ef          	jal	ra,6010 <tcp_pcb_remove>
    610c:	b765                	j	60b4 <tcp_close+0x32>
    610e:	4585                	li	a1,1
    6110:	5e1010ef          	jal	ra,7ef0 <tcp_send_ctrl>
    6114:	4795                	li	a5,5
    6116:	c901                	beqz	a0,6126 <tcp_close+0xa4>
    6118:	8fcfa06f          	j	214 <__riscv_restore_0>
    611c:	4585                	li	a1,1
    611e:	5d3010ef          	jal	ra,7ef0 <tcp_send_ctrl>
    6122:	f97d                	bnez	a0,6118 <tcp_close+0x96>
    6124:	47a5                	li	a5,9
    6126:	c81c                	sw	a5,16(s0)
    6128:	8522                	mv	a0,s0
    612a:	67d010ef          	jal	ra,7fa6 <tcp_output>
    612e:	b7f1                	j	60fa <tcp_close+0x78>
    6130:	4501                	li	a0,0
    6132:	8082                	ret

00006134 <tcp_recv_null>:
    6134:	8bcfa2ef          	jal	t0,1f0 <__riscv_save_0>
    6138:	1141                	addi	sp,sp,-16
    613a:	852e                	mv	a0,a1
    613c:	ce11                	beqz	a2,6158 <tcp_recv_null+0x24>
    613e:	260e                	lhu	a1,8(a2)
    6140:	c632                	sw	a2,12(sp)
    6142:	afbff0ef          	jal	ra,5c3c <tcp_recved>
    6146:	4632                	lw	a2,12(sp)
    6148:	8532                	mv	a0,a2
    614a:	d02ff0ef          	jal	ra,564c <pbuf_free>
    614e:	4781                	li	a5,0
    6150:	853e                	mv	a0,a5
    6152:	0141                	addi	sp,sp,16
    6154:	8c0fa06f          	j	214 <__riscv_restore_0>
    6158:	4781                	li	a5,0
    615a:	fafd                	bnez	a3,6150 <tcp_recv_null+0x1c>
    615c:	f27ff0ef          	jal	ra,6082 <tcp_close>
    6160:	87aa                	mv	a5,a0
    6162:	b7fd                	j	6150 <tcp_recv_null+0x1c>

00006164 <tcp_fasttmr>:
    6164:	88cfa2ef          	jal	t0,1f0 <__riscv_save_0>
    6168:	9041a403          	lw	s0,-1788(gp) # 20000124 <tcp_active_pcbs>
    616c:	06500493          	li	s1,101
    6170:	e019                	bnez	s0,6176 <tcp_fasttmr+0x12>
    6172:	8a2fa06f          	j	214 <__riscv_restore_0>
    6176:	08842603          	lw	a2,136(s0)
    617a:	ca19                	beqz	a2,6190 <tcp_fasttmr+0x2c>
    617c:	09042783          	lw	a5,144(s0)
    6180:	4681                	li	a3,0
    6182:	85a2                	mv	a1,s0
    6184:	cf8d                	beqz	a5,61be <tcp_fasttmr+0x5a>
    6186:	4c08                	lw	a0,24(s0)
    6188:	9782                	jalr	a5
    618a:	e119                	bnez	a0,6190 <tcp_fasttmr+0x2c>
    618c:	08042423          	sw	zero,136(s0)
    6190:	14fd                	addi	s1,s1,-1
    6192:	0ff4f493          	andi	s1,s1,255
    6196:	dcf1                	beqz	s1,6172 <tcp_fasttmr+0xe>
    6198:	02644783          	lbu	a5,38(s0)
    619c:	0017f713          	andi	a4,a5,1
    61a0:	cf09                	beqz	a4,61ba <tcp_fasttmr+0x56>
    61a2:	0027e793          	ori	a5,a5,2
    61a6:	02f40323          	sb	a5,38(s0)
    61aa:	8522                	mv	a0,s0
    61ac:	5fb010ef          	jal	ra,7fa6 <tcp_output>
    61b0:	02644783          	lbu	a5,38(s0)
    61b4:	9bf1                	andi	a5,a5,-4
    61b6:	02f40323          	sb	a5,38(s0)
    61ba:	4440                	lw	s0,12(s0)
    61bc:	bf55                	j	6170 <tcp_fasttmr+0xc>
    61be:	4501                	li	a0,0
    61c0:	f75ff0ef          	jal	ra,6134 <tcp_recv_null>
    61c4:	b7d9                	j	618a <tcp_fasttmr+0x26>

000061c6 <tcp_tmr>:
    61c6:	82afa2ef          	jal	t0,1f0 <__riscv_save_0>
    61ca:	f9bff0ef          	jal	ra,6164 <tcp_fasttmr>
    61ce:	91418713          	addi	a4,gp,-1772 # 20000134 <tcp_timer>
    61d2:	231c                	lbu	a5,0(a4)
    61d4:	0785                	addi	a5,a5,1
    61d6:	0ff7f793          	andi	a5,a5,255
    61da:	a31c                	sb	a5,0(a4)
    61dc:	8b85                	andi	a5,a5,1
    61de:	c399                	beqz	a5,61e4 <tcp_tmr+0x1e>
    61e0:	b77ff0ef          	jal	ra,5d56 <tcp_slowtmr>
    61e4:	830fa06f          	j	214 <__riscv_restore_0>

000061e8 <tcp_fastsendack>:
    61e8:	808fa2ef          	jal	t0,1f0 <__riscv_save_0>
    61ec:	9041a403          	lw	s0,-1788(gp) # 20000124 <tcp_active_pcbs>
    61f0:	06500493          	li	s1,101
    61f4:	4901                	li	s2,0
    61f6:	e401                	bnez	s0,61fe <tcp_fastsendack+0x16>
    61f8:	854a                	mv	a0,s2
    61fa:	81afa06f          	j	214 <__riscv_restore_0>
    61fe:	08842603          	lw	a2,136(s0)
    6202:	ca19                	beqz	a2,6218 <tcp_fastsendack+0x30>
    6204:	09042783          	lw	a5,144(s0)
    6208:	4681                	li	a3,0
    620a:	85a2                	mv	a1,s0
    620c:	c7b1                	beqz	a5,6258 <tcp_fastsendack+0x70>
    620e:	4c08                	lw	a0,24(s0)
    6210:	9782                	jalr	a5
    6212:	e119                	bnez	a0,6218 <tcp_fastsendack+0x30>
    6214:	08042423          	sw	zero,136(s0)
    6218:	14fd                	addi	s1,s1,-1
    621a:	0ff4f493          	andi	s1,s1,255
    621e:	dce9                	beqz	s1,61f8 <tcp_fastsendack+0x10>
    6220:	02744783          	lbu	a5,39(s0)
    6224:	cb85                	beqz	a5,6254 <tcp_fastsendack+0x6c>
    6226:	02644703          	lbu	a4,38(s0)
    622a:	00177693          	andi	a3,a4,1
    622e:	c29d                	beqz	a3,6254 <tcp_fastsendack+0x6c>
    6230:	17fd                	addi	a5,a5,-1
    6232:	0ff7f793          	andi	a5,a5,255
    6236:	02f403a3          	sb	a5,39(s0)
    623a:	e39d                	bnez	a5,6260 <tcp_fastsendack+0x78>
    623c:	00276713          	ori	a4,a4,2
    6240:	02e40323          	sb	a4,38(s0)
    6244:	8522                	mv	a0,s0
    6246:	561010ef          	jal	ra,7fa6 <tcp_output>
    624a:	02644783          	lbu	a5,38(s0)
    624e:	9bf1                	andi	a5,a5,-4
    6250:	02f40323          	sb	a5,38(s0)
    6254:	4440                	lw	s0,12(s0)
    6256:	b745                	j	61f6 <tcp_fastsendack+0xe>
    6258:	4501                	li	a0,0
    625a:	edbff0ef          	jal	ra,6134 <tcp_recv_null>
    625e:	bf55                	j	6212 <tcp_fastsendack+0x2a>
    6260:	0905                	addi	s2,s2,1
    6262:	bfcd                	j	6254 <tcp_fastsendack+0x6c>

00006264 <tcp_abandon>:
    6264:	f65f92ef          	jal	t0,1c8 <__riscv_save_10>
    6268:	4918                	lw	a4,16(a0)
    626a:	47a9                	li	a5,10
    626c:	1141                	addi	sp,sp,-16
    626e:	842a                	mv	s0,a0
    6270:	00f71e63          	bne	a4,a5,628c <tcp_abandon+0x28>
    6274:	85aa                	mv	a1,a0
    6276:	91c18513          	addi	a0,gp,-1764 # 2000013c <tcp_tw_pcbs>
    627a:	d97ff0ef          	jal	ra,6010 <tcp_pcb_remove>
    627e:	85a2                	mv	a1,s0
    6280:	4509                	li	a0,2
    6282:	9f8ff0ef          	jal	ra,547a <memp_free>
    6286:	0141                	addi	sp,sp,16
    6288:	f79f906f          	j	200 <__riscv_restore_10>
    628c:	411c                	lw	a5,0(a0)
    628e:	8b2e                	mv	s6,a1
    6290:	06052903          	lw	s2,96(a0)
    6294:	c63e                	sw	a5,12(sp)
    6296:	415c                	lw	a5,4(a0)
    6298:	02852983          	lw	s3,40(a0)
    629c:	01c55a03          	lhu	s4,28(a0)
    62a0:	c43e                	sw	a5,8(sp)
    62a2:	02455a83          	lhu	s5,36(a0)
    62a6:	09c52483          	lw	s1,156(a0)
    62aa:	01852b83          	lw	s7,24(a0)
    62ae:	c5afd0ef          	jal	ra,3708 <LwipRemoveTcpPcb>
    62b2:	90418513          	addi	a0,gp,-1788 # 20000124 <tcp_active_pcbs>
    62b6:	85a2                	mv	a1,s0
    62b8:	d59ff0ef          	jal	ra,6010 <tcp_pcb_remove>
    62bc:	08042503          	lw	a0,128(s0)
    62c0:	c119                	beqz	a0,62c6 <tcp_abandon+0x62>
    62c2:	9e1ff0ef          	jal	ra,5ca2 <tcp_segs_free>
    62c6:	5c68                	lw	a0,124(s0)
    62c8:	c119                	beqz	a0,62ce <tcp_abandon+0x6a>
    62ca:	9d9ff0ef          	jal	ra,5ca2 <tcp_segs_free>
    62ce:	08442503          	lw	a0,132(s0)
    62d2:	c119                	beqz	a0,62d8 <tcp_abandon+0x74>
    62d4:	9cfff0ef          	jal	ra,5ca2 <tcp_segs_free>
    62d8:	85a2                	mv	a1,s0
    62da:	4509                	li	a0,2
    62dc:	99eff0ef          	jal	ra,547a <memp_free>
    62e0:	c481                	beqz	s1,62e8 <tcp_abandon+0x84>
    62e2:	55ed                	li	a1,-5
    62e4:	855e                	mv	a0,s7
    62e6:	9482                	jalr	s1
    62e8:	f80b0fe3          	beqz	s6,6286 <tcp_abandon+0x22>
    62ec:	87d6                	mv	a5,s5
    62ee:	8752                	mv	a4,s4
    62f0:	0034                	addi	a3,sp,8
    62f2:	0070                	addi	a2,sp,12
    62f4:	85ce                	mv	a1,s3
    62f6:	854a                	mv	a0,s2
    62f8:	016020ef          	jal	ra,830e <tcp_rst>
    62fc:	b769                	j	6286 <tcp_abandon+0x22>

000062fe <tcp_next_iss>:
    62fe:	83018793          	addi	a5,gp,-2000 # 20000050 <iss.3186>
    6302:	4388                	lw	a0,0(a5)
    6304:	9101a703          	lw	a4,-1776(gp) # 20000130 <tcp_ticks>
    6308:	953a                	add	a0,a0,a4
    630a:	c388                	sw	a0,0(a5)
    630c:	8082                	ret

0000630e <tcp_alloc>:
    630e:	ec9f92ef          	jal	t0,1d6 <__riscv_save_4>
    6312:	892a                	mv	s2,a0
    6314:	4509                	li	a0,2
    6316:	944ff0ef          	jal	ra,545a <memp_malloc>
    631a:	200094b7          	lui	s1,0x20009
    631e:	b8048493          	addi	s1,s1,-1152 # 20008b80 <WCHCfg>
    6322:	842a                	mv	s0,a0
    6324:	e125                	bnez	a0,6384 <tcp_alloc+0x76>
    6326:	489c                	lw	a5,16(s1)
    6328:	8389                	srli	a5,a5,0x2
    632a:	8b85                	andi	a5,a5,1
    632c:	e789                	bnez	a5,6336 <tcp_alloc+0x28>
    632e:	4401                	li	s0,0
    6330:	8522                	mv	a0,s0
    6332:	ed9f906f          	j	20a <__riscv_restore_4>
    6336:	91c1a783          	lw	a5,-1764(gp) # 2000013c <tcp_tw_pcbs>
    633a:	9101a603          	lw	a2,-1776(gp) # 20000130 <tcp_ticks>
    633e:	4501                	li	a0,0
    6340:	4681                	li	a3,0
    6342:	91018993          	addi	s3,gp,-1776 # 20000130 <tcp_ticks>
    6346:	e7f1                	bnez	a5,6412 <tcp_alloc+0x104>
    6348:	c501                	beqz	a0,6350 <tcp_alloc+0x42>
    634a:	4585                	li	a1,1
    634c:	f19ff0ef          	jal	ra,6264 <tcp_abandon>
    6350:	4509                	li	a0,2
    6352:	908ff0ef          	jal	ra,545a <memp_malloc>
    6356:	842a                	mv	s0,a0
    6358:	e515                	bnez	a0,6384 <tcp_alloc+0x76>
    635a:	9041a783          	lw	a5,-1788(gp) # 20000124 <tcp_active_pcbs>
    635e:	0009a503          	lw	a0,0(s3)
    6362:	197d                	addi	s2,s2,-1
    6364:	0ff97913          	andi	s2,s2,255
    6368:	07f00613          	li	a2,127
    636c:	4581                	li	a1,0
    636e:	ebdd                	bnez	a5,6424 <tcp_alloc+0x116>
    6370:	c409                	beqz	s0,637a <tcp_alloc+0x6c>
    6372:	4585                	li	a1,1
    6374:	8522                	mv	a0,s0
    6376:	eefff0ef          	jal	ra,6264 <tcp_abandon>
    637a:	4509                	li	a0,2
    637c:	8deff0ef          	jal	ra,545a <memp_malloc>
    6380:	842a                	mv	s0,a0
    6382:	d555                	beqz	a0,632e <tcp_alloc+0x20>
    6384:	0b400613          	li	a2,180
    6388:	4581                	li	a1,0
    638a:	8522                	mv	a0,s0
    638c:	e95f90ef          	jal	ra,220 <memset>
    6390:	04000793          	li	a5,64
    6394:	a85c                	sb	a5,20(s0)
    6396:	449c                	lw	a5,8(s1)
    6398:	06041c23          	sh	zero,120(s0)
    639c:	21800713          	li	a4,536
    63a0:	06f41b23          	sh	a5,118(s0)
    63a4:	385e                	lhu	a5,52(s0)
    63a6:	b45e                	sh	a5,44(s0)
    63a8:	b47e                	sh	a5,46(s0)
    63aa:	77e1                	lui	a5,0xffff8
    63ac:	a43e                	sh	a5,10(s0)
    63ae:	40dc                	lw	a5,4(s1)
    63b0:	00f77463          	bgeu	a4,a5,63b8 <tcp_alloc+0xaa>
    63b4:	21800793          	li	a5,536
    63b8:	04f41023          	sh	a5,64(s0)
    63bc:	67c1                	lui	a5,0x10
    63be:	577d                	li	a4,-1
    63c0:	c47c                	sw	a5,76(s0)
    63c2:	4785                	li	a5,1
    63c4:	04f41823          	sh	a5,80(s0)
    63c8:	bc7a                	sh	a4,62(s0)
    63ca:	04f41d23          	sh	a5,90(s0)
    63ce:	f31ff0ef          	jal	ra,62fe <tcp_next_iss>
    63d2:	9101a783          	lw	a5,-1776(gp) # 20000130 <tcp_ticks>
    63d6:	d468                	sw	a0,108(s0)
    63d8:	d028                	sw	a0,96(s0)
    63da:	dc1c                	sw	a5,56(s0)
    63dc:	000067b7          	lui	a5,0x6
    63e0:	13478793          	addi	a5,a5,308 # 6134 <tcp_recv_null>
    63e4:	08f42823          	sw	a5,144(s0)
    63e8:	200097b7          	lui	a5,0x20009
    63ec:	b307a703          	lw	a4,-1232(a5) # 20008b30 <KeepLiveCfg>
    63f0:	b3078793          	addi	a5,a5,-1232
    63f4:	c868                	sw	a0,84(s0)
    63f6:	0ae42023          	sw	a4,160(s0)
    63fa:	43d8                	lw	a4,4(a5)
    63fc:	479c                	lw	a5,8(a5)
    63fe:	d828                	sw	a0,112(s0)
    6400:	02040e23          	sb	zero,60(s0)
    6404:	0ae42223          	sw	a4,164(s0)
    6408:	0af42423          	sw	a5,168(s0)
    640c:	0a0408a3          	sb	zero,177(s0)
    6410:	b705                	j	6330 <tcp_alloc+0x22>
    6412:	5f98                	lw	a4,56(a5)
    6414:	40e60733          	sub	a4,a2,a4
    6418:	00d76463          	bltu	a4,a3,6420 <tcp_alloc+0x112>
    641c:	86ba                	mv	a3,a4
    641e:	853e                	mv	a0,a5
    6420:	47dc                	lw	a5,12(a5)
    6422:	b715                	j	6346 <tcp_alloc+0x38>
    6424:	2bd4                	lbu	a3,20(a5)
    6426:	00d96c63          	bltu	s2,a3,643e <tcp_alloc+0x130>
    642a:	00d66a63          	bltu	a2,a3,643e <tcp_alloc+0x130>
    642e:	5f98                	lw	a4,56(a5)
    6430:	40e50733          	sub	a4,a0,a4
    6434:	00b76563          	bltu	a4,a1,643e <tcp_alloc+0x130>
    6438:	8636                	mv	a2,a3
    643a:	85ba                	mv	a1,a4
    643c:	843e                	mv	s0,a5
    643e:	47dc                	lw	a5,12(a5)
    6440:	b73d                	j	636e <tcp_alloc+0x60>

00006442 <tcp_new>:
    6442:	daff92ef          	jal	t0,1f0 <__riscv_save_0>
    6446:	04000513          	li	a0,64
    644a:	ec5ff0ef          	jal	ra,630e <tcp_alloc>
    644e:	dc7f906f          	j	214 <__riscv_restore_0>

00006452 <tcp_eff_send_mss>:
    6452:	d9ff92ef          	jal	t0,1f0 <__riscv_save_0>
    6456:	842a                	mv	s0,a0
    6458:	852e                	mv	a0,a1
    645a:	e57fd0ef          	jal	ra,42b0 <ip_route>
    645e:	cd11                	beqz	a0,647a <tcp_eff_send_mss+0x28>
    6460:	391e                	lhu	a5,48(a0)
    6462:	cf81                	beqz	a5,647a <tcp_eff_send_mss+0x28>
    6464:	fd878793          	addi	a5,a5,-40
    6468:	873e                	mv	a4,a5
    646a:	07c2                	slli	a5,a5,0x10
    646c:	83c1                	srli	a5,a5,0x10
    646e:	00f47363          	bgeu	s0,a5,6474 <tcp_eff_send_mss+0x22>
    6472:	8722                	mv	a4,s0
    6474:	01071413          	slli	s0,a4,0x10
    6478:	8041                	srli	s0,s0,0x10
    647a:	8522                	mv	a0,s0
    647c:	d99f906f          	j	214 <__riscv_restore_0>

00006480 <tcp_connect>:
    6480:	d57f92ef          	jal	t0,1d6 <__riscv_save_4>
    6484:	4918                	lw	a4,16(a0)
    6486:	54cd                	li	s1,-13
    6488:	eb45                	bnez	a4,6538 <tcp_connect+0xb8>
    648a:	89ae                	mv	s3,a1
    648c:	54dd                	li	s1,-9
    648e:	c5cd                	beqz	a1,6538 <tcp_connect+0xb8>
    6490:	842a                	mv	s0,a0
    6492:	84b2                	mv	s1,a2
    6494:	0511                	addi	a0,a0,4
    6496:	4611                	li	a2,4
    6498:	8936                	mv	s2,a3
    649a:	10e030ef          	jal	ra,95a8 <memcpy>
    649e:	2c5e                	lhu	a5,28(s0)
    64a0:	b046                	sh	s1,36(s0)
    64a2:	e781                	bnez	a5,64aa <tcp_connect+0x2a>
    64a4:	ddeff0ef          	jal	ra,5a82 <tcp_new_port>
    64a8:	ac4a                	sh	a0,28(s0)
    64aa:	e55ff0ef          	jal	ra,62fe <tcp_next_iss>
    64ae:	385e                	lhu	a5,52(s0)
    64b0:	d028                	sw	a0,96(s0)
    64b2:	157d                	addi	a0,a0,-1
    64b4:	b45e                	sh	a5,44(s0)
    64b6:	b47e                	sh	a5,46(s0)
    64b8:	06f41223          	sh	a5,100(s0)
    64bc:	200097b7          	lui	a5,0x20009
    64c0:	c868                	sw	a0,84(s0)
    64c2:	d828                	sw	a0,112(s0)
    64c4:	b847a503          	lw	a0,-1148(a5) # 20008b84 <WCHCfg+0x4>
    64c8:	02042423          	sw	zero,40(s0)
    64cc:	02042823          	sw	zero,48(s0)
    64d0:	21800793          	li	a5,536
    64d4:	00a7f463          	bgeu	a5,a0,64dc <tcp_connect+0x5c>
    64d8:	21800513          	li	a0,536
    64dc:	0542                	slli	a0,a0,0x10
    64de:	8141                	srli	a0,a0,0x10
    64e0:	04a41023          	sh	a0,64(s0)
    64e4:	85ce                	mv	a1,s3
    64e6:	f6dff0ef          	jal	ra,6452 <tcp_eff_send_mss>
    64ea:	4785                	li	a5,1
    64ec:	04f41d23          	sh	a5,90(s0)
    64f0:	47a9                	li	a5,10
    64f2:	04a41023          	sh	a0,64(s0)
    64f6:	02f50533          	mul	a0,a0,a5
    64fa:	4789                	li	a5,2
    64fc:	90818713          	addi	a4,gp,-1784 # 20000128 <tcp_bound_pcbs>
    6500:	c81c                	sw	a5,16(s0)
    6502:	431c                	lw	a5,0(a4)
    6504:	09242a23          	sw	s2,148(s0)
    6508:	04a41e23          	sh	a0,92(s0)
    650c:	02879963          	bne	a5,s0,653e <tcp_connect+0xbe>
    6510:	445c                	lw	a5,12(s0)
    6512:	c31c                	sw	a5,0(a4)
    6514:	90418793          	addi	a5,gp,-1788 # 20000124 <tcp_active_pcbs>
    6518:	4398                	lw	a4,0(a5)
    651a:	4689                	li	a3,2
    651c:	c380                	sw	s0,0(a5)
    651e:	c458                	sw	a4,12(s0)
    6520:	4785                	li	a5,1
    6522:	4701                	li	a4,0
    6524:	4601                	li	a2,0
    6526:	4581                	li	a1,0
    6528:	8522                	mv	a0,s0
    652a:	57e010ef          	jal	ra,7aa8 <tcp_enqueue>
    652e:	84aa                	mv	s1,a0
    6530:	e501                	bnez	a0,6538 <tcp_connect+0xb8>
    6532:	8522                	mv	a0,s0
    6534:	273010ef          	jal	ra,7fa6 <tcp_output>
    6538:	8526                	mv	a0,s1
    653a:	cd1f906f          	j	20a <__riscv_restore_4>
    653e:	90f1ac23          	sw	a5,-1768(gp) # 20000138 <tcp_tmp_pcb>
    6542:	4681                	li	a3,0
    6544:	91818713          	addi	a4,gp,-1768 # 20000138 <tcp_tmp_pcb>
    6548:	e789                	bnez	a5,6552 <tcp_connect+0xd2>
    654a:	d6e9                	beqz	a3,6514 <tcp_connect+0x94>
    654c:	00072023          	sw	zero,0(a4)
    6550:	b7d1                	j	6514 <tcp_connect+0x94>
    6552:	47d0                	lw	a2,12(a5)
    6554:	00861763          	bne	a2,s0,6562 <tcp_connect+0xe2>
    6558:	c291                	beqz	a3,655c <tcp_connect+0xdc>
    655a:	c31c                	sw	a5,0(a4)
    655c:	4458                	lw	a4,12(s0)
    655e:	c7d8                	sw	a4,12(a5)
    6560:	bf55                	j	6514 <tcp_connect+0x94>
    6562:	4685                	li	a3,1
    6564:	87b2                	mv	a5,a2
    6566:	b7cd                	j	6548 <tcp_connect+0xc8>

00006568 <RemoveTimeWaiTCP>:
    6568:	c89f92ef          	jal	t0,1f0 <__riscv_save_0>
    656c:	91c1a403          	lw	s0,-1764(gp) # 2000013c <tcp_tw_pcbs>
    6570:	91c18493          	addi	s1,gp,-1764 # 2000013c <tcp_tw_pcbs>
    6574:	e019                	bnez	s0,657a <RemoveTimeWaiTCP+0x12>
    6576:	c9ff906f          	j	214 <__riscv_restore_0>
    657a:	8522                	mv	a0,s0
    657c:	98cfd0ef          	jal	ra,3708 <LwipRemoveTcpPcb>
    6580:	8522                	mv	a0,s0
    6582:	f86ff0ef          	jal	ra,5d08 <tcp_pcb_purge>
    6586:	00c42903          	lw	s2,12(s0)
    658a:	85a2                	mv	a1,s0
    658c:	4509                	li	a0,2
    658e:	0124a023          	sw	s2,0(s1)
    6592:	844a                	mv	s0,s2
    6594:	ee7fe0ef          	jal	ra,547a <memp_free>
    6598:	bff1                	j	6574 <RemoveTimeWaiTCP+0xc>

0000659a <tcp_oos_insert_segment>:
    659a:	c3df92ef          	jal	t0,1d6 <__riscv_save_4>
    659e:	491c                	lw	a5,16(a0)
    65a0:	84aa                	mv	s1,a0
    65a2:	8a2e                	mv	s4,a1
    65a4:	27c8                	lbu	a0,12(a5)
    65a6:	37dc                	lbu	a5,13(a5)
    65a8:	07a2                	slli	a5,a5,0x8
    65aa:	8d5d                	or	a0,a0,a5
    65ac:	cc7fd0ef          	jal	ra,4272 <ntohs>
    65b0:	8905                	andi	a0,a0,1
    65b2:	e929                	bnez	a0,6604 <tcp_oos_insert_segment+0x6a>
    65b4:	6941                	lui	s2,0x10
    65b6:	fc090913          	addi	s2,s2,-64 # ffc0 <_data_lma+0x6778>
    65ba:	010a2703          	lw	a4,16(s4)
    65be:	9341a603          	lw	a2,-1740(gp) # 20000154 <seqno>
    65c2:	24de                	lhu	a5,12(s1)
    65c4:	3354                	lbu	a3,5(a4)
    65c6:	234c                	lbu	a1,4(a4)
    65c8:	97b2                	add	a5,a5,a2
    65ca:	06a2                	slli	a3,a3,0x8
    65cc:	8dd5                	or	a1,a1,a3
    65ce:	2374                	lbu	a3,6(a4)
    65d0:	06c2                	slli	a3,a3,0x10
    65d2:	8ecd                	or	a3,a3,a1
    65d4:	336c                	lbu	a1,7(a4)
    65d6:	05e2                	slli	a1,a1,0x18
    65d8:	8dd5                	or	a1,a1,a3
    65da:	00ca5683          	lhu	a3,12(s4)
    65de:	96ae                	add	a3,a3,a1
    65e0:	40d786b3          	sub	a3,a5,a3
    65e4:	0206d563          	bgez	a3,660e <tcp_oos_insert_segment+0x74>
    65e8:	8f8d                	sub	a5,a5,a1
    65ea:	00f05963          	blez	a5,65fc <tcp_oos_insert_segment+0x62>
    65ee:	8d91                	sub	a1,a1,a2
    65f0:	05c2                	slli	a1,a1,0x10
    65f2:	40c8                	lw	a0,4(s1)
    65f4:	81c1                	srli	a1,a1,0x10
    65f6:	a4ce                	sh	a1,12(s1)
    65f8:	9e2ff0ef          	jal	ra,57da <pbuf_realloc>
    65fc:	0144a023          	sw	s4,0(s1)
    6600:	c0bf906f          	j	20a <__riscv_restore_4>
    6604:	8552                	mv	a0,s4
    6606:	e9cff0ef          	jal	ra,5ca2 <tcp_segs_free>
    660a:	4a01                	li	s4,0
    660c:	bfc5                	j	65fc <tcp_oos_insert_segment+0x62>
    660e:	375c                	lbu	a5,13(a4)
    6610:	2748                	lbu	a0,12(a4)
    6612:	07a2                	slli	a5,a5,0x8
    6614:	8d5d                	or	a0,a0,a5
    6616:	c5dfd0ef          	jal	ra,4272 <ntohs>
    661a:	8905                	andi	a0,a0,1
    661c:	cd15                	beqz	a0,6658 <tcp_oos_insert_segment+0xbe>
    661e:	489c                	lw	a5,16(s1)
    6620:	37c0                	lbu	s0,13(a5)
    6622:	27c8                	lbu	a0,12(a5)
    6624:	0422                	slli	s0,s0,0x8
    6626:	8c49                	or	s0,s0,a0
    6628:	854a                	mv	a0,s2
    662a:	c3bfd0ef          	jal	ra,4264 <htons>
    662e:	489c                	lw	a5,16(s1)
    6630:	8c69                	and	s0,s0,a0
    6632:	27c8                	lbu	a0,12(a5)
    6634:	37dc                	lbu	a5,13(a5)
    6636:	07a2                	slli	a5,a5,0x8
    6638:	8d5d                	or	a0,a0,a5
    663a:	c39fd0ef          	jal	ra,4272 <ntohs>
    663e:	03e57513          	andi	a0,a0,62
    6642:	00156513          	ori	a0,a0,1
    6646:	c1ffd0ef          	jal	ra,4264 <htons>
    664a:	489c                	lw	a5,16(s1)
    664c:	8d41                	or	a0,a0,s0
    664e:	0542                	slli	a0,a0,0x10
    6650:	8141                	srli	a0,a0,0x10
    6652:	a7c8                	sb	a0,12(a5)
    6654:	8121                	srli	a0,a0,0x8
    6656:	b7c8                	sb	a0,13(a5)
    6658:	000a2403          	lw	s0,0(s4)
    665c:	8552                	mv	a0,s4
    665e:	e1aff0ef          	jal	ra,5c78 <tcp_seg_free>
    6662:	d445                	beqz	s0,660a <tcp_oos_insert_segment+0x70>
    6664:	8a22                	mv	s4,s0
    6666:	bf91                	j	65ba <tcp_oos_insert_segment+0x20>

00006668 <tcp_receive>:
    6668:	b61f92ef          	jal	t0,1c8 <__riscv_save_10>
    666c:	9241c783          	lbu	a5,-1756(gp) # 20000144 <flags>
    6670:	842a                	mv	s0,a0
    6672:	8bc1                	andi	a5,a5,16
    6674:	93418913          	addi	s2,gp,-1740 # 20000154 <seqno>
    6678:	c7f1                	beqz	a5,6744 <tcp_receive+0xdc>
    667a:	00092583          	lw	a1,0(s2)
    667e:	5538                	lw	a4,104(a0)
    6680:	06455683          	lhu	a3,100(a0)
    6684:	5570                	lw	a2,108(a0)
    6686:	40b70533          	sub	a0,a4,a1
    668a:	9201a783          	lw	a5,-1760(gp) # 20000140 <ackno>
    668e:	92018493          	addi	s1,gp,-1760 # 20000140 <ackno>
    6692:	02054463          	bltz	a0,66ba <tcp_receive+0x52>
    6696:	00b71663          	bne	a4,a1,66a2 <tcp_receive+0x3a>
    669a:	40f60733          	sub	a4,a2,a5
    669e:	00074e63          	bltz	a4,66ba <tcp_receive+0x52>
    66a2:	02f61e63          	bne	a2,a5,66de <tcp_receive+0x76>
    66a6:	93c1a503          	lw	a0,-1732(gp) # 2000015c <tcphdr>
    66aa:	3578                	lbu	a4,15(a0)
    66ac:	00e54803          	lbu	a6,14(a0)
    66b0:	0722                	slli	a4,a4,0x8
    66b2:	01076733          	or	a4,a4,a6
    66b6:	02e6f463          	bgeu	a3,a4,66de <tcp_receive+0x76>
    66ba:	93c1a503          	lw	a0,-1732(gp) # 2000015c <tcphdr>
    66be:	3578                	lbu	a4,15(a0)
    66c0:	00e54803          	lbu	a6,14(a0)
    66c4:	d42c                	sw	a1,104(s0)
    66c6:	0722                	slli	a4,a4,0x8
    66c8:	01076733          	or	a4,a4,a6
    66cc:	06e41223          	sh	a4,100(s0)
    66d0:	d47c                	sw	a5,108(s0)
    66d2:	c711                	beqz	a4,66de <tcp_receive+0x76>
    66d4:	0b044703          	lbu	a4,176(s0)
    66d8:	c319                	beqz	a4,66de <tcp_receive+0x76>
    66da:	0a040823          	sb	zero,176(s0)
    66de:	486c                	lw	a1,84(s0)
    66e0:	40b78733          	sub	a4,a5,a1
    66e4:	2ae04263          	bgtz	a4,6988 <tcp_receive+0x320>
    66e8:	9401d703          	lhu	a4,-1728(gp) # 20000160 <tcplen>
    66ec:	06041a23          	sh	zero,116(s0)
    66f0:	28071963          	bnez	a4,6982 <tcp_receive+0x31a>
    66f4:	06445703          	lhu	a4,100(s0)
    66f8:	5468                	lw	a0,108(s0)
    66fa:	96b2                	add	a3,a3,a2
    66fc:	972a                	add	a4,a4,a0
    66fe:	28d71263          	bne	a4,a3,6982 <tcp_receive+0x31a>
    6702:	03e41703          	lh	a4,62(s0)
    6706:	26074e63          	bltz	a4,6982 <tcp_receive+0x31a>
    670a:	26f59c63          	bne	a1,a5,6982 <tcp_receive+0x31a>
    670e:	05844783          	lbu	a5,88(s0)
    6712:	470d                	li	a4,3
    6714:	0785                	addi	a5,a5,1
    6716:	0ff7f793          	andi	a5,a5,255
    671a:	04f40c23          	sb	a5,88(s0)
    671e:	24f77c63          	bgeu	a4,a5,6976 <tcp_receive+0x30e>
    6722:	05a45703          	lhu	a4,90(s0)
    6726:	04045783          	lhu	a5,64(s0)
    672a:	97ba                	add	a5,a5,a4
    672c:	07c2                	slli	a5,a5,0x10
    672e:	83c1                	srli	a5,a5,0x10
    6730:	00f77463          	bgeu	a4,a5,6738 <tcp_receive+0xd0>
    6734:	04f41d23          	sh	a5,90(s0)
    6738:	5c7c                	lw	a5,124(s0)
    673a:	36079f63          	bnez	a5,6ab8 <tcp_receive+0x450>
    673e:	4070                	lw	a2,68(s0)
    6740:	40061a63          	bnez	a2,6b54 <tcp_receive+0x4ec>
    6744:	9401d603          	lhu	a2,-1728(gp) # 20000160 <tcplen>
    6748:	00092783          	lw	a5,0(s2)
    674c:	5414                	lw	a3,40(s0)
    674e:	94018a13          	addi	s4,gp,-1728 # 20000160 <tcplen>
    6752:	7e060663          	beqz	a2,6f3e <tcp_receive+0x8d6>
    6756:	40f685b3          	sub	a1,a3,a5
    675a:	fff58713          	addi	a4,a1,-1
    675e:	46074b63          	bltz	a4,6bd4 <tcp_receive+0x56c>
    6762:	4705                	li	a4,1
    6764:	8f1d                	sub	a4,a4,a5
    6766:	8f11                	sub	a4,a4,a2
    6768:	9736                	add	a4,a4,a3
    676a:	46e04563          	bgtz	a4,6bd4 <tcp_receive+0x56c>
    676e:	200099b7          	lui	s3,0x20009
    6772:	c0498793          	addi	a5,s3,-1020 # 20008c04 <inseg>
    6776:	43c4                	lw	s1,4(a5)
    6778:	01059713          	slli	a4,a1,0x10
    677c:	8341                	srli	a4,a4,0x10
    677e:	24be                	lhu	a5,10(s1)
    6780:	c0498993          	addi	s3,s3,-1020
    6784:	44b7d363          	bge	a5,a1,6bca <tcp_receive+0x562>
    6788:	249e                	lhu	a5,8(s1)
    678a:	8f99                	sub	a5,a5,a4
    678c:	07c2                	slli	a5,a5,0x10
    678e:	83c1                	srli	a5,a5,0x10
    6790:	24ba                	lhu	a4,10(s1)
    6792:	42b74663          	blt	a4,a1,6bbe <tcp_receive+0x556>
    6796:	40b005b3          	neg	a1,a1
    679a:	05c2                	slli	a1,a1,0x10
    679c:	85c1                	srai	a1,a1,0x10
    679e:	8526                	mv	a0,s1
    67a0:	e3ffe0ef          	jal	ra,55de <pbuf_header>
    67a4:	40dc                	lw	a5,4(s1)
    67a6:	00c9d683          	lhu	a3,12(s3)
    67aa:	00092703          	lw	a4,0(s2)
    67ae:	00f9a423          	sw	a5,8(s3)
    67b2:	541c                	lw	a5,40(s0)
    67b4:	9736                	add	a4,a4,a3
    67b6:	8f1d                	sub	a4,a4,a5
    67b8:	00e99623          	sh	a4,12(s3)
    67bc:	0109a703          	lw	a4,16(s3)
    67c0:	0087d693          	srli	a3,a5,0x8
    67c4:	00f92023          	sw	a5,0(s2)
    67c8:	a35c                	sb	a5,4(a4)
    67ca:	b354                	sb	a3,5(a4)
    67cc:	0107d693          	srli	a3,a5,0x10
    67d0:	83e1                	srli	a5,a5,0x18
    67d2:	a374                	sb	a3,6(a4)
    67d4:	b37c                	sb	a5,7(a4)
    67d6:	00092683          	lw	a3,0(s2)
    67da:	5418                	lw	a4,40(s0)
    67dc:	40e687b3          	sub	a5,a3,a4
    67e0:	7407cb63          	bltz	a5,6f36 <tcp_receive+0x8ce>
    67e4:	3452                	lhu	a2,44(s0)
    67e6:	00168793          	addi	a5,a3,1
    67ea:	8f99                	sub	a5,a5,a4
    67ec:	8f91                	sub	a5,a5,a2
    67ee:	74f04463          	bgtz	a5,6f36 <tcp_receive+0x8ce>
    67f2:	5ce69063          	bne	a3,a4,6db2 <tcp_receive+0x74a>
    67f6:	200094b7          	lui	s1,0x20009
    67fa:	c0448793          	addi	a5,s1,-1020 # 20008c04 <inseg>
    67fe:	00c7d983          	lhu	s3,12(a5)
    6802:	4b9c                	lw	a5,16(a5)
    6804:	c0448493          	addi	s1,s1,-1020
    6808:	27c8                	lbu	a0,12(a5)
    680a:	37dc                	lbu	a5,13(a5)
    680c:	07a2                	slli	a5,a5,0x8
    680e:	8d5d                	or	a0,a0,a5
    6810:	a63fd0ef          	jal	ra,4272 <ntohs>
    6814:	890d                	andi	a0,a0,3
    6816:	00a03533          	snez	a0,a0
    681a:	954e                	add	a0,a0,s3
    681c:	0542                	slli	a0,a0,0x10
    681e:	345e                	lhu	a5,44(s0)
    6820:	8141                	srli	a0,a0,0x10
    6822:	00aa1023          	sh	a0,0(s4)
    6826:	08a7fd63          	bgeu	a5,a0,68c0 <tcp_receive+0x258>
    682a:	489c                	lw	a5,16(s1)
    682c:	27c8                	lbu	a0,12(a5)
    682e:	37dc                	lbu	a5,13(a5)
    6830:	07a2                	slli	a5,a5,0x8
    6832:	8d5d                	or	a0,a0,a5
    6834:	a3ffd0ef          	jal	ra,4272 <ntohs>
    6838:	8905                	andi	a0,a0,1
    683a:	c131                	beqz	a0,687e <tcp_receive+0x216>
    683c:	489c                	lw	a5,16(s1)
    683e:	00d7c983          	lbu	s3,13(a5)
    6842:	27c8                	lbu	a0,12(a5)
    6844:	09a2                	slli	s3,s3,0x8
    6846:	00a9e9b3          	or	s3,s3,a0
    684a:	6541                	lui	a0,0x10
    684c:	fc050513          	addi	a0,a0,-64 # ffc0 <_data_lma+0x6778>
    6850:	a15fd0ef          	jal	ra,4264 <htons>
    6854:	489c                	lw	a5,16(s1)
    6856:	00a9f9b3          	and	s3,s3,a0
    685a:	27c8                	lbu	a0,12(a5)
    685c:	37dc                	lbu	a5,13(a5)
    685e:	07a2                	slli	a5,a5,0x8
    6860:	8d5d                	or	a0,a0,a5
    6862:	a11fd0ef          	jal	ra,4272 <ntohs>
    6866:	03e57513          	andi	a0,a0,62
    686a:	9fbfd0ef          	jal	ra,4264 <htons>
    686e:	489c                	lw	a5,16(s1)
    6870:	00a9e533          	or	a0,s3,a0
    6874:	0542                	slli	a0,a0,0x10
    6876:	8141                	srli	a0,a0,0x10
    6878:	a7c8                	sb	a0,12(a5)
    687a:	8121                	srli	a0,a0,0x8
    687c:	b7c8                	sb	a0,13(a5)
    687e:	345e                	lhu	a5,44(s0)
    6880:	a4de                	sh	a5,12(s1)
    6882:	489c                	lw	a5,16(s1)
    6884:	27c8                	lbu	a0,12(a5)
    6886:	37dc                	lbu	a5,13(a5)
    6888:	07a2                	slli	a5,a5,0x8
    688a:	8d5d                	or	a0,a0,a5
    688c:	9e7fd0ef          	jal	ra,4272 <ntohs>
    6890:	8909                	andi	a0,a0,2
    6892:	c501                	beqz	a0,689a <tcp_receive+0x232>
    6894:	24de                	lhu	a5,12(s1)
    6896:	17fd                	addi	a5,a5,-1
    6898:	a4de                	sh	a5,12(s1)
    689a:	24ce                	lhu	a1,12(s1)
    689c:	40c8                	lw	a0,4(s1)
    689e:	f3dfe0ef          	jal	ra,57da <pbuf_realloc>
    68a2:	489c                	lw	a5,16(s1)
    68a4:	00c4d983          	lhu	s3,12(s1)
    68a8:	27c8                	lbu	a0,12(a5)
    68aa:	37dc                	lbu	a5,13(a5)
    68ac:	07a2                	slli	a5,a5,0x8
    68ae:	8d5d                	or	a0,a0,a5
    68b0:	9c3fd0ef          	jal	ra,4272 <ntohs>
    68b4:	890d                	andi	a0,a0,3
    68b6:	00a03533          	snez	a0,a0
    68ba:	99aa                	add	s3,s3,a0
    68bc:	013a1023          	sh	s3,0(s4)
    68c0:	08442783          	lw	a5,132(s0)
    68c4:	32078d63          	beqz	a5,6bfe <tcp_receive+0x596>
    68c8:	489c                	lw	a5,16(s1)
    68ca:	27c8                	lbu	a0,12(a5)
    68cc:	37dc                	lbu	a5,13(a5)
    68ce:	07a2                	slli	a5,a5,0x8
    68d0:	8d5d                	or	a0,a0,a5
    68d2:	9a1fd0ef          	jal	ra,4272 <ntohs>
    68d6:	8905                	andi	a0,a0,1
    68d8:	32051063          	bnez	a0,6bf8 <tcp_receive+0x590>
    68dc:	08442a83          	lw	s5,132(s0)
    68e0:	6b41                	lui	s6,0x10
    68e2:	fc0b0b13          	addi	s6,s6,-64 # ffc0 <_data_lma+0x6778>
    68e6:	00092503          	lw	a0,0(s2)
    68ea:	000a5703          	lhu	a4,0(s4)
    68ee:	972a                	add	a4,a4,a0
    68f0:	080a8063          	beqz	s5,6970 <tcp_receive+0x308>
    68f4:	010aa603          	lw	a2,16(s5)
    68f8:	324c                	lbu	a1,5(a2)
    68fa:	2254                	lbu	a3,4(a2)
    68fc:	05a2                	slli	a1,a1,0x8
    68fe:	8dd5                	or	a1,a1,a3
    6900:	2274                	lbu	a3,6(a2)
    6902:	06c2                	slli	a3,a3,0x10
    6904:	8dd5                	or	a1,a1,a3
    6906:	3274                	lbu	a3,7(a2)
    6908:	06e2                	slli	a3,a3,0x18
    690a:	8ecd                	or	a3,a3,a1
    690c:	00cad583          	lhu	a1,12(s5)
    6910:	95b6                	add	a1,a1,a3
    6912:	40b705b3          	sub	a1,a4,a1
    6916:	3205d963          	bgez	a1,6c48 <tcp_receive+0x5e0>
    691a:	8f15                	sub	a4,a4,a3
    691c:	04e05a63          	blez	a4,6970 <tcp_receive+0x308>
    6920:	08442783          	lw	a5,132(s0)
    6924:	4b98                	lw	a4,16(a5)
    6926:	335c                	lbu	a5,5(a4)
    6928:	2354                	lbu	a3,4(a4)
    692a:	07a2                	slli	a5,a5,0x8
    692c:	8fd5                	or	a5,a5,a3
    692e:	8f89                	sub	a5,a5,a0
    6930:	a4de                	sh	a5,12(s1)
    6932:	489c                	lw	a5,16(s1)
    6934:	27c8                	lbu	a0,12(a5)
    6936:	37dc                	lbu	a5,13(a5)
    6938:	07a2                	slli	a5,a5,0x8
    693a:	8d5d                	or	a0,a0,a5
    693c:	937fd0ef          	jal	ra,4272 <ntohs>
    6940:	8909                	andi	a0,a0,2
    6942:	c501                	beqz	a0,694a <tcp_receive+0x2e2>
    6944:	24de                	lhu	a5,12(s1)
    6946:	17fd                	addi	a5,a5,-1
    6948:	a4de                	sh	a5,12(s1)
    694a:	24ce                	lhu	a1,12(s1)
    694c:	40c8                	lw	a0,4(s1)
    694e:	e8dfe0ef          	jal	ra,57da <pbuf_realloc>
    6952:	489c                	lw	a5,16(s1)
    6954:	00c4d983          	lhu	s3,12(s1)
    6958:	27c8                	lbu	a0,12(a5)
    695a:	37dc                	lbu	a5,13(a5)
    695c:	07a2                	slli	a5,a5,0x8
    695e:	8d5d                	or	a0,a0,a5
    6960:	913fd0ef          	jal	ra,4272 <ntohs>
    6964:	890d                	andi	a0,a0,3
    6966:	00a03533          	snez	a0,a0
    696a:	99aa                	add	s3,s3,a0
    696c:	013a1023          	sh	s3,0(s4)
    6970:	09542223          	sw	s5,132(s0)
    6974:	a469                	j	6bfe <tcp_receive+0x596>
    6976:	dce791e3          	bne	a5,a4,6738 <tcp_receive+0xd0>
    697a:	8522                	mv	a0,s0
    697c:	34d010ef          	jal	ra,84c8 <tcp_rexmit_fast>
    6980:	bb65                	j	6738 <tcp_receive+0xd0>
    6982:	04040c23          	sb	zero,88(s0)
    6986:	bb4d                	j	6738 <tcp_receive+0xd0>
    6988:	5034                	lw	a3,96(s0)
    698a:	40d786b3          	sub	a3,a5,a3
    698e:	12d04263          	bgtz	a3,6ab2 <tcp_receive+0x44a>
    6992:	02644683          	lbu	a3,38(s0)
    6996:	0046f613          	andi	a2,a3,4
    699a:	ca01                	beqz	a2,69aa <tcp_receive+0x342>
    699c:	9aed                	andi	a3,a3,-5
    699e:	02d40323          	sb	a3,38(s0)
    69a2:	05c45683          	lhu	a3,92(s0)
    69a6:	04d41d23          	sh	a3,90(s0)
    69aa:	04c41683          	lh	a3,76(s0)
    69ae:	04e45603          	lhu	a2,78(s0)
    69b2:	0742                	slli	a4,a4,0x10
    69b4:	868d                	srai	a3,a3,0x3
    69b6:	96b2                	add	a3,a3,a2
    69b8:	04d41823          	sh	a3,80(s0)
    69bc:	07645683          	lhu	a3,118(s0)
    69c0:	8341                	srli	a4,a4,0x10
    69c2:	06e41a23          	sh	a4,116(s0)
    69c6:	9736                	add	a4,a4,a3
    69c8:	06e41b23          	sh	a4,118(s0)
    69cc:	4818                	lw	a4,16(s0)
    69ce:	c87c                	sw	a5,84(s0)
    69d0:	04040923          	sb	zero,82(s0)
    69d4:	04040c23          	sb	zero,88(s0)
    69d8:	478d                	li	a5,3
    69da:	02e7f163          	bgeu	a5,a4,69fc <tcp_receive+0x394>
    69de:	05a45703          	lhu	a4,90(s0)
    69e2:	05c45683          	lhu	a3,92(s0)
    69e6:	04045783          	lhu	a5,64(s0)
    69ea:	02d77663          	bgeu	a4,a3,6a16 <tcp_receive+0x3ae>
    69ee:	97ba                	add	a5,a5,a4
    69f0:	07c2                	slli	a5,a5,0x10
    69f2:	83c1                	srli	a5,a5,0x10
    69f4:	00f77463          	bgeu	a4,a5,69fc <tcp_receive+0x394>
    69f8:	04f41d23          	sh	a5,90(s0)
    69fc:	08042783          	lw	a5,128(s0)
    6a00:	e385                	bnez	a5,6a20 <tcp_receive+0x3b8>
    6a02:	08042783          	lw	a5,128(s0)
    6a06:	02040e23          	sb	zero,60(s0)
    6a0a:	0017b793          	seqz	a5,a5
    6a0e:	40f007b3          	neg	a5,a5
    6a12:	bc7e                	sh	a5,62(s0)
    6a14:	b315                	j	6738 <tcp_receive+0xd0>
    6a16:	02f787b3          	mul	a5,a5,a5
    6a1a:	02e7c7b3          	div	a5,a5,a4
    6a1e:	bfc1                	j	69ee <tcp_receive+0x386>
    6a20:	4b98                	lw	a4,16(a5)
    6a22:	3348                	lbu	a0,5(a4)
    6a24:	235c                	lbu	a5,4(a4)
    6a26:	0522                	slli	a0,a0,0x8
    6a28:	8d5d                	or	a0,a0,a5
    6a2a:	237c                	lbu	a5,6(a4)
    6a2c:	07c2                	slli	a5,a5,0x10
    6a2e:	8fc9                	or	a5,a5,a0
    6a30:	3368                	lbu	a0,7(a4)
    6a32:	0562                	slli	a0,a0,0x18
    6a34:	8d5d                	or	a0,a0,a5
    6a36:	86ffd0ef          	jal	ra,42a4 <ntohl>
    6a3a:	08042783          	lw	a5,128(s0)
    6a3e:	89aa                	mv	s3,a0
    6a40:	00c7da03          	lhu	s4,12(a5)
    6a44:	4b9c                	lw	a5,16(a5)
    6a46:	27c8                	lbu	a0,12(a5)
    6a48:	37dc                	lbu	a5,13(a5)
    6a4a:	07a2                	slli	a5,a5,0x8
    6a4c:	8d5d                	or	a0,a0,a5
    6a4e:	825fd0ef          	jal	ra,4272 <ntohs>
    6a52:	409c                	lw	a5,0(s1)
    6a54:	890d                	andi	a0,a0,3
    6a56:	00a03533          	snez	a0,a0
    6a5a:	9552                	add	a0,a0,s4
    6a5c:	40f989b3          	sub	s3,s3,a5
    6a60:	954e                	add	a0,a0,s3
    6a62:	faa040e3          	bgtz	a0,6a02 <tcp_receive+0x39a>
    6a66:	08042983          	lw	s3,128(s0)
    6a6a:	0009a783          	lw	a5,0(s3)
    6a6e:	08f42023          	sw	a5,128(s0)
    6a72:	07445783          	lhu	a5,116(s0)
    6a76:	c385                	beqz	a5,6a96 <tcp_receive+0x42e>
    6a78:	0109a783          	lw	a5,16(s3)
    6a7c:	27c8                	lbu	a0,12(a5)
    6a7e:	37dc                	lbu	a5,13(a5)
    6a80:	07a2                	slli	a5,a5,0x8
    6a82:	8d5d                	or	a0,a0,a5
    6a84:	feefd0ef          	jal	ra,4272 <ntohs>
    6a88:	8905                	andi	a0,a0,1
    6a8a:	c511                	beqz	a0,6a96 <tcp_receive+0x42e>
    6a8c:	07445783          	lhu	a5,116(s0)
    6a90:	17fd                	addi	a5,a5,-1
    6a92:	06f41a23          	sh	a5,116(s0)
    6a96:	0049a503          	lw	a0,4(s3)
    6a9a:	d99fe0ef          	jal	ra,5832 <pbuf_clen>
    6a9e:	07845783          	lhu	a5,120(s0)
    6aa2:	40a78533          	sub	a0,a5,a0
    6aa6:	06a41c23          	sh	a0,120(s0)
    6aaa:	854e                	mv	a0,s3
    6aac:	9ccff0ef          	jal	ra,5c78 <tcp_seg_free>
    6ab0:	b7b1                	j	69fc <tcp_receive+0x394>
    6ab2:	06041a23          	sh	zero,116(s0)
    6ab6:	b149                	j	6738 <tcp_receive+0xd0>
    6ab8:	4b98                	lw	a4,16(a5)
    6aba:	0004a983          	lw	s3,0(s1)
    6abe:	3348                	lbu	a0,5(a4)
    6ac0:	235c                	lbu	a5,4(a4)
    6ac2:	0522                	slli	a0,a0,0x8
    6ac4:	8d5d                	or	a0,a0,a5
    6ac6:	237c                	lbu	a5,6(a4)
    6ac8:	07c2                	slli	a5,a5,0x10
    6aca:	8fc9                	or	a5,a5,a0
    6acc:	3368                	lbu	a0,7(a4)
    6ace:	0562                	slli	a0,a0,0x18
    6ad0:	8d5d                	or	a0,a0,a5
    6ad2:	fd2fd0ef          	jal	ra,42a4 <ntohl>
    6ad6:	5c7c                	lw	a5,124(s0)
    6ad8:	8aaa                	mv	s5,a0
    6ada:	415989b3          	sub	s3,s3,s5
    6ade:	00c7da03          	lhu	s4,12(a5)
    6ae2:	4b9c                	lw	a5,16(a5)
    6ae4:	27c8                	lbu	a0,12(a5)
    6ae6:	37dc                	lbu	a5,13(a5)
    6ae8:	07a2                	slli	a5,a5,0x8
    6aea:	8d5d                	or	a0,a0,a5
    6aec:	f86fd0ef          	jal	ra,4272 <ntohs>
    6af0:	890d                	andi	a0,a0,3
    6af2:	00a03533          	snez	a0,a0
    6af6:	9552                	add	a0,a0,s4
    6af8:	40a989b3          	sub	s3,s3,a0
    6afc:	c409c1e3          	bltz	s3,673e <tcp_receive+0xd6>
    6b00:	409c                	lw	a5,0(s1)
    6b02:	5038                	lw	a4,96(s0)
    6b04:	8f99                	sub	a5,a5,a4
    6b06:	c2f04ce3          	bgtz	a5,673e <tcp_receive+0xd6>
    6b0a:	07c42983          	lw	s3,124(s0)
    6b0e:	0009a783          	lw	a5,0(s3)
    6b12:	dc7c                	sw	a5,124(s0)
    6b14:	07445783          	lhu	a5,116(s0)
    6b18:	c385                	beqz	a5,6b38 <tcp_receive+0x4d0>
    6b1a:	0109a783          	lw	a5,16(s3)
    6b1e:	27c8                	lbu	a0,12(a5)
    6b20:	37dc                	lbu	a5,13(a5)
    6b22:	07a2                	slli	a5,a5,0x8
    6b24:	8d5d                	or	a0,a0,a5
    6b26:	f4cfd0ef          	jal	ra,4272 <ntohs>
    6b2a:	8905                	andi	a0,a0,1
    6b2c:	c511                	beqz	a0,6b38 <tcp_receive+0x4d0>
    6b2e:	07445783          	lhu	a5,116(s0)
    6b32:	17fd                	addi	a5,a5,-1
    6b34:	06f41a23          	sh	a5,116(s0)
    6b38:	0049a503          	lw	a0,4(s3)
    6b3c:	cf7fe0ef          	jal	ra,5832 <pbuf_clen>
    6b40:	07845783          	lhu	a5,120(s0)
    6b44:	40a78533          	sub	a0,a5,a0
    6b48:	06a41c23          	sh	a0,120(s0)
    6b4c:	854e                	mv	a0,s3
    6b4e:	92aff0ef          	jal	ra,5c78 <tcp_seg_free>
    6b52:	b6dd                	j	6738 <tcp_receive+0xd0>
    6b54:	443c                	lw	a5,72(s0)
    6b56:	4098                	lw	a4,0(s1)
    6b58:	8f99                	sub	a5,a5,a4
    6b5a:	be07d5e3          	bgez	a5,6744 <tcp_receive+0xdc>
    6b5e:	04c41683          	lh	a3,76(s0)
    6b62:	9101d703          	lhu	a4,-1776(gp) # 20000130 <tcp_ticks>
    6b66:	0642                	slli	a2,a2,0x10
    6b68:	4036d593          	srai	a1,a3,0x3
    6b6c:	8241                	srli	a2,a2,0x10
    6b6e:	05c2                	slli	a1,a1,0x10
    6b70:	81c1                	srli	a1,a1,0x10
    6b72:	40c707b3          	sub	a5,a4,a2
    6b76:	8f8d                	sub	a5,a5,a1
    6b78:	07c2                	slli	a5,a5,0x10
    6b7a:	83c1                	srli	a5,a5,0x10
    6b7c:	01079513          	slli	a0,a5,0x10
    6b80:	97b6                	add	a5,a5,a3
    6b82:	07c2                	slli	a5,a5,0x10
    6b84:	87c1                	srai	a5,a5,0x10
    6b86:	8541                	srai	a0,a0,0x10
    6b88:	04f41623          	sh	a5,76(s0)
    6b8c:	00055763          	bgez	a0,6b9a <tcp_receive+0x532>
    6b90:	8e19                	sub	a2,a2,a4
    6b92:	962e                	add	a2,a2,a1
    6b94:	01061513          	slli	a0,a2,0x10
    6b98:	8541                	srai	a0,a0,0x10
    6b9a:	04e41683          	lh	a3,78(s0)
    6b9e:	878d                	srai	a5,a5,0x3
    6ba0:	04042223          	sw	zero,68(s0)
    6ba4:	4026d713          	srai	a4,a3,0x2
    6ba8:	40e68733          	sub	a4,a3,a4
    6bac:	972a                	add	a4,a4,a0
    6bae:	0742                	slli	a4,a4,0x10
    6bb0:	8341                	srli	a4,a4,0x10
    6bb2:	97ba                	add	a5,a5,a4
    6bb4:	04e41723          	sh	a4,78(s0)
    6bb8:	04f41823          	sh	a5,80(s0)
    6bbc:	b661                	j	6744 <tcp_receive+0xdc>
    6bbe:	a49e                	sh	a5,8(s1)
    6bc0:	00049523          	sh	zero,10(s1)
    6bc4:	8d99                	sub	a1,a1,a4
    6bc6:	4084                	lw	s1,0(s1)
    6bc8:	b6e1                	j	6790 <tcp_receive+0x128>
    6bca:	40e00733          	neg	a4,a4
    6bce:	01071593          	slli	a1,a4,0x10
    6bd2:	b6e9                	j	679c <tcp_receive+0x134>
    6bd4:	8f95                	sub	a5,a5,a3
    6bd6:	c007d0e3          	bgez	a5,67d6 <tcp_receive+0x16e>
    6bda:	02644783          	lbu	a5,38(s0)
    6bde:	8522                	mv	a0,s0
    6be0:	0027e793          	ori	a5,a5,2
    6be4:	02f40323          	sb	a5,38(s0)
    6be8:	3be010ef          	jal	ra,7fa6 <tcp_output>
    6bec:	b6ed                	j	67d6 <tcp_receive+0x16e>
    6bee:	411c                	lw	a5,0(a0)
    6bf0:	08f42223          	sw	a5,132(s0)
    6bf4:	884ff0ef          	jal	ra,5c78 <tcp_seg_free>
    6bf8:	08442503          	lw	a0,132(s0)
    6bfc:	f96d                	bnez	a0,6bee <tcp_receive+0x586>
    6bfe:	000a5683          	lhu	a3,0(s4)
    6c02:	345e                	lhu	a5,44(s0)
    6c04:	00092703          	lw	a4,0(s2)
    6c08:	8522                	mv	a0,s0
    6c0a:	8f95                	sub	a5,a5,a3
    6c0c:	9736                	add	a4,a4,a3
    6c0e:	d418                	sw	a4,40(s0)
    6c10:	b45e                	sh	a5,44(s0)
    6c12:	fe3fe0ef          	jal	ra,5bf4 <tcp_update_rcv_ann_wnd>
    6c16:	40dc                	lw	a5,4(s1)
    6c18:	279a                	lhu	a4,8(a5)
    6c1a:	c709                	beqz	a4,6c24 <tcp_receive+0x5bc>
    6c1c:	92f1a623          	sw	a5,-1748(gp) # 2000014c <recv_data>
    6c20:	0004a223          	sw	zero,4(s1)
    6c24:	489c                	lw	a5,16(s1)
    6c26:	27c8                	lbu	a0,12(a5)
    6c28:	37dc                	lbu	a5,13(a5)
    6c2a:	07a2                	slli	a5,a5,0x8
    6c2c:	8d5d                	or	a0,a0,a5
    6c2e:	e44fd0ef          	jal	ra,4272 <ntohs>
    6c32:	8905                	andi	a0,a0,1
    6c34:	c519                	beqz	a0,6c42 <tcp_receive+0x5da>
    6c36:	93018793          	addi	a5,gp,-1744 # 20000150 <recv_flags>
    6c3a:	2398                	lbu	a4,0(a5)
    6c3c:	02076713          	ori	a4,a4,32
    6c40:	a398                	sb	a4,0(a5)
    6c42:	4a91                	li	s5,4
    6c44:	4b1d                	li	s6,7
    6c46:	aa39                	j	6d64 <tcp_receive+0x6fc>
    6c48:	365c                	lbu	a5,13(a2)
    6c4a:	2648                	lbu	a0,12(a2)
    6c4c:	07a2                	slli	a5,a5,0x8
    6c4e:	8d5d                	or	a0,a0,a5
    6c50:	e22fd0ef          	jal	ra,4272 <ntohs>
    6c54:	8905                	andi	a0,a0,1
    6c56:	c535                	beqz	a0,6cc2 <tcp_receive+0x65a>
    6c58:	489c                	lw	a5,16(s1)
    6c5a:	27c8                	lbu	a0,12(a5)
    6c5c:	37dc                	lbu	a5,13(a5)
    6c5e:	07a2                	slli	a5,a5,0x8
    6c60:	8d5d                	or	a0,a0,a5
    6c62:	e10fd0ef          	jal	ra,4272 <ntohs>
    6c66:	8909                	andi	a0,a0,2
    6c68:	ed29                	bnez	a0,6cc2 <tcp_receive+0x65a>
    6c6a:	489c                	lw	a5,16(s1)
    6c6c:	00d7c983          	lbu	s3,13(a5)
    6c70:	27c8                	lbu	a0,12(a5)
    6c72:	09a2                	slli	s3,s3,0x8
    6c74:	00a9e9b3          	or	s3,s3,a0
    6c78:	855a                	mv	a0,s6
    6c7a:	deafd0ef          	jal	ra,4264 <htons>
    6c7e:	489c                	lw	a5,16(s1)
    6c80:	00a9f9b3          	and	s3,s3,a0
    6c84:	27c8                	lbu	a0,12(a5)
    6c86:	37dc                	lbu	a5,13(a5)
    6c88:	07a2                	slli	a5,a5,0x8
    6c8a:	8d5d                	or	a0,a0,a5
    6c8c:	de6fd0ef          	jal	ra,4272 <ntohs>
    6c90:	03e57513          	andi	a0,a0,62
    6c94:	00156513          	ori	a0,a0,1
    6c98:	dccfd0ef          	jal	ra,4264 <htons>
    6c9c:	00a9e533          	or	a0,s3,a0
    6ca0:	489c                	lw	a5,16(s1)
    6ca2:	0542                	slli	a0,a0,0x10
    6ca4:	8141                	srli	a0,a0,0x10
    6ca6:	00855713          	srli	a4,a0,0x8
    6caa:	a7c8                	sb	a0,12(a5)
    6cac:	b7d8                	sb	a4,13(a5)
    6cae:	00c4d983          	lhu	s3,12(s1)
    6cb2:	dc0fd0ef          	jal	ra,4272 <ntohs>
    6cb6:	890d                	andi	a0,a0,3
    6cb8:	00a03533          	snez	a0,a0
    6cbc:	99aa                	add	s3,s3,a0
    6cbe:	013a1023          	sh	s3,0(s4)
    6cc2:	000aa983          	lw	s3,0(s5)
    6cc6:	8556                	mv	a0,s5
    6cc8:	fb1fe0ef          	jal	ra,5c78 <tcp_seg_free>
    6ccc:	8ace                	mv	s5,s3
    6cce:	b921                	j	68e6 <tcp_receive+0x27e>
    6cd0:	00f92023          	sw	a5,0(s2)
    6cd4:	375c                	lbu	a5,13(a4)
    6cd6:	2748                	lbu	a0,12(a4)
    6cd8:	00c4db83          	lhu	s7,12(s1)
    6cdc:	07a2                	slli	a5,a5,0x8
    6cde:	8d5d                	or	a0,a0,a5
    6ce0:	d92fd0ef          	jal	ra,4272 <ntohs>
    6ce4:	541c                	lw	a5,40(s0)
    6ce6:	890d                	andi	a0,a0,3
    6ce8:	00a03533          	snez	a0,a0
    6cec:	955e                	add	a0,a0,s7
    6cee:	953e                	add	a0,a0,a5
    6cf0:	489c                	lw	a5,16(s1)
    6cf2:	d408                	sw	a0,40(s0)
    6cf4:	00c4db83          	lhu	s7,12(s1)
    6cf8:	27c8                	lbu	a0,12(a5)
    6cfa:	37dc                	lbu	a5,13(a5)
    6cfc:	07a2                	slli	a5,a5,0x8
    6cfe:	8d5d                	or	a0,a0,a5
    6d00:	d72fd0ef          	jal	ra,4272 <ntohs>
    6d04:	345e                	lhu	a5,44(s0)
    6d06:	890d                	andi	a0,a0,3
    6d08:	00a03533          	snez	a0,a0
    6d0c:	955e                	add	a0,a0,s7
    6d0e:	40a78533          	sub	a0,a5,a0
    6d12:	b44a                	sh	a0,44(s0)
    6d14:	8522                	mv	a0,s0
    6d16:	edffe0ef          	jal	ra,5bf4 <tcp_update_rcv_ann_wnd>
    6d1a:	40cc                	lw	a1,4(s1)
    6d1c:	259e                	lhu	a5,8(a1)
    6d1e:	cb89                	beqz	a5,6d30 <tcp_receive+0x6c8>
    6d20:	92c18793          	addi	a5,gp,-1748 # 2000014c <recv_data>
    6d24:	4388                	lw	a0,0(a5)
    6d26:	cd35                	beqz	a0,6da2 <tcp_receive+0x73a>
    6d28:	b27fe0ef          	jal	ra,584e <pbuf_cat>
    6d2c:	0004a223          	sw	zero,4(s1)
    6d30:	489c                	lw	a5,16(s1)
    6d32:	27c8                	lbu	a0,12(a5)
    6d34:	37dc                	lbu	a5,13(a5)
    6d36:	07a2                	slli	a5,a5,0x8
    6d38:	8d5d                	or	a0,a0,a5
    6d3a:	d38fd0ef          	jal	ra,4272 <ntohs>
    6d3e:	8905                	andi	a0,a0,1
    6d40:	cd01                	beqz	a0,6d58 <tcp_receive+0x6f0>
    6d42:	93018713          	addi	a4,gp,-1744 # 20000150 <recv_flags>
    6d46:	231c                	lbu	a5,0(a4)
    6d48:	0207e793          	ori	a5,a5,32
    6d4c:	a31c                	sb	a5,0(a4)
    6d4e:	481c                	lw	a5,16(s0)
    6d50:	01579463          	bne	a5,s5,6d58 <tcp_receive+0x6f0>
    6d54:	01642823          	sw	s6,16(s0)
    6d58:	409c                	lw	a5,0(s1)
    6d5a:	8526                	mv	a0,s1
    6d5c:	08f42223          	sw	a5,132(s0)
    6d60:	f19fe0ef          	jal	ra,5c78 <tcp_seg_free>
    6d64:	08442483          	lw	s1,132(s0)
    6d68:	cc99                	beqz	s1,6d86 <tcp_receive+0x71e>
    6d6a:	4898                	lw	a4,16(s1)
    6d6c:	3354                	lbu	a3,5(a4)
    6d6e:	235c                	lbu	a5,4(a4)
    6d70:	06a2                	slli	a3,a3,0x8
    6d72:	8edd                	or	a3,a3,a5
    6d74:	237c                	lbu	a5,6(a4)
    6d76:	07c2                	slli	a5,a5,0x10
    6d78:	8edd                	or	a3,a3,a5
    6d7a:	337c                	lbu	a5,7(a4)
    6d7c:	07e2                	slli	a5,a5,0x18
    6d7e:	8fd5                	or	a5,a5,a3
    6d80:	5414                	lw	a3,40(s0)
    6d82:	f4d787e3          	beq	a5,a3,6cd0 <tcp_receive+0x668>
    6d86:	02644783          	lbu	a5,38(s0)
    6d8a:	0017f713          	andi	a4,a5,1
    6d8e:	cf01                	beqz	a4,6da6 <tcp_receive+0x73e>
    6d90:	9bf9                	andi	a5,a5,-2
    6d92:	0027e793          	ori	a5,a5,2
    6d96:	02f40323          	sb	a5,38(s0)
    6d9a:	8522                	mv	a0,s0
    6d9c:	20a010ef          	jal	ra,7fa6 <tcp_output>
    6da0:	a039                	j	6dae <tcp_receive+0x746>
    6da2:	c38c                	sw	a1,0(a5)
    6da4:	b761                	j	6d2c <tcp_receive+0x6c4>
    6da6:	0017e793          	ori	a5,a5,1
    6daa:	02f40323          	sb	a5,38(s0)
    6dae:	c52f906f          	j	200 <__riscv_restore_10>
    6db2:	8522                	mv	a0,s0
    6db4:	182010ef          	jal	ra,7f36 <tcp_send_empty_ack>
    6db8:	08442483          	lw	s1,132(s0)
    6dbc:	e891                	bnez	s1,6dd0 <tcp_receive+0x768>
    6dbe:	20009537          	lui	a0,0x20009
    6dc2:	c0450513          	addi	a0,a0,-1020 # 20008c04 <inseg>
    6dc6:	efbfe0ef          	jal	ra,5cc0 <tcp_seg_copy>
    6dca:	08a42223          	sw	a0,132(s0)
    6dce:	b7c5                	j	6dae <tcp_receive+0x746>
    6dd0:	00092703          	lw	a4,0(s2)
    6dd4:	4981                	li	s3,0
    6dd6:	fff70813          	addi	a6,a4,-1
    6dda:	00170513          	addi	a0,a4,1
    6dde:	4890                	lw	a2,16(s1)
    6de0:	3254                	lbu	a3,5(a2)
    6de2:	225c                	lbu	a5,4(a2)
    6de4:	06a2                	slli	a3,a3,0x8
    6de6:	8edd                	or	a3,a3,a5
    6de8:	227c                	lbu	a5,6(a2)
    6dea:	07c2                	slli	a5,a5,0x10
    6dec:	8edd                	or	a3,a3,a5
    6dee:	327c                	lbu	a5,7(a2)
    6df0:	07e2                	slli	a5,a5,0x18
    6df2:	8fd5                	or	a5,a5,a3
    6df4:	02e79c63          	bne	a5,a4,6e2c <tcp_receive+0x7c4>
    6df8:	20009537          	lui	a0,0x20009
    6dfc:	c0450793          	addi	a5,a0,-1020 # 20008c04 <inseg>
    6e00:	27da                	lhu	a4,12(a5)
    6e02:	24de                	lhu	a5,12(s1)
    6e04:	fae7f5e3          	bgeu	a5,a4,6dae <tcp_receive+0x746>
    6e08:	c0450513          	addi	a0,a0,-1020
    6e0c:	eb5fe0ef          	jal	ra,5cc0 <tcp_seg_copy>
    6e10:	dd59                	beqz	a0,6dae <tcp_receive+0x746>
    6e12:	00098a63          	beqz	s3,6e26 <tcp_receive+0x7be>
    6e16:	00a9a023          	sw	a0,0(s3)
    6e1a:	85a6                	mv	a1,s1
    6e1c:	f7eff0ef          	jal	ra,659a <tcp_oos_insert_segment>
    6e20:	b779                	j	6dae <tcp_receive+0x746>
    6e22:	84b6                	mv	s1,a3
    6e24:	bf6d                	j	6dde <tcp_receive+0x776>
    6e26:	08a42223          	sw	a0,132(s0)
    6e2a:	bfc5                	j	6e1a <tcp_receive+0x7b2>
    6e2c:	02099063          	bnez	s3,6e4c <tcp_receive+0x7e4>
    6e30:	40f706b3          	sub	a3,a4,a5
    6e34:	0806de63          	bgez	a3,6ed0 <tcp_receive+0x868>
    6e38:	20009537          	lui	a0,0x20009
    6e3c:	c0450513          	addi	a0,a0,-1020 # 20008c04 <inseg>
    6e40:	e81fe0ef          	jal	ra,5cc0 <tcp_seg_copy>
    6e44:	d52d                	beqz	a0,6dae <tcp_receive+0x746>
    6e46:	08a42223          	sw	a0,132(s0)
    6e4a:	bfc1                	j	6e1a <tcp_receive+0x7b2>
    6e4c:	0109a883          	lw	a7,16(s3)
    6e50:	0058c583          	lbu	a1,5(a7)
    6e54:	0048c683          	lbu	a3,4(a7)
    6e58:	05a2                	slli	a1,a1,0x8
    6e5a:	8dd5                	or	a1,a1,a3
    6e5c:	0068c683          	lbu	a3,6(a7)
    6e60:	06c2                	slli	a3,a3,0x10
    6e62:	8dd5                	or	a1,a1,a3
    6e64:	0078c683          	lbu	a3,7(a7)
    6e68:	06e2                	slli	a3,a3,0x18
    6e6a:	8ecd                	or	a3,a3,a1
    6e6c:	40d806b3          	sub	a3,a6,a3
    6e70:	0606c063          	bltz	a3,6ed0 <tcp_receive+0x868>
    6e74:	40f506b3          	sub	a3,a0,a5
    6e78:	04d04c63          	bgtz	a3,6ed0 <tcp_receive+0x868>
    6e7c:	20009537          	lui	a0,0x20009
    6e80:	c0450513          	addi	a0,a0,-1020 # 20008c04 <inseg>
    6e84:	e3dfe0ef          	jal	ra,5cc0 <tcp_seg_copy>
    6e88:	842a                	mv	s0,a0
    6e8a:	d115                	beqz	a0,6dae <tcp_receive+0x746>
    6e8c:	0109a703          	lw	a4,16(s3)
    6e90:	335c                	lbu	a5,5(a4)
    6e92:	234c                	lbu	a1,4(a4)
    6e94:	07a2                	slli	a5,a5,0x8
    6e96:	8ddd                	or	a1,a1,a5
    6e98:	237c                	lbu	a5,6(a4)
    6e9a:	07c2                	slli	a5,a5,0x10
    6e9c:	8fcd                	or	a5,a5,a1
    6e9e:	336c                	lbu	a1,7(a4)
    6ea0:	00c9d703          	lhu	a4,12(s3)
    6ea4:	05e2                	slli	a1,a1,0x18
    6ea6:	8fcd                	or	a5,a5,a1
    6ea8:	00092583          	lw	a1,0(s2)
    6eac:	973e                	add	a4,a4,a5
    6eae:	8f0d                	sub	a4,a4,a1
    6eb0:	00e05b63          	blez	a4,6ec6 <tcp_receive+0x85e>
    6eb4:	8d9d                	sub	a1,a1,a5
    6eb6:	05c2                	slli	a1,a1,0x10
    6eb8:	0049a503          	lw	a0,4(s3)
    6ebc:	81c1                	srli	a1,a1,0x10
    6ebe:	00b99623          	sh	a1,12(s3)
    6ec2:	919fe0ef          	jal	ra,57da <pbuf_realloc>
    6ec6:	0089a023          	sw	s0,0(s3)
    6eca:	85a6                	mv	a1,s1
    6ecc:	8522                	mv	a0,s0
    6ece:	b7b9                	j	6e1c <tcp_receive+0x7b4>
    6ed0:	4094                	lw	a3,0(s1)
    6ed2:	89a6                	mv	s3,s1
    6ed4:	f6b9                	bnez	a3,6e22 <tcp_receive+0x7ba>
    6ed6:	40f707b3          	sub	a5,a4,a5
    6eda:	ecf05ae3          	blez	a5,6dae <tcp_receive+0x746>
    6ede:	365c                	lbu	a5,13(a2)
    6ee0:	2648                	lbu	a0,12(a2)
    6ee2:	07a2                	slli	a5,a5,0x8
    6ee4:	8d5d                	or	a0,a0,a5
    6ee6:	b8cfd0ef          	jal	ra,4272 <ntohs>
    6eea:	8905                	andi	a0,a0,1
    6eec:	ec0511e3          	bnez	a0,6dae <tcp_receive+0x746>
    6ef0:	20009537          	lui	a0,0x20009
    6ef4:	c0450513          	addi	a0,a0,-1020 # 20008c04 <inseg>
    6ef8:	dc9fe0ef          	jal	ra,5cc0 <tcp_seg_copy>
    6efc:	c088                	sw	a0,0(s1)
    6efe:	ea0508e3          	beqz	a0,6dae <tcp_receive+0x746>
    6f02:	4898                	lw	a4,16(s1)
    6f04:	335c                	lbu	a5,5(a4)
    6f06:	234c                	lbu	a1,4(a4)
    6f08:	07a2                	slli	a5,a5,0x8
    6f0a:	8ddd                	or	a1,a1,a5
    6f0c:	237c                	lbu	a5,6(a4)
    6f0e:	07c2                	slli	a5,a5,0x10
    6f10:	8fcd                	or	a5,a5,a1
    6f12:	336c                	lbu	a1,7(a4)
    6f14:	24da                	lhu	a4,12(s1)
    6f16:	05e2                	slli	a1,a1,0x18
    6f18:	8fcd                	or	a5,a5,a1
    6f1a:	00092583          	lw	a1,0(s2)
    6f1e:	973e                	add	a4,a4,a5
    6f20:	8f0d                	sub	a4,a4,a1
    6f22:	e8e056e3          	blez	a4,6dae <tcp_receive+0x746>
    6f26:	8d9d                	sub	a1,a1,a5
    6f28:	05c2                	slli	a1,a1,0x10
    6f2a:	40c8                	lw	a0,4(s1)
    6f2c:	81c1                	srli	a1,a1,0x10
    6f2e:	a4ce                	sh	a1,12(s1)
    6f30:	8abfe0ef          	jal	ra,57da <pbuf_realloc>
    6f34:	bdad                	j	6dae <tcp_receive+0x746>
    6f36:	8522                	mv	a0,s0
    6f38:	7ff000ef          	jal	ra,7f36 <tcp_send_empty_ack>
    6f3c:	bd8d                	j	6dae <tcp_receive+0x746>
    6f3e:	40d78733          	sub	a4,a5,a3
    6f42:	00074863          	bltz	a4,6f52 <tcp_receive+0x8ea>
    6f46:	345a                	lhu	a4,44(s0)
    6f48:	0785                	addi	a5,a5,1
    6f4a:	8f95                	sub	a5,a5,a3
    6f4c:	8f99                	sub	a5,a5,a4
    6f4e:	e6f050e3          	blez	a5,6dae <tcp_receive+0x746>
    6f52:	02644783          	lbu	a5,38(s0)
    6f56:	bd35                	j	6d92 <tcp_receive+0x72a>

00006f58 <tcp_parseopt.isra.0>:
    6f58:	a98f92ef          	jal	t0,1f0 <__riscv_save_0>
    6f5c:	93c18493          	addi	s1,gp,-1732 # 2000015c <tcphdr>
    6f60:	0004a903          	lw	s2,0(s1)
    6f64:	842a                	mv	s0,a0
    6f66:	00d94783          	lbu	a5,13(s2)
    6f6a:	00c94503          	lbu	a0,12(s2)
    6f6e:	07a2                	slli	a5,a5,0x8
    6f70:	8d5d                	or	a0,a0,a5
    6f72:	b00fd0ef          	jal	ra,4272 <ntohs>
    6f76:	8131                	srli	a0,a0,0xc
    6f78:	0542                	slli	a0,a0,0x10
    6f7a:	8141                	srli	a0,a0,0x10
    6f7c:	4795                	li	a5,5
    6f7e:	02a7fc63          	bgeu	a5,a0,6fb6 <tcp_parseopt.isra.0+0x5e>
    6f82:	409c                	lw	a5,0(s1)
    6f84:	0951                	addi	s2,s2,20
    6f86:	27c8                	lbu	a0,12(a5)
    6f88:	37dc                	lbu	a5,13(a5)
    6f8a:	07a2                	slli	a5,a5,0x8
    6f8c:	8d5d                	or	a0,a0,a5
    6f8e:	ae4fd0ef          	jal	ra,4272 <ntohs>
    6f92:	200097b7          	lui	a5,0x20009
    6f96:	b847a603          	lw	a2,-1148(a5) # 20008b84 <WCHCfg+0x4>
    6f9a:	8131                	srli	a0,a0,0xc
    6f9c:	156d                	addi	a0,a0,-5
    6f9e:	050a                	slli	a0,a0,0x2
    6fa0:	0542                	slli	a0,a0,0x10
    6fa2:	01061593          	slli	a1,a2,0x10
    6fa6:	8141                	srli	a0,a0,0x10
    6fa8:	81c1                	srli	a1,a1,0x10
    6faa:	4781                	li	a5,0
    6fac:	4805                	li	a6,1
    6fae:	4889                	li	a7,2
    6fb0:	4311                	li	t1,4
    6fb2:	00a7e463          	bltu	a5,a0,6fba <tcp_parseopt.isra.0+0x62>
    6fb6:	a5ef906f          	j	214 <__riscv_restore_0>
    6fba:	00f906b3          	add	a3,s2,a5
    6fbe:	2298                	lbu	a4,0(a3)
    6fc0:	01070963          	beq	a4,a6,6fd2 <tcp_parseopt.isra.0+0x7a>
    6fc4:	db6d                	beqz	a4,6fb6 <tcp_parseopt.isra.0+0x5e>
    6fc6:	01170a63          	beq	a4,a7,6fda <tcp_parseopt.isra.0+0x82>
    6fca:	3298                	lbu	a4,1(a3)
    6fcc:	d76d                	beqz	a4,6fb6 <tcp_parseopt.isra.0+0x5e>
    6fce:	97ba                	add	a5,a5,a4
    6fd0:	a011                	j	6fd4 <tcp_parseopt.isra.0+0x7c>
    6fd2:	0785                	addi	a5,a5,1
    6fd4:	07c2                	slli	a5,a5,0x10
    6fd6:	83c1                	srli	a5,a5,0x10
    6fd8:	bfe9                	j	6fb2 <tcp_parseopt.isra.0+0x5a>
    6fda:	3298                	lbu	a4,1(a3)
    6fdc:	fc671de3          	bne	a4,t1,6fb6 <tcp_parseopt.isra.0+0x5e>
    6fe0:	00378713          	addi	a4,a5,3
    6fe4:	fca759e3          	bge	a4,a0,6fb6 <tcp_parseopt.isra.0+0x5e>
    6fe8:	22b8                	lbu	a4,2(a3)
    6fea:	32b4                	lbu	a3,3(a3)
    6fec:	0722                	slli	a4,a4,0x8
    6fee:	8f55                	or	a4,a4,a3
    6ff0:	00e66363          	bltu	a2,a4,6ff6 <tcp_parseopt.isra.0+0x9e>
    6ff4:	e311                	bnez	a4,6ff8 <tcp_parseopt.isra.0+0xa0>
    6ff6:	872e                	mv	a4,a1
    6ff8:	a01a                	sh	a4,0(s0)
    6ffa:	0791                	addi	a5,a5,4
    6ffc:	bfe1                	j	6fd4 <tcp_parseopt.isra.0+0x7c>

00006ffe <tcp_input>:
    6ffe:	9c2f92ef          	jal	t0,1c0 <__riscv_save_12>
    7002:	4140                	lw	s0,4(a0)
    7004:	8baa                	mv	s7,a0
    7006:	301c                	lbu	a5,1(s0)
    7008:	2008                	lbu	a0,0(s0)
    700a:	1141                	addi	sp,sp,-16
    700c:	07a2                	slli	a5,a5,0x8
    700e:	92818913          	addi	s2,gp,-1752 # 20000148 <iphdr>
    7012:	8d5d                	or	a0,a0,a5
    7014:	89ae                	mv	s3,a1
    7016:	00892023          	sw	s0,0(s2)
    701a:	a58fd0ef          	jal	ra,4272 <ntohs>
    701e:	00092783          	lw	a5,0(s2)
    7022:	8119                	srli	a0,a0,0x6
    7024:	03c57513          	andi	a0,a0,60
    7028:	942a                	add	s0,s0,a0
    702a:	2388                	lbu	a0,0(a5)
    702c:	339c                	lbu	a5,1(a5)
    702e:	9281ae23          	sw	s0,-1732(gp) # 2000015c <tcphdr>
    7032:	07a2                	slli	a5,a5,0x8
    7034:	8d5d                	or	a0,a0,a5
    7036:	a3cfd0ef          	jal	ra,4272 <ntohs>
    703a:	00655593          	srli	a1,a0,0x6
    703e:	03c5f593          	andi	a1,a1,60
    7042:	40b005b3          	neg	a1,a1
    7046:	855e                	mv	a0,s7
    7048:	d96fe0ef          	jal	ra,55de <pbuf_header>
    704c:	e511                	bnez	a0,7058 <tcp_input+0x5a>
    704e:	008bd703          	lhu	a4,8(s7)
    7052:	47cd                	li	a5,19
    7054:	00e7e863          	bltu	a5,a4,7064 <tcp_input+0x66>
    7058:	855e                	mv	a0,s7
    705a:	df2fe0ef          	jal	ra,564c <pbuf_free>
    705e:	0141                	addi	sp,sp,16
    7060:	99cf906f          	j	1fc <__riscv_restore_12>
    7064:	92818b13          	addi	s6,gp,-1752 # 20000148 <iphdr>
    7068:	000b2503          	lw	a0,0(s6)
    706c:	85ce                	mv	a1,s3
    706e:	0541                	addi	a0,a0,16
    7070:	eb6fd0ef          	jal	ra,4726 <ip_addr_isbroadcast>
    7074:	f175                	bnez	a0,7058 <tcp_input+0x5a>
    7076:	000b2703          	lw	a4,0(s6)
    707a:	f0000537          	lui	a0,0xf0000
    707e:	3b1c                	lbu	a5,17(a4)
    7080:	2b00                	lbu	s0,16(a4)
    7082:	07a2                	slli	a5,a5,0x8
    7084:	8fc1                	or	a5,a5,s0
    7086:	2b20                	lbu	s0,18(a4)
    7088:	0442                	slli	s0,s0,0x10
    708a:	8fc1                	or	a5,a5,s0
    708c:	3b20                	lbu	s0,19(a4)
    708e:	0462                	slli	s0,s0,0x18
    7090:	8c5d                	or	s0,s0,a5
    7092:	a12fd0ef          	jal	ra,42a4 <ntohl>
    7096:	8c69                	and	s0,s0,a0
    7098:	e0000537          	lui	a0,0xe0000
    709c:	a08fd0ef          	jal	ra,42a4 <ntohl>
    70a0:	faa40ce3          	beq	s0,a0,7058 <tcp_input+0x5a>
    70a4:	000b2583          	lw	a1,0(s6)
    70a8:	008bd703          	lhu	a4,8(s7)
    70ac:	4699                	li	a3,6
    70ae:	01058613          	addi	a2,a1,16
    70b2:	855e                	mv	a0,s7
    70b4:	05b1                	addi	a1,a1,12
    70b6:	5a1010ef          	jal	ra,8e56 <inet_chksum_pseudo>
    70ba:	fd59                	bnez	a0,7058 <tcp_input+0x5a>
    70bc:	93c18493          	addi	s1,gp,-1732 # 2000015c <tcphdr>
    70c0:	409c                	lw	a5,0(s1)
    70c2:	27c8                	lbu	a0,12(a5)
    70c4:	37dc                	lbu	a5,13(a5)
    70c6:	07a2                	slli	a5,a5,0x8
    70c8:	8d5d                	or	a0,a0,a5
    70ca:	9a8fd0ef          	jal	ra,4272 <ntohs>
    70ce:	8131                	srli	a0,a0,0xc
    70d0:	55f1                	li	a1,-4
    70d2:	02b505b3          	mul	a1,a0,a1
    70d6:	855e                	mv	a0,s7
    70d8:	05c2                	slli	a1,a1,0x10
    70da:	85c1                	srai	a1,a1,0x10
    70dc:	d02fe0ef          	jal	ra,55de <pbuf_header>
    70e0:	fd25                	bnez	a0,7058 <tcp_input+0x5a>
    70e2:	4080                	lw	s0,0(s1)
    70e4:	301c                	lbu	a5,1(s0)
    70e6:	2008                	lbu	a0,0(s0)
    70e8:	07a2                	slli	a5,a5,0x8
    70ea:	8d5d                	or	a0,a0,a5
    70ec:	986fd0ef          	jal	ra,4272 <ntohs>
    70f0:	a008                	sb	a0,0(s0)
    70f2:	8121                	srli	a0,a0,0x8
    70f4:	b008                	sb	a0,1(s0)
    70f6:	4080                	lw	s0,0(s1)
    70f8:	303c                	lbu	a5,3(s0)
    70fa:	2028                	lbu	a0,2(s0)
    70fc:	07a2                	slli	a5,a5,0x8
    70fe:	8d5d                	or	a0,a0,a5
    7100:	972fd0ef          	jal	ra,4272 <ntohs>
    7104:	a028                	sb	a0,2(s0)
    7106:	8121                	srli	a0,a0,0x8
    7108:	b028                	sb	a0,3(s0)
    710a:	4080                	lw	s0,0(s1)
    710c:	3048                	lbu	a0,5(s0)
    710e:	205c                	lbu	a5,4(s0)
    7110:	0522                	slli	a0,a0,0x8
    7112:	8d5d                	or	a0,a0,a5
    7114:	207c                	lbu	a5,6(s0)
    7116:	07c2                	slli	a5,a5,0x10
    7118:	8fc9                	or	a5,a5,a0
    711a:	3068                	lbu	a0,7(s0)
    711c:	0562                	slli	a0,a0,0x18
    711e:	8d5d                	or	a0,a0,a5
    7120:	984fd0ef          	jal	ra,42a4 <ntohl>
    7124:	00855793          	srli	a5,a0,0x8
    7128:	b05c                	sb	a5,5(s0)
    712a:	01055793          	srli	a5,a0,0x10
    712e:	a07c                	sb	a5,6(s0)
    7130:	01855793          	srli	a5,a0,0x18
    7134:	a048                	sb	a0,4(s0)
    7136:	b07c                	sb	a5,7(s0)
    7138:	4080                	lw	s0,0(s1)
    713a:	92a1aa23          	sw	a0,-1740(gp) # 20000154 <seqno>
    713e:	93418a93          	addi	s5,gp,-1740 # 20000154 <seqno>
    7142:	3408                	lbu	a0,9(s0)
    7144:	241c                	lbu	a5,8(s0)
    7146:	0522                	slli	a0,a0,0x8
    7148:	8d5d                	or	a0,a0,a5
    714a:	243c                	lbu	a5,10(s0)
    714c:	07c2                	slli	a5,a5,0x10
    714e:	8fc9                	or	a5,a5,a0
    7150:	3428                	lbu	a0,11(s0)
    7152:	0562                	slli	a0,a0,0x18
    7154:	8d5d                	or	a0,a0,a5
    7156:	94efd0ef          	jal	ra,42a4 <ntohl>
    715a:	00855793          	srli	a5,a0,0x8
    715e:	b41c                	sb	a5,9(s0)
    7160:	01055793          	srli	a5,a0,0x10
    7164:	a43c                	sb	a5,10(s0)
    7166:	01855793          	srli	a5,a0,0x18
    716a:	a408                	sb	a0,8(s0)
    716c:	b43c                	sb	a5,11(s0)
    716e:	4080                	lw	s0,0(s1)
    7170:	92a1a023          	sw	a0,-1760(gp) # 20000140 <ackno>
    7174:	92018913          	addi	s2,gp,-1760 # 20000140 <ackno>
    7178:	347c                	lbu	a5,15(s0)
    717a:	2468                	lbu	a0,14(s0)
    717c:	07a2                	slli	a5,a5,0x8
    717e:	8d5d                	or	a0,a0,a5
    7180:	8f2fd0ef          	jal	ra,4272 <ntohs>
    7184:	409c                	lw	a5,0(s1)
    7186:	a468                	sb	a0,14(s0)
    7188:	8121                	srli	a0,a0,0x8
    718a:	b468                	sb	a0,15(s0)
    718c:	27c8                	lbu	a0,12(a5)
    718e:	37dc                	lbu	a5,13(a5)
    7190:	07a2                	slli	a5,a5,0x8
    7192:	8d5d                	or	a0,a0,a5
    7194:	8defd0ef          	jal	ra,4272 <ntohs>
    7198:	0ff57813          	andi	a6,a0,255
    719c:	008bd883          	lhu	a7,8(s7)
    71a0:	00387593          	andi	a1,a6,3
    71a4:	00b035b3          	snez	a1,a1
    71a8:	95c6                	add	a1,a1,a7
    71aa:	9041a303          	lw	t1,-1788(gp) # 20000124 <tcp_active_pcbs>
    71ae:	05c2                	slli	a1,a1,0x10
    71b0:	4094                	lw	a3,0(s1)
    71b2:	000b2603          	lw	a2,0(s6)
    71b6:	03f87793          	andi	a5,a6,63
    71ba:	81c1                	srli	a1,a1,0x10
    71bc:	92f18223          	sb	a5,-1756(gp) # 20000144 <flags>
    71c0:	94b19023          	sh	a1,-1728(gp) # 20000160 <tcplen>
    71c4:	841a                	mv	s0,t1
    71c6:	4501                	li	a0,0
    71c8:	92418c93          	addi	s9,gp,-1756 # 20000144 <flags>
    71cc:	94018c13          	addi	s8,gp,-1728 # 20000160 <tcplen>
    71d0:	e401                	bnez	s0,71d8 <tcp_input+0x1da>
    71d2:	91c1a503          	lw	a0,-1764(gp) # 2000013c <tcp_tw_pcbs>
    71d6:	a2e9                	j	73a0 <tcp_input+0x3a2>
    71d8:	329c                	lbu	a5,1(a3)
    71da:	0006ce03          	lbu	t3,0(a3)
    71de:	305a                	lhu	a4,36(s0)
    71e0:	07a2                	slli	a5,a5,0x8
    71e2:	01c7e7b3          	or	a5,a5,t3
    71e6:	0ef71263          	bne	a4,a5,72ca <tcp_input+0x2cc>
    71ea:	32bc                	lbu	a5,3(a3)
    71ec:	0026ce03          	lbu	t3,2(a3)
    71f0:	2c5a                	lhu	a4,28(s0)
    71f2:	07a2                	slli	a5,a5,0x8
    71f4:	01c7e7b3          	or	a5,a5,t3
    71f8:	0cf71963          	bne	a4,a5,72ca <tcp_input+0x2cc>
    71fc:	3658                	lbu	a4,13(a2)
    71fe:	265c                	lbu	a5,12(a2)
    7200:	0722                	slli	a4,a4,0x8
    7202:	8f5d                	or	a4,a4,a5
    7204:	267c                	lbu	a5,14(a2)
    7206:	07c2                	slli	a5,a5,0x10
    7208:	8f5d                	or	a4,a4,a5
    720a:	367c                	lbu	a5,15(a2)
    720c:	07e2                	slli	a5,a5,0x18
    720e:	8fd9                	or	a5,a5,a4
    7210:	4058                	lw	a4,4(s0)
    7212:	0af71c63          	bne	a4,a5,72ca <tcp_input+0x2cc>
    7216:	3a18                	lbu	a4,17(a2)
    7218:	2a1c                	lbu	a5,16(a2)
    721a:	0722                	slli	a4,a4,0x8
    721c:	8f5d                	or	a4,a4,a5
    721e:	2a3c                	lbu	a5,18(a2)
    7220:	07c2                	slli	a5,a5,0x10
    7222:	8f5d                	or	a4,a4,a5
    7224:	3a3c                	lbu	a5,19(a2)
    7226:	07e2                	slli	a5,a5,0x18
    7228:	8fd9                	or	a5,a5,a4
    722a:	4018                	lw	a4,0(s0)
    722c:	08f71f63          	bne	a4,a5,72ca <tcp_input+0x2cc>
    7230:	c519                	beqz	a0,723e <tcp_input+0x240>
    7232:	445c                	lw	a5,12(s0)
    7234:	9081a223          	sw	s0,-1788(gp) # 20000124 <tcp_active_pcbs>
    7238:	c55c                	sw	a5,12(a0)
    723a:	00642623          	sw	t1,12(s0)
    723e:	004ba703          	lw	a4,4(s7)
    7242:	20009db7          	lui	s11,0x20009
    7246:	08842603          	lw	a2,136(s0)
    724a:	c04d8793          	addi	a5,s11,-1020 # 20008c04 <inseg>
    724e:	9201a623          	sw	zero,-1748(gp) # 2000014c <recv_data>
    7252:	92018823          	sb	zero,-1744(gp) # 20000150 <recv_flags>
    7256:	0007a023          	sw	zero,0(a5)
    725a:	01179623          	sh	a7,12(a5)
    725e:	c798                	sw	a4,8(a5)
    7260:	0177a223          	sw	s7,4(a5)
    7264:	cb94                	sw	a3,16(a5)
    7266:	93018a13          	addi	s4,gp,-1744 # 20000150 <recv_flags>
    726a:	92c18d13          	addi	s10,gp,-1748 # 2000014c <recv_data>
    726e:	c04d8d93          	addi	s11,s11,-1020
    7272:	ce09                	beqz	a2,728c <tcp_input+0x28e>
    7274:	09042783          	lw	a5,144(s0)
    7278:	4681                	li	a3,0
    727a:	85a2                	mv	a1,s0
    727c:	2c078a63          	beqz	a5,7550 <tcp_input+0x552>
    7280:	4c08                	lw	a0,24(s0)
    7282:	9782                	jalr	a5
    7284:	dc051ae3          	bnez	a0,7058 <tcp_input+0x5a>
    7288:	08042423          	sw	zero,136(s0)
    728c:	000cc783          	lbu	a5,0(s9)
    7290:	9281ac23          	sw	s0,-1736(gp) # 20000158 <tcp_input_pcb>
    7294:	0047f713          	andi	a4,a5,4
    7298:	93818b93          	addi	s7,gp,-1736 # 20000158 <tcp_input_pcb>
    729c:	30070d63          	beqz	a4,75b6 <tcp_input+0x5b8>
    72a0:	4818                	lw	a4,16(s0)
    72a2:	4789                	li	a5,2
    72a4:	2af71a63          	bne	a4,a5,7558 <tcp_input+0x55a>
    72a8:	5038                	lw	a4,96(s0)
    72aa:	00092783          	lw	a5,0(s2)
    72ae:	2af71f63          	bne	a4,a5,756c <tcp_input+0x56e>
    72b2:	000a4783          	lbu	a5,0(s4)
    72b6:	0087e793          	ori	a5,a5,8
    72ba:	00fa0023          	sb	a5,0(s4)
    72be:	02644783          	lbu	a5,38(s0)
    72c2:	9bf9                	andi	a5,a5,-2
    72c4:	02f40323          	sb	a5,38(s0)
    72c8:	a455                	j	756c <tcp_input+0x56e>
    72ca:	8522                	mv	a0,s0
    72cc:	4440                	lw	s0,12(s0)
    72ce:	b709                	j	71d0 <tcp_input+0x1d2>
    72d0:	3298                	lbu	a4,1(a3)
    72d2:	229c                	lbu	a5,0(a3)
    72d4:	0722                	slli	a4,a4,0x8
    72d6:	8f5d                	or	a4,a4,a5
    72d8:	315e                	lhu	a5,36(a0)
    72da:	0ce79263          	bne	a5,a4,739e <tcp_input+0x3a0>
    72de:	0036c883          	lbu	a7,3(a3)
    72e2:	22b8                	lbu	a4,2(a3)
    72e4:	08a2                	slli	a7,a7,0x8
    72e6:	00e8e8b3          	or	a7,a7,a4
    72ea:	2d5a                	lhu	a4,28(a0)
    72ec:	0b171963          	bne	a4,a7,739e <tcp_input+0x3a0>
    72f0:	00d64303          	lbu	t1,13(a2)
    72f4:	00c64883          	lbu	a7,12(a2)
    72f8:	0322                	slli	t1,t1,0x8
    72fa:	01136333          	or	t1,t1,a7
    72fe:	00e64883          	lbu	a7,14(a2)
    7302:	08c2                	slli	a7,a7,0x10
    7304:	0068e333          	or	t1,a7,t1
    7308:	00f64883          	lbu	a7,15(a2)
    730c:	08e2                	slli	a7,a7,0x18
    730e:	0068e8b3          	or	a7,a7,t1
    7312:	00452303          	lw	t1,4(a0) # e0000004 <_eusrstack+0xbfff0004>
    7316:	09131463          	bne	t1,a7,739e <tcp_input+0x3a0>
    731a:	01164303          	lbu	t1,17(a2)
    731e:	01064883          	lbu	a7,16(a2)
    7322:	0322                	slli	t1,t1,0x8
    7324:	01136333          	or	t1,t1,a7
    7328:	01264883          	lbu	a7,18(a2)
    732c:	08c2                	slli	a7,a7,0x10
    732e:	0068e333          	or	t1,a7,t1
    7332:	01364883          	lbu	a7,19(a2)
    7336:	08e2                	slli	a7,a7,0x18
    7338:	0068e8b3          	or	a7,a7,t1
    733c:	00052303          	lw	t1,0(a0)
    7340:	05131f63          	bne	t1,a7,739e <tcp_input+0x3a0>
    7344:	00487693          	andi	a3,a6,4
    7348:	d00698e3          	bnez	a3,7058 <tcp_input+0x5a>
    734c:	00287693          	andi	a3,a6,2
    7350:	c68d                	beqz	a3,737a <tcp_input+0x37c>
    7352:	000aa803          	lw	a6,0(s5)
    7356:	5514                	lw	a3,40(a0)
    7358:	40d806b3          	sub	a3,a6,a3
    735c:	0206c663          	bltz	a3,7388 <tcp_input+0x38a>
    7360:	02c55883          	lhu	a7,44(a0)
    7364:	411686b3          	sub	a3,a3,a7
    7368:	02d04063          	bgtz	a3,7388 <tcp_input+0x38a>
    736c:	00c60693          	addi	a3,a2,12
    7370:	95c2                	add	a1,a1,a6
    7372:	0641                	addi	a2,a2,16
    7374:	00092503          	lw	a0,0(s2)
    7378:	a8f1                	j	7454 <tcp_input+0x456>
    737a:	00187813          	andi	a6,a6,1
    737e:	00080563          	beqz	a6,7388 <tcp_input+0x38a>
    7382:	9101a783          	lw	a5,-1776(gp) # 20000130 <tcp_ticks>
    7386:	dd1c                	sw	a5,56(a0)
    7388:	cc0588e3          	beqz	a1,7058 <tcp_input+0x5a>
    738c:	02654783          	lbu	a5,38(a0)
    7390:	0027e793          	ori	a5,a5,2
    7394:	02f50323          	sb	a5,38(a0)
    7398:	40f000ef          	jal	ra,7fa6 <tcp_output>
    739c:	b975                	j	7058 <tcp_input+0x5a>
    739e:	4548                	lw	a0,12(a0)
    73a0:	f905                	bnez	a0,72d0 <tcp_input+0x2d2>
    73a2:	90c1a303          	lw	t1,-1780(gp) # 2000012c <tcp_listen_pcbs>
    73a6:	8e3e                	mv	t3,a5
    73a8:	8a1a                	mv	s4,t1
    73aa:	040a1363          	bnez	s4,73f0 <tcp_input+0x3f2>
    73ae:	36dc                	lbu	a5,13(a3)
    73b0:	26c8                	lbu	a0,12(a3)
    73b2:	07a2                	slli	a5,a5,0x8
    73b4:	8d5d                	or	a0,a0,a5
    73b6:	ebdfc0ef          	jal	ra,4272 <ntohs>
    73ba:	8911                	andi	a0,a0,4
    73bc:	c8051ee3          	bnez	a0,7058 <tcp_input+0x5a>
    73c0:	4094                	lw	a3,0(s1)
    73c2:	000b2603          	lw	a2,0(s6)
    73c6:	000c5503          	lhu	a0,0(s8)
    73ca:	329c                	lbu	a5,1(a3)
    73cc:	32b8                	lbu	a4,3(a3)
    73ce:	0006c883          	lbu	a7,0(a3)
    73d2:	0026c803          	lbu	a6,2(a3)
    73d6:	000aa583          	lw	a1,0(s5)
    73da:	07a2                	slli	a5,a5,0x8
    73dc:	0722                	slli	a4,a4,0x8
    73de:	00c60693          	addi	a3,a2,12
    73e2:	0117e7b3          	or	a5,a5,a7
    73e6:	01076733          	or	a4,a4,a6
    73ea:	0641                	addi	a2,a2,16
    73ec:	95aa                	add	a1,a1,a0
    73ee:	b759                	j	7374 <tcp_input+0x376>
    73f0:	000a2883          	lw	a7,0(s4)
    73f4:	00088e63          	beqz	a7,7410 <tcp_input+0x412>
    73f8:	3a18                	lbu	a4,17(a2)
    73fa:	2a1c                	lbu	a5,16(a2)
    73fc:	0722                	slli	a4,a4,0x8
    73fe:	8f5d                	or	a4,a4,a5
    7400:	2a3c                	lbu	a5,18(a2)
    7402:	07c2                	slli	a5,a5,0x10
    7404:	8f5d                	or	a4,a4,a5
    7406:	3a3c                	lbu	a5,19(a2)
    7408:	07e2                	slli	a5,a5,0x18
    740a:	8fd9                	or	a5,a5,a4
    740c:	12f89e63          	bne	a7,a5,7548 <tcp_input+0x54a>
    7410:	32b8                	lbu	a4,3(a3)
    7412:	22bc                	lbu	a5,2(a3)
    7414:	0722                	slli	a4,a4,0x8
    7416:	8f5d                	or	a4,a4,a5
    7418:	01ca5783          	lhu	a5,28(s4)
    741c:	12e79663          	bne	a5,a4,7548 <tcp_input+0x54a>
    7420:	c901                	beqz	a0,7430 <tcp_input+0x432>
    7422:	00ca2783          	lw	a5,12(s4)
    7426:	9141a623          	sw	s4,-1780(gp) # 2000012c <tcp_listen_pcbs>
    742a:	c55c                	sw	a5,12(a0)
    742c:	006a2623          	sw	t1,12(s4)
    7430:	01087793          	andi	a5,a6,16
    7434:	c39d                	beqz	a5,745a <tcp_input+0x45c>
    7436:	329c                	lbu	a5,1(a3)
    7438:	0006c883          	lbu	a7,0(a3)
    743c:	000aa803          	lw	a6,0(s5)
    7440:	00092503          	lw	a0,0(s2)
    7444:	07a2                	slli	a5,a5,0x8
    7446:	00c60693          	addi	a3,a2,12
    744a:	0117e7b3          	or	a5,a5,a7
    744e:	0641                	addi	a2,a2,16
    7450:	95c2                	add	a1,a1,a6
    7452:	0505                	addi	a0,a0,1
    7454:	6bb000ef          	jal	ra,830e <tcp_rst>
    7458:	b101                	j	7058 <tcp_input+0x5a>
    745a:	00287813          	andi	a6,a6,2
    745e:	be080de3          	beqz	a6,7058 <tcp_input+0x5a>
    7462:	014a4503          	lbu	a0,20(s4)
    7466:	ea9fe0ef          	jal	ra,630e <tcp_alloc>
    746a:	842a                	mv	s0,a0
    746c:	be0506e3          	beqz	a0,7058 <tcp_input+0x5a>
    7470:	000b2783          	lw	a5,0(s6)
    7474:	4701                	li	a4,0
    7476:	01078693          	addi	a3,a5,16
    747a:	ca99                	beqz	a3,7490 <tcp_input+0x492>
    747c:	3b94                	lbu	a3,17(a5)
    747e:	2b98                	lbu	a4,16(a5)
    7480:	06a2                	slli	a3,a3,0x8
    7482:	8ed9                	or	a3,a3,a4
    7484:	2bb8                	lbu	a4,18(a5)
    7486:	0742                	slli	a4,a4,0x10
    7488:	8ed9                	or	a3,a3,a4
    748a:	3bb8                	lbu	a4,19(a5)
    748c:	0762                	slli	a4,a4,0x18
    748e:	8f55                	or	a4,a4,a3
    7490:	c018                	sw	a4,0(s0)
    7492:	01ca5703          	lhu	a4,28(s4)
    7496:	00c78693          	addi	a3,a5,12
    749a:	ac5a                	sh	a4,28(s0)
    749c:	4701                	li	a4,0
    749e:	ca99                	beqz	a3,74b4 <tcp_input+0x4b6>
    74a0:	37d4                	lbu	a3,13(a5)
    74a2:	27d8                	lbu	a4,12(a5)
    74a4:	06a2                	slli	a3,a3,0x8
    74a6:	8ed9                	or	a3,a3,a4
    74a8:	27f8                	lbu	a4,14(a5)
    74aa:	0742                	slli	a4,a4,0x10
    74ac:	8ed9                	or	a3,a3,a4
    74ae:	37f8                	lbu	a4,15(a5)
    74b0:	0762                	slli	a4,a4,0x18
    74b2:	8f55                	or	a4,a4,a3
    74b4:	4094                	lw	a3,0(s1)
    74b6:	c058                	sw	a4,4(s0)
    74b8:	04040513          	addi	a0,s0,64
    74bc:	329c                	lbu	a5,1(a3)
    74be:	2298                	lbu	a4,0(a3)
    74c0:	07a2                	slli	a5,a5,0x8
    74c2:	8fd9                	or	a5,a5,a4
    74c4:	000aa703          	lw	a4,0(s5)
    74c8:	b05e                	sh	a5,36(s0)
    74ca:	478d                	li	a5,3
    74cc:	c81c                	sw	a5,16(s0)
    74ce:	00170793          	addi	a5,a4,1
    74d2:	d41c                	sw	a5,40(s0)
    74d4:	d81c                	sw	a5,48(s0)
    74d6:	36fc                	lbu	a5,15(a3)
    74d8:	26f0                	lbu	a2,14(a3)
    74da:	177d                	addi	a4,a4,-1
    74dc:	07a2                	slli	a5,a5,0x8
    74de:	8fd1                	or	a5,a5,a2
    74e0:	06f41223          	sh	a5,100(s0)
    74e4:	04f41e23          	sh	a5,92(s0)
    74e8:	018a2783          	lw	a5,24(s4)
    74ec:	d438                	sw	a4,104(s0)
    74ee:	cc1c                	sw	a5,24(s0)
    74f0:	200097b7          	lui	a5,0x20009
    74f4:	b847d783          	lhu	a5,-1148(a5) # 20008b84 <WCHCfg+0x4>
    74f8:	b45e                	sh	a5,44(s0)
    74fa:	b47e                	sh	a5,46(s0)
    74fc:	020a2783          	lw	a5,32(s4)
    7500:	d01c                	sw	a5,32(s0)
    7502:	008a5783          	lhu	a5,8(s4)
    7506:	1997f793          	andi	a5,a5,409
    750a:	a41e                	sh	a5,8(s0)
    750c:	9041a783          	lw	a5,-1788(gp) # 20000124 <tcp_active_pcbs>
    7510:	9081a223          	sw	s0,-1788(gp) # 20000124 <tcp_active_pcbs>
    7514:	c45c                	sw	a5,12(s0)
    7516:	a43ff0ef          	jal	ra,6f58 <tcp_parseopt.isra.0>
    751a:	04045503          	lhu	a0,64(s0)
    751e:	00440593          	addi	a1,s0,4
    7522:	f31fe0ef          	jal	ra,6452 <tcp_eff_send_mss>
    7526:	04a41023          	sh	a0,64(s0)
    752a:	4785                	li	a5,1
    752c:	4701                	li	a4,0
    752e:	46c9                	li	a3,18
    7530:	4601                	li	a2,0
    7532:	4581                	li	a1,0
    7534:	8522                	mv	a0,s0
    7536:	2b8d                	jal	7aa8 <tcp_enqueue>
    7538:	c511                	beqz	a0,7544 <tcp_input+0x546>
    753a:	4581                	li	a1,0
    753c:	8522                	mv	a0,s0
    753e:	d27fe0ef          	jal	ra,6264 <tcp_abandon>
    7542:	be19                	j	7058 <tcp_input+0x5a>
    7544:	8522                	mv	a0,s0
    7546:	bd89                	j	7398 <tcp_input+0x39a>
    7548:	8552                	mv	a0,s4
    754a:	00ca2a03          	lw	s4,12(s4)
    754e:	bdb1                	j	73aa <tcp_input+0x3ac>
    7550:	4501                	li	a0,0
    7552:	be3fe0ef          	jal	ra,6134 <tcp_recv_null>
    7556:	b33d                	j	7284 <tcp_input+0x286>
    7558:	000aa783          	lw	a5,0(s5)
    755c:	5418                	lw	a4,40(s0)
    755e:	8f99                	sub	a5,a5,a4
    7560:	0007c663          	bltz	a5,756c <tcp_input+0x56e>
    7564:	345a                	lhu	a4,44(s0)
    7566:	8f99                	sub	a5,a5,a4
    7568:	d4f055e3          	blez	a5,72b2 <tcp_input+0x2b4>
    756c:	000a4783          	lbu	a5,0(s4)
    7570:	0087f713          	andi	a4,a5,8
    7574:	3e070063          	beqz	a4,7954 <tcp_input+0x956>
    7578:	00f10593          	addi	a1,sp,15
    757c:	8522                	mv	a0,s0
    757e:	ac3fb0ef          	jal	ra,3040 <WCHFindCorrectTCBPcb>
    7582:	4785                	li	a5,1
    7584:	00f51663          	bne	a0,a5,7590 <tcp_input+0x592>
    7588:	4818                	lw	a4,16(s0)
    758a:	4789                	li	a5,2
    758c:	1cf70163          	beq	a4,a5,774e <tcp_input+0x750>
    7590:	8522                	mv	a0,s0
    7592:	976fc0ef          	jal	ra,3708 <LwipRemoveTcpPcb>
    7596:	09c42783          	lw	a5,156(s0)
    759a:	c781                	beqz	a5,75a2 <tcp_input+0x5a4>
    759c:	4c08                	lw	a0,24(s0)
    759e:	55e9                	li	a1,-6
    75a0:	9782                	jalr	a5
    75a2:	85a2                	mv	a1,s0
    75a4:	90418513          	addi	a0,gp,-1788 # 20000124 <tcp_active_pcbs>
    75a8:	a69fe0ef          	jal	ra,6010 <tcp_pcb_remove>
    75ac:	85a2                	mv	a1,s0
    75ae:	4509                	li	a0,2
    75b0:	ecbfd0ef          	jal	ra,547a <memp_free>
    75b4:	aa69                	j	774e <tcp_input+0x750>
    75b6:	8b89                	andi	a5,a5,2
    75b8:	c385                	beqz	a5,75d8 <tcp_input+0x5da>
    75ba:	481c                	lw	a5,16(s0)
    75bc:	4705                	li	a4,1
    75be:	17f9                	addi	a5,a5,-2
    75c0:	00f77c63          	bgeu	a4,a5,75d8 <tcp_input+0x5da>
    75c4:	02644783          	lbu	a5,38(s0)
    75c8:	8522                	mv	a0,s0
    75ca:	0027e793          	ori	a5,a5,2
    75ce:	02f40323          	sb	a5,38(s0)
    75d2:	1d5000ef          	jal	ra,7fa6 <tcp_output>
    75d6:	bf59                	j	756c <tcp_input+0x56e>
    75d8:	9101a783          	lw	a5,-1776(gp) # 20000130 <tcp_ticks>
    75dc:	0a0408a3          	sb	zero,177(s0)
    75e0:	04040513          	addi	a0,s0,64
    75e4:	dc1c                	sw	a5,56(s0)
    75e6:	973ff0ef          	jal	ra,6f58 <tcp_parseopt.isra.0>
    75ea:	481c                	lw	a5,16(s0)
    75ec:	471d                	li	a4,7
    75ee:	17f9                	addi	a5,a5,-2
    75f0:	f6f76ee3          	bltu	a4,a5,756c <tcp_input+0x56e>
    75f4:	6729                	lui	a4,0xa
    75f6:	078a                	slli	a5,a5,0x2
    75f8:	82070713          	addi	a4,a4,-2016 # 9820 <tcp_backoff+0x10>
    75fc:	97ba                	add	a5,a5,a4
    75fe:	439c                	lw	a5,0(a5)
    7600:	8782                	jr	a5
    7602:	000cc783          	lbu	a5,0(s9)
    7606:	4749                	li	a4,18
    7608:	8bc9                	andi	a5,a5,18
    760a:	0ce79263          	bne	a5,a4,76ce <tcp_input+0x6d0>
    760e:	08042783          	lw	a5,128(s0)
    7612:	4b98                	lw	a4,16(a5)
    7614:	3348                	lbu	a0,5(a4)
    7616:	235c                	lbu	a5,4(a4)
    7618:	0522                	slli	a0,a0,0x8
    761a:	8d5d                	or	a0,a0,a5
    761c:	237c                	lbu	a5,6(a4)
    761e:	07c2                	slli	a5,a5,0x10
    7620:	8fc9                	or	a5,a5,a0
    7622:	3368                	lbu	a0,7(a4)
    7624:	0562                	slli	a0,a0,0x18
    7626:	8d5d                	or	a0,a0,a5
    7628:	c7dfc0ef          	jal	ra,42a4 <ntohl>
    762c:	00092783          	lw	a5,0(s2)
    7630:	0505                	addi	a0,a0,1
    7632:	08f51e63          	bne	a0,a5,76ce <tcp_input+0x6d0>
    7636:	07645783          	lhu	a5,118(s0)
    763a:	000aa703          	lw	a4,0(s5)
    763e:	4094                	lw	a3,0(s1)
    7640:	0785                	addi	a5,a5,1
    7642:	06f41b23          	sh	a5,118(s0)
    7646:	00170793          	addi	a5,a4,1
    764a:	c868                	sw	a0,84(s0)
    764c:	d41c                	sw	a5,40(s0)
    764e:	d81c                	sw	a5,48(s0)
    7650:	36fc                	lbu	a5,15(a3)
    7652:	26f0                	lbu	a2,14(a3)
    7654:	04045503          	lhu	a0,64(s0)
    7658:	07a2                	slli	a5,a5,0x8
    765a:	8fd1                	or	a5,a5,a2
    765c:	177d                	addi	a4,a4,-1
    765e:	06f41223          	sh	a5,100(s0)
    7662:	4791                	li	a5,4
    7664:	d438                	sw	a4,104(s0)
    7666:	c81c                	sw	a5,16(s0)
    7668:	00440593          	addi	a1,s0,4
    766c:	de7fe0ef          	jal	ra,6452 <tcp_eff_send_mss>
    7670:	47a9                	li	a5,10
    7672:	02f507b3          	mul	a5,a0,a5
    7676:	05a45703          	lhu	a4,90(s0)
    767a:	04a41023          	sh	a0,64(s0)
    767e:	04f41e23          	sh	a5,92(s0)
    7682:	4785                	li	a5,1
    7684:	00f71563          	bne	a4,a5,768e <tcp_input+0x690>
    7688:	0506                	slli	a0,a0,0x1
    768a:	0542                	slli	a0,a0,0x10
    768c:	8141                	srli	a0,a0,0x10
    768e:	07845783          	lhu	a5,120(s0)
    7692:	04a41d23          	sh	a0,90(s0)
    7696:	08042503          	lw	a0,128(s0)
    769a:	17fd                	addi	a5,a5,-1
    769c:	06f41c23          	sh	a5,120(s0)
    76a0:	411c                	lw	a5,0(a0)
    76a2:	04040923          	sb	zero,82(s0)
    76a6:	04042223          	sw	zero,68(s0)
    76aa:	08f42023          	sw	a5,128(s0)
    76ae:	0017b793          	seqz	a5,a5
    76b2:	40f007b3          	neg	a5,a5
    76b6:	bc7e                	sh	a5,62(s0)
    76b8:	dc0fe0ef          	jal	ra,5c78 <tcp_seg_free>
    76bc:	09442783          	lw	a5,148(s0)
    76c0:	f00782e3          	beqz	a5,75c4 <tcp_input+0x5c6>
    76c4:	4c08                	lw	a0,24(s0)
    76c6:	4601                	li	a2,0
    76c8:	85a2                	mv	a1,s0
    76ca:	9782                	jalr	a5
    76cc:	bde5                	j	75c4 <tcp_input+0x5c6>
    76ce:	000cc783          	lbu	a5,0(s9)
    76d2:	8bc1                	andi	a5,a5,16
    76d4:	e8078ce3          	beqz	a5,756c <tcp_input+0x56e>
    76d8:	4094                	lw	a3,0(s1)
    76da:	000c5503          	lhu	a0,0(s8)
    76de:	000aa583          	lw	a1,0(s5)
    76e2:	329c                	lbu	a5,1(a3)
    76e4:	32b8                	lbu	a4,3(a3)
    76e6:	000b2603          	lw	a2,0(s6)
    76ea:	0006c883          	lbu	a7,0(a3)
    76ee:	0026c803          	lbu	a6,2(a3)
    76f2:	95aa                	add	a1,a1,a0
    76f4:	00092503          	lw	a0,0(s2)
    76f8:	07a2                	slli	a5,a5,0x8
    76fa:	0722                	slli	a4,a4,0x8
    76fc:	00c60693          	addi	a3,a2,12
    7700:	0117e7b3          	or	a5,a5,a7
    7704:	01076733          	or	a4,a4,a6
    7708:	0641                	addi	a2,a2,16
    770a:	405000ef          	jal	ra,830e <tcp_rst>
    770e:	bdb9                	j	756c <tcp_input+0x56e>
    7710:	000cc783          	lbu	a5,0(s9)
    7714:	0107f713          	andi	a4,a5,16
    7718:	c769                	beqz	a4,77e2 <tcp_input+0x7e4>
    771a:	00092503          	lw	a0,0(s2)
    771e:	4878                	lw	a4,84(s0)
    7720:	fff50793          	addi	a5,a0,-1
    7724:	8f99                	sub	a5,a5,a4
    7726:	0807c663          	bltz	a5,77b2 <tcp_input+0x7b4>
    772a:	503c                	lw	a5,96(s0)
    772c:	40f507b3          	sub	a5,a0,a5
    7730:	08f04163          	bgtz	a5,77b2 <tcp_input+0x7b4>
    7734:	4791                	li	a5,4
    7736:	c81c                	sw	a5,16(s0)
    7738:	501c                	lw	a5,32(s0)
    773a:	c78d                	beqz	a5,7764 <tcp_input+0x766>
    773c:	4c08                	lw	a0,24(s0)
    773e:	4601                	li	a2,0
    7740:	85a2                	mv	a1,s0
    7742:	9782                	jalr	a5
    7744:	c105                	beqz	a0,7764 <tcp_input+0x766>
    7746:	4585                	li	a1,1
    7748:	8522                	mv	a0,s0
    774a:	b1bfe0ef          	jal	ra,6264 <tcp_abandon>
    774e:	004da503          	lw	a0,4(s11)
    7752:	000ba023          	sw	zero,0(s7)
    7756:	900504e3          	beqz	a0,705e <tcp_input+0x60>
    775a:	ef3fd0ef          	jal	ra,564c <pbuf_free>
    775e:	000da223          	sw	zero,4(s11)
    7762:	b8f5                	j	705e <tcp_input+0x60>
    7764:	8522                	mv	a0,s0
    7766:	05a45483          	lhu	s1,90(s0)
    776a:	efffe0ef          	jal	ra,6668 <tcp_receive>
    776e:	07445783          	lhu	a5,116(s0)
    7772:	c781                	beqz	a5,777a <tcp_input+0x77c>
    7774:	17fd                	addi	a5,a5,-1
    7776:	06f41a23          	sh	a5,116(s0)
    777a:	4705                	li	a4,1
    777c:	04045783          	lhu	a5,64(s0)
    7780:	00e49563          	bne	s1,a4,778a <tcp_input+0x78c>
    7784:	0786                	slli	a5,a5,0x1
    7786:	07c2                	slli	a5,a5,0x10
    7788:	83c1                	srli	a5,a5,0x10
    778a:	04f41d23          	sh	a5,90(s0)
    778e:	000a4783          	lbu	a5,0(s4)
    7792:	0207f793          	andi	a5,a5,32
    7796:	dc078be3          	beqz	a5,756c <tcp_input+0x56e>
    779a:	02644783          	lbu	a5,38(s0)
    779e:	8522                	mv	a0,s0
    77a0:	0027e793          	ori	a5,a5,2
    77a4:	02f40323          	sb	a5,38(s0)
    77a8:	7fe000ef          	jal	ra,7fa6 <tcp_output>
    77ac:	479d                	li	a5,7
    77ae:	c81c                	sw	a5,16(s0)
    77b0:	bb75                	j	756c <tcp_input+0x56e>
    77b2:	4094                	lw	a3,0(s1)
    77b4:	000b2603          	lw	a2,0(s6)
    77b8:	000c5803          	lhu	a6,0(s8)
    77bc:	329c                	lbu	a5,1(a3)
    77be:	32b8                	lbu	a4,3(a3)
    77c0:	0006c303          	lbu	t1,0(a3)
    77c4:	0026c883          	lbu	a7,2(a3)
    77c8:	000aa583          	lw	a1,0(s5)
    77cc:	07a2                	slli	a5,a5,0x8
    77ce:	0722                	slli	a4,a4,0x8
    77d0:	00c60693          	addi	a3,a2,12
    77d4:	0067e7b3          	or	a5,a5,t1
    77d8:	01176733          	or	a4,a4,a7
    77dc:	0641                	addi	a2,a2,16
    77de:	95c2                	add	a1,a1,a6
    77e0:	b72d                	j	770a <tcp_input+0x70c>
    77e2:	8b89                	andi	a5,a5,2
    77e4:	d80784e3          	beqz	a5,756c <tcp_input+0x56e>
    77e8:	541c                	lw	a5,40(s0)
    77ea:	000aa703          	lw	a4,0(s5)
    77ee:	17fd                	addi	a5,a5,-1
    77f0:	d6e79ee3          	bne	a5,a4,756c <tcp_input+0x56e>
    77f4:	8522                	mv	a0,s0
    77f6:	457000ef          	jal	ra,844c <tcp_rexmit>
    77fa:	bb8d                	j	756c <tcp_input+0x56e>
    77fc:	8522                	mv	a0,s0
    77fe:	e6bfe0ef          	jal	ra,6668 <tcp_receive>
    7802:	b771                	j	778e <tcp_input+0x790>
    7804:	8522                	mv	a0,s0
    7806:	e63fe0ef          	jal	ra,6668 <tcp_receive>
    780a:	000a4783          	lbu	a5,0(s4)
    780e:	0207f793          	andi	a5,a5,32
    7812:	c3c1                	beqz	a5,7892 <tcp_input+0x894>
    7814:	000cc703          	lbu	a4,0(s9)
    7818:	02644783          	lbu	a5,38(s0)
    781c:	8b41                	andi	a4,a4,16
    781e:	0027e793          	ori	a5,a5,2
    7822:	c32d                	beqz	a4,7884 <tcp_input+0x886>
    7824:	5034                	lw	a3,96(s0)
    7826:	00092703          	lw	a4,0(s2)
    782a:	04e69d63          	bne	a3,a4,7884 <tcp_input+0x886>
    782e:	02f40323          	sb	a5,38(s0)
    7832:	8522                	mv	a0,s0
    7834:	772000ef          	jal	ra,7fa6 <tcp_output>
    7838:	8522                	mv	a0,s0
    783a:	ccefe0ef          	jal	ra,5d08 <tcp_pcb_purge>
    783e:	9041a783          	lw	a5,-1788(gp) # 20000124 <tcp_active_pcbs>
    7842:	00f41d63          	bne	s0,a5,785c <tcp_input+0x85e>
    7846:	445c                	lw	a5,12(s0)
    7848:	90f1a223          	sw	a5,-1788(gp) # 20000124 <tcp_active_pcbs>
    784c:	47a9                	li	a5,10
    784e:	c81c                	sw	a5,16(s0)
    7850:	91c1a703          	lw	a4,-1764(gp) # 2000013c <tcp_tw_pcbs>
    7854:	9081ae23          	sw	s0,-1764(gp) # 2000013c <tcp_tw_pcbs>
    7858:	c458                	sw	a4,12(s0)
    785a:	bb09                	j	756c <tcp_input+0x56e>
    785c:	90f1ac23          	sw	a5,-1768(gp) # 20000138 <tcp_tmp_pcb>
    7860:	4681                	li	a3,0
    7862:	e789                	bnez	a5,786c <tcp_input+0x86e>
    7864:	d6e5                	beqz	a3,784c <tcp_input+0x84e>
    7866:	9001ac23          	sw	zero,-1768(gp) # 20000138 <tcp_tmp_pcb>
    786a:	b7cd                	j	784c <tcp_input+0x84e>
    786c:	47d0                	lw	a2,12(a5)
    786e:	00c41863          	bne	s0,a2,787e <tcp_input+0x880>
    7872:	c299                	beqz	a3,7878 <tcp_input+0x87a>
    7874:	90f1ac23          	sw	a5,-1768(gp) # 20000138 <tcp_tmp_pcb>
    7878:	4458                	lw	a4,12(s0)
    787a:	c7d8                	sw	a4,12(a5)
    787c:	bfc1                	j	784c <tcp_input+0x84e>
    787e:	4685                	li	a3,1
    7880:	87b2                	mv	a5,a2
    7882:	b7c5                	j	7862 <tcp_input+0x864>
    7884:	02f40323          	sb	a5,38(s0)
    7888:	8522                	mv	a0,s0
    788a:	71c000ef          	jal	ra,7fa6 <tcp_output>
    788e:	47a1                	li	a5,8
    7890:	bf39                	j	77ae <tcp_input+0x7b0>
    7892:	000cc783          	lbu	a5,0(s9)
    7896:	8bc1                	andi	a5,a5,16
    7898:	cc078ae3          	beqz	a5,756c <tcp_input+0x56e>
    789c:	5038                	lw	a4,96(s0)
    789e:	00092783          	lw	a5,0(s2)
    78a2:	ccf715e3          	bne	a4,a5,756c <tcp_input+0x56e>
    78a6:	4799                	li	a5,6
    78a8:	b719                	j	77ae <tcp_input+0x7b0>
    78aa:	8522                	mv	a0,s0
    78ac:	dbdfe0ef          	jal	ra,6668 <tcp_receive>
    78b0:	000a4783          	lbu	a5,0(s4)
    78b4:	0207f793          	andi	a5,a5,32
    78b8:	ca078ae3          	beqz	a5,756c <tcp_input+0x56e>
    78bc:	02644783          	lbu	a5,38(s0)
    78c0:	8522                	mv	a0,s0
    78c2:	0027e793          	ori	a5,a5,2
    78c6:	02f40323          	sb	a5,38(s0)
    78ca:	6dc000ef          	jal	ra,7fa6 <tcp_output>
    78ce:	8522                	mv	a0,s0
    78d0:	c38fe0ef          	jal	ra,5d08 <tcp_pcb_purge>
    78d4:	9041a783          	lw	a5,-1788(gp) # 20000124 <tcp_active_pcbs>
    78d8:	f6f407e3          	beq	s0,a5,7846 <tcp_input+0x848>
    78dc:	90f1ac23          	sw	a5,-1768(gp) # 20000138 <tcp_tmp_pcb>
    78e0:	4681                	li	a3,0
    78e2:	d3c9                	beqz	a5,7864 <tcp_input+0x866>
    78e4:	47d0                	lw	a2,12(a5)
    78e6:	f8c406e3          	beq	s0,a2,7872 <tcp_input+0x874>
    78ea:	4685                	li	a3,1
    78ec:	87b2                	mv	a5,a2
    78ee:	bfd5                	j	78e2 <tcp_input+0x8e4>
    78f0:	8522                	mv	a0,s0
    78f2:	d77fe0ef          	jal	ra,6668 <tcp_receive>
    78f6:	000cc783          	lbu	a5,0(s9)
    78fa:	8bc1                	andi	a5,a5,16
    78fc:	c60788e3          	beqz	a5,756c <tcp_input+0x56e>
    7900:	5038                	lw	a4,96(s0)
    7902:	00092783          	lw	a5,0(s2)
    7906:	c6f713e3          	bne	a4,a5,756c <tcp_input+0x56e>
    790a:	8522                	mv	a0,s0
    790c:	bfcfe0ef          	jal	ra,5d08 <tcp_pcb_purge>
    7910:	9041a783          	lw	a5,-1788(gp) # 20000124 <tcp_active_pcbs>
    7914:	f2f409e3          	beq	s0,a5,7846 <tcp_input+0x848>
    7918:	90f1ac23          	sw	a5,-1768(gp) # 20000138 <tcp_tmp_pcb>
    791c:	4681                	li	a3,0
    791e:	d3b9                	beqz	a5,7864 <tcp_input+0x866>
    7920:	47d0                	lw	a2,12(a5)
    7922:	f4c408e3          	beq	s0,a2,7872 <tcp_input+0x874>
    7926:	4685                	li	a3,1
    7928:	87b2                	mv	a5,a2
    792a:	bfd5                	j	791e <tcp_input+0x920>
    792c:	8522                	mv	a0,s0
    792e:	d3bfe0ef          	jal	ra,6668 <tcp_receive>
    7932:	000cc783          	lbu	a5,0(s9)
    7936:	8bc1                	andi	a5,a5,16
    7938:	c2078ae3          	beqz	a5,756c <tcp_input+0x56e>
    793c:	5038                	lw	a4,96(s0)
    793e:	00092783          	lw	a5,0(s2)
    7942:	c2f715e3          	bne	a4,a5,756c <tcp_input+0x56e>
    7946:	000a4783          	lbu	a5,0(s4)
    794a:	0107e793          	ori	a5,a5,16
    794e:	00fa0023          	sb	a5,0(s4)
    7952:	b929                	j	756c <tcp_input+0x56e>
    7954:	8bc1                	andi	a5,a5,16
    7956:	c789                	beqz	a5,7960 <tcp_input+0x962>
    7958:	8522                	mv	a0,s0
    795a:	daffb0ef          	jal	ra,3708 <LwipRemoveTcpPcb>
    795e:	b191                	j	75a2 <tcp_input+0x5a4>
    7960:	07445603          	lhu	a2,116(s0)
    7964:	c619                	beqz	a2,7972 <tcp_input+0x974>
    7966:	08c42783          	lw	a5,140(s0)
    796a:	c781                	beqz	a5,7972 <tcp_input+0x974>
    796c:	4c08                	lw	a0,24(s0)
    796e:	85a2                	mv	a1,s0
    7970:	9782                	jalr	a5
    7972:	000d2603          	lw	a2,0(s10)
    7976:	c60d                	beqz	a2,79a0 <tcp_input+0x9a2>
    7978:	000cc783          	lbu	a5,0(s9)
    797c:	8ba1                	andi	a5,a5,8
    797e:	c789                	beqz	a5,7988 <tcp_input+0x98a>
    7980:	365c                	lbu	a5,13(a2)
    7982:	0017e793          	ori	a5,a5,1
    7986:	b65c                	sb	a5,13(a2)
    7988:	09042783          	lw	a5,144(s0)
    798c:	4681                	li	a3,0
    798e:	85a2                	mv	a1,s0
    7990:	cb95                	beqz	a5,79c4 <tcp_input+0x9c6>
    7992:	4c08                	lw	a0,24(s0)
    7994:	9782                	jalr	a5
    7996:	c509                	beqz	a0,79a0 <tcp_input+0x9a2>
    7998:	000d2783          	lw	a5,0(s10)
    799c:	08f42423          	sw	a5,136(s0)
    79a0:	000a4783          	lbu	a5,0(s4)
    79a4:	0207f793          	andi	a5,a5,32
    79a8:	cb89                	beqz	a5,79ba <tcp_input+0x9bc>
    79aa:	09042783          	lw	a5,144(s0)
    79ae:	4681                	li	a3,0
    79b0:	4601                	li	a2,0
    79b2:	85a2                	mv	a1,s0
    79b4:	cf81                	beqz	a5,79cc <tcp_input+0x9ce>
    79b6:	4c08                	lw	a0,24(s0)
    79b8:	9782                	jalr	a5
    79ba:	8522                	mv	a0,s0
    79bc:	000ba023          	sw	zero,0(s7)
    79c0:	23dd                	jal	7fa6 <tcp_output>
    79c2:	b371                	j	774e <tcp_input+0x750>
    79c4:	4501                	li	a0,0
    79c6:	f6efe0ef          	jal	ra,6134 <tcp_recv_null>
    79ca:	b7f1                	j	7996 <tcp_input+0x998>
    79cc:	4501                	li	a0,0
    79ce:	f66fe0ef          	jal	ra,6134 <tcp_recv_null>
    79d2:	b7e5                	j	79ba <tcp_input+0x9bc>

000079d4 <tcp_output_set_header.isra.0.constprop.1>:
    79d4:	81df82ef          	jal	t0,1f0 <__riscv_save_0>
    79d8:	892a                	mv	s2,a0
    79da:	2d4a                	lhu	a0,28(a0)
    79dc:	1141                	addi	sp,sp,-16
    79de:	842e                	mv	s0,a1
    79e0:	c632                	sw	a2,12(sp)
    79e2:	883fc0ef          	jal	ra,4264 <htons>
    79e6:	a008                	sb	a0,0(s0)
    79e8:	8121                	srli	a0,a0,0x8
    79ea:	b008                	sb	a0,1(s0)
    79ec:	02495503          	lhu	a0,36(s2)
    79f0:	875fc0ef          	jal	ra,4264 <htons>
    79f4:	4632                	lw	a2,12(sp)
    79f6:	a028                	sb	a0,2(s0)
    79f8:	8121                	srli	a0,a0,0x8
    79fa:	b028                	sb	a0,3(s0)
    79fc:	00865793          	srli	a5,a2,0x8
    7a00:	02892503          	lw	a0,40(s2)
    7a04:	a050                	sb	a2,4(s0)
    7a06:	b05c                	sb	a5,5(s0)
    7a08:	01065793          	srli	a5,a2,0x10
    7a0c:	8261                	srli	a2,a2,0x18
    7a0e:	b070                	sb	a2,7(s0)
    7a10:	a07c                	sb	a5,6(s0)
    7a12:	86ffc0ef          	jal	ra,4280 <htonl>
    7a16:	00855793          	srli	a5,a0,0x8
    7a1a:	a408                	sb	a0,8(s0)
    7a1c:	b41c                	sb	a5,9(s0)
    7a1e:	3444                	lbu	s1,13(s0)
    7a20:	01055793          	srli	a5,a0,0x10
    7a24:	8161                	srli	a0,a0,0x18
    7a26:	b428                	sb	a0,11(s0)
    7a28:	2448                	lbu	a0,12(s0)
    7a2a:	04a2                	slli	s1,s1,0x8
    7a2c:	a43c                	sb	a5,10(s0)
    7a2e:	8cc9                	or	s1,s1,a0
    7a30:	6541                	lui	a0,0x10
    7a32:	fc050513          	addi	a0,a0,-64 # ffc0 <_data_lma+0x6778>
    7a36:	82ffc0ef          	jal	ra,4264 <htons>
    7a3a:	8ce9                	and	s1,s1,a0
    7a3c:	4541                	li	a0,16
    7a3e:	827fc0ef          	jal	ra,4264 <htons>
    7a42:	8d45                	or	a0,a0,s1
    7a44:	0542                	slli	a0,a0,0x10
    7a46:	8141                	srli	a0,a0,0x10
    7a48:	a448                	sb	a0,12(s0)
    7a4a:	8121                	srli	a0,a0,0x8
    7a4c:	b448                	sb	a0,13(s0)
    7a4e:	02e95503          	lhu	a0,46(s2)
    7a52:	813fc0ef          	jal	ra,4264 <htons>
    7a56:	02e95783          	lhu	a5,46(s2)
    7a5a:	a468                	sb	a0,14(s0)
    7a5c:	8121                	srli	a0,a0,0x8
    7a5e:	b468                	sb	a0,15(s0)
    7a60:	02f91b23          	sh	a5,54(s2)
    7a64:	345c                	lbu	a5,13(s0)
    7a66:	2448                	lbu	a0,12(s0)
    7a68:	00040923          	sb	zero,18(s0)
    7a6c:	07a2                	slli	a5,a5,0x8
    7a6e:	000409a3          	sb	zero,19(s0)
    7a72:	8d5d                	or	a0,a0,a5
    7a74:	ffefc0ef          	jal	ra,4272 <ntohs>
    7a78:	6795                	lui	a5,0x5
    7a7a:	03f57513          	andi	a0,a0,63
    7a7e:	8d5d                	or	a0,a0,a5
    7a80:	fe4fc0ef          	jal	ra,4264 <htons>
    7a84:	02e95703          	lhu	a4,46(s2)
    7a88:	02892783          	lw	a5,40(s2)
    7a8c:	a448                	sb	a0,12(s0)
    7a8e:	8121                	srli	a0,a0,0x8
    7a90:	b448                	sb	a0,13(s0)
    7a92:	00040823          	sb	zero,16(s0)
    7a96:	000408a3          	sb	zero,17(s0)
    7a9a:	97ba                	add	a5,a5,a4
    7a9c:	02f92823          	sw	a5,48(s2)
    7aa0:	8522                	mv	a0,s0
    7aa2:	0141                	addi	sp,sp,16
    7aa4:	f70f806f          	j	214 <__riscv_restore_0>

00007aa8 <tcp_enqueue>:
    7aa8:	f18f82ef          	jal	t0,1c0 <__riscv_save_12>
    7aac:	7179                	addi	sp,sp,-48
    7aae:	c62e                	sw	a1,12(sp)
    7ab0:	ca3a                	sw	a4,20(sp)
    7ab2:	892a                	mv	s2,a0
    7ab4:	8ab2                	mv	s5,a2
    7ab6:	8b36                	mv	s6,a3
    7ab8:	8dbe                	mv	s11,a5
    7aba:	ee01                	bnez	a2,7ad2 <tcp_enqueue+0x2a>
    7abc:	0036f793          	andi	a5,a3,3
    7ac0:	00fde7b3          	or	a5,s11,a5
    7ac4:	5a59                	li	s4,-10
    7ac6:	c391                	beqz	a5,7aca <tcp_enqueue+0x22>
    7ac8:	c18d                	beqz	a1,7aea <tcp_enqueue+0x42>
    7aca:	8552                	mv	a0,s4
    7acc:	6145                	addi	sp,sp,48
    7ace:	f2ef806f          	j	1fc <__riscv_restore_12>
    7ad2:	07655783          	lhu	a5,118(a0)
    7ad6:	00c7fa63          	bgeu	a5,a2,7aea <tcp_enqueue+0x42>
    7ada:	02694783          	lbu	a5,38(s2)
    7ade:	5a7d                	li	s4,-1
    7ae0:	f807e793          	ori	a5,a5,-128
    7ae4:	02f90323          	sb	a5,38(s2)
    7ae8:	b7cd                	j	7aca <tcp_enqueue+0x22>
    7aea:	002d9793          	slli	a5,s11,0x2
    7aee:	002df713          	andi	a4,s11,2
    7af2:	8b91                	andi	a5,a5,4
    7af4:	46b1                	li	a3,12
    7af6:	e311                	bnez	a4,7afa <tcp_enqueue+0x52>
    7af8:	4681                	li	a3,0
    7afa:	97b6                	add	a5,a5,a3
    7afc:	c23e                	sw	a5,4(sp)
    7afe:	07092783          	lw	a5,112(s2)
    7b02:	20009d37          	lui	s10,0x20009
    7b06:	b80d0713          	addi	a4,s10,-1152 # 20008b80 <WCHCfg>
    7b0a:	c43e                	sw	a5,8(sp)
    7b0c:	471c                	lw	a5,8(a4)
    7b0e:	4358                	lw	a4,4(a4)
    7b10:	07895483          	lhu	s1,120(s2)
    7b14:	078a                	slli	a5,a5,0x2
    7b16:	02e7d7b3          	divu	a5,a5,a4
    7b1a:	b80d0d13          	addi	s10,s10,-1152
    7b1e:	faf4fee3          	bgeu	s1,a5,7ada <tcp_enqueue+0x32>
    7b22:	6741                	lui	a4,0x10
    7b24:	ffc70693          	addi	a3,a4,-4 # fffc <_data_lma+0x67b4>
    7b28:	fa96e9e3          	bltu	a3,s1,7ada <tcp_enqueue+0x32>
    7b2c:	4792                	lw	a5,4(sp)
    7b2e:	8230                	lhu	a2,4(sp)
    7b30:	fc070713          	addi	a4,a4,-64
    7b34:	8389                	srli	a5,a5,0x2
    7b36:	0ff7f793          	andi	a5,a5,255
    7b3a:	0795                	addi	a5,a5,5
    7b3c:	c832                	sw	a2,16(sp)
    7b3e:	4652                	lw	a2,20(sp)
    7b40:	07b2                	slli	a5,a5,0xc
    7b42:	07c2                	slli	a5,a5,0x10
    7b44:	d23a                	sw	a4,36(sp)
    7b46:	4cb2                	lw	s9,12(sp)
    7b48:	010b1713          	slli	a4,s6,0x10
    7b4c:	83c1                	srli	a5,a5,0x10
    7b4e:	8a05                	andi	a2,a2,1
    7b50:	8341                	srli	a4,a4,0x10
    7b52:	cc3e                	sw	a5,24(sp)
    7b54:	8bd6                	mv	s7,s5
    7b56:	4981                	li	s3,0
    7b58:	4781                	li	a5,0
    7b5a:	ce32                	sw	a2,28(sp)
    7b5c:	d036                	sw	a3,32(sp)
    7b5e:	d43a                	sw	a4,40(sp)
    7b60:	04095a03          	lhu	s4,64(s2)
    7b64:	4712                	lw	a4,4(sp)
    7b66:	40ea0a33          	sub	s4,s4,a4
    7b6a:	014bd363          	bge	s7,s4,7b70 <tcp_enqueue+0xc8>
    7b6e:	8a5e                	mv	s4,s7
    7b70:	4511                	li	a0,4
    7b72:	d63e                	sw	a5,44(sp)
    7b74:	010a1c13          	slli	s8,s4,0x10
    7b78:	8e3fd0ef          	jal	ra,545a <memp_malloc>
    7b7c:	010c5c13          	srli	s8,s8,0x10
    7b80:	842a                	mv	s0,a0
    7b82:	18050663          	beqz	a0,7d0e <tcp_enqueue+0x266>
    7b86:	00052023          	sw	zero,0(a0)
    7b8a:	00052223          	sw	zero,4(a0)
    7b8e:	14098463          	beqz	s3,7cd6 <tcp_enqueue+0x22e>
    7b92:	57b2                	lw	a5,44(sp)
    7b94:	c388                	sw	a0,0(a5)
    7b96:	47f2                	lw	a5,28(sp)
    7b98:	14078163          	beqz	a5,7cda <tcp_enqueue+0x232>
    7b9c:	47c2                	lw	a5,16(sp)
    7b9e:	4601                	li	a2,0
    7ba0:	4501                	li	a0,0
    7ba2:	00fc05b3          	add	a1,s8,a5
    7ba6:	05c2                	slli	a1,a1,0x10
    7ba8:	81c1                	srli	a1,a1,0x10
    7baa:	af1fd0ef          	jal	ra,569a <pbuf_alloc>
    7bae:	c048                	sw	a0,4(s0)
    7bb0:	14050f63          	beqz	a0,7d0e <tcp_enqueue+0x266>
    7bb4:	c7ffd0ef          	jal	ra,5832 <pbuf_clen>
    7bb8:	47b2                	lw	a5,12(sp)
    7bba:	94aa                	add	s1,s1,a0
    7bbc:	04c2                	slli	s1,s1,0x10
    7bbe:	80c1                	srli	s1,s1,0x10
    7bc0:	cf81                	beqz	a5,7bd8 <tcp_enqueue+0x130>
    7bc2:	405c                	lw	a5,4(s0)
    7bc4:	85e6                	mv	a1,s9
    7bc6:	43c8                	lw	a0,4(a5)
    7bc8:	67c1                	lui	a5,0x10
    7bca:	17fd                	addi	a5,a5,-1
    7bcc:	00fa7633          	and	a2,s4,a5
    7bd0:	4792                	lw	a5,4(sp)
    7bd2:	953e                	add	a0,a0,a5
    7bd4:	1d5010ef          	jal	ra,95a8 <memcpy>
    7bd8:	405c                	lw	a5,4(s0)
    7bda:	43dc                	lw	a5,4(a5)
    7bdc:	c41c                	sw	a5,8(s0)
    7bde:	008d2783          	lw	a5,8(s10)
    7be2:	004d2703          	lw	a4,4(s10)
    7be6:	078a                	slli	a5,a5,0x2
    7be8:	02e7d7b3          	divu	a5,a5,a4
    7bec:	1297e163          	bltu	a5,s1,7d0e <tcp_enqueue+0x266>
    7bf0:	5782                	lw	a5,32(sp)
    7bf2:	1097ee63          	bltu	a5,s1,7d0e <tcp_enqueue+0x266>
    7bf6:	4048                	lw	a0,4(s0)
    7bf8:	01841623          	sh	s8,12(s0)
    7bfc:	45d1                	li	a1,20
    7bfe:	9e1fd0ef          	jal	ra,55de <pbuf_header>
    7c02:	10051663          	bnez	a0,7d0e <tcp_enqueue+0x266>
    7c06:	405c                	lw	a5,4(s0)
    7c08:	01c95503          	lhu	a0,28(s2)
    7c0c:	418b8bb3          	sub	s7,s7,s8
    7c10:	43dc                	lw	a5,4(a5)
    7c12:	0bc2                	slli	s7,s7,0x10
    7c14:	010bdb93          	srli	s7,s7,0x10
    7c18:	c81c                	sw	a5,16(s0)
    7c1a:	d63e                	sw	a5,44(sp)
    7c1c:	e48fc0ef          	jal	ra,4264 <htons>
    7c20:	57b2                	lw	a5,44(sp)
    7c22:	a388                	sb	a0,0(a5)
    7c24:	8121                	srli	a0,a0,0x8
    7c26:	b388                	sb	a0,1(a5)
    7c28:	481c                	lw	a5,16(s0)
    7c2a:	02495503          	lhu	a0,36(s2)
    7c2e:	d63e                	sw	a5,44(sp)
    7c30:	e34fc0ef          	jal	ra,4264 <htons>
    7c34:	57b2                	lw	a5,44(sp)
    7c36:	a3a8                	sb	a0,2(a5)
    7c38:	8121                	srli	a0,a0,0x8
    7c3a:	b3a8                	sb	a0,3(a5)
    7c3c:	481c                	lw	a5,16(s0)
    7c3e:	4522                	lw	a0,8(sp)
    7c40:	d63e                	sw	a5,44(sp)
    7c42:	e3efc0ef          	jal	ra,4280 <htonl>
    7c46:	57b2                	lw	a5,44(sp)
    7c48:	00855713          	srli	a4,a0,0x8
    7c4c:	b3d8                	sb	a4,5(a5)
    7c4e:	01055713          	srli	a4,a0,0x10
    7c52:	a3f8                	sb	a4,6(a5)
    7c54:	4818                	lw	a4,16(s0)
    7c56:	a3c8                	sb	a0,4(a5)
    7c58:	8161                	srli	a0,a0,0x18
    7c5a:	b3e8                	sb	a0,7(a5)
    7c5c:	375c                	lbu	a5,13(a4)
    7c5e:	2748                	lbu	a0,12(a4)
    7c60:	00070923          	sb	zero,18(a4)
    7c64:	07a2                	slli	a5,a5,0x8
    7c66:	8fc9                	or	a5,a5,a0
    7c68:	5512                	lw	a0,36(sp)
    7c6a:	000709a3          	sb	zero,19(a4)
    7c6e:	d63e                	sw	a5,44(sp)
    7c70:	df4fc0ef          	jal	ra,4264 <htons>
    7c74:	57b2                	lw	a5,44(sp)
    7c76:	8fe9                	and	a5,a5,a0
    7c78:	5522                	lw	a0,40(sp)
    7c7a:	d63e                	sw	a5,44(sp)
    7c7c:	de8fc0ef          	jal	ra,4264 <htons>
    7c80:	57b2                	lw	a5,44(sp)
    7c82:	8d5d                	or	a0,a0,a5
    7c84:	0542                	slli	a0,a0,0x10
    7c86:	481c                	lw	a5,16(s0)
    7c88:	8141                	srli	a0,a0,0x10
    7c8a:	00855713          	srli	a4,a0,0x8
    7c8e:	b7d8                	sb	a4,13(a5)
    7c90:	a7c8                	sb	a0,12(a5)
    7c92:	01b40723          	sb	s11,14(s0)
    7c96:	ddcfc0ef          	jal	ra,4272 <ntohs>
    7c9a:	481c                	lw	a5,16(s0)
    7c9c:	03f57513          	andi	a0,a0,63
    7ca0:	d63e                	sw	a5,44(sp)
    7ca2:	47e2                	lw	a5,24(sp)
    7ca4:	8d5d                	or	a0,a0,a5
    7ca6:	dbefc0ef          	jal	ra,4264 <htons>
    7caa:	57b2                	lw	a5,44(sp)
    7cac:	a7c8                	sb	a0,12(a5)
    7cae:	8121                	srli	a0,a0,0x8
    7cb0:	b7c8                	sb	a0,13(a5)
    7cb2:	67c1                	lui	a5,0x10
    7cb4:	17fd                	addi	a5,a5,-1
    7cb6:	00fa7a33          	and	s4,s4,a5
    7cba:	47a2                	lw	a5,8(sp)
    7cbc:	9cd2                	add	s9,s9,s4
    7cbe:	97d2                	add	a5,a5,s4
    7cc0:	c43e                	sw	a5,8(sp)
    7cc2:	87a2                	mv	a5,s0
    7cc4:	e80b9ee3          	bnez	s7,7b60 <tcp_enqueue+0xb8>
    7cc8:	07c92a03          	lw	s4,124(s2)
    7ccc:	060a1963          	bnez	s4,7d3e <tcp_enqueue+0x296>
    7cd0:	07392e23          	sw	s3,124(s2)
    7cd4:	a251                	j	7e58 <tcp_enqueue+0x3b0>
    7cd6:	89aa                	mv	s3,a0
    7cd8:	bd7d                	j	7b96 <tcp_enqueue+0xee>
    7cda:	45c2                	lw	a1,16(sp)
    7cdc:	4601                	li	a2,0
    7cde:	4501                	li	a0,0
    7ce0:	9bbfd0ef          	jal	ra,569a <pbuf_alloc>
    7ce4:	c048                	sw	a0,4(s0)
    7ce6:	c505                	beqz	a0,7d0e <tcp_enqueue+0x266>
    7ce8:	b4bfd0ef          	jal	ra,5832 <pbuf_clen>
    7cec:	94aa                	add	s1,s1,a0
    7cee:	04c2                	slli	s1,s1,0x10
    7cf0:	80c1                	srli	s1,s1,0x10
    7cf2:	ee0b86e3          	beqz	s7,7bde <tcp_enqueue+0x136>
    7cf6:	85e2                	mv	a1,s8
    7cf8:	4605                	li	a2,1
    7cfa:	450d                	li	a0,3
    7cfc:	99ffd0ef          	jal	ra,569a <pbuf_alloc>
    7d00:	85aa                	mv	a1,a0
    7d02:	4048                	lw	a0,4(s0)
    7d04:	e195                	bnez	a1,7d28 <tcp_enqueue+0x280>
    7d06:	947fd0ef          	jal	ra,564c <pbuf_free>
    7d0a:	00042223          	sw	zero,4(s0)
    7d0e:	02694783          	lbu	a5,38(s2)
    7d12:	5a7d                	li	s4,-1
    7d14:	f807e793          	ori	a5,a5,-128
    7d18:	02f90323          	sb	a5,38(s2)
    7d1c:	da0987e3          	beqz	s3,7aca <tcp_enqueue+0x22>
    7d20:	854e                	mv	a0,s3
    7d22:	f81fd0ef          	jal	ra,5ca2 <tcp_segs_free>
    7d26:	b355                	j	7aca <tcp_enqueue+0x22>
    7d28:	0195a223          	sw	s9,4(a1)
    7d2c:	0485                	addi	s1,s1,1
    7d2e:	04c2                	slli	s1,s1,0x10
    7d30:	01942423          	sw	s9,8(s0)
    7d34:	80c1                	srli	s1,s1,0x10
    7d36:	b19fd0ef          	jal	ra,584e <pbuf_cat>
    7d3a:	b555                	j	7bde <tcp_enqueue+0x136>
    7d3c:	8a3e                	mv	s4,a5
    7d3e:	000a2783          	lw	a5,0(s4)
    7d42:	ffed                	bnez	a5,7d3c <tcp_enqueue+0x294>
    7d44:	010a2783          	lw	a5,16(s4)
    7d48:	00ca5b83          	lhu	s7,12(s4)
    7d4c:	27c8                	lbu	a0,12(a5)
    7d4e:	37dc                	lbu	a5,13(a5)
    7d50:	07a2                	slli	a5,a5,0x8
    7d52:	8d5d                	or	a0,a0,a5
    7d54:	d1efc0ef          	jal	ra,4272 <ntohs>
    7d58:	890d                	andi	a0,a0,3
    7d5a:	00a03533          	snez	a0,a0
    7d5e:	955e                	add	a0,a0,s7
    7d60:	18050563          	beqz	a0,7eea <tcp_enqueue+0x442>
    7d64:	010a2783          	lw	a5,16(s4)
    7d68:	27c8                	lbu	a0,12(a5)
    7d6a:	37dc                	lbu	a5,13(a5)
    7d6c:	07a2                	slli	a5,a5,0x8
    7d6e:	8d5d                	or	a0,a0,a5
    7d70:	d02fc0ef          	jal	ra,4272 <ntohs>
    7d74:	890d                	andi	a0,a0,3
    7d76:	16051a63          	bnez	a0,7eea <tcp_enqueue+0x442>
    7d7a:	003b7793          	andi	a5,s6,3
    7d7e:	c781                	beqz	a5,7d86 <tcp_enqueue+0x2de>
    7d80:	4785                	li	a5,1
    7d82:	16fb1463          	bne	s6,a5,7eea <tcp_enqueue+0x442>
    7d86:	00c9d703          	lhu	a4,12(s3)
    7d8a:	00ca5783          	lhu	a5,12(s4)
    7d8e:	97ba                	add	a5,a5,a4
    7d90:	04095703          	lhu	a4,64(s2)
    7d94:	14f74b63          	blt	a4,a5,7eea <tcp_enqueue+0x442>
    7d98:	00ea4703          	lbu	a4,14(s4)
    7d9c:	00e9c783          	lbu	a5,14(s3)
    7da0:	14f71563          	bne	a4,a5,7eea <tcp_enqueue+0x442>
    7da4:	010a2703          	lw	a4,16(s4)
    7da8:	3348                	lbu	a0,5(a4)
    7daa:	235c                	lbu	a5,4(a4)
    7dac:	0522                	slli	a0,a0,0x8
    7dae:	8d5d                	or	a0,a0,a5
    7db0:	237c                	lbu	a5,6(a4)
    7db2:	07c2                	slli	a5,a5,0x10
    7db4:	8fc9                	or	a5,a5,a0
    7db6:	3368                	lbu	a0,7(a4)
    7db8:	0562                	slli	a0,a0,0x18
    7dba:	8d5d                	or	a0,a0,a5
    7dbc:	ce8fc0ef          	jal	ra,42a4 <ntohl>
    7dc0:	0109a703          	lw	a4,16(s3)
    7dc4:	00ca5b83          	lhu	s7,12(s4)
    7dc8:	235c                	lbu	a5,4(a4)
    7dca:	9baa                	add	s7,s7,a0
    7dcc:	3348                	lbu	a0,5(a4)
    7dce:	0522                	slli	a0,a0,0x8
    7dd0:	8d5d                	or	a0,a0,a5
    7dd2:	237c                	lbu	a5,6(a4)
    7dd4:	07c2                	slli	a5,a5,0x10
    7dd6:	8fc9                	or	a5,a5,a0
    7dd8:	3368                	lbu	a0,7(a4)
    7dda:	0562                	slli	a0,a0,0x18
    7ddc:	8d5d                	or	a0,a0,a5
    7dde:	cc6fc0ef          	jal	ra,42a4 <ntohl>
    7de2:	10ab9463          	bne	s7,a0,7eea <tcp_enqueue+0x442>
    7de6:	47c2                	lw	a5,16(sp)
    7de8:	55b1                	li	a1,-20
    7dea:	0049a503          	lw	a0,4(s3)
    7dee:	8d9d                	sub	a1,a1,a5
    7df0:	05c2                	slli	a1,a1,0x10
    7df2:	85c1                	srai	a1,a1,0x10
    7df4:	feafd0ef          	jal	ra,55de <pbuf_header>
    7df8:	f0051be3          	bnez	a0,7d0e <tcp_enqueue+0x266>
    7dfc:	0049a503          	lw	a0,4(s3)
    7e00:	253e                	lhu	a5,10(a0)
    7e02:	eb99                	bnez	a5,7e18 <tcp_enqueue+0x370>
    7e04:	411c                	lw	a5,0(a0)
    7e06:	14fd                	addi	s1,s1,-1
    7e08:	04c2                	slli	s1,s1,0x10
    7e0a:	00f9a223          	sw	a5,4(s3)
    7e0e:	00052023          	sw	zero,0(a0)
    7e12:	80c1                	srli	s1,s1,0x10
    7e14:	839fd0ef          	jal	ra,564c <pbuf_free>
    7e18:	001b7793          	andi	a5,s6,1
    7e1c:	c7cd                	beqz	a5,7ec6 <tcp_enqueue+0x41e>
    7e1e:	010a2783          	lw	a5,16(s4)
    7e22:	00d7cb83          	lbu	s7,13(a5) # 1000d <_data_lma+0x67c5>
    7e26:	27c8                	lbu	a0,12(a5)
    7e28:	0ba2                	slli	s7,s7,0x8
    7e2a:	00abebb3          	or	s7,s7,a0
    7e2e:	4505                	li	a0,1
    7e30:	c34fc0ef          	jal	ra,4264 <htons>
    7e34:	010a2783          	lw	a5,16(s4)
    7e38:	00abe533          	or	a0,s7,a0
    7e3c:	0542                	slli	a0,a0,0x10
    7e3e:	8141                	srli	a0,a0,0x10
    7e40:	a7c8                	sb	a0,12(a5)
    7e42:	8121                	srli	a0,a0,0x8
    7e44:	b7c8                	sb	a0,13(a5)
    7e46:	00899563          	bne	s3,s0,7e50 <tcp_enqueue+0x3a8>
    7e4a:	00ca5c03          	lhu	s8,12(s4)
    7e4e:	8452                	mv	s0,s4
    7e50:	85ce                	mv	a1,s3
    7e52:	4511                	li	a0,4
    7e54:	e26fd0ef          	jal	ra,547a <memp_free>
    7e58:	003b7793          	andi	a5,s6,3
    7e5c:	c789                	beqz	a5,7e66 <tcp_enqueue+0x3be>
    7e5e:	0a85                	addi	s5,s5,1
    7e60:	0ac2                	slli	s5,s5,0x10
    7e62:	010ada93          	srli	s5,s5,0x10
    7e66:	001b7b13          	andi	s6,s6,1
    7e6a:	000b0863          	beqz	s6,7e7a <tcp_enqueue+0x3d2>
    7e6e:	02694783          	lbu	a5,38(s2)
    7e72:	0207e793          	ori	a5,a5,32
    7e76:	02f90323          	sb	a5,38(s2)
    7e7a:	07092783          	lw	a5,112(s2)
    7e7e:	06991c23          	sh	s1,120(s2)
    7e82:	4a01                	li	s4,0
    7e84:	97d6                	add	a5,a5,s5
    7e86:	06f92823          	sw	a5,112(s2)
    7e8a:	07695783          	lhu	a5,118(s2)
    7e8e:	41578ab3          	sub	s5,a5,s5
    7e92:	07591b23          	sh	s5,118(s2)
    7e96:	c20c0ae3          	beqz	s8,7aca <tcp_enqueue+0x22>
    7e9a:	481c                	lw	a5,16(s0)
    7e9c:	c20787e3          	beqz	a5,7aca <tcp_enqueue+0x22>
    7ea0:	4752                	lw	a4,20(sp)
    7ea2:	8b09                	andi	a4,a4,2
    7ea4:	c20713e3          	bnez	a4,7aca <tcp_enqueue+0x22>
    7ea8:	37c4                	lbu	s1,13(a5)
    7eaa:	27c8                	lbu	a0,12(a5)
    7eac:	04a2                	slli	s1,s1,0x8
    7eae:	8cc9                	or	s1,s1,a0
    7eb0:	4521                	li	a0,8
    7eb2:	bb2fc0ef          	jal	ra,4264 <htons>
    7eb6:	481c                	lw	a5,16(s0)
    7eb8:	8d45                	or	a0,a0,s1
    7eba:	0542                	slli	a0,a0,0x10
    7ebc:	8141                	srli	a0,a0,0x10
    7ebe:	a7c8                	sb	a0,12(a5)
    7ec0:	8121                	srli	a0,a0,0x8
    7ec2:	b7c8                	sb	a0,13(a5)
    7ec4:	b119                	j	7aca <tcp_enqueue+0x22>
    7ec6:	0049a583          	lw	a1,4(s3)
    7eca:	004a2503          	lw	a0,4(s4)
    7ece:	981fd0ef          	jal	ra,584e <pbuf_cat>
    7ed2:	00c9d703          	lhu	a4,12(s3)
    7ed6:	00ca5783          	lhu	a5,12(s4)
    7eda:	97ba                	add	a5,a5,a4
    7edc:	00fa1623          	sh	a5,12(s4)
    7ee0:	0009a783          	lw	a5,0(s3)
    7ee4:	00fa2023          	sw	a5,0(s4)
    7ee8:	bfb9                	j	7e46 <tcp_enqueue+0x39e>
    7eea:	013a2023          	sw	s3,0(s4)
    7eee:	b7ad                	j	7e58 <tcp_enqueue+0x3b0>

00007ef0 <tcp_send_ctrl>:
    7ef0:	b00f82ef          	jal	t0,1f0 <__riscv_save_0>
    7ef4:	86ae                	mv	a3,a1
    7ef6:	4781                	li	a5,0
    7ef8:	4705                	li	a4,1
    7efa:	4601                	li	a2,0
    7efc:	4581                	li	a1,0
    7efe:	babff0ef          	jal	ra,7aa8 <tcp_enqueue>
    7f02:	b12f806f          	j	214 <__riscv_restore_0>

00007f06 <tcp_write>:
    7f06:	87aa                	mv	a5,a0
    7f08:	4908                	lw	a0,16(a0)
    7f0a:	471d                	li	a4,7
    7f0c:	00e50863          	beq	a0,a4,7f1c <tcp_write+0x16>
    7f10:	ffe50813          	addi	a6,a0,-2
    7f14:	4709                	li	a4,2
    7f16:	5561                	li	a0,-8
    7f18:	01076e63          	bltu	a4,a6,7f34 <tcp_write+0x2e>
    7f1c:	4501                	li	a0,0
    7f1e:	ca19                	beqz	a2,7f34 <tcp_write+0x2e>
    7f20:	ad0f82ef          	jal	t0,1f0 <__riscv_save_0>
    7f24:	8736                	mv	a4,a3
    7f26:	853e                	mv	a0,a5
    7f28:	4681                	li	a3,0
    7f2a:	4781                	li	a5,0
    7f2c:	b7dff0ef          	jal	ra,7aa8 <tcp_enqueue>
    7f30:	ae4f806f          	j	214 <__riscv_restore_0>
    7f34:	8082                	ret

00007f36 <tcp_send_empty_ack>:
    7f36:	aa0f82ef          	jal	t0,1d6 <__riscv_save_4>
    7f3a:	842a                	mv	s0,a0
    7f3c:	4601                	li	a2,0
    7f3e:	45d1                	li	a1,20
    7f40:	4505                	li	a0,1
    7f42:	f58fd0ef          	jal	ra,569a <pbuf_alloc>
    7f46:	cd31                	beqz	a0,7fa2 <tcp_send_empty_ack+0x6c>
    7f48:	02644783          	lbu	a5,38(s0)
    7f4c:	84aa                	mv	s1,a0
    7f4e:	5028                	lw	a0,96(s0)
    7f50:	9bf1                	andi	a5,a5,-4
    7f52:	02f40323          	sb	a5,38(s0)
    7f56:	b2afc0ef          	jal	ra,4280 <htonl>
    7f5a:	40cc                	lw	a1,4(s1)
    7f5c:	862a                	mv	a2,a0
    7f5e:	8522                	mv	a0,s0
    7f60:	a75ff0ef          	jal	ra,79d4 <tcp_output_set_header.isra.0.constprop.1>
    7f64:	249a                	lhu	a4,8(s1)
    7f66:	00440913          	addi	s2,s0,4
    7f6a:	89aa                	mv	s3,a0
    7f6c:	4699                	li	a3,6
    7f6e:	864a                	mv	a2,s2
    7f70:	85a2                	mv	a1,s0
    7f72:	8526                	mv	a0,s1
    7f74:	6e3000ef          	jal	ra,8e56 <inet_chksum_pseudo>
    7f78:	00a98823          	sb	a0,16(s3)
    7f7c:	8121                	srli	a0,a0,0x8
    7f7e:	00a988a3          	sb	a0,17(s3)
    7f82:	2438                	lbu	a4,10(s0)
    7f84:	3434                	lbu	a3,11(s0)
    7f86:	4799                	li	a5,6
    7f88:	864a                	mv	a2,s2
    7f8a:	85a2                	mv	a1,s0
    7f8c:	8526                	mv	a0,s1
    7f8e:	f62fc0ef          	jal	ra,46f0 <ip_output>
    7f92:	8526                	mv	a0,s1
    7f94:	eb8fd0ef          	jal	ra,564c <pbuf_free>
    7f98:	4501                	li	a0,0
    7f9a:	020403a3          	sb	zero,39(s0)
    7f9e:	a6cf806f          	j	20a <__riscv_restore_4>
    7fa2:	5579                	li	a0,-2
    7fa4:	bfed                	j	7f9e <tcp_send_empty_ack+0x68>

00007fa6 <tcp_output>:
    7fa6:	9381a783          	lw	a5,-1736(gp) # 20000158 <tcp_input_pcb>
    7faa:	36a78063          	beq	a5,a0,830a <tcp_output+0x364>
    7fae:	a12f82ef          	jal	t0,1c0 <__riscv_save_12>
    7fb2:	06455783          	lhu	a5,100(a0)
    7fb6:	05a55a03          	lhu	s4,90(a0)
    7fba:	0147f363          	bgeu	a5,s4,7fc0 <tcp_output+0x1a>
    7fbe:	8a3e                	mv	s4,a5
    7fc0:	02654783          	lbu	a5,38(a0)
    7fc4:	0a42                	slli	s4,s4,0x10
    7fc6:	842a                	mv	s0,a0
    7fc8:	8b89                	andi	a5,a5,2
    7fca:	010a5a13          	srli	s4,s4,0x10
    7fce:	5d64                	lw	s1,124(a0)
    7fd0:	cb95                	beqz	a5,8004 <tcp_output+0x5e>
    7fd2:	e491                	bnez	s1,7fde <tcp_output+0x38>
    7fd4:	8522                	mv	a0,s0
    7fd6:	f61ff0ef          	jal	ra,7f36 <tcp_send_empty_ack>
    7fda:	a22f806f          	j	1fc <__riscv_restore_12>
    7fde:	4898                	lw	a4,16(s1)
    7fe0:	3348                	lbu	a0,5(a4)
    7fe2:	235c                	lbu	a5,4(a4)
    7fe4:	0522                	slli	a0,a0,0x8
    7fe6:	8d5d                	or	a0,a0,a5
    7fe8:	237c                	lbu	a5,6(a4)
    7fea:	07c2                	slli	a5,a5,0x10
    7fec:	8fc9                	or	a5,a5,a0
    7fee:	3368                	lbu	a0,7(a4)
    7ff0:	0562                	slli	a0,a0,0x18
    7ff2:	8d5d                	or	a0,a0,a5
    7ff4:	ab0fc0ef          	jal	ra,42a4 <ntohl>
    7ff8:	24de                	lhu	a5,12(s1)
    7ffa:	4878                	lw	a4,84(s0)
    7ffc:	8f99                	sub	a5,a5,a4
    7ffe:	953e                	add	a0,a0,a5
    8000:	fcaa6ae3          	bltu	s4,a0,7fd4 <tcp_output+0x2e>
    8004:	08042983          	lw	s3,128(s0)
    8008:	08099663          	bnez	s3,8094 <tcp_output+0xee>
    800c:	20009ab7          	lui	s5,0x20009
    8010:	4b89                	li	s7,2
    8012:	b80a8a93          	addi	s5,s5,-1152 # 20008b80 <WCHCfg>
    8016:	02040c37          	lui	s8,0x2040
    801a:	00440b13          	addi	s6,s0,4
    801e:	5cfd                	li	s9,-1
    8020:	c0ad                	beqz	s1,8082 <tcp_output+0xdc>
    8022:	4898                	lw	a4,16(s1)
    8024:	3348                	lbu	a0,5(a4)
    8026:	235c                	lbu	a5,4(a4)
    8028:	0522                	slli	a0,a0,0x8
    802a:	8d5d                	or	a0,a0,a5
    802c:	237c                	lbu	a5,6(a4)
    802e:	07c2                	slli	a5,a5,0x10
    8030:	8fc9                	or	a5,a5,a0
    8032:	3368                	lbu	a0,7(a4)
    8034:	0562                	slli	a0,a0,0x18
    8036:	8d5d                	or	a0,a0,a5
    8038:	a6cfc0ef          	jal	ra,42a4 <ntohl>
    803c:	24de                	lhu	a5,12(s1)
    803e:	4878                	lw	a4,84(s0)
    8040:	8f99                	sub	a5,a5,a4
    8042:	953e                	add	a0,a0,a5
    8044:	04aa7c63          	bgeu	s4,a0,809c <tcp_output+0xf6>
    8048:	0b044783          	lbu	a5,176(s0)
    804c:	eb9d                	bnez	a5,8082 <tcp_output+0xdc>
    804e:	4898                	lw	a4,16(s1)
    8050:	3348                	lbu	a0,5(a4)
    8052:	235c                	lbu	a5,4(a4)
    8054:	0522                	slli	a0,a0,0x8
    8056:	8d5d                	or	a0,a0,a5
    8058:	237c                	lbu	a5,6(a4)
    805a:	07c2                	slli	a5,a5,0x10
    805c:	8fc9                	or	a5,a5,a0
    805e:	3368                	lbu	a0,7(a4)
    8060:	0562                	slli	a0,a0,0x18
    8062:	8d5d                	or	a0,a0,a5
    8064:	a40fc0ef          	jal	ra,42a4 <ntohl>
    8068:	24de                	lhu	a5,12(s1)
    806a:	4878                	lw	a4,84(s0)
    806c:	8f99                	sub	a5,a5,a4
    806e:	953e                	add	a0,a0,a5
    8070:	06445783          	lhu	a5,100(s0)
    8074:	00a7f763          	bgeu	a5,a0,8082 <tcp_output+0xdc>
    8078:	4785                	li	a5,1
    807a:	0a042623          	sw	zero,172(s0)
    807e:	0af40823          	sb	a5,176(s0)
    8082:	02644783          	lbu	a5,38(s0)
    8086:	4501                	li	a0,0
    8088:	07f7f793          	andi	a5,a5,127
    808c:	02f40323          	sb	a5,38(s0)
    8090:	b7a9                	j	7fda <tcp_output+0x34>
    8092:	89be                	mv	s3,a5
    8094:	0009a783          	lw	a5,0(s3)
    8098:	ffed                	bnez	a5,8092 <tcp_output+0xec>
    809a:	bf8d                	j	800c <tcp_output+0x66>
    809c:	08042783          	lw	a5,128(s0)
    80a0:	c395                	beqz	a5,80c4 <tcp_output+0x11e>
    80a2:	02644783          	lbu	a5,38(s0)
    80a6:	0447f713          	andi	a4,a5,68
    80aa:	ef09                	bnez	a4,80c4 <tcp_output+0x11e>
    80ac:	5c78                	lw	a4,124(s0)
    80ae:	cb01                	beqz	a4,80be <tcp_output+0x118>
    80b0:	4314                	lw	a3,0(a4)
    80b2:	ea89                	bnez	a3,80c4 <tcp_output+0x11e>
    80b4:	2756                	lhu	a3,12(a4)
    80b6:	04045703          	lhu	a4,64(s0)
    80ba:	00e6f563          	bgeu	a3,a4,80c4 <tcp_output+0x11e>
    80be:	0a07f793          	andi	a5,a5,160
    80c2:	d3d9                	beqz	a5,8048 <tcp_output+0xa2>
    80c4:	409c                	lw	a5,0(s1)
    80c6:	dc7c                	sw	a5,124(s0)
    80c8:	481c                	lw	a5,16(s0)
    80ca:	03778963          	beq	a5,s7,80fc <tcp_output+0x156>
    80ce:	489c                	lw	a5,16(s1)
    80d0:	00d7c903          	lbu	s2,13(a5)
    80d4:	27c8                	lbu	a0,12(a5)
    80d6:	0922                	slli	s2,s2,0x8
    80d8:	00a96933          	or	s2,s2,a0
    80dc:	4541                	li	a0,16
    80de:	986fc0ef          	jal	ra,4264 <htons>
    80e2:	489c                	lw	a5,16(s1)
    80e4:	00a96533          	or	a0,s2,a0
    80e8:	0542                	slli	a0,a0,0x10
    80ea:	8141                	srli	a0,a0,0x10
    80ec:	a7c8                	sb	a0,12(a5)
    80ee:	8121                	srli	a0,a0,0x8
    80f0:	b7c8                	sb	a0,13(a5)
    80f2:	02644783          	lbu	a5,38(s0)
    80f6:	9bf1                	andi	a5,a5,-4
    80f8:	02f40323          	sb	a5,38(s0)
    80fc:	5408                	lw	a0,40(s0)
    80fe:	0104a903          	lw	s2,16(s1)
    8102:	97efc0ef          	jal	ra,4280 <htonl>
    8106:	00855793          	srli	a5,a0,0x8
    810a:	00a90423          	sb	a0,8(s2)
    810e:	00f904a3          	sb	a5,9(s2)
    8112:	01055793          	srli	a5,a0,0x10
    8116:	8161                	srli	a0,a0,0x18
    8118:	00a905a3          	sb	a0,11(s2)
    811c:	346a                	lhu	a0,46(s0)
    811e:	00f90523          	sb	a5,10(s2)
    8122:	0104a903          	lw	s2,16(s1)
    8126:	93efc0ef          	jal	ra,4264 <htons>
    812a:	347a                	lhu	a4,46(s0)
    812c:	541c                	lw	a5,40(s0)
    812e:	00a90723          	sb	a0,14(s2)
    8132:	8121                	srli	a0,a0,0x8
    8134:	00a907a3          	sb	a0,15(s2)
    8138:	97ba                	add	a5,a5,a4
    813a:	b87a                	sh	a4,54(s0)
    813c:	d81c                	sw	a5,48(s0)
    813e:	24fc                	lbu	a5,14(s1)
    8140:	8b85                	andi	a5,a5,1
    8142:	cb99                	beqz	a5,8158 <tcp_output+0x1b2>
    8144:	004aa503          	lw	a0,4(s5)
    8148:	0104a903          	lw	s2,16(s1)
    814c:	00ac6533          	or	a0,s8,a0
    8150:	930fc0ef          	jal	ra,4280 <htonl>
    8154:	00a92a23          	sw	a0,20(s2)
    8158:	401c                	lw	a5,0(s0)
    815a:	e799                	bnez	a5,8168 <tcp_output+0x1c2>
    815c:	855a                	mv	a0,s6
    815e:	952fc0ef          	jal	ra,42b0 <ip_route>
    8162:	c559                	beqz	a0,81f0 <tcp_output+0x24a>
    8164:	415c                	lw	a5,4(a0)
    8166:	c01c                	sw	a5,0(s0)
    8168:	03e41783          	lh	a5,62(s0)
    816c:	01979463          	bne	a5,s9,8174 <tcp_output+0x1ce>
    8170:	02041f23          	sh	zero,62(s0)
    8174:	407c                	lw	a5,68(s0)
    8176:	e395                	bnez	a5,819a <tcp_output+0x1f4>
    8178:	9101a783          	lw	a5,-1776(gp) # 20000130 <tcp_ticks>
    817c:	4898                	lw	a4,16(s1)
    817e:	c07c                	sw	a5,68(s0)
    8180:	3348                	lbu	a0,5(a4)
    8182:	235c                	lbu	a5,4(a4)
    8184:	0522                	slli	a0,a0,0x8
    8186:	8d5d                	or	a0,a0,a5
    8188:	237c                	lbu	a5,6(a4)
    818a:	07c2                	slli	a5,a5,0x10
    818c:	8fc9                	or	a5,a5,a0
    818e:	3368                	lbu	a0,7(a4)
    8190:	0562                	slli	a0,a0,0x18
    8192:	8d5d                	or	a0,a0,a5
    8194:	910fc0ef          	jal	ra,42a4 <ntohl>
    8198:	c428                	sw	a0,72(s0)
    819a:	40c8                	lw	a0,4(s1)
    819c:	0104a903          	lw	s2,16(s1)
    81a0:	4699                	li	a3,6
    81a2:	4158                	lw	a4,4(a0)
    81a4:	01252223          	sw	s2,4(a0)
    81a8:	865a                	mv	a2,s6
    81aa:	40e90733          	sub	a4,s2,a4
    81ae:	01071793          	slli	a5,a4,0x10
    81b2:	253a                	lhu	a4,10(a0)
    81b4:	83c1                	srli	a5,a5,0x10
    81b6:	85a2                	mv	a1,s0
    81b8:	8f1d                	sub	a4,a4,a5
    81ba:	a53a                	sh	a4,10(a0)
    81bc:	251a                	lhu	a4,8(a0)
    81be:	8f1d                	sub	a4,a4,a5
    81c0:	0742                	slli	a4,a4,0x10
    81c2:	8341                	srli	a4,a4,0x10
    81c4:	a51a                	sh	a4,8(a0)
    81c6:	00090823          	sb	zero,16(s2)
    81ca:	000908a3          	sb	zero,17(s2)
    81ce:	489000ef          	jal	ra,8e56 <inet_chksum_pseudo>
    81d2:	00a90823          	sb	a0,16(s2)
    81d6:	8121                	srli	a0,a0,0x8
    81d8:	00a908a3          	sb	a0,17(s2)
    81dc:	2438                	lbu	a4,10(s0)
    81de:	3434                	lbu	a3,11(s0)
    81e0:	40c8                	lw	a0,4(s1)
    81e2:	4799                	li	a5,6
    81e4:	865a                	mv	a2,s6
    81e6:	85a2                	mv	a1,s0
    81e8:	d08fc0ef          	jal	ra,46f0 <ip_output>
    81ec:	020403a3          	sb	zero,39(s0)
    81f0:	4898                	lw	a4,16(s1)
    81f2:	3348                	lbu	a0,5(a4)
    81f4:	235c                	lbu	a5,4(a4)
    81f6:	0522                	slli	a0,a0,0x8
    81f8:	8d5d                	or	a0,a0,a5
    81fa:	237c                	lbu	a5,6(a4)
    81fc:	07c2                	slli	a5,a5,0x10
    81fe:	8fc9                	or	a5,a5,a0
    8200:	3368                	lbu	a0,7(a4)
    8202:	0562                	slli	a0,a0,0x18
    8204:	8d5d                	or	a0,a0,a5
    8206:	89efc0ef          	jal	ra,42a4 <ntohl>
    820a:	489c                	lw	a5,16(s1)
    820c:	892a                	mv	s2,a0
    820e:	00c4dd83          	lhu	s11,12(s1)
    8212:	27c8                	lbu	a0,12(a5)
    8214:	37dc                	lbu	a5,13(a5)
    8216:	07a2                	slli	a5,a5,0x8
    8218:	8d5d                	or	a0,a0,a5
    821a:	858fc0ef          	jal	ra,4272 <ntohs>
    821e:	890d                	andi	a0,a0,3
    8220:	00a03533          	snez	a0,a0
    8224:	503c                	lw	a5,96(s0)
    8226:	956e                	add	a0,a0,s11
    8228:	954a                	add	a0,a0,s2
    822a:	8f89                	sub	a5,a5,a0
    822c:	0007d363          	bgez	a5,8232 <tcp_output+0x28c>
    8230:	d028                	sw	a0,96(s0)
    8232:	489c                	lw	a5,16(s1)
    8234:	00c4d903          	lhu	s2,12(s1)
    8238:	27c8                	lbu	a0,12(a5)
    823a:	37dc                	lbu	a5,13(a5)
    823c:	07a2                	slli	a5,a5,0x8
    823e:	8d5d                	or	a0,a0,a5
    8240:	832fc0ef          	jal	ra,4272 <ntohs>
    8244:	890d                	andi	a0,a0,3
    8246:	00a03533          	snez	a0,a0
    824a:	954a                	add	a0,a0,s2
    824c:	c95d                	beqz	a0,8302 <tcp_output+0x35c>
    824e:	08042783          	lw	a5,128(s0)
    8252:	0004a023          	sw	zero,0(s1)
    8256:	e789                	bnez	a5,8260 <tcp_output+0x2ba>
    8258:	08942023          	sw	s1,128(s0)
    825c:	89a6                	mv	s3,s1
    825e:	a899                	j	82b4 <tcp_output+0x30e>
    8260:	4898                	lw	a4,16(s1)
    8262:	3348                	lbu	a0,5(a4)
    8264:	235c                	lbu	a5,4(a4)
    8266:	0522                	slli	a0,a0,0x8
    8268:	8d5d                	or	a0,a0,a5
    826a:	237c                	lbu	a5,6(a4)
    826c:	07c2                	slli	a5,a5,0x10
    826e:	8fc9                	or	a5,a5,a0
    8270:	3368                	lbu	a0,7(a4)
    8272:	0562                	slli	a0,a0,0x18
    8274:	8d5d                	or	a0,a0,a5
    8276:	82efc0ef          	jal	ra,42a4 <ntohl>
    827a:	0109a703          	lw	a4,16(s3)
    827e:	892a                	mv	s2,a0
    8280:	3348                	lbu	a0,5(a4)
    8282:	235c                	lbu	a5,4(a4)
    8284:	0522                	slli	a0,a0,0x8
    8286:	8d5d                	or	a0,a0,a5
    8288:	237c                	lbu	a5,6(a4)
    828a:	07c2                	slli	a5,a5,0x10
    828c:	8fc9                	or	a5,a5,a0
    828e:	3368                	lbu	a0,7(a4)
    8290:	0562                	slli	a0,a0,0x18
    8292:	8d5d                	or	a0,a0,a5
    8294:	810fc0ef          	jal	ra,42a4 <ntohl>
    8298:	40a90533          	sub	a0,s2,a0
    829c:	06055063          	bgez	a0,82fc <tcp_output+0x356>
    82a0:	08040913          	addi	s2,s0,128
    82a4:	00092783          	lw	a5,0(s2)
    82a8:	eb81                	bnez	a5,82b8 <tcp_output+0x312>
    82aa:	00092783          	lw	a5,0(s2)
    82ae:	c09c                	sw	a5,0(s1)
    82b0:	00992023          	sw	s1,0(s2)
    82b4:	5c64                	lw	s1,124(s0)
    82b6:	b3ad                	j	8020 <tcp_output+0x7a>
    82b8:	4b98                	lw	a4,16(a5)
    82ba:	3348                	lbu	a0,5(a4)
    82bc:	235c                	lbu	a5,4(a4)
    82be:	0522                	slli	a0,a0,0x8
    82c0:	8d5d                	or	a0,a0,a5
    82c2:	237c                	lbu	a5,6(a4)
    82c4:	07c2                	slli	a5,a5,0x10
    82c6:	8fc9                	or	a5,a5,a0
    82c8:	3368                	lbu	a0,7(a4)
    82ca:	0562                	slli	a0,a0,0x18
    82cc:	8d5d                	or	a0,a0,a5
    82ce:	fd7fb0ef          	jal	ra,42a4 <ntohl>
    82d2:	4898                	lw	a4,16(s1)
    82d4:	8daa                	mv	s11,a0
    82d6:	3348                	lbu	a0,5(a4)
    82d8:	235c                	lbu	a5,4(a4)
    82da:	0522                	slli	a0,a0,0x8
    82dc:	8d5d                	or	a0,a0,a5
    82de:	237c                	lbu	a5,6(a4)
    82e0:	07c2                	slli	a5,a5,0x10
    82e2:	8fc9                	or	a5,a5,a0
    82e4:	3368                	lbu	a0,7(a4)
    82e6:	0562                	slli	a0,a0,0x18
    82e8:	8d5d                	or	a0,a0,a5
    82ea:	fbbfb0ef          	jal	ra,42a4 <ntohl>
    82ee:	40ad8533          	sub	a0,s11,a0
    82f2:	fa055ce3          	bgez	a0,82aa <tcp_output+0x304>
    82f6:	00092903          	lw	s2,0(s2)
    82fa:	b76d                	j	82a4 <tcp_output+0x2fe>
    82fc:	0099a023          	sw	s1,0(s3)
    8300:	bfb1                	j	825c <tcp_output+0x2b6>
    8302:	8526                	mv	a0,s1
    8304:	975fd0ef          	jal	ra,5c78 <tcp_seg_free>
    8308:	b775                	j	82b4 <tcp_output+0x30e>
    830a:	4501                	li	a0,0
    830c:	8082                	ret

0000830e <tcp_rst>:
    830e:	ec9f72ef          	jal	t0,1d6 <__riscv_save_4>
    8312:	1141                	addi	sp,sp,-16
    8314:	8aaa                	mv	s5,a0
    8316:	84ae                	mv	s1,a1
    8318:	89b2                	mv	s3,a2
    831a:	45d1                	li	a1,20
    831c:	4601                	li	a2,0
    831e:	4505                	li	a0,1
    8320:	8a36                	mv	s4,a3
    8322:	c63a                	sw	a4,12(sp)
    8324:	8b3e                	mv	s6,a5
    8326:	b74fd0ef          	jal	ra,569a <pbuf_alloc>
    832a:	0e050363          	beqz	a0,8410 <tcp_rst+0x102>
    832e:	4732                	lw	a4,12(sp)
    8330:	4140                	lw	s0,4(a0)
    8332:	892a                	mv	s2,a0
    8334:	853a                	mv	a0,a4
    8336:	f2ffb0ef          	jal	ra,4264 <htons>
    833a:	a008                	sb	a0,0(s0)
    833c:	8121                	srli	a0,a0,0x8
    833e:	b008                	sb	a0,1(s0)
    8340:	855a                	mv	a0,s6
    8342:	f23fb0ef          	jal	ra,4264 <htons>
    8346:	a028                	sb	a0,2(s0)
    8348:	8121                	srli	a0,a0,0x8
    834a:	b028                	sb	a0,3(s0)
    834c:	8556                	mv	a0,s5
    834e:	f33fb0ef          	jal	ra,4280 <htonl>
    8352:	00855793          	srli	a5,a0,0x8
    8356:	a048                	sb	a0,4(s0)
    8358:	b05c                	sb	a5,5(s0)
    835a:	01055793          	srli	a5,a0,0x10
    835e:	8161                	srli	a0,a0,0x18
    8360:	a07c                	sb	a5,6(s0)
    8362:	b068                	sb	a0,7(s0)
    8364:	8526                	mv	a0,s1
    8366:	f1bfb0ef          	jal	ra,4280 <htonl>
    836a:	00855793          	srli	a5,a0,0x8
    836e:	a408                	sb	a0,8(s0)
    8370:	b41c                	sb	a5,9(s0)
    8372:	3444                	lbu	s1,13(s0)
    8374:	01055793          	srli	a5,a0,0x10
    8378:	8161                	srli	a0,a0,0x18
    837a:	b428                	sb	a0,11(s0)
    837c:	2448                	lbu	a0,12(s0)
    837e:	04a2                	slli	s1,s1,0x8
    8380:	a43c                	sb	a5,10(s0)
    8382:	8cc9                	or	s1,s1,a0
    8384:	6541                	lui	a0,0x10
    8386:	fc050513          	addi	a0,a0,-64 # ffc0 <_data_lma+0x6778>
    838a:	edbfb0ef          	jal	ra,4264 <htons>
    838e:	8ce9                	and	s1,s1,a0
    8390:	4551                	li	a0,20
    8392:	ed3fb0ef          	jal	ra,4264 <htons>
    8396:	8d45                	or	a0,a0,s1
    8398:	0542                	slli	a0,a0,0x10
    839a:	8141                	srli	a0,a0,0x10
    839c:	200097b7          	lui	a5,0x20009
    83a0:	a448                	sb	a0,12(s0)
    83a2:	8121                	srli	a0,a0,0x8
    83a4:	b448                	sb	a0,13(s0)
    83a6:	b847d503          	lhu	a0,-1148(a5) # 20008b84 <WCHCfg+0x4>
    83aa:	ebbfb0ef          	jal	ra,4264 <htons>
    83ae:	a468                	sb	a0,14(s0)
    83b0:	345c                	lbu	a5,13(s0)
    83b2:	8121                	srli	a0,a0,0x8
    83b4:	b468                	sb	a0,15(s0)
    83b6:	2448                	lbu	a0,12(s0)
    83b8:	07a2                	slli	a5,a5,0x8
    83ba:	00040923          	sb	zero,18(s0)
    83be:	8d5d                	or	a0,a0,a5
    83c0:	000409a3          	sb	zero,19(s0)
    83c4:	eaffb0ef          	jal	ra,4272 <ntohs>
    83c8:	6795                	lui	a5,0x5
    83ca:	03f57513          	andi	a0,a0,63
    83ce:	8d5d                	or	a0,a0,a5
    83d0:	e95fb0ef          	jal	ra,4264 <htons>
    83d4:	00895703          	lhu	a4,8(s2)
    83d8:	a448                	sb	a0,12(s0)
    83da:	8121                	srli	a0,a0,0x8
    83dc:	b448                	sb	a0,13(s0)
    83de:	4699                	li	a3,6
    83e0:	8652                	mv	a2,s4
    83e2:	85ce                	mv	a1,s3
    83e4:	00040823          	sb	zero,16(s0)
    83e8:	000408a3          	sb	zero,17(s0)
    83ec:	854a                	mv	a0,s2
    83ee:	269000ef          	jal	ra,8e56 <inet_chksum_pseudo>
    83f2:	a808                	sb	a0,16(s0)
    83f4:	8121                	srli	a0,a0,0x8
    83f6:	b808                	sb	a0,17(s0)
    83f8:	4799                	li	a5,6
    83fa:	4701                	li	a4,0
    83fc:	08000693          	li	a3,128
    8400:	8652                	mv	a2,s4
    8402:	85ce                	mv	a1,s3
    8404:	854a                	mv	a0,s2
    8406:	aeafc0ef          	jal	ra,46f0 <ip_output>
    840a:	854a                	mv	a0,s2
    840c:	a40fd0ef          	jal	ra,564c <pbuf_free>
    8410:	0141                	addi	sp,sp,16
    8412:	df9f706f          	j	20a <__riscv_restore_4>

00008416 <tcp_rexmit_rto>:
    8416:	08052783          	lw	a5,128(a0)
    841a:	cb85                	beqz	a5,844a <tcp_rexmit_rto+0x34>
    841c:	dd5f72ef          	jal	t0,1f0 <__riscv_save_0>
    8420:	873e                	mv	a4,a5
    8422:	4314                	lw	a3,0(a4)
    8424:	e28d                	bnez	a3,8446 <tcp_rexmit_rto+0x30>
    8426:	5d74                	lw	a3,124(a0)
    8428:	c314                	sw	a3,0(a4)
    842a:	dd7c                	sw	a5,124(a0)
    842c:	05254783          	lbu	a5,82(a0)
    8430:	08052023          	sw	zero,128(a0)
    8434:	04052223          	sw	zero,68(a0)
    8438:	0785                	addi	a5,a5,1
    843a:	04f50923          	sb	a5,82(a0)
    843e:	b69ff0ef          	jal	ra,7fa6 <tcp_output>
    8442:	dd3f706f          	j	214 <__riscv_restore_0>
    8446:	8736                	mv	a4,a3
    8448:	bfe9                	j	8422 <tcp_rexmit_rto+0xc>
    844a:	8082                	ret

0000844c <tcp_rexmit>:
    844c:	d8bf72ef          	jal	t0,1d6 <__riscv_save_4>
    8450:	08052483          	lw	s1,128(a0)
    8454:	c495                	beqz	s1,8480 <tcp_rexmit+0x34>
    8456:	409c                	lw	a5,0(s1)
    8458:	842a                	mv	s0,a0
    845a:	07c50913          	addi	s2,a0,124
    845e:	08f52023          	sw	a5,128(a0)
    8462:	00092783          	lw	a5,0(s2)
    8466:	ef99                	bnez	a5,8484 <tcp_rexmit+0x38>
    8468:	00092783          	lw	a5,0(s2)
    846c:	c09c                	sw	a5,0(s1)
    846e:	00992023          	sw	s1,0(s2)
    8472:	05244783          	lbu	a5,82(s0)
    8476:	04042223          	sw	zero,68(s0)
    847a:	0785                	addi	a5,a5,1
    847c:	04f40923          	sb	a5,82(s0)
    8480:	d8bf706f          	j	20a <__riscv_restore_4>
    8484:	4b98                	lw	a4,16(a5)
    8486:	3348                	lbu	a0,5(a4)
    8488:	235c                	lbu	a5,4(a4)
    848a:	0522                	slli	a0,a0,0x8
    848c:	8d5d                	or	a0,a0,a5
    848e:	237c                	lbu	a5,6(a4)
    8490:	07c2                	slli	a5,a5,0x10
    8492:	8fc9                	or	a5,a5,a0
    8494:	3368                	lbu	a0,7(a4)
    8496:	0562                	slli	a0,a0,0x18
    8498:	8d5d                	or	a0,a0,a5
    849a:	e0bfb0ef          	jal	ra,42a4 <ntohl>
    849e:	4898                	lw	a4,16(s1)
    84a0:	89aa                	mv	s3,a0
    84a2:	3348                	lbu	a0,5(a4)
    84a4:	235c                	lbu	a5,4(a4)
    84a6:	0522                	slli	a0,a0,0x8
    84a8:	8d5d                	or	a0,a0,a5
    84aa:	237c                	lbu	a5,6(a4)
    84ac:	07c2                	slli	a5,a5,0x10
    84ae:	8fc9                	or	a5,a5,a0
    84b0:	3368                	lbu	a0,7(a4)
    84b2:	0562                	slli	a0,a0,0x18
    84b4:	8d5d                	or	a0,a0,a5
    84b6:	deffb0ef          	jal	ra,42a4 <ntohl>
    84ba:	40a98533          	sub	a0,s3,a0
    84be:	fa0555e3          	bgez	a0,8468 <tcp_rexmit+0x1c>
    84c2:	00092903          	lw	s2,0(s2)
    84c6:	bf71                	j	8462 <tcp_rexmit+0x16>

000084c8 <tcp_rexmit_fast>:
    84c8:	08052783          	lw	a5,128(a0)
    84cc:	cfb1                	beqz	a5,8528 <tcp_rexmit_fast+0x60>
    84ce:	d23f72ef          	jal	t0,1f0 <__riscv_save_0>
    84d2:	02654783          	lbu	a5,38(a0)
    84d6:	842a                	mv	s0,a0
    84d8:	8b91                	andi	a5,a5,4
    84da:	e7a9                	bnez	a5,8524 <tcp_rexmit_fast+0x5c>
    84dc:	f71ff0ef          	jal	ra,844c <tcp_rexmit>
    84e0:	05a45683          	lhu	a3,90(s0)
    84e4:	06445783          	lhu	a5,100(s0)
    84e8:	0016d713          	srli	a4,a3,0x1
    84ec:	00d7f463          	bgeu	a5,a3,84f4 <tcp_rexmit_fast+0x2c>
    84f0:	0017d713          	srli	a4,a5,0x1
    84f4:	04045783          	lhu	a5,64(s0)
    84f8:	04e41e23          	sh	a4,92(s0)
    84fc:	00179693          	slli	a3,a5,0x1
    8500:	00d75463          	bge	a4,a3,8508 <tcp_rexmit_fast+0x40>
    8504:	04d41e23          	sh	a3,92(s0)
    8508:	470d                	li	a4,3
    850a:	02e787b3          	mul	a5,a5,a4
    850e:	05c45703          	lhu	a4,92(s0)
    8512:	97ba                	add	a5,a5,a4
    8514:	04f41d23          	sh	a5,90(s0)
    8518:	02644783          	lbu	a5,38(s0)
    851c:	0047e793          	ori	a5,a5,4
    8520:	02f40323          	sb	a5,38(s0)
    8524:	cf1f706f          	j	214 <__riscv_restore_0>
    8528:	8082                	ret

0000852a <tcp_keepalive>:
    852a:	cadf72ef          	jal	t0,1d6 <__riscv_save_4>
    852e:	84aa                	mv	s1,a0
    8530:	4601                	li	a2,0
    8532:	45d1                	li	a1,20
    8534:	4505                	li	a0,1
    8536:	964fd0ef          	jal	ra,569a <pbuf_alloc>
    853a:	c529                	beqz	a0,8584 <tcp_keepalive+0x5a>
    853c:	842a                	mv	s0,a0
    853e:	50a8                	lw	a0,96(s1)
    8540:	00448913          	addi	s2,s1,4
    8544:	157d                	addi	a0,a0,-1
    8546:	d3bfb0ef          	jal	ra,4280 <htonl>
    854a:	404c                	lw	a1,4(s0)
    854c:	862a                	mv	a2,a0
    854e:	8526                	mv	a0,s1
    8550:	c84ff0ef          	jal	ra,79d4 <tcp_output_set_header.isra.0.constprop.1>
    8554:	241a                	lhu	a4,8(s0)
    8556:	89aa                	mv	s3,a0
    8558:	4699                	li	a3,6
    855a:	864a                	mv	a2,s2
    855c:	85a6                	mv	a1,s1
    855e:	8522                	mv	a0,s0
    8560:	0f7000ef          	jal	ra,8e56 <inet_chksum_pseudo>
    8564:	00a98823          	sb	a0,16(s3)
    8568:	8121                	srli	a0,a0,0x8
    856a:	00a988a3          	sb	a0,17(s3)
    856e:	34b4                	lbu	a3,11(s1)
    8570:	4799                	li	a5,6
    8572:	4701                	li	a4,0
    8574:	864a                	mv	a2,s2
    8576:	85a6                	mv	a1,s1
    8578:	8522                	mv	a0,s0
    857a:	976fc0ef          	jal	ra,46f0 <ip_output>
    857e:	8522                	mv	a0,s0
    8580:	8ccfd0ef          	jal	ra,564c <pbuf_free>
    8584:	c87f706f          	j	20a <__riscv_restore_4>

00008588 <tcp_zero_window_probe>:
    8588:	c4ff72ef          	jal	t0,1d6 <__riscv_save_4>
    858c:	08052403          	lw	s0,128(a0)
    8590:	e019                	bnez	s0,8596 <tcp_zero_window_probe+0xe>
    8592:	5d60                	lw	s0,124(a0)
    8594:	c45d                	beqz	s0,8642 <tcp_zero_window_probe+0xba>
    8596:	481c                	lw	a5,16(s0)
    8598:	84aa                	mv	s1,a0
    859a:	27c8                	lbu	a0,12(a5)
    859c:	37dc                	lbu	a5,13(a5)
    859e:	07a2                	slli	a5,a5,0x8
    85a0:	8d5d                	or	a0,a0,a5
    85a2:	cd1fb0ef          	jal	ra,4272 <ntohs>
    85a6:	8905                	andi	a0,a0,1
    85a8:	cd59                	beqz	a0,8646 <tcp_zero_window_probe+0xbe>
    85aa:	245e                	lhu	a5,12(s0)
    85ac:	efc9                	bnez	a5,8646 <tcp_zero_window_probe+0xbe>
    85ae:	4a05                	li	s4,1
    85b0:	45d1                	li	a1,20
    85b2:	4601                	li	a2,0
    85b4:	4505                	li	a0,1
    85b6:	8e4fd0ef          	jal	ra,569a <pbuf_alloc>
    85ba:	892a                	mv	s2,a0
    85bc:	c159                	beqz	a0,8642 <tcp_zero_window_probe+0xba>
    85be:	4818                	lw	a4,16(s0)
    85c0:	414c                	lw	a1,4(a0)
    85c2:	8526                	mv	a0,s1
    85c4:	3350                	lbu	a2,5(a4)
    85c6:	235c                	lbu	a5,4(a4)
    85c8:	0622                	slli	a2,a2,0x8
    85ca:	8e5d                	or	a2,a2,a5
    85cc:	237c                	lbu	a5,6(a4)
    85ce:	07c2                	slli	a5,a5,0x10
    85d0:	8fd1                	or	a5,a5,a2
    85d2:	3370                	lbu	a2,7(a4)
    85d4:	0662                	slli	a2,a2,0x18
    85d6:	8e5d                	or	a2,a2,a5
    85d8:	bfcff0ef          	jal	ra,79d4 <tcp_output_set_header.isra.0.constprop.1>
    85dc:	89aa                	mv	s3,a0
    85de:	060a0763          	beqz	s4,864c <tcp_zero_window_probe+0xc4>
    85e2:	3540                	lbu	s0,13(a0)
    85e4:	255c                	lbu	a5,12(a0)
    85e6:	6541                	lui	a0,0x10
    85e8:	0422                	slli	s0,s0,0x8
    85ea:	fc050513          	addi	a0,a0,-64 # ffc0 <_data_lma+0x6778>
    85ee:	8c5d                	or	s0,s0,a5
    85f0:	c75fb0ef          	jal	ra,4264 <htons>
    85f4:	8c69                	and	s0,s0,a0
    85f6:	4545                	li	a0,17
    85f8:	c6dfb0ef          	jal	ra,4264 <htons>
    85fc:	8c49                	or	s0,s0,a0
    85fe:	01041793          	slli	a5,s0,0x10
    8602:	83c1                	srli	a5,a5,0x10
    8604:	00f98623          	sb	a5,12(s3)
    8608:	83a1                	srli	a5,a5,0x8
    860a:	00f986a3          	sb	a5,13(s3)
    860e:	00895703          	lhu	a4,8(s2)
    8612:	00448413          	addi	s0,s1,4
    8616:	4699                	li	a3,6
    8618:	8622                	mv	a2,s0
    861a:	85a6                	mv	a1,s1
    861c:	854a                	mv	a0,s2
    861e:	039000ef          	jal	ra,8e56 <inet_chksum_pseudo>
    8622:	00a98823          	sb	a0,16(s3)
    8626:	8121                	srli	a0,a0,0x8
    8628:	00a988a3          	sb	a0,17(s3)
    862c:	34b4                	lbu	a3,11(s1)
    862e:	4799                	li	a5,6
    8630:	4701                	li	a4,0
    8632:	8622                	mv	a2,s0
    8634:	85a6                	mv	a1,s1
    8636:	854a                	mv	a0,s2
    8638:	8b8fc0ef          	jal	ra,46f0 <ip_output>
    863c:	854a                	mv	a0,s2
    863e:	80efd0ef          	jal	ra,564c <pbuf_free>
    8642:	bc9f706f          	j	20a <__riscv_restore_4>
    8646:	4a01                	li	s4,0
    8648:	45d5                	li	a1,21
    864a:	b7a5                	j	85b2 <tcp_zero_window_probe+0x2a>
    864c:	4418                	lw	a4,8(s0)
    864e:	00492783          	lw	a5,4(s2)
    8652:	00070703          	lb	a4,0(a4)
    8656:	abd8                	sb	a4,20(a5)
    8658:	bf5d                	j	860e <tcp_zero_window_probe+0x86>

0000865a <udp_input>:
    865a:	b67f72ef          	jal	t0,1c0 <__riscv_save_12>
    865e:	4140                	lw	s0,4(a0)
    8660:	2506                	lhu	s1,8(a0)
    8662:	892a                	mv	s2,a0
    8664:	301c                	lbu	a5,1(s0)
    8666:	2008                	lbu	a0,0(s0)
    8668:	1141                	addi	sp,sp,-16
    866a:	07a2                	slli	a5,a5,0x8
    866c:	8d5d                	or	a0,a0,a5
    866e:	8a2e                	mv	s4,a1
    8670:	c03fb0ef          	jal	ra,4272 <ntohs>
    8674:	8121                	srli	a0,a0,0x8
    8676:	893d                	andi	a0,a0,15
    8678:	0509                	addi	a0,a0,2
    867a:	050a                	slli	a0,a0,0x2
    867c:	02a4c263          	blt	s1,a0,86a0 <udp_input+0x46>
    8680:	301c                	lbu	a5,1(s0)
    8682:	2008                	lbu	a0,0(s0)
    8684:	07a2                	slli	a5,a5,0x8
    8686:	8d5d                	or	a0,a0,a5
    8688:	bebfb0ef          	jal	ra,4272 <ntohs>
    868c:	00655593          	srli	a1,a0,0x6
    8690:	03c5f593          	andi	a1,a1,60
    8694:	40b005b3          	neg	a1,a1
    8698:	854a                	mv	a0,s2
    869a:	f45fc0ef          	jal	ra,55de <pbuf_header>
    869e:	c519                	beqz	a0,86ac <udp_input+0x52>
    86a0:	854a                	mv	a0,s2
    86a2:	fabfc0ef          	jal	ra,564c <pbuf_free>
    86a6:	0141                	addi	sp,sp,16
    86a8:	b55f706f          	j	1fc <__riscv_restore_12>
    86ac:	00492a83          	lw	s5,4(s2)
    86b0:	01040c13          	addi	s8,s0,16
    86b4:	85d2                	mv	a1,s4
    86b6:	8562                	mv	a0,s8
    86b8:	86efc0ef          	jal	ra,4726 <ip_addr_isbroadcast>
    86bc:	001ac783          	lbu	a5,1(s5)
    86c0:	8b2a                	mv	s6,a0
    86c2:	000ac503          	lbu	a0,0(s5)
    86c6:	07a2                	slli	a5,a5,0x8
    86c8:	8d5d                	or	a0,a0,a5
    86ca:	ba9fb0ef          	jal	ra,4272 <ntohs>
    86ce:	003ac783          	lbu	a5,3(s5)
    86d2:	8baa                	mv	s7,a0
    86d4:	002ac503          	lbu	a0,2(s5)
    86d8:	07a2                	slli	a5,a5,0x8
    86da:	8d5d                	or	a0,a0,a5
    86dc:	b97fb0ef          	jal	ra,4272 <ntohs>
    86e0:	04400793          	li	a5,68
    86e4:	86aa                	mv	a3,a0
    86e6:	06f51d63          	bne	a0,a5,8760 <udp_input+0x106>
    86ea:	04300793          	li	a5,67
    86ee:	12fb9963          	bne	s7,a5,8820 <udp_input+0x1c6>
    86f2:	020a2783          	lw	a5,32(s4)
    86f6:	12078563          	beqz	a5,8820 <udp_input+0x1c6>
    86fa:	43c4                	lw	s1,4(a5)
    86fc:	12048263          	beqz	s1,8820 <udp_input+0x1c6>
    8700:	40d4                	lw	a3,4(s1)
    8702:	ce89                	beqz	a3,871c <udp_input+0xc2>
    8704:	3458                	lbu	a4,13(s0)
    8706:	245c                	lbu	a5,12(s0)
    8708:	0722                	slli	a4,a4,0x8
    870a:	8f5d                	or	a4,a4,a5
    870c:	247c                	lbu	a5,14(s0)
    870e:	07c2                	slli	a5,a5,0x10
    8710:	8f5d                	or	a4,a4,a5
    8712:	347c                	lbu	a5,15(s0)
    8714:	07e2                	slli	a5,a5,0x18
    8716:	8fd9                	or	a5,a5,a4
    8718:	10f69463          	bne	a3,a5,8820 <udp_input+0x1c6>
    871c:	007ac783          	lbu	a5,7(s5)
    8720:	006ac703          	lbu	a4,6(s5)
    8724:	07a2                	slli	a5,a5,0x8
    8726:	8fd9                	or	a5,a5,a4
    8728:	cb99                	beqz	a5,873e <udp_input+0xe4>
    872a:	00895703          	lhu	a4,8(s2)
    872e:	46c5                	li	a3,17
    8730:	8662                	mv	a2,s8
    8732:	00c40593          	addi	a1,s0,12
    8736:	854a                	mv	a0,s2
    8738:	71e000ef          	jal	ra,8e56 <inet_chksum_pseudo>
    873c:	f135                	bnez	a0,86a0 <udp_input+0x46>
    873e:	55e1                	li	a1,-8
    8740:	854a                	mv	a0,s2
    8742:	e9dfc0ef          	jal	ra,55de <pbuf_header>
    8746:	fd29                	bnez	a0,86a0 <udp_input+0x46>
    8748:	0e048c63          	beqz	s1,8840 <udp_input+0x1e6>
    874c:	4c9c                	lw	a5,24(s1)
    874e:	dba9                	beqz	a5,86a0 <udp_input+0x46>
    8750:	4cc8                	lw	a0,28(s1)
    8752:	875e                	mv	a4,s7
    8754:	00c40693          	addi	a3,s0,12
    8758:	864a                	mv	a2,s2
    875a:	85a6                	mv	a1,s1
    875c:	9782                	jalr	a5
    875e:	b7a1                	j	86a6 <udp_input+0x4c>
    8760:	9441a483          	lw	s1,-1724(gp) # 20000164 <udp_pcbs>
    8764:	4d01                	li	s10,0
    8766:	4d81                	li	s11,0
    8768:	94418c93          	addi	s9,gp,-1724 # 20000164 <udp_pcbs>
    876c:	76c00613          	li	a2,1900
    8770:	e489                	bnez	s1,877a <udp_input+0x120>
    8772:	0a0d0763          	beqz	s10,8820 <udp_input+0x1c6>
    8776:	84ea                	mv	s1,s10
    8778:	b755                	j	871c <udp_input+0xc2>
    877a:	28be                	lhu	a5,18(s1)
    877c:	08d79c63          	bne	a5,a3,8814 <udp_input+0x1ba>
    8780:	4098                	lw	a4,0(s1)
    8782:	040b1563          	bnez	s6,87cc <udp_input+0x172>
    8786:	e339                	bnez	a4,87cc <udp_input+0x172>
    8788:	000d1663          	bnez	s10,8794 <udp_input+0x13a>
    878c:	289c                	lbu	a5,16(s1)
    878e:	8b91                	andi	a5,a5,4
    8790:	e391                	bnez	a5,8794 <udp_input+0x13a>
    8792:	8d26                	mv	s10,s1
    8794:	28de                	lhu	a5,20(s1)
    8796:	09779263          	bne	a5,s7,881a <udp_input+0x1c0>
    879a:	40cc                	lw	a1,4(s1)
    879c:	cd89                	beqz	a1,87b6 <udp_input+0x15c>
    879e:	3458                	lbu	a4,13(s0)
    87a0:	245c                	lbu	a5,12(s0)
    87a2:	0722                	slli	a4,a4,0x8
    87a4:	8f5d                	or	a4,a4,a5
    87a6:	247c                	lbu	a5,14(s0)
    87a8:	07c2                	slli	a5,a5,0x10
    87aa:	8f5d                	or	a4,a4,a5
    87ac:	347c                	lbu	a5,15(s0)
    87ae:	07e2                	slli	a5,a5,0x18
    87b0:	8fd9                	or	a5,a5,a4
    87b2:	06f59463          	bne	a1,a5,881a <udp_input+0x1c0>
    87b6:	f60d83e3          	beqz	s11,871c <udp_input+0xc2>
    87ba:	44dc                	lw	a5,12(s1)
    87bc:	00fda623          	sw	a5,12(s11)
    87c0:	000ca783          	lw	a5,0(s9)
    87c4:	009ca023          	sw	s1,0(s9)
    87c8:	c4dc                	sw	a5,12(s1)
    87ca:	bf89                	j	871c <udp_input+0xc2>
    87cc:	381c                	lbu	a5,17(s0)
    87ce:	01044983          	lbu	s3,16(s0)
    87d2:	07a2                	slli	a5,a5,0x8
    87d4:	0137e7b3          	or	a5,a5,s3
    87d8:	01244983          	lbu	s3,18(s0)
    87dc:	09c2                	slli	s3,s3,0x10
    87de:	00f9e7b3          	or	a5,s3,a5
    87e2:	01344983          	lbu	s3,19(s0)
    87e6:	09e2                	slli	s3,s3,0x18
    87e8:	00f9e9b3          	or	s3,s3,a5
    87ec:	f8e98ee3          	beq	s3,a4,8788 <udp_input+0x12e>
    87f0:	f0000537          	lui	a0,0xf0000
    87f4:	c636                	sw	a3,12(sp)
    87f6:	aaffb0ef          	jal	ra,42a4 <ntohl>
    87fa:	00a9f9b3          	and	s3,s3,a0
    87fe:	e0000537          	lui	a0,0xe0000
    8802:	aa3fb0ef          	jal	ra,42a4 <ntohl>
    8806:	46b2                	lw	a3,12(sp)
    8808:	76c00613          	li	a2,1900
    880c:	f6a98ee3          	beq	s3,a0,8788 <udp_input+0x12e>
    8810:	f60b1ce3          	bnez	s6,8788 <udp_input+0x12e>
    8814:	8da6                	mv	s11,s1
    8816:	44c4                	lw	s1,12(s1)
    8818:	bfa1                	j	8770 <udp_input+0x116>
    881a:	fec69de3          	bne	a3,a2,8814 <udp_input+0x1ba>
    881e:	bdfd                	j	871c <udp_input+0xc2>
    8820:	3818                	lbu	a4,17(s0)
    8822:	281c                	lbu	a5,16(s0)
    8824:	0722                	slli	a4,a4,0x8
    8826:	8f5d                	or	a4,a4,a5
    8828:	283c                	lbu	a5,18(s0)
    882a:	07c2                	slli	a5,a5,0x10
    882c:	8f5d                	or	a4,a4,a5
    882e:	383c                	lbu	a5,19(s0)
    8830:	07e2                	slli	a5,a5,0x18
    8832:	8fd9                	or	a5,a5,a4
    8834:	004a2703          	lw	a4,4(s4)
    8838:	e6f714e3          	bne	a4,a5,86a0 <udp_input+0x46>
    883c:	4481                	li	s1,0
    883e:	bdf9                	j	871c <udp_input+0xc2>
    8840:	e60b10e3          	bnez	s6,86a0 <udp_input+0x46>
    8844:	381c                	lbu	a5,17(s0)
    8846:	2804                	lbu	s1,16(s0)
    8848:	f0000537          	lui	a0,0xf0000
    884c:	07a2                	slli	a5,a5,0x8
    884e:	8fc5                	or	a5,a5,s1
    8850:	2824                	lbu	s1,18(s0)
    8852:	04c2                	slli	s1,s1,0x10
    8854:	8fc5                	or	a5,a5,s1
    8856:	3824                	lbu	s1,19(s0)
    8858:	04e2                	slli	s1,s1,0x18
    885a:	8cdd                	or	s1,s1,a5
    885c:	a49fb0ef          	jal	ra,42a4 <ntohl>
    8860:	8ce9                	and	s1,s1,a0
    8862:	e0000537          	lui	a0,0xe0000
    8866:	a3ffb0ef          	jal	ra,42a4 <ntohl>
    886a:	e2a48be3          	beq	s1,a0,86a0 <udp_input+0x46>
    886e:	301c                	lbu	a5,1(s0)
    8870:	2008                	lbu	a0,0(s0)
    8872:	07a2                	slli	a5,a5,0x8
    8874:	8d5d                	or	a0,a0,a5
    8876:	9fdfb0ef          	jal	ra,4272 <ntohs>
    887a:	00855593          	srli	a1,a0,0x8
    887e:	89bd                	andi	a1,a1,15
    8880:	0589                	addi	a1,a1,2
    8882:	058a                	slli	a1,a1,0x2
    8884:	854a                	mv	a0,s2
    8886:	d59fc0ef          	jal	ra,55de <pbuf_header>
    888a:	458d                	li	a1,3
    888c:	854a                	mv	a0,s2
    888e:	230d                	jal	8db0 <icmp_dest_unreach>
    8890:	bd01                	j	86a0 <udp_input+0x46>

00008892 <udp_bind>:
    8892:	9441a883          	lw	a7,-1724(gp) # 20000164 <udp_pcbs>
    8896:	86aa                	mv	a3,a0
    8898:	4301                	li	t1,0
    889a:	87c6                	mv	a5,a7
    889c:	94418813          	addi	a6,gp,-1724 # 20000164 <udp_pcbs>
    88a0:	e79d                	bnez	a5,88ce <udp_bind+0x3c>
    88a2:	c999                	beqz	a1,88b8 <udp_bind+0x26>
    88a4:	3198                	lbu	a4,1(a1)
    88a6:	219c                	lbu	a5,0(a1)
    88a8:	0722                	slli	a4,a4,0x8
    88aa:	8f5d                	or	a4,a4,a5
    88ac:	21bc                	lbu	a5,2(a1)
    88ae:	07c2                	slli	a5,a5,0x10
    88b0:	8f5d                	or	a4,a4,a5
    88b2:	31bc                	lbu	a5,3(a1)
    88b4:	07e2                	slli	a5,a5,0x18
    88b6:	8fd9                	or	a5,a5,a4
    88b8:	c29c                	sw	a5,0(a3)
    88ba:	c625                	beqz	a2,8922 <udp_bind+0x90>
    88bc:	aab2                	sh	a2,18(a3)
    88be:	4501                	li	a0,0
    88c0:	00031663          	bnez	t1,88cc <udp_bind+0x3a>
    88c4:	0116a623          	sw	a7,12(a3)
    88c8:	00d82023          	sw	a3,0(a6)
    88cc:	8082                	ret
    88ce:	02d78b63          	beq	a5,a3,8904 <udp_bind+0x72>
    88d2:	2bba                	lhu	a4,18(a5)
    88d4:	02c71663          	bne	a4,a2,8900 <udp_bind+0x6e>
    88d8:	0007ae03          	lw	t3,0(a5) # 5000 <dhcp_delete_request+0xa>
    88dc:	000e1463          	bnez	t3,88e4 <udp_bind+0x52>
    88e0:	5555                	li	a0,-11
    88e2:	8082                	ret
    88e4:	ddf5                	beqz	a1,88e0 <udp_bind+0x4e>
    88e6:	3188                	lbu	a0,1(a1)
    88e8:	2198                	lbu	a4,0(a1)
    88ea:	0522                	slli	a0,a0,0x8
    88ec:	8d59                	or	a0,a0,a4
    88ee:	21b8                	lbu	a4,2(a1)
    88f0:	0742                	slli	a4,a4,0x10
    88f2:	8d59                	or	a0,a0,a4
    88f4:	31b8                	lbu	a4,3(a1)
    88f6:	0762                	slli	a4,a4,0x18
    88f8:	8f49                	or	a4,a4,a0
    88fa:	d37d                	beqz	a4,88e0 <udp_bind+0x4e>
    88fc:	feee02e3          	beq	t3,a4,88e0 <udp_bind+0x4e>
    8900:	47dc                	lw	a5,12(a5)
    8902:	bf79                	j	88a0 <udp_bind+0xe>
    8904:	4305                	li	t1,1
    8906:	bfed                	j	8900 <udp_bind+0x6e>
    8908:	2bae                	lhu	a1,18(a5)
    890a:	00c59a63          	bne	a1,a2,891e <udp_bind+0x8c>
    890e:	0605                	addi	a2,a2,1
    8910:	0642                	slli	a2,a2,0x10
    8912:	8241                	srli	a2,a2,0x10
    8914:	87c6                	mv	a5,a7
    8916:	d3dd                	beqz	a5,88bc <udp_bind+0x2a>
    8918:	fee618e3          	bne	a2,a4,8908 <udp_bind+0x76>
    891c:	b7d1                	j	88e0 <udp_bind+0x4e>
    891e:	47dc                	lw	a5,12(a5)
    8920:	bfdd                	j	8916 <udp_bind+0x84>
    8922:	6721                	lui	a4,0x8
    8924:	87c6                	mv	a5,a7
    8926:	6605                	lui	a2,0x1
    8928:	177d                	addi	a4,a4,-1
    892a:	b7f5                	j	8916 <udp_bind+0x84>

0000892c <udp_sendto_if>:
    892c:	8abf72ef          	jal	t0,1d6 <__riscv_save_4>
    8930:	293e                	lhu	a5,18(a0)
    8932:	892a                	mv	s2,a0
    8934:	89ae                	mv	s3,a1
    8936:	8ab2                	mv	s5,a2
    8938:	8b36                	mv	s6,a3
    893a:	8a3a                	mv	s4,a4
    893c:	c7ad                	beqz	a5,89a6 <udp_sendto_if+0x7a>
    893e:	45a1                	li	a1,8
    8940:	854e                	mv	a0,s3
    8942:	c9dfc0ef          	jal	ra,55de <pbuf_header>
    8946:	84ce                	mv	s1,s3
    8948:	cd01                	beqz	a0,8960 <udp_sendto_if+0x34>
    894a:	4601                	li	a2,0
    894c:	45a1                	li	a1,8
    894e:	4505                	li	a0,1
    8950:	d4bfc0ef          	jal	ra,569a <pbuf_alloc>
    8954:	84aa                	mv	s1,a0
    8956:	547d                	li	s0,-1
    8958:	cd29                	beqz	a0,89b2 <udp_sendto_if+0x86>
    895a:	85ce                	mv	a1,s3
    895c:	f0ffc0ef          	jal	ra,586a <pbuf_chain>
    8960:	01295503          	lhu	a0,18(s2)
    8964:	40c0                	lw	s0,4(s1)
    8966:	8fffb0ef          	jal	ra,4264 <htons>
    896a:	a008                	sb	a0,0(s0)
    896c:	8121                	srli	a0,a0,0x8
    896e:	b008                	sb	a0,1(s0)
    8970:	855a                	mv	a0,s6
    8972:	8f3fb0ef          	jal	ra,4264 <htons>
    8976:	00092783          	lw	a5,0(s2)
    897a:	a028                	sb	a0,2(s0)
    897c:	8121                	srli	a0,a0,0x8
    897e:	b028                	sb	a0,3(s0)
    8980:	00040323          	sb	zero,6(s0)
    8984:	000403a3          	sb	zero,7(s0)
    8988:	004a0b13          	addi	s6,s4,4
    898c:	c795                	beqz	a5,89b8 <udp_sendto_if+0x8c>
    898e:	004a2703          	lw	a4,4(s4)
    8992:	8b4a                	mv	s6,s2
    8994:	02e78263          	beq	a5,a4,89b8 <udp_sendto_if+0x8c>
    8998:	545d                	li	s0,-9
    899a:	01348c63          	beq	s1,s3,89b2 <udp_sendto_if+0x86>
    899e:	8526                	mv	a0,s1
    89a0:	cadfc0ef          	jal	ra,564c <pbuf_free>
    89a4:	a039                	j	89b2 <udp_sendto_if+0x86>
    89a6:	4601                	li	a2,0
    89a8:	85aa                	mv	a1,a0
    89aa:	ee9ff0ef          	jal	ra,8892 <udp_bind>
    89ae:	842a                	mv	s0,a0
    89b0:	d559                	beqz	a0,893e <udp_sendto_if+0x12>
    89b2:	8522                	mv	a0,s0
    89b4:	857f706f          	j	20a <__riscv_restore_4>
    89b8:	248a                	lhu	a0,8(s1)
    89ba:	8abfb0ef          	jal	ra,4264 <htons>
    89be:	a048                	sb	a0,4(s0)
    89c0:	8121                	srli	a0,a0,0x8
    89c2:	b048                	sb	a0,5(s0)
    89c4:	01094783          	lbu	a5,16(s2)
    89c8:	8b85                	andi	a5,a5,1
    89ca:	eb99                	bnez	a5,89e0 <udp_sendto_if+0xb4>
    89cc:	249a                	lhu	a4,8(s1)
    89ce:	46c5                	li	a3,17
    89d0:	8656                	mv	a2,s5
    89d2:	85da                	mv	a1,s6
    89d4:	8526                	mv	a0,s1
    89d6:	2141                	jal	8e56 <inet_chksum_pseudo>
    89d8:	c10d                	beqz	a0,89fa <udp_sendto_if+0xce>
    89da:	a068                	sb	a0,6(s0)
    89dc:	8121                	srli	a0,a0,0x8
    89de:	b068                	sb	a0,7(s0)
    89e0:	00a94703          	lbu	a4,10(s2)
    89e4:	00b94683          	lbu	a3,11(s2)
    89e8:	8852                	mv	a6,s4
    89ea:	47c5                	li	a5,17
    89ec:	8656                	mv	a2,s5
    89ee:	85da                	mv	a1,s6
    89f0:	8526                	mv	a0,s1
    89f2:	ba5fb0ef          	jal	ra,4596 <ip_output_if>
    89f6:	842a                	mv	s0,a0
    89f8:	b74d                	j	899a <udp_sendto_if+0x6e>
    89fa:	57fd                	li	a5,-1
    89fc:	a07c                	sb	a5,6(s0)
    89fe:	b07c                	sb	a5,7(s0)
    8a00:	b7c5                	j	89e0 <udp_sendto_if+0xb4>

00008a02 <udp_sendto>:
    8a02:	feef72ef          	jal	t0,1f0 <__riscv_save_0>
    8a06:	1141                	addi	sp,sp,-16
    8a08:	842a                	mv	s0,a0
    8a0a:	8532                	mv	a0,a2
    8a0c:	c62e                	sw	a1,12(sp)
    8a0e:	c436                	sw	a3,8(sp)
    8a10:	c232                	sw	a2,4(sp)
    8a12:	89ffb0ef          	jal	ra,42b0 <ip_route>
    8a16:	c919                	beqz	a0,8a2c <udp_sendto+0x2a>
    8a18:	46a2                	lw	a3,8(sp)
    8a1a:	4612                	lw	a2,4(sp)
    8a1c:	45b2                	lw	a1,12(sp)
    8a1e:	872a                	mv	a4,a0
    8a20:	8522                	mv	a0,s0
    8a22:	f0bff0ef          	jal	ra,892c <udp_sendto_if>
    8a26:	0141                	addi	sp,sp,16
    8a28:	fecf706f          	j	214 <__riscv_restore_0>
    8a2c:	5571                	li	a0,-4
    8a2e:	bfe5                	j	8a26 <udp_sendto+0x24>

00008a30 <udp_send>:
    8a30:	fc0f72ef          	jal	t0,1f0 <__riscv_save_0>
    8a34:	2956                	lhu	a3,20(a0)
    8a36:	00450613          	addi	a2,a0,4 # e0000004 <_eusrstack+0xbfff0004>
    8a3a:	fc9ff0ef          	jal	ra,8a02 <udp_sendto>
    8a3e:	fd6f706f          	j	214 <__riscv_restore_0>

00008a42 <udp_connect>:
    8a42:	faef72ef          	jal	t0,1f0 <__riscv_save_0>
    8a46:	293e                	lhu	a5,18(a0)
    8a48:	842a                	mv	s0,a0
    8a4a:	84ae                	mv	s1,a1
    8a4c:	8932                	mv	s2,a2
    8a4e:	cbb1                	beqz	a5,8aa2 <udp_connect+0x60>
    8a50:	4781                	li	a5,0
    8a52:	c899                	beqz	s1,8a68 <udp_connect+0x26>
    8a54:	3098                	lbu	a4,1(s1)
    8a56:	209c                	lbu	a5,0(s1)
    8a58:	0722                	slli	a4,a4,0x8
    8a5a:	8f5d                	or	a4,a4,a5
    8a5c:	20bc                	lbu	a5,2(s1)
    8a5e:	07c2                	slli	a5,a5,0x10
    8a60:	8f5d                	or	a4,a4,a5
    8a62:	30bc                	lbu	a5,3(s1)
    8a64:	07e2                	slli	a5,a5,0x18
    8a66:	8fd9                	or	a5,a5,a4
    8a68:	2818                	lbu	a4,16(s0)
    8a6a:	c05c                	sw	a5,4(s0)
    8a6c:	01241a23          	sh	s2,20(s0)
    8a70:	00476713          	ori	a4,a4,4
    8a74:	a818                	sb	a4,16(s0)
    8a76:	4018                	lw	a4,0(s0)
    8a78:	ef05                	bnez	a4,8ab0 <udp_connect+0x6e>
    8a7a:	cf85                	beqz	a5,8ab2 <udp_connect+0x70>
    8a7c:	00440513          	addi	a0,s0,4
    8a80:	831fb0ef          	jal	ra,42b0 <ip_route>
    8a84:	87aa                	mv	a5,a0
    8a86:	5571                	li	a0,-4
    8a88:	c395                	beqz	a5,8aac <udp_connect+0x6a>
    8a8a:	43dc                	lw	a5,4(a5)
    8a8c:	c01c                	sw	a5,0(s0)
    8a8e:	9441a683          	lw	a3,-1724(gp) # 20000164 <udp_pcbs>
    8a92:	94418793          	addi	a5,gp,-1724 # 20000164 <udp_pcbs>
    8a96:	8736                	mv	a4,a3
    8a98:	e305                	bnez	a4,8ab8 <udp_connect+0x76>
    8a9a:	c454                	sw	a3,12(s0)
    8a9c:	c380                	sw	s0,0(a5)
    8a9e:	4501                	li	a0,0
    8aa0:	a031                	j	8aac <udp_connect+0x6a>
    8aa2:	4601                	li	a2,0
    8aa4:	85aa                	mv	a1,a0
    8aa6:	dedff0ef          	jal	ra,8892 <udp_bind>
    8aaa:	d15d                	beqz	a0,8a50 <udp_connect+0xe>
    8aac:	f68f706f          	j	214 <__riscv_restore_0>
    8ab0:	fff9                	bnez	a5,8a8e <udp_connect+0x4c>
    8ab2:	00042023          	sw	zero,0(s0)
    8ab6:	bfe1                	j	8a8e <udp_connect+0x4c>
    8ab8:	fe8703e3          	beq	a4,s0,8a9e <udp_connect+0x5c>
    8abc:	4758                	lw	a4,12(a4)
    8abe:	bfe9                	j	8a98 <udp_connect+0x56>

00008ac0 <udp_recv>:
    8ac0:	cd0c                	sw	a1,24(a0)
    8ac2:	cd50                	sw	a2,28(a0)
    8ac4:	8082                	ret

00008ac6 <udp_new>:
    8ac6:	f2af72ef          	jal	t0,1f0 <__riscv_save_0>
    8aca:	4505                	li	a0,1
    8acc:	98ffc0ef          	jal	ra,545a <memp_malloc>
    8ad0:	842a                	mv	s0,a0
    8ad2:	c909                	beqz	a0,8ae4 <udp_new+0x1e>
    8ad4:	02000613          	li	a2,32
    8ad8:	4581                	li	a1,0
    8ada:	f46f70ef          	jal	ra,220 <memset>
    8ade:	f8000793          	li	a5,-128
    8ae2:	b43c                	sb	a5,11(s0)
    8ae4:	8522                	mv	a0,s0
    8ae6:	f2ef706f          	j	214 <__riscv_restore_0>

00008aea <icmp_send_response.isra.0>:
    8aea:	eecf72ef          	jal	t0,1d6 <__riscv_save_4>
    8aee:	842a                	mv	s0,a0
    8af0:	8a2e                	mv	s4,a1
    8af2:	89b2                	mv	s3,a2
    8af4:	02400593          	li	a1,36
    8af8:	4601                	li	a2,0
    8afa:	4505                	li	a0,1
    8afc:	b9ffc0ef          	jal	ra,569a <pbuf_alloc>
    8b00:	cd31                	beqz	a0,8b5c <icmp_send_response.isra.0+0x72>
    8b02:	00042903          	lw	s2,0(s0)
    8b06:	4140                	lw	s0,4(a0)
    8b08:	84aa                	mv	s1,a0
    8b0a:	4671                	li	a2,28
    8b0c:	85ca                	mv	a1,s2
    8b0e:	01440023          	sb	s4,0(s0)
    8b12:	013400a3          	sb	s3,1(s0)
    8b16:	00040223          	sb	zero,4(s0)
    8b1a:	000402a3          	sb	zero,5(s0)
    8b1e:	00040323          	sb	zero,6(s0)
    8b22:	000403a3          	sb	zero,7(s0)
    8b26:	00840513          	addi	a0,s0,8
    8b2a:	27f000ef          	jal	ra,95a8 <memcpy>
    8b2e:	24ae                	lhu	a1,10(s1)
    8b30:	00040123          	sb	zero,2(s0)
    8b34:	000401a3          	sb	zero,3(s0)
    8b38:	8522                	mv	a0,s0
    8b3a:	211d                	jal	8f60 <inet_chksum>
    8b3c:	a028                	sb	a0,2(s0)
    8b3e:	8121                	srli	a0,a0,0x8
    8b40:	b028                	sb	a0,3(s0)
    8b42:	4785                	li	a5,1
    8b44:	4701                	li	a4,0
    8b46:	08000693          	li	a3,128
    8b4a:	00c90613          	addi	a2,s2,12
    8b4e:	4581                	li	a1,0
    8b50:	8526                	mv	a0,s1
    8b52:	b9ffb0ef          	jal	ra,46f0 <ip_output>
    8b56:	8526                	mv	a0,s1
    8b58:	af5fc0ef          	jal	ra,564c <pbuf_free>
    8b5c:	eaef706f          	j	20a <__riscv_restore_4>

00008b60 <icmp_input>:
    8b60:	e68f72ef          	jal	t0,1c8 <__riscv_save_10>
    8b64:	4140                	lw	s0,4(a0)
    8b66:	84aa                	mv	s1,a0
    8b68:	1141                	addi	sp,sp,-16
    8b6a:	301c                	lbu	a5,1(s0)
    8b6c:	2008                	lbu	a0,0(s0)
    8b6e:	89ae                	mv	s3,a1
    8b70:	07a2                	slli	a5,a5,0x8
    8b72:	8d5d                	or	a0,a0,a5
    8b74:	efefb0ef          	jal	ra,4272 <ntohs>
    8b78:	00655913          	srli	s2,a0,0x6
    8b7c:	03c97913          	andi	s2,s2,60
    8b80:	41200ab3          	neg	s5,s2
    8b84:	0ac2                	slli	s5,s5,0x10
    8b86:	410ada93          	srai	s5,s5,0x10
    8b8a:	85d6                	mv	a1,s5
    8b8c:	8526                	mv	a0,s1
    8b8e:	a51fc0ef          	jal	ra,55de <pbuf_header>
    8b92:	e139                	bnez	a0,8bd8 <icmp_input+0x78>
    8b94:	249e                	lhu	a5,8(s1)
    8b96:	468d                	li	a3,3
    8b98:	04f6f063          	bgeu	a3,a5,8bd8 <icmp_input+0x78>
    8b9c:	40dc                	lw	a5,4(s1)
    8b9e:	2398                	lbu	a4,0(a5)
    8ba0:	04d71263          	bne	a4,a3,8be4 <icmp_input+0x84>
    8ba4:	2798                	lbu	a4,8(a5)
    8ba6:	00878693          	addi	a3,a5,8
    8baa:	3f88                	lbu	a0,25(a5)
    8bac:	8b3d                	andi	a4,a4,15
    8bae:	070a                	slli	a4,a4,0x2
    8bb0:	9736                	add	a4,a4,a3
    8bb2:	232c                	lbu	a1,2(a4)
    8bb4:	00374803          	lbu	a6,3(a4) # 8003 <tcp_output+0x5d>
    8bb8:	2f98                	lbu	a4,24(a5)
    8bba:	0522                	slli	a0,a0,0x8
    8bbc:	3394                	lbu	a3,1(a5)
    8bbe:	8d59                	or	a0,a0,a4
    8bc0:	2fb8                	lbu	a4,26(a5)
    8bc2:	3b90                	lbu	a2,17(a5)
    8bc4:	05a2                	slli	a1,a1,0x8
    8bc6:	0742                	slli	a4,a4,0x10
    8bc8:	8f49                	or	a4,a4,a0
    8bca:	3fa8                	lbu	a0,27(a5)
    8bcc:	0105e5b3          	or	a1,a1,a6
    8bd0:	0562                	slli	a0,a0,0x18
    8bd2:	8d59                	or	a0,a0,a4
    8bd4:	d25fa0ef          	jal	ra,38f8 <LwipUnreachPort>
    8bd8:	8526                	mv	a0,s1
    8bda:	a73fc0ef          	jal	ra,564c <pbuf_free>
    8bde:	0141                	addi	sp,sp,16
    8be0:	e20f706f          	j	200 <__riscv_restore_10>
    8be4:	47a1                	li	a5,8
    8be6:	fef719e3          	bne	a4,a5,8bd8 <icmp_input+0x78>
    8bea:	381c                	lbu	a5,17(s0)
    8bec:	01044a03          	lbu	s4,16(s0)
    8bf0:	f0000537          	lui	a0,0xf0000
    8bf4:	07a2                	slli	a5,a5,0x8
    8bf6:	0147e7b3          	or	a5,a5,s4
    8bfa:	01244a03          	lbu	s4,18(s0)
    8bfe:	4b01                	li	s6,0
    8c00:	0a42                	slli	s4,s4,0x10
    8c02:	00fa67b3          	or	a5,s4,a5
    8c06:	01344a03          	lbu	s4,19(s0)
    8c0a:	0a62                	slli	s4,s4,0x18
    8c0c:	00fa6a33          	or	s4,s4,a5
    8c10:	e94fb0ef          	jal	ra,42a4 <ntohl>
    8c14:	8c2a                	mv	s8,a0
    8c16:	e0000537          	lui	a0,0xe0000
    8c1a:	e8afb0ef          	jal	ra,42a4 <ntohl>
    8c1e:	8baa                	mv	s7,a0
    8c20:	85ce                	mv	a1,s3
    8c22:	01040513          	addi	a0,s0,16
    8c26:	b01fb0ef          	jal	ra,4726 <ip_addr_isbroadcast>
    8c2a:	e519                	bnez	a0,8c38 <icmp_input+0xd8>
    8c2c:	018a7533          	and	a0,s4,s8
    8c30:	41750533          	sub	a0,a0,s7
    8c34:	00a03b33          	snez	s6,a0
    8c38:	cb3fa0ef          	jal	ra,38ea <QueryPingEnable>
    8c3c:	dd51                	beqz	a0,8bd8 <icmp_input+0x78>
    8c3e:	f80b0de3          	beqz	s6,8bd8 <icmp_input+0x78>
    8c42:	249a                	lhu	a4,8(s1)
    8c44:	479d                	li	a5,7
    8c46:	f8e7f9e3          	bgeu	a5,a4,8bd8 <icmp_input+0x78>
    8c4a:	8526                	mv	a0,s1
    8c4c:	2625                	jal	8f74 <inet_chksum_pbuf>
    8c4e:	f549                	bnez	a0,8bd8 <icmp_input+0x78>
    8c50:	0942                	slli	s2,s2,0x10
    8c52:	02200593          	li	a1,34
    8c56:	8526                	mv	a0,s1
    8c58:	41095913          	srai	s2,s2,0x10
    8c5c:	983fc0ef          	jal	ra,55de <pbuf_header>
    8c60:	12050463          	beqz	a0,8d88 <icmp_input+0x228>
    8c64:	85ca                	mv	a1,s2
    8c66:	8526                	mv	a0,s1
    8c68:	977fc0ef          	jal	ra,55de <pbuf_header>
    8c6c:	f535                	bnez	a0,8bd8 <icmp_input+0x78>
    8c6e:	248e                	lhu	a1,8(s1)
    8c70:	4601                	li	a2,0
    8c72:	4509                	li	a0,2
    8c74:	a27fc0ef          	jal	ra,569a <pbuf_alloc>
    8c78:	8a2a                	mv	s4,a0
    8c7a:	dd39                	beqz	a0,8bd8 <icmp_input+0x78>
    8c7c:	85a6                	mv	a1,s1
    8c7e:	c01fc0ef          	jal	ra,587e <pbuf_copy>
    8c82:	f939                	bnez	a0,8bd8 <icmp_input+0x78>
    8c84:	85d6                	mv	a1,s5
    8c86:	8552                	mv	a0,s4
    8c88:	004a2403          	lw	s0,4(s4)
    8c8c:	953fc0ef          	jal	ra,55de <pbuf_header>
    8c90:	f521                	bnez	a0,8bd8 <icmp_input+0x78>
    8c92:	8526                	mv	a0,s1
    8c94:	9b9fc0ef          	jal	ra,564c <pbuf_free>
    8c98:	84d2                	mv	s1,s4
    8c9a:	3458                	lbu	a4,13(s0)
    8c9c:	245c                	lbu	a5,12(s0)
    8c9e:	3814                	lbu	a3,17(s0)
    8ca0:	0722                	slli	a4,a4,0x8
    8ca2:	8f5d                	or	a4,a4,a5
    8ca4:	247c                	lbu	a5,14(s0)
    8ca6:	06a2                	slli	a3,a3,0x8
    8ca8:	0044aa03          	lw	s4,4(s1)
    8cac:	07c2                	slli	a5,a5,0x10
    8cae:	8f5d                	or	a4,a4,a5
    8cb0:	347c                	lbu	a5,15(s0)
    8cb2:	653d                	lui	a0,0xf
    8cb4:	7ff50513          	addi	a0,a0,2047 # f7ff <_data_lma+0x5fb7>
    8cb8:	07e2                	slli	a5,a5,0x18
    8cba:	8fd9                	or	a5,a5,a4
    8cbc:	2818                	lbu	a4,16(s0)
    8cbe:	a81c                	sb	a5,16(s0)
    8cc0:	8ed9                	or	a3,a3,a4
    8cc2:	2838                	lbu	a4,18(s0)
    8cc4:	0742                	slli	a4,a4,0x10
    8cc6:	8ed9                	or	a3,a3,a4
    8cc8:	3838                	lbu	a4,19(s0)
    8cca:	0762                	slli	a4,a4,0x18
    8ccc:	8f55                	or	a4,a4,a3
    8cce:	00875693          	srli	a3,a4,0x8
    8cd2:	a458                	sb	a4,12(s0)
    8cd4:	b454                	sb	a3,13(s0)
    8cd6:	01075693          	srli	a3,a4,0x10
    8cda:	8361                	srli	a4,a4,0x18
    8cdc:	b478                	sb	a4,15(s0)
    8cde:	0087d713          	srli	a4,a5,0x8
    8ce2:	b818                	sb	a4,17(s0)
    8ce4:	0107d713          	srli	a4,a5,0x10
    8ce8:	83e1                	srli	a5,a5,0x18
    8cea:	a474                	sb	a3,14(s0)
    8cec:	a838                	sb	a4,18(s0)
    8cee:	b83c                	sb	a5,19(s0)
    8cf0:	003a4a83          	lbu	s5,3(s4)
    8cf4:	002a4783          	lbu	a5,2(s4)
    8cf8:	000a0023          	sb	zero,0(s4)
    8cfc:	0aa2                	slli	s5,s5,0x8
    8cfe:	00faeab3          	or	s5,s5,a5
    8d02:	d62fb0ef          	jal	ra,4264 <htons>
    8d06:	08aae963          	bltu	s5,a0,8d98 <icmp_input+0x238>
    8d0a:	6505                	lui	a0,0x1
    8d0c:	80050513          	addi	a0,a0,-2048 # 800 <__stack_size>
    8d10:	d54fb0ef          	jal	ra,4264 <htons>
    8d14:	003a4783          	lbu	a5,3(s4)
    8d18:	002a4703          	lbu	a4,2(s4)
    8d1c:	07a2                	slli	a5,a5,0x8
    8d1e:	8fd9                	or	a5,a5,a4
    8d20:	0785                	addi	a5,a5,1
    8d22:	953e                	add	a0,a0,a5
    8d24:	0542                	slli	a0,a0,0x10
    8d26:	8141                	srli	a0,a0,0x10
    8d28:	00aa0123          	sb	a0,2(s4)
    8d2c:	8121                	srli	a0,a0,0x8
    8d2e:	00aa01a3          	sb	a0,3(s4)
    8d32:	341c                	lbu	a5,9(s0)
    8d34:	2408                	lbu	a0,8(s0)
    8d36:	07a2                	slli	a5,a5,0x8
    8d38:	8d5d                	or	a0,a0,a5
    8d3a:	d38fb0ef          	jal	ra,4272 <ntohs>
    8d3e:	67a1                	lui	a5,0x8
    8d40:	0ff57513          	andi	a0,a0,255
    8d44:	8d5d                	or	a0,a0,a5
    8d46:	d1efb0ef          	jal	ra,4264 <htons>
    8d4a:	a408                	sb	a0,8(s0)
    8d4c:	8121                	srli	a0,a0,0x8
    8d4e:	b408                	sb	a0,9(s0)
    8d50:	45d1                	li	a1,20
    8d52:	00040523          	sb	zero,10(s0)
    8d56:	000405a3          	sb	zero,11(s0)
    8d5a:	8522                	mv	a0,s0
    8d5c:	2411                	jal	8f60 <inet_chksum>
    8d5e:	a428                	sb	a0,10(s0)
    8d60:	8121                	srli	a0,a0,0x8
    8d62:	b428                	sb	a0,11(s0)
    8d64:	85ca                	mv	a1,s2
    8d66:	8526                	mv	a0,s1
    8d68:	877fc0ef          	jal	ra,55de <pbuf_header>
    8d6c:	e60516e3          	bnez	a0,8bd8 <icmp_input+0x78>
    8d70:	884e                	mv	a6,s3
    8d72:	4785                	li	a5,1
    8d74:	4701                	li	a4,0
    8d76:	08000693          	li	a3,128
    8d7a:	4601                	li	a2,0
    8d7c:	00c40593          	addi	a1,s0,12
    8d80:	8526                	mv	a0,s1
    8d82:	815fb0ef          	jal	ra,4596 <ip_output_if>
    8d86:	bd89                	j	8bd8 <icmp_input+0x78>
    8d88:	fde00593          	li	a1,-34
    8d8c:	8526                	mv	a0,s1
    8d8e:	851fc0ef          	jal	ra,55de <pbuf_header>
    8d92:	f00504e3          	beqz	a0,8c9a <icmp_input+0x13a>
    8d96:	b589                	j	8bd8 <icmp_input+0x78>
    8d98:	6505                	lui	a0,0x1
    8d9a:	80050513          	addi	a0,a0,-2048 # 800 <__stack_size>
    8d9e:	cc6fb0ef          	jal	ra,4264 <htons>
    8da2:	003a4783          	lbu	a5,3(s4)
    8da6:	002a4703          	lbu	a4,2(s4)
    8daa:	07a2                	slli	a5,a5,0x8
    8dac:	8fd9                	or	a5,a5,a4
    8dae:	bf95                	j	8d22 <icmp_input+0x1c2>

00008db0 <icmp_dest_unreach>:
    8db0:	c40f72ef          	jal	t0,1f0 <__riscv_save_0>
    8db4:	0ff5f613          	andi	a2,a1,255
    8db8:	0511                	addi	a0,a0,4
    8dba:	458d                	li	a1,3
    8dbc:	d2fff0ef          	jal	ra,8aea <icmp_send_response.isra.0>
    8dc0:	c54f706f          	j	214 <__riscv_restore_0>

00008dc4 <icmp_time_exceeded>:
    8dc4:	c2cf72ef          	jal	t0,1f0 <__riscv_save_0>
    8dc8:	0ff5f613          	andi	a2,a1,255
    8dcc:	0511                	addi	a0,a0,4
    8dce:	45ad                	li	a1,11
    8dd0:	d1bff0ef          	jal	ra,8aea <icmp_send_response.isra.0>
    8dd4:	c40f706f          	j	214 <__riscv_restore_0>

00008dd8 <lwip_standard_chksum>:
    8dd8:	c18f72ef          	jal	t0,1f0 <__riscv_save_0>
    8ddc:	00b50833          	add	a6,a0,a1
    8de0:	0842                	slli	a6,a6,0x10
    8de2:	86aa                	mv	a3,a0
    8de4:	4701                	li	a4,0
    8de6:	01085813          	srli	a6,a6,0x10
    8dea:	4885                	li	a7,1
    8dec:	40d807b3          	sub	a5,a6,a3
    8df0:	07c2                	slli	a5,a5,0x10
    8df2:	83c1                	srli	a5,a5,0x10
    8df4:	04f8e463          	bltu	a7,a5,8e3c <lwip_standard_chksum+0x64>
    8df8:	0015d793          	srli	a5,a1,0x1
    8dfc:	00179693          	slli	a3,a5,0x1
    8e00:	9536                	add	a0,a0,a3
    8e02:	56f9                	li	a3,-2
    8e04:	02d787b3          	mul	a5,a5,a3
    8e08:	95be                	add	a1,a1,a5
    8e0a:	05c2                	slli	a1,a1,0x10
    8e0c:	81c1                	srli	a1,a1,0x10
    8e0e:	c581                	beqz	a1,8e16 <lwip_standard_chksum+0x3e>
    8e10:	211c                	lbu	a5,0(a0)
    8e12:	07a2                	slli	a5,a5,0x8
    8e14:	973e                	add	a4,a4,a5
    8e16:	6541                	lui	a0,0x10
    8e18:	fff50693          	addi	a3,a0,-1 # ffff <_data_lma+0x67b7>
    8e1c:	01075793          	srli	a5,a4,0x10
    8e20:	8f75                	and	a4,a4,a3
    8e22:	00e78533          	add	a0,a5,a4
    8e26:	77c1                	lui	a5,0xffff0
    8e28:	8fe9                	and	a5,a5,a0
    8e2a:	c399                	beqz	a5,8e30 <lwip_standard_chksum+0x58>
    8e2c:	8d75                	and	a0,a0,a3
    8e2e:	0505                	addi	a0,a0,1
    8e30:	0542                	slli	a0,a0,0x10
    8e32:	8141                	srli	a0,a0,0x10
    8e34:	c30fb0ef          	jal	ra,4264 <htons>
    8e38:	bdcf706f          	j	214 <__riscv_restore_0>
    8e3c:	329c                	lbu	a5,1(a3)
    8e3e:	2290                	lbu	a2,0(a3)
    8e40:	0689                	addi	a3,a3,2
    8e42:	07a2                	slli	a5,a5,0x8
    8e44:	8fd1                	or	a5,a5,a2
    8e46:	00879613          	slli	a2,a5,0x8
    8e4a:	83a1                	srli	a5,a5,0x8
    8e4c:	8fd1                	or	a5,a5,a2
    8e4e:	07c2                	slli	a5,a5,0x10
    8e50:	83c1                	srli	a5,a5,0x10
    8e52:	973e                	add	a4,a4,a5
    8e54:	bf61                	j	8dec <lwip_standard_chksum+0x14>

00008e56 <inet_chksum_pseudo>:
    8e56:	b72f72ef          	jal	t0,1c8 <__riscv_save_10>
    8e5a:	200097b7          	lui	a5,0x20009
    8e5e:	b947a783          	lw	a5,-1132(a5) # 20008b94 <WCHCfg+0x14>
    8e62:	84ba                	mv	s1,a4
    8e64:	1141                	addi	sp,sp,-16
    8e66:	00579713          	slli	a4,a5,0x5
    8e6a:	0e074963          	bltz	a4,8f5c <inet_chksum_pseudo+0x106>
    8e6e:	6b41                	lui	s6,0x10
    8e70:	892a                	mv	s2,a0
    8e72:	8aae                	mv	s5,a1
    8e74:	8a32                	mv	s4,a2
    8e76:	4981                	li	s3,0
    8e78:	4401                	li	s0,0
    8e7a:	1b7d                	addi	s6,s6,-1
    8e7c:	4b85                	li	s7,1
    8e7e:	08091e63          	bnez	s2,8f1a <inet_chksum_pseudo+0xc4>
    8e82:	00098b63          	beqz	s3,8e98 <inet_chksum_pseudo+0x42>
    8e86:	6741                	lui	a4,0x10
    8e88:	00841793          	slli	a5,s0,0x8
    8e8c:	177d                	addi	a4,a4,-1
    8e8e:	8021                	srli	s0,s0,0x8
    8e90:	8ff9                	and	a5,a5,a4
    8e92:	0ff47413          	andi	s0,s0,255
    8e96:	8c5d                	or	s0,s0,a5
    8e98:	001ac503          	lbu	a0,1(s5)
    8e9c:	000ac783          	lbu	a5,0(s5)
    8ea0:	000a4703          	lbu	a4,0(s4)
    8ea4:	0522                	slli	a0,a0,0x8
    8ea6:	8d5d                	or	a0,a0,a5
    8ea8:	002ac783          	lbu	a5,2(s5)
    8eac:	003a4603          	lbu	a2,3(s4)
    8eb0:	6941                	lui	s2,0x10
    8eb2:	07c2                	slli	a5,a5,0x10
    8eb4:	8d5d                	or	a0,a0,a5
    8eb6:	003ac783          	lbu	a5,3(s5)
    8eba:	0662                	slli	a2,a2,0x18
    8ebc:	197d                	addi	s2,s2,-1
    8ebe:	07e2                	slli	a5,a5,0x18
    8ec0:	8fc9                	or	a5,a5,a0
    8ec2:	001a4503          	lbu	a0,1(s4)
    8ec6:	0522                	slli	a0,a0,0x8
    8ec8:	8f49                	or	a4,a4,a0
    8eca:	002a4503          	lbu	a0,2(s4)
    8ece:	0542                	slli	a0,a0,0x10
    8ed0:	8d59                	or	a0,a0,a4
    8ed2:	8e49                	or	a2,a2,a0
    8ed4:	01267533          	and	a0,a2,s2
    8ed8:	8241                	srli	a2,a2,0x10
    8eda:	0127f733          	and	a4,a5,s2
    8ede:	9532                	add	a0,a0,a2
    8ee0:	953a                	add	a0,a0,a4
    8ee2:	83c1                	srli	a5,a5,0x10
    8ee4:	953e                	add	a0,a0,a5
    8ee6:	942a                	add	s0,s0,a0
    8ee8:	8536                	mv	a0,a3
    8eea:	b7afb0ef          	jal	ra,4264 <htons>
    8eee:	942a                	add	s0,s0,a0
    8ef0:	8526                	mv	a0,s1
    8ef2:	b72fb0ef          	jal	ra,4264 <htons>
    8ef6:	9522                	add	a0,a0,s0
    8ef8:	01055413          	srli	s0,a0,0x10
    8efc:	01257533          	and	a0,a0,s2
    8f00:	942a                	add	s0,s0,a0
    8f02:	01045513          	srli	a0,s0,0x10
    8f06:	01247433          	and	s0,s0,s2
    8f0a:	9522                	add	a0,a0,s0
    8f0c:	fff54513          	not	a0,a0
    8f10:	0542                	slli	a0,a0,0x10
    8f12:	8141                	srli	a0,a0,0x10
    8f14:	0141                	addi	sp,sp,16
    8f16:	aeaf706f          	j	200 <__riscv_restore_10>
    8f1a:	00a95583          	lhu	a1,10(s2) # 1000a <_data_lma+0x67c2>
    8f1e:	00492503          	lw	a0,4(s2)
    8f22:	c636                	sw	a3,12(sp)
    8f24:	eb5ff0ef          	jal	ra,8dd8 <lwip_standard_chksum>
    8f28:	942a                	add	s0,s0,a0
    8f2a:	01045793          	srli	a5,s0,0x10
    8f2e:	01647433          	and	s0,s0,s6
    8f32:	943e                	add	s0,s0,a5
    8f34:	00a95783          	lhu	a5,10(s2)
    8f38:	46b2                	lw	a3,12(sp)
    8f3a:	8b85                	andi	a5,a5,1
    8f3c:	cf89                	beqz	a5,8f56 <inet_chksum_pseudo+0x100>
    8f3e:	00841793          	slli	a5,s0,0x8
    8f42:	8021                	srli	s0,s0,0x8
    8f44:	413b89b3          	sub	s3,s7,s3
    8f48:	0167f7b3          	and	a5,a5,s6
    8f4c:	0ff47413          	andi	s0,s0,255
    8f50:	0ff9f993          	andi	s3,s3,255
    8f54:	8c5d                	or	s0,s0,a5
    8f56:	00092903          	lw	s2,0(s2)
    8f5a:	b715                	j	8e7e <inet_chksum_pseudo+0x28>
    8f5c:	4501                	li	a0,0
    8f5e:	bf5d                	j	8f14 <inet_chksum_pseudo+0xbe>

00008f60 <inet_chksum>:
    8f60:	a90f72ef          	jal	t0,1f0 <__riscv_save_0>
    8f64:	e75ff0ef          	jal	ra,8dd8 <lwip_standard_chksum>
    8f68:	fff54513          	not	a0,a0
    8f6c:	0542                	slli	a0,a0,0x10
    8f6e:	8141                	srli	a0,a0,0x10
    8f70:	aa4f706f          	j	214 <__riscv_restore_0>

00008f74 <inet_chksum_pbuf>:
    8f74:	a62f72ef          	jal	t0,1d6 <__riscv_save_4>
    8f78:	69c1                	lui	s3,0x10
    8f7a:	84aa                	mv	s1,a0
    8f7c:	4901                	li	s2,0
    8f7e:	4401                	li	s0,0
    8f80:	19fd                	addi	s3,s3,-1
    8f82:	4a05                	li	s4,1
    8f84:	e095                	bnez	s1,8fa8 <inet_chksum_pbuf+0x34>
    8f86:	00090b63          	beqz	s2,8f9c <inet_chksum_pbuf+0x28>
    8f8a:	6741                	lui	a4,0x10
    8f8c:	00841793          	slli	a5,s0,0x8
    8f90:	177d                	addi	a4,a4,-1
    8f92:	8021                	srli	s0,s0,0x8
    8f94:	8ff9                	and	a5,a5,a4
    8f96:	0ff47413          	andi	s0,s0,255
    8f9a:	8c5d                	or	s0,s0,a5
    8f9c:	fff44513          	not	a0,s0
    8fa0:	0542                	slli	a0,a0,0x10
    8fa2:	8141                	srli	a0,a0,0x10
    8fa4:	a66f706f          	j	20a <__riscv_restore_4>
    8fa8:	24ae                	lhu	a1,10(s1)
    8faa:	40c8                	lw	a0,4(s1)
    8fac:	e2dff0ef          	jal	ra,8dd8 <lwip_standard_chksum>
    8fb0:	942a                	add	s0,s0,a0
    8fb2:	01045793          	srli	a5,s0,0x10
    8fb6:	01347433          	and	s0,s0,s3
    8fba:	943e                	add	s0,s0,a5
    8fbc:	24be                	lhu	a5,10(s1)
    8fbe:	8b85                	andi	a5,a5,1
    8fc0:	cf89                	beqz	a5,8fda <inet_chksum_pbuf+0x66>
    8fc2:	00841793          	slli	a5,s0,0x8
    8fc6:	8021                	srli	s0,s0,0x8
    8fc8:	412a0933          	sub	s2,s4,s2
    8fcc:	0137f7b3          	and	a5,a5,s3
    8fd0:	0ff47413          	andi	s0,s0,255
    8fd4:	0ff97913          	andi	s2,s2,255
    8fd8:	8c5d                	or	s0,s0,a5
    8fda:	4084                	lw	s1,0(s1)
    8fdc:	b765                	j	8f84 <inet_chksum_pbuf+0x10>

00008fde <printchar>:
    8fde:	1101                	addi	sp,sp,-32
    8fe0:	ce06                	sw	ra,28(sp)
    8fe2:	c62e                	sw	a1,12(sp)
    8fe4:	cd0d                	beqz	a0,901e <printchar+0x40>
    8fe6:	4118                	lw	a4,0(a0)
    8fe8:	87aa                	mv	a5,a0
    8fea:	c305                	beqz	a4,900a <printchar+0x2c>
    8fec:	4158                	lw	a4,4(a0)
    8fee:	557d                	li	a0,-1
    8ff0:	cb11                	beqz	a4,9004 <printchar+0x26>
    8ff2:	4685                	li	a3,1
    8ff4:	00d71b63          	bne	a4,a3,900a <printchar+0x2c>
    8ff8:	4798                	lw	a4,8(a5)
    8ffa:	00070023          	sb	zero,0(a4) # 10000 <_data_lma+0x67b8>
    8ffe:	0007a223          	sw	zero,4(a5)
    9002:	4505                	li	a0,1
    9004:	40f2                	lw	ra,28(sp)
    9006:	6105                	addi	sp,sp,32
    9008:	8082                	ret
    900a:	4798                	lw	a4,8(a5)
    900c:	46b2                	lw	a3,12(sp)
    900e:	a314                	sb	a3,0(a4)
    9010:	4798                	lw	a4,8(a5)
    9012:	0705                	addi	a4,a4,1
    9014:	c798                	sw	a4,8(a5)
    9016:	43d8                	lw	a4,4(a5)
    9018:	177d                	addi	a4,a4,-1
    901a:	c3d8                	sw	a4,4(a5)
    901c:	b7dd                	j	9002 <printchar+0x24>
    901e:	4605                	li	a2,1
    9020:	006c                	addi	a1,sp,12
    9022:	e46f90ef          	jal	ra,2668 <_write>
    9026:	bff1                	j	9002 <printchar+0x24>

00009028 <prints>:
    9028:	7179                	addi	sp,sp,-48
    902a:	d422                	sw	s0,40(sp)
    902c:	d226                	sw	s1,36(sp)
    902e:	ce4e                	sw	s3,28(sp)
    9030:	cc52                	sw	s4,24(sp)
    9032:	ca56                	sw	s5,20(sp)
    9034:	d606                	sw	ra,44(sp)
    9036:	d04a                	sw	s2,32(sp)
    9038:	c85a                	sw	s6,16(sp)
    903a:	8a2a                	mv	s4,a0
    903c:	8aae                	mv	s5,a1
    903e:	8432                	mv	s0,a2
    9040:	4481                	li	s1,0
    9042:	02000993          	li	s3,32
    9046:	02064463          	bltz	a2,906e <prints+0x46>
    904a:	009a87b3          	add	a5,s5,s1
    904e:	00078783          	lb	a5,0(a5)
    9052:	e39d                	bnez	a5,9078 <prints+0x50>
    9054:	0284d663          	bge	s1,s0,9080 <prints+0x58>
    9058:	02e4d263          	bge	s1,a4,907c <prints+0x54>
    905c:	8c19                	sub	s0,s0,a4
    905e:	0026f793          	andi	a5,a3,2
    9062:	02000993          	li	s3,32
    9066:	c781                	beqz	a5,906e <prints+0x46>
    9068:	e319                	bnez	a4,906e <prints+0x46>
    906a:	03000993          	li	s3,48
    906e:	8a85                	andi	a3,a3,1
    9070:	4901                	li	s2,0
    9072:	ea85                	bnez	a3,90a2 <prints+0x7a>
    9074:	8922                	mv	s2,s0
    9076:	a831                	j	9092 <prints+0x6a>
    9078:	0485                	addi	s1,s1,1
    907a:	bfc1                	j	904a <prints+0x22>
    907c:	8c05                	sub	s0,s0,s1
    907e:	b7c5                	j	905e <prints+0x36>
    9080:	4401                	li	s0,0
    9082:	bff1                	j	905e <prints+0x36>
    9084:	85ce                	mv	a1,s3
    9086:	8552                	mv	a0,s4
    9088:	c63a                	sw	a4,12(sp)
    908a:	f55ff0ef          	jal	ra,8fde <printchar>
    908e:	4732                	lw	a4,12(sp)
    9090:	197d                	addi	s2,s2,-1
    9092:	ff2049e3          	bgtz	s2,9084 <prints+0x5c>
    9096:	8922                	mv	s2,s0
    9098:	00045363          	bgez	s0,909e <prints+0x76>
    909c:	4901                	li	s2,0
    909e:	41240433          	sub	s0,s0,s2
    90a2:	02e4cb63          	blt	s1,a4,90d8 <prints+0xb0>
    90a6:	84ca                	mv	s1,s2
    90a8:	412487b3          	sub	a5,s1,s2
    90ac:	97d6                	add	a5,a5,s5
    90ae:	00078583          	lb	a1,0(a5)
    90b2:	e1a1                	bnez	a1,90f2 <prints+0xca>
    90b4:	8922                	mv	s2,s0
    90b6:	05204363          	bgtz	s2,90fc <prints+0xd4>
    90ba:	00045363          	bgez	s0,90c0 <prints+0x98>
    90be:	4401                	li	s0,0
    90c0:	00940533          	add	a0,s0,s1
    90c4:	50b2                	lw	ra,44(sp)
    90c6:	5422                	lw	s0,40(sp)
    90c8:	5492                	lw	s1,36(sp)
    90ca:	5902                	lw	s2,32(sp)
    90cc:	49f2                	lw	s3,28(sp)
    90ce:	4a62                	lw	s4,24(sp)
    90d0:	4ad2                	lw	s5,20(sp)
    90d2:	4b42                	lw	s6,16(sp)
    90d4:	6145                	addi	sp,sp,48
    90d6:	8082                	ret
    90d8:	409704b3          	sub	s1,a4,s1
    90dc:	8b26                	mv	s6,s1
    90de:	03000593          	li	a1,48
    90e2:	8552                	mv	a0,s4
    90e4:	1b7d                	addi	s6,s6,-1
    90e6:	ef9ff0ef          	jal	ra,8fde <printchar>
    90ea:	fe0b1ae3          	bnez	s6,90de <prints+0xb6>
    90ee:	9926                	add	s2,s2,s1
    90f0:	bf5d                	j	90a6 <prints+0x7e>
    90f2:	8552                	mv	a0,s4
    90f4:	eebff0ef          	jal	ra,8fde <printchar>
    90f8:	0485                	addi	s1,s1,1
    90fa:	b77d                	j	90a8 <prints+0x80>
    90fc:	85ce                	mv	a1,s3
    90fe:	8552                	mv	a0,s4
    9100:	edfff0ef          	jal	ra,8fde <printchar>
    9104:	197d                	addi	s2,s2,-1
    9106:	bf45                	j	90b6 <prints+0x8e>

00009108 <printInt>:
    9108:	715d                	addi	sp,sp,-80
    910a:	c2a6                	sw	s1,68(sp)
    910c:	dc52                	sw	s4,56(sp)
    910e:	c686                	sw	ra,76(sp)
    9110:	c4a2                	sw	s0,72(sp)
    9112:	c0ca                	sw	s2,64(sp)
    9114:	de4e                	sw	s3,60(sp)
    9116:	da56                	sw	s5,52(sp)
    9118:	84ba                	mv	s1,a4
    911a:	8a3e                	mv	s4,a5
    911c:	e19d                	bnez	a1,9142 <printInt+0x3a>
    911e:	03000793          	li	a5,48
    9122:	4701                	li	a4,0
    9124:	86d2                	mv	a3,s4
    9126:	8626                	mv	a2,s1
    9128:	082c                	addi	a1,sp,24
    912a:	84fc                	sh	a5,24(sp)
    912c:	efdff0ef          	jal	ra,9028 <prints>
    9130:	40b6                	lw	ra,76(sp)
    9132:	4426                	lw	s0,72(sp)
    9134:	4496                	lw	s1,68(sp)
    9136:	4906                	lw	s2,64(sp)
    9138:	59f2                	lw	s3,60(sp)
    913a:	5a62                	lw	s4,56(sp)
    913c:	5ad2                	lw	s5,52(sp)
    913e:	6161                	addi	sp,sp,80
    9140:	8082                	ret
    9142:	892a                	mv	s2,a0
    9144:	8436                	mv	s0,a3
    9146:	8ac6                	mv	s5,a7
    9148:	ca91                	beqz	a3,915c <printInt+0x54>
    914a:	47a9                	li	a5,10
    914c:	4401                	li	s0,0
    914e:	00f61763          	bne	a2,a5,915c <printInt+0x54>
    9152:	0005d563          	bgez	a1,915c <printInt+0x54>
    9156:	40b005b3          	neg	a1,a1
    915a:	4405                	li	s0,1
    915c:	020107a3          	sb	zero,47(sp)
    9160:	02f10793          	addi	a5,sp,47
    9164:	46a5                	li	a3,9
    9166:	fc680513          	addi	a0,a6,-58
    916a:	02c5f733          	remu	a4,a1,a2
    916e:	00e6d363          	bge	a3,a4,9174 <printInt+0x6c>
    9172:	972a                	add	a4,a4,a0
    9174:	03070713          	addi	a4,a4,48
    9178:	fee78fa3          	sb	a4,-1(a5)
    917c:	fff78993          	addi	s3,a5,-1
    9180:	02c5d733          	divu	a4,a1,a2
    9184:	04c5fb63          	bgeu	a1,a2,91da <printInt+0xd2>
    9188:	cc09                	beqz	s0,91a2 <printInt+0x9a>
    918a:	c8b9                	beqz	s1,91e0 <printInt+0xd8>
    918c:	002a7713          	andi	a4,s4,2
    9190:	cb21                	beqz	a4,91e0 <printInt+0xd8>
    9192:	02d00593          	li	a1,45
    9196:	854a                	mv	a0,s2
    9198:	c642                	sw	a6,12(sp)
    919a:	e45ff0ef          	jal	ra,8fde <printchar>
    919e:	4832                	lw	a6,12(sp)
    91a0:	14fd                	addi	s1,s1,-1
    91a2:	004a7793          	andi	a5,s4,4
    91a6:	c38d                	beqz	a5,91c8 <printInt+0xc0>
    91a8:	06100793          	li	a5,97
    91ac:	03000593          	li	a1,48
    91b0:	854a                	mv	a0,s2
    91b2:	02f81f63          	bne	a6,a5,91f0 <printInt+0xe8>
    91b6:	e29ff0ef          	jal	ra,8fde <printchar>
    91ba:	07800593          	li	a1,120
    91be:	854a                	mv	a0,s2
    91c0:	e1fff0ef          	jal	ra,8fde <printchar>
    91c4:	0409                	addi	s0,s0,2
    91c6:	14f9                	addi	s1,s1,-2
    91c8:	8756                	mv	a4,s5
    91ca:	86d2                	mv	a3,s4
    91cc:	8626                	mv	a2,s1
    91ce:	85ce                	mv	a1,s3
    91d0:	854a                	mv	a0,s2
    91d2:	e57ff0ef          	jal	ra,9028 <prints>
    91d6:	9522                	add	a0,a0,s0
    91d8:	bfa1                	j	9130 <printInt+0x28>
    91da:	85ba                	mv	a1,a4
    91dc:	87ce                	mv	a5,s3
    91de:	b771                	j	916a <printInt+0x62>
    91e0:	02d00713          	li	a4,45
    91e4:	fee98fa3          	sb	a4,-1(s3) # ffff <_data_lma+0x67b7>
    91e8:	4401                	li	s0,0
    91ea:	ffe78993          	addi	s3,a5,-2
    91ee:	bf55                	j	91a2 <printInt+0x9a>
    91f0:	defff0ef          	jal	ra,8fde <printchar>
    91f4:	05800593          	li	a1,88
    91f8:	b7d9                	j	91be <printInt+0xb6>

000091fa <printLongLongInt>:
    91fa:	4501                	li	a0,0
    91fc:	8082                	ret

000091fe <printDouble>:
    91fe:	4501                	li	a0,0
    9200:	8082                	ret

00009202 <print>:
    9202:	7139                	addi	sp,sp,-64
    9204:	d05a                	sw	s6,32(sp)
    9206:	0000ab37          	lui	s6,0xa
    920a:	dc22                	sw	s0,56(sp)
    920c:	da26                	sw	s1,52(sp)
    920e:	d84a                	sw	s2,48(sp)
    9210:	d64e                	sw	s3,44(sp)
    9212:	d452                	sw	s4,40(sp)
    9214:	d256                	sw	s5,36(sp)
    9216:	ce5e                	sw	s7,28(sp)
    9218:	cc62                	sw	s8,24(sp)
    921a:	de06                	sw	ra,60(sp)
    921c:	ca66                	sw	s9,20(sp)
    921e:	89aa                	mv	s3,a0
    9220:	892e                	mv	s2,a1
    9222:	8432                	mv	s0,a2
    9224:	4a01                	li	s4,0
    9226:	4481                	li	s1,0
    9228:	02500b93          	li	s7,37
    922c:	02b00a93          	li	s5,43
    9230:	4c29                	li	s8,10
    9232:	840b0b13          	addi	s6,s6,-1984 # 9840 <tcp_backoff+0x30>
    9236:	00090583          	lb	a1,0(s2)
    923a:	e58d                	bnez	a1,9264 <print+0x62>
    923c:	00098663          	beqz	s3,9248 <print+0x46>
    9240:	4581                	li	a1,0
    9242:	854e                	mv	a0,s3
    9244:	d9bff0ef          	jal	ra,8fde <printchar>
    9248:	50f2                	lw	ra,60(sp)
    924a:	5462                	lw	s0,56(sp)
    924c:	8526                	mv	a0,s1
    924e:	5942                	lw	s2,48(sp)
    9250:	54d2                	lw	s1,52(sp)
    9252:	59b2                	lw	s3,44(sp)
    9254:	5a22                	lw	s4,40(sp)
    9256:	5a92                	lw	s5,36(sp)
    9258:	5b02                	lw	s6,32(sp)
    925a:	4bf2                	lw	s7,28(sp)
    925c:	4c62                	lw	s8,24(sp)
    925e:	4cd2                	lw	s9,20(sp)
    9260:	6121                	addi	sp,sp,64
    9262:	8082                	ret
    9264:	01758863          	beq	a1,s7,9274 <print+0x72>
    9268:	854e                	mv	a0,s3
    926a:	d75ff0ef          	jal	ra,8fde <printchar>
    926e:	0485                	addi	s1,s1,1
    9270:	0905                	addi	s2,s2,1
    9272:	b7d1                	j	9236 <print+0x34>
    9274:	00190783          	lb	a5,1(s2)
    9278:	00190c93          	addi	s9,s2,1
    927c:	01779a63          	bne	a5,s7,9290 <print+0x8e>
    9280:	02500593          	li	a1,37
    9284:	854e                	mv	a0,s3
    9286:	d59ff0ef          	jal	ra,8fde <printchar>
    928a:	0485                	addi	s1,s1,1
    928c:	8966                	mv	s2,s9
    928e:	b7cd                	j	9270 <print+0x6e>
    9290:	d7d5                	beqz	a5,923c <print+0x3a>
    9292:	05578763          	beq	a5,s5,92e0 <print+0xde>
    9296:	00fac863          	blt	s5,a5,92a6 <print+0xa4>
    929a:	02300713          	li	a4,35
    929e:	04e78463          	beq	a5,a4,92e6 <print+0xe4>
    92a2:	4781                	li	a5,0
    92a4:	a005                	j	92c4 <print+0xc2>
    92a6:	02d00713          	li	a4,45
    92aa:	00e78a63          	beq	a5,a4,92be <print+0xbc>
    92ae:	03000713          	li	a4,48
    92b2:	fee798e3          	bne	a5,a4,92a2 <print+0xa0>
    92b6:	00290c93          	addi	s9,s2,2
    92ba:	4789                	li	a5,2
    92bc:	a021                	j	92c4 <print+0xc2>
    92be:	00290c93          	addi	s9,s2,2
    92c2:	4785                	li	a5,1
    92c4:	000c8703          	lb	a4,0(s9)
    92c8:	05570363          	beq	a4,s5,930e <print+0x10c>
    92cc:	02eac163          	blt	s5,a4,92ee <print+0xec>
    92d0:	02300693          	li	a3,35
    92d4:	02d70b63          	beq	a4,a3,930a <print+0x108>
    92d8:	8966                	mv	s2,s9
    92da:	4601                	li	a2,0
    92dc:	45a5                	li	a1,9
    92de:	a835                	j	931a <print+0x118>
    92e0:	00290c93          	addi	s9,s2,2
    92e4:	bf7d                	j	92a2 <print+0xa0>
    92e6:	00290c93          	addi	s9,s2,2
    92ea:	4791                	li	a5,4
    92ec:	bfe1                	j	92c4 <print+0xc2>
    92ee:	02d00693          	li	a3,45
    92f2:	00d70963          	beq	a4,a3,9304 <print+0x102>
    92f6:	03000693          	li	a3,48
    92fa:	fcd71fe3          	bne	a4,a3,92d8 <print+0xd6>
    92fe:	0027e793          	ori	a5,a5,2
    9302:	a031                	j	930e <print+0x10c>
    9304:	0c85                	addi	s9,s9,1
    9306:	4785                	li	a5,1
    9308:	bfc1                	j	92d8 <print+0xd6>
    930a:	0047e793          	ori	a5,a5,4
    930e:	0c85                	addi	s9,s9,1
    9310:	b7e1                	j	92d8 <print+0xd6>
    9312:	03860633          	mul	a2,a2,s8
    9316:	0905                	addi	s2,s2,1
    9318:	9636                	add	a2,a2,a3
    931a:	00090703          	lb	a4,0(s2)
    931e:	fd070693          	addi	a3,a4,-48
    9322:	0ff6f513          	andi	a0,a3,255
    9326:	fea5f6e3          	bgeu	a1,a0,9312 <print+0x110>
    932a:	02e00593          	li	a1,46
    932e:	4699                	li	a3,6
    9330:	00b71e63          	bne	a4,a1,934c <print+0x14a>
    9334:	0905                	addi	s2,s2,1
    9336:	4681                	li	a3,0
    9338:	45a5                	li	a1,9
    933a:	00090703          	lb	a4,0(s2)
    933e:	fd070713          	addi	a4,a4,-48
    9342:	0ff77513          	andi	a0,a4,255
    9346:	02a5f563          	bgeu	a1,a0,9370 <print+0x16e>
    934a:	8a36                	mv	s4,a3
    934c:	00090703          	lb	a4,0(s2)
    9350:	06a00593          	li	a1,106
    9354:	0ab70163          	beq	a4,a1,93f6 <print+0x1f4>
    9358:	02e5c163          	blt	a1,a4,937a <print+0x178>
    935c:	04c00593          	li	a1,76
    9360:	08b70b63          	beq	a4,a1,93f6 <print+0x1f4>
    9364:	06800593          	li	a1,104
    9368:	08b70063          	beq	a4,a1,93e8 <print+0x1e6>
    936c:	4581                	li	a1,0
    936e:	a02d                	j	9398 <print+0x196>
    9370:	038686b3          	mul	a3,a3,s8
    9374:	0905                	addi	s2,s2,1
    9376:	96ba                	add	a3,a3,a4
    9378:	b7c9                	j	933a <print+0x138>
    937a:	07400593          	li	a1,116
    937e:	06b70c63          	beq	a4,a1,93f6 <print+0x1f4>
    9382:	07a00593          	li	a1,122
    9386:	06b70863          	beq	a4,a1,93f6 <print+0x1f4>
    938a:	06c00513          	li	a0,108
    938e:	4581                	li	a1,0
    9390:	00a71463          	bne	a4,a0,9398 <print+0x196>
    9394:	0905                	addi	s2,s2,1
    9396:	4591                	li	a1,4
    9398:	00090703          	lb	a4,0(s2)
    939c:	06000513          	li	a0,96
    93a0:	06100813          	li	a6,97
    93a4:	00e54463          	blt	a0,a4,93ac <print+0x1aa>
    93a8:	04100813          	li	a6,65
    93ac:	06700513          	li	a0,103
    93b0:	06e54063          	blt	a0,a4,9410 <print+0x20e>
    93b4:	06500513          	li	a0,101
    93b8:	14a75563          	bge	a4,a0,9502 <print+0x300>
    93bc:	04700513          	li	a0,71
    93c0:	02e54d63          	blt	a0,a4,93fa <print+0x1f8>
    93c4:	04500593          	li	a1,69
    93c8:	12b75d63          	bge	a4,a1,9502 <print+0x300>
    93cc:	04300693          	li	a3,67
    93d0:	ead710e3          	bne	a4,a3,9270 <print+0x6e>
    93d4:	4018                	lw	a4,0(s0)
    93d6:	00440c93          	addi	s9,s0,4
    93da:	000106a3          	sb	zero,13(sp)
    93de:	8658                	sb	a4,12(sp)
    93e0:	86be                	mv	a3,a5
    93e2:	4701                	li	a4,0
    93e4:	006c                	addi	a1,sp,12
    93e6:	a041                	j	9466 <print+0x264>
    93e8:	00190503          	lb	a0,1(s2)
    93ec:	4581                	li	a1,0
    93ee:	fae515e3          	bne	a0,a4,9398 <print+0x196>
    93f2:	0909                	addi	s2,s2,2
    93f4:	b755                	j	9398 <print+0x196>
    93f6:	0905                	addi	s2,s2,1
    93f8:	bf95                	j	936c <print+0x16a>
    93fa:	06300693          	li	a3,99
    93fe:	fcd70be3          	beq	a4,a3,93d4 <print+0x1d2>
    9402:	06e6c663          	blt	a3,a4,946e <print+0x26c>
    9406:	05800693          	li	a3,88
    940a:	02d70363          	beq	a4,a3,9430 <print+0x22e>
    940e:	b58d                	j	9270 <print+0x6e>
    9410:	07300693          	li	a3,115
    9414:	04d70163          	beq	a4,a3,9456 <print+0x254>
    9418:	02e6c863          	blt	a3,a4,9448 <print+0x246>
    941c:	06f00693          	li	a3,111
    9420:	0ad70e63          	beq	a4,a3,94dc <print+0x2da>
    9424:	07000693          	li	a3,112
    9428:	0047e793          	ori	a5,a5,4
    942c:	e4d712e3          	bne	a4,a3,9270 <print+0x6e>
    9430:	cdd9                	beqz	a1,94ce <print+0x2cc>
    9432:	041d                	addi	s0,s0,7
    9434:	ff847593          	andi	a1,s0,-8
    9438:	88c2                	mv	a7,a6
    943a:	00858413          	addi	s0,a1,8
    943e:	883e                	mv	a6,a5
    9440:	4701                	li	a4,0
    9442:	87b2                	mv	a5,a2
    9444:	46c1                	li	a3,16
    9446:	a83d                	j	9484 <print+0x282>
    9448:	07500693          	li	a3,117
    944c:	06d70063          	beq	a4,a3,94ac <print+0x2aa>
    9450:	07800693          	li	a3,120
    9454:	bf5d                	j	940a <print+0x208>
    9456:	4018                	lw	a4,0(s0)
    9458:	00440c93          	addi	s9,s0,4
    945c:	85da                	mv	a1,s6
    945e:	c311                	beqz	a4,9462 <print+0x260>
    9460:	85ba                	mv	a1,a4
    9462:	8752                	mv	a4,s4
    9464:	86be                	mv	a3,a5
    9466:	854e                	mv	a0,s3
    9468:	bc1ff0ef          	jal	ra,9028 <prints>
    946c:	a82d                	j	94a6 <print+0x2a4>
    946e:	c195                	beqz	a1,9492 <print+0x290>
    9470:	041d                	addi	s0,s0,7
    9472:	ff847593          	andi	a1,s0,-8
    9476:	88c2                	mv	a7,a6
    9478:	00858413          	addi	s0,a1,8
    947c:	883e                	mv	a6,a5
    947e:	4705                	li	a4,1
    9480:	87b2                	mv	a5,a2
    9482:	46a9                	li	a3,10
    9484:	41d0                	lw	a2,4(a1)
    9486:	418c                	lw	a1,0(a1)
    9488:	854e                	mv	a0,s3
    948a:	d71ff0ef          	jal	ra,91fa <printLongLongInt>
    948e:	94aa                	add	s1,s1,a0
    9490:	b3c5                	j	9270 <print+0x6e>
    9492:	00440c93          	addi	s9,s0,4
    9496:	88d2                	mv	a7,s4
    9498:	8732                	mv	a4,a2
    949a:	4685                	li	a3,1
    949c:	4629                	li	a2,10
    949e:	400c                	lw	a1,0(s0)
    94a0:	854e                	mv	a0,s3
    94a2:	c67ff0ef          	jal	ra,9108 <printInt>
    94a6:	94aa                	add	s1,s1,a0
    94a8:	8466                	mv	s0,s9
    94aa:	b3d9                	j	9270 <print+0x6e>
    94ac:	c999                	beqz	a1,94c2 <print+0x2c0>
    94ae:	041d                	addi	s0,s0,7
    94b0:	ff847593          	andi	a1,s0,-8
    94b4:	88c2                	mv	a7,a6
    94b6:	00858413          	addi	s0,a1,8
    94ba:	883e                	mv	a6,a5
    94bc:	4701                	li	a4,0
    94be:	87b2                	mv	a5,a2
    94c0:	b7c9                	j	9482 <print+0x280>
    94c2:	00440c93          	addi	s9,s0,4
    94c6:	88d2                	mv	a7,s4
    94c8:	8732                	mv	a4,a2
    94ca:	4681                	li	a3,0
    94cc:	bfc1                	j	949c <print+0x29a>
    94ce:	8732                	mv	a4,a2
    94d0:	00440c93          	addi	s9,s0,4
    94d4:	88d2                	mv	a7,s4
    94d6:	4681                	li	a3,0
    94d8:	4641                	li	a2,16
    94da:	b7d1                	j	949e <print+0x29c>
    94dc:	cd81                	beqz	a1,94f4 <print+0x2f2>
    94de:	041d                	addi	s0,s0,7
    94e0:	ff847593          	andi	a1,s0,-8
    94e4:	88c2                	mv	a7,a6
    94e6:	00858413          	addi	s0,a1,8
    94ea:	883e                	mv	a6,a5
    94ec:	4701                	li	a4,0
    94ee:	87b2                	mv	a5,a2
    94f0:	46a1                	li	a3,8
    94f2:	bf49                	j	9484 <print+0x282>
    94f4:	8732                	mv	a4,a2
    94f6:	00440c93          	addi	s9,s0,4
    94fa:	88d2                	mv	a7,s4
    94fc:	4681                	li	a3,0
    94fe:	4621                	li	a2,8
    9500:	bf79                	j	949e <print+0x29c>
    9502:	041d                	addi	s0,s0,7
    9504:	ff847593          	andi	a1,s0,-8
    9508:	00858413          	addi	s0,a1,8
    950c:	8732                	mv	a4,a2
    950e:	41d0                	lw	a2,4(a1)
    9510:	418c                	lw	a1,0(a1)
    9512:	88c2                	mv	a7,a6
    9514:	854e                	mv	a0,s3
    9516:	883e                	mv	a6,a5
    9518:	87b6                	mv	a5,a3
    951a:	46a9                	li	a3,10
    951c:	ce3ff0ef          	jal	ra,91fe <printDouble>
    9520:	b7bd                	j	948e <print+0x28c>

00009522 <printf>:
    9522:	7139                	addi	sp,sp,-64
    9524:	d22e                	sw	a1,36(sp)
    9526:	d432                	sw	a2,40(sp)
    9528:	85aa                	mv	a1,a0
    952a:	1050                	addi	a2,sp,36
    952c:	4501                	li	a0,0
    952e:	ce06                	sw	ra,28(sp)
    9530:	d636                	sw	a3,44(sp)
    9532:	d83a                	sw	a4,48(sp)
    9534:	da3e                	sw	a5,52(sp)
    9536:	dc42                	sw	a6,56(sp)
    9538:	de46                	sw	a7,60(sp)
    953a:	c632                	sw	a2,12(sp)
    953c:	cc7ff0ef          	jal	ra,9202 <print>
    9540:	40f2                	lw	ra,28(sp)
    9542:	6121                	addi	sp,sp,64
    9544:	8082                	ret

00009546 <puts>:
    9546:	1101                	addi	sp,sp,-32
    9548:	cc22                	sw	s0,24(sp)
    954a:	ca26                	sw	s1,20(sp)
    954c:	ce06                	sw	ra,28(sp)
    954e:	211c                	lbu	a5,0(a0)
    9550:	84aa                	mv	s1,a0
    9552:	4401                	li	s0,0
    9554:	87dc                	sb	a5,15(sp)
    9556:	00f10783          	lb	a5,15(sp)
    955a:	0405                	addi	s0,s0,1
    955c:	ef99                	bnez	a5,957a <puts+0x34>
    955e:	47a9                	li	a5,10
    9560:	00f10593          	addi	a1,sp,15
    9564:	4605                	li	a2,1
    9566:	4501                	li	a0,0
    9568:	87dc                	sb	a5,15(sp)
    956a:	8fef90ef          	jal	ra,2668 <_write>
    956e:	8522                	mv	a0,s0
    9570:	40f2                	lw	ra,28(sp)
    9572:	4462                	lw	s0,24(sp)
    9574:	44d2                	lw	s1,20(sp)
    9576:	6105                	addi	sp,sp,32
    9578:	8082                	ret
    957a:	4605                	li	a2,1
    957c:	00f10593          	addi	a1,sp,15
    9580:	4501                	li	a0,0
    9582:	8e6f90ef          	jal	ra,2668 <_write>
    9586:	008487b3          	add	a5,s1,s0
    958a:	239c                	lbu	a5,0(a5)
    958c:	87dc                	sb	a5,15(sp)
    958e:	b7e1                	j	9556 <puts+0x10>

00009590 <putchar>:
    9590:	1101                	addi	sp,sp,-32
    9592:	c62a                	sw	a0,12(sp)
    9594:	006c                	addi	a1,sp,12
    9596:	4605                	li	a2,1
    9598:	4501                	li	a0,0
    959a:	ce06                	sw	ra,28(sp)
    959c:	8ccf90ef          	jal	ra,2668 <_write>
    95a0:	40f2                	lw	ra,28(sp)
    95a2:	4505                	li	a0,1
    95a4:	6105                	addi	sp,sp,32
    95a6:	8082                	ret

000095a8 <memcpy>:
    95a8:	00a5c7b3          	xor	a5,a1,a0
    95ac:	8b8d                	andi	a5,a5,3
    95ae:	00c50733          	add	a4,a0,a2
    95b2:	e781                	bnez	a5,95ba <memcpy+0x12>
    95b4:	478d                	li	a5,3
    95b6:	00c7ed63          	bltu	a5,a2,95d0 <memcpy+0x28>
    95ba:	87aa                	mv	a5,a0
    95bc:	08e57e63          	bgeu	a0,a4,9658 <memcpy+0xb0>
    95c0:	2194                	lbu	a3,0(a1)
    95c2:	0785                	addi	a5,a5,1
    95c4:	0585                	addi	a1,a1,1
    95c6:	fed78fa3          	sb	a3,-1(a5)
    95ca:	fee7ebe3          	bltu	a5,a4,95c0 <memcpy+0x18>
    95ce:	8082                	ret
    95d0:	00357693          	andi	a3,a0,3
    95d4:	87aa                	mv	a5,a0
    95d6:	ca89                	beqz	a3,95e8 <memcpy+0x40>
    95d8:	2194                	lbu	a3,0(a1)
    95da:	0785                	addi	a5,a5,1
    95dc:	0585                	addi	a1,a1,1
    95de:	fed78fa3          	sb	a3,-1(a5)
    95e2:	0037f693          	andi	a3,a5,3
    95e6:	bfc5                	j	95d6 <memcpy+0x2e>
    95e8:	ffc77693          	andi	a3,a4,-4
    95ec:	fe068613          	addi	a2,a3,-32
    95f0:	06c7f063          	bgeu	a5,a2,9650 <memcpy+0xa8>
    95f4:	0005a383          	lw	t2,0(a1)
    95f8:	0045a283          	lw	t0,4(a1)
    95fc:	0085af83          	lw	t6,8(a1)
    9600:	00c5af03          	lw	t5,12(a1)
    9604:	0105ae83          	lw	t4,16(a1)
    9608:	0145ae03          	lw	t3,20(a1)
    960c:	0185a303          	lw	t1,24(a1)
    9610:	01c5a883          	lw	a7,28(a1)
    9614:	02458593          	addi	a1,a1,36
    9618:	0077a023          	sw	t2,0(a5)
    961c:	ffc5a803          	lw	a6,-4(a1)
    9620:	0057a223          	sw	t0,4(a5)
    9624:	01f7a423          	sw	t6,8(a5)
    9628:	01e7a623          	sw	t5,12(a5)
    962c:	01d7a823          	sw	t4,16(a5)
    9630:	01c7aa23          	sw	t3,20(a5)
    9634:	0067ac23          	sw	t1,24(a5)
    9638:	0117ae23          	sw	a7,28(a5)
    963c:	02478793          	addi	a5,a5,36
    9640:	ff07ae23          	sw	a6,-4(a5)
    9644:	b775                	j	95f0 <memcpy+0x48>
    9646:	4190                	lw	a2,0(a1)
    9648:	0791                	addi	a5,a5,4
    964a:	0591                	addi	a1,a1,4
    964c:	fec7ae23          	sw	a2,-4(a5)
    9650:	fed7ebe3          	bltu	a5,a3,9646 <memcpy+0x9e>
    9654:	f6e7e6e3          	bltu	a5,a4,95c0 <memcpy+0x18>
    9658:	8082                	ret
    965a:	0000                	unimp
    965c:	6148                	flw	fa0,4(a0)
    965e:	6472                	flw	fs0,28(sp)
    9660:	6146                	flw	ft2,80(sp)
    9662:	6c75                	lui	s8,0x1d
    9664:	5f74                	lw	a3,124(a4)
    9666:	6148                	flw	fa0,4(a0)
    9668:	646e                	flw	fs0,216(sp)
    966a:	656c                	flw	fa1,76(a0)
    966c:	0d72                	slli	s10,s10,0x1c
    966e:	0000                	unimp
    9670:	656d                	lui	a0,0x1b
    9672:	6370                	flw	fa2,68(a4)
    9674:	2020                	lbu	s0,2(s0)
    9676:	253a                	lhu	a4,10(a0)
    9678:	3830                	lbu	a2,19(s0)
    967a:	0d78                	addi	a4,sp,668
    967c:	000a                	c.slli	zero,0x2
    967e:	0000                	unimp
    9680:	636d                	lui	t1,0x1b
    9682:	7561                	lui	a0,0xffff8
    9684:	253a6573          	csrrsi	a0,0x253,20
    9688:	3830                	lbu	a2,19(s0)
    968a:	0d78                	addi	a4,sp,668
    968c:	000a                	c.slli	zero,0x2
    968e:	0000                	unimp
    9690:	746d                	lui	s0,0xffffb
    9692:	6176                	flw	ft2,92(sp)
    9694:	206c                	lbu	a1,6(s0)
    9696:	253a                	lhu	a4,10(a0)
    9698:	3830                	lbu	a2,19(s0)
    969a:	0d78                	addi	a4,sp,668
    969c:	000a                	c.slli	zero,0x2
    969e:	0000                	unimp
    96a0:	6b636f53          	0x6b636f53
    96a4:	7465                	lui	s0,0xffff9
    96a6:	6449                	lui	s0,0x12
    96a8:	2520                	lbu	s0,10(a0)
    96aa:	0d64                	addi	s1,sp,668
    96ac:	000a                	c.slli	zero,0x2
    96ae:	0000                	unimp
    96b0:	544e4947          	0x544e4947
    96b4:	535f 4154 5f54      	0x5f544154535f
    96ba:	4e55                	li	t3,21
    96bc:	4552                	lw	a0,20(sp)
    96be:	4341                	li	t1,16
    96c0:	0d48                	addi	a0,sp,660
    96c2:	0000                	unimp
    96c4:	544e4947          	0x544e4947
    96c8:	535f 4154 5f54      	0x5f544154535f
    96ce:	5049                	c.li	zero,-14
    96d0:	435f 4e4f 4c46      	0x4c464e4f435f
    96d6:	0d49                	addi	s10,s10,18
    96d8:	0000                	unimp
    96da:	0000                	unimp
    96dc:	4850                	lw	a2,20(s0)
    96de:	2059                	jal	9764 <memcpy+0x1bc>
    96e0:	694c                	flw	fa1,20(a0)
    96e2:	6b6e                	flw	fs6,216(sp)
    96e4:	5320                	lw	s0,96(a4)
    96e6:	6375                	lui	t1,0x1d
    96e8:	73736563          	bltu	t1,s7,9e12 <_data_lma+0x5ca>
    96ec:	000d                	c.nop	3
    96ee:	0000                	unimp
    96f0:	4354                	lw	a3,4(a4)
    96f2:	2050                	lbu	a2,4(s0)
    96f4:	6e6e6f43          	fmadd.q	ft10,ft8,ft6,fa3,unknown
    96f8:	6365                	lui	t1,0x19
    96fa:	2074                	lbu	a3,6(s0)
    96fc:	63637553          	0x63637553
    9700:	7365                	lui	t1,0xffff9
    9702:	00000d73          	0xd73
    9706:	0000                	unimp
    9708:	6b636f73          	csrrsi	t5,0x6b6,6
    970c:	7465                	lui	s0,0xffff9
    970e:	6920                	flw	fs0,80(a0)
    9710:	3a64                	lbu	s1,23(a2)
    9712:	2520                	lbu	s0,10(a0)
    9714:	0d64                	addi	s1,sp,668
    9716:	000a                	c.slli	zero,0x2
    9718:	4354                	lw	a3,4(a4)
    971a:	2050                	lbu	a2,4(s0)
    971c:	6944                	flw	fs1,20(a0)
    971e:	6e6f6373          	csrrsi	t1,0x6e6,30
    9722:	656e                	flw	fa0,216(sp)
    9724:	000d7463          	bgeu	s10,zero,972c <memcpy+0x184>
    9728:	4354                	lw	a3,4(a4)
    972a:	2050                	lbu	a2,4(s0)
    972c:	6954                	flw	fa3,20(a0)
    972e:	656d                	lui	a0,0x1b
    9730:	0d74756f          	jal	a0,51006 <_data_lma+0x477be>
    9734:	0000                	unimp
    9736:	0000                	unimp
    9738:	7245                	lui	tp,0xffff1
    973a:	6f72                	flw	ft10,28(sp)
    973c:	3a72                	lhu	a2,54(a2)
    973e:	2520                	lbu	s0,10(a0)
    9740:	3230                	lbu	a2,3(a2)
    9742:	0d58                	addi	a4,sp,660
    9744:	000a                	c.slli	zero,0x2
    9746:	0000                	unimp
    9748:	4354                	lw	a3,4(a4)
    974a:	4350                	lw	a2,4(a4)
    974c:	696c                	flw	fa1,84(a0)
    974e:	6e65                	lui	t3,0x19
    9750:	2074                	lbu	a3,6(s0)
    9752:	6554                	flw	fa3,12(a0)
    9754:	000d7473          	csrrci	s0,ustatus,26
    9758:	74737953          	0x74737953
    975c:	6d65                	lui	s10,0x19
    975e:	3a6b6c43          	fmadd.d	fs8,fs6,ft6,ft7,unknown
    9762:	6425                	lui	s0,0x9
    9764:	0a0d                	addi	s4,s4,3
    9766:	0000                	unimp
    9768:	70696843          	fmadd.s	fa6,fs2,ft6,fa4,unknown
    976c:	4449                	li	s0,18
    976e:	253a                	lhu	a4,10(a0)
    9770:	3830                	lbu	a2,19(s0)
    9772:	0d78                	addi	a4,sp,668
    9774:	000a                	c.slli	zero,0x2
    9776:	0000                	unimp
    9778:	656e                	flw	fa0,216(sp)
    977a:	2074                	lbu	a3,6(s0)
    977c:	6576                	flw	fa0,92(sp)
    977e:	7372                	flw	ft6,60(sp)
    9780:	6f69                	lui	t5,0x1a
    9782:	3a6e                	lhu	a1,54(a2)
    9784:	7825                	lui	a6,0xfffe9
    9786:	000a                	c.slli	zero,0x2
    9788:	6576                	flw	fa0,92(sp)
    978a:	7372                	flw	ft6,60(sp)
    978c:	6f69                	lui	t5,0x1a
    978e:	206e                	lhu	a1,6(s0)
    9790:	7265                	lui	tp,0xffff9
    9792:	6f72                	flw	ft10,28(sp)
    9794:	2e72                	lhu	a2,30(a2)
    9796:	0000                	unimp
    9798:	616d                	addi	sp,sp,240
    979a:	64612063          	0x64612063
    979e:	7264                	flw	fs1,100(a2)
    97a0:	003a                	c.slli	zero,0xe
    97a2:	0000                	unimp
    97a4:	7825                	lui	a6,0xfffe9
    97a6:	0020                	addi	s0,sp,8
    97a8:	4e484357          	0x4e484357
    97ac:	5445                	li	s0,-15
    97ae:	4c5f 6269 6e49      	0x6e4962694c5f
    97b4:	7469                	lui	s0,0xffffa
    97b6:	5320                	lw	s0,96(a4)
    97b8:	6375                	lui	t1,0x1d
    97ba:	73736563          	bltu	t1,s7,9ee4 <_data_lma+0x69c>
    97be:	000d                	c.nop	3

000097c0 <MemNum>:
    97c0:	0000 0000 0001 0000 0002 0000 0004 0004     ................

000097d0 <MemSize>:
    97d0:	001c 0020 00b4 0024 0014 0020 0010 0600     .. ...$... .....

000097e0 <ErrTable>:
    97e0:	1100 1312 1514 1716 1918 1b1a 1d1c 1f1e     ................
    97f0:	609e 0000 60e4 0000 60fe 0000 610e 0000     .`...`...`...a..
    9800:	610e 0000 60fa 0000 60fa 0000 611c 0000     .a...`...`...a..

00009810 <tcp_backoff>:
    9810:	0201 0403 0605 0707 0707 0707 0007 0000     ................
    9820:	7602 0000 7710 0000 77fc 0000 7804 0000     .v...w...w...x..
    9830:	78aa 0000 77fc 0000 78f0 0000 792c 0000     .x...w...x..,y..
    9840:	6e28 6c75 296c 0000                         (null)..
