
WCH-CH32V307VCT6-TM1637.elf:     file format elf32-littleriscv
WCH-CH32V307VCT6-TM1637.elf
architecture: riscv:rv32, flags 0x00000112:
EXEC_P, HAS_SYMS, D_PAGED
start address 0x00000000

Program Header:
    LOAD off    0x00001000 vaddr 0x00000000 paddr 0x00000000 align 2**12
         filesz 0x00003164 memsz 0x00003164 flags r-x
    LOAD off    0x00005000 vaddr 0x20000000 paddr 0x00003164 align 2**12
         filesz 0x00000040 memsz 0x00000050 flags rw-
    LOAD off    0x00005800 vaddr 0x2000f800 paddr 0x2000f800 align 2**12
         filesz 0x00000000 memsz 0x00000800 flags rw-

Sections:
Idx Name          Size      VMA       LMA       File off  Algn
  0 .init         00000004  00000000  00000000  00001000  2**1
                  CONTENTS, ALLOC, LOAD, READONLY, CODE
  1 .vector       000001bc  00000004  00000004  00001004  2**1
                  CONTENTS, ALLOC, LOAD, READONLY, CODE
  2 .text         00002fa4  000001c0  000001c0  000011c0  2**2
                  CONTENTS, ALLOC, LOAD, READONLY, CODE
  3 .fini         00000000  00003164  00003164  00005040  2**0
                  CONTENTS, ALLOC, LOAD, CODE
  4 .dalign       00000000  20000000  20000000  00005040  2**0
                  CONTENTS
  5 .dlalign      00000000  00003164  00003164  00005040  2**0
                  CONTENTS
  6 .data         00000040  20000000  00003164  00005000  2**2
                  CONTENTS, ALLOC, LOAD, DATA
  7 .bss          00000010  20000040  000031a4  00005040  2**2
                  ALLOC
  8 .stack        00000800  2000f800  2000f800  00005800  2**0
                  ALLOC
  9 .debug_info   000087b9  00000000  00000000  00005040  2**0
                  CONTENTS, READONLY, DEBUGGING
 10 .debug_abbrev 00001ca0  00000000  00000000  0000d7f9  2**0
                  CONTENTS, READONLY, DEBUGGING
 11 .debug_aranges 000006a0  00000000  00000000  0000f4a0  2**3
                  CONTENTS, READONLY, DEBUGGING
 12 .debug_ranges 00000650  00000000  00000000  0000fb40  2**3
                  CONTENTS, READONLY, DEBUGGING
 13 .debug_line   00007c99  00000000  00000000  00010190  2**0
                  CONTENTS, READONLY, DEBUGGING
 14 .debug_str    000022f9  00000000  00000000  00017e29  2**0
                  CONTENTS, READONLY, DEBUGGING
 15 .comment      00000033  00000000  00000000  0001a122  2**0
                  CONTENTS, READONLY
 16 .debug_frame  00000ef4  00000000  00000000  0001a158  2**2
                  CONTENTS, READONLY, DEBUGGING
 17 .debug_loc    000028ed  00000000  00000000  0001b04c  2**0
                  CONTENTS, READONLY, DEBUGGING
SYMBOL TABLE:
00000000 l    d  .init	00000000 .init
00000004 l    d  .vector	00000000 .vector
000001c0 l    d  .text	00000000 .text
00003164 l    d  .fini	00000000 .fini
20000000 l    d  .dalign	00000000 .dalign
00003164 l    d  .dlalign	00000000 .dlalign
20000000 l    d  .data	00000000 .data
20000040 l    d  .bss	00000000 .bss
2000f800 l    d  .stack	00000000 .stack
00000000 l    d  .debug_info	00000000 .debug_info
00000000 l    d  .debug_abbrev	00000000 .debug_abbrev
00000000 l    d  .debug_aranges	00000000 .debug_aranges
00000000 l    d  .debug_ranges	00000000 .debug_ranges
00000000 l    d  .debug_line	00000000 .debug_line
00000000 l    d  .debug_str	00000000 .debug_str
00000000 l    d  .comment	00000000 .comment
00000000 l    d  .debug_frame	00000000 .debug_frame
00000000 l    d  .debug_loc	00000000 .debug_loc
00000000 l    df *ABS*	00000000 ./Startup/startup_ch32v30x_D8C.o
00000004 l       .vector	00000000 _vector_base
00000000 l    df *ABS*	00000000 ch32v30x_it.c
00000000 l    df *ABS*	00000000 main.c
00000000 l    df *ABS*	00000000 system_ch32v30x.c
00000000 l    df *ABS*	00000000 ch32v30x_dbgmcu.c
00000000 l    df *ABS*	00000000 ch32v30x_gpio.c
00000000 l    df *ABS*	00000000 ch32v30x_i2c.c
00000000 l    df *ABS*	00000000 ch32v30x_misc.c
00000000 l    df *ABS*	00000000 ch32v30x_rcc.c
20000010 l     O .data	00000010 APBAHBPrescTable
2000003c l     O .data	00000004 ADCPrescTable
00000000 l    df *ABS*	00000000 ch32v30x_usart.c
00000000 l    df *ABS*	00000000 ES8388.c
00000000 l    df *ABS*	00000000 led.c
00000000 l    df *ABS*	00000000 tm1637.c
00000000 l    df *ABS*	00000000 debug.c
2000004c l     O .bss	00000002 p_ms
2000004e l     O .bss	00000001 p_us
00000000 l    df *ABS*	00000000 printfloat.c
00000000 l    df *ABS*	00000000 libgcc2.c
00000000 l    df *ABS*	00000000 libgcc2.c
00000000 l    df *ABS*	00000000 ledf2.c
00000000 l    df *ABS*	00000000 muldf3.c
00000000 l    df *ABS*	00000000 subdf3.c
00000000 l    df *ABS*	00000000 fixdfdi.c
00000000 l    df *ABS*	00000000 floatdidf.c
00000000 l    df *ABS*	00000000 libgcc2.c
00000000 l    df *ABS*	00000000 libgcc2.c
0000147a  w    F .text	000000fa printDouble
0000050e  w      .text	00000000 EXTI2_IRQHandler
0000050e  w      .text	00000000 TIM8_TRG_COM_IRQHandler
0000050e  w      .text	00000000 TIM8_CC_IRQHandler
0000050e  w      .text	00000000 UART8_IRQHandler
00000ddc g     F .text	00000034 ES8388_close
00001574  w    F .text	00000358 print
00002dba g     F .text	000001b2 .hidden __floatdidf
000018cc  w    F .text	00000022 printf
20000838 g       .data	00000000 __global_pointer$
000001c8 g     F .text	00000028 .hidden __riscv_save_8
0000050e  w      .text	00000000 TIM1_CC_IRQHandler
00000222 g     F .text	00000002 HardFault_Handler
0000127a  w    F .text	000000e6 printInt
00000214 g     F .text	0000000c .hidden __riscv_restore_3
0000050e  w      .text	00000000 TIM6_IRQHandler
0000050e  w      .text	00000000 SysTick_Handler
0000050e  w      .text	00000000 PVD_IRQHandler
0000050e  w      .text	00000000 SDIO_IRQHandler
0000050e  w      .text	00000000 TIM9_BRK_IRQHandler
00000c9a g     F .text	00000142 ES8388_Init
00000200 g     F .text	00000020 .hidden __riscv_restore_10
0000050e  w      .text	00000000 DMA2_Channel8_IRQHandler
00000220 g     F .text	00000002 NMI_Handler
0000050e  w      .text	00000000 CAN2_RX1_IRQHandler
0000050e  w      .text	00000000 EXTI3_IRQHandler
000001c8 g     F .text	00000028 .hidden __riscv_save_11
0000059a g     F .text	0000000a DBGMCU_GetCHIPID
0000050e  w      .text	00000000 USBHS_IRQHandler
00000b5c g     F .text	0000000a USART_GetFlagStatus
0000050e  w      .text	00000000 DMA2_Channel9_IRQHandler
0000050e  w      .text	00000000 TIM10_CC_IRQHandler
20000040 g       .bss	00000000 _sbss
00000800 g       *ABS*	00000000 __stack_size
000010c2 g     F .text	0000005a USART_Printf_Init
0000050e  w      .text	00000000 USBFS_IRQHandler
00000214 g     F .text	0000000c .hidden __riscv_restore_2
0000067c g     F .text	000000d6 GPIO_PinRemapConfig
00001360  w    F .text	0000011a printLongLongInt
00002054 g     F .text	000000b6 .hidden __ltdf2
0000050e  w      .text	00000000 EXTI0_IRQHandler
0000050e  w      .text	00000000 I2C2_EV_IRQHandler
0000050e  w      .text	00000000 TIM10_TRG_COM_IRQHandler
000018ee  w    F .text	0000004a puts
00000ee2 g     F .text	00000052 TM1637_ack
20000038 g     O .data	00000004 SystemCoreClock
00000004 g       .init	00000000 _einit
00000a74 g     F .text	0000001e RCC_APB2PeriphClockCmd
000001c0 g     F .text	00000030 .hidden __riscv_save_12
0000050e  w      .text	00000000 CAN2_SCE_IRQHandler
0000050e  w      .text	00000000 ADC1_2_IRQHandler
000005a4 g     F .text	000000c0 GPIO_Init
0000050e  w      .text	00000000 Break_Point_Handler
00000200 g     F .text	00000020 .hidden __riscv_restore_11
20000048 g     O .bss	00000004 NVIC_Priority_Group
0000050e  w      .text	00000000 SPI1_IRQHandler
00000b3e g     F .text	00000016 USART_Cmd
000001f0 g     F .text	0000000c .hidden __riscv_save_1
0000050e  w      .text	00000000 TAMPER_IRQHandler
00000e10 g     F .text	00000046 LED_Init
00000214 g     F .text	0000000c .hidden __riscv_restore_0
000001d6 g     F .text	0000001a .hidden __riscv_save_7
0000050e  w      .text	00000000 CAN2_RX0_IRQHandler
0000050e  w      .text	00000000 TIM8_UP_IRQHandler
00000a92 g     F .text	0000001e RCC_APB1PeriphClockCmd
0000050e  w      .text	00000000 Ecall_M_Mode_Handler
2000f800 g       .stack	00000000 _heap_end
00001cca g     F .text	0000038a .hidden __umoddi3
0000020a g     F .text	00000016 .hidden __riscv_restore_5
00000e56 g     F .text	00000052 TM1637_Init
0000050e  w      .text	00000000 DMA2_Channel2_IRQHandler
00001938 g     F .text	00000392 .hidden __udivdi3
0000050e  w      .text	00000000 DMA1_Channel4_IRQHandler
0000089a g     F .text	00000004 I2C_SendData
00000b66 g     F .text	00000026 ES8388_Contrl_Init
00000752 g     F .text	000000fc I2C_Init
0000050e  w      .text	00000000 TIM9_UP_IRQHandler
0000020a g     F .text	00000016 .hidden __riscv_restore_6
0000050e  w      .text	00000000 USART3_IRQHandler
0000050e  w      .text	00000000 RTC_IRQHandler
20000050 g       .bss	00000000 _ebss
0000050e  w      .text	00000000 DMA1_Channel7_IRQHandler
0000050e  w      .text	00000000 CAN1_RX1_IRQHandler
00001062 g     F .text	0000002a Delay_Init
0000050e  w      .text	00000000 DVP_IRQHandler
0000050e  w      .text	00000000 UART5_IRQHandler
20000020 g     O .data	00000016 tab
0000066e g     F .text	00000004 GPIO_SetBits
0000050e  w      .text	00000000 TIM4_IRQHandler
00002054 g     F .text	000000b6 .hidden __ledf2
000001c8 g     F .text	00000028 .hidden __riscv_save_9
00000672 g     F .text	0000000a GPIO_WriteBit
0000050e  w      .text	00000000 DMA2_Channel1_IRQHandler
00000866 g     F .text	0000001a I2C_GenerateSTART
000001d6 g     F .text	0000001a .hidden __riscv_save_4
0000050e  w      .text	00000000 I2C1_EV_IRQHandler
000008fe g     F .text	00000176 RCC_GetClocksFreq
0000050e  w      .text	00000000 DMA1_Channel6_IRQHandler
00002f6c g     F .text	0000006e .hidden __clzsi2
0000050e  w      .text	00000000 UART4_IRQHandler
0000050e  w      .text	00000000 DMA2_Channel4_IRQHandler
00000ab0 g     F .text	0000008e USART_Init
0000050e  w      .text	00000000 TIM3_IRQHandler
0000050e  w      .text	00000000 RCC_IRQHandler
000001f0 g     F .text	0000000c .hidden __riscv_save_3
0000050e  w      .text	00000000 TIM1_TRG_COM_IRQHandler
0000050e  w      .text	00000000 DMA1_Channel1_IRQHandler
20000040 g     O .bss	00000005 gTM1637number
00000000 g       .init	00000000 _start
0000050e  w      .text	00000000 DMA2_Channel7_IRQHandler
20000000 g     O .data	00000010 AHBPrescTable
000008c6 g     F .text	00000032 I2C_GetFlagStatus
00000224 g     F .text	0000004e TM1637_Test
000011a2  w    F .text	000000d8 prints
0000050e  w      .text	00000000 EXTI15_10_IRQHandler
00000f76 g     F .text	00000054 TM1637_Write
0000084e g     F .text	00000018 I2C_Cmd
0000050e  w      .text	00000000 TIM7_IRQHandler
0000050e  w      .text	00000000 CAN2_TX_IRQHandler
20000000 g       .dalign	00000000 _data_vma
0000050e  w      .text	00000000 TIM5_IRQHandler
0000050e  w      .text	00000000 EXTI9_5_IRQHandler
0000210a g     F .text	000004b8 .hidden __muldf3
000001c8 g     F .text	00000028 .hidden __riscv_save_10
0000089e g     F .text	00000012 I2C_Send7bitAddress
0000050e  w      .text	00000000 ETH_WKUP_IRQHandler
0000020a g     F .text	00000016 .hidden __riscv_restore_4
00000200 g     F .text	00000020 .hidden __riscv_restore_8
000001d6 g     F .text	0000001a .hidden __riscv_save_6
0000050e  w      .text	00000000 SPI2_IRQHandler
00000200 g     F .text	00000020 .hidden __riscv_restore_9
0000020a g     F .text	00000016 .hidden __riscv_restore_7
00000272 g     F .text	00000074 main
0000050e  w      .text	00000000 TIM10_BRK_IRQHandler
0000050e  w      .text	00000000 TIM9_CC_IRQHandler
0000050e  w      .text	00000000 DMA2_Channel5_IRQHandler
0000050e  w      .text	00000000 DMA1_Channel5_IRQHandler
0000050e  w      .text	00000000 EXTI4_IRQHandler
0000108c g     F .text	00000036 Delay_Ms
0000050e  w      .text	00000000 USB_LP_CAN1_RX0_IRQHandler
000002e6 g     F .text	000000fa SystemInit
0000050e  w      .text	00000000 RNG_IRQHandler
0000115a  w    F .text	00000048 printchar
0000050e  w      .text	00000000 USB_HP_CAN1_TX_IRQHandler
00003064 g     O .text	00000100 .hidden __clz_tab
00000000 g       .init	00000000 _sinit
00002cfe g     F .text	000000bc .hidden __fixdfdi
0000050e  w      .text	00000000 DMA1_Channel3_IRQHandler
0000050e  w      .text	00000000 ETH_IRQHandler
0000050e  w      .text	00000000 TIM1_UP_IRQHandler
00000fca g     F .text	00000098 TM1637_Display
0000050e  w      .text	00000000 WWDG_IRQHandler
0000050e  w      .text	00000000 USBHSWakeup_IRQHandler
0000050e  w      .text	00000000 DMA2_Channel11_IRQHandler
0000050e  w      .text	00000000 Ecall_U_Mode_Handler
0000050e  w      .text	00000000 DMA2_Channel6_IRQHandler
0000050e  w      .text	00000000 TIM2_IRQHandler
20010000 g       .stack	00000000 _eusrstack
00000bb2 g     F .text	000000e8 ES8388_Write_Reg
000001f0 g     F .text	0000000c .hidden __riscv_save_2
0000050e  w      .text	00000000 SW_Handler
0000050e  w      .text	00000000 TIM1_BRK_IRQHandler
00000b54 g     F .text	00000008 USART_SendData
0000050e  w      .text	00000000 DMA2_Channel10_IRQHandler
0000050e  w      .text	00000000 EXTI1_IRQHandler
000001d6 g     F .text	0000001a .hidden __riscv_save_5
00000b8c g     F .text	00000026 ES8388_WaitEvent
0000111c g     F .text	0000003e _write
20000040 g       .data	00000000 _edata
00000f34 g     F .text	00000042 TM1637_stop
20000050 g       .bss	00000000 _end
0000050e  w      .text	00000000 RTCAlarm_IRQHandler
00003164 g       .dlalign	00000000 _data_lma
0000050e  w      .text	00000000 TIM10_UP_IRQHandler
0000050e  w      .text	00000000 TIM9_TRG_COM_IRQHandler
0000050e  w      .text	00000000 UART7_IRQHandler
0000050e  w      .text	00000000 USART2_IRQHandler
0000050e  w      .text	00000000 UART6_IRQHandler
000003e0 g     F .text	0000012e SystemCoreClockUpdate
0000050e  w      .text	00000000 I2C2_ER_IRQHandler
0000050e  w      .text	00000000 DMA1_Channel2_IRQHandler
000001fc g     F .text	00000024 .hidden __riscv_restore_12
0000050e  w      .text	00000000 TIM8_BRK_IRQHandler
00000510  w      .text	00000000 handle_reset
0000050e  w      .text	00000000 CAN1_SCE_IRQHandler
0000050e  w      .text	00000000 FLASH_IRQHandler
000001f0 g     F .text	0000000c .hidden __riscv_save_0
0000050e  w      .text	00000000 USART1_IRQHandler
0000050e  w      .text	00000000 SPI3_IRQHandler
000008b0 g     F .text	00000016 I2C_CheckEvent
00000880 g     F .text	0000001a I2C_GenerateSTOP
0000050e  w      .text	00000000 I2C1_ER_IRQHandler
000008f8 g     F .text	00000006 NVIC_PriorityGroupConfig
00000214 g     F .text	0000000c .hidden __riscv_restore_1
000025c2 g     F .text	0000073c .hidden __subdf3
00000ea8 g     F .text	0000003a TM1637_start
00000664 g     F .text	0000000a GPIO_ReadInputDataBit
0000050e  w      .text	00000000 USBWakeUp_IRQHandler
0000050e  w      .text	00000000 DMA2_Channel3_IRQHandler



Disassembly of section .init:

00000000 <_sinit>:
   0:	5100006f          	j	510 <handle_reset>

Disassembly of section .vector:

00000004 <_vector_base>:
	...
   c:	0220                	addi	s0,sp,264
   e:	0000                	unimp
  10:	0222                	slli	tp,tp,0x8
  12:	0000                	unimp
  14:	0000                	unimp
  16:	0000                	unimp
  18:	050e                	slli	a0,a0,0x3
	...
  22:	0000                	unimp
  24:	050e                	slli	a0,a0,0x3
  26:	0000                	unimp
  28:	050e                	slli	a0,a0,0x3
	...
  32:	0000                	unimp
  34:	050e                	slli	a0,a0,0x3
  36:	0000                	unimp
  38:	0000                	unimp
  3a:	0000                	unimp
  3c:	050e                	slli	a0,a0,0x3
  3e:	0000                	unimp
  40:	0000                	unimp
  42:	0000                	unimp
  44:	050e                	slli	a0,a0,0x3
  46:	0000                	unimp
  48:	050e                	slli	a0,a0,0x3
  4a:	0000                	unimp
  4c:	050e                	slli	a0,a0,0x3
  4e:	0000                	unimp
  50:	050e                	slli	a0,a0,0x3
  52:	0000                	unimp
  54:	050e                	slli	a0,a0,0x3
  56:	0000                	unimp
  58:	050e                	slli	a0,a0,0x3
  5a:	0000                	unimp
  5c:	050e                	slli	a0,a0,0x3
  5e:	0000                	unimp
  60:	050e                	slli	a0,a0,0x3
  62:	0000                	unimp
  64:	050e                	slli	a0,a0,0x3
  66:	0000                	unimp
  68:	050e                	slli	a0,a0,0x3
  6a:	0000                	unimp
  6c:	050e                	slli	a0,a0,0x3
  6e:	0000                	unimp
  70:	050e                	slli	a0,a0,0x3
  72:	0000                	unimp
  74:	050e                	slli	a0,a0,0x3
  76:	0000                	unimp
  78:	050e                	slli	a0,a0,0x3
  7a:	0000                	unimp
  7c:	050e                	slli	a0,a0,0x3
  7e:	0000                	unimp
  80:	050e                	slli	a0,a0,0x3
  82:	0000                	unimp
  84:	050e                	slli	a0,a0,0x3
  86:	0000                	unimp
  88:	050e                	slli	a0,a0,0x3
  8a:	0000                	unimp
  8c:	050e                	slli	a0,a0,0x3
  8e:	0000                	unimp
  90:	050e                	slli	a0,a0,0x3
  92:	0000                	unimp
  94:	050e                	slli	a0,a0,0x3
  96:	0000                	unimp
  98:	050e                	slli	a0,a0,0x3
  9a:	0000                	unimp
  9c:	050e                	slli	a0,a0,0x3
  9e:	0000                	unimp
  a0:	050e                	slli	a0,a0,0x3
  a2:	0000                	unimp
  a4:	050e                	slli	a0,a0,0x3
  a6:	0000                	unimp
  a8:	050e                	slli	a0,a0,0x3
  aa:	0000                	unimp
  ac:	050e                	slli	a0,a0,0x3
  ae:	0000                	unimp
  b0:	050e                	slli	a0,a0,0x3
  b2:	0000                	unimp
  b4:	050e                	slli	a0,a0,0x3
  b6:	0000                	unimp
  b8:	050e                	slli	a0,a0,0x3
  ba:	0000                	unimp
  bc:	050e                	slli	a0,a0,0x3
  be:	0000                	unimp
  c0:	050e                	slli	a0,a0,0x3
  c2:	0000                	unimp
  c4:	050e                	slli	a0,a0,0x3
  c6:	0000                	unimp
  c8:	050e                	slli	a0,a0,0x3
  ca:	0000                	unimp
  cc:	050e                	slli	a0,a0,0x3
  ce:	0000                	unimp
  d0:	050e                	slli	a0,a0,0x3
  d2:	0000                	unimp
  d4:	050e                	slli	a0,a0,0x3
  d6:	0000                	unimp
  d8:	050e                	slli	a0,a0,0x3
  da:	0000                	unimp
  dc:	050e                	slli	a0,a0,0x3
  de:	0000                	unimp
  e0:	050e                	slli	a0,a0,0x3
  e2:	0000                	unimp
  e4:	050e                	slli	a0,a0,0x3
  e6:	0000                	unimp
  e8:	050e                	slli	a0,a0,0x3
  ea:	0000                	unimp
  ec:	050e                	slli	a0,a0,0x3
  ee:	0000                	unimp
  f0:	050e                	slli	a0,a0,0x3
  f2:	0000                	unimp
  f4:	050e                	slli	a0,a0,0x3
  f6:	0000                	unimp
  f8:	050e                	slli	a0,a0,0x3
  fa:	0000                	unimp
  fc:	050e                	slli	a0,a0,0x3
  fe:	0000                	unimp
 100:	050e                	slli	a0,a0,0x3
 102:	0000                	unimp
 104:	0000                	unimp
 106:	0000                	unimp
 108:	050e                	slli	a0,a0,0x3
 10a:	0000                	unimp
 10c:	050e                	slli	a0,a0,0x3
 10e:	0000                	unimp
 110:	050e                	slli	a0,a0,0x3
 112:	0000                	unimp
 114:	050e                	slli	a0,a0,0x3
 116:	0000                	unimp
 118:	050e                	slli	a0,a0,0x3
 11a:	0000                	unimp
 11c:	050e                	slli	a0,a0,0x3
 11e:	0000                	unimp
 120:	050e                	slli	a0,a0,0x3
 122:	0000                	unimp
 124:	050e                	slli	a0,a0,0x3
 126:	0000                	unimp
 128:	050e                	slli	a0,a0,0x3
 12a:	0000                	unimp
 12c:	050e                	slli	a0,a0,0x3
 12e:	0000                	unimp
 130:	050e                	slli	a0,a0,0x3
 132:	0000                	unimp
 134:	050e                	slli	a0,a0,0x3
 136:	0000                	unimp
 138:	050e                	slli	a0,a0,0x3
 13a:	0000                	unimp
 13c:	050e                	slli	a0,a0,0x3
 13e:	0000                	unimp
 140:	050e                	slli	a0,a0,0x3
 142:	0000                	unimp
 144:	050e                	slli	a0,a0,0x3
 146:	0000                	unimp
 148:	050e                	slli	a0,a0,0x3
 14a:	0000                	unimp
 14c:	050e                	slli	a0,a0,0x3
 14e:	0000                	unimp
 150:	050e                	slli	a0,a0,0x3
 152:	0000                	unimp
 154:	050e                	slli	a0,a0,0x3
 156:	0000                	unimp
 158:	050e                	slli	a0,a0,0x3
 15a:	0000                	unimp
 15c:	050e                	slli	a0,a0,0x3
 15e:	0000                	unimp
 160:	050e                	slli	a0,a0,0x3
 162:	0000                	unimp
 164:	050e                	slli	a0,a0,0x3
 166:	0000                	unimp
 168:	050e                	slli	a0,a0,0x3
 16a:	0000                	unimp
 16c:	050e                	slli	a0,a0,0x3
 16e:	0000                	unimp
 170:	050e                	slli	a0,a0,0x3
 172:	0000                	unimp
 174:	050e                	slli	a0,a0,0x3
 176:	0000                	unimp
 178:	050e                	slli	a0,a0,0x3
 17a:	0000                	unimp
 17c:	050e                	slli	a0,a0,0x3
 17e:	0000                	unimp
 180:	050e                	slli	a0,a0,0x3
 182:	0000                	unimp
 184:	050e                	slli	a0,a0,0x3
 186:	0000                	unimp
 188:	050e                	slli	a0,a0,0x3
 18a:	0000                	unimp
 18c:	050e                	slli	a0,a0,0x3
 18e:	0000                	unimp
 190:	050e                	slli	a0,a0,0x3
 192:	0000                	unimp
 194:	050e                	slli	a0,a0,0x3
 196:	0000                	unimp
 198:	050e                	slli	a0,a0,0x3
 19a:	0000                	unimp
 19c:	050e                	slli	a0,a0,0x3
 19e:	0000                	unimp
 1a0:	050e                	slli	a0,a0,0x3
	...

Disassembly of section .text:

000001c0 <__riscv_save_12>:
     1c0:	7139                	addi	sp,sp,-64
     1c2:	4301                	li	t1,0
     1c4:	c66e                	sw	s11,12(sp)
     1c6:	a019                	j	1cc <__riscv_save_10+0x4>

000001c8 <__riscv_save_10>:
     1c8:	7139                	addi	sp,sp,-64
     1ca:	5341                	li	t1,-16
     1cc:	c86a                	sw	s10,16(sp)
     1ce:	ca66                	sw	s9,20(sp)
     1d0:	cc62                	sw	s8,24(sp)
     1d2:	ce5e                	sw	s7,28(sp)
     1d4:	a019                	j	1da <__riscv_save_4+0x4>

000001d6 <__riscv_save_4>:
     1d6:	7139                	addi	sp,sp,-64
     1d8:	5301                	li	t1,-32
     1da:	d05a                	sw	s6,32(sp)
     1dc:	d256                	sw	s5,36(sp)
     1de:	d452                	sw	s4,40(sp)
     1e0:	d64e                	sw	s3,44(sp)
     1e2:	d84a                	sw	s2,48(sp)
     1e4:	da26                	sw	s1,52(sp)
     1e6:	dc22                	sw	s0,56(sp)
     1e8:	de06                	sw	ra,60(sp)
     1ea:	40610133          	sub	sp,sp,t1
     1ee:	8282                	jr	t0

000001f0 <__riscv_save_0>:
     1f0:	1141                	addi	sp,sp,-16
     1f2:	c04a                	sw	s2,0(sp)
     1f4:	c226                	sw	s1,4(sp)
     1f6:	c422                	sw	s0,8(sp)
     1f8:	c606                	sw	ra,12(sp)
     1fa:	8282                	jr	t0

000001fc <__riscv_restore_12>:
     1fc:	4db2                	lw	s11,12(sp)
     1fe:	0141                	addi	sp,sp,16

00000200 <__riscv_restore_10>:
     200:	4d02                	lw	s10,0(sp)
     202:	4c92                	lw	s9,4(sp)
     204:	4c22                	lw	s8,8(sp)
     206:	4bb2                	lw	s7,12(sp)
     208:	0141                	addi	sp,sp,16

0000020a <__riscv_restore_4>:
     20a:	4b02                	lw	s6,0(sp)
     20c:	4a92                	lw	s5,4(sp)
     20e:	4a22                	lw	s4,8(sp)
     210:	49b2                	lw	s3,12(sp)
     212:	0141                	addi	sp,sp,16

00000214 <__riscv_restore_0>:
     214:	4902                	lw	s2,0(sp)
     216:	4492                	lw	s1,4(sp)
     218:	4422                	lw	s0,8(sp)
     21a:	40b2                	lw	ra,12(sp)
     21c:	0141                	addi	sp,sp,16
     21e:	8082                	ret

00000220 <NMI_Handler>:
     220:	a001                	j	220 <NMI_Handler>

00000222 <HardFault_Handler>:
     222:	a001                	j	222 <HardFault_Handler>

00000224 <TM1637_Test>:
     224:	fcdff2ef          	jal	t0,1f0 <__riscv_save_0>
     228:	3e800513          	li	a0,1000
     22c:	661000ef          	jal	ra,108c <Delay_Ms>
     230:	80818493          	addi	s1,gp,-2040 # 20000040 <_edata>
     234:	20b0                	lbu	a2,2(s1)
     236:	0004c803          	lbu	a6,0(s1)
     23a:	3098                	lbu	a4,1(s1)
     23c:	30a8                	lbu	a0,3(s1)
     23e:	4781                	li	a5,0
     240:	4681                	li	a3,0
     242:	4881                	li	a7,0
     244:	4581                	li	a1,0
     246:	585000ef          	jal	ra,fca <TM1637_Display>
     24a:	209c                	lbu	a5,0(s1)
     24c:	4625                	li	a2,9
     24e:	0785                	addi	a5,a5,1
     250:	a09c                	sb	a5,0(s1)
     252:	80818793          	addi	a5,gp,-2040 # 20000040 <_edata>
     256:	00378693          	addi	a3,a5,3
     25a:	2398                	lbu	a4,0(a5)
     25c:	00e67763          	bgeu	a2,a4,26a <TM1637_Test+0x46>
     260:	3398                	lbu	a4,1(a5)
     262:	00078023          	sb	zero,0(a5)
     266:	0705                	addi	a4,a4,1
     268:	b398                	sb	a4,1(a5)
     26a:	0785                	addi	a5,a5,1
     26c:	fed797e3          	bne	a5,a3,25a <TM1637_Test+0x36>
     270:	b755                	j	214 <__riscv_restore_0>

00000272 <main>:
     272:	f7fff2ef          	jal	t0,1f0 <__riscv_save_0>
     276:	22ad                	jal	3e0 <SystemCoreClockUpdate>
     278:	4509                	li	a0,2
     27a:	2dbd                	jal	8f8 <NVIC_PriorityGroupConfig>
     27c:	08800793          	li	a5,136
     280:	8007b073          	csrc	0x800,a5
     284:	5df000ef          	jal	ra,1062 <Delay_Init>
     288:	6571                	lui	a0,0x1c
     28a:	20050513          	addi	a0,a0,512 # 1c200 <_data_lma+0x1909c>
     28e:	635000ef          	jal	ra,10c2 <USART_Printf_Init>
     292:	37f000ef          	jal	ra,e10 <LED_Init>
     296:	3c1000ef          	jal	ra,e56 <TM1637_Init>
     29a:	343000ef          	jal	ra,ddc <ES8388_close>
     29e:	200007b7          	lui	a5,0x20000
     2a2:	0387a583          	lw	a1,56(a5) # 20000038 <SystemCoreClock>
     2a6:	00003537          	lui	a0,0x3
     2aa:	fdc50513          	addi	a0,a0,-36 # 2fdc <__clzsi2+0x70>
     2ae:	61e010ef          	jal	ra,18cc <printf>
     2b2:	24e5                	jal	59a <DBGMCU_GetCHIPID>
     2b4:	85aa                	mv	a1,a0
     2b6:	00003537          	lui	a0,0x3
     2ba:	fec50513          	addi	a0,a0,-20 # 2fec <__clzsi2+0x80>
     2be:	60e010ef          	jal	ra,18cc <printf>
     2c2:	00003537          	lui	a0,0x3
     2c6:	ffc50513          	addi	a0,a0,-4 # 2ffc <__clzsi2+0x90>
     2ca:	624010ef          	jal	ra,18ee <puts>
     2ce:	00003537          	lui	a0,0x3
     2d2:	00850513          	addi	a0,a0,8 # 3008 <__clzsi2+0x9c>
     2d6:	618010ef          	jal	ra,18ee <puts>
     2da:	1f400513          	li	a0,500
     2de:	5af000ef          	jal	ra,108c <Delay_Ms>
     2e2:	3789                	jal	224 <TM1637_Test>
     2e4:	bfdd                	j	2da <main+0x68>

000002e6 <SystemInit>:
     2e6:	400217b7          	lui	a5,0x40021
     2ea:	4398                	lw	a4,0(a5)
     2ec:	f0ff06b7          	lui	a3,0xf0ff0
     2f0:	1141                	addi	sp,sp,-16
     2f2:	00176713          	ori	a4,a4,1
     2f6:	c398                	sw	a4,0(a5)
     2f8:	43d8                	lw	a4,4(a5)
     2fa:	00020637          	lui	a2,0x20
     2fe:	8f75                	and	a4,a4,a3
     300:	c3d8                	sw	a4,4(a5)
     302:	4398                	lw	a4,0(a5)
     304:	fef706b7          	lui	a3,0xfef70
     308:	16fd                	addi	a3,a3,-1
     30a:	8f75                	and	a4,a4,a3
     30c:	c398                	sw	a4,0(a5)
     30e:	4398                	lw	a4,0(a5)
     310:	fffc06b7          	lui	a3,0xfffc0
     314:	16fd                	addi	a3,a3,-1
     316:	8f75                	and	a4,a4,a3
     318:	c398                	sw	a4,0(a5)
     31a:	43d8                	lw	a4,4(a5)
     31c:	ff0106b7          	lui	a3,0xff010
     320:	16fd                	addi	a3,a3,-1
     322:	8f75                	and	a4,a4,a3
     324:	c3d8                	sw	a4,4(a5)
     326:	4398                	lw	a4,0(a5)
     328:	ec0006b7          	lui	a3,0xec000
     32c:	16fd                	addi	a3,a3,-1
     32e:	8f75                	and	a4,a4,a3
     330:	c398                	sw	a4,0(a5)
     332:	00ff0737          	lui	a4,0xff0
     336:	c798                	sw	a4,8(a5)
     338:	0207a623          	sw	zero,44(a5) # 4002102c <_eusrstack+0x2001102c>
     33c:	c402                	sw	zero,8(sp)
     33e:	c602                	sw	zero,12(sp)
     340:	4398                	lw	a4,0(a5)
     342:	66c1                	lui	a3,0x10
     344:	8f55                	or	a4,a4,a3
     346:	c398                	sw	a4,0(a5)
     348:	400216b7          	lui	a3,0x40021
     34c:	6711                	lui	a4,0x4
     34e:	429c                	lw	a5,0(a3)
     350:	8ff1                	and	a5,a5,a2
     352:	c63e                	sw	a5,12(sp)
     354:	47a2                	lw	a5,8(sp)
     356:	0785                	addi	a5,a5,1
     358:	c43e                	sw	a5,8(sp)
     35a:	47b2                	lw	a5,12(sp)
     35c:	e781                	bnez	a5,364 <SystemInit+0x7e>
     35e:	47a2                	lw	a5,8(sp)
     360:	fee797e3          	bne	a5,a4,34e <SystemInit+0x68>
     364:	400217b7          	lui	a5,0x40021
     368:	439c                	lw	a5,0(a5)
     36a:	00e79713          	slli	a4,a5,0xe
     36e:	06075763          	bgez	a4,3dc <SystemInit+0xf6>
     372:	4785                	li	a5,1
     374:	c63e                	sw	a5,12(sp)
     376:	4732                	lw	a4,12(sp)
     378:	4785                	li	a5,1
     37a:	04f71f63          	bne	a4,a5,3d8 <SystemInit+0xf2>
     37e:	400217b7          	lui	a5,0x40021
     382:	43d8                	lw	a4,4(a5)
     384:	ffc106b7          	lui	a3,0xffc10
     388:	16fd                	addi	a3,a3,-1
     38a:	c3d8                	sw	a4,4(a5)
     38c:	43d8                	lw	a4,4(a5)
     38e:	c3d8                	sw	a4,4(a5)
     390:	43d8                	lw	a4,4(a5)
     392:	40076713          	ori	a4,a4,1024
     396:	c3d8                	sw	a4,4(a5)
     398:	43d8                	lw	a4,4(a5)
     39a:	8f75                	and	a4,a4,a3
     39c:	c3d8                	sw	a4,4(a5)
     39e:	43d8                	lw	a4,4(a5)
     3a0:	001d06b7          	lui	a3,0x1d0
     3a4:	8f55                	or	a4,a4,a3
     3a6:	c3d8                	sw	a4,4(a5)
     3a8:	4398                	lw	a4,0(a5)
     3aa:	010006b7          	lui	a3,0x1000
     3ae:	8f55                	or	a4,a4,a3
     3b0:	c398                	sw	a4,0(a5)
     3b2:	4398                	lw	a4,0(a5)
     3b4:	00671693          	slli	a3,a4,0x6
     3b8:	fe06dde3          	bgez	a3,3b2 <SystemInit+0xcc>
     3bc:	43d8                	lw	a4,4(a5)
     3be:	400216b7          	lui	a3,0x40021
     3c2:	9b71                	andi	a4,a4,-4
     3c4:	c3d8                	sw	a4,4(a5)
     3c6:	43d8                	lw	a4,4(a5)
     3c8:	00276713          	ori	a4,a4,2
     3cc:	c3d8                	sw	a4,4(a5)
     3ce:	4721                	li	a4,8
     3d0:	42dc                	lw	a5,4(a3)
     3d2:	8bb1                	andi	a5,a5,12
     3d4:	fee79ee3          	bne	a5,a4,3d0 <SystemInit+0xea>
     3d8:	0141                	addi	sp,sp,16
     3da:	8082                	ret
     3dc:	c602                	sw	zero,12(sp)
     3de:	bf61                	j	376 <SystemInit+0x90>

000003e0 <SystemCoreClockUpdate>:
     3e0:	400216b7          	lui	a3,0x40021
     3e4:	42d8                	lw	a4,4(a3)
     3e6:	200007b7          	lui	a5,0x20000
     3ea:	4611                	li	a2,4
     3ec:	8b31                	andi	a4,a4,12
     3ee:	03878793          	addi	a5,a5,56 # 20000038 <SystemCoreClock>
     3f2:	00c70563          	beq	a4,a2,3fc <SystemCoreClockUpdate+0x1c>
     3f6:	4621                	li	a2,8
     3f8:	02c70863          	beq	a4,a2,428 <SystemCoreClockUpdate+0x48>
     3fc:	007a1737          	lui	a4,0x7a1
     400:	20070713          	addi	a4,a4,512 # 7a1200 <_data_lma+0x79e09c>
     404:	c398                	sw	a4,0(a5)
     406:	40021737          	lui	a4,0x40021
     40a:	4358                	lw	a4,4(a4)
     40c:	8311                	srli	a4,a4,0x4
     40e:	00f77693          	andi	a3,a4,15
     412:	20000737          	lui	a4,0x20000
     416:	00070713          	mv	a4,a4
     41a:	9736                	add	a4,a4,a3
     41c:	2314                	lbu	a3,0(a4)
     41e:	4398                	lw	a4,0(a5)
     420:	00d75733          	srl	a4,a4,a3
     424:	c398                	sw	a4,0(a5)
     426:	8082                	ret
     428:	42d8                	lw	a4,4(a3)
     42a:	42d4                	lw	a3,4(a3)
     42c:	6641                	lui	a2,0x10
     42e:	8349                	srli	a4,a4,0x12
     430:	8b3d                	andi	a4,a4,15
     432:	8ef1                	and	a3,a3,a2
     434:	00270613          	addi	a2,a4,2 # 20000002 <_data_vma+0x2>
     438:	cf15                	beqz	a4,474 <SystemCoreClockUpdate+0x94>
     43a:	473d                	li	a4,15
     43c:	02e60f63          	beq	a2,a4,47a <SystemCoreClockUpdate+0x9a>
     440:	4741                	li	a4,16
     442:	02e60f63          	beq	a2,a4,480 <SystemCoreClockUpdate+0xa0>
     446:	4745                	li	a4,17
     448:	4581                	li	a1,0
     44a:	00e61363          	bne	a2,a4,450 <SystemCoreClockUpdate+0x70>
     44e:	4641                	li	a2,16
     450:	e2a1                	bnez	a3,490 <SystemCoreClockUpdate+0xb0>
     452:	40024737          	lui	a4,0x40024
     456:	80072703          	lw	a4,-2048(a4) # 40023800 <_eusrstack+0x20013800>
     45a:	8b41                	andi	a4,a4,16
     45c:	c70d                	beqz	a4,486 <SystemCoreClockUpdate+0xa6>
     45e:	007a1737          	lui	a4,0x7a1
     462:	20070713          	addi	a4,a4,512 # 7a1200 <_data_lma+0x79e09c>
     466:	02c70633          	mul	a2,a4,a2
     46a:	c390                	sw	a2,0(a5)
     46c:	ddc9                	beqz	a1,406 <SystemCoreClockUpdate+0x26>
     46e:	4398                	lw	a4,0(a5)
     470:	8305                	srli	a4,a4,0x1
     472:	bf49                	j	404 <SystemCoreClockUpdate+0x24>
     474:	4581                	li	a1,0
     476:	4649                	li	a2,18
     478:	bfe1                	j	450 <SystemCoreClockUpdate+0x70>
     47a:	4585                	li	a1,1
     47c:	4635                	li	a2,13
     47e:	bfc9                	j	450 <SystemCoreClockUpdate+0x70>
     480:	4581                	li	a1,0
     482:	463d                	li	a2,15
     484:	b7f1                	j	450 <SystemCoreClockUpdate+0x70>
     486:	003d1737          	lui	a4,0x3d1
     48a:	90070713          	addi	a4,a4,-1792 # 3d0900 <_data_lma+0x3cd79c>
     48e:	bfe1                	j	466 <SystemCoreClockUpdate+0x86>
     490:	40021537          	lui	a0,0x40021
     494:	5558                	lw	a4,44(a0)
     496:	00f71693          	slli	a3,a4,0xf
     49a:	5558                	lw	a4,44(a0)
     49c:	0406df63          	bgez	a3,4fa <SystemCoreClockUpdate+0x11a>
     4a0:	8311                	srli	a4,a4,0x4
     4a2:	8b3d                	andi	a4,a4,15
     4a4:	00170693          	addi	a3,a4,1
     4a8:	007a1737          	lui	a4,0x7a1
     4ac:	20070713          	addi	a4,a4,512 # 7a1200 <_data_lma+0x79e09c>
     4b0:	02d75733          	divu	a4,a4,a3
     4b4:	c398                	sw	a4,0(a5)
     4b6:	5554                	lw	a3,44(a0)
     4b8:	82a1                	srli	a3,a3,0x8
     4ba:	8abd                	andi	a3,a3,15
     4bc:	e28d                	bnez	a3,4de <SystemCoreClockUpdate+0xfe>
     4be:	4695                	li	a3,5
     4c0:	02d70733          	mul	a4,a4,a3
     4c4:	8305                	srli	a4,a4,0x1
     4c6:	c398                	sw	a4,0(a5)
     4c8:	40021737          	lui	a4,0x40021
     4cc:	5758                	lw	a4,44(a4)
     4ce:	4394                	lw	a3,0(a5)
     4d0:	8b3d                	andi	a4,a4,15
     4d2:	0705                	addi	a4,a4,1
     4d4:	02e6d733          	divu	a4,a3,a4
     4d8:	c398                	sw	a4,0(a5)
     4da:	4398                	lw	a4,0(a5)
     4dc:	b769                	j	466 <SystemCoreClockUpdate+0x86>
     4de:	4505                	li	a0,1
     4e0:	00a69463          	bne	a3,a0,4e8 <SystemCoreClockUpdate+0x108>
     4e4:	46e5                	li	a3,25
     4e6:	bfe9                	j	4c0 <SystemCoreClockUpdate+0xe0>
     4e8:	453d                	li	a0,15
     4ea:	00a69663          	bne	a3,a0,4f6 <SystemCoreClockUpdate+0x116>
     4ee:	46d1                	li	a3,20
     4f0:	02e68733          	mul	a4,a3,a4
     4f4:	bfc9                	j	4c6 <SystemCoreClockUpdate+0xe6>
     4f6:	0689                	addi	a3,a3,2
     4f8:	bfe5                	j	4f0 <SystemCoreClockUpdate+0x110>
     4fa:	8b3d                	andi	a4,a4,15
     4fc:	00170693          	addi	a3,a4,1 # 40021001 <_eusrstack+0x20011001>
     500:	007a1737          	lui	a4,0x7a1
     504:	20070713          	addi	a4,a4,512 # 7a1200 <_data_lma+0x79e09c>
     508:	02d75733          	divu	a4,a4,a3
     50c:	b7f1                	j	4d8 <SystemCoreClockUpdate+0xf8>

0000050e <ADC1_2_IRQHandler>:
     50e:	a001                	j	50e <ADC1_2_IRQHandler>

00000510 <handle_reset>:
     510:	20000197          	auipc	gp,0x20000
     514:	32818193          	addi	gp,gp,808 # 20000838 <__global_pointer$>
     518:	20010117          	auipc	sp,0x20010
     51c:	ae810113          	addi	sp,sp,-1304 # 20010000 <_eusrstack>
     520:	00003517          	auipc	a0,0x3
     524:	c4450513          	addi	a0,a0,-956 # 3164 <_data_lma>
     528:	20000597          	auipc	a1,0x20000
     52c:	ad858593          	addi	a1,a1,-1320 # 20000000 <_data_vma>
     530:	80818613          	addi	a2,gp,-2040 # 20000040 <_edata>
     534:	00c5fa63          	bgeu	a1,a2,548 <handle_reset+0x38>
     538:	00052283          	lw	t0,0(a0)
     53c:	0055a023          	sw	t0,0(a1)
     540:	0511                	addi	a0,a0,4
     542:	0591                	addi	a1,a1,4
     544:	fec5eae3          	bltu	a1,a2,538 <handle_reset+0x28>
     548:	80818513          	addi	a0,gp,-2040 # 20000040 <_edata>
     54c:	81818593          	addi	a1,gp,-2024 # 20000050 <_ebss>
     550:	00b57763          	bgeu	a0,a1,55e <handle_reset+0x4e>
     554:	00052023          	sw	zero,0(a0)
     558:	0511                	addi	a0,a0,4
     55a:	feb56de3          	bltu	a0,a1,554 <handle_reset+0x44>
     55e:	42fd                	li	t0,31
     560:	bc029073          	csrw	0xbc0,t0
     564:	42ad                	li	t0,11
     566:	80429073          	csrw	0x804,t0
     56a:	000062b7          	lui	t0,0x6
     56e:	08828293          	addi	t0,t0,136 # 6088 <_data_lma+0x2f24>
     572:	30029073          	csrw	mstatus,t0
     576:	00000297          	auipc	t0,0x0
     57a:	a8e28293          	addi	t0,t0,-1394 # 4 <_einit>
     57e:	0032e293          	ori	t0,t0,3
     582:	30529073          	csrw	mtvec,t0
     586:	d61ff0ef          	jal	ra,2e6 <SystemInit>
     58a:	00000297          	auipc	t0,0x0
     58e:	ce828293          	addi	t0,t0,-792 # 272 <main>
     592:	34129073          	csrw	mepc,t0
     596:	30200073          	mret

0000059a <DBGMCU_GetCHIPID>:
     59a:	1ffff7b7          	lui	a5,0x1ffff
     59e:	7047a503          	lw	a0,1796(a5) # 1ffff704 <_data_lma+0x1fffc5a0>
     5a2:	8082                	ret

000005a4 <GPIO_Init>:
     5a4:	459c                	lw	a5,8(a1)
     5a6:	0107f713          	andi	a4,a5,16
     5aa:	00f7f813          	andi	a6,a5,15
     5ae:	c701                	beqz	a4,5b6 <GPIO_Init+0x12>
     5b0:	41d8                	lw	a4,4(a1)
     5b2:	00e86833          	or	a6,a6,a4
     5b6:	218e                	lhu	a1,0(a1)
     5b8:	0ff5f713          	andi	a4,a1,255
     5bc:	c339                	beqz	a4,602 <GPIO_Init+0x5e>
     5be:	4118                	lw	a4,0(a0)
     5c0:	4681                	li	a3,0
     5c2:	4e85                	li	t4,1
     5c4:	4f3d                	li	t5,15
     5c6:	02800f93          	li	t6,40
     5ca:	04800293          	li	t0,72
     5ce:	4e21                	li	t3,8
     5d0:	00de9633          	sll	a2,t4,a3
     5d4:	00c5f8b3          	and	a7,a1,a2
     5d8:	03161163          	bne	a2,a7,5fa <GPIO_Init+0x56>
     5dc:	00269893          	slli	a7,a3,0x2
     5e0:	011f1333          	sll	t1,t5,a7
     5e4:	fff34313          	not	t1,t1
     5e8:	00e37733          	and	a4,t1,a4
     5ec:	011818b3          	sll	a7,a6,a7
     5f0:	00e8e733          	or	a4,a7,a4
     5f4:	05f79f63          	bne	a5,t6,652 <GPIO_Init+0xae>
     5f8:	c950                	sw	a2,20(a0)
     5fa:	0685                	addi	a3,a3,1
     5fc:	fdc69ae3          	bne	a3,t3,5d0 <GPIO_Init+0x2c>
     600:	c118                	sw	a4,0(a0)
     602:	0ff00713          	li	a4,255
     606:	04b77563          	bgeu	a4,a1,650 <GPIO_Init+0xac>
     60a:	4154                	lw	a3,4(a0)
     60c:	4621                	li	a2,8
     60e:	4e85                	li	t4,1
     610:	4f3d                	li	t5,15
     612:	02800f93          	li	t6,40
     616:	04800293          	li	t0,72
     61a:	4e41                	li	t3,16
     61c:	00ce98b3          	sll	a7,t4,a2
     620:	0115f733          	and	a4,a1,a7
     624:	02e89263          	bne	a7,a4,648 <GPIO_Init+0xa4>
     628:	00261713          	slli	a4,a2,0x2
     62c:	1701                	addi	a4,a4,-32
     62e:	00ef1333          	sll	t1,t5,a4
     632:	fff34313          	not	t1,t1
     636:	00d376b3          	and	a3,t1,a3
     63a:	00e81733          	sll	a4,a6,a4
     63e:	8ed9                	or	a3,a3,a4
     640:	01f79d63          	bne	a5,t6,65a <GPIO_Init+0xb6>
     644:	01152a23          	sw	a7,20(a0)
     648:	0605                	addi	a2,a2,1
     64a:	fdc619e3          	bne	a2,t3,61c <GPIO_Init+0x78>
     64e:	c154                	sw	a3,4(a0)
     650:	8082                	ret
     652:	fa5794e3          	bne	a5,t0,5fa <GPIO_Init+0x56>
     656:	c910                	sw	a2,16(a0)
     658:	b74d                	j	5fa <GPIO_Init+0x56>
     65a:	fe5797e3          	bne	a5,t0,648 <GPIO_Init+0xa4>
     65e:	01152823          	sw	a7,16(a0)
     662:	b7dd                	j	648 <GPIO_Init+0xa4>

00000664 <GPIO_ReadInputDataBit>:
     664:	4508                	lw	a0,8(a0)
     666:	8d6d                	and	a0,a0,a1
     668:	00a03533          	snez	a0,a0
     66c:	8082                	ret

0000066e <GPIO_SetBits>:
     66e:	c90c                	sw	a1,16(a0)
     670:	8082                	ret

00000672 <GPIO_WriteBit>:
     672:	c219                	beqz	a2,678 <GPIO_WriteBit+0x6>
     674:	c90c                	sw	a1,16(a0)
     676:	8082                	ret
     678:	c94c                	sw	a1,20(a0)
     67a:	8082                	ret

0000067c <GPIO_PinRemapConfig>:
     67c:	400107b7          	lui	a5,0x40010
     680:	04055a63          	bgez	a0,6d4 <GPIO_PinRemapConfig+0x58>
     684:	4fdc                	lw	a5,28(a5)
     686:	01055693          	srli	a3,a0,0x10
     68a:	01051813          	slli	a6,a0,0x10
     68e:	00300737          	lui	a4,0x300
     692:	00f6f613          	andi	a2,a3,15
     696:	01085813          	srli	a6,a6,0x10
     69a:	00e576b3          	and	a3,a0,a4
     69e:	06055063          	bgez	a0,6fe <GPIO_PinRemapConfig+0x82>
     6a2:	02e69b63          	bne	a3,a4,6d8 <GPIO_PinRemapConfig+0x5c>
     6a6:	01060693          	addi	a3,a2,16 # 10010 <_data_lma+0xceac>
     6aa:	460d                	li	a2,3
     6ac:	00d616b3          	sll	a3,a2,a3
     6b0:	fff6c693          	not	a3,a3
     6b4:	8ff5                	and	a5,a5,a3
     6b6:	c999                	beqz	a1,6cc <GPIO_PinRemapConfig+0x50>
     6b8:	01555713          	srli	a4,a0,0x15
     6bc:	3ff77713          	andi	a4,a4,1023
     6c0:	0712                	slli	a4,a4,0x4
     6c2:	00e81733          	sll	a4,a6,a4
     6c6:	8fd9                	or	a5,a5,a4
     6c8:	04055763          	bgez	a0,716 <GPIO_PinRemapConfig+0x9a>
     6cc:	40010737          	lui	a4,0x40010
     6d0:	cf5c                	sw	a5,28(a4)
     6d2:	8082                	ret
     6d4:	43dc                	lw	a5,4(a5)
     6d6:	bf45                	j	686 <GPIO_PinRemapConfig+0xa>
     6d8:	00b51713          	slli	a4,a0,0xb
     6dc:	00075663          	bgez	a4,6e8 <GPIO_PinRemapConfig+0x6c>
     6e0:	468d                	li	a3,3
     6e2:	00c696b3          	sll	a3,a3,a2
     6e6:	b7e9                	j	6b0 <GPIO_PinRemapConfig+0x34>
     6e8:	01555713          	srli	a4,a0,0x15
     6ec:	3ff77713          	andi	a4,a4,1023
     6f0:	0712                	slli	a4,a4,0x4
     6f2:	00e81733          	sll	a4,a6,a4
     6f6:	fff74713          	not	a4,a4
     6fa:	8ff9                	and	a5,a5,a4
     6fc:	bf6d                	j	6b6 <GPIO_PinRemapConfig+0x3a>
     6fe:	02e69063          	bne	a3,a4,71e <GPIO_PinRemapConfig+0xa2>
     702:	40010637          	lui	a2,0x40010
     706:	4254                	lw	a3,4(a2)
     708:	f1000737          	lui	a4,0xf1000
     70c:	177d                	addi	a4,a4,-1
     70e:	8ff9                	and	a5,a5,a4
     710:	8f75                	and	a4,a4,a3
     712:	c258                	sw	a4,4(a2)
     714:	f1d5                	bnez	a1,6b8 <GPIO_PinRemapConfig+0x3c>
     716:	40010737          	lui	a4,0x40010
     71a:	c35c                	sw	a5,4(a4)
     71c:	8082                	ret
     71e:	00b51713          	slli	a4,a0,0xb
     722:	00075c63          	bgez	a4,73a <GPIO_PinRemapConfig+0xbe>
     726:	468d                	li	a3,3
     728:	00c696b3          	sll	a3,a3,a2
     72c:	fff6c693          	not	a3,a3
     730:	8efd                	and	a3,a3,a5
     732:	0f0007b7          	lui	a5,0xf000
     736:	8fd5                	or	a5,a5,a3
     738:	bff1                	j	714 <GPIO_PinRemapConfig+0x98>
     73a:	01555713          	srli	a4,a0,0x15
     73e:	0712                	slli	a4,a4,0x4
     740:	00e81733          	sll	a4,a6,a4
     744:	fff74713          	not	a4,a4
     748:	8f7d                	and	a4,a4,a5
     74a:	0f0007b7          	lui	a5,0xf000
     74e:	8fd9                	or	a5,a5,a4
     750:	b7d1                	j	714 <GPIO_PinRemapConfig+0x98>

00000752 <I2C_Init>:
     752:	a9fff2ef          	jal	t0,1f0 <__riscv_save_0>
     756:	7179                	addi	sp,sp,-48
     758:	2146                	lhu	s1,4(a0)
     75a:	842a                	mv	s0,a0
     75c:	0868                	addi	a0,sp,28
     75e:	c62e                	sw	a1,12(sp)
     760:	2a79                	jal	8fe <RCC_GetClocksFreq>
     762:	5792                	lw	a5,36(sp)
     764:	000f4737          	lui	a4,0xf4
     768:	24070713          	addi	a4,a4,576 # f4240 <_data_lma+0xf10dc>
     76c:	02e7d733          	divu	a4,a5,a4
     770:	04c2                	slli	s1,s1,0x10
     772:	80c1                	srli	s1,s1,0x10
     774:	fc04f493          	andi	s1,s1,-64
     778:	04c2                	slli	s1,s1,0x10
     77a:	03c00693          	li	a3,60
     77e:	80c1                	srli	s1,s1,0x10
     780:	45b2                	lw	a1,12(sp)
     782:	00e6f463          	bgeu	a3,a4,78a <I2C_Init+0x38>
     786:	03c00713          	li	a4,60
     78a:	01071613          	slli	a2,a4,0x10
     78e:	8241                	srli	a2,a2,0x10
     790:	8cd1                	or	s1,s1,a2
     792:	a046                	sh	s1,4(s0)
     794:	2016                	lhu	a3,0(s0)
     796:	6561                	lui	a0,0x18
     798:	6a050513          	addi	a0,a0,1696 # 186a0 <_data_lma+0x1553c>
     79c:	06c2                	slli	a3,a3,0x10
     79e:	82c1                	srli	a3,a3,0x10
     7a0:	9af9                	andi	a3,a3,-2
     7a2:	06c2                	slli	a3,a3,0x10
     7a4:	82c1                	srli	a3,a3,0x10
     7a6:	a016                	sh	a3,0(s0)
     7a8:	4194                	lw	a3,0(a1)
     7aa:	04d56863          	bltu	a0,a3,7fa <I2C_Init+0xa8>
     7ae:	0686                	slli	a3,a3,0x1
     7b0:	02d7d7b3          	divu	a5,a5,a3
     7b4:	4691                	li	a3,4
     7b6:	01079713          	slli	a4,a5,0x10
     7ba:	8341                	srli	a4,a4,0x10
     7bc:	87ba                	mv	a5,a4
     7be:	00d77363          	bgeu	a4,a3,7c4 <I2C_Init+0x72>
     7c2:	4791                	li	a5,4
     7c4:	0605                	addi	a2,a2,1
     7c6:	0642                	slli	a2,a2,0x10
     7c8:	07c2                	slli	a5,a5,0x10
     7ca:	8241                	srli	a2,a2,0x10
     7cc:	83c1                	srli	a5,a5,0x10
     7ce:	b012                	sh	a2,32(s0)
     7d0:	ac5e                	sh	a5,28(s0)
     7d2:	201e                	lhu	a5,0(s0)
     7d4:	21da                	lhu	a4,4(a1)
     7d6:	25b6                	lhu	a3,10(a1)
     7d8:	0017e793          	ori	a5,a5,1
     7dc:	a01e                	sh	a5,0(s0)
     7de:	201e                	lhu	a5,0(s0)
     7e0:	8f55                	or	a4,a4,a3
     7e2:	07c2                	slli	a5,a5,0x10
     7e4:	83c1                	srli	a5,a5,0x10
     7e6:	bf57f793          	andi	a5,a5,-1035
     7ea:	8fd9                	or	a5,a5,a4
     7ec:	a01e                	sh	a5,0(s0)
     7ee:	259a                	lhu	a4,8(a1)
     7f0:	25de                	lhu	a5,12(a1)
     7f2:	8fd9                	or	a5,a5,a4
     7f4:	a41e                	sh	a5,8(s0)
     7f6:	6145                	addi	sp,sp,48
     7f8:	bc31                	j	214 <__riscv_restore_0>
     7fa:	21ea                	lhu	a0,6(a1)
     7fc:	6631                	lui	a2,0xc
     7fe:	167d                	addi	a2,a2,-1
     800:	02c51d63          	bne	a0,a2,83a <__stack_size+0x3a>
     804:	460d                	li	a2,3
     806:	02c686b3          	mul	a3,a3,a2
     80a:	02d7d7b3          	divu	a5,a5,a3
     80e:	07c2                	slli	a5,a5,0x10
     810:	83c1                	srli	a5,a5,0x10
     812:	01479693          	slli	a3,a5,0x14
     816:	e299                	bnez	a3,81c <__stack_size+0x1c>
     818:	0017e793          	ori	a5,a5,1
     81c:	66a1                	lui	a3,0x8
     81e:	8fd5                	or	a5,a5,a3
     820:	12c00693          	li	a3,300
     824:	02d70733          	mul	a4,a4,a3
     828:	3e800693          	li	a3,1000
     82c:	02d74733          	div	a4,a4,a3
     830:	0705                	addi	a4,a4,1
     832:	0742                	slli	a4,a4,0x10
     834:	8341                	srli	a4,a4,0x10
     836:	b01a                	sh	a4,32(s0)
     838:	bf61                	j	7d0 <I2C_Init+0x7e>
     83a:	4665                	li	a2,25
     83c:	02c686b3          	mul	a3,a3,a2
     840:	02d7d7b3          	divu	a5,a5,a3
     844:	6691                	lui	a3,0x4
     846:	07c2                	slli	a5,a5,0x10
     848:	83c1                	srli	a5,a5,0x10
     84a:	8fd5                	or	a5,a5,a3
     84c:	b7d9                	j	812 <__stack_size+0x12>

0000084e <I2C_Cmd>:
     84e:	211e                	lhu	a5,0(a0)
     850:	c589                	beqz	a1,85a <I2C_Cmd+0xc>
     852:	0017e793          	ori	a5,a5,1
     856:	a11e                	sh	a5,0(a0)
     858:	8082                	ret
     85a:	07c2                	slli	a5,a5,0x10
     85c:	83c1                	srli	a5,a5,0x10
     85e:	9bf9                	andi	a5,a5,-2
     860:	07c2                	slli	a5,a5,0x10
     862:	83c1                	srli	a5,a5,0x10
     864:	bfcd                	j	856 <I2C_Cmd+0x8>

00000866 <I2C_GenerateSTART>:
     866:	211e                	lhu	a5,0(a0)
     868:	c589                	beqz	a1,872 <I2C_GenerateSTART+0xc>
     86a:	1007e793          	ori	a5,a5,256
     86e:	a11e                	sh	a5,0(a0)
     870:	8082                	ret
     872:	07c2                	slli	a5,a5,0x10
     874:	83c1                	srli	a5,a5,0x10
     876:	eff7f793          	andi	a5,a5,-257
     87a:	07c2                	slli	a5,a5,0x10
     87c:	83c1                	srli	a5,a5,0x10
     87e:	bfc5                	j	86e <I2C_GenerateSTART+0x8>

00000880 <I2C_GenerateSTOP>:
     880:	211e                	lhu	a5,0(a0)
     882:	c589                	beqz	a1,88c <I2C_GenerateSTOP+0xc>
     884:	2007e793          	ori	a5,a5,512
     888:	a11e                	sh	a5,0(a0)
     88a:	8082                	ret
     88c:	07c2                	slli	a5,a5,0x10
     88e:	83c1                	srli	a5,a5,0x10
     890:	dff7f793          	andi	a5,a5,-513
     894:	07c2                	slli	a5,a5,0x10
     896:	83c1                	srli	a5,a5,0x10
     898:	bfc5                	j	888 <I2C_GenerateSTOP+0x8>

0000089a <I2C_SendData>:
     89a:	a90e                	sh	a1,16(a0)
     89c:	8082                	ret

0000089e <I2C_Send7bitAddress>:
     89e:	0fe5f793          	andi	a5,a1,254
     8a2:	c219                	beqz	a2,8a8 <I2C_Send7bitAddress+0xa>
     8a4:	0015e793          	ori	a5,a1,1
     8a8:	07c2                	slli	a5,a5,0x10
     8aa:	83c1                	srli	a5,a5,0x10
     8ac:	a91e                	sh	a5,16(a0)
     8ae:	8082                	ret

000008b0 <I2C_CheckEvent>:
     8b0:	295e                	lhu	a5,20(a0)
     8b2:	2d0a                	lhu	a0,24(a0)
     8b4:	0542                	slli	a0,a0,0x10
     8b6:	8d5d                	or	a0,a0,a5
     8b8:	8d6d                	and	a0,a0,a1
     8ba:	0522                	slli	a0,a0,0x8
     8bc:	8121                	srli	a0,a0,0x8
     8be:	8d0d                	sub	a0,a0,a1
     8c0:	00153513          	seqz	a0,a0
     8c4:	8082                	ret

000008c6 <I2C_GetFlagStatus>:
     8c6:	1141                	addi	sp,sp,-16
     8c8:	c402                	sw	zero,8(sp)
     8ca:	c602                	sw	zero,12(sp)
     8cc:	01c5d793          	srli	a5,a1,0x1c
     8d0:	c62a                	sw	a0,12(sp)
     8d2:	c43e                	sw	a5,8(sp)
     8d4:	47a2                	lw	a5,8(sp)
     8d6:	05a2                	slli	a1,a1,0x8
     8d8:	81a1                	srli	a1,a1,0x8
     8da:	cb99                	beqz	a5,8f0 <I2C_GetFlagStatus+0x2a>
     8dc:	47b2                	lw	a5,12(sp)
     8de:	07d1                	addi	a5,a5,20
     8e0:	c63e                	sw	a5,12(sp)
     8e2:	47b2                	lw	a5,12(sp)
     8e4:	4388                	lw	a0,0(a5)
     8e6:	0141                	addi	sp,sp,16
     8e8:	8d6d                	and	a0,a0,a1
     8ea:	00a03533          	snez	a0,a0
     8ee:	8082                	ret
     8f0:	47b2                	lw	a5,12(sp)
     8f2:	81c1                	srli	a1,a1,0x10
     8f4:	07e1                	addi	a5,a5,24
     8f6:	b7ed                	j	8e0 <I2C_GetFlagStatus+0x1a>

000008f8 <NVIC_PriorityGroupConfig>:
     8f8:	80a1a823          	sw	a0,-2032(gp) # 20000048 <NVIC_Priority_Group>
     8fc:	8082                	ret

000008fe <RCC_GetClocksFreq>:
     8fe:	40021737          	lui	a4,0x40021
     902:	435c                	lw	a5,4(a4)
     904:	4691                	li	a3,4
     906:	8bb1                	andi	a5,a5,12
     908:	00d78563          	beq	a5,a3,912 <RCC_GetClocksFreq+0x14>
     90c:	46a1                	li	a3,8
     90e:	06d78263          	beq	a5,a3,972 <RCC_GetClocksFreq+0x74>
     912:	007a17b7          	lui	a5,0x7a1
     916:	20078793          	addi	a5,a5,512 # 7a1200 <_data_lma+0x79e09c>
     91a:	c11c                	sw	a5,0(a0)
     91c:	40021637          	lui	a2,0x40021
     920:	425c                	lw	a5,4(a2)
     922:	20000737          	lui	a4,0x20000
     926:	01070713          	addi	a4,a4,16 # 20000010 <APBAHBPrescTable>
     92a:	8391                	srli	a5,a5,0x4
     92c:	8bbd                	andi	a5,a5,15
     92e:	97ba                	add	a5,a5,a4
     930:	2394                	lbu	a3,0(a5)
     932:	411c                	lw	a5,0(a0)
     934:	00d7d7b3          	srl	a5,a5,a3
     938:	c15c                	sw	a5,4(a0)
     93a:	4254                	lw	a3,4(a2)
     93c:	82a1                	srli	a3,a3,0x8
     93e:	8a9d                	andi	a3,a3,7
     940:	96ba                	add	a3,a3,a4
     942:	2294                	lbu	a3,0(a3)
     944:	00d7d6b3          	srl	a3,a5,a3
     948:	c514                	sw	a3,8(a0)
     94a:	4254                	lw	a3,4(a2)
     94c:	82ad                	srli	a3,a3,0xb
     94e:	8a9d                	andi	a3,a3,7
     950:	9736                	add	a4,a4,a3
     952:	2318                	lbu	a4,0(a4)
     954:	00e7d7b3          	srl	a5,a5,a4
     958:	c55c                	sw	a5,12(a0)
     95a:	4258                	lw	a4,4(a2)
     95c:	8339                	srli	a4,a4,0xe
     95e:	00377693          	andi	a3,a4,3
     962:	80418713          	addi	a4,gp,-2044 # 2000003c <ADCPrescTable>
     966:	9736                	add	a4,a4,a3
     968:	2318                	lbu	a4,0(a4)
     96a:	02e7d7b3          	divu	a5,a5,a4
     96e:	c91c                	sw	a5,16(a0)
     970:	8082                	ret
     972:	435c                	lw	a5,4(a4)
     974:	4358                	lw	a4,4(a4)
     976:	66c1                	lui	a3,0x10
     978:	83c9                	srli	a5,a5,0x12
     97a:	8f75                	and	a4,a4,a3
     97c:	1ffff6b7          	lui	a3,0x1ffff
     980:	70c6a683          	lw	a3,1804(a3) # 1ffff70c <_data_lma+0x1fffc5a8>
     984:	8bbd                	andi	a5,a5,15
     986:	0789                	addi	a5,a5,2
     988:	01169613          	slli	a2,a3,0x11
     98c:	00064863          	bltz	a2,99c <RCC_GetClocksFreq+0x9e>
     990:	46c5                	li	a3,17
     992:	4601                	li	a2,0
     994:	02d79263          	bne	a5,a3,9b8 <RCC_GetClocksFreq+0xba>
     998:	47c9                	li	a5,18
     99a:	a839                	j	9b8 <RCC_GetClocksFreq+0xba>
     99c:	4689                	li	a3,2
     99e:	02d78f63          	beq	a5,a3,9dc <RCC_GetClocksFreq+0xde>
     9a2:	46bd                	li	a3,15
     9a4:	02d78e63          	beq	a5,a3,9e0 <RCC_GetClocksFreq+0xe2>
     9a8:	46c1                	li	a3,16
     9aa:	02d78e63          	beq	a5,a3,9e6 <RCC_GetClocksFreq+0xe8>
     9ae:	46c5                	li	a3,17
     9b0:	4601                	li	a2,0
     9b2:	00d79363          	bne	a5,a3,9b8 <RCC_GetClocksFreq+0xba>
     9b6:	47c1                	li	a5,16
     9b8:	ef1d                	bnez	a4,9f6 <RCC_GetClocksFreq+0xf8>
     9ba:	40024737          	lui	a4,0x40024
     9be:	80072703          	lw	a4,-2048(a4) # 40023800 <_eusrstack+0x20013800>
     9c2:	8b41                	andi	a4,a4,16
     9c4:	c705                	beqz	a4,9ec <RCC_GetClocksFreq+0xee>
     9c6:	007a1737          	lui	a4,0x7a1
     9ca:	20070713          	addi	a4,a4,512 # 7a1200 <_data_lma+0x79e09c>
     9ce:	02f707b3          	mul	a5,a4,a5
     9d2:	c11c                	sw	a5,0(a0)
     9d4:	d621                	beqz	a2,91c <RCC_GetClocksFreq+0x1e>
     9d6:	411c                	lw	a5,0(a0)
     9d8:	8385                	srli	a5,a5,0x1
     9da:	b781                	j	91a <RCC_GetClocksFreq+0x1c>
     9dc:	4601                	li	a2,0
     9de:	bf6d                	j	998 <RCC_GetClocksFreq+0x9a>
     9e0:	4605                	li	a2,1
     9e2:	47b5                	li	a5,13
     9e4:	bfd1                	j	9b8 <RCC_GetClocksFreq+0xba>
     9e6:	4601                	li	a2,0
     9e8:	47bd                	li	a5,15
     9ea:	b7f9                	j	9b8 <RCC_GetClocksFreq+0xba>
     9ec:	003d1737          	lui	a4,0x3d1
     9f0:	90070713          	addi	a4,a4,-1792 # 3d0900 <_data_lma+0x3cd79c>
     9f4:	bfe9                	j	9ce <RCC_GetClocksFreq+0xd0>
     9f6:	400215b7          	lui	a1,0x40021
     9fa:	55d8                	lw	a4,44(a1)
     9fc:	00f71693          	slli	a3,a4,0xf
     a00:	55d8                	lw	a4,44(a1)
     a02:	0406df63          	bgez	a3,a60 <RCC_GetClocksFreq+0x162>
     a06:	8311                	srli	a4,a4,0x4
     a08:	8b3d                	andi	a4,a4,15
     a0a:	00170693          	addi	a3,a4,1
     a0e:	007a1737          	lui	a4,0x7a1
     a12:	20070713          	addi	a4,a4,512 # 7a1200 <_data_lma+0x79e09c>
     a16:	02d75733          	divu	a4,a4,a3
     a1a:	c118                	sw	a4,0(a0)
     a1c:	55d4                	lw	a3,44(a1)
     a1e:	82a1                	srli	a3,a3,0x8
     a20:	8abd                	andi	a3,a3,15
     a22:	e28d                	bnez	a3,a44 <RCC_GetClocksFreq+0x146>
     a24:	4695                	li	a3,5
     a26:	02d70733          	mul	a4,a4,a3
     a2a:	8305                	srli	a4,a4,0x1
     a2c:	c118                	sw	a4,0(a0)
     a2e:	40021737          	lui	a4,0x40021
     a32:	5758                	lw	a4,44(a4)
     a34:	4114                	lw	a3,0(a0)
     a36:	8b3d                	andi	a4,a4,15
     a38:	0705                	addi	a4,a4,1
     a3a:	02e6d733          	divu	a4,a3,a4
     a3e:	c118                	sw	a4,0(a0)
     a40:	4118                	lw	a4,0(a0)
     a42:	b771                	j	9ce <RCC_GetClocksFreq+0xd0>
     a44:	4585                	li	a1,1
     a46:	00b69463          	bne	a3,a1,a4e <RCC_GetClocksFreq+0x150>
     a4a:	46e5                	li	a3,25
     a4c:	bfe9                	j	a26 <RCC_GetClocksFreq+0x128>
     a4e:	45bd                	li	a1,15
     a50:	00b69663          	bne	a3,a1,a5c <RCC_GetClocksFreq+0x15e>
     a54:	46d1                	li	a3,20
     a56:	02e68733          	mul	a4,a3,a4
     a5a:	bfc9                	j	a2c <RCC_GetClocksFreq+0x12e>
     a5c:	0689                	addi	a3,a3,2
     a5e:	bfe5                	j	a56 <RCC_GetClocksFreq+0x158>
     a60:	8b3d                	andi	a4,a4,15
     a62:	00170693          	addi	a3,a4,1 # 40021001 <_eusrstack+0x20011001>
     a66:	007a1737          	lui	a4,0x7a1
     a6a:	20070713          	addi	a4,a4,512 # 7a1200 <_data_lma+0x79e09c>
     a6e:	02d75733          	divu	a4,a4,a3
     a72:	b7f1                	j	a3e <RCC_GetClocksFreq+0x140>

00000a74 <RCC_APB2PeriphClockCmd>:
     a74:	c599                	beqz	a1,a82 <RCC_APB2PeriphClockCmd+0xe>
     a76:	40021737          	lui	a4,0x40021
     a7a:	4f1c                	lw	a5,24(a4)
     a7c:	8d5d                	or	a0,a0,a5
     a7e:	cf08                	sw	a0,24(a4)
     a80:	8082                	ret
     a82:	400217b7          	lui	a5,0x40021
     a86:	4f98                	lw	a4,24(a5)
     a88:	fff54513          	not	a0,a0
     a8c:	8d79                	and	a0,a0,a4
     a8e:	cf88                	sw	a0,24(a5)
     a90:	8082                	ret

00000a92 <RCC_APB1PeriphClockCmd>:
     a92:	c599                	beqz	a1,aa0 <RCC_APB1PeriphClockCmd+0xe>
     a94:	40021737          	lui	a4,0x40021
     a98:	4f5c                	lw	a5,28(a4)
     a9a:	8d5d                	or	a0,a0,a5
     a9c:	cf48                	sw	a0,28(a4)
     a9e:	8082                	ret
     aa0:	400217b7          	lui	a5,0x40021
     aa4:	4fd8                	lw	a4,28(a5)
     aa6:	fff54513          	not	a0,a0
     aaa:	8d79                	and	a0,a0,a4
     aac:	cfc8                	sw	a0,28(a5)
     aae:	8082                	ret

00000ab0 <USART_Init>:
     ab0:	f40ff2ef          	jal	t0,1f0 <__riscv_save_0>
     ab4:	2916                	lhu	a3,16(a0)
     ab6:	77f5                	lui	a5,0xffffd
     ab8:	17fd                	addi	a5,a5,-1
     aba:	8ff5                	and	a5,a5,a3
     abc:	21f6                	lhu	a3,6(a1)
     abe:	25da                	lhu	a4,12(a1)
     ac0:	7179                	addi	sp,sp,-48
     ac2:	8fd5                	or	a5,a5,a3
     ac4:	a91e                	sh	a5,16(a0)
     ac6:	2556                	lhu	a3,12(a0)
     ac8:	77fd                	lui	a5,0xfffff
     aca:	9f378793          	addi	a5,a5,-1549 # ffffe9f3 <_eusrstack+0xdffee9f3>
     ace:	8ff5                	and	a5,a5,a3
     ad0:	21d6                	lhu	a3,4(a1)
     ad2:	842a                	mv	s0,a0
     ad4:	c62e                	sw	a1,12(sp)
     ad6:	8fd5                	or	a5,a5,a3
     ad8:	2596                	lhu	a3,8(a1)
     ada:	8fd5                	or	a5,a5,a3
     adc:	25b6                	lhu	a3,10(a1)
     ade:	8fd5                	or	a5,a5,a3
     ae0:	a55e                	sh	a5,12(a0)
     ae2:	295e                	lhu	a5,20(a0)
     ae4:	07c2                	slli	a5,a5,0x10
     ae6:	83c1                	srli	a5,a5,0x10
     ae8:	cff7f793          	andi	a5,a5,-769
     aec:	8fd9                	or	a5,a5,a4
     aee:	a95e                	sh	a5,20(a0)
     af0:	0868                	addi	a0,sp,28
     af2:	3531                	jal	8fe <RCC_GetClocksFreq>
     af4:	400147b7          	lui	a5,0x40014
     af8:	80078793          	addi	a5,a5,-2048 # 40013800 <_eusrstack+0x20003800>
     afc:	45b2                	lw	a1,12(sp)
     afe:	02f41e63          	bne	s0,a5,b3a <USART_Init+0x8a>
     b02:	57a2                	lw	a5,40(sp)
     b04:	4765                	li	a4,25
     b06:	02e787b3          	mul	a5,a5,a4
     b0a:	4198                	lw	a4,0(a1)
     b0c:	06400693          	li	a3,100
     b10:	070a                	slli	a4,a4,0x2
     b12:	02e7d7b3          	divu	a5,a5,a4
     b16:	02d7d733          	divu	a4,a5,a3
     b1a:	02d7f7b3          	remu	a5,a5,a3
     b1e:	0712                	slli	a4,a4,0x4
     b20:	0792                	slli	a5,a5,0x4
     b22:	03278793          	addi	a5,a5,50
     b26:	02d7d7b3          	divu	a5,a5,a3
     b2a:	8bbd                	andi	a5,a5,15
     b2c:	8fd9                	or	a5,a5,a4
     b2e:	07c2                	slli	a5,a5,0x10
     b30:	83c1                	srli	a5,a5,0x10
     b32:	a41e                	sh	a5,8(s0)
     b34:	6145                	addi	sp,sp,48
     b36:	edeff06f          	j	214 <__riscv_restore_0>
     b3a:	5792                	lw	a5,36(sp)
     b3c:	b7e1                	j	b04 <USART_Init+0x54>

00000b3e <USART_Cmd>:
     b3e:	c591                	beqz	a1,b4a <USART_Cmd+0xc>
     b40:	255e                	lhu	a5,12(a0)
     b42:	6709                	lui	a4,0x2
     b44:	8fd9                	or	a5,a5,a4
     b46:	a55e                	sh	a5,12(a0)
     b48:	8082                	ret
     b4a:	255a                	lhu	a4,12(a0)
     b4c:	77f9                	lui	a5,0xffffe
     b4e:	17fd                	addi	a5,a5,-1
     b50:	8ff9                	and	a5,a5,a4
     b52:	bfd5                	j	b46 <USART_Cmd+0x8>

00000b54 <USART_SendData>:
     b54:	1ff5f593          	andi	a1,a1,511
     b58:	a14e                	sh	a1,4(a0)
     b5a:	8082                	ret

00000b5c <USART_GetFlagStatus>:
     b5c:	210a                	lhu	a0,0(a0)
     b5e:	8d6d                	and	a0,a0,a1
     b60:	00a03533          	snez	a0,a0
     b64:	8082                	ret

00000b66 <ES8388_Contrl_Init>:
     b66:	e8aff2ef          	jal	t0,1f0 <__riscv_save_0>
     b6a:	1141                	addi	sp,sp,-16
     b6c:	4585                	li	a1,1
     b6e:	4541                	li	a0,16
     b70:	3711                	jal	a74 <RCC_APB2PeriphClockCmd>
     b72:	6789                	lui	a5,0x2
     b74:	827c                	sh	a5,4(sp)
     b76:	47c1                	li	a5,16
     b78:	c63e                	sw	a5,12(sp)
     b7a:	004c                	addi	a1,sp,4
     b7c:	478d                	li	a5,3
     b7e:	40011537          	lui	a0,0x40011
     b82:	c43e                	sw	a5,8(sp)
     b84:	3405                	jal	5a4 <GPIO_Init>
     b86:	0141                	addi	sp,sp,16
     b88:	e8cff06f          	j	214 <__riscv_restore_0>

00000b8c <ES8388_WaitEvent>:
     b8c:	e64ff2ef          	jal	t0,1f0 <__riscv_save_0>
     b90:	6441                	lui	s0,0x10
     b92:	84aa                	mv	s1,a0
     b94:	892e                	mv	s2,a1
     b96:	147d                	addi	s0,s0,-1
     b98:	85ca                	mv	a1,s2
     b9a:	8526                	mv	a0,s1
     b9c:	3b11                	jal	8b0 <I2C_CheckEvent>
     b9e:	c501                	beqz	a0,ba6 <ES8388_WaitEvent+0x1a>
     ba0:	4501                	li	a0,0
     ba2:	e72ff06f          	j	214 <__riscv_restore_0>
     ba6:	147d                	addi	s0,s0,-1
     ba8:	0442                	slli	s0,s0,0x10
     baa:	8041                	srli	s0,s0,0x10
     bac:	f475                	bnez	s0,b98 <ES8388_WaitEvent+0xc>
     bae:	4505                	li	a0,1
     bb0:	bfcd                	j	ba2 <ES8388_WaitEvent+0x16>

00000bb2 <ES8388_Write_Reg>:
     bb2:	e24ff2ef          	jal	t0,1d6 <__riscv_save_4>
     bb6:	6441                	lui	s0,0x10
     bb8:	400054b7          	lui	s1,0x40005
     bbc:	8a2a                	mv	s4,a0
     bbe:	892e                	mv	s2,a1
     bc0:	147d                	addi	s0,s0,-1
     bc2:	40048993          	addi	s3,s1,1024 # 40005400 <_eusrstack+0x1fff5400>
     bc6:	000205b7          	lui	a1,0x20
     bca:	854e                	mv	a0,s3
     bcc:	39ed                	jal	8c6 <I2C_GetFlagStatus>
     bce:	e545                	bnez	a0,c76 <ES8388_Write_Reg+0xc4>
     bd0:	4585                	li	a1,1
     bd2:	40048513          	addi	a0,s1,1024
     bd6:	3941                	jal	866 <I2C_GenerateSTART>
     bd8:	000305b7          	lui	a1,0x30
     bdc:	0585                	addi	a1,a1,1
     bde:	40048513          	addi	a0,s1,1024
     be2:	376d                	jal	b8c <ES8388_WaitEvent>
     be4:	ed49                	bnez	a0,c7e <ES8388_Write_Reg+0xcc>
     be6:	02000593          	li	a1,32
     bea:	40048513          	addi	a0,s1,1024
     bee:	4601                	li	a2,0
     bf0:	317d                	jal	89e <I2C_Send7bitAddress>
     bf2:	000705b7          	lui	a1,0x70
     bf6:	08258593          	addi	a1,a1,130 # 70082 <_data_lma+0x6cf1e>
     bfa:	40048513          	addi	a0,s1,1024
     bfe:	3779                	jal	b8c <ES8388_WaitEvent>
     c00:	ed3d                	bnez	a0,c7e <ES8388_Write_Reg+0xcc>
     c02:	6441                	lui	s0,0x10
     c04:	100009b7          	lui	s3,0x10000
     c08:	400054b7          	lui	s1,0x40005
     c0c:	147d                	addi	s0,s0,-1
     c0e:	08098993          	addi	s3,s3,128 # 10000080 <_data_lma+0xfffcf1c>
     c12:	40048a93          	addi	s5,s1,1024 # 40005400 <_eusrstack+0x1fff5400>
     c16:	85ce                	mv	a1,s3
     c18:	8556                	mv	a0,s5
     c1a:	3175                	jal	8c6 <I2C_GetFlagStatus>
     c1c:	c52d                	beqz	a0,c86 <ES8388_Write_Reg+0xd4>
     c1e:	85d2                	mv	a1,s4
     c20:	40048513          	addi	a0,s1,1024
     c24:	399d                	jal	89a <I2C_SendData>
     c26:	000705b7          	lui	a1,0x70
     c2a:	08458593          	addi	a1,a1,132 # 70084 <_data_lma+0x6cf20>
     c2e:	40048513          	addi	a0,s1,1024
     c32:	3fa9                	jal	b8c <ES8388_WaitEvent>
     c34:	e529                	bnez	a0,c7e <ES8388_Write_Reg+0xcc>
     c36:	6441                	lui	s0,0x10
     c38:	100009b7          	lui	s3,0x10000
     c3c:	400054b7          	lui	s1,0x40005
     c40:	147d                	addi	s0,s0,-1
     c42:	08098993          	addi	s3,s3,128 # 10000080 <_data_lma+0xfffcf1c>
     c46:	40048a13          	addi	s4,s1,1024 # 40005400 <_eusrstack+0x1fff5400>
     c4a:	85ce                	mv	a1,s3
     c4c:	8552                	mv	a0,s4
     c4e:	39a5                	jal	8c6 <I2C_GetFlagStatus>
     c50:	c121                	beqz	a0,c90 <ES8388_Write_Reg+0xde>
     c52:	85ca                	mv	a1,s2
     c54:	40048513          	addi	a0,s1,1024
     c58:	3189                	jal	89a <I2C_SendData>
     c5a:	000705b7          	lui	a1,0x70
     c5e:	08458593          	addi	a1,a1,132 # 70084 <_data_lma+0x6cf20>
     c62:	40048513          	addi	a0,s1,1024
     c66:	371d                	jal	b8c <ES8388_WaitEvent>
     c68:	842a                	mv	s0,a0
     c6a:	e911                	bnez	a0,c7e <ES8388_Write_Reg+0xcc>
     c6c:	4585                	li	a1,1
     c6e:	40048513          	addi	a0,s1,1024
     c72:	3139                	jal	880 <I2C_GenerateSTOP>
     c74:	a031                	j	c80 <ES8388_Write_Reg+0xce>
     c76:	147d                	addi	s0,s0,-1
     c78:	0442                	slli	s0,s0,0x10
     c7a:	8041                	srli	s0,s0,0x10
     c7c:	f429                	bnez	s0,bc6 <ES8388_Write_Reg+0x14>
     c7e:	4405                	li	s0,1
     c80:	8522                	mv	a0,s0
     c82:	d88ff06f          	j	20a <__riscv_restore_4>
     c86:	147d                	addi	s0,s0,-1
     c88:	0442                	slli	s0,s0,0x10
     c8a:	8041                	srli	s0,s0,0x10
     c8c:	f449                	bnez	s0,c16 <ES8388_Write_Reg+0x64>
     c8e:	bfc5                	j	c7e <ES8388_Write_Reg+0xcc>
     c90:	147d                	addi	s0,s0,-1
     c92:	0442                	slli	s0,s0,0x10
     c94:	8041                	srli	s0,s0,0x10
     c96:	f855                	bnez	s0,c4a <ES8388_Write_Reg+0x98>
     c98:	b7dd                	j	c7e <ES8388_Write_Reg+0xcc>

00000c9a <ES8388_Init>:
     c9a:	d56ff2ef          	jal	t0,1f0 <__riscv_save_0>
     c9e:	1101                	addi	sp,sp,-32
     ca0:	4585                	li	a1,1
     ca2:	4521                	li	a0,8
     ca4:	3bc1                	jal	a74 <RCC_APB2PeriphClockCmd>
     ca6:	4585                	li	a1,1
     ca8:	4505                	li	a0,1
     caa:	33e9                	jal	a74 <RCC_APB2PeriphClockCmd>
     cac:	4585                	li	a1,1
     cae:	4509                	li	a0,2
     cb0:	32f1                	jal	67c <GPIO_PinRemapConfig>
     cb2:	4585                	li	a1,1
     cb4:	00200537          	lui	a0,0x200
     cb8:	3be9                	jal	a92 <RCC_APB1PeriphClockCmd>
     cba:	40011437          	lui	s0,0x40011
     cbe:	c0040513          	addi	a0,s0,-1024 # 40010c00 <_eusrstack+0x20000c00>
     cc2:	30000593          	li	a1,768
     cc6:	3265                	jal	66e <GPIO_SetBits>
     cc8:	10000793          	li	a5,256
     ccc:	4971                	li	s2,28
     cce:	448d                	li	s1,3
     cd0:	004c                	addi	a1,sp,4
     cd2:	c0040513          	addi	a0,s0,-1024
     cd6:	827c                	sh	a5,4(sp)
     cd8:	c64a                	sw	s2,12(sp)
     cda:	c426                	sw	s1,8(sp)
     cdc:	8c9ff0ef          	jal	ra,5a4 <GPIO_Init>
     ce0:	20000793          	li	a5,512
     ce4:	004c                	addi	a1,sp,4
     ce6:	c0040513          	addi	a0,s0,-1024
     cea:	827c                	sh	a5,4(sp)
     cec:	c64a                	sw	s2,12(sp)
     cee:	c426                	sw	s1,8(sp)
     cf0:	8b5ff0ef          	jal	ra,5a4 <GPIO_Init>
     cf4:	67e1                	lui	a5,0x18
     cf6:	6a078793          	addi	a5,a5,1696 # 186a0 <_data_lma+0x1553c>
     cfa:	c83e                	sw	a5,16(sp)
     cfc:	400007b7          	lui	a5,0x40000
     d00:	ca3e                	sw	a5,20(sp)
     d02:	040007b7          	lui	a5,0x4000
     d06:	40005437          	lui	s0,0x40005
     d0a:	0785                	addi	a5,a5,1
     d0c:	cc3e                	sw	a5,24(sp)
     d0e:	080c                	addi	a1,sp,16
     d10:	6791                	lui	a5,0x4
     d12:	40040513          	addi	a0,s0,1024 # 40005400 <_eusrstack+0x1fff5400>
     d16:	86fc                	sh	a5,28(sp)
     d18:	3c2d                	jal	752 <I2C_Init>
     d1a:	40040513          	addi	a0,s0,1024
     d1e:	4585                	li	a1,1
     d20:	363d                	jal	84e <I2C_Cmd>
     d22:	3591                	jal	b66 <ES8388_Contrl_Init>
     d24:	08000593          	li	a1,128
     d28:	4501                	li	a0,0
     d2a:	3561                	jal	bb2 <ES8388_Write_Reg>
     d2c:	4581                	li	a1,0
     d2e:	4501                	li	a0,0
     d30:	3549                	jal	bb2 <ES8388_Write_Reg>
     d32:	06400513          	li	a0,100
     d36:	2e99                	jal	108c <Delay_Ms>
     d38:	05800593          	li	a1,88
     d3c:	4505                	li	a0,1
     d3e:	3d95                	jal	bb2 <ES8388_Write_Reg>
     d40:	05000593          	li	a1,80
     d44:	4505                	li	a0,1
     d46:	35b5                	jal	bb2 <ES8388_Write_Reg>
     d48:	0f300593          	li	a1,243
     d4c:	4509                	li	a0,2
     d4e:	3595                	jal	bb2 <ES8388_Write_Reg>
     d50:	0f000593          	li	a1,240
     d54:	4509                	li	a0,2
     d56:	3db1                	jal	bb2 <ES8388_Write_Reg>
     d58:	45a5                	li	a1,9
     d5a:	450d                	li	a0,3
     d5c:	3d99                	jal	bb2 <ES8388_Write_Reg>
     d5e:	4599                	li	a1,6
     d60:	4501                	li	a0,0
     d62:	3d81                	jal	bb2 <ES8388_Write_Reg>
     d64:	4581                	li	a1,0
     d66:	4511                	li	a0,4
     d68:	35a9                	jal	bb2 <ES8388_Write_Reg>
     d6a:	4581                	li	a1,0
     d6c:	4521                	li	a0,8
     d6e:	3591                	jal	bb2 <ES8388_Write_Reg>
     d70:	08000593          	li	a1,128
     d74:	02b00513          	li	a0,43
     d78:	3d2d                	jal	bb2 <ES8388_Write_Reg>
     d7a:	08800593          	li	a1,136
     d7e:	4525                	li	a0,9
     d80:	3d0d                	jal	bb2 <ES8388_Write_Reg>
     d82:	04c00593          	li	a1,76
     d86:	4531                	li	a0,12
     d88:	352d                	jal	bb2 <ES8388_Write_Reg>
     d8a:	4589                	li	a1,2
     d8c:	4535                	li	a0,13
     d8e:	3515                	jal	bb2 <ES8388_Write_Reg>
     d90:	4581                	li	a1,0
     d92:	4541                	li	a0,16
     d94:	3d39                	jal	bb2 <ES8388_Write_Reg>
     d96:	4581                	li	a1,0
     d98:	4545                	li	a0,17
     d9a:	3d21                	jal	bb2 <ES8388_Write_Reg>
     d9c:	4581                	li	a1,0
     d9e:	4549                	li	a0,18
     da0:	3d09                	jal	bb2 <ES8388_Write_Reg>
     da2:	45e1                	li	a1,24
     da4:	455d                	li	a0,23
     da6:	3531                	jal	bb2 <ES8388_Write_Reg>
     da8:	4589                	li	a1,2
     daa:	4561                	li	a0,24
     dac:	3519                	jal	bb2 <ES8388_Write_Reg>
     dae:	4581                	li	a1,0
     db0:	4569                	li	a0,26
     db2:	3501                	jal	bb2 <ES8388_Write_Reg>
     db4:	4581                	li	a1,0
     db6:	456d                	li	a0,27
     db8:	3bed                	jal	bb2 <ES8388_Write_Reg>
     dba:	0b800593          	li	a1,184
     dbe:	02700513          	li	a0,39
     dc2:	3bc5                	jal	bb2 <ES8388_Write_Reg>
     dc4:	0b800593          	li	a1,184
     dc8:	02a00513          	li	a0,42
     dcc:	33dd                	jal	bb2 <ES8388_Write_Reg>
     dce:	06400513          	li	a0,100
     dd2:	2c6d                	jal	108c <Delay_Ms>
     dd4:	4501                	li	a0,0
     dd6:	6105                	addi	sp,sp,32
     dd8:	c3cff06f          	j	214 <__riscv_restore_0>

00000ddc <ES8388_close>:
     ddc:	c14ff2ef          	jal	t0,1f0 <__riscv_save_0>
     de0:	3d6d                	jal	c9a <ES8388_Init>
     de2:	08000593          	li	a1,128
     de6:	4501                	li	a0,0
     de8:	33e9                	jal	bb2 <ES8388_Write_Reg>
     dea:	4581                	li	a1,0
     dec:	4501                	li	a0,0
     dee:	33d1                	jal	bb2 <ES8388_Write_Reg>
     df0:	06400513          	li	a0,100
     df4:	2c61                	jal	108c <Delay_Ms>
     df6:	05d00593          	li	a1,93
     dfa:	4505                	li	a0,1
     dfc:	3b5d                	jal	bb2 <ES8388_Write_Reg>
     dfe:	45fd                	li	a1,31
     e00:	4509                	li	a0,2
     e02:	3b45                	jal	bb2 <ES8388_Write_Reg>
     e04:	0c000593          	li	a1,192
     e08:	4511                	li	a0,4
     e0a:	3365                	jal	bb2 <ES8388_Write_Reg>
     e0c:	c08ff06f          	j	214 <__riscv_restore_0>

00000e10 <LED_Init>:
     e10:	be0ff2ef          	jal	t0,1f0 <__riscv_save_0>
     e14:	1141                	addi	sp,sp,-16
     e16:	4585                	li	a1,1
     e18:	4541                	li	a0,16
     e1a:	39a9                	jal	a74 <RCC_APB2PeriphClockCmd>
     e1c:	479d                	li	a5,7
     e1e:	827c                	sh	a5,4(sp)
     e20:	47c1                	li	a5,16
     e22:	c63e                	sw	a5,12(sp)
     e24:	004c                	addi	a1,sp,4
     e26:	478d                	li	a5,3
     e28:	40011537          	lui	a0,0x40011
     e2c:	c43e                	sw	a5,8(sp)
     e2e:	f76ff0ef          	jal	ra,5a4 <GPIO_Init>
     e32:	4585                	li	a1,1
     e34:	40011537          	lui	a0,0x40011
     e38:	837ff0ef          	jal	ra,66e <GPIO_SetBits>
     e3c:	4589                	li	a1,2
     e3e:	40011537          	lui	a0,0x40011
     e42:	82dff0ef          	jal	ra,66e <GPIO_SetBits>
     e46:	4591                	li	a1,4
     e48:	40011537          	lui	a0,0x40011
     e4c:	823ff0ef          	jal	ra,66e <GPIO_SetBits>
     e50:	0141                	addi	sp,sp,16
     e52:	bc2ff06f          	j	214 <__riscv_restore_0>

00000e56 <TM1637_Init>:
     e56:	b9aff2ef          	jal	t0,1f0 <__riscv_save_0>
     e5a:	1141                	addi	sp,sp,-16
     e5c:	4585                	li	a1,1
     e5e:	04000513          	li	a0,64
     e62:	c202                	sw	zero,4(sp)
     e64:	c402                	sw	zero,8(sp)
     e66:	c602                	sw	zero,12(sp)
     e68:	3131                	jal	a74 <RCC_APB2PeriphClockCmd>
     e6a:	0c000793          	li	a5,192
     e6e:	40012437          	lui	s0,0x40012
     e72:	827c                	sh	a5,4(sp)
     e74:	47c1                	li	a5,16
     e76:	c63e                	sw	a5,12(sp)
     e78:	004c                	addi	a1,sp,4
     e7a:	478d                	li	a5,3
     e7c:	80040513          	addi	a0,s0,-2048 # 40011800 <_eusrstack+0x20001800>
     e80:	c43e                	sw	a5,8(sp)
     e82:	f22ff0ef          	jal	ra,5a4 <GPIO_Init>
     e86:	80040513          	addi	a0,s0,-2048
     e8a:	4605                	li	a2,1
     e8c:	04000593          	li	a1,64
     e90:	fe2ff0ef          	jal	ra,672 <GPIO_WriteBit>
     e94:	4605                	li	a2,1
     e96:	08000593          	li	a1,128
     e9a:	80040513          	addi	a0,s0,-2048
     e9e:	fd4ff0ef          	jal	ra,672 <GPIO_WriteBit>
     ea2:	0141                	addi	sp,sp,16
     ea4:	b70ff06f          	j	214 <__riscv_restore_0>

00000ea8 <TM1637_start>:
     ea8:	b48ff2ef          	jal	t0,1f0 <__riscv_save_0>
     eac:	40012437          	lui	s0,0x40012
     eb0:	80040513          	addi	a0,s0,-2048 # 40011800 <_eusrstack+0x20001800>
     eb4:	4605                	li	a2,1
     eb6:	04000593          	li	a1,64
     eba:	fb8ff0ef          	jal	ra,672 <GPIO_WriteBit>
     ebe:	4605                	li	a2,1
     ec0:	08000593          	li	a1,128
     ec4:	80040513          	addi	a0,s0,-2048
     ec8:	faaff0ef          	jal	ra,672 <GPIO_WriteBit>
     ecc:	4509                	li	a0,2
     ece:	2a7d                	jal	108c <Delay_Ms>
     ed0:	4601                	li	a2,0
     ed2:	08000593          	li	a1,128
     ed6:	80040513          	addi	a0,s0,-2048
     eda:	f98ff0ef          	jal	ra,672 <GPIO_WriteBit>
     ede:	b36ff06f          	j	214 <__riscv_restore_0>

00000ee2 <TM1637_ack>:
     ee2:	b0eff2ef          	jal	t0,1f0 <__riscv_save_0>
     ee6:	40012437          	lui	s0,0x40012
     eea:	4601                	li	a2,0
     eec:	04000593          	li	a1,64
     ef0:	80040513          	addi	a0,s0,-2048 # 40011800 <_eusrstack+0x20001800>
     ef4:	f7eff0ef          	jal	ra,672 <GPIO_WriteBit>
     ef8:	4509                	li	a0,2
     efa:	2a49                	jal	108c <Delay_Ms>
     efc:	4605                	li	a2,1
     efe:	80040513          	addi	a0,s0,-2048
     f02:	04000593          	li	a1,64
     f06:	f6cff0ef          	jal	ra,672 <GPIO_WriteBit>
     f0a:	08000593          	li	a1,128
     f0e:	80040513          	addi	a0,s0,-2048
     f12:	f52ff0ef          	jal	ra,664 <GPIO_ReadInputDataBit>
     f16:	84aa                	mv	s1,a0
     f18:	4509                	li	a0,2
     f1a:	2a8d                	jal	108c <Delay_Ms>
     f1c:	4601                	li	a2,0
     f1e:	04000593          	li	a1,64
     f22:	80040513          	addi	a0,s0,-2048
     f26:	f4cff0ef          	jal	ra,672 <GPIO_WriteBit>
     f2a:	4509                	li	a0,2
     f2c:	2285                	jal	108c <Delay_Ms>
     f2e:	8526                	mv	a0,s1
     f30:	ae4ff06f          	j	214 <__riscv_restore_0>

00000f34 <TM1637_stop>:
     f34:	abcff2ef          	jal	t0,1f0 <__riscv_save_0>
     f38:	40012437          	lui	s0,0x40012
     f3c:	4601                	li	a2,0
     f3e:	08000593          	li	a1,128
     f42:	80040513          	addi	a0,s0,-2048 # 40011800 <_eusrstack+0x20001800>
     f46:	f2cff0ef          	jal	ra,672 <GPIO_WriteBit>
     f4a:	4509                	li	a0,2
     f4c:	2281                	jal	108c <Delay_Ms>
     f4e:	4605                	li	a2,1
     f50:	04000593          	li	a1,64
     f54:	80040513          	addi	a0,s0,-2048
     f58:	f1aff0ef          	jal	ra,672 <GPIO_WriteBit>
     f5c:	4509                	li	a0,2
     f5e:	223d                	jal	108c <Delay_Ms>
     f60:	4605                	li	a2,1
     f62:	08000593          	li	a1,128
     f66:	80040513          	addi	a0,s0,-2048
     f6a:	f08ff0ef          	jal	ra,672 <GPIO_WriteBit>
     f6e:	4509                	li	a0,2
     f70:	2a31                	jal	108c <Delay_Ms>
     f72:	aa2ff06f          	j	214 <__riscv_restore_0>

00000f76 <TM1637_Write>:
     f76:	a7aff2ef          	jal	t0,1f0 <__riscv_save_0>
     f7a:	40012437          	lui	s0,0x40012
     f7e:	892a                	mv	s2,a0
     f80:	44a1                	li	s1,8
     f82:	80040413          	addi	s0,s0,-2048 # 40011800 <_eusrstack+0x20001800>
     f86:	4601                	li	a2,0
     f88:	04000593          	li	a1,64
     f8c:	8522                	mv	a0,s0
     f8e:	ee4ff0ef          	jal	ra,672 <GPIO_WriteBit>
     f92:	00197793          	andi	a5,s2,1
     f96:	4605                	li	a2,1
     f98:	e391                	bnez	a5,f9c <TM1637_Write+0x26>
     f9a:	4601                	li	a2,0
     f9c:	08000593          	li	a1,128
     fa0:	8522                	mv	a0,s0
     fa2:	ed0ff0ef          	jal	ra,672 <GPIO_WriteBit>
     fa6:	4509                	li	a0,2
     fa8:	20d5                	jal	108c <Delay_Ms>
     faa:	4605                	li	a2,1
     fac:	04000593          	li	a1,64
     fb0:	8522                	mv	a0,s0
     fb2:	ec0ff0ef          	jal	ra,672 <GPIO_WriteBit>
     fb6:	14fd                	addi	s1,s1,-1
     fb8:	4509                	li	a0,2
     fba:	0ff4f493          	andi	s1,s1,255
     fbe:	00195913          	srli	s2,s2,0x1
     fc2:	20e9                	jal	108c <Delay_Ms>
     fc4:	f0e9                	bnez	s1,f86 <TM1637_Write+0x10>
     fc6:	a4eff06f          	j	214 <__riscv_restore_0>

00000fca <TM1637_Display>:
     fca:	a26ff2ef          	jal	t0,1f0 <__riscv_save_0>
     fce:	1101                	addi	sp,sp,-32
     fd0:	c442                	sw	a6,8(sp)
     fd2:	c246                	sw	a7,4(sp)
     fd4:	c83a                	sw	a4,16(sp)
     fd6:	c63e                	sw	a5,12(sp)
     fd8:	cc32                	sw	a2,24(sp)
     fda:	ca36                	sw	a3,20(sp)
     fdc:	ce2e                	sw	a1,28(sp)
     fde:	84aa                	mv	s1,a0
     fe0:	35e1                	jal	ea8 <TM1637_start>
     fe2:	04000513          	li	a0,64
     fe6:	3f41                	jal	f76 <TM1637_Write>
     fe8:	3ded                	jal	ee2 <TM1637_ack>
     fea:	37a9                	jal	f34 <TM1637_stop>
     fec:	3d75                	jal	ea8 <TM1637_start>
     fee:	0c000513          	li	a0,192
     ff2:	3751                	jal	f76 <TM1637_Write>
     ff4:	20000437          	lui	s0,0x20000
     ff8:	35ed                	jal	ee2 <TM1637_ack>
     ffa:	02040413          	addi	s0,s0,32 # 20000020 <tab>
     ffe:	94a2                	add	s1,s1,s0
    1000:	45f2                	lw	a1,28(sp)
    1002:	2088                	lbu	a0,0(s1)
    1004:	059e                	slli	a1,a1,0x7
    1006:	8d4d                	or	a0,a0,a1
    1008:	0ff57513          	andi	a0,a0,255
    100c:	37ad                	jal	f76 <TM1637_Write>
    100e:	3dd1                	jal	ee2 <TM1637_ack>
    1010:	4662                	lw	a2,24(sp)
    1012:	46d2                	lw	a3,20(sp)
    1014:	9622                	add	a2,a2,s0
    1016:	2208                	lbu	a0,0(a2)
    1018:	069e                	slli	a3,a3,0x7
    101a:	8d55                	or	a0,a0,a3
    101c:	0ff57513          	andi	a0,a0,255
    1020:	3f99                	jal	f76 <TM1637_Write>
    1022:	35c1                	jal	ee2 <TM1637_ack>
    1024:	4742                	lw	a4,16(sp)
    1026:	47b2                	lw	a5,12(sp)
    1028:	9722                	add	a4,a4,s0
    102a:	2308                	lbu	a0,0(a4)
    102c:	079e                	slli	a5,a5,0x7
    102e:	8d5d                	or	a0,a0,a5
    1030:	0ff57513          	andi	a0,a0,255
    1034:	3789                	jal	f76 <TM1637_Write>
    1036:	3575                	jal	ee2 <TM1637_ack>
    1038:	4822                	lw	a6,8(sp)
    103a:	4892                	lw	a7,4(sp)
    103c:	9442                	add	s0,s0,a6
    103e:	2008                	lbu	a0,0(s0)
    1040:	089e                	slli	a7,a7,0x7
    1042:	00a8e533          	or	a0,a7,a0
    1046:	0ff57513          	andi	a0,a0,255
    104a:	3735                	jal	f76 <TM1637_Write>
    104c:	3d59                	jal	ee2 <TM1637_ack>
    104e:	35dd                	jal	f34 <TM1637_stop>
    1050:	3da1                	jal	ea8 <TM1637_start>
    1052:	08900513          	li	a0,137
    1056:	3705                	jal	f76 <TM1637_Write>
    1058:	3569                	jal	ee2 <TM1637_ack>
    105a:	3de9                	jal	f34 <TM1637_stop>
    105c:	6105                	addi	sp,sp,32
    105e:	9b6ff06f          	j	214 <__riscv_restore_0>

00001062 <Delay_Init>:
    1062:	200007b7          	lui	a5,0x20000
    1066:	0387a783          	lw	a5,56(a5) # 20000038 <SystemCoreClock>
    106a:	007a1737          	lui	a4,0x7a1
    106e:	20070713          	addi	a4,a4,512 # 7a1200 <_data_lma+0x79e09c>
    1072:	02e7d7b3          	divu	a5,a5,a4
    1076:	0ff7f793          	andi	a5,a5,255
    107a:	80f18b23          	sb	a5,-2026(gp) # 2000004e <p_us>
    107e:	3e800713          	li	a4,1000
    1082:	02e787b3          	mul	a5,a5,a4
    1086:	80f19a23          	sh	a5,-2028(gp) # 2000004c <p_ms>
    108a:	8082                	ret

0000108c <Delay_Ms>:
    108c:	e000f7b7          	lui	a5,0xe000f
    1090:	43d8                	lw	a4,4(a5)
    1092:	4681                	li	a3,0
    1094:	9b79                	andi	a4,a4,-2
    1096:	c3d8                	sw	a4,4(a5)
    1098:	8141d703          	lhu	a4,-2028(gp) # 2000004c <p_ms>
    109c:	02a70633          	mul	a2,a4,a0
    10a0:	cb90                	sw	a2,16(a5)
    10a2:	cbd4                	sw	a3,20(a5)
    10a4:	4398                	lw	a4,0(a5)
    10a6:	01076713          	ori	a4,a4,16
    10aa:	c398                	sw	a4,0(a5)
    10ac:	4398                	lw	a4,0(a5)
    10ae:	02176713          	ori	a4,a4,33
    10b2:	c398                	sw	a4,0(a5)
    10b4:	43d8                	lw	a4,4(a5)
    10b6:	8b05                	andi	a4,a4,1
    10b8:	df75                	beqz	a4,10b4 <Delay_Ms+0x28>
    10ba:	4398                	lw	a4,0(a5)
    10bc:	9b79                	andi	a4,a4,-2
    10be:	c398                	sw	a4,0(a5)
    10c0:	8082                	ret

000010c2 <USART_Printf_Init>:
    10c2:	92eff2ef          	jal	t0,1f0 <__riscv_save_0>
    10c6:	842a                	mv	s0,a0
    10c8:	6511                	lui	a0,0x4
    10ca:	1101                	addi	sp,sp,-32
    10cc:	4585                	li	a1,1
    10ce:	0511                	addi	a0,a0,4
    10d0:	9a5ff0ef          	jal	ra,a74 <RCC_APB2PeriphClockCmd>
    10d4:	20000793          	li	a5,512
    10d8:	827c                	sh	a5,4(sp)
    10da:	40011537          	lui	a0,0x40011
    10de:	478d                	li	a5,3
    10e0:	c43e                	sw	a5,8(sp)
    10e2:	004c                	addi	a1,sp,4
    10e4:	47e1                	li	a5,24
    10e6:	80050513          	addi	a0,a0,-2048 # 40010800 <_eusrstack+0x20000800>
    10ea:	c63e                	sw	a5,12(sp)
    10ec:	cb8ff0ef          	jal	ra,5a4 <GPIO_Init>
    10f0:	c822                	sw	s0,16(sp)
    10f2:	40014437          	lui	s0,0x40014
    10f6:	000807b7          	lui	a5,0x80
    10fa:	080c                	addi	a1,sp,16
    10fc:	80040513          	addi	a0,s0,-2048 # 40013800 <_eusrstack+0x20003800>
    1100:	cc3e                	sw	a5,24(sp)
    1102:	ca02                	sw	zero,20(sp)
    1104:	00011e23          	sh	zero,28(sp)
    1108:	9a9ff0ef          	jal	ra,ab0 <USART_Init>
    110c:	4585                	li	a1,1
    110e:	80040513          	addi	a0,s0,-2048
    1112:	a2dff0ef          	jal	ra,b3e <USART_Cmd>
    1116:	6105                	addi	sp,sp,32
    1118:	8fcff06f          	j	214 <__riscv_restore_0>

0000111c <_write>:
    111c:	8baff2ef          	jal	t0,1d6 <__riscv_save_4>
    1120:	400144b7          	lui	s1,0x40014
    1124:	89ae                	mv	s3,a1
    1126:	8932                	mv	s2,a2
    1128:	4401                	li	s0,0
    112a:	80048493          	addi	s1,s1,-2048 # 40013800 <_eusrstack+0x20003800>
    112e:	01244563          	blt	s0,s2,1138 <_write+0x1c>
    1132:	854a                	mv	a0,s2
    1134:	8d6ff06f          	j	20a <__riscv_restore_4>
    1138:	04000593          	li	a1,64
    113c:	8526                	mv	a0,s1
    113e:	a1fff0ef          	jal	ra,b5c <USART_GetFlagStatus>
    1142:	d97d                	beqz	a0,1138 <_write+0x1c>
    1144:	008987b3          	add	a5,s3,s0
    1148:	00078583          	lb	a1,0(a5) # 80000 <_data_lma+0x7ce9c>
    114c:	8526                	mv	a0,s1
    114e:	0405                	addi	s0,s0,1
    1150:	05c2                	slli	a1,a1,0x10
    1152:	81c1                	srli	a1,a1,0x10
    1154:	a01ff0ef          	jal	ra,b54 <USART_SendData>
    1158:	bfd9                	j	112e <_write+0x12>

0000115a <printchar>:
    115a:	1101                	addi	sp,sp,-32
    115c:	ce06                	sw	ra,28(sp)
    115e:	c62e                	sw	a1,12(sp)
    1160:	cd0d                	beqz	a0,119a <printchar+0x40>
    1162:	4118                	lw	a4,0(a0)
    1164:	87aa                	mv	a5,a0
    1166:	c305                	beqz	a4,1186 <printchar+0x2c>
    1168:	4158                	lw	a4,4(a0)
    116a:	557d                	li	a0,-1
    116c:	cb11                	beqz	a4,1180 <printchar+0x26>
    116e:	4685                	li	a3,1
    1170:	00d71b63          	bne	a4,a3,1186 <printchar+0x2c>
    1174:	4798                	lw	a4,8(a5)
    1176:	00070023          	sb	zero,0(a4)
    117a:	0007a223          	sw	zero,4(a5)
    117e:	4505                	li	a0,1
    1180:	40f2                	lw	ra,28(sp)
    1182:	6105                	addi	sp,sp,32
    1184:	8082                	ret
    1186:	4798                	lw	a4,8(a5)
    1188:	46b2                	lw	a3,12(sp)
    118a:	a314                	sb	a3,0(a4)
    118c:	4798                	lw	a4,8(a5)
    118e:	0705                	addi	a4,a4,1
    1190:	c798                	sw	a4,8(a5)
    1192:	43d8                	lw	a4,4(a5)
    1194:	177d                	addi	a4,a4,-1
    1196:	c3d8                	sw	a4,4(a5)
    1198:	b7dd                	j	117e <printchar+0x24>
    119a:	4605                	li	a2,1
    119c:	006c                	addi	a1,sp,12
    119e:	3fbd                	jal	111c <_write>
    11a0:	bff9                	j	117e <printchar+0x24>

000011a2 <prints>:
    11a2:	7179                	addi	sp,sp,-48
    11a4:	d422                	sw	s0,40(sp)
    11a6:	d226                	sw	s1,36(sp)
    11a8:	ce4e                	sw	s3,28(sp)
    11aa:	cc52                	sw	s4,24(sp)
    11ac:	ca56                	sw	s5,20(sp)
    11ae:	d606                	sw	ra,44(sp)
    11b0:	d04a                	sw	s2,32(sp)
    11b2:	c85a                	sw	s6,16(sp)
    11b4:	8a2a                	mv	s4,a0
    11b6:	8aae                	mv	s5,a1
    11b8:	8432                	mv	s0,a2
    11ba:	4481                	li	s1,0
    11bc:	02000993          	li	s3,32
    11c0:	02064463          	bltz	a2,11e8 <prints+0x46>
    11c4:	009a87b3          	add	a5,s5,s1
    11c8:	00078783          	lb	a5,0(a5)
    11cc:	e39d                	bnez	a5,11f2 <prints+0x50>
    11ce:	0284d663          	bge	s1,s0,11fa <prints+0x58>
    11d2:	02e4d263          	bge	s1,a4,11f6 <prints+0x54>
    11d6:	8c19                	sub	s0,s0,a4
    11d8:	0026f793          	andi	a5,a3,2
    11dc:	02000993          	li	s3,32
    11e0:	c781                	beqz	a5,11e8 <prints+0x46>
    11e2:	e319                	bnez	a4,11e8 <prints+0x46>
    11e4:	03000993          	li	s3,48
    11e8:	8a85                	andi	a3,a3,1
    11ea:	4901                	li	s2,0
    11ec:	e69d                	bnez	a3,121a <prints+0x78>
    11ee:	8922                	mv	s2,s0
    11f0:	a829                	j	120a <prints+0x68>
    11f2:	0485                	addi	s1,s1,1
    11f4:	bfc1                	j	11c4 <prints+0x22>
    11f6:	8c05                	sub	s0,s0,s1
    11f8:	b7c5                	j	11d8 <prints+0x36>
    11fa:	4401                	li	s0,0
    11fc:	bff1                	j	11d8 <prints+0x36>
    11fe:	85ce                	mv	a1,s3
    1200:	8552                	mv	a0,s4
    1202:	c63a                	sw	a4,12(sp)
    1204:	3f99                	jal	115a <printchar>
    1206:	4732                	lw	a4,12(sp)
    1208:	197d                	addi	s2,s2,-1
    120a:	ff204ae3          	bgtz	s2,11fe <prints+0x5c>
    120e:	8922                	mv	s2,s0
    1210:	00045363          	bgez	s0,1216 <prints+0x74>
    1214:	4901                	li	s2,0
    1216:	41240433          	sub	s0,s0,s2
    121a:	02e4cb63          	blt	s1,a4,1250 <prints+0xae>
    121e:	84ca                	mv	s1,s2
    1220:	412487b3          	sub	a5,s1,s2
    1224:	97d6                	add	a5,a5,s5
    1226:	00078583          	lb	a1,0(a5)
    122a:	ed9d                	bnez	a1,1268 <prints+0xc6>
    122c:	8922                	mv	s2,s0
    122e:	05204163          	bgtz	s2,1270 <prints+0xce>
    1232:	00045363          	bgez	s0,1238 <prints+0x96>
    1236:	4401                	li	s0,0
    1238:	00940533          	add	a0,s0,s1
    123c:	50b2                	lw	ra,44(sp)
    123e:	5422                	lw	s0,40(sp)
    1240:	5492                	lw	s1,36(sp)
    1242:	5902                	lw	s2,32(sp)
    1244:	49f2                	lw	s3,28(sp)
    1246:	4a62                	lw	s4,24(sp)
    1248:	4ad2                	lw	s5,20(sp)
    124a:	4b42                	lw	s6,16(sp)
    124c:	6145                	addi	sp,sp,48
    124e:	8082                	ret
    1250:	409704b3          	sub	s1,a4,s1
    1254:	8b26                	mv	s6,s1
    1256:	03000593          	li	a1,48
    125a:	8552                	mv	a0,s4
    125c:	1b7d                	addi	s6,s6,-1
    125e:	3df5                	jal	115a <printchar>
    1260:	fe0b1be3          	bnez	s6,1256 <prints+0xb4>
    1264:	9926                	add	s2,s2,s1
    1266:	bf65                	j	121e <prints+0x7c>
    1268:	8552                	mv	a0,s4
    126a:	3dc5                	jal	115a <printchar>
    126c:	0485                	addi	s1,s1,1
    126e:	bf4d                	j	1220 <prints+0x7e>
    1270:	85ce                	mv	a1,s3
    1272:	8552                	mv	a0,s4
    1274:	35dd                	jal	115a <printchar>
    1276:	197d                	addi	s2,s2,-1
    1278:	bf5d                	j	122e <prints+0x8c>

0000127a <printInt>:
    127a:	715d                	addi	sp,sp,-80
    127c:	c2a6                	sw	s1,68(sp)
    127e:	dc52                	sw	s4,56(sp)
    1280:	c686                	sw	ra,76(sp)
    1282:	c4a2                	sw	s0,72(sp)
    1284:	c0ca                	sw	s2,64(sp)
    1286:	de4e                	sw	s3,60(sp)
    1288:	da56                	sw	s5,52(sp)
    128a:	84ba                	mv	s1,a4
    128c:	8a3e                	mv	s4,a5
    128e:	e195                	bnez	a1,12b2 <printInt+0x38>
    1290:	03000793          	li	a5,48
    1294:	4701                	li	a4,0
    1296:	86d2                	mv	a3,s4
    1298:	8626                	mv	a2,s1
    129a:	082c                	addi	a1,sp,24
    129c:	84fc                	sh	a5,24(sp)
    129e:	3711                	jal	11a2 <prints>
    12a0:	40b6                	lw	ra,76(sp)
    12a2:	4426                	lw	s0,72(sp)
    12a4:	4496                	lw	s1,68(sp)
    12a6:	4906                	lw	s2,64(sp)
    12a8:	59f2                	lw	s3,60(sp)
    12aa:	5a62                	lw	s4,56(sp)
    12ac:	5ad2                	lw	s5,52(sp)
    12ae:	6161                	addi	sp,sp,80
    12b0:	8082                	ret
    12b2:	892a                	mv	s2,a0
    12b4:	8436                	mv	s0,a3
    12b6:	8ac6                	mv	s5,a7
    12b8:	ca91                	beqz	a3,12cc <printInt+0x52>
    12ba:	47a9                	li	a5,10
    12bc:	4401                	li	s0,0
    12be:	00f61763          	bne	a2,a5,12cc <printInt+0x52>
    12c2:	0005d563          	bgez	a1,12cc <printInt+0x52>
    12c6:	40b005b3          	neg	a1,a1
    12ca:	4405                	li	s0,1
    12cc:	020107a3          	sb	zero,47(sp)
    12d0:	02f10793          	addi	a5,sp,47
    12d4:	46a5                	li	a3,9
    12d6:	fc680513          	addi	a0,a6,-58
    12da:	02c5f733          	remu	a4,a1,a2
    12de:	00e6d363          	bge	a3,a4,12e4 <printInt+0x6a>
    12e2:	972a                	add	a4,a4,a0
    12e4:	03070713          	addi	a4,a4,48
    12e8:	fee78fa3          	sb	a4,-1(a5)
    12ec:	fff78993          	addi	s3,a5,-1
    12f0:	02c5d733          	divu	a4,a1,a2
    12f4:	04c5f763          	bgeu	a1,a2,1342 <printInt+0xc8>
    12f8:	cc01                	beqz	s0,1310 <printInt+0x96>
    12fa:	c4b9                	beqz	s1,1348 <printInt+0xce>
    12fc:	002a7713          	andi	a4,s4,2
    1300:	c721                	beqz	a4,1348 <printInt+0xce>
    1302:	02d00593          	li	a1,45
    1306:	854a                	mv	a0,s2
    1308:	c642                	sw	a6,12(sp)
    130a:	3d81                	jal	115a <printchar>
    130c:	4832                	lw	a6,12(sp)
    130e:	14fd                	addi	s1,s1,-1
    1310:	004a7793          	andi	a5,s4,4
    1314:	cf99                	beqz	a5,1332 <printInt+0xb8>
    1316:	06100793          	li	a5,97
    131a:	03000593          	li	a1,48
    131e:	854a                	mv	a0,s2
    1320:	02f81c63          	bne	a6,a5,1358 <printInt+0xde>
    1324:	3d1d                	jal	115a <printchar>
    1326:	07800593          	li	a1,120
    132a:	854a                	mv	a0,s2
    132c:	353d                	jal	115a <printchar>
    132e:	0409                	addi	s0,s0,2
    1330:	14f9                	addi	s1,s1,-2
    1332:	8756                	mv	a4,s5
    1334:	86d2                	mv	a3,s4
    1336:	8626                	mv	a2,s1
    1338:	85ce                	mv	a1,s3
    133a:	854a                	mv	a0,s2
    133c:	359d                	jal	11a2 <prints>
    133e:	9522                	add	a0,a0,s0
    1340:	b785                	j	12a0 <printInt+0x26>
    1342:	85ba                	mv	a1,a4
    1344:	87ce                	mv	a5,s3
    1346:	bf51                	j	12da <printInt+0x60>
    1348:	02d00713          	li	a4,45
    134c:	fee98fa3          	sb	a4,-1(s3)
    1350:	4401                	li	s0,0
    1352:	ffe78993          	addi	s3,a5,-2
    1356:	bf6d                	j	1310 <printInt+0x96>
    1358:	3509                	jal	115a <printchar>
    135a:	05800593          	li	a1,88
    135e:	b7f1                	j	132a <printInt+0xb0>

00001360 <printLongLongInt>:
    1360:	711d                	addi	sp,sp,-96
    1362:	c8ca                	sw	s2,80(sp)
    1364:	c6ce                	sw	s3,76(sp)
    1366:	c2d6                	sw	s5,68(sp)
    1368:	c0da                	sw	s6,64(sp)
    136a:	893a                	mv	s2,a4
    136c:	ce86                	sw	ra,92(sp)
    136e:	cca2                	sw	s0,88(sp)
    1370:	caa6                	sw	s1,84(sp)
    1372:	c4d2                	sw	s4,72(sp)
    1374:	de5e                	sw	s7,60(sp)
    1376:	dc62                	sw	s8,56(sp)
    1378:	da66                	sw	s9,52(sp)
    137a:	d86a                	sw	s10,48(sp)
    137c:	d66e                	sw	s11,44(sp)
    137e:	00c5e733          	or	a4,a1,a2
    1382:	89be                	mv	s3,a5
    1384:	8aaa                	mv	s5,a0
    1386:	8b42                	mv	s6,a6
    1388:	06014783          	lbu	a5,96(sp)
    138c:	e329                	bnez	a4,13ce <printLongLongInt+0x6e>
    138e:	cf85                	beqz	a5,13c6 <printLongLongInt+0x66>
    1390:	678d                	lui	a5,0x3
    1392:	02d78793          	addi	a5,a5,45 # 302d <__clzsi2+0xc1>
    1396:	847c                	sh	a5,8(sp)
    1398:	00010523          	sb	zero,10(sp)
    139c:	4701                	li	a4,0
    139e:	86da                	mv	a3,s6
    13a0:	864e                	mv	a2,s3
    13a2:	002c                	addi	a1,sp,8
    13a4:	8556                	mv	a0,s5
    13a6:	3bf5                	jal	11a2 <prints>
    13a8:	40f6                	lw	ra,92(sp)
    13aa:	4466                	lw	s0,88(sp)
    13ac:	44d6                	lw	s1,84(sp)
    13ae:	4946                	lw	s2,80(sp)
    13b0:	49b6                	lw	s3,76(sp)
    13b2:	4a26                	lw	s4,72(sp)
    13b4:	4a96                	lw	s5,68(sp)
    13b6:	4b06                	lw	s6,64(sp)
    13b8:	5bf2                	lw	s7,60(sp)
    13ba:	5c62                	lw	s8,56(sp)
    13bc:	5cd2                	lw	s9,52(sp)
    13be:	5d42                	lw	s10,48(sp)
    13c0:	5db2                	lw	s11,44(sp)
    13c2:	6125                	addi	sp,sp,96
    13c4:	8082                	ret
    13c6:	03000793          	li	a5,48
    13ca:	847c                	sh	a5,8(sp)
    13cc:	bfc1                	j	139c <printLongLongInt+0x3c>
    13ce:	8a36                	mv	s4,a3
    13d0:	84ae                	mv	s1,a1
    13d2:	8432                	mv	s0,a2
    13d4:	02090063          	beqz	s2,13f4 <printLongLongInt+0x94>
    13d8:	47a9                	li	a5,10
    13da:	4901                	li	s2,0
    13dc:	00f69c63          	bne	a3,a5,13f4 <printLongLongInt+0x94>
    13e0:	00065a63          	bgez	a2,13f4 <printLongLongInt+0x94>
    13e4:	40b004b3          	neg	s1,a1
    13e8:	009037b3          	snez	a5,s1
    13ec:	40c00433          	neg	s0,a2
    13f0:	8c1d                	sub	s0,s0,a5
    13f2:	4905                	li	s2,1
    13f4:	00010fa3          	sb	zero,31(sp)
    13f8:	01f10d13          	addi	s10,sp,31
    13fc:	41fa5d93          	srai	s11,s4,0x1f
    1400:	4ca5                	li	s9,9
    1402:	fc688c13          	addi	s8,a7,-58
    1406:	8652                	mv	a2,s4
    1408:	86ee                	mv	a3,s11
    140a:	8526                	mv	a0,s1
    140c:	85a2                	mv	a1,s0
    140e:	0bd000ef          	jal	ra,1cca <__umoddi3>
    1412:	00acd363          	bge	s9,a0,1418 <printLongLongInt+0xb8>
    1416:	9562                	add	a0,a0,s8
    1418:	03050513          	addi	a0,a0,48
    141c:	fead0fa3          	sb	a0,-1(s10)
    1420:	8652                	mv	a2,s4
    1422:	86ee                	mv	a3,s11
    1424:	8526                	mv	a0,s1
    1426:	85a2                	mv	a1,s0
    1428:	fffd0b93          	addi	s7,s10,-1
    142c:	2331                	jal	1938 <__udivdi3>
    142e:	01b46663          	bltu	s0,s11,143a <printLongLongInt+0xda>
    1432:	028d9863          	bne	s11,s0,1462 <printLongLongInt+0x102>
    1436:	0344f663          	bgeu	s1,s4,1462 <printLongLongInt+0x102>
    143a:	00090c63          	beqz	s2,1452 <printLongLongInt+0xf2>
    143e:	02098663          	beqz	s3,146a <printLongLongInt+0x10a>
    1442:	002b7793          	andi	a5,s6,2
    1446:	c395                	beqz	a5,146a <printLongLongInt+0x10a>
    1448:	02d00593          	li	a1,45
    144c:	8556                	mv	a0,s5
    144e:	3331                	jal	115a <printchar>
    1450:	19fd                	addi	s3,s3,-1
    1452:	4701                	li	a4,0
    1454:	86da                	mv	a3,s6
    1456:	864e                	mv	a2,s3
    1458:	85de                	mv	a1,s7
    145a:	8556                	mv	a0,s5
    145c:	3399                	jal	11a2 <prints>
    145e:	954a                	add	a0,a0,s2
    1460:	b7a1                	j	13a8 <printLongLongInt+0x48>
    1462:	84aa                	mv	s1,a0
    1464:	842e                	mv	s0,a1
    1466:	8d5e                	mv	s10,s7
    1468:	bf79                	j	1406 <printLongLongInt+0xa6>
    146a:	02d00793          	li	a5,45
    146e:	fefb8fa3          	sb	a5,-1(s7)
    1472:	4901                	li	s2,0
    1474:	ffed0b93          	addi	s7,s10,-2
    1478:	bfe9                	j	1452 <printLongLongInt+0xf2>

0000147a <printDouble>:
    147a:	715d                	addi	sp,sp,-80
    147c:	c2a6                	sw	s1,68(sp)
    147e:	c0ca                	sw	s2,64(sp)
    1480:	84aa                	mv	s1,a0
    1482:	892e                	mv	s2,a1
    1484:	852e                	mv	a0,a1
    1486:	85b2                	mv	a1,a2
    1488:	c686                	sw	ra,76(sp)
    148a:	ce3a                	sw	a4,28(sp)
    148c:	cc42                	sw	a6,24(sp)
    148e:	c4a2                	sw	s0,72(sp)
    1490:	de4e                	sw	s3,60(sp)
    1492:	dc52                	sw	s4,56(sp)
    1494:	89b2                	mv	s3,a2
    1496:	8a36                	mv	s4,a3
    1498:	da56                	sw	s5,52(sp)
    149a:	d85a                	sw	s6,48(sp)
    149c:	8abe                	mv	s5,a5
    149e:	d65e                	sw	s7,44(sp)
    14a0:	d462                	sw	s8,40(sp)
    14a2:	d266                	sw	s9,36(sp)
    14a4:	8c46                	mv	s8,a7
    14a6:	d06a                	sw	s10,32(sp)
    14a8:	057010ef          	jal	ra,2cfe <__fixdfdi>
    14ac:	8b2a                	mv	s6,a0
    14ae:	8bae                	mv	s7,a1
    14b0:	4601                	li	a2,0
    14b2:	4681                	li	a3,0
    14b4:	85ce                	mv	a1,s3
    14b6:	854a                	mv	a0,s2
    14b8:	39d000ef          	jal	ra,2054 <__ledf2>
    14bc:	4772                	lw	a4,28(sp)
    14be:	4862                	lw	a6,24(sp)
    14c0:	817d                	srli	a0,a0,0x1f
    14c2:	87ba                	mv	a5,a4
    14c4:	c02a                	sw	a0,0(sp)
    14c6:	4705                	li	a4,1
    14c8:	88e2                	mv	a7,s8
    14ca:	86d2                	mv	a3,s4
    14cc:	85da                	mv	a1,s6
    14ce:	865e                	mv	a2,s7
    14d0:	8526                	mv	a0,s1
    14d2:	3579                	jal	1360 <printLongLongInt>
    14d4:	8d2a                	mv	s10,a0
    14d6:	02e00593          	li	a1,46
    14da:	8526                	mv	a0,s1
    14dc:	39bd                	jal	115a <printchar>
    14de:	0d05                	addi	s10,s10,1
    14e0:	4781                	li	a5,0
    14e2:	4c85                	li	s9,1
    14e4:	4401                	li	s0,0
    14e6:	4729                	li	a4,10
    14e8:	0757cd63          	blt	a5,s5,1562 <printDouble+0xe8>
    14ec:	855a                	mv	a0,s6
    14ee:	85de                	mv	a1,s7
    14f0:	0cb010ef          	jal	ra,2dba <__floatdidf>
    14f4:	862a                	mv	a2,a0
    14f6:	86ae                	mv	a3,a1
    14f8:	854a                	mv	a0,s2
    14fa:	85ce                	mv	a1,s3
    14fc:	0c6010ef          	jal	ra,25c2 <__subdf3>
    1500:	892a                	mv	s2,a0
    1502:	89ae                	mv	s3,a1
    1504:	8566                	mv	a0,s9
    1506:	85a2                	mv	a1,s0
    1508:	0b3010ef          	jal	ra,2dba <__floatdidf>
    150c:	862a                	mv	a2,a0
    150e:	86ae                	mv	a3,a1
    1510:	854a                	mv	a0,s2
    1512:	85ce                	mv	a1,s3
    1514:	3f7000ef          	jal	ra,210a <__muldf3>
    1518:	7e6010ef          	jal	ra,2cfe <__fixdfdi>
    151c:	41f5d613          	srai	a2,a1,0x1f
    1520:	8d31                	xor	a0,a0,a2
    1522:	00b647b3          	xor	a5,a2,a1
    1526:	40c505b3          	sub	a1,a0,a2
    152a:	00b53533          	sltu	a0,a0,a1
    152e:	40c78633          	sub	a2,a5,a2
    1532:	c002                	sw	zero,0(sp)
    1534:	88e2                	mv	a7,s8
    1536:	87d6                	mv	a5,s5
    1538:	86d2                	mv	a3,s4
    153a:	8e09                	sub	a2,a2,a0
    153c:	4809                	li	a6,2
    153e:	8526                	mv	a0,s1
    1540:	4705                	li	a4,1
    1542:	3d39                	jal	1360 <printLongLongInt>
    1544:	40b6                	lw	ra,76(sp)
    1546:	4426                	lw	s0,72(sp)
    1548:	956a                	add	a0,a0,s10
    154a:	4496                	lw	s1,68(sp)
    154c:	4906                	lw	s2,64(sp)
    154e:	59f2                	lw	s3,60(sp)
    1550:	5a62                	lw	s4,56(sp)
    1552:	5ad2                	lw	s5,52(sp)
    1554:	5b42                	lw	s6,48(sp)
    1556:	5bb2                	lw	s7,44(sp)
    1558:	5c22                	lw	s8,40(sp)
    155a:	5c92                	lw	s9,36(sp)
    155c:	5d02                	lw	s10,32(sp)
    155e:	6161                	addi	sp,sp,80
    1560:	8082                	ret
    1562:	028706b3          	mul	a3,a4,s0
    1566:	0785                	addi	a5,a5,1
    1568:	03973433          	mulhu	s0,a4,s9
    156c:	03970cb3          	mul	s9,a4,s9
    1570:	9436                	add	s0,s0,a3
    1572:	bf9d                	j	14e8 <printDouble+0x6e>

00001574 <print>:
    1574:	715d                	addi	sp,sp,-80
    1576:	d85a                	sw	s6,48(sp)
    1578:	00003b37          	lui	s6,0x3
    157c:	c4a2                	sw	s0,72(sp)
    157e:	c2a6                	sw	s1,68(sp)
    1580:	c0ca                	sw	s2,64(sp)
    1582:	de4e                	sw	s3,60(sp)
    1584:	dc52                	sw	s4,56(sp)
    1586:	da56                	sw	s5,52(sp)
    1588:	d65e                	sw	s7,44(sp)
    158a:	d462                	sw	s8,40(sp)
    158c:	c686                	sw	ra,76(sp)
    158e:	d266                	sw	s9,36(sp)
    1590:	89aa                	mv	s3,a0
    1592:	892e                	mv	s2,a1
    1594:	8432                	mv	s0,a2
    1596:	4a01                	li	s4,0
    1598:	4481                	li	s1,0
    159a:	02500b93          	li	s7,37
    159e:	02b00a93          	li	s5,43
    15a2:	4c29                	li	s8,10
    15a4:	01cb0b13          	addi	s6,s6,28 # 301c <__clzsi2+0xb0>
    15a8:	00090583          	lb	a1,0(s2)
    15ac:	e58d                	bnez	a1,15d6 <print+0x62>
    15ae:	00098663          	beqz	s3,15ba <print+0x46>
    15b2:	4581                	li	a1,0
    15b4:	854e                	mv	a0,s3
    15b6:	ba5ff0ef          	jal	ra,115a <printchar>
    15ba:	40b6                	lw	ra,76(sp)
    15bc:	4426                	lw	s0,72(sp)
    15be:	8526                	mv	a0,s1
    15c0:	4906                	lw	s2,64(sp)
    15c2:	4496                	lw	s1,68(sp)
    15c4:	59f2                	lw	s3,60(sp)
    15c6:	5a62                	lw	s4,56(sp)
    15c8:	5ad2                	lw	s5,52(sp)
    15ca:	5b42                	lw	s6,48(sp)
    15cc:	5bb2                	lw	s7,44(sp)
    15ce:	5c22                	lw	s8,40(sp)
    15d0:	5c92                	lw	s9,36(sp)
    15d2:	6161                	addi	sp,sp,80
    15d4:	8082                	ret
    15d6:	01758863          	beq	a1,s7,15e6 <print+0x72>
    15da:	854e                	mv	a0,s3
    15dc:	b7fff0ef          	jal	ra,115a <printchar>
    15e0:	0485                	addi	s1,s1,1
    15e2:	0905                	addi	s2,s2,1
    15e4:	b7d1                	j	15a8 <print+0x34>
    15e6:	00190783          	lb	a5,1(s2)
    15ea:	00190c93          	addi	s9,s2,1
    15ee:	01779a63          	bne	a5,s7,1602 <print+0x8e>
    15f2:	02500593          	li	a1,37
    15f6:	854e                	mv	a0,s3
    15f8:	b63ff0ef          	jal	ra,115a <printchar>
    15fc:	0485                	addi	s1,s1,1
    15fe:	8966                	mv	s2,s9
    1600:	b7cd                	j	15e2 <print+0x6e>
    1602:	d7d5                	beqz	a5,15ae <print+0x3a>
    1604:	05578763          	beq	a5,s5,1652 <print+0xde>
    1608:	00fac863          	blt	s5,a5,1618 <print+0xa4>
    160c:	02300713          	li	a4,35
    1610:	04e78463          	beq	a5,a4,1658 <print+0xe4>
    1614:	4781                	li	a5,0
    1616:	a005                	j	1636 <print+0xc2>
    1618:	02d00713          	li	a4,45
    161c:	00e78a63          	beq	a5,a4,1630 <print+0xbc>
    1620:	03000713          	li	a4,48
    1624:	fee798e3          	bne	a5,a4,1614 <print+0xa0>
    1628:	00290c93          	addi	s9,s2,2
    162c:	4789                	li	a5,2
    162e:	a021                	j	1636 <print+0xc2>
    1630:	00290c93          	addi	s9,s2,2
    1634:	4785                	li	a5,1
    1636:	000c8703          	lb	a4,0(s9)
    163a:	05570363          	beq	a4,s5,1680 <print+0x10c>
    163e:	02eac163          	blt	s5,a4,1660 <print+0xec>
    1642:	02300693          	li	a3,35
    1646:	02d70b63          	beq	a4,a3,167c <print+0x108>
    164a:	8966                	mv	s2,s9
    164c:	4501                	li	a0,0
    164e:	45a5                	li	a1,9
    1650:	a835                	j	168c <print+0x118>
    1652:	00290c93          	addi	s9,s2,2
    1656:	bf7d                	j	1614 <print+0xa0>
    1658:	00290c93          	addi	s9,s2,2
    165c:	4791                	li	a5,4
    165e:	bfe1                	j	1636 <print+0xc2>
    1660:	02d00693          	li	a3,45
    1664:	00d70963          	beq	a4,a3,1676 <print+0x102>
    1668:	03000693          	li	a3,48
    166c:	fcd71fe3          	bne	a4,a3,164a <print+0xd6>
    1670:	0027e793          	ori	a5,a5,2
    1674:	a031                	j	1680 <print+0x10c>
    1676:	0c85                	addi	s9,s9,1
    1678:	4785                	li	a5,1
    167a:	bfc1                	j	164a <print+0xd6>
    167c:	0047e793          	ori	a5,a5,4
    1680:	0c85                	addi	s9,s9,1
    1682:	b7e1                	j	164a <print+0xd6>
    1684:	03850533          	mul	a0,a0,s8
    1688:	0905                	addi	s2,s2,1
    168a:	9536                	add	a0,a0,a3
    168c:	00090703          	lb	a4,0(s2)
    1690:	fd070693          	addi	a3,a4,-48
    1694:	0ff6f613          	andi	a2,a3,255
    1698:	fec5f6e3          	bgeu	a1,a2,1684 <print+0x110>
    169c:	02e00613          	li	a2,46
    16a0:	4699                	li	a3,6
    16a2:	00c71e63          	bne	a4,a2,16be <print+0x14a>
    16a6:	0905                	addi	s2,s2,1
    16a8:	4681                	li	a3,0
    16aa:	4625                	li	a2,9
    16ac:	00090703          	lb	a4,0(s2)
    16b0:	fd070713          	addi	a4,a4,-48
    16b4:	0ff77593          	andi	a1,a4,255
    16b8:	02b67563          	bgeu	a2,a1,16e2 <print+0x16e>
    16bc:	8a36                	mv	s4,a3
    16be:	00090703          	lb	a4,0(s2)
    16c2:	06a00613          	li	a2,106
    16c6:	0ac70963          	beq	a4,a2,1778 <print+0x204>
    16ca:	02e64163          	blt	a2,a4,16ec <print+0x178>
    16ce:	04c00613          	li	a2,76
    16d2:	0ac70363          	beq	a4,a2,1778 <print+0x204>
    16d6:	06800613          	li	a2,104
    16da:	08c70863          	beq	a4,a2,176a <print+0x1f6>
    16de:	4601                	li	a2,0
    16e0:	a81d                	j	1716 <print+0x1a2>
    16e2:	038686b3          	mul	a3,a3,s8
    16e6:	0905                	addi	s2,s2,1
    16e8:	96ba                	add	a3,a3,a4
    16ea:	b7c9                	j	16ac <print+0x138>
    16ec:	07400613          	li	a2,116
    16f0:	08c70463          	beq	a4,a2,1778 <print+0x204>
    16f4:	07a00613          	li	a2,122
    16f8:	08c70063          	beq	a4,a2,1778 <print+0x204>
    16fc:	06c00593          	li	a1,108
    1700:	4601                	li	a2,0
    1702:	00b71a63          	bne	a4,a1,1716 <print+0x1a2>
    1706:	00190583          	lb	a1,1(s2)
    170a:	460d                	li	a2,3
    170c:	00e59463          	bne	a1,a4,1714 <print+0x1a0>
    1710:	0905                	addi	s2,s2,1
    1712:	4611                	li	a2,4
    1714:	0905                	addi	s2,s2,1
    1716:	00090703          	lb	a4,0(s2)
    171a:	06000593          	li	a1,96
    171e:	06100813          	li	a6,97
    1722:	00e5c463          	blt	a1,a4,172a <print+0x1b6>
    1726:	04100813          	li	a6,65
    172a:	06700593          	li	a1,103
    172e:	06e5c263          	blt	a1,a4,1792 <print+0x21e>
    1732:	06500593          	li	a1,101
    1736:	16b75963          	bge	a4,a1,18a8 <print+0x334>
    173a:	04700593          	li	a1,71
    173e:	02e5cf63          	blt	a1,a4,177c <print+0x208>
    1742:	04500613          	li	a2,69
    1746:	16c75163          	bge	a4,a2,18a8 <print+0x334>
    174a:	04300693          	li	a3,67
    174e:	e8d71ae3          	bne	a4,a3,15e2 <print+0x6e>
    1752:	4018                	lw	a4,0(s0)
    1754:	00440c93          	addi	s9,s0,4
    1758:	00010ea3          	sb	zero,29(sp)
    175c:	00e10e23          	sb	a4,28(sp)
    1760:	86be                	mv	a3,a5
    1762:	4701                	li	a4,0
    1764:	862a                	mv	a2,a0
    1766:	086c                	addi	a1,sp,28
    1768:	a071                	j	17f4 <print+0x280>
    176a:	00190583          	lb	a1,1(s2)
    176e:	4601                	li	a2,0
    1770:	fae593e3          	bne	a1,a4,1716 <print+0x1a2>
    1774:	0909                	addi	s2,s2,2
    1776:	b745                	j	1716 <print+0x1a2>
    1778:	0905                	addi	s2,s2,1
    177a:	b795                	j	16de <print+0x16a>
    177c:	06300693          	li	a3,99
    1780:	fcd709e3          	beq	a4,a3,1752 <print+0x1de>
    1784:	06e6ce63          	blt	a3,a4,1800 <print+0x28c>
    1788:	05800693          	li	a3,88
    178c:	02d70363          	beq	a4,a3,17b2 <print+0x23e>
    1790:	bd89                	j	15e2 <print+0x6e>
    1792:	07300693          	li	a3,115
    1796:	04d70663          	beq	a4,a3,17e2 <print+0x26e>
    179a:	02e6cd63          	blt	a3,a4,17d4 <print+0x260>
    179e:	06f00693          	li	a3,111
    17a2:	0cd70b63          	beq	a4,a3,1878 <print+0x304>
    17a6:	07000693          	li	a3,112
    17aa:	0047e793          	ori	a5,a5,4
    17ae:	e2d71ae3          	bne	a4,a3,15e2 <print+0x6e>
    17b2:	4711                	li	a4,4
    17b4:	0ae61b63          	bne	a2,a4,186a <print+0x2f6>
    17b8:	041d                	addi	s0,s0,7
    17ba:	ff847713          	andi	a4,s0,-8
    17be:	430c                	lw	a1,0(a4)
    17c0:	4350                	lw	a2,4(a4)
    17c2:	00870413          	addi	s0,a4,8
    17c6:	88c2                	mv	a7,a6
    17c8:	c002                	sw	zero,0(sp)
    17ca:	883e                	mv	a6,a5
    17cc:	4701                	li	a4,0
    17ce:	87aa                	mv	a5,a0
    17d0:	46c1                	li	a3,16
    17d2:	a0b9                	j	1820 <print+0x2ac>
    17d4:	07500693          	li	a3,117
    17d8:	06d70363          	beq	a4,a3,183e <print+0x2ca>
    17dc:	07800693          	li	a3,120
    17e0:	b775                	j	178c <print+0x218>
    17e2:	4018                	lw	a4,0(s0)
    17e4:	00440c93          	addi	s9,s0,4
    17e8:	85da                	mv	a1,s6
    17ea:	c311                	beqz	a4,17ee <print+0x27a>
    17ec:	85ba                	mv	a1,a4
    17ee:	8752                	mv	a4,s4
    17f0:	86be                	mv	a3,a5
    17f2:	862a                	mv	a2,a0
    17f4:	854e                	mv	a0,s3
    17f6:	9adff0ef          	jal	ra,11a2 <prints>
    17fa:	94aa                	add	s1,s1,a0
    17fc:	8466                	mv	s0,s9
    17fe:	b3d5                	j	15e2 <print+0x6e>
    1800:	4711                	li	a4,4
    1802:	02e61463          	bne	a2,a4,182a <print+0x2b6>
    1806:	041d                	addi	s0,s0,7
    1808:	ff847713          	andi	a4,s0,-8
    180c:	430c                	lw	a1,0(a4)
    180e:	4350                	lw	a2,4(a4)
    1810:	00870413          	addi	s0,a4,8
    1814:	88c2                	mv	a7,a6
    1816:	c002                	sw	zero,0(sp)
    1818:	883e                	mv	a6,a5
    181a:	4705                	li	a4,1
    181c:	87aa                	mv	a5,a0
    181e:	46a9                	li	a3,10
    1820:	854e                	mv	a0,s3
    1822:	b3fff0ef          	jal	ra,1360 <printLongLongInt>
    1826:	94aa                	add	s1,s1,a0
    1828:	bb6d                	j	15e2 <print+0x6e>
    182a:	400c                	lw	a1,0(s0)
    182c:	88d2                	mv	a7,s4
    182e:	0411                	addi	s0,s0,4
    1830:	872a                	mv	a4,a0
    1832:	4685                	li	a3,1
    1834:	4629                	li	a2,10
    1836:	854e                	mv	a0,s3
    1838:	a43ff0ef          	jal	ra,127a <printInt>
    183c:	b7ed                	j	1826 <print+0x2b2>
    183e:	4711                	li	a4,4
    1840:	00e61f63          	bne	a2,a4,185e <print+0x2ea>
    1844:	041d                	addi	s0,s0,7
    1846:	ff847713          	andi	a4,s0,-8
    184a:	430c                	lw	a1,0(a4)
    184c:	4350                	lw	a2,4(a4)
    184e:	00870413          	addi	s0,a4,8
    1852:	88c2                	mv	a7,a6
    1854:	c002                	sw	zero,0(sp)
    1856:	883e                	mv	a6,a5
    1858:	4701                	li	a4,0
    185a:	87aa                	mv	a5,a0
    185c:	b7c9                	j	181e <print+0x2aa>
    185e:	400c                	lw	a1,0(s0)
    1860:	88d2                	mv	a7,s4
    1862:	0411                	addi	s0,s0,4
    1864:	872a                	mv	a4,a0
    1866:	4681                	li	a3,0
    1868:	b7f1                	j	1834 <print+0x2c0>
    186a:	400c                	lw	a1,0(s0)
    186c:	88d2                	mv	a7,s4
    186e:	0411                	addi	s0,s0,4
    1870:	872a                	mv	a4,a0
    1872:	4681                	li	a3,0
    1874:	4641                	li	a2,16
    1876:	b7c1                	j	1836 <print+0x2c2>
    1878:	4711                	li	a4,4
    187a:	02e61063          	bne	a2,a4,189a <print+0x326>
    187e:	041d                	addi	s0,s0,7
    1880:	ff847713          	andi	a4,s0,-8
    1884:	430c                	lw	a1,0(a4)
    1886:	4350                	lw	a2,4(a4)
    1888:	00870413          	addi	s0,a4,8
    188c:	88c2                	mv	a7,a6
    188e:	c002                	sw	zero,0(sp)
    1890:	883e                	mv	a6,a5
    1892:	4701                	li	a4,0
    1894:	87aa                	mv	a5,a0
    1896:	46a1                	li	a3,8
    1898:	b761                	j	1820 <print+0x2ac>
    189a:	400c                	lw	a1,0(s0)
    189c:	88d2                	mv	a7,s4
    189e:	0411                	addi	s0,s0,4
    18a0:	872a                	mv	a4,a0
    18a2:	4681                	li	a3,0
    18a4:	4621                	li	a2,8
    18a6:	bf41                	j	1836 <print+0x2c2>
    18a8:	041d                	addi	s0,s0,7
    18aa:	ff847613          	andi	a2,s0,-8
    18ae:	00860413          	addi	s0,a2,8 # 40021008 <_eusrstack+0x20011008>
    18b2:	420c                	lw	a1,0(a2)
    18b4:	4250                	lw	a2,4(a2)
    18b6:	40d50733          	sub	a4,a0,a3
    18ba:	88c2                	mv	a7,a6
    18bc:	177d                	addi	a4,a4,-1
    18be:	883e                	mv	a6,a5
    18c0:	854e                	mv	a0,s3
    18c2:	87b6                	mv	a5,a3
    18c4:	46a9                	li	a3,10
    18c6:	bb5ff0ef          	jal	ra,147a <printDouble>
    18ca:	bfb1                	j	1826 <print+0x2b2>

000018cc <printf>:
    18cc:	7139                	addi	sp,sp,-64
    18ce:	d22e                	sw	a1,36(sp)
    18d0:	d432                	sw	a2,40(sp)
    18d2:	85aa                	mv	a1,a0
    18d4:	1050                	addi	a2,sp,36
    18d6:	4501                	li	a0,0
    18d8:	ce06                	sw	ra,28(sp)
    18da:	d636                	sw	a3,44(sp)
    18dc:	d83a                	sw	a4,48(sp)
    18de:	da3e                	sw	a5,52(sp)
    18e0:	dc42                	sw	a6,56(sp)
    18e2:	de46                	sw	a7,60(sp)
    18e4:	c632                	sw	a2,12(sp)
    18e6:	3179                	jal	1574 <print>
    18e8:	40f2                	lw	ra,28(sp)
    18ea:	6121                	addi	sp,sp,64
    18ec:	8082                	ret

000018ee <puts>:
    18ee:	1101                	addi	sp,sp,-32
    18f0:	cc22                	sw	s0,24(sp)
    18f2:	ca26                	sw	s1,20(sp)
    18f4:	ce06                	sw	ra,28(sp)
    18f6:	211c                	lbu	a5,0(a0)
    18f8:	84aa                	mv	s1,a0
    18fa:	4401                	li	s0,0
    18fc:	87dc                	sb	a5,15(sp)
    18fe:	00f10783          	lb	a5,15(sp)
    1902:	0405                	addi	s0,s0,1
    1904:	ef99                	bnez	a5,1922 <puts+0x34>
    1906:	47a9                	li	a5,10
    1908:	00f10593          	addi	a1,sp,15
    190c:	4605                	li	a2,1
    190e:	4501                	li	a0,0
    1910:	87dc                	sb	a5,15(sp)
    1912:	80bff0ef          	jal	ra,111c <_write>
    1916:	8522                	mv	a0,s0
    1918:	40f2                	lw	ra,28(sp)
    191a:	4462                	lw	s0,24(sp)
    191c:	44d2                	lw	s1,20(sp)
    191e:	6105                	addi	sp,sp,32
    1920:	8082                	ret
    1922:	4605                	li	a2,1
    1924:	00f10593          	addi	a1,sp,15
    1928:	4501                	li	a0,0
    192a:	ff2ff0ef          	jal	ra,111c <_write>
    192e:	008487b3          	add	a5,s1,s0
    1932:	239c                	lbu	a5,0(a5)
    1934:	87dc                	sb	a5,15(sp)
    1936:	b7e1                	j	18fe <puts+0x10>

00001938 <__udivdi3>:
    1938:	87b6                	mv	a5,a3
    193a:	88b2                	mv	a7,a2
    193c:	832a                	mv	t1,a0
    193e:	882e                	mv	a6,a1
    1940:	14069b63          	bnez	a3,1a96 <__udivdi3+0x15e>
    1944:	0ac5f863          	bgeu	a1,a2,19f4 <__udivdi3+0xbc>
    1948:	6741                	lui	a4,0x10
    194a:	1ae66b63          	bltu	a2,a4,1b00 <__udivdi3+0x1c8>
    194e:	010007b7          	lui	a5,0x1000
    1952:	34f66063          	bltu	a2,a5,1c92 <__udivdi3+0x35a>
    1956:	01865693          	srli	a3,a2,0x18
    195a:	47e1                	li	a5,24
    195c:	00001717          	auipc	a4,0x1
    1960:	70870713          	addi	a4,a4,1800 # 3064 <__clz_tab>
    1964:	9736                	add	a4,a4,a3
    1966:	2318                	lbu	a4,0(a4)
    1968:	97ba                	add	a5,a5,a4
    196a:	02000713          	li	a4,32
    196e:	8f1d                	sub	a4,a4,a5
    1970:	cb19                	beqz	a4,1986 <__udivdi3+0x4e>
    1972:	00e59833          	sll	a6,a1,a4
    1976:	00f557b3          	srl	a5,a0,a5
    197a:	00e618b3          	sll	a7,a2,a4
    197e:	0107e833          	or	a6,a5,a6
    1982:	00e51333          	sll	t1,a0,a4
    1986:	0108d613          	srli	a2,a7,0x10
    198a:	02c85533          	divu	a0,a6,a2
    198e:	01089693          	slli	a3,a7,0x10
    1992:	82c1                	srli	a3,a3,0x10
    1994:	01035793          	srli	a5,t1,0x10
    1998:	02c87733          	remu	a4,a6,a2
    199c:	02a685b3          	mul	a1,a3,a0
    19a0:	0742                	slli	a4,a4,0x10
    19a2:	00f76833          	or	a6,a4,a5
    19a6:	00b87a63          	bgeu	a6,a1,19ba <__udivdi3+0x82>
    19aa:	9846                	add	a6,a6,a7
    19ac:	fff50793          	addi	a5,a0,-1
    19b0:	01186463          	bltu	a6,a7,19b8 <__udivdi3+0x80>
    19b4:	30b86563          	bltu	a6,a1,1cbe <__udivdi3+0x386>
    19b8:	853e                	mv	a0,a5
    19ba:	40b80833          	sub	a6,a6,a1
    19be:	02c85733          	divu	a4,a6,a2
    19c2:	0342                	slli	t1,t1,0x10
    19c4:	01035313          	srli	t1,t1,0x10
    19c8:	02c87833          	remu	a6,a6,a2
    19cc:	02e686b3          	mul	a3,a3,a4
    19d0:	0842                	slli	a6,a6,0x10
    19d2:	00686833          	or	a6,a6,t1
    19d6:	00d87b63          	bgeu	a6,a3,19ec <__udivdi3+0xb4>
    19da:	9846                	add	a6,a6,a7
    19dc:	fff70793          	addi	a5,a4,-1
    19e0:	01186563          	bltu	a6,a7,19ea <__udivdi3+0xb2>
    19e4:	1779                	addi	a4,a4,-2
    19e6:	00d86363          	bltu	a6,a3,19ec <__udivdi3+0xb4>
    19ea:	873e                	mv	a4,a5
    19ec:	0542                	slli	a0,a0,0x10
    19ee:	8d59                	or	a0,a0,a4
    19f0:	4581                	li	a1,0
    19f2:	8082                	ret
    19f4:	e601                	bnez	a2,19fc <__udivdi3+0xc4>
    19f6:	4705                	li	a4,1
    19f8:	02c758b3          	divu	a7,a4,a2
    19fc:	6741                	lui	a4,0x10
    19fe:	0ee8e863          	bltu	a7,a4,1aee <__udivdi3+0x1b6>
    1a02:	010007b7          	lui	a5,0x1000
    1a06:	28f8ea63          	bltu	a7,a5,1c9a <__udivdi3+0x362>
    1a0a:	0188d693          	srli	a3,a7,0x18
    1a0e:	47e1                	li	a5,24
    1a10:	00001717          	auipc	a4,0x1
    1a14:	65470713          	addi	a4,a4,1620 # 3064 <__clz_tab>
    1a18:	9736                	add	a4,a4,a3
    1a1a:	2314                	lbu	a3,0(a4)
    1a1c:	96be                	add	a3,a3,a5
    1a1e:	02000793          	li	a5,32
    1a22:	8f95                	sub	a5,a5,a3
    1a24:	e7fd                	bnez	a5,1b12 <__udivdi3+0x1da>
    1a26:	01089e93          	slli	t4,a7,0x10
    1a2a:	41158733          	sub	a4,a1,a7
    1a2e:	0108df13          	srli	t5,a7,0x10
    1a32:	010ede93          	srli	t4,t4,0x10
    1a36:	4585                	li	a1,1
    1a38:	01035793          	srli	a5,t1,0x10
    1a3c:	03e75533          	divu	a0,a4,t5
    1a40:	03e77733          	remu	a4,a4,t5
    1a44:	03d506b3          	mul	a3,a0,t4
    1a48:	0742                	slli	a4,a4,0x10
    1a4a:	8fd9                	or	a5,a5,a4
    1a4c:	00d7fa63          	bgeu	a5,a3,1a60 <__udivdi3+0x128>
    1a50:	97c6                	add	a5,a5,a7
    1a52:	fff50713          	addi	a4,a0,-1
    1a56:	0117e463          	bltu	a5,a7,1a5e <__udivdi3+0x126>
    1a5a:	26d7e563          	bltu	a5,a3,1cc4 <__udivdi3+0x38c>
    1a5e:	853a                	mv	a0,a4
    1a60:	8f95                	sub	a5,a5,a3
    1a62:	03e7d733          	divu	a4,a5,t5
    1a66:	0342                	slli	t1,t1,0x10
    1a68:	01035313          	srli	t1,t1,0x10
    1a6c:	03e7f7b3          	remu	a5,a5,t5
    1a70:	03d70eb3          	mul	t4,a4,t4
    1a74:	07c2                	slli	a5,a5,0x10
    1a76:	0067e7b3          	or	a5,a5,t1
    1a7a:	01d7fb63          	bgeu	a5,t4,1a90 <__udivdi3+0x158>
    1a7e:	97c6                	add	a5,a5,a7
    1a80:	fff70693          	addi	a3,a4,-1
    1a84:	0117e563          	bltu	a5,a7,1a8e <__udivdi3+0x156>
    1a88:	1779                	addi	a4,a4,-2
    1a8a:	01d7e363          	bltu	a5,t4,1a90 <__udivdi3+0x158>
    1a8e:	8736                	mv	a4,a3
    1a90:	0542                	slli	a0,a0,0x10
    1a92:	8d59                	or	a0,a0,a4
    1a94:	8082                	ret
    1a96:	04d5e163          	bltu	a1,a3,1ad8 <__udivdi3+0x1a0>
    1a9a:	67c1                	lui	a5,0x10
    1a9c:	04f6e163          	bltu	a3,a5,1ade <__udivdi3+0x1a6>
    1aa0:	010007b7          	lui	a5,0x1000
    1aa4:	1ef6e363          	bltu	a3,a5,1c8a <__udivdi3+0x352>
    1aa8:	0186d713          	srli	a4,a3,0x18
    1aac:	4861                	li	a6,24
    1aae:	00001797          	auipc	a5,0x1
    1ab2:	5b678793          	addi	a5,a5,1462 # 3064 <__clz_tab>
    1ab6:	97ba                	add	a5,a5,a4
    1ab8:	2398                	lbu	a4,0(a5)
    1aba:	02000e13          	li	t3,32
    1abe:	9742                	add	a4,a4,a6
    1ac0:	40ee0e33          	sub	t3,t3,a4
    1ac4:	0c0e1a63          	bnez	t3,1b98 <__udivdi3+0x260>
    1ac8:	1cb6ed63          	bltu	a3,a1,1ca2 <__udivdi3+0x36a>
    1acc:	00c53533          	sltu	a0,a0,a2
    1ad0:	00154513          	xori	a0,a0,1
    1ad4:	4581                	li	a1,0
    1ad6:	8082                	ret
    1ad8:	4581                	li	a1,0
    1ada:	4501                	li	a0,0
    1adc:	8082                	ret
    1ade:	0ff00793          	li	a5,255
    1ae2:	1cd7f363          	bgeu	a5,a3,1ca8 <__udivdi3+0x370>
    1ae6:	0086d713          	srli	a4,a3,0x8
    1aea:	4821                	li	a6,8
    1aec:	b7c9                	j	1aae <__udivdi3+0x176>
    1aee:	0ff00713          	li	a4,255
    1af2:	86c6                	mv	a3,a7
    1af4:	f1177ee3          	bgeu	a4,a7,1a10 <__udivdi3+0xd8>
    1af8:	0088d693          	srli	a3,a7,0x8
    1afc:	47a1                	li	a5,8
    1afe:	bf09                	j	1a10 <__udivdi3+0xd8>
    1b00:	0ff00713          	li	a4,255
    1b04:	86b2                	mv	a3,a2
    1b06:	e4c77be3          	bgeu	a4,a2,195c <__udivdi3+0x24>
    1b0a:	00865693          	srli	a3,a2,0x8
    1b0e:	47a1                	li	a5,8
    1b10:	b5b1                	j	195c <__udivdi3+0x24>
    1b12:	00f898b3          	sll	a7,a7,a5
    1b16:	00d5d633          	srl	a2,a1,a3
    1b1a:	0108df13          	srli	t5,a7,0x10
    1b1e:	03e65e33          	divu	t3,a2,t5
    1b22:	00f59733          	sll	a4,a1,a5
    1b26:	00d556b3          	srl	a3,a0,a3
    1b2a:	8f55                	or	a4,a4,a3
    1b2c:	01089e93          	slli	t4,a7,0x10
    1b30:	010ede93          	srli	t4,t4,0x10
    1b34:	00f51333          	sll	t1,a0,a5
    1b38:	01075593          	srli	a1,a4,0x10
    1b3c:	03e676b3          	remu	a3,a2,t5
    1b40:	03ce87b3          	mul	a5,t4,t3
    1b44:	06c2                	slli	a3,a3,0x10
    1b46:	8ecd                	or	a3,a3,a1
    1b48:	00f6fb63          	bgeu	a3,a5,1b5e <__udivdi3+0x226>
    1b4c:	96c6                	add	a3,a3,a7
    1b4e:	fffe0613          	addi	a2,t3,-1
    1b52:	1716e463          	bltu	a3,a7,1cba <__udivdi3+0x382>
    1b56:	16f6f263          	bgeu	a3,a5,1cba <__udivdi3+0x382>
    1b5a:	1e79                	addi	t3,t3,-2
    1b5c:	96c6                	add	a3,a3,a7
    1b5e:	8e9d                	sub	a3,a3,a5
    1b60:	03e6d633          	divu	a2,a3,t5
    1b64:	01071793          	slli	a5,a4,0x10
    1b68:	83c1                	srli	a5,a5,0x10
    1b6a:	03e6f6b3          	remu	a3,a3,t5
    1b6e:	02ce8533          	mul	a0,t4,a2
    1b72:	01069713          	slli	a4,a3,0x10
    1b76:	8f5d                	or	a4,a4,a5
    1b78:	00a77b63          	bgeu	a4,a0,1b8e <__udivdi3+0x256>
    1b7c:	9746                	add	a4,a4,a7
    1b7e:	fff60793          	addi	a5,a2,-1
    1b82:	13176863          	bltu	a4,a7,1cb2 <__udivdi3+0x37a>
    1b86:	12a77663          	bgeu	a4,a0,1cb2 <__udivdi3+0x37a>
    1b8a:	1679                	addi	a2,a2,-2
    1b8c:	9746                	add	a4,a4,a7
    1b8e:	010e1593          	slli	a1,t3,0x10
    1b92:	8f09                	sub	a4,a4,a0
    1b94:	8dd1                	or	a1,a1,a2
    1b96:	b54d                	j	1a38 <__udivdi3+0x100>
    1b98:	00e657b3          	srl	a5,a2,a4
    1b9c:	01c696b3          	sll	a3,a3,t3
    1ba0:	8edd                	or	a3,a3,a5
    1ba2:	00e5d333          	srl	t1,a1,a4
    1ba6:	0106df13          	srli	t5,a3,0x10
    1baa:	03e357b3          	divu	a5,t1,t5
    1bae:	01069e93          	slli	t4,a3,0x10
    1bb2:	010ede93          	srli	t4,t4,0x10
    1bb6:	01c59833          	sll	a6,a1,t3
    1bba:	00e55733          	srl	a4,a0,a4
    1bbe:	01076833          	or	a6,a4,a6
    1bc2:	01085893          	srli	a7,a6,0x10
    1bc6:	01c61633          	sll	a2,a2,t3
    1bca:	03e37333          	remu	t1,t1,t5
    1bce:	02fe85b3          	mul	a1,t4,a5
    1bd2:	0342                	slli	t1,t1,0x10
    1bd4:	011368b3          	or	a7,t1,a7
    1bd8:	00b8fb63          	bgeu	a7,a1,1bee <__udivdi3+0x2b6>
    1bdc:	98b6                	add	a7,a7,a3
    1bde:	fff78713          	addi	a4,a5,-1
    1be2:	0cd8ea63          	bltu	a7,a3,1cb6 <__udivdi3+0x37e>
    1be6:	0cb8f863          	bgeu	a7,a1,1cb6 <__udivdi3+0x37e>
    1bea:	17f9                	addi	a5,a5,-2
    1bec:	98b6                	add	a7,a7,a3
    1bee:	40b888b3          	sub	a7,a7,a1
    1bf2:	03e8d733          	divu	a4,a7,t5
    1bf6:	0842                	slli	a6,a6,0x10
    1bf8:	01085813          	srli	a6,a6,0x10
    1bfc:	03e8f8b3          	remu	a7,a7,t5
    1c00:	02ee8333          	mul	t1,t4,a4
    1c04:	08c2                	slli	a7,a7,0x10
    1c06:	0108e5b3          	or	a1,a7,a6
    1c0a:	0065fb63          	bgeu	a1,t1,1c20 <__udivdi3+0x2e8>
    1c0e:	95b6                	add	a1,a1,a3
    1c10:	fff70813          	addi	a6,a4,-1
    1c14:	08d5ed63          	bltu	a1,a3,1cae <__udivdi3+0x376>
    1c18:	0865fb63          	bgeu	a1,t1,1cae <__udivdi3+0x376>
    1c1c:	1779                	addi	a4,a4,-2
    1c1e:	95b6                	add	a1,a1,a3
    1c20:	07c2                	slli	a5,a5,0x10
    1c22:	6f41                	lui	t5,0x10
    1c24:	8fd9                	or	a5,a5,a4
    1c26:	ffff0713          	addi	a4,t5,-1 # ffff <_data_lma+0xce9b>
    1c2a:	00e7f6b3          	and	a3,a5,a4
    1c2e:	0107d893          	srli	a7,a5,0x10
    1c32:	8f71                	and	a4,a4,a2
    1c34:	8241                	srli	a2,a2,0x10
    1c36:	02e68eb3          	mul	t4,a3,a4
    1c3a:	406585b3          	sub	a1,a1,t1
    1c3e:	02c686b3          	mul	a3,a3,a2
    1c42:	010ed813          	srli	a6,t4,0x10
    1c46:	02e88733          	mul	a4,a7,a4
    1c4a:	96ba                	add	a3,a3,a4
    1c4c:	96c2                	add	a3,a3,a6
    1c4e:	02c88633          	mul	a2,a7,a2
    1c52:	00e6f363          	bgeu	a3,a4,1c58 <__udivdi3+0x320>
    1c56:	967a                	add	a2,a2,t5
    1c58:	0106d893          	srli	a7,a3,0x10
    1c5c:	9646                	add	a2,a2,a7
    1c5e:	02c5e263          	bltu	a1,a2,1c82 <__udivdi3+0x34a>
    1c62:	00c58563          	beq	a1,a2,1c6c <__udivdi3+0x334>
    1c66:	853e                	mv	a0,a5
    1c68:	4581                	li	a1,0
    1c6a:	8082                	ret
    1c6c:	6741                	lui	a4,0x10
    1c6e:	177d                	addi	a4,a4,-1
    1c70:	8ef9                	and	a3,a3,a4
    1c72:	06c2                	slli	a3,a3,0x10
    1c74:	00eefeb3          	and	t4,t4,a4
    1c78:	01c51533          	sll	a0,a0,t3
    1c7c:	96f6                	add	a3,a3,t4
    1c7e:	fed574e3          	bgeu	a0,a3,1c66 <__udivdi3+0x32e>
    1c82:	fff78513          	addi	a0,a5,-1
    1c86:	4581                	li	a1,0
    1c88:	8082                	ret
    1c8a:	0106d713          	srli	a4,a3,0x10
    1c8e:	4841                	li	a6,16
    1c90:	bd39                	j	1aae <__udivdi3+0x176>
    1c92:	01065693          	srli	a3,a2,0x10
    1c96:	47c1                	li	a5,16
    1c98:	b1d1                	j	195c <__udivdi3+0x24>
    1c9a:	0108d693          	srli	a3,a7,0x10
    1c9e:	47c1                	li	a5,16
    1ca0:	bb85                	j	1a10 <__udivdi3+0xd8>
    1ca2:	4581                	li	a1,0
    1ca4:	4505                	li	a0,1
    1ca6:	8082                	ret
    1ca8:	8736                	mv	a4,a3
    1caa:	4801                	li	a6,0
    1cac:	b509                	j	1aae <__udivdi3+0x176>
    1cae:	8742                	mv	a4,a6
    1cb0:	bf85                	j	1c20 <__udivdi3+0x2e8>
    1cb2:	863e                	mv	a2,a5
    1cb4:	bde9                	j	1b8e <__udivdi3+0x256>
    1cb6:	87ba                	mv	a5,a4
    1cb8:	bf1d                	j	1bee <__udivdi3+0x2b6>
    1cba:	8e32                	mv	t3,a2
    1cbc:	b54d                	j	1b5e <__udivdi3+0x226>
    1cbe:	1579                	addi	a0,a0,-2
    1cc0:	9846                	add	a6,a6,a7
    1cc2:	b9e5                	j	19ba <__udivdi3+0x82>
    1cc4:	1579                	addi	a0,a0,-2
    1cc6:	97c6                	add	a5,a5,a7
    1cc8:	bb61                	j	1a60 <__udivdi3+0x128>

00001cca <__umoddi3>:
    1cca:	87b6                	mv	a5,a3
    1ccc:	8832                	mv	a6,a2
    1cce:	832a                	mv	t1,a0
    1cd0:	872e                	mv	a4,a1
    1cd2:	8e2e                	mv	t3,a1
    1cd4:	14069163          	bnez	a3,1e16 <__umoddi3+0x14c>
    1cd8:	0ac5f063          	bgeu	a1,a2,1d78 <__umoddi3+0xae>
    1cdc:	6741                	lui	a4,0x10
    1cde:	1ae67663          	bgeu	a2,a4,1e8a <__umoddi3+0x1c0>
    1ce2:	0ff00713          	li	a4,255
    1ce6:	86b2                	mv	a3,a2
    1ce8:	00c77563          	bgeu	a4,a2,1cf2 <__umoddi3+0x28>
    1cec:	00865693          	srli	a3,a2,0x8
    1cf0:	47a1                	li	a5,8
    1cf2:	00001717          	auipc	a4,0x1
    1cf6:	37270713          	addi	a4,a4,882 # 3064 <__clz_tab>
    1cfa:	9736                	add	a4,a4,a3
    1cfc:	2318                	lbu	a4,0(a4)
    1cfe:	02000893          	li	a7,32
    1d02:	97ba                	add	a5,a5,a4
    1d04:	40f888b3          	sub	a7,a7,a5
    1d08:	00088c63          	beqz	a7,1d20 <__umoddi3+0x56>
    1d0c:	011595b3          	sll	a1,a1,a7
    1d10:	00f557b3          	srl	a5,a0,a5
    1d14:	01161833          	sll	a6,a2,a7
    1d18:	00b7ee33          	or	t3,a5,a1
    1d1c:	01151333          	sll	t1,a0,a7
    1d20:	01085613          	srli	a2,a6,0x10
    1d24:	02ce57b3          	divu	a5,t3,a2
    1d28:	01081513          	slli	a0,a6,0x10
    1d2c:	8141                	srli	a0,a0,0x10
    1d2e:	01035693          	srli	a3,t1,0x10
    1d32:	02ce7e33          	remu	t3,t3,a2
    1d36:	02f507b3          	mul	a5,a0,a5
    1d3a:	0e42                	slli	t3,t3,0x10
    1d3c:	00de6733          	or	a4,t3,a3
    1d40:	00f77863          	bgeu	a4,a5,1d50 <__umoddi3+0x86>
    1d44:	9742                	add	a4,a4,a6
    1d46:	01076563          	bltu	a4,a6,1d50 <__umoddi3+0x86>
    1d4a:	00f77363          	bgeu	a4,a5,1d50 <__umoddi3+0x86>
    1d4e:	9742                	add	a4,a4,a6
    1d50:	8f1d                	sub	a4,a4,a5
    1d52:	02c756b3          	divu	a3,a4,a2
    1d56:	01031793          	slli	a5,t1,0x10
    1d5a:	83c1                	srli	a5,a5,0x10
    1d5c:	02c77733          	remu	a4,a4,a2
    1d60:	02d50533          	mul	a0,a0,a3
    1d64:	0742                	slli	a4,a4,0x10
    1d66:	8fd9                	or	a5,a5,a4
    1d68:	08a7eb63          	bltu	a5,a0,1dfe <__umoddi3+0x134>
    1d6c:	40a78533          	sub	a0,a5,a0
    1d70:	01155533          	srl	a0,a0,a7
    1d74:	4581                	li	a1,0
    1d76:	8082                	ret
    1d78:	e601                	bnez	a2,1d80 <__umoddi3+0xb6>
    1d7a:	4705                	li	a4,1
    1d7c:	02c75833          	divu	a6,a4,a2
    1d80:	6741                	lui	a4,0x10
    1d82:	0ee86b63          	bltu	a6,a4,1e78 <__umoddi3+0x1ae>
    1d86:	010007b7          	lui	a5,0x1000
    1d8a:	2af86463          	bltu	a6,a5,2032 <__umoddi3+0x368>
    1d8e:	01885693          	srli	a3,a6,0x18
    1d92:	47e1                	li	a5,24
    1d94:	00001717          	auipc	a4,0x1
    1d98:	2d070713          	addi	a4,a4,720 # 3064 <__clz_tab>
    1d9c:	9736                	add	a4,a4,a3
    1d9e:	2318                	lbu	a4,0(a4)
    1da0:	02000893          	li	a7,32
    1da4:	97ba                	add	a5,a5,a4
    1da6:	40f888b3          	sub	a7,a7,a5
    1daa:	1e089a63          	bnez	a7,1f9e <__umoddi3+0x2d4>
    1dae:	01081e13          	slli	t3,a6,0x10
    1db2:	410585b3          	sub	a1,a1,a6
    1db6:	01085613          	srli	a2,a6,0x10
    1dba:	010e5e13          	srli	t3,t3,0x10
    1dbe:	01035713          	srli	a4,t1,0x10
    1dc2:	02c5d6b3          	divu	a3,a1,a2
    1dc6:	02c5f5b3          	remu	a1,a1,a2
    1dca:	03c686b3          	mul	a3,a3,t3
    1dce:	05c2                	slli	a1,a1,0x10
    1dd0:	8f4d                	or	a4,a4,a1
    1dd2:	00d77763          	bgeu	a4,a3,1de0 <__umoddi3+0x116>
    1dd6:	9742                	add	a4,a4,a6
    1dd8:	01076463          	bltu	a4,a6,1de0 <__umoddi3+0x116>
    1ddc:	26d76a63          	bltu	a4,a3,2050 <__umoddi3+0x386>
    1de0:	8f15                	sub	a4,a4,a3
    1de2:	02c75533          	divu	a0,a4,a2
    1de6:	0342                	slli	t1,t1,0x10
    1de8:	01035313          	srli	t1,t1,0x10
    1dec:	02c77733          	remu	a4,a4,a2
    1df0:	03c50533          	mul	a0,a0,t3
    1df4:	0742                	slli	a4,a4,0x10
    1df6:	006767b3          	or	a5,a4,t1
    1dfa:	00a7f863          	bgeu	a5,a0,1e0a <__umoddi3+0x140>
    1dfe:	97c2                	add	a5,a5,a6
    1e00:	0107e563          	bltu	a5,a6,1e0a <__umoddi3+0x140>
    1e04:	00a7f363          	bgeu	a5,a0,1e0a <__umoddi3+0x140>
    1e08:	97c2                	add	a5,a5,a6
    1e0a:	40a78533          	sub	a0,a5,a0
    1e0e:	01155533          	srl	a0,a0,a7
    1e12:	4581                	li	a1,0
    1e14:	8082                	ret
    1e16:	882a                	mv	a6,a0
    1e18:	f4d5efe3          	bltu	a1,a3,1d76 <__umoddi3+0xac>
    1e1c:	67c1                	lui	a5,0x10
    1e1e:	04f6e563          	bltu	a3,a5,1e68 <__umoddi3+0x19e>
    1e22:	010007b7          	lui	a5,0x1000
    1e26:	20f6e263          	bltu	a3,a5,202a <__umoddi3+0x360>
    1e2a:	0186d313          	srli	t1,a3,0x18
    1e2e:	48e1                	li	a7,24
    1e30:	00001797          	auipc	a5,0x1
    1e34:	23478793          	addi	a5,a5,564 # 3064 <__clz_tab>
    1e38:	979a                	add	a5,a5,t1
    1e3a:	0007ce03          	lbu	t3,0(a5)
    1e3e:	02000313          	li	t1,32
    1e42:	9e46                	add	t3,t3,a7
    1e44:	41c30333          	sub	t1,t1,t3
    1e48:	04031963          	bnez	t1,1e9a <__umoddi3+0x1d0>
    1e4c:	00b6e463          	bltu	a3,a1,1e54 <__umoddi3+0x18a>
    1e50:	00c56963          	bltu	a0,a2,1e62 <__umoddi3+0x198>
    1e54:	40c50833          	sub	a6,a0,a2
    1e58:	8d95                	sub	a1,a1,a3
    1e5a:	01053733          	sltu	a4,a0,a6
    1e5e:	40e58733          	sub	a4,a1,a4
    1e62:	8542                	mv	a0,a6
    1e64:	85ba                	mv	a1,a4
    1e66:	8082                	ret
    1e68:	0ff00793          	li	a5,255
    1e6c:	1cd7fb63          	bgeu	a5,a3,2042 <__umoddi3+0x378>
    1e70:	0086d313          	srli	t1,a3,0x8
    1e74:	48a1                	li	a7,8
    1e76:	bf6d                	j	1e30 <__umoddi3+0x166>
    1e78:	0ff00713          	li	a4,255
    1e7c:	86c2                	mv	a3,a6
    1e7e:	f1077be3          	bgeu	a4,a6,1d94 <__umoddi3+0xca>
    1e82:	00885693          	srli	a3,a6,0x8
    1e86:	47a1                	li	a5,8
    1e88:	b731                	j	1d94 <__umoddi3+0xca>
    1e8a:	010007b7          	lui	a5,0x1000
    1e8e:	1af66663          	bltu	a2,a5,203a <__umoddi3+0x370>
    1e92:	01865693          	srli	a3,a2,0x18
    1e96:	47e1                	li	a5,24
    1e98:	bda9                	j	1cf2 <__umoddi3+0x28>
    1e9a:	01c657b3          	srl	a5,a2,t3
    1e9e:	006696b3          	sll	a3,a3,t1
    1ea2:	8edd                	or	a3,a3,a5
    1ea4:	01c5d8b3          	srl	a7,a1,t3
    1ea8:	0106d713          	srli	a4,a3,0x10
    1eac:	02e8deb3          	divu	t4,a7,a4
    1eb0:	01069f13          	slli	t5,a3,0x10
    1eb4:	01c557b3          	srl	a5,a0,t3
    1eb8:	010f5f13          	srli	t5,t5,0x10
    1ebc:	006595b3          	sll	a1,a1,t1
    1ec0:	8ddd                	or	a1,a1,a5
    1ec2:	0105d813          	srli	a6,a1,0x10
    1ec6:	00661633          	sll	a2,a2,t1
    1eca:	00651533          	sll	a0,a0,t1
    1ece:	02e8f8b3          	remu	a7,a7,a4
    1ed2:	03df07b3          	mul	a5,t5,t4
    1ed6:	08c2                	slli	a7,a7,0x10
    1ed8:	0108e833          	or	a6,a7,a6
    1edc:	00f87b63          	bgeu	a6,a5,1ef2 <__umoddi3+0x228>
    1ee0:	9836                	add	a6,a6,a3
    1ee2:	fffe8893          	addi	a7,t4,-1
    1ee6:	16d86363          	bltu	a6,a3,204c <__umoddi3+0x382>
    1eea:	16f87163          	bgeu	a6,a5,204c <__umoddi3+0x382>
    1eee:	1ef9                	addi	t4,t4,-2
    1ef0:	9836                	add	a6,a6,a3
    1ef2:	40f80833          	sub	a6,a6,a5
    1ef6:	02e857b3          	divu	a5,a6,a4
    1efa:	05c2                	slli	a1,a1,0x10
    1efc:	81c1                	srli	a1,a1,0x10
    1efe:	02e87833          	remu	a6,a6,a4
    1f02:	02ff0f33          	mul	t5,t5,a5
    1f06:	01081713          	slli	a4,a6,0x10
    1f0a:	8f4d                	or	a4,a4,a1
    1f0c:	01e77b63          	bgeu	a4,t5,1f22 <__umoddi3+0x258>
    1f10:	9736                	add	a4,a4,a3
    1f12:	fff78593          	addi	a1,a5,-1 # ffffff <_data_lma+0xffce9b>
    1f16:	12d76963          	bltu	a4,a3,2048 <__umoddi3+0x37e>
    1f1a:	13e77763          	bgeu	a4,t5,2048 <__umoddi3+0x37e>
    1f1e:	17f9                	addi	a5,a5,-2
    1f20:	9736                	add	a4,a4,a3
    1f22:	0ec2                	slli	t4,t4,0x10
    1f24:	62c1                	lui	t0,0x10
    1f26:	00feeeb3          	or	t4,t4,a5
    1f2a:	fff28813          	addi	a6,t0,-1 # ffff <_data_lma+0xce9b>
    1f2e:	010ef8b3          	and	a7,t4,a6
    1f32:	01065593          	srli	a1,a2,0x10
    1f36:	010ede93          	srli	t4,t4,0x10
    1f3a:	01067833          	and	a6,a2,a6
    1f3e:	03088fb3          	mul	t6,a7,a6
    1f42:	41e70733          	sub	a4,a4,t5
    1f46:	030e8833          	mul	a6,t4,a6
    1f4a:	010fd793          	srli	a5,t6,0x10
    1f4e:	02b888b3          	mul	a7,a7,a1
    1f52:	98c2                	add	a7,a7,a6
    1f54:	97c6                	add	a5,a5,a7
    1f56:	02be8eb3          	mul	t4,t4,a1
    1f5a:	0107f363          	bgeu	a5,a6,1f60 <__umoddi3+0x296>
    1f5e:	9e96                	add	t4,t4,t0
    1f60:	6841                	lui	a6,0x10
    1f62:	187d                	addi	a6,a6,-1
    1f64:	0107d593          	srli	a1,a5,0x10
    1f68:	0107f7b3          	and	a5,a5,a6
    1f6c:	07c2                	slli	a5,a5,0x10
    1f6e:	010fffb3          	and	t6,t6,a6
    1f72:	95f6                	add	a1,a1,t4
    1f74:	97fe                	add	a5,a5,t6
    1f76:	0ab76263          	bltu	a4,a1,201a <__umoddi3+0x350>
    1f7a:	08b70e63          	beq	a4,a1,2016 <__umoddi3+0x34c>
    1f7e:	40f507b3          	sub	a5,a0,a5
    1f82:	00f53533          	sltu	a0,a0,a5
    1f86:	40b705b3          	sub	a1,a4,a1
    1f8a:	8d89                	sub	a1,a1,a0
    1f8c:	01c59e33          	sll	t3,a1,t3
    1f90:	0067d533          	srl	a0,a5,t1
    1f94:	00ae6533          	or	a0,t3,a0
    1f98:	0065d5b3          	srl	a1,a1,t1
    1f9c:	8082                	ret
    1f9e:	01181833          	sll	a6,a6,a7
    1fa2:	00f5d733          	srl	a4,a1,a5
    1fa6:	01085613          	srli	a2,a6,0x10
    1faa:	02c756b3          	divu	a3,a4,a2
    1fae:	01081e13          	slli	t3,a6,0x10
    1fb2:	00f557b3          	srl	a5,a0,a5
    1fb6:	010e5e13          	srli	t3,t3,0x10
    1fba:	011595b3          	sll	a1,a1,a7
    1fbe:	8ddd                	or	a1,a1,a5
    1fc0:	0105de93          	srli	t4,a1,0x10
    1fc4:	01151333          	sll	t1,a0,a7
    1fc8:	02c77733          	remu	a4,a4,a2
    1fcc:	02de07b3          	mul	a5,t3,a3
    1fd0:	01071693          	slli	a3,a4,0x10
    1fd4:	01d6e6b3          	or	a3,a3,t4
    1fd8:	00f6f863          	bgeu	a3,a5,1fe8 <__umoddi3+0x31e>
    1fdc:	96c2                	add	a3,a3,a6
    1fde:	0106e563          	bltu	a3,a6,1fe8 <__umoddi3+0x31e>
    1fe2:	00f6f363          	bgeu	a3,a5,1fe8 <__umoddi3+0x31e>
    1fe6:	96c2                	add	a3,a3,a6
    1fe8:	8e9d                	sub	a3,a3,a5
    1fea:	02c6d733          	divu	a4,a3,a2
    1fee:	01059793          	slli	a5,a1,0x10
    1ff2:	83c1                	srli	a5,a5,0x10
    1ff4:	02c6f6b3          	remu	a3,a3,a2
    1ff8:	02ee0733          	mul	a4,t3,a4
    1ffc:	01069593          	slli	a1,a3,0x10
    2000:	8ddd                	or	a1,a1,a5
    2002:	00e5f863          	bgeu	a1,a4,2012 <__umoddi3+0x348>
    2006:	95c2                	add	a1,a1,a6
    2008:	0105e563          	bltu	a1,a6,2012 <__umoddi3+0x348>
    200c:	00e5f363          	bgeu	a1,a4,2012 <__umoddi3+0x348>
    2010:	95c2                	add	a1,a1,a6
    2012:	8d99                	sub	a1,a1,a4
    2014:	b36d                	j	1dbe <__umoddi3+0xf4>
    2016:	f6f574e3          	bgeu	a0,a5,1f7e <__umoddi3+0x2b4>
    201a:	40c78633          	sub	a2,a5,a2
    201e:	00c7b7b3          	sltu	a5,a5,a2
    2022:	97b6                	add	a5,a5,a3
    2024:	8d9d                	sub	a1,a1,a5
    2026:	87b2                	mv	a5,a2
    2028:	bf99                	j	1f7e <__umoddi3+0x2b4>
    202a:	0106d313          	srli	t1,a3,0x10
    202e:	48c1                	li	a7,16
    2030:	b501                	j	1e30 <__umoddi3+0x166>
    2032:	01085693          	srli	a3,a6,0x10
    2036:	47c1                	li	a5,16
    2038:	bbb1                	j	1d94 <__umoddi3+0xca>
    203a:	01065693          	srli	a3,a2,0x10
    203e:	47c1                	li	a5,16
    2040:	b94d                	j	1cf2 <__umoddi3+0x28>
    2042:	8336                	mv	t1,a3
    2044:	4881                	li	a7,0
    2046:	b3ed                	j	1e30 <__umoddi3+0x166>
    2048:	87ae                	mv	a5,a1
    204a:	bde1                	j	1f22 <__umoddi3+0x258>
    204c:	8ec6                	mv	t4,a7
    204e:	b555                	j	1ef2 <__umoddi3+0x228>
    2050:	9742                	add	a4,a4,a6
    2052:	b379                	j	1de0 <__umoddi3+0x116>

00002054 <__ledf2>:
    2054:	0145d713          	srli	a4,a1,0x14
    2058:	001007b7          	lui	a5,0x100
    205c:	17fd                	addi	a5,a5,-1
    205e:	0146d813          	srli	a6,a3,0x14
    2062:	7ff77713          	andi	a4,a4,2047
    2066:	7ff00893          	li	a7,2047
    206a:	00b7fe33          	and	t3,a5,a1
    206e:	8eaa                	mv	t4,a0
    2070:	8ff5                	and	a5,a5,a3
    2072:	81fd                	srli	a1,a1,0x1f
    2074:	8f32                	mv	t5,a2
    2076:	7ff87813          	andi	a6,a6,2047
    207a:	82fd                	srli	a3,a3,0x1f
    207c:	03170e63          	beq	a4,a7,20b8 <__ledf2+0x64>
    2080:	01180d63          	beq	a6,a7,209a <__ledf2+0x46>
    2084:	e329                	bnez	a4,20c6 <__ledf2+0x72>
    2086:	00ae68b3          	or	a7,t3,a0
    208a:	00081f63          	bnez	a6,20a8 <__ledf2+0x54>
    208e:	8e5d                	or	a2,a2,a5
    2090:	ee01                	bnez	a2,20a8 <__ledf2+0x54>
    2092:	4301                	li	t1,0
    2094:	04088c63          	beqz	a7,20ec <__ledf2+0x98>
    2098:	a821                	j	20b0 <__ledf2+0x5c>
    209a:	00c7e8b3          	or	a7,a5,a2
    209e:	4309                	li	t1,2
    20a0:	04089663          	bnez	a7,20ec <__ledf2+0x98>
    20a4:	d36d                	beqz	a4,2086 <__ledf2+0x32>
    20a6:	a005                	j	20c6 <__ledf2+0x72>
    20a8:	04088463          	beqz	a7,20f0 <__ledf2+0x9c>
    20ac:	02d58563          	beq	a1,a3,20d6 <__ledf2+0x82>
    20b0:	4305                	li	t1,1
    20b2:	cd8d                	beqz	a1,20ec <__ledf2+0x98>
    20b4:	537d                	li	t1,-1
    20b6:	a81d                	j	20ec <__ledf2+0x98>
    20b8:	00ae68b3          	or	a7,t3,a0
    20bc:	4309                	li	t1,2
    20be:	02089763          	bnez	a7,20ec <__ledf2+0x98>
    20c2:	02e80a63          	beq	a6,a4,20f6 <__ledf2+0xa2>
    20c6:	00081463          	bnez	a6,20ce <__ledf2+0x7a>
    20ca:	8e5d                	or	a2,a2,a5
    20cc:	d275                	beqz	a2,20b0 <__ledf2+0x5c>
    20ce:	fed591e3          	bne	a1,a3,20b0 <__ledf2+0x5c>
    20d2:	fce84fe3          	blt	a6,a4,20b0 <__ledf2+0x5c>
    20d6:	01074963          	blt	a4,a6,20e8 <__ledf2+0x94>
    20da:	fdc7ebe3          	bltu	a5,t3,20b0 <__ledf2+0x5c>
    20de:	00fe0f63          	beq	t3,a5,20fc <__ledf2+0xa8>
    20e2:	4301                	li	t1,0
    20e4:	00fe7463          	bgeu	t3,a5,20ec <__ledf2+0x98>
    20e8:	d5f1                	beqz	a1,20b4 <__ledf2+0x60>
    20ea:	4305                	li	t1,1
    20ec:	851a                	mv	a0,t1
    20ee:	8082                	ret
    20f0:	feed                	bnez	a3,20ea <__ledf2+0x96>
    20f2:	537d                	li	t1,-1
    20f4:	bfe5                	j	20ec <__ledf2+0x98>
    20f6:	8e5d                	or	a2,a2,a5
    20f8:	da79                	beqz	a2,20ce <__ledf2+0x7a>
    20fa:	bfcd                	j	20ec <__ledf2+0x98>
    20fc:	fbdf6ae3          	bltu	t5,t4,20b0 <__ledf2+0x5c>
    2100:	4301                	li	t1,0
    2102:	ffeef5e3          	bgeu	t4,t5,20ec <__ledf2+0x98>
    2106:	f1f5                	bnez	a1,20ea <__ledf2+0x96>
    2108:	b775                	j	20b4 <__ledf2+0x60>

0000210a <__muldf3>:
    210a:	7139                	addi	sp,sp,-64
    210c:	d84a                	sw	s2,48(sp)
    210e:	0145d913          	srli	s2,a1,0x14
    2112:	d64e                	sw	s3,44(sp)
    2114:	d452                	sw	s4,40(sp)
    2116:	d256                	sw	s5,36(sp)
    2118:	00c59993          	slli	s3,a1,0xc
    211c:	de06                	sw	ra,60(sp)
    211e:	dc22                	sw	s0,56(sp)
    2120:	da26                	sw	s1,52(sp)
    2122:	d05a                	sw	s6,32(sp)
    2124:	ce5e                	sw	s7,28(sp)
    2126:	7ff97913          	andi	s2,s2,2047
    212a:	8a2a                	mv	s4,a0
    212c:	00c9d993          	srli	s3,s3,0xc
    2130:	01f5da93          	srli	s5,a1,0x1f
    2134:	0e090d63          	beqz	s2,222e <__muldf3+0x124>
    2138:	7ff00793          	li	a5,2047
    213c:	18f90663          	beq	s2,a5,22c8 <__muldf3+0x1be>
    2140:	01d55413          	srli	s0,a0,0x1d
    2144:	098e                	slli	s3,s3,0x3
    2146:	013469b3          	or	s3,s0,s3
    214a:	00800437          	lui	s0,0x800
    214e:	0089e433          	or	s0,s3,s0
    2152:	00351493          	slli	s1,a0,0x3
    2156:	c0190913          	addi	s2,s2,-1023
    215a:	4981                	li	s3,0
    215c:	4b81                	li	s7,0
    215e:	0146d713          	srli	a4,a3,0x14
    2162:	00c69a13          	slli	s4,a3,0xc
    2166:	7ff77713          	andi	a4,a4,2047
    216a:	85b2                	mv	a1,a2
    216c:	00ca5a13          	srli	s4,s4,0xc
    2170:	01f6db13          	srli	s6,a3,0x1f
    2174:	10070b63          	beqz	a4,228a <__muldf3+0x180>
    2178:	7ff00793          	li	a5,2047
    217c:	04f70363          	beq	a4,a5,21c2 <__muldf3+0xb8>
    2180:	01d65793          	srli	a5,a2,0x1d
    2184:	0a0e                	slli	s4,s4,0x3
    2186:	0147ea33          	or	s4,a5,s4
    218a:	c0170713          	addi	a4,a4,-1023
    218e:	008007b7          	lui	a5,0x800
    2192:	00fa67b3          	or	a5,s4,a5
    2196:	00361593          	slli	a1,a2,0x3
    219a:	993a                	add	s2,s2,a4
    219c:	4881                	li	a7,0
    219e:	016ac733          	xor	a4,s5,s6
    21a2:	46bd                	li	a3,15
    21a4:	853a                	mv	a0,a4
    21a6:	00190813          	addi	a6,s2,1
    21aa:	1736e863          	bltu	a3,s3,231a <__muldf3+0x210>
    21ae:	00001617          	auipc	a2,0x1
    21b2:	e7660613          	addi	a2,a2,-394 # 3024 <__clzsi2+0xb8>
    21b6:	098a                	slli	s3,s3,0x2
    21b8:	99b2                	add	s3,s3,a2
    21ba:	0009a683          	lw	a3,0(s3)
    21be:	96b2                	add	a3,a3,a2
    21c0:	8682                	jr	a3
    21c2:	00ca67b3          	or	a5,s4,a2
    21c6:	7ff90913          	addi	s2,s2,2047
    21ca:	12079963          	bnez	a5,22fc <__muldf3+0x1f2>
    21ce:	0029e993          	ori	s3,s3,2
    21d2:	4581                	li	a1,0
    21d4:	4889                	li	a7,2
    21d6:	b7e1                	j	219e <__muldf3+0x94>
    21d8:	4701                	li	a4,0
    21da:	7ff00793          	li	a5,2047
    21de:	00080437          	lui	s0,0x80
    21e2:	4481                	li	s1,0
    21e4:	0432                	slli	s0,s0,0xc
    21e6:	07d2                	slli	a5,a5,0x14
    21e8:	8031                	srli	s0,s0,0xc
    21ea:	077e                	slli	a4,a4,0x1f
    21ec:	8c5d                	or	s0,s0,a5
    21ee:	8c59                	or	s0,s0,a4
    21f0:	85a2                	mv	a1,s0
    21f2:	50f2                	lw	ra,60(sp)
    21f4:	5462                	lw	s0,56(sp)
    21f6:	8526                	mv	a0,s1
    21f8:	5942                	lw	s2,48(sp)
    21fa:	54d2                	lw	s1,52(sp)
    21fc:	59b2                	lw	s3,44(sp)
    21fe:	5a22                	lw	s4,40(sp)
    2200:	5a92                	lw	s5,36(sp)
    2202:	5b02                	lw	s6,32(sp)
    2204:	4bf2                	lw	s7,28(sp)
    2206:	6121                	addi	sp,sp,64
    2208:	8082                	ret
    220a:	855a                	mv	a0,s6
    220c:	843e                	mv	s0,a5
    220e:	84ae                	mv	s1,a1
    2210:	8bc6                	mv	s7,a7
    2212:	4789                	li	a5,2
    2214:	0efb8d63          	beq	s7,a5,230e <__muldf3+0x204>
    2218:	478d                	li	a5,3
    221a:	fafb8fe3          	beq	s7,a5,21d8 <__muldf3+0xce>
    221e:	4785                	li	a5,1
    2220:	872a                	mv	a4,a0
    2222:	38fb9e63          	bne	s7,a5,25be <__muldf3+0x4b4>
    2226:	4781                	li	a5,0
    2228:	4401                	li	s0,0
    222a:	4481                	li	s1,0
    222c:	bf65                	j	21e4 <__muldf3+0xda>
    222e:	00a9e433          	or	s0,s3,a0
    2232:	c061                	beqz	s0,22f2 <__muldf3+0x1e8>
    2234:	c636                	sw	a3,12(sp)
    2236:	c432                	sw	a2,8(sp)
    2238:	2a098c63          	beqz	s3,24f0 <__muldf3+0x3e6>
    223c:	854e                	mv	a0,s3
    223e:	52f000ef          	jal	ra,2f6c <__clzsi2>
    2242:	4622                	lw	a2,8(sp)
    2244:	46b2                	lw	a3,12(sp)
    2246:	87aa                	mv	a5,a0
    2248:	ff550713          	addi	a4,a0,-11
    224c:	4475                	li	s0,29
    224e:	ff878493          	addi	s1,a5,-8 # 7ffff8 <_data_lma+0x7fce94>
    2252:	8c19                	sub	s0,s0,a4
    2254:	009999b3          	sll	s3,s3,s1
    2258:	008a5433          	srl	s0,s4,s0
    225c:	01346433          	or	s0,s0,s3
    2260:	009a14b3          	sll	s1,s4,s1
    2264:	0146d713          	srli	a4,a3,0x14
    2268:	c0d00913          	li	s2,-1011
    226c:	00c69a13          	slli	s4,a3,0xc
    2270:	7ff77713          	andi	a4,a4,2047
    2274:	40f90933          	sub	s2,s2,a5
    2278:	4981                	li	s3,0
    227a:	4b81                	li	s7,0
    227c:	85b2                	mv	a1,a2
    227e:	00ca5a13          	srli	s4,s4,0xc
    2282:	01f6db13          	srli	s6,a3,0x1f
    2286:	ee0719e3          	bnez	a4,2178 <__muldf3+0x6e>
    228a:	00ca67b3          	or	a5,s4,a2
    228e:	c7b1                	beqz	a5,22da <__muldf3+0x1d0>
    2290:	220a0f63          	beqz	s4,24ce <__muldf3+0x3c4>
    2294:	8552                	mv	a0,s4
    2296:	c432                	sw	a2,8(sp)
    2298:	4d5000ef          	jal	ra,2f6c <__clzsi2>
    229c:	4622                	lw	a2,8(sp)
    229e:	872a                	mv	a4,a0
    22a0:	ff550693          	addi	a3,a0,-11
    22a4:	47f5                	li	a5,29
    22a6:	ff870593          	addi	a1,a4,-8
    22aa:	8f95                	sub	a5,a5,a3
    22ac:	00ba1a33          	sll	s4,s4,a1
    22b0:	00f657b3          	srl	a5,a2,a5
    22b4:	0147e7b3          	or	a5,a5,s4
    22b8:	00b615b3          	sll	a1,a2,a1
    22bc:	40e90933          	sub	s2,s2,a4
    22c0:	c0d90913          	addi	s2,s2,-1011
    22c4:	4881                	li	a7,0
    22c6:	bde1                	j	219e <__muldf3+0x94>
    22c8:	00a9e433          	or	s0,s3,a0
    22cc:	ec01                	bnez	s0,22e4 <__muldf3+0x1da>
    22ce:	49a1                	li	s3,8
    22d0:	4481                	li	s1,0
    22d2:	7ff00913          	li	s2,2047
    22d6:	4b89                	li	s7,2
    22d8:	b559                	j	215e <__muldf3+0x54>
    22da:	0019e993          	ori	s3,s3,1
    22de:	4581                	li	a1,0
    22e0:	4885                	li	a7,1
    22e2:	bd75                	j	219e <__muldf3+0x94>
    22e4:	844e                	mv	s0,s3
    22e6:	84aa                	mv	s1,a0
    22e8:	49b1                	li	s3,12
    22ea:	7ff00913          	li	s2,2047
    22ee:	4b8d                	li	s7,3
    22f0:	b5bd                	j	215e <__muldf3+0x54>
    22f2:	4991                	li	s3,4
    22f4:	4481                	li	s1,0
    22f6:	4901                	li	s2,0
    22f8:	4b85                	li	s7,1
    22fa:	b595                	j	215e <__muldf3+0x54>
    22fc:	0039e993          	ori	s3,s3,3
    2300:	87d2                	mv	a5,s4
    2302:	488d                	li	a7,3
    2304:	bd69                	j	219e <__muldf3+0x94>
    2306:	4789                	li	a5,2
    2308:	8556                	mv	a0,s5
    230a:	f0fb97e3          	bne	s7,a5,2218 <__muldf3+0x10e>
    230e:	872a                	mv	a4,a0
    2310:	7ff00793          	li	a5,2047
    2314:	4401                	li	s0,0
    2316:	4481                	li	s1,0
    2318:	b5f1                	j	21e4 <__muldf3+0xda>
    231a:	6ec1                	lui	t4,0x10
    231c:	fffe8613          	addi	a2,t4,-1 # ffff <_data_lma+0xce9b>
    2320:	0104d693          	srli	a3,s1,0x10
    2324:	0105de13          	srli	t3,a1,0x10
    2328:	8cf1                	and	s1,s1,a2
    232a:	8df1                	and	a1,a1,a2
    232c:	02958633          	mul	a2,a1,s1
    2330:	02b68333          	mul	t1,a3,a1
    2334:	01065893          	srli	a7,a2,0x10
    2338:	029e0533          	mul	a0,t3,s1
    233c:	951a                	add	a0,a0,t1
    233e:	98aa                	add	a7,a7,a0
    2340:	03c682b3          	mul	t0,a3,t3
    2344:	0068f363          	bgeu	a7,t1,234a <__muldf3+0x240>
    2348:	92f6                	add	t0,t0,t4
    234a:	6fc1                	lui	t6,0x10
    234c:	ffff8313          	addi	t1,t6,-1 # ffff <_data_lma+0xce9b>
    2350:	0067f533          	and	a0,a5,t1
    2354:	0107d393          	srli	t2,a5,0x10
    2358:	0068f7b3          	and	a5,a7,t1
    235c:	07c2                	slli	a5,a5,0x10
    235e:	00667333          	and	t1,a2,t1
    2362:	933e                	add	t1,t1,a5
    2364:	02950633          	mul	a2,a0,s1
    2368:	0108d893          	srli	a7,a7,0x10
    236c:	02a687b3          	mul	a5,a3,a0
    2370:	01065f13          	srli	t5,a2,0x10
    2374:	029384b3          	mul	s1,t2,s1
    2378:	94be                	add	s1,s1,a5
    237a:	94fa                	add	s1,s1,t5
    237c:	02768eb3          	mul	t4,a3,t2
    2380:	00f4f363          	bgeu	s1,a5,2386 <__muldf3+0x27c>
    2384:	9efe                	add	t4,t4,t6
    2386:	6a41                	lui	s4,0x10
    2388:	fffa0793          	addi	a5,s4,-1 # ffff <_data_lma+0xce9b>
    238c:	01045f93          	srli	t6,s0,0x10
    2390:	00f476b3          	and	a3,s0,a5
    2394:	00f4f9b3          	and	s3,s1,a5
    2398:	8e7d                	and	a2,a2,a5
    239a:	80c1                	srli	s1,s1,0x10
    239c:	02d58433          	mul	s0,a1,a3
    23a0:	09c2                	slli	s3,s3,0x10
    23a2:	01d48f33          	add	t5,s1,t4
    23a6:	99b2                	add	s3,s3,a2
    23a8:	98ce                	add	a7,a7,s3
    23aa:	02de07b3          	mul	a5,t3,a3
    23ae:	01045e93          	srli	t4,s0,0x10
    23b2:	02bf85b3          	mul	a1,t6,a1
    23b6:	97ae                	add	a5,a5,a1
    23b8:	9ebe                	add	t4,t4,a5
    23ba:	03fe0e33          	mul	t3,t3,t6
    23be:	00bef363          	bgeu	t4,a1,23c4 <__muldf3+0x2ba>
    23c2:	9e52                	add	t3,t3,s4
    23c4:	67c1                	lui	a5,0x10
    23c6:	fff78593          	addi	a1,a5,-1 # ffff <_data_lma+0xce9b>
    23ca:	00bef633          	and	a2,t4,a1
    23ce:	8c6d                	and	s0,s0,a1
    23d0:	0642                	slli	a2,a2,0x10
    23d2:	9622                	add	a2,a2,s0
    23d4:	010ede93          	srli	t4,t4,0x10
    23d8:	02d505b3          	mul	a1,a0,a3
    23dc:	9e76                	add	t3,t3,t4
    23de:	02af8533          	mul	a0,t6,a0
    23e2:	0105d413          	srli	s0,a1,0x10
    23e6:	02d386b3          	mul	a3,t2,a3
    23ea:	96aa                	add	a3,a3,a0
    23ec:	96a2                	add	a3,a3,s0
    23ee:	03f38fb3          	mul	t6,t2,t6
    23f2:	00a6f363          	bgeu	a3,a0,23f8 <__muldf3+0x2ee>
    23f6:	9fbe                	add	t6,t6,a5
    23f8:	6541                	lui	a0,0x10
    23fa:	157d                	addi	a0,a0,-1
    23fc:	00a6f7b3          	and	a5,a3,a0
    2400:	07c2                	slli	a5,a5,0x10
    2402:	8d6d                	and	a0,a0,a1
    2404:	97aa                	add	a5,a5,a0
    2406:	005885b3          	add	a1,a7,t0
    240a:	0135b9b3          	sltu	s3,a1,s3
    240e:	97fa                	add	a5,a5,t5
    2410:	95b2                	add	a1,a1,a2
    2412:	01378433          	add	s0,a5,s3
    2416:	00c5b633          	sltu	a2,a1,a2
    241a:	01c40eb3          	add	t4,s0,t3
    241e:	00ce8533          	add	a0,t4,a2
    2422:	01343433          	sltu	s0,s0,s3
    2426:	01e7b7b3          	sltu	a5,a5,t5
    242a:	8fc1                	or	a5,a5,s0
    242c:	01cebe33          	sltu	t3,t4,t3
    2430:	0106d413          	srli	s0,a3,0x10
    2434:	00c53633          	sltu	a2,a0,a2
    2438:	943e                	add	s0,s0,a5
    243a:	00ce6633          	or	a2,t3,a2
    243e:	00959493          	slli	s1,a1,0x9
    2442:	9432                	add	s0,s0,a2
    2444:	947e                	add	s0,s0,t6
    2446:	0064e4b3          	or	s1,s1,t1
    244a:	0426                	slli	s0,s0,0x9
    244c:	01755693          	srli	a3,a0,0x17
    2450:	009034b3          	snez	s1,s1
    2454:	81dd                	srli	a1,a1,0x17
    2456:	00951793          	slli	a5,a0,0x9
    245a:	8ccd                	or	s1,s1,a1
    245c:	8c55                	or	s0,s0,a3
    245e:	8cdd                	or	s1,s1,a5
    2460:	00741793          	slli	a5,s0,0x7
    2464:	0007db63          	bgez	a5,247a <__muldf3+0x370>
    2468:	0014d793          	srli	a5,s1,0x1
    246c:	8885                	andi	s1,s1,1
    246e:	01f41693          	slli	a3,s0,0x1f
    2472:	8cdd                	or	s1,s1,a5
    2474:	8cd5                	or	s1,s1,a3
    2476:	8005                	srli	s0,s0,0x1
    2478:	8942                	mv	s2,a6
    247a:	3ff90793          	addi	a5,s2,1023
    247e:	08f05963          	blez	a5,2510 <__muldf3+0x406>
    2482:	0074f693          	andi	a3,s1,7
    2486:	ce81                	beqz	a3,249e <__muldf3+0x394>
    2488:	00f4f693          	andi	a3,s1,15
    248c:	4611                	li	a2,4
    248e:	00c68863          	beq	a3,a2,249e <__muldf3+0x394>
    2492:	00448693          	addi	a3,s1,4
    2496:	0096b4b3          	sltu	s1,a3,s1
    249a:	9426                	add	s0,s0,s1
    249c:	84b6                	mv	s1,a3
    249e:	00741693          	slli	a3,s0,0x7
    24a2:	0006d863          	bgez	a3,24b2 <__muldf3+0x3a8>
    24a6:	ff0007b7          	lui	a5,0xff000
    24aa:	17fd                	addi	a5,a5,-1
    24ac:	8c7d                	and	s0,s0,a5
    24ae:	40090793          	addi	a5,s2,1024
    24b2:	7fe00693          	li	a3,2046
    24b6:	0ef6cf63          	blt	a3,a5,25b4 <__muldf3+0x4aa>
    24ba:	0034d693          	srli	a3,s1,0x3
    24be:	01d41493          	slli	s1,s0,0x1d
    24c2:	0426                	slli	s0,s0,0x9
    24c4:	8cd5                	or	s1,s1,a3
    24c6:	8031                	srli	s0,s0,0xc
    24c8:	7ff7f793          	andi	a5,a5,2047
    24cc:	bb21                	j	21e4 <__muldf3+0xda>
    24ce:	8532                	mv	a0,a2
    24d0:	c432                	sw	a2,8(sp)
    24d2:	29b000ef          	jal	ra,2f6c <__clzsi2>
    24d6:	01550693          	addi	a3,a0,21 # 10015 <_data_lma+0xceb1>
    24da:	47f1                	li	a5,28
    24dc:	02050713          	addi	a4,a0,32
    24e0:	4622                	lw	a2,8(sp)
    24e2:	dcd7d1e3          	bge	a5,a3,22a4 <__muldf3+0x19a>
    24e6:	1561                	addi	a0,a0,-8
    24e8:	00a617b3          	sll	a5,a2,a0
    24ec:	4581                	li	a1,0
    24ee:	b3f9                	j	22bc <__muldf3+0x1b2>
    24f0:	27d000ef          	jal	ra,2f6c <__clzsi2>
    24f4:	01550713          	addi	a4,a0,21
    24f8:	45f1                	li	a1,28
    24fa:	02050793          	addi	a5,a0,32
    24fe:	4622                	lw	a2,8(sp)
    2500:	46b2                	lw	a3,12(sp)
    2502:	d4e5d5e3          	bge	a1,a4,224c <__muldf3+0x142>
    2506:	1561                	addi	a0,a0,-8
    2508:	00aa1433          	sll	s0,s4,a0
    250c:	4481                	li	s1,0
    250e:	bb99                	j	2264 <__muldf3+0x15a>
    2510:	4685                	li	a3,1
    2512:	8e9d                	sub	a3,a3,a5
    2514:	e7b1                	bnez	a5,2560 <__muldf3+0x456>
    2516:	41e90913          	addi	s2,s2,1054
    251a:	012497b3          	sll	a5,s1,s2
    251e:	00d4d4b3          	srl	s1,s1,a3
    2522:	01241933          	sll	s2,s0,s2
    2526:	00f037b3          	snez	a5,a5
    252a:	009964b3          	or	s1,s2,s1
    252e:	8cdd                	or	s1,s1,a5
    2530:	0074f793          	andi	a5,s1,7
    2534:	00d456b3          	srl	a3,s0,a3
    2538:	cf81                	beqz	a5,2550 <__muldf3+0x446>
    253a:	00f4f793          	andi	a5,s1,15
    253e:	4611                	li	a2,4
    2540:	00c78863          	beq	a5,a2,2550 <__muldf3+0x446>
    2544:	00448793          	addi	a5,s1,4
    2548:	0097b4b3          	sltu	s1,a5,s1
    254c:	96a6                	add	a3,a3,s1
    254e:	84be                	mv	s1,a5
    2550:	00869793          	slli	a5,a3,0x8
    2554:	0407d863          	bgez	a5,25a4 <__muldf3+0x49a>
    2558:	4785                	li	a5,1
    255a:	4401                	li	s0,0
    255c:	4481                	li	s1,0
    255e:	b159                	j	21e4 <__muldf3+0xda>
    2560:	03800613          	li	a2,56
    2564:	ccd641e3          	blt	a2,a3,2226 <__muldf3+0x11c>
    2568:	467d                	li	a2,31
    256a:	fad656e3          	bge	a2,a3,2516 <__muldf3+0x40c>
    256e:	5605                	li	a2,-31
    2570:	40f607b3          	sub	a5,a2,a5
    2574:	02000593          	li	a1,32
    2578:	00f45633          	srl	a2,s0,a5
    257c:	00b68763          	beq	a3,a1,258a <__muldf3+0x480>
    2580:	43e90913          	addi	s2,s2,1086
    2584:	012417b3          	sll	a5,s0,s2
    2588:	8cdd                	or	s1,s1,a5
    258a:	009034b3          	snez	s1,s1
    258e:	8cd1                	or	s1,s1,a2
    2590:	0074f693          	andi	a3,s1,7
    2594:	4401                	li	s0,0
    2596:	ca99                	beqz	a3,25ac <__muldf3+0x4a2>
    2598:	00f4f793          	andi	a5,s1,15
    259c:	4611                	li	a2,4
    259e:	4681                	li	a3,0
    25a0:	fac792e3          	bne	a5,a2,2544 <__muldf3+0x43a>
    25a4:	00969413          	slli	s0,a3,0x9
    25a8:	8031                	srli	s0,s0,0xc
    25aa:	06f6                	slli	a3,a3,0x1d
    25ac:	808d                	srli	s1,s1,0x3
    25ae:	8cd5                	or	s1,s1,a3
    25b0:	4781                	li	a5,0
    25b2:	b90d                	j	21e4 <__muldf3+0xda>
    25b4:	7ff00793          	li	a5,2047
    25b8:	4401                	li	s0,0
    25ba:	4481                	li	s1,0
    25bc:	b125                	j	21e4 <__muldf3+0xda>
    25be:	8942                	mv	s2,a6
    25c0:	bd6d                	j	247a <__muldf3+0x370>

000025c2 <__subdf3>:
    25c2:	00100737          	lui	a4,0x100
    25c6:	177d                	addi	a4,a4,-1
    25c8:	1101                	addi	sp,sp,-32
    25ca:	00b77333          	and	t1,a4,a1
    25ce:	0146d893          	srli	a7,a3,0x14
    25d2:	8f75                	and	a4,a4,a3
    25d4:	01d65e93          	srli	t4,a2,0x1d
    25d8:	cc22                	sw	s0,24(sp)
    25da:	ca26                	sw	s1,20(sp)
    25dc:	030e                	slli	t1,t1,0x3
    25de:	0145d493          	srli	s1,a1,0x14
    25e2:	01d55793          	srli	a5,a0,0x1d
    25e6:	070e                	slli	a4,a4,0x3
    25e8:	ce06                	sw	ra,28(sp)
    25ea:	c84a                	sw	s2,16(sp)
    25ec:	c64e                	sw	s3,12(sp)
    25ee:	7ff8f893          	andi	a7,a7,2047
    25f2:	7ff00e13          	li	t3,2047
    25f6:	00eee733          	or	a4,t4,a4
    25fa:	7ff4f493          	andi	s1,s1,2047
    25fe:	01f5d413          	srli	s0,a1,0x1f
    2602:	0067e333          	or	t1,a5,t1
    2606:	00351f13          	slli	t5,a0,0x3
    260a:	82fd                	srli	a3,a3,0x1f
    260c:	00361e93          	slli	t4,a2,0x3
    2610:	19c88063          	beq	a7,t3,2790 <__subdf3+0x1ce>
    2614:	0016c693          	xori	a3,a3,1
    2618:	411485b3          	sub	a1,s1,a7
    261c:	12d40563          	beq	s0,a3,2746 <__subdf3+0x184>
    2620:	18b05163          	blez	a1,27a2 <__subdf3+0x1e0>
    2624:	1a088b63          	beqz	a7,27da <__subdf3+0x218>
    2628:	008007b7          	lui	a5,0x800
    262c:	8f5d                	or	a4,a4,a5
    262e:	59c48063          	beq	s1,t3,2bae <__subdf3+0x5ec>
    2632:	03800793          	li	a5,56
    2636:	34b7c363          	blt	a5,a1,297c <__subdf3+0x3ba>
    263a:	47fd                	li	a5,31
    263c:	48b7c463          	blt	a5,a1,2ac4 <__subdf3+0x502>
    2640:	02000793          	li	a5,32
    2644:	8f8d                	sub	a5,a5,a1
    2646:	00bed9b3          	srl	s3,t4,a1
    264a:	00f71833          	sll	a6,a4,a5
    264e:	00fe9eb3          	sll	t4,t4,a5
    2652:	01386833          	or	a6,a6,s3
    2656:	00b75733          	srl	a4,a4,a1
    265a:	01d039b3          	snez	s3,t4
    265e:	01386833          	or	a6,a6,s3
    2662:	40e30333          	sub	t1,t1,a4
    2666:	410f09b3          	sub	s3,t5,a6
    266a:	013f37b3          	sltu	a5,t5,s3
    266e:	40f30633          	sub	a2,t1,a5
    2672:	00861793          	slli	a5,a2,0x8
    2676:	2407d363          	bgez	a5,28bc <__subdf3+0x2fa>
    267a:	00800937          	lui	s2,0x800
    267e:	197d                	addi	s2,s2,-1
    2680:	01267933          	and	s2,a2,s2
    2684:	2c090f63          	beqz	s2,2962 <__subdf3+0x3a0>
    2688:	854a                	mv	a0,s2
    268a:	0e3000ef          	jal	ra,2f6c <__clzsi2>
    268e:	ff850713          	addi	a4,a0,-8
    2692:	02000793          	li	a5,32
    2696:	8f99                	sub	a5,a5,a4
    2698:	00f9d7b3          	srl	a5,s3,a5
    269c:	00e91633          	sll	a2,s2,a4
    26a0:	8fd1                	or	a5,a5,a2
    26a2:	00e999b3          	sll	s3,s3,a4
    26a6:	2a974463          	blt	a4,s1,294e <__subdf3+0x38c>
    26aa:	8f05                	sub	a4,a4,s1
    26ac:	00170613          	addi	a2,a4,1 # 100001 <_data_lma+0xfce9d>
    26b0:	46fd                	li	a3,31
    26b2:	3ac6c463          	blt	a3,a2,2a5a <__subdf3+0x498>
    26b6:	02000713          	li	a4,32
    26ba:	8f11                	sub	a4,a4,a2
    26bc:	00c9d6b3          	srl	a3,s3,a2
    26c0:	00e99833          	sll	a6,s3,a4
    26c4:	00e79733          	sll	a4,a5,a4
    26c8:	8f55                	or	a4,a4,a3
    26ca:	01003833          	snez	a6,a6
    26ce:	010769b3          	or	s3,a4,a6
    26d2:	00c7d633          	srl	a2,a5,a2
    26d6:	4481                	li	s1,0
    26d8:	0079f793          	andi	a5,s3,7
    26dc:	cf81                	beqz	a5,26f4 <__subdf3+0x132>
    26de:	00f9f693          	andi	a3,s3,15
    26e2:	4791                	li	a5,4
    26e4:	00f68863          	beq	a3,a5,26f4 <__subdf3+0x132>
    26e8:	00498693          	addi	a3,s3,4
    26ec:	0136b833          	sltu	a6,a3,s3
    26f0:	9642                	add	a2,a2,a6
    26f2:	89b6                	mv	s3,a3
    26f4:	00861793          	slli	a5,a2,0x8
    26f8:	1c07d663          	bgez	a5,28c4 <__subdf3+0x302>
    26fc:	00148713          	addi	a4,s1,1
    2700:	7ff00793          	li	a5,2047
    2704:	8805                	andi	s0,s0,1
    2706:	20f70663          	beq	a4,a5,2912 <__subdf3+0x350>
    270a:	ff8007b7          	lui	a5,0xff800
    270e:	17fd                	addi	a5,a5,-1
    2710:	8ff1                	and	a5,a5,a2
    2712:	01d79813          	slli	a6,a5,0x1d
    2716:	0039d993          	srli	s3,s3,0x3
    271a:	07a6                	slli	a5,a5,0x9
    271c:	01386833          	or	a6,a6,s3
    2720:	83b1                	srli	a5,a5,0xc
    2722:	7ff77713          	andi	a4,a4,2047
    2726:	00c79693          	slli	a3,a5,0xc
    272a:	0752                	slli	a4,a4,0x14
    272c:	82b1                	srli	a3,a3,0xc
    272e:	047e                	slli	s0,s0,0x1f
    2730:	8ed9                	or	a3,a3,a4
    2732:	8ec1                	or	a3,a3,s0
    2734:	40f2                	lw	ra,28(sp)
    2736:	4462                	lw	s0,24(sp)
    2738:	44d2                	lw	s1,20(sp)
    273a:	4942                	lw	s2,16(sp)
    273c:	49b2                	lw	s3,12(sp)
    273e:	8542                	mv	a0,a6
    2740:	85b6                	mv	a1,a3
    2742:	6105                	addi	sp,sp,32
    2744:	8082                	ret
    2746:	0ab05663          	blez	a1,27f2 <__subdf3+0x230>
    274a:	12088a63          	beqz	a7,287e <__subdf3+0x2bc>
    274e:	008007b7          	lui	a5,0x800
    2752:	8f5d                	or	a4,a4,a5
    2754:	2dc48663          	beq	s1,t3,2a20 <__subdf3+0x45e>
    2758:	03800793          	li	a5,56
    275c:	18b7c763          	blt	a5,a1,28ea <__subdf3+0x328>
    2760:	47fd                	li	a5,31
    2762:	3cb7d163          	bge	a5,a1,2b24 <__subdf3+0x562>
    2766:	fe058813          	addi	a6,a1,-32
    276a:	02000793          	li	a5,32
    276e:	010759b3          	srl	s3,a4,a6
    2772:	00f58a63          	beq	a1,a5,2786 <__subdf3+0x1c4>
    2776:	04000793          	li	a5,64
    277a:	40b785b3          	sub	a1,a5,a1
    277e:	00b71733          	sll	a4,a4,a1
    2782:	00eeeeb3          	or	t4,t4,a4
    2786:	01d03833          	snez	a6,t4
    278a:	01386833          	or	a6,a6,s3
    278e:	a295                	j	28f2 <__subdf3+0x330>
    2790:	01d767b3          	or	a5,a4,t4
    2794:	80148593          	addi	a1,s1,-2047
    2798:	e399                	bnez	a5,279e <__subdf3+0x1dc>
    279a:	0016c693          	xori	a3,a3,1
    279e:	04d40a63          	beq	s0,a3,27f2 <__subdf3+0x230>
    27a2:	e1d1                	bnez	a1,2826 <__subdf3+0x264>
    27a4:	00148793          	addi	a5,s1,1
    27a8:	7fe7f793          	andi	a5,a5,2046
    27ac:	1e079863          	bnez	a5,299c <__subdf3+0x3da>
    27b0:	01e367b3          	or	a5,t1,t5
    27b4:	01d76833          	or	a6,a4,t4
    27b8:	16049263          	bnez	s1,291c <__subdf3+0x35a>
    27bc:	3c078163          	beqz	a5,2b7e <__subdf3+0x5bc>
    27c0:	42081563          	bnez	a6,2bea <__subdf3+0x628>
    27c4:	00351813          	slli	a6,a0,0x3
    27c8:	01d31693          	slli	a3,t1,0x1d
    27cc:	00385813          	srli	a6,a6,0x3
    27d0:	0106e833          	or	a6,a3,a6
    27d4:	00335793          	srli	a5,t1,0x3
    27d8:	a219                	j	28de <__subdf3+0x31c>
    27da:	01d767b3          	or	a5,a4,t4
    27de:	1a078463          	beqz	a5,2986 <__subdf3+0x3c4>
    27e2:	fff58793          	addi	a5,a1,-1
    27e6:	3a078a63          	beqz	a5,2b9a <__subdf3+0x5d8>
    27ea:	23c58b63          	beq	a1,t3,2a20 <__subdf3+0x45e>
    27ee:	85be                	mv	a1,a5
    27f0:	b589                	j	2632 <__subdf3+0x70>
    27f2:	1c059863          	bnez	a1,29c2 <__subdf3+0x400>
    27f6:	00148693          	addi	a3,s1,1
    27fa:	7fe6f793          	andi	a5,a3,2046
    27fe:	efc1                	bnez	a5,2896 <__subdf3+0x2d4>
    2800:	01e367b3          	or	a5,t1,t5
    2804:	34049f63          	bnez	s1,2b62 <__subdf3+0x5a0>
    2808:	44078c63          	beqz	a5,2c60 <__subdf3+0x69e>
    280c:	01d767b3          	or	a5,a4,t4
    2810:	46079363          	bnez	a5,2c76 <__subdf3+0x6b4>
    2814:	050e                	slli	a0,a0,0x3
    2816:	01d31813          	slli	a6,t1,0x1d
    281a:	810d                	srli	a0,a0,0x3
    281c:	00a86833          	or	a6,a6,a0
    2820:	00335793          	srli	a5,t1,0x3
    2824:	a86d                	j	28de <__subdf3+0x31c>
    2826:	409885b3          	sub	a1,a7,s1
    282a:	20049663          	bnez	s1,2a36 <__subdf3+0x474>
    282e:	01e367b3          	or	a5,t1,t5
    2832:	30078c63          	beqz	a5,2b4a <__subdf3+0x588>
    2836:	fff58793          	addi	a5,a1,-1
    283a:	40078863          	beqz	a5,2c4a <__subdf3+0x688>
    283e:	7ff00513          	li	a0,2047
    2842:	20a58263          	beq	a1,a0,2a46 <__subdf3+0x484>
    2846:	85be                	mv	a1,a5
    2848:	03800793          	li	a5,56
    284c:	2ab7c163          	blt	a5,a1,2aee <__subdf3+0x52c>
    2850:	47fd                	li	a5,31
    2852:	3cb7c763          	blt	a5,a1,2c20 <__subdf3+0x65e>
    2856:	02000793          	li	a5,32
    285a:	8f8d                	sub	a5,a5,a1
    285c:	00f31833          	sll	a6,t1,a5
    2860:	00bf5633          	srl	a2,t5,a1
    2864:	00ff17b3          	sll	a5,t5,a5
    2868:	00c86833          	or	a6,a6,a2
    286c:	00f039b3          	snez	s3,a5
    2870:	00b35333          	srl	t1,t1,a1
    2874:	01386833          	or	a6,a6,s3
    2878:	40670733          	sub	a4,a4,t1
    287c:	acad                	j	2af6 <__subdf3+0x534>
    287e:	01d767b3          	or	a5,a4,t4
    2882:	10078263          	beqz	a5,2986 <__subdf3+0x3c4>
    2886:	fff58793          	addi	a5,a1,-1
    288a:	1e078e63          	beqz	a5,2a86 <__subdf3+0x4c4>
    288e:	2dc58f63          	beq	a1,t3,2b6c <__subdf3+0x5aa>
    2892:	85be                	mv	a1,a5
    2894:	b5d1                	j	2758 <__subdf3+0x196>
    2896:	7ff00793          	li	a5,2047
    289a:	06f68b63          	beq	a3,a5,2910 <__subdf3+0x34e>
    289e:	9efa                	add	t4,t4,t5
    28a0:	01eeb633          	sltu	a2,t4,t5
    28a4:	00e307b3          	add	a5,t1,a4
    28a8:	97b2                	add	a5,a5,a2
    28aa:	01f79813          	slli	a6,a5,0x1f
    28ae:	001ede93          	srli	t4,t4,0x1
    28b2:	01d869b3          	or	s3,a6,t4
    28b6:	0017d613          	srli	a2,a5,0x1
    28ba:	84b6                	mv	s1,a3
    28bc:	0079f793          	andi	a5,s3,7
    28c0:	e0079fe3          	bnez	a5,26de <__subdf3+0x11c>
    28c4:	01d61793          	slli	a5,a2,0x1d
    28c8:	0039d813          	srli	a6,s3,0x3
    28cc:	00f86833          	or	a6,a6,a5
    28d0:	85a6                	mv	a1,s1
    28d2:	00365793          	srli	a5,a2,0x3
    28d6:	7ff00713          	li	a4,2047
    28da:	06e58063          	beq	a1,a4,293a <__subdf3+0x378>
    28de:	07b2                	slli	a5,a5,0xc
    28e0:	83b1                	srli	a5,a5,0xc
    28e2:	7ff5f713          	andi	a4,a1,2047
    28e6:	8805                	andi	s0,s0,1
    28e8:	bd3d                	j	2726 <__subdf3+0x164>
    28ea:	01d76733          	or	a4,a4,t4
    28ee:	00e03833          	snez	a6,a4
    28f2:	01e809b3          	add	s3,a6,t5
    28f6:	01e9b7b3          	sltu	a5,s3,t5
    28fa:	00678633          	add	a2,a5,t1
    28fe:	00861793          	slli	a5,a2,0x8
    2902:	fa07dde3          	bgez	a5,28bc <__subdf3+0x2fa>
    2906:	0485                	addi	s1,s1,1
    2908:	7ff00793          	li	a5,2047
    290c:	18f49b63          	bne	s1,a5,2aa2 <__subdf3+0x4e0>
    2910:	8805                	andi	s0,s0,1
    2912:	7ff00713          	li	a4,2047
    2916:	4781                	li	a5,0
    2918:	4801                	li	a6,0
    291a:	b531                	j	2726 <__subdf3+0x164>
    291c:	10079063          	bnez	a5,2a1c <__subdf3+0x45a>
    2920:	3c080063          	beqz	a6,2ce0 <__subdf3+0x71e>
    2924:	00361813          	slli	a6,a2,0x3
    2928:	01d71793          	slli	a5,a4,0x1d
    292c:	00385813          	srli	a6,a6,0x3
    2930:	00f86833          	or	a6,a6,a5
    2934:	8436                	mv	s0,a3
    2936:	00375793          	srli	a5,a4,0x3
    293a:	00f867b3          	or	a5,a6,a5
    293e:	dbe9                	beqz	a5,2910 <__subdf3+0x34e>
    2940:	4401                	li	s0,0
    2942:	7ff00713          	li	a4,2047
    2946:	000807b7          	lui	a5,0x80
    294a:	4801                	li	a6,0
    294c:	bbe9                	j	2726 <__subdf3+0x164>
    294e:	ff800637          	lui	a2,0xff800
    2952:	167d                	addi	a2,a2,-1
    2954:	8e7d                	and	a2,a2,a5
    2956:	0079f793          	andi	a5,s3,7
    295a:	8c99                	sub	s1,s1,a4
    295c:	d80791e3          	bnez	a5,26de <__subdf3+0x11c>
    2960:	b795                	j	28c4 <__subdf3+0x302>
    2962:	854e                	mv	a0,s3
    2964:	2521                	jal	2f6c <__clzsi2>
    2966:	01850713          	addi	a4,a0,24
    296a:	47fd                	li	a5,31
    296c:	d2e7d3e3          	bge	a5,a4,2692 <__subdf3+0xd0>
    2970:	ff850613          	addi	a2,a0,-8
    2974:	00c997b3          	sll	a5,s3,a2
    2978:	4981                	li	s3,0
    297a:	b335                	j	26a6 <__subdf3+0xe4>
    297c:	01d76833          	or	a6,a4,t4
    2980:	01003833          	snez	a6,a6
    2984:	b1cd                	j	2666 <__subdf3+0xa4>
    2986:	00351813          	slli	a6,a0,0x3
    298a:	01d31793          	slli	a5,t1,0x1d
    298e:	00385813          	srli	a6,a6,0x3
    2992:	00f86833          	or	a6,a6,a5
    2996:	00335793          	srli	a5,t1,0x3
    299a:	bf35                	j	28d6 <__subdf3+0x314>
    299c:	41df09b3          	sub	s3,t5,t4
    29a0:	40e30933          	sub	s2,t1,a4
    29a4:	013f3633          	sltu	a2,t5,s3
    29a8:	40c90933          	sub	s2,s2,a2
    29ac:	00891793          	slli	a5,s2,0x8
    29b0:	2007ca63          	bltz	a5,2bc4 <__subdf3+0x602>
    29b4:	0129e833          	or	a6,s3,s2
    29b8:	cc0816e3          	bnez	a6,2684 <__subdf3+0xc2>
    29bc:	4781                	li	a5,0
    29be:	4401                	li	s0,0
    29c0:	bf39                	j	28de <__subdf3+0x31c>
    29c2:	409885b3          	sub	a1,a7,s1
    29c6:	14048163          	beqz	s1,2b08 <__subdf3+0x546>
    29ca:	008006b7          	lui	a3,0x800
    29ce:	7ff00793          	li	a5,2047
    29d2:	00d36333          	or	t1,t1,a3
    29d6:	20f88163          	beq	a7,a5,2bd8 <__subdf3+0x616>
    29da:	03800793          	li	a5,56
    29de:	22b7cc63          	blt	a5,a1,2c16 <__subdf3+0x654>
    29e2:	47fd                	li	a5,31
    29e4:	2cb7c963          	blt	a5,a1,2cb6 <__subdf3+0x6f4>
    29e8:	02000793          	li	a5,32
    29ec:	8f8d                	sub	a5,a5,a1
    29ee:	00f31833          	sll	a6,t1,a5
    29f2:	00bf56b3          	srl	a3,t5,a1
    29f6:	00ff17b3          	sll	a5,t5,a5
    29fa:	00d86833          	or	a6,a6,a3
    29fe:	00f039b3          	snez	s3,a5
    2a02:	00b35333          	srl	t1,t1,a1
    2a06:	01386833          	or	a6,a6,s3
    2a0a:	971a                	add	a4,a4,t1
    2a0c:	01d809b3          	add	s3,a6,t4
    2a10:	01d9b7b3          	sltu	a5,s3,t4
    2a14:	00e78633          	add	a2,a5,a4
    2a18:	84c6                	mv	s1,a7
    2a1a:	b5d5                	j	28fe <__subdf3+0x33c>
    2a1c:	f20812e3          	bnez	a6,2940 <__subdf3+0x37e>
    2a20:	00351813          	slli	a6,a0,0x3
    2a24:	01d31793          	slli	a5,t1,0x1d
    2a28:	00385813          	srli	a6,a6,0x3
    2a2c:	00f86833          	or	a6,a6,a5
    2a30:	00335793          	srli	a5,t1,0x3
    2a34:	b719                	j	293a <__subdf3+0x378>
    2a36:	00800537          	lui	a0,0x800
    2a3a:	7ff00793          	li	a5,2047
    2a3e:	00a36333          	or	t1,t1,a0
    2a42:	e0f893e3          	bne	a7,a5,2848 <__subdf3+0x286>
    2a46:	060e                	slli	a2,a2,0x3
    2a48:	01d71813          	slli	a6,a4,0x1d
    2a4c:	820d                	srli	a2,a2,0x3
    2a4e:	00c86833          	or	a6,a6,a2
    2a52:	00375793          	srli	a5,a4,0x3
    2a56:	8436                	mv	s0,a3
    2a58:	b5cd                	j	293a <__subdf3+0x378>
    2a5a:	1705                	addi	a4,a4,-31
    2a5c:	02000693          	li	a3,32
    2a60:	00e7d733          	srl	a4,a5,a4
    2a64:	00d60a63          	beq	a2,a3,2a78 <__subdf3+0x4b6>
    2a68:	04000693          	li	a3,64
    2a6c:	40c68633          	sub	a2,a3,a2
    2a70:	00c79633          	sll	a2,a5,a2
    2a74:	00c9e9b3          	or	s3,s3,a2
    2a78:	01303833          	snez	a6,s3
    2a7c:	00e869b3          	or	s3,a6,a4
    2a80:	4601                	li	a2,0
    2a82:	4481                	li	s1,0
    2a84:	bd25                	j	28bc <__subdf3+0x2fa>
    2a86:	01df09b3          	add	s3,t5,t4
    2a8a:	00e307b3          	add	a5,t1,a4
    2a8e:	01e9bf33          	sltu	t5,s3,t5
    2a92:	01e78633          	add	a2,a5,t5
    2a96:	00861793          	slli	a5,a2,0x8
    2a9a:	4485                	li	s1,1
    2a9c:	e207d0e3          	bgez	a5,28bc <__subdf3+0x2fa>
    2aa0:	4489                	li	s1,2
    2aa2:	ff8007b7          	lui	a5,0xff800
    2aa6:	17fd                	addi	a5,a5,-1
    2aa8:	8ff1                	and	a5,a5,a2
    2aaa:	0019d713          	srli	a4,s3,0x1
    2aae:	0019f813          	andi	a6,s3,1
    2ab2:	01076833          	or	a6,a4,a6
    2ab6:	01f79993          	slli	s3,a5,0x1f
    2aba:	0109e9b3          	or	s3,s3,a6
    2abe:	0017d613          	srli	a2,a5,0x1
    2ac2:	b919                	j	26d8 <__subdf3+0x116>
    2ac4:	fe058813          	addi	a6,a1,-32
    2ac8:	02000793          	li	a5,32
    2acc:	010759b3          	srl	s3,a4,a6
    2ad0:	00f58a63          	beq	a1,a5,2ae4 <__subdf3+0x522>
    2ad4:	04000793          	li	a5,64
    2ad8:	40b785b3          	sub	a1,a5,a1
    2adc:	00b71733          	sll	a4,a4,a1
    2ae0:	00eeeeb3          	or	t4,t4,a4
    2ae4:	01d03833          	snez	a6,t4
    2ae8:	01386833          	or	a6,a6,s3
    2aec:	bead                	j	2666 <__subdf3+0xa4>
    2aee:	01e36333          	or	t1,t1,t5
    2af2:	00603833          	snez	a6,t1
    2af6:	410e89b3          	sub	s3,t4,a6
    2afa:	013eb7b3          	sltu	a5,t4,s3
    2afe:	40f70633          	sub	a2,a4,a5
    2b02:	84c6                	mv	s1,a7
    2b04:	8436                	mv	s0,a3
    2b06:	b6b5                	j	2672 <__subdf3+0xb0>
    2b08:	01e367b3          	or	a5,t1,t5
    2b0c:	18078763          	beqz	a5,2c9a <__subdf3+0x6d8>
    2b10:	fff58793          	addi	a5,a1,-1
    2b14:	1c078c63          	beqz	a5,2cec <__subdf3+0x72a>
    2b18:	7ff00693          	li	a3,2047
    2b1c:	0ad58e63          	beq	a1,a3,2bd8 <__subdf3+0x616>
    2b20:	85be                	mv	a1,a5
    2b22:	bd65                	j	29da <__subdf3+0x418>
    2b24:	02000793          	li	a5,32
    2b28:	8f8d                	sub	a5,a5,a1
    2b2a:	00bed9b3          	srl	s3,t4,a1
    2b2e:	00f71833          	sll	a6,a4,a5
    2b32:	00fe9eb3          	sll	t4,t4,a5
    2b36:	01386833          	or	a6,a6,s3
    2b3a:	00b75733          	srl	a4,a4,a1
    2b3e:	01d039b3          	snez	s3,t4
    2b42:	01386833          	or	a6,a6,s3
    2b46:	933a                	add	t1,t1,a4
    2b48:	b36d                	j	28f2 <__subdf3+0x330>
    2b4a:	00361813          	slli	a6,a2,0x3
    2b4e:	01d71793          	slli	a5,a4,0x1d
    2b52:	00385813          	srli	a6,a6,0x3
    2b56:	0107e833          	or	a6,a5,a6
    2b5a:	8436                	mv	s0,a3
    2b5c:	00375793          	srli	a5,a4,0x3
    2b60:	bb9d                	j	28d6 <__subdf3+0x314>
    2b62:	cbbd                	beqz	a5,2bd8 <__subdf3+0x616>
    2b64:	01d76733          	or	a4,a4,t4
    2b68:	dc071ce3          	bnez	a4,2940 <__subdf3+0x37e>
    2b6c:	050e                	slli	a0,a0,0x3
    2b6e:	01d31813          	slli	a6,t1,0x1d
    2b72:	810d                	srli	a0,a0,0x3
    2b74:	00a86833          	or	a6,a6,a0
    2b78:	00335793          	srli	a5,t1,0x3
    2b7c:	bb7d                	j	293a <__subdf3+0x378>
    2b7e:	e2080fe3          	beqz	a6,29bc <__subdf3+0x3fa>
    2b82:	00361813          	slli	a6,a2,0x3
    2b86:	01d71793          	slli	a5,a4,0x1d
    2b8a:	00385813          	srli	a6,a6,0x3
    2b8e:	00f86833          	or	a6,a6,a5
    2b92:	8436                	mv	s0,a3
    2b94:	00375793          	srli	a5,a4,0x3
    2b98:	b399                	j	28de <__subdf3+0x31c>
    2b9a:	41df09b3          	sub	s3,t5,t4
    2b9e:	40e307b3          	sub	a5,t1,a4
    2ba2:	013f3f33          	sltu	t5,t5,s3
    2ba6:	41e78633          	sub	a2,a5,t5
    2baa:	4485                	li	s1,1
    2bac:	b4d9                	j	2672 <__subdf3+0xb0>
    2bae:	00351813          	slli	a6,a0,0x3
    2bb2:	01d31693          	slli	a3,t1,0x1d
    2bb6:	00385813          	srli	a6,a6,0x3
    2bba:	0106e833          	or	a6,a3,a6
    2bbe:	00335793          	srli	a5,t1,0x3
    2bc2:	bba5                	j	293a <__subdf3+0x378>
    2bc4:	41ee89b3          	sub	s3,t4,t5
    2bc8:	40670633          	sub	a2,a4,t1
    2bcc:	013eb933          	sltu	s2,t4,s3
    2bd0:	41260933          	sub	s2,a2,s2
    2bd4:	8436                	mv	s0,a3
    2bd6:	b47d                	j	2684 <__subdf3+0xc2>
    2bd8:	060e                	slli	a2,a2,0x3
    2bda:	01d71813          	slli	a6,a4,0x1d
    2bde:	820d                	srli	a2,a2,0x3
    2be0:	00c86833          	or	a6,a6,a2
    2be4:	00375793          	srli	a5,a4,0x3
    2be8:	bb89                	j	293a <__subdf3+0x378>
    2bea:	41df09b3          	sub	s3,t5,t4
    2bee:	40e307b3          	sub	a5,t1,a4
    2bf2:	013f3633          	sltu	a2,t5,s3
    2bf6:	40c78633          	sub	a2,a5,a2
    2bfa:	00861793          	slli	a5,a2,0x8
    2bfe:	0a07d763          	bgez	a5,2cac <__subdf3+0x6ea>
    2c02:	41ee89b3          	sub	s3,t4,t5
    2c06:	406707b3          	sub	a5,a4,t1
    2c0a:	013ebeb3          	sltu	t4,t4,s3
    2c0e:	41d78633          	sub	a2,a5,t4
    2c12:	8436                	mv	s0,a3
    2c14:	b4d1                	j	26d8 <__subdf3+0x116>
    2c16:	01e36333          	or	t1,t1,t5
    2c1a:	00603833          	snez	a6,t1
    2c1e:	b3fd                	j	2a0c <__subdf3+0x44a>
    2c20:	fe058813          	addi	a6,a1,-32
    2c24:	02000793          	li	a5,32
    2c28:	010359b3          	srl	s3,t1,a6
    2c2c:	00f58a63          	beq	a1,a5,2c40 <__subdf3+0x67e>
    2c30:	04000793          	li	a5,64
    2c34:	40b785b3          	sub	a1,a5,a1
    2c38:	00b31333          	sll	t1,t1,a1
    2c3c:	006f6f33          	or	t5,t5,t1
    2c40:	01e03833          	snez	a6,t5
    2c44:	01386833          	or	a6,a6,s3
    2c48:	b57d                	j	2af6 <__subdf3+0x534>
    2c4a:	41ee89b3          	sub	s3,t4,t5
    2c4e:	406707b3          	sub	a5,a4,t1
    2c52:	013ebeb3          	sltu	t4,t4,s3
    2c56:	41d78633          	sub	a2,a5,t4
    2c5a:	8436                	mv	s0,a3
    2c5c:	4485                	li	s1,1
    2c5e:	bc11                	j	2672 <__subdf3+0xb0>
    2c60:	00361813          	slli	a6,a2,0x3
    2c64:	01d71793          	slli	a5,a4,0x1d
    2c68:	00385813          	srli	a6,a6,0x3
    2c6c:	00f86833          	or	a6,a6,a5
    2c70:	00375793          	srli	a5,a4,0x3
    2c74:	b1ad                	j	28de <__subdf3+0x31c>
    2c76:	01df09b3          	add	s3,t5,t4
    2c7a:	00e307b3          	add	a5,t1,a4
    2c7e:	01e9bf33          	sltu	t5,s3,t5
    2c82:	01e78633          	add	a2,a5,t5
    2c86:	00861793          	slli	a5,a2,0x8
    2c8a:	c207d9e3          	bgez	a5,28bc <__subdf3+0x2fa>
    2c8e:	ff8007b7          	lui	a5,0xff800
    2c92:	17fd                	addi	a5,a5,-1
    2c94:	8e7d                	and	a2,a2,a5
    2c96:	4485                	li	s1,1
    2c98:	b115                	j	28bc <__subdf3+0x2fa>
    2c9a:	060e                	slli	a2,a2,0x3
    2c9c:	01d71813          	slli	a6,a4,0x1d
    2ca0:	820d                	srli	a2,a2,0x3
    2ca2:	00c86833          	or	a6,a6,a2
    2ca6:	00375793          	srli	a5,a4,0x3
    2caa:	b135                	j	28d6 <__subdf3+0x314>
    2cac:	00c9e833          	or	a6,s3,a2
    2cb0:	d00806e3          	beqz	a6,29bc <__subdf3+0x3fa>
    2cb4:	b121                	j	28bc <__subdf3+0x2fa>
    2cb6:	fe058813          	addi	a6,a1,-32
    2cba:	02000793          	li	a5,32
    2cbe:	010359b3          	srl	s3,t1,a6
    2cc2:	00f58a63          	beq	a1,a5,2cd6 <__subdf3+0x714>
    2cc6:	04000793          	li	a5,64
    2cca:	40b785b3          	sub	a1,a5,a1
    2cce:	00b31333          	sll	t1,t1,a1
    2cd2:	006f6f33          	or	t5,t5,t1
    2cd6:	01e03833          	snez	a6,t5
    2cda:	01386833          	or	a6,a6,s3
    2cde:	b33d                	j	2a0c <__subdf3+0x44a>
    2ce0:	4401                	li	s0,0
    2ce2:	7ff00713          	li	a4,2047
    2ce6:	000807b7          	lui	a5,0x80
    2cea:	bc35                	j	2726 <__subdf3+0x164>
    2cec:	01df09b3          	add	s3,t5,t4
    2cf0:	00e307b3          	add	a5,t1,a4
    2cf4:	01d9beb3          	sltu	t4,s3,t4
    2cf8:	01d78633          	add	a2,a5,t4
    2cfc:	bb69                	j	2a96 <__subdf3+0x4d4>

00002cfe <__fixdfdi>:
    2cfe:	00100737          	lui	a4,0x100
    2d02:	0145d793          	srli	a5,a1,0x14
    2d06:	fff70693          	addi	a3,a4,-1 # fffff <_data_lma+0xfce9b>
    2d0a:	7ff7f793          	andi	a5,a5,2047
    2d0e:	3fe00813          	li	a6,1022
    2d12:	8eed                	and	a3,a3,a1
    2d14:	01f5d613          	srli	a2,a1,0x1f
    2d18:	02f85363          	bge	a6,a5,2d3e <__fixdfdi+0x40>
    2d1c:	43d00593          	li	a1,1085
    2d20:	02f5d263          	bge	a1,a5,2d44 <__fixdfdi+0x46>
    2d24:	4585                	li	a1,1
    2d26:	8d91                	sub	a1,a1,a2
    2d28:	40b00533          	neg	a0,a1
    2d2c:	41f5d613          	srai	a2,a1,0x1f
    2d30:	800005b7          	lui	a1,0x80000
    2d34:	00a037b3          	snez	a5,a0
    2d38:	8d91                	sub	a1,a1,a2
    2d3a:	8d9d                	sub	a1,a1,a5
    2d3c:	8082                	ret
    2d3e:	4501                	li	a0,0
    2d40:	4581                	li	a1,0
    2d42:	8082                	ret
    2d44:	43200813          	li	a6,1074
    2d48:	00e6e5b3          	or	a1,a3,a4
    2d4c:	02f85463          	bge	a6,a5,2d74 <__fixdfdi+0x76>
    2d50:	bad78713          	addi	a4,a5,-1107 # 7fbad <_data_lma+0x7ca49>
    2d54:	bcd78793          	addi	a5,a5,-1075
    2d58:	04074563          	bltz	a4,2da2 <__fixdfdi+0xa4>
    2d5c:	00e515b3          	sll	a1,a0,a4
    2d60:	4501                	li	a0,0
    2d62:	d265                	beqz	a2,2d42 <__fixdfdi+0x44>
    2d64:	40a00533          	neg	a0,a0
    2d68:	00a037b3          	snez	a5,a0
    2d6c:	40b005b3          	neg	a1,a1
    2d70:	8d9d                	sub	a1,a1,a5
    2d72:	8082                	ret
    2d74:	43300693          	li	a3,1075
    2d78:	8e9d                	sub	a3,a3,a5
    2d7a:	477d                	li	a4,31
    2d7c:	00d74c63          	blt	a4,a3,2d94 <__fixdfdi+0x96>
    2d80:	bed78713          	addi	a4,a5,-1043
    2d84:	00e59733          	sll	a4,a1,a4
    2d88:	00d55533          	srl	a0,a0,a3
    2d8c:	8d59                	or	a0,a0,a4
    2d8e:	00d5d5b3          	srl	a1,a1,a3
    2d92:	bfc1                	j	2d62 <__fixdfdi+0x64>
    2d94:	41300513          	li	a0,1043
    2d98:	8d1d                	sub	a0,a0,a5
    2d9a:	00a5d533          	srl	a0,a1,a0
    2d9e:	4581                	li	a1,0
    2da0:	b7c9                	j	2d62 <__fixdfdi+0x64>
    2da2:	46fd                	li	a3,31
    2da4:	00155713          	srli	a4,a0,0x1
    2da8:	8e9d                	sub	a3,a3,a5
    2daa:	00d75733          	srl	a4,a4,a3
    2dae:	00f595b3          	sll	a1,a1,a5
    2db2:	8dd9                	or	a1,a1,a4
    2db4:	00f51533          	sll	a0,a0,a5
    2db8:	b76d                	j	2d62 <__fixdfdi+0x64>

00002dba <__floatdidf>:
    2dba:	1101                	addi	sp,sp,-32
    2dbc:	ce06                	sw	ra,28(sp)
    2dbe:	cc22                	sw	s0,24(sp)
    2dc0:	ca26                	sw	s1,20(sp)
    2dc2:	c84a                	sw	s2,16(sp)
    2dc4:	c64e                	sw	s3,12(sp)
    2dc6:	00b567b3          	or	a5,a0,a1
    2dca:	cf95                	beqz	a5,2e06 <__floatdidf+0x4c>
    2dcc:	84ae                	mv	s1,a1
    2dce:	89aa                	mv	s3,a0
    2dd0:	01f5d913          	srli	s2,a1,0x1f
    2dd4:	0405cd63          	bltz	a1,2e2e <__floatdidf+0x74>
    2dd8:	8426                	mv	s0,s1
    2dda:	c4a5                	beqz	s1,2e42 <__floatdidf+0x88>
    2ddc:	8526                	mv	a0,s1
    2dde:	2279                	jal	2f6c <__clzsi2>
    2de0:	43e00693          	li	a3,1086
    2de4:	8e89                	sub	a3,a3,a0
    2de6:	43300793          	li	a5,1075
    2dea:	08d7c963          	blt	a5,a3,2e7c <__floatdidf+0xc2>
    2dee:	00c49793          	slli	a5,s1,0xc
    2df2:	462d                	li	a2,11
    2df4:	874e                	mv	a4,s3
    2df6:	7ff6f693          	andi	a3,a3,2047
    2dfa:	83b1                	srli	a5,a5,0xc
    2dfc:	00a65963          	bge	a2,a0,2e0e <__floatdidf+0x54>
    2e00:	ff550613          	addi	a2,a0,-11 # 7ffff5 <_data_lma+0x7fce91>
    2e04:	a8b1                	j	2e60 <__floatdidf+0xa6>
    2e06:	4901                	li	s2,0
    2e08:	4681                	li	a3,0
    2e0a:	4781                	li	a5,0
    2e0c:	4701                	li	a4,0
    2e0e:	07b2                	slli	a5,a5,0xc
    2e10:	40f2                	lw	ra,28(sp)
    2e12:	4462                	lw	s0,24(sp)
    2e14:	06d2                	slli	a3,a3,0x14
    2e16:	83b1                	srli	a5,a5,0xc
    2e18:	097e                	slli	s2,s2,0x1f
    2e1a:	8fd5                	or	a5,a5,a3
    2e1c:	0127e7b3          	or	a5,a5,s2
    2e20:	44d2                	lw	s1,20(sp)
    2e22:	4942                	lw	s2,16(sp)
    2e24:	49b2                	lw	s3,12(sp)
    2e26:	853a                	mv	a0,a4
    2e28:	85be                	mv	a1,a5
    2e2a:	6105                	addi	sp,sp,32
    2e2c:	8082                	ret
    2e2e:	40a00533          	neg	a0,a0
    2e32:	00a036b3          	snez	a3,a0
    2e36:	40b004b3          	neg	s1,a1
    2e3a:	8c95                	sub	s1,s1,a3
    2e3c:	89aa                	mv	s3,a0
    2e3e:	8426                	mv	s0,s1
    2e40:	fcd1                	bnez	s1,2ddc <__floatdidf+0x22>
    2e42:	854e                	mv	a0,s3
    2e44:	2225                	jal	2f6c <__clzsi2>
    2e46:	862a                	mv	a2,a0
    2e48:	43e00693          	li	a3,1086
    2e4c:	02050513          	addi	a0,a0,32
    2e50:	8e89                	sub	a3,a3,a0
    2e52:	02a00793          	li	a5,42
    2e56:	7ff6f693          	andi	a3,a3,2047
    2e5a:	0ca7c763          	blt	a5,a0,2f28 <__floatdidf+0x16e>
    2e5e:	0655                	addi	a2,a2,21
    2e60:	02b00713          	li	a4,43
    2e64:	8f09                	sub	a4,a4,a0
    2e66:	00c497b3          	sll	a5,s1,a2
    2e6a:	00e9d733          	srl	a4,s3,a4
    2e6e:	8f5d                	or	a4,a4,a5
    2e70:	00c71793          	slli	a5,a4,0xc
    2e74:	83b1                	srli	a5,a5,0xc
    2e76:	00c99733          	sll	a4,s3,a2
    2e7a:	bf51                	j	2e0e <__floatdidf+0x54>
    2e7c:	43600793          	li	a5,1078
    2e80:	02d7db63          	bge	a5,a3,2eb6 <__floatdidf+0xfc>
    2e84:	4721                	li	a4,8
    2e86:	8f09                	sub	a4,a4,a0
    2e88:	fe070593          	addi	a1,a4,-32
    2e8c:	0c05c263          	bltz	a1,2f50 <__floatdidf+0x196>
    2e90:	00b4d5b3          	srl	a1,s1,a1
    2e94:	4701                	li	a4,0
    2e96:	01850613          	addi	a2,a0,24
    2e9a:	03850793          	addi	a5,a0,56
    2e9e:	08064c63          	bltz	a2,2f36 <__floatdidf+0x17c>
    2ea2:	00c99633          	sll	a2,s3,a2
    2ea6:	4981                	li	s3,0
    2ea8:	00c9e9b3          	or	s3,s3,a2
    2eac:	01303633          	snez	a2,s3
    2eb0:	00c5e9b3          	or	s3,a1,a2
    2eb4:	843a                	mv	s0,a4
    2eb6:	47a1                	li	a5,8
    2eb8:	864e                	mv	a2,s3
    2eba:	04a7c963          	blt	a5,a0,2f0c <__floatdidf+0x152>
    2ebe:	ff8007b7          	lui	a5,0xff800
    2ec2:	17fd                	addi	a5,a5,-1
    2ec4:	00767593          	andi	a1,a2,7
    2ec8:	00f47733          	and	a4,s0,a5
    2ecc:	c585                	beqz	a1,2ef4 <__floatdidf+0x13a>
    2ece:	00f67593          	andi	a1,a2,15
    2ed2:	4811                	li	a6,4
    2ed4:	03058063          	beq	a1,a6,2ef4 <__floatdidf+0x13a>
    2ed8:	00460593          	addi	a1,a2,4 # ff800004 <_eusrstack+0xdf7f0004>
    2edc:	00c5b633          	sltu	a2,a1,a2
    2ee0:	9732                	add	a4,a4,a2
    2ee2:	00871613          	slli	a2,a4,0x8
    2ee6:	08065163          	bgez	a2,2f68 <__floatdidf+0x1ae>
    2eea:	43f00693          	li	a3,1087
    2eee:	8f7d                	and	a4,a4,a5
    2ef0:	8e89                	sub	a3,a3,a0
    2ef2:	862e                	mv	a2,a1
    2ef4:	00365513          	srli	a0,a2,0x3
    2ef8:	00971793          	slli	a5,a4,0x9
    2efc:	01d71613          	slli	a2,a4,0x1d
    2f00:	00a66733          	or	a4,a2,a0
    2f04:	83b1                	srli	a5,a5,0xc
    2f06:	7ff6f693          	andi	a3,a3,2047
    2f0a:	b711                	j	2e0e <__floatdidf+0x54>
    2f0c:	02800793          	li	a5,40
    2f10:	ff850593          	addi	a1,a0,-8
    2f14:	8f89                	sub	a5,a5,a0
    2f16:	00f9d7b3          	srl	a5,s3,a5
    2f1a:	00b41733          	sll	a4,s0,a1
    2f1e:	00e7e433          	or	s0,a5,a4
    2f22:	00b99633          	sll	a2,s3,a1
    2f26:	bf61                	j	2ebe <__floatdidf+0x104>
    2f28:	1655                	addi	a2,a2,-11
    2f2a:	00c997b3          	sll	a5,s3,a2
    2f2e:	07b2                	slli	a5,a5,0xc
    2f30:	83b1                	srli	a5,a5,0xc
    2f32:	4701                	li	a4,0
    2f34:	bde9                	j	2e0e <__floatdidf+0x54>
    2f36:	467d                	li	a2,31
    2f38:	0019d813          	srli	a6,s3,0x1
    2f3c:	8e1d                	sub	a2,a2,a5
    2f3e:	00c85833          	srl	a6,a6,a2
    2f42:	00f49633          	sll	a2,s1,a5
    2f46:	00c86633          	or	a2,a6,a2
    2f4a:	00f999b3          	sll	s3,s3,a5
    2f4e:	bfa9                	j	2ea8 <__floatdidf+0xee>
    2f50:	467d                	li	a2,31
    2f52:	8e19                	sub	a2,a2,a4
    2f54:	00149793          	slli	a5,s1,0x1
    2f58:	00e9d5b3          	srl	a1,s3,a4
    2f5c:	00c797b3          	sll	a5,a5,a2
    2f60:	8ddd                	or	a1,a1,a5
    2f62:	00e4d733          	srl	a4,s1,a4
    2f66:	bf05                	j	2e96 <__floatdidf+0xdc>
    2f68:	862e                	mv	a2,a1
    2f6a:	b769                	j	2ef4 <__floatdidf+0x13a>

00002f6c <__clzsi2>:
    2f6c:	67c1                	lui	a5,0x10
    2f6e:	02f57c63          	bgeu	a0,a5,2fa6 <__clzsi2+0x3a>
    2f72:	0ff00793          	li	a5,255
    2f76:	02000713          	li	a4,32
    2f7a:	00a7eb63          	bltu	a5,a0,2f90 <__clzsi2+0x24>
    2f7e:	00000797          	auipc	a5,0x0
    2f82:	0e678793          	addi	a5,a5,230 # 3064 <__clz_tab>
    2f86:	97aa                	add	a5,a5,a0
    2f88:	2388                	lbu	a0,0(a5)
    2f8a:	40a70533          	sub	a0,a4,a0
    2f8e:	8082                	ret
    2f90:	8121                	srli	a0,a0,0x8
    2f92:	00000797          	auipc	a5,0x0
    2f96:	0d278793          	addi	a5,a5,210 # 3064 <__clz_tab>
    2f9a:	97aa                	add	a5,a5,a0
    2f9c:	2388                	lbu	a0,0(a5)
    2f9e:	4761                	li	a4,24
    2fa0:	40a70533          	sub	a0,a4,a0
    2fa4:	8082                	ret
    2fa6:	010007b7          	lui	a5,0x1000
    2faa:	00f56d63          	bltu	a0,a5,2fc4 <__clzsi2+0x58>
    2fae:	8161                	srli	a0,a0,0x18
    2fb0:	00000797          	auipc	a5,0x0
    2fb4:	0b478793          	addi	a5,a5,180 # 3064 <__clz_tab>
    2fb8:	97aa                	add	a5,a5,a0
    2fba:	2388                	lbu	a0,0(a5)
    2fbc:	4721                	li	a4,8
    2fbe:	40a70533          	sub	a0,a4,a0
    2fc2:	8082                	ret
    2fc4:	8141                	srli	a0,a0,0x10
    2fc6:	00000797          	auipc	a5,0x0
    2fca:	09e78793          	addi	a5,a5,158 # 3064 <__clz_tab>
    2fce:	97aa                	add	a5,a5,a0
    2fd0:	2388                	lbu	a0,0(a5)
    2fd2:	4741                	li	a4,16
    2fd4:	40a70533          	sub	a0,a4,a0
    2fd8:	8082                	ret
    2fda:	0000                	unimp
    2fdc:	74737953          	0x74737953
    2fe0:	6d65                	lui	s10,0x19
    2fe2:	3a6b6c43          	fmadd.d	fs8,fs6,ft6,ft7,unknown
    2fe6:	6425                	lui	s0,0x9
    2fe8:	0a0d                	addi	s4,s4,3
    2fea:	0000                	unimp
    2fec:	70696843          	fmadd.s	fa6,fs2,ft6,fa4,unknown
    2ff0:	4449                	li	s0,18
    2ff2:	253a                	lhu	a4,10(a0)
    2ff4:	3830                	lbu	a2,19(s0)
    2ff6:	0d78                	addi	a4,sp,668
    2ff8:	000a                	c.slli	zero,0x2
    2ffa:	0000                	unimp
    2ffc:	bccaf5b3          	0xbccaf5b3
    3000:	eacdafbb          	0xeacdafbb
    3004:	000dc9b3          	xor	s3,s11,zero
    3008:	4d54                	lw	a3,28(a0)
    300a:	3631                	jal	2b16 <__subdf3+0x554>
    300c:	fdca3733          	0xfdca3733
    3010:	ebc2                	fsw	fa6,212(sp)
    3012:	dcb9                	beqz	s1,2f70 <__clzsi2+0x4>
    3014:	e2b2                	fsw	fa2,68(sp)
    3016:	d4ca                	sw	s2,104(sp)
    3018:	000d                	c.nop	3
    301a:	0000                	unimp
    301c:	6e28                	flw	fa0,88(a2)
    301e:	6c75                	lui	s8,0x1d
    3020:	296c                	lbu	a1,22(a0)
    3022:	0000                	unimp
    3024:	f2f6                	fsw	ft9,100(sp)
    3026:	ffff                	0xffff
    3028:	f1e8                	fsw	fa0,100(a1)
    302a:	ffff                	0xffff
    302c:	f1e8                	fsw	fa0,100(a1)
    302e:	ffff                	0xffff
    3030:	f1e6                	fsw	fs9,224(sp)
    3032:	ffff                	0xffff
    3034:	f1ee                	fsw	fs11,224(sp)
    3036:	ffff                	0xffff
    3038:	f1ee                	fsw	fs11,224(sp)
    303a:	ffff                	0xffff
    303c:	f1b4                	fsw	fa3,96(a1)
    303e:	ffff                	0xffff
    3040:	f1e6                	fsw	fs9,224(sp)
    3042:	ffff                	0xffff
    3044:	f1ee                	fsw	fs11,224(sp)
    3046:	ffff                	0xffff
    3048:	f1b4                	fsw	fa3,96(a1)
    304a:	ffff                	0xffff
    304c:	f1ee                	fsw	fs11,224(sp)
    304e:	ffff                	0xffff
    3050:	f1e6                	fsw	fs9,224(sp)
    3052:	ffff                	0xffff
    3054:	f2e2                	fsw	fs8,100(sp)
    3056:	ffff                	0xffff
    3058:	f2e2                	fsw	fs8,100(sp)
    305a:	ffff                	0xffff
    305c:	f2e2                	fsw	fs8,100(sp)
    305e:	ffff                	0xffff
    3060:	f1b4                	fsw	fa3,96(a1)
    3062:	ffff                	0xffff

00003064 <__clz_tab>:
    3064:	0100 0202 0303 0303 0404 0404 0404 0404     ................
    3074:	0505 0505 0505 0505 0505 0505 0505 0505     ................
    3084:	0606 0606 0606 0606 0606 0606 0606 0606     ................
    3094:	0606 0606 0606 0606 0606 0606 0606 0606     ................
    30a4:	0707 0707 0707 0707 0707 0707 0707 0707     ................
    30b4:	0707 0707 0707 0707 0707 0707 0707 0707     ................
    30c4:	0707 0707 0707 0707 0707 0707 0707 0707     ................
    30d4:	0707 0707 0707 0707 0707 0707 0707 0707     ................
    30e4:	0808 0808 0808 0808 0808 0808 0808 0808     ................
    30f4:	0808 0808 0808 0808 0808 0808 0808 0808     ................
    3104:	0808 0808 0808 0808 0808 0808 0808 0808     ................
    3114:	0808 0808 0808 0808 0808 0808 0808 0808     ................
    3124:	0808 0808 0808 0808 0808 0808 0808 0808     ................
    3134:	0808 0808 0808 0808 0808 0808 0808 0808     ................
    3144:	0808 0808 0808 0808 0808 0808 0808 0808     ................
    3154:	0808 0808 0808 0808 0808 0808 0808 0808     ................
