
AHL-CH32V307-LCD_ST7796U.elf:     file format elf32-littleriscv
AHL-CH32V307-LCD_ST7796U.elf
architecture: riscv:rv32, flags 0x00000112:
EXEC_P, HAS_SYMS, D_PAGED
start address 0x0001c400

Program Header:
    LOAD off    0x00000000 vaddr 0x0001c000 paddr 0x0001c000 align 2**12
         filesz 0x00006558 memsz 0x00006558 flags r-x
    LOAD off    0x00007000 vaddr 0x20005000 paddr 0x00022558 align 2**12
         filesz 0x00000088 memsz 0x0000297c flags rw-
    LOAD off    0x00007800 vaddr 0x2001f800 paddr 0x2001f800 align 2**12
         filesz 0x00000000 memsz 0x00000800 flags rw-

Sections:
Idx Name           Size      VMA       LMA       File off  Algn  Flags
  0 .init          00000038  0001c400  0001c400  00000400  2**1  CONTENTS, ALLOC, LOAD, READONLY, CODE
  1 .vector        000001c8  0001c438  0001c438  00000438  2**1  CONTENTS, ALLOC, LOAD, READONLY, CODE
  2 .text          00005f58  0001c600  0001c600  00000600  2**3  CONTENTS, ALLOC, LOAD, READONLY, CODE
  3 .fini          00000000  00022558  00022558  00007088  2**0  CONTENTS, ALLOC, LOAD, CODE
  4 .dalign        00000000  20005000  20005000  00007088  2**0  CONTENTS
  5 .dlalign       00000000  00022558  00022558  00007088  2**0  CONTENTS
  6 .data          00000088  20005000  00022558  00007000  2**2  CONTENTS, ALLOC, LOAD, DATA
  7 .bss           000028f4  20005088  000225e0  00007088  2**2  ALLOC
  8 .stack         00000800  2001f800  2001f800  00007800  2**0  ALLOC
  9 .debug_info    0001379e  00000000  00000000  00007088  2**0  CONTENTS, READONLY, DEBUGGING
 10 .debug_abbrev  00002c35  00000000  00000000  0001a826  2**0  CONTENTS, READONLY, DEBUGGING
 11 .debug_loc     00004502  00000000  00000000  0001d45b  2**0  CONTENTS, READONLY, DEBUGGING
 12 .debug_aranges 000006f8  00000000  00000000  00021960  2**3  CONTENTS, READONLY, DEBUGGING
 13 .debug_ranges  00000618  00000000  00000000  00022058  2**3  CONTENTS, READONLY, DEBUGGING
 14 .debug_line    0000c4e7  00000000  00000000  00022670  2**0  CONTENTS, READONLY, DEBUGGING
 15 .debug_str     00001ea0  00000000  00000000  0002eb57  2**0  CONTENTS, READONLY, DEBUGGING
 16 .comment       00000033  00000000  00000000  000309f7  2**0  CONTENTS, READONLY
 17 .debug_frame   00001594  00000000  00000000  00030a2c  2**2  CONTENTS, READONLY, DEBUGGING
SYMBOL TABLE:
0001c400 l    d  .init	00000000 .init
0001c438 l    d  .vector	00000000 .vector
0001c600 l    d  .text	00000000 .text
00022558 l    d  .fini	00000000 .fini
20005000 l    d  .dalign	00000000 .dalign
00022558 l    d  .dlalign	00000000 .dlalign
20005000 l    d  .data	00000000 .data
20005088 l    d  .bss	00000000 .bss
2001f800 l    d  .stack	00000000 .stack
00000000 l    d  .debug_info	00000000 .debug_info
00000000 l    d  .debug_abbrev	00000000 .debug_abbrev
00000000 l    d  .debug_loc	00000000 .debug_loc
00000000 l    d  .debug_aranges	00000000 .debug_aranges
00000000 l    d  .debug_ranges	00000000 .debug_ranges
00000000 l    d  .debug_line	00000000 .debug_line
00000000 l    d  .debug_str	00000000 .debug_str
00000000 l    d  .comment	00000000 .comment
00000000 l    d  .debug_frame	00000000 .debug_frame
00000000 l    df *ABS*	00000000 ./obj/startup_ch32v30x.o
0001c438 l       .vector	00000000 _vector_base
00000000 l    df *ABS*	00000000 timer.c
00000000 l    df *ABS*	00000000 sccb.c
00000000 l    df *ABS*	00000000 cam.c
2000508c l     O .bss	00001880 image16
00000000 l    df *ABS*	00000000 main.c
00000000 l    df *ABS*	00000000 system_ch32v30x.c
0001d9c4 l     F .text	000000d4 SetSysClockTo72
0001da98 l     F .text	0000000c SetSysClock
00000000 l    df *ABS*	00000000 flash.c
00000000 l    df *ABS*	00000000 gpio.c
00000000 l    df *ABS*	00000000 spi.c
00000000 l    df *ABS*	00000000 gec.c
00000000 l    df *ABS*	00000000 uart.c
00000000 l    df *ABS*	00000000 lcd.c
00021c8c l     O .text	00000066 GB_16
00021cf4 l     O .text	00000600 nAsciiDot
00000000 l    df *ABS*	00000000 isr.c
20005088 l     O .bss	00000001 TimerCount.3510
00000000 l    df *ABS*	00000000 core_riscv.c
00000000 l    df *ABS*	00000000 user.c
00000000 l    df *ABS*	00000000 printf.c
0001f884 l     F .text	0000003c printk_putc
0001f8c0 l     F .text	00000080 printk_mknumstr
0001f940 l     F .text	00000036 printk_pad_zero
0001f976 l     F .text	00000036 printk_pad_space
00000000 l    df *ABS*	00000000 libgcc2.c
00000000 l    df *ABS*	00000000 libgcc2.c
00000000 l    df *ABS*	00000000 ledf2.c
00000000 l    df *ABS*	00000000 muldf3.c
00000000 l    df *ABS*	00000000 subdf3.c
00000000 l    df *ABS*	00000000 fixunsdfsi.c
00000000 l    df *ABS*	00000000 floatunsidf.c
00000000 l    df *ABS*	00000000 fixunsdfdi.c
00000000 l    df *ABS*	00000000 libgcc2.c
00000000 l    df *ABS*	00000000 memcpy.c
00000000 l    df *ABS*	00000000 strlen.c
00000000 l    df *ABS*	00000000 libgcc2.c
0001dc7a g     F .text	000000de flash_write
0001f3e4 g     F .text	0000001e LCD_DrawPoint
0001ca5c g     F .text	0000003e sccb_stop
0001dfb2 g     F .text	00000034 gpio_get_int
0001c9bc g     F .text	00000016 sdio_output
0001dbaa g     F .text	0000000e flash_read_physical
0001c9a6 g     F .text	00000016 sdio_input
0000077f g       *ABS*	00000000 GEC_USER_SECTOR_END
0001f828 g     F .text	00000032 HardFault_Handler
20005014 g     O .data	0000001c table_irq_exti
20006910 g     O .bss	00000001 cam_rec_flag
0001ca9a g     F .text	0000006a sccb_send1
0001f0da g     F .text	00000054 LCD_Clear
0001ee72 g     F .text	00000058 uart_enable_re_int
20005088 g       .bss	00000000 _sbss
00000800 g       *ABS*	00000000 __stack_size
0001efaa g     F .text	00000036 LCD_WR_REG
000001c4 g       *ABS*	00000000 GEC_USER_SECTOR_START
0001ef0e g     F .text	00000024 LCD_Delay_ms
20006911 g     O .bss	00000001 ov_sta
00021756 g     F .text	000000b6 memcpy
000208d8 g     F .text	000000b6 .hidden __ltdf2
0001f6c0 g     F .text	00000052 LCD_DrawSurface
0001d762 g     F .text	0000013a LCD_show_first
20005080 g     O .data	00000004 SystemCoreClock
0001f402 g     F .text	000000bc LCD_DrawLine
0001cf78 g     F .text	000000c6 cam_config_window
0001e18a g     F .text	00000772 spi_init
0001c438 g       .init	00000000 _einit
00021580 g     F .text	0000005c .hidden __fixunsdfsi
0001f516 g     F .text	00000074 LCD_ShowCharactor
0001ceba g     F .text	00000096 cam_gpio_init
0001db36 g     F .text	0000005a flash_erase
0001dbe4 g     F .text	00000096 flash_Best
0001cf50 g     F .text	00000014 cam_reg_write
20006914 g     O .bss	00000004 gcReccrc32
20006918 g     O .bss	00000001 gTimberFlag1s
0001cc7c g     F .text	000001e6 cam_getimg_5656
0002054a g     F .text	0000038e .hidden __umoddi3
0001c9d2 g     F .text	00000022 SCCB_Init
0001daf0 g     F .text	00000046 flash_init
000201b2 g     F .text	00000398 .hidden __udivdi3
000215dc g     F .text	00000066 .hidden __floatunsidf
0001f9c0 g     F .text	000001c8 printk_mkfloatstr
0001c946 g     F .text	00000060 timer_clear_int
2000797c g       .bss	00000000 _ebss
00000100 g       *ABS*	00000000 MCU_SECTORSIZE
0001ef68 g     F .text	00000042 LCD_WR_DATA
0001eeca g     F .text	00000044 uart_get_re_int
0001c6a8 g     F .text	000001c8 timer_init
0001f712 g     F .text	0000003a UART_User_Handler
000208d8 g     F .text	000000b6 .hidden __ledf2
20020000 g       *ABS*	00000000 GEC_USER_RAM_END
000200f6 g     F .text	00000032 myprintf
000216e0 g     F .text	00000076 .hidden __clzsi2
0001ea6c g     F .text	00000332 uart_init
0001df0c g     F .text	000000a6 gpio_get
0001c400 g       .init	00000000 _start
2000690c g     O .bss	00000004 component_fun
20005000 g       *ABS*	00000000 GEC_USER_RAM_START
0001f874 g     F .text	00000008 EXTI15_10_IRQHandler
0001d89c g     F .text	00000022 mdelay_ms
20006919 g     O .bss	00000001 cam_refresh_end
0001ce8e g     F .text	00000016 cam_FIFO_WR_1
0001f860 g     F .text	00000006 __get_MCAUSE
0001f87c g     F .text	00000008 TIM7_IRQHandler
0001f74c g     F .text	00000072 Cam_User_Handler
2000691c g     O .bss	00000047 gShakeData
20005000 g       .dalign	00000000 _data_vma
0001e8fc g     F .text	000000ac spi_send1
0001f9ac g     F .text	00000014 out_char
0001fb88 g     F .text	0000056e printk
0001db90 g     F .text	0000001a flash_read_logic
2000505c g     O .data	00000020 table_irq_uart
0001c870 g     F .text	000000d6 timer_get_int
0001e014 g     F .text	0000002c GPIO_EXTILineConfig
0001c9f4 g     F .text	0000002a Delay_ms
0002098e g     F .text	000004b8 .hidden __muldf3
0001ee00 g     F .text	00000072 uart_re1
0001f866 g     F .text	00000006 __get_MTVAL
0001f85a g     F .text	00000006 __get_MEPC
0001ef32 g     F .text	00000036 LCD_WR_DATA8
0001dfe6 g     F .text	0000002e gpio_clear_int
0001f12e g     F .text	000002b6 LCD_Init
0001c600 g     F .text	000000a8 memset
0001d8be g     F .text	00000106 main
0001ce78 g     F .text	00000016 cam_FIFO_WRST_0
0001dd98 g     F .text	0000000e gpio_get_port_pin
0001cea4 g     F .text	00000016 cam_FIFO_WR_0
0001daa4 g     F .text	0000004c SystemInit
0001cbf8 g     F .text	00000042 sccb_nack
00021642 g     F .text	0000009e .hidden __fixunsdfdi
20006963 g     O .bss	00000001 Rst_Count
0001cf64 g     F .text	00000014 cam_reg_read
00022458 g     O .text	00000100 .hidden __clz_tab
0001c400 g       .init	00000000 _sinit
0001d03e g     F .text	0000060c cam_reg_init
0001efe0 g     F .text	00000026 LCD_WR_REG_DATA
20006964 g     O .bss	00000002 gcRecvLen
0001dd58 g     F .text	00000040 flash_write_physical
0001dbb8 g     F .text	0000002c flash_isempty
0001e040 g     F .text	0000014a gpio_enable_int
0001cc3a g     F .text	00000042 SCCB_Read
20020000 g       *ABS*	00000000 _eusrstack
0001e9a8 g     F .text	000000b0 Vectors_Init
20006966 g     O .bss	00000002 gcRecvDCLen
20005030 g     O .data	0000000c SPI_ARR
20005088 g       .data	00000000 _edata
0001ce62 g     F .text	00000016 cam_FIFO_WRST_1
20006968 g     O .bss	00000002 gRecvdataLen
0001d6e8 g     F .text	0000007a LCD_show_status
00022558 g       .dlalign	00000000 _data_lma
0001cb84 g     F .text	00000074 sccb_rec1
0001f86c g     F .text	00000008 USART2_IRQHandler
0001f060 g     F .text	0000007a Address_set
20005000 g     O .data	00000014 GPIO_ARR
0001ca1e g     F .text	0000003e sccb_start
00020128  w      .text	00000000 handle_reset
0001cb04 g     F .text	0000004e sccb_waitAck
2000696a g     O .bss	00000001 cam_fifo_ready
0001f58a g     F .text	00000136 LCD_ShowString
2000696b g     O .bss	00000001 gFunFlag
0001d676 g     F .text	00000072 cam_init
2000696c g     O .bss	00000001 cam_ready
0001cb52 g     F .text	00000032 SCCB_Write
0002180c g     F .text	00000012 strlen
0001ed9e g     F .text	00000062 uart_send1
0001f7be g     F .text	0000006a TIMER_USER_Handler
0001ea58 g     F .text	00000014 uart_is_uartNo
0001f006 g     F .text	0000005a LCD_direction
0001dda6 g     F .text	00000054 gpio_set
2000503c g     O .data	00000020 USART_ARR
0001d64a g     F .text	0000002c Delay_us
0001ddfa g     F .text	00000112 gpio_init
00020e46 g     F .text	0000073a .hidden __subdf3
20006970 g     O .bss	00001000 gcRecvBuf
20007970 g     O .bss	0000000a gcUpdateFlag
00000000 g       *ABS*	00000000 MCU_FLASH_ADDR_START
0001f4be g     F .text	00000058 LCD_DrawRectangle



Disassembly of section .init:

0001c400 <_sinit>:
_start():
E:\02-项目\13-RISCV实验箱\模块驱动\19-LCD_ST7796U\AHL-CH32V307-LCD_ST7796U\Debug/srcs/startup_ch32v30x.S:13

	.section	.init,"ax",@progbits
	.global	_start
	.align	1
_start:
	j	handle_reset
   1c400:	5290306f          	j	20128 <handle_reset>
   1c404:	00000013          	nop
   1c408:	00000013          	nop
   1c40c:	00000013          	nop
   1c410:	00000013          	nop
   1c414:	00000013          	nop
   1c418:	00000013          	nop
   1c41c:	00000013          	nop
   1c420:	00000013          	nop
   1c424:	00000013          	nop
   1c428:	00000013          	nop
   1c42c:	00000013          	nop
   1c430:	00000013          	nop
   1c434:	00100073          	ebreak

Disassembly of section .vector:

0001c438 <_vector_base>:
_vector_base():
   1c438:	c400                	sw	s0,8(s0)
   1c43a:	0001                	nop
	...
   1c444:	f828                	fsw	fa0,112(s0)
   1c446:	0001                	nop
	...
   1c510:	f86c                	fsw	fa1,116(s0)
   1c512:	0001                	nop
   1c514:	0000                	unimp
   1c516:	0000                	unimp
   1c518:	f874                	fsw	fa3,116(s0)
   1c51a:	0001                	nop
	...
   1c554:	f87c                	fsw	fa5,116(s0)
   1c556:	0001                	nop
	...

Disassembly of section .text:

0001c600 <memset>:
memset():
   1c600:	433d                	li	t1,15
   1c602:	872a                	mv	a4,a0
   1c604:	02c37363          	bgeu	t1,a2,1c62a <memset+0x2a>
   1c608:	00f77793          	andi	a5,a4,15
   1c60c:	efbd                	bnez	a5,1c68a <memset+0x8a>
   1c60e:	e5ad                	bnez	a1,1c678 <memset+0x78>
   1c610:	ff067693          	andi	a3,a2,-16
   1c614:	8a3d                	andi	a2,a2,15
   1c616:	96ba                	add	a3,a3,a4
   1c618:	c30c                	sw	a1,0(a4)
   1c61a:	c34c                	sw	a1,4(a4)
   1c61c:	c70c                	sw	a1,8(a4)
   1c61e:	c74c                	sw	a1,12(a4)
   1c620:	0741                	addi	a4,a4,16
   1c622:	fed76be3          	bltu	a4,a3,1c618 <memset+0x18>
   1c626:	e211                	bnez	a2,1c62a <memset+0x2a>
   1c628:	8082                	ret
   1c62a:	40c306b3          	sub	a3,t1,a2
   1c62e:	068a                	slli	a3,a3,0x2
   1c630:	00000297          	auipc	t0,0x0
   1c634:	9696                	add	a3,a3,t0
   1c636:	00a68067          	jr	10(a3)
   1c63a:	00b70723          	sb	a1,14(a4)
   1c63e:	00b706a3          	sb	a1,13(a4)
   1c642:	00b70623          	sb	a1,12(a4)
   1c646:	00b705a3          	sb	a1,11(a4)
   1c64a:	00b70523          	sb	a1,10(a4)
   1c64e:	00b704a3          	sb	a1,9(a4)
   1c652:	00b70423          	sb	a1,8(a4)
   1c656:	00b703a3          	sb	a1,7(a4)
   1c65a:	00b70323          	sb	a1,6(a4)
   1c65e:	00b702a3          	sb	a1,5(a4)
   1c662:	00b70223          	sb	a1,4(a4)
   1c666:	00b701a3          	sb	a1,3(a4)
   1c66a:	00b70123          	sb	a1,2(a4)
   1c66e:	00b700a3          	sb	a1,1(a4)
   1c672:	00b70023          	sb	a1,0(a4)
   1c676:	8082                	ret
   1c678:	0ff5f593          	andi	a1,a1,255
   1c67c:	00859693          	slli	a3,a1,0x8
   1c680:	8dd5                	or	a1,a1,a3
   1c682:	01059693          	slli	a3,a1,0x10
   1c686:	8dd5                	or	a1,a1,a3
   1c688:	b761                	j	1c610 <memset+0x10>
   1c68a:	00279693          	slli	a3,a5,0x2
   1c68e:	00000297          	auipc	t0,0x0
   1c692:	9696                	add	a3,a3,t0
   1c694:	8286                	mv	t0,ra
   1c696:	fa8680e7          	jalr	-88(a3)
   1c69a:	8096                	mv	ra,t0
   1c69c:	17c1                	addi	a5,a5,-16
   1c69e:	8f1d                	sub	a4,a4,a5
   1c6a0:	963e                	add	a2,a2,a5
   1c6a2:	f8c374e3          	bgeu	t1,a2,1c62a <memset+0x2a>
   1c6a6:	b7a5                	j	1c60e <memset+0xe>

0001c6a8 <timer_init>:
timer_init():
E:\02-项目\13-RISCV实验箱\模块驱动\19-LCD_ST7796U\AHL-CH32V307-LCD_ST7796U\Debug/srcc/timer.c:23

void timer_init(uint8_t timer_No,uint32_t time_ms)
{

    uint16_t tmpcr1 = 0;
    switch(timer_No)
   1c6a8:	47a1                	li	a5,8
   1c6aa:	1ca7e263          	bltu	a5,a0,1c86e <timer_init+0x1c6>
   1c6ae:	050a                	slli	a0,a0,0x2
   1c6b0:	000227b7          	lui	a5,0x22
   1c6b4:	84078793          	addi	a5,a5,-1984 # 21840 <strlen+0x34>
   1c6b8:	953e                	add	a0,a0,a5
   1c6ba:	411c                	lw	a5,0(a0)
   1c6bc:	8782                	jr	a5
E:\02-项目\13-RISCV实验箱\模块驱动\19-LCD_ST7796U\AHL-CH32V307-LCD_ST7796U\Debug/srcc/timer.c:27
    {
        case 1:
        {
            RCC->APB2PCENR |= RCC_TIM1EN;//使能定时器时钟
   1c6be:	400216b7          	lui	a3,0x40021
   1c6c2:	4e9c                	lw	a5,24(a3)
   1c6c4:	6705                	lui	a4,0x1
   1c6c6:	80070713          	addi	a4,a4,-2048 # 800 <__stack_size>
   1c6ca:	8fd9                	or	a5,a5,a4
   1c6cc:	ce9c                	sw	a5,24(a3)
E:\02-项目\13-RISCV实验箱\模块驱动\19-LCD_ST7796U\AHL-CH32V307-LCD_ST7796U\Debug/srcc/timer.c:28
            tmpcr1 = TIM1->CTLR1;
   1c6ce:	40013737          	lui	a4,0x40013
   1c6d2:	c0075783          	lhu	a5,-1024(a4) # 40012c00 <GEC_USER_RAM_END+0x1fff2c00>
   1c6d6:	07c2                	slli	a5,a5,0x10
   1c6d8:	83c1                	srli	a5,a5,0x10
E:\02-项目\13-RISCV实验箱\模块驱动\19-LCD_ST7796U\AHL-CH32V307-LCD_ST7796U\Debug/srcc/timer.c:31
            tmpcr1 &= (uint16_t)(~((uint16_t)(TIM_DIR | TIM_CMS)));//中央对齐，向上增的计数模式
            tmpcr1 |= 0X0000;//指定计数器模式。
            tmpcr1 &= (uint16_t)(~((uint16_t)TIM_CTLR1_CKD));
   1c6da:	c8f7f793          	andi	a5,a5,-881
   1c6de:	07c2                	slli	a5,a5,0x10
   1c6e0:	83c1                	srli	a5,a5,0x10
E:\02-项目\13-RISCV实验箱\模块驱动\19-LCD_ST7796U\AHL-CH32V307-LCD_ST7796U\Debug/srcc/timer.c:33
            tmpcr1 |= (uint32_t)(0X0000);//设置时间分频
            TIM1->CTLR1 = tmpcr1;
   1c6e2:	c0f71023          	sh	a5,-1024(a4)
E:\02-项目\13-RISCV实验箱\模块驱动\19-LCD_ST7796U\AHL-CH32V307-LCD_ST7796U\Debug/srcc/timer.c:34
            TIM1->ATRLR = (uint16_t)(time_ms-1) ;//设置周期
   1c6e6:	15fd                	addi	a1,a1,-1
   1c6e8:	05c2                	slli	a1,a1,0x10
   1c6ea:	81c1                	srli	a1,a1,0x10
   1c6ec:	c2b71623          	sh	a1,-980(a4)
E:\02-项目\13-RISCV实验箱\模块驱动\19-LCD_ST7796U\AHL-CH32V307-LCD_ST7796U\Debug/srcc/timer.c:35
            TIM1->PSC = (uint16_t)(144000-1);//设置预分频
   1c6f0:	678d                	lui	a5,0x3
   1c6f2:	27f78793          	addi	a5,a5,639 # 327f <__stack_size+0x2a7f>
   1c6f6:	c2f71423          	sh	a5,-984(a4)
E:\02-项目\13-RISCV实验箱\模块驱动\19-LCD_ST7796U\AHL-CH32V307-LCD_ST7796U\Debug/srcc/timer.c:36
            TIM1->RPTCR= 0x0000;//指定重复计数器的值
   1c6fa:	c2071823          	sh	zero,-976(a4)
E:\02-项目\13-RISCV实验箱\模块驱动\19-LCD_ST7796U\AHL-CH32V307-LCD_ST7796U\Debug/srcc/timer.c:37
            TIM1->SWEVGR = 0x0001;//立即加载预分频器（事件产生寄存器）
   1c6fe:	4785                	li	a5,1
   1c700:	c0f71a23          	sh	a5,-1004(a4)
E:\02-项目\13-RISCV实验箱\模块驱动\19-LCD_ST7796U\AHL-CH32V307-LCD_ST7796U\Debug/srcc/timer.c:38
            TIM1->CTLR1 |= TIM_CEN;//计数器使能
   1c704:	c0075783          	lhu	a5,-1024(a4)
   1c708:	0017e793          	ori	a5,a5,1
   1c70c:	c0f71023          	sh	a5,-1024(a4)
E:\02-项目\13-RISCV实验箱\模块驱动\19-LCD_ST7796U\AHL-CH32V307-LCD_ST7796U\Debug/srcc/timer.c:39
            break;
   1c710:	8082                	ret
E:\02-项目\13-RISCV实验箱\模块驱动\19-LCD_ST7796U\AHL-CH32V307-LCD_ST7796U\Debug/srcc/timer.c:43
        }
        case 8:
       {
           RCC->APB2PCENR |= RCC_TIM8EN;//使能定时器时钟
   1c712:	40021737          	lui	a4,0x40021
   1c716:	4f1c                	lw	a5,24(a4)
   1c718:	6689                	lui	a3,0x2
   1c71a:	8fd5                	or	a5,a5,a3
   1c71c:	cf1c                	sw	a5,24(a4)
E:\02-项目\13-RISCV实验箱\模块驱动\19-LCD_ST7796U\AHL-CH32V307-LCD_ST7796U\Debug/srcc/timer.c:44
           tmpcr1 = TIM8->CTLR1;
   1c71e:	40013737          	lui	a4,0x40013
   1c722:	40075783          	lhu	a5,1024(a4) # 40013400 <GEC_USER_RAM_END+0x1fff3400>
   1c726:	07c2                	slli	a5,a5,0x10
   1c728:	83c1                	srli	a5,a5,0x10
E:\02-项目\13-RISCV实验箱\模块驱动\19-LCD_ST7796U\AHL-CH32V307-LCD_ST7796U\Debug/srcc/timer.c:47
           tmpcr1 &= (uint16_t)(~((uint16_t)(TIM_DIR | TIM_CMS)));
           tmpcr1 |= 0X0000;//指定计数器模式。
           tmpcr1 &= (uint16_t)(~((uint16_t)TIM_CTLR1_CKD));
   1c72a:	c8f7f793          	andi	a5,a5,-881
   1c72e:	07c2                	slli	a5,a5,0x10
   1c730:	83c1                	srli	a5,a5,0x10
E:\02-项目\13-RISCV实验箱\模块驱动\19-LCD_ST7796U\AHL-CH32V307-LCD_ST7796U\Debug/srcc/timer.c:49
           tmpcr1 |= (uint32_t)(0X0000);//设置时间分频
           TIM8->CTLR1 = tmpcr1;
   1c732:	40f71023          	sh	a5,1024(a4)
E:\02-项目\13-RISCV实验箱\模块驱动\19-LCD_ST7796U\AHL-CH32V307-LCD_ST7796U\Debug/srcc/timer.c:50
           TIM8->ATRLR = (uint16_t)(time_ms-1) ;//设置周期
   1c736:	15fd                	addi	a1,a1,-1
   1c738:	05c2                	slli	a1,a1,0x10
   1c73a:	81c1                	srli	a1,a1,0x10
   1c73c:	42b71623          	sh	a1,1068(a4)
E:\02-项目\13-RISCV实验箱\模块驱动\19-LCD_ST7796U\AHL-CH32V307-LCD_ST7796U\Debug/srcc/timer.c:51
           TIM8->PSC = (uint16_t)(48000-1);//设置预分频
   1c740:	77f1                	lui	a5,0xffffc
   1c742:	b7f78793          	addi	a5,a5,-1153 # ffffbb7f <GEC_USER_RAM_END+0xdffdbb7f>
   1c746:	42f71423          	sh	a5,1064(a4)
E:\02-项目\13-RISCV实验箱\模块驱动\19-LCD_ST7796U\AHL-CH32V307-LCD_ST7796U\Debug/srcc/timer.c:52
           TIM8->RPTCR= 0x0000;//指定重复计数器的值
   1c74a:	42071823          	sh	zero,1072(a4)
E:\02-项目\13-RISCV实验箱\模块驱动\19-LCD_ST7796U\AHL-CH32V307-LCD_ST7796U\Debug/srcc/timer.c:53
           TIM8->SWEVGR = 0x0001;//立即加载预分频器（事件产生寄存器）
   1c74e:	4785                	li	a5,1
   1c750:	40f71a23          	sh	a5,1044(a4)
E:\02-项目\13-RISCV实验箱\模块驱动\19-LCD_ST7796U\AHL-CH32V307-LCD_ST7796U\Debug/srcc/timer.c:54
           TIM8->CTLR1 |= TIM_CEN;//计数器使能
   1c754:	40075783          	lhu	a5,1024(a4)
   1c758:	0017e793          	ori	a5,a5,1
   1c75c:	40f71023          	sh	a5,1024(a4)
E:\02-项目\13-RISCV实验箱\模块驱动\19-LCD_ST7796U\AHL-CH32V307-LCD_ST7796U\Debug/srcc/timer.c:55
           break;
   1c760:	8082                	ret
E:\02-项目\13-RISCV实验箱\模块驱动\19-LCD_ST7796U\AHL-CH32V307-LCD_ST7796U\Debug/srcc/timer.c:59
       }
        case 2:
        {
            RCC->APB1PCENR |= RCC_TIM2EN;//使能定时器时钟
   1c762:	40021737          	lui	a4,0x40021
   1c766:	4f5c                	lw	a5,28(a4)
   1c768:	0017e793          	ori	a5,a5,1
   1c76c:	cf5c                	sw	a5,28(a4)
E:\02-项目\13-RISCV实验箱\模块驱动\19-LCD_ST7796U\AHL-CH32V307-LCD_ST7796U\Debug/srcc/timer.c:60
            tmpcr1 = TIM2->CTLR1;
   1c76e:	400007b7          	lui	a5,0x40000
   1c772:	0007d703          	lhu	a4,0(a5) # 40000000 <GEC_USER_RAM_END+0x1ffe0000>
   1c776:	0742                	slli	a4,a4,0x10
   1c778:	8341                	srli	a4,a4,0x10
E:\02-项目\13-RISCV实验箱\模块驱动\19-LCD_ST7796U\AHL-CH32V307-LCD_ST7796U\Debug/srcc/timer.c:63
            tmpcr1 &= (uint16_t)(~((uint16_t)(TIM_DIR | TIM_CMS)));
            tmpcr1 |= 0X0000;//指定计数器模式。
            tmpcr1 &= (uint16_t)(~((uint16_t)TIM_CTLR1_CKD));
   1c77a:	c8f77713          	andi	a4,a4,-881
   1c77e:	0742                	slli	a4,a4,0x10
   1c780:	8341                	srli	a4,a4,0x10
E:\02-项目\13-RISCV实验箱\模块驱动\19-LCD_ST7796U\AHL-CH32V307-LCD_ST7796U\Debug/srcc/timer.c:65
            tmpcr1 |= (uint32_t)(0X0000);//设置时间分频
            TIM2->CTLR1 = tmpcr1;//设置向上计数模式
   1c782:	00e79023          	sh	a4,0(a5)
E:\02-项目\13-RISCV实验箱\模块驱动\19-LCD_ST7796U\AHL-CH32V307-LCD_ST7796U\Debug/srcc/timer.c:66
            TIM2->ATRLR = (uint16_t)(48000-1) ;//设置周期   //time_ms*48000/PSC
   1c786:	7771                	lui	a4,0xffffc
   1c788:	b7f70713          	addi	a4,a4,-1153 # ffffbb7f <GEC_USER_RAM_END+0xdffdbb7f>
   1c78c:	02e79623          	sh	a4,44(a5)
E:\02-项目\13-RISCV实验箱\模块驱动\19-LCD_ST7796U\AHL-CH32V307-LCD_ST7796U\Debug/srcc/timer.c:67
            TIM2->PSC = SystemCoreClock-1;//设置预分频  //分频之后的频率=选定的时钟源频率/(PSC+1),   (ARR+1)*(PSC+1)/fclk
   1c790:	20005737          	lui	a4,0x20005
   1c794:	08072703          	lw	a4,128(a4) # 20005080 <SystemCoreClock>
   1c798:	177d                	addi	a4,a4,-1
   1c79a:	0742                	slli	a4,a4,0x10
   1c79c:	8341                	srli	a4,a4,0x10
   1c79e:	02e79423          	sh	a4,40(a5)
E:\02-项目\13-RISCV实验箱\模块驱动\19-LCD_ST7796U\AHL-CH32V307-LCD_ST7796U\Debug/srcc/timer.c:68
            TIM2->SWEVGR = 0x0001;//初始化计数器
   1c7a2:	4705                	li	a4,1
   1c7a4:	00e79a23          	sh	a4,20(a5)
E:\02-项目\13-RISCV实验箱\模块驱动\19-LCD_ST7796U\AHL-CH32V307-LCD_ST7796U\Debug/srcc/timer.c:69
            TIM2->CTLR1 |= TIM_CEN;//计数器使能
   1c7a8:	0007d703          	lhu	a4,0(a5)
   1c7ac:	00176713          	ori	a4,a4,1
   1c7b0:	00e79023          	sh	a4,0(a5)
E:\02-项目\13-RISCV实验箱\模块驱动\19-LCD_ST7796U\AHL-CH32V307-LCD_ST7796U\Debug/srcc/timer.c:70
            break;
   1c7b4:	8082                	ret
E:\02-项目\13-RISCV实验箱\模块驱动\19-LCD_ST7796U\AHL-CH32V307-LCD_ST7796U\Debug/srcc/timer.c:74
        }
        case 3: //
        {
            RCC->APB1PCENR |= RCC_TIM3EN;
   1c7b6:	40021737          	lui	a4,0x40021
   1c7ba:	4f5c                	lw	a5,28(a4)
   1c7bc:	0027e793          	ori	a5,a5,2
   1c7c0:	cf5c                	sw	a5,28(a4)
E:\02-项目\13-RISCV实验箱\模块驱动\19-LCD_ST7796U\AHL-CH32V307-LCD_ST7796U\Debug/srcc/timer.c:75
            tmpcr1 = TIM3->CTLR1;
   1c7c2:	40000737          	lui	a4,0x40000
   1c7c6:	40075783          	lhu	a5,1024(a4) # 40000400 <GEC_USER_RAM_END+0x1ffe0400>
   1c7ca:	07c2                	slli	a5,a5,0x10
   1c7cc:	83c1                	srli	a5,a5,0x10
E:\02-项目\13-RISCV实验箱\模块驱动\19-LCD_ST7796U\AHL-CH32V307-LCD_ST7796U\Debug/srcc/timer.c:78
            tmpcr1 &= (uint16_t)(~((uint16_t)(TIM_DIR | TIM_CMS)));
            tmpcr1 |= 0X0000;//指定计数器模式。
            tmpcr1 &= (uint16_t)(~((uint16_t)TIM_CTLR1_CKD));
   1c7ce:	c8f7f793          	andi	a5,a5,-881
   1c7d2:	07c2                	slli	a5,a5,0x10
   1c7d4:	83c1                	srli	a5,a5,0x10
E:\02-项目\13-RISCV实验箱\模块驱动\19-LCD_ST7796U\AHL-CH32V307-LCD_ST7796U\Debug/srcc/timer.c:80
            tmpcr1 |= (uint32_t)(0X0000);//设置时间分频
            TIM3->CTLR1 = tmpcr1;//设置向上计数模式
   1c7d6:	40f71023          	sh	a5,1024(a4)
E:\02-项目\13-RISCV实验箱\模块驱动\19-LCD_ST7796U\AHL-CH32V307-LCD_ST7796U\Debug/srcc/timer.c:81
            TIM3->ATRLR = (uint16_t)(time_ms-1);
   1c7da:	15fd                	addi	a1,a1,-1
   1c7dc:	05c2                	slli	a1,a1,0x10
   1c7de:	81c1                	srli	a1,a1,0x10
   1c7e0:	42b71623          	sh	a1,1068(a4)
E:\02-项目\13-RISCV实验箱\模块驱动\19-LCD_ST7796U\AHL-CH32V307-LCD_ST7796U\Debug/srcc/timer.c:82
            TIM3->PSC = (uint16_t)(48000-1);
   1c7e4:	77f1                	lui	a5,0xffffc
   1c7e6:	b7f78793          	addi	a5,a5,-1153 # ffffbb7f <GEC_USER_RAM_END+0xdffdbb7f>
   1c7ea:	42f71423          	sh	a5,1064(a4)
E:\02-项目\13-RISCV实验箱\模块驱动\19-LCD_ST7796U\AHL-CH32V307-LCD_ST7796U\Debug/srcc/timer.c:83
            TIM3->SWEVGR = 0x0001;
   1c7ee:	4785                	li	a5,1
   1c7f0:	40f71a23          	sh	a5,1044(a4)
E:\02-项目\13-RISCV实验箱\模块驱动\19-LCD_ST7796U\AHL-CH32V307-LCD_ST7796U\Debug/srcc/timer.c:84
            TIM3->CTLR1 |= TIM_CEN;
   1c7f4:	40075783          	lhu	a5,1024(a4)
   1c7f8:	0017e793          	ori	a5,a5,1
   1c7fc:	40f71023          	sh	a5,1024(a4)
E:\02-项目\13-RISCV实验箱\模块驱动\19-LCD_ST7796U\AHL-CH32V307-LCD_ST7796U\Debug/srcc/timer.c:85
            break;
   1c800:	8082                	ret
E:\02-项目\13-RISCV实验箱\模块驱动\19-LCD_ST7796U\AHL-CH32V307-LCD_ST7796U\Debug/srcc/timer.c:89
        }
        case 6: //
        {
            RCC->APB1PCENR|= RCC_TIM6EN;
   1c802:	40021737          	lui	a4,0x40021
   1c806:	4f5c                	lw	a5,28(a4)
   1c808:	0107e793          	ori	a5,a5,16
   1c80c:	cf5c                	sw	a5,28(a4)
E:\02-项目\13-RISCV实验箱\模块驱动\19-LCD_ST7796U\AHL-CH32V307-LCD_ST7796U\Debug/srcc/timer.c:90
            TIM6->ATRLR = (uint16_t)(time_ms-1) ;
   1c80e:	15fd                	addi	a1,a1,-1
   1c810:	05c2                	slli	a1,a1,0x10
   1c812:	81c1                	srli	a1,a1,0x10
   1c814:	400017b7          	lui	a5,0x40001
   1c818:	02b79623          	sh	a1,44(a5) # 4000102c <GEC_USER_RAM_END+0x1ffe102c>
E:\02-项目\13-RISCV实验箱\模块驱动\19-LCD_ST7796U\AHL-CH32V307-LCD_ST7796U\Debug/srcc/timer.c:91
            TIM6->PSC = (uint16_t)(48000-1);
   1c81c:	7771                	lui	a4,0xffffc
   1c81e:	b7f70713          	addi	a4,a4,-1153 # ffffbb7f <GEC_USER_RAM_END+0xdffdbb7f>
   1c822:	02e79423          	sh	a4,40(a5)
E:\02-项目\13-RISCV实验箱\模块驱动\19-LCD_ST7796U\AHL-CH32V307-LCD_ST7796U\Debug/srcc/timer.c:92
            TIM6->SWEVGR = 0x0001;
   1c826:	4705                	li	a4,1
   1c828:	00e79a23          	sh	a4,20(a5)
E:\02-项目\13-RISCV实验箱\模块驱动\19-LCD_ST7796U\AHL-CH32V307-LCD_ST7796U\Debug/srcc/timer.c:93
            TIM6->CTLR1 |= TIM_CEN;
   1c82c:	0007d703          	lhu	a4,0(a5)
   1c830:	00176713          	ori	a4,a4,1
   1c834:	00e79023          	sh	a4,0(a5)
E:\02-项目\13-RISCV实验箱\模块驱动\19-LCD_ST7796U\AHL-CH32V307-LCD_ST7796U\Debug/srcc/timer.c:94
            break;
   1c838:	8082                	ret
E:\02-项目\13-RISCV实验箱\模块驱动\19-LCD_ST7796U\AHL-CH32V307-LCD_ST7796U\Debug/srcc/timer.c:98
        }
        case 7: //
       {
            RCC->APB1PCENR|= RCC_TIM7EN;
   1c83a:	40021737          	lui	a4,0x40021
   1c83e:	4f5c                	lw	a5,28(a4)
   1c840:	0207e793          	ori	a5,a5,32
   1c844:	cf5c                	sw	a5,28(a4)
E:\02-项目\13-RISCV实验箱\模块驱动\19-LCD_ST7796U\AHL-CH32V307-LCD_ST7796U\Debug/srcc/timer.c:99
            TIM7->ATRLR = (uint16_t)(40-1) ;
   1c846:	400017b7          	lui	a5,0x40001
   1c84a:	02700693          	li	a3,39
   1c84e:	42d79623          	sh	a3,1068(a5) # 4000142c <GEC_USER_RAM_END+0x1ffe142c>
E:\02-项目\13-RISCV实验箱\模块驱动\19-LCD_ST7796U\AHL-CH32V307-LCD_ST7796U\Debug/srcc/timer.c:100
            TIM7->PSC = (uint16_t)(36000-1);
   1c852:	76e5                	lui	a3,0xffff9
   1c854:	c9f68693          	addi	a3,a3,-865 # ffff8c9f <GEC_USER_RAM_END+0xdffd8c9f>
   1c858:	42d79423          	sh	a3,1064(a5)
E:\02-项目\13-RISCV实验箱\模块驱动\19-LCD_ST7796U\AHL-CH32V307-LCD_ST7796U\Debug/srcc/timer.c:101
            TIM7->SWEVGR = 0x0001;
   1c85c:	4685                	li	a3,1
   1c85e:	40d79a23          	sh	a3,1044(a5)
E:\02-项目\13-RISCV实验箱\模块驱动\19-LCD_ST7796U\AHL-CH32V307-LCD_ST7796U\Debug/srcc/timer.c:102
            TIM7->CTLR1 |= TIM_CEN;
   1c862:	4007d703          	lhu	a4,1024(a5)
   1c866:	00176713          	ori	a4,a4,1
   1c86a:	40e79023          	sh	a4,1024(a5)
E:\02-项目\13-RISCV实验箱\模块驱动\19-LCD_ST7796U\AHL-CH32V307-LCD_ST7796U\Debug/srcc/timer.c:109

       }

    }

}
   1c86e:	8082                	ret

0001c870 <timer_get_int>:
timer_get_int():
E:\02-项目\13-RISCV实验箱\模块驱动\19-LCD_ST7796U\AHL-CH32V307-LCD_ST7796U\Debug/srcc/timer.c:225
//===================================================================
uint8_t timer_get_int(uint8_t timer_No)
{
    ITStatus bitstatus = RESET;
    uint16_t itstatus = 0x0, itenable = 0x0;
    if(timer_No==1)
   1c870:	4785                	li	a5,1
   1c872:	02f50063          	beq	a0,a5,1c892 <timer_get_int+0x22>
E:\02-项目\13-RISCV实验箱\模块驱动\19-LCD_ST7796U\AHL-CH32V307-LCD_ST7796U\Debug/srcc/timer.c:239
        else
        {
            bitstatus = RESET;
        }
    }
    else if(timer_No==8)
   1c876:	47a1                	li	a5,8
   1c878:	02f50b63          	beq	a0,a5,1c8ae <timer_get_int+0x3e>
E:\02-项目\13-RISCV实验箱\模块驱动\19-LCD_ST7796U\AHL-CH32V307-LCD_ST7796U\Debug/srcc/timer.c:253
       else
       {
           bitstatus = RESET;
       }
   }
    else if(timer_No==2)
   1c87c:	4789                	li	a5,2
   1c87e:	04f50863          	beq	a0,a5,1c8ce <timer_get_int+0x5e>
E:\02-项目\13-RISCV实验箱\模块驱动\19-LCD_ST7796U\AHL-CH32V307-LCD_ST7796U\Debug/srcc/timer.c:267
        else
        {
            bitstatus = RESET;
        }
    }
    else if(timer_No==3)
   1c882:	478d                	li	a5,3
   1c884:	06f50163          	beq	a0,a5,1c8e6 <timer_get_int+0x76>
E:\02-项目\13-RISCV实验箱\模块驱动\19-LCD_ST7796U\AHL-CH32V307-LCD_ST7796U\Debug/srcc/timer.c:281
        else
        {
            bitstatus = RESET;
        }
    }
    else if(timer_No==7)
   1c888:	479d                	li	a5,7
   1c88a:	06f50c63          	beq	a0,a5,1c902 <timer_get_int+0x92>
E:\02-项目\13-RISCV实验箱\模块驱动\19-LCD_ST7796U\AHL-CH32V307-LCD_ST7796U\Debug/srcc/timer.c:223
    ITStatus bitstatus = RESET;
   1c88e:	4501                	li	a0,0
   1c890:	8082                	ret
E:\02-项目\13-RISCV实验箱\模块驱动\19-LCD_ST7796U\AHL-CH32V307-LCD_ST7796U\Debug/srcc/timer.c:227
        itstatus = TIM1->INTFR & TIM_UIE;
   1c892:	400137b7          	lui	a5,0x40013
   1c896:	c107d703          	lhu	a4,-1008(a5) # 40012c10 <GEC_USER_RAM_END+0x1fff2c10>
   1c89a:	c0078793          	addi	a5,a5,-1024
   1c89e:	8b05                	andi	a4,a4,1
E:\02-项目\13-RISCV实验箱\模块驱动\19-LCD_ST7796U\AHL-CH32V307-LCD_ST7796U\Debug/srcc/timer.c:228
        itenable = TIM1->DMAINTENR & TIM_UIE;
   1c8a0:	00c7d783          	lhu	a5,12(a5)
   1c8a4:	8b85                	andi	a5,a5,1
E:\02-项目\13-RISCV实验箱\模块驱动\19-LCD_ST7796U\AHL-CH32V307-LCD_ST7796U\Debug/srcc/timer.c:230
        if ((itstatus != (uint16_t)RESET) && (itenable != (uint16_t)RESET))
   1c8a6:	cf25                	beqz	a4,1c91e <timer_get_int+0xae>
E:\02-项目\13-RISCV实验箱\模块驱动\19-LCD_ST7796U\AHL-CH32V307-LCD_ST7796U\Debug/srcc/timer.c:230 (discriminator 1)
   1c8a8:	efad                	bnez	a5,1c922 <timer_get_int+0xb2>
E:\02-项目\13-RISCV实验箱\模块驱动\19-LCD_ST7796U\AHL-CH32V307-LCD_ST7796U\Debug/srcc/timer.c:236
            bitstatus = RESET;
   1c8aa:	4501                	li	a0,0
   1c8ac:	8082                	ret
E:\02-项目\13-RISCV实验箱\模块驱动\19-LCD_ST7796U\AHL-CH32V307-LCD_ST7796U\Debug/srcc/timer.c:241
       itstatus = TIM8->INTFR & TIM_BIE;
   1c8ae:	400137b7          	lui	a5,0x40013
   1c8b2:	4107d703          	lhu	a4,1040(a5) # 40013410 <GEC_USER_RAM_END+0x1fff3410>
   1c8b6:	40078793          	addi	a5,a5,1024
   1c8ba:	08077713          	andi	a4,a4,128
E:\02-项目\13-RISCV实验箱\模块驱动\19-LCD_ST7796U\AHL-CH32V307-LCD_ST7796U\Debug/srcc/timer.c:242
       itenable = TIM8->DMAINTENR & TIM_BIE;
   1c8be:	00c7d783          	lhu	a5,12(a5)
   1c8c2:	0807f793          	andi	a5,a5,128
E:\02-项目\13-RISCV实验箱\模块驱动\19-LCD_ST7796U\AHL-CH32V307-LCD_ST7796U\Debug/srcc/timer.c:244
       if ((itstatus != (uint16_t)RESET) && (itenable != (uint16_t)RESET))
   1c8c6:	c325                	beqz	a4,1c926 <timer_get_int+0xb6>
E:\02-项目\13-RISCV实验箱\模块驱动\19-LCD_ST7796U\AHL-CH32V307-LCD_ST7796U\Debug/srcc/timer.c:244 (discriminator 1)
   1c8c8:	e3ad                	bnez	a5,1c92a <timer_get_int+0xba>
E:\02-项目\13-RISCV实验箱\模块驱动\19-LCD_ST7796U\AHL-CH32V307-LCD_ST7796U\Debug/srcc/timer.c:250
           bitstatus = RESET;
   1c8ca:	4501                	li	a0,0
   1c8cc:	8082                	ret
E:\02-项目\13-RISCV实验箱\模块驱动\19-LCD_ST7796U\AHL-CH32V307-LCD_ST7796U\Debug/srcc/timer.c:255
        itstatus = TIM2->INTFR & TIM_CC1IE;
   1c8ce:	40000737          	lui	a4,0x40000
   1c8d2:	01075783          	lhu	a5,16(a4) # 40000010 <GEC_USER_RAM_END+0x1ffe0010>
   1c8d6:	8b89                	andi	a5,a5,2
E:\02-项目\13-RISCV实验箱\模块驱动\19-LCD_ST7796U\AHL-CH32V307-LCD_ST7796U\Debug/srcc/timer.c:256
        itenable = TIM2->DMAINTENR & TIM_CC1IE;
   1c8d8:	00c75703          	lhu	a4,12(a4)
   1c8dc:	8b09                	andi	a4,a4,2
E:\02-项目\13-RISCV实验箱\模块驱动\19-LCD_ST7796U\AHL-CH32V307-LCD_ST7796U\Debug/srcc/timer.c:258
        if ((itstatus != (uint16_t)RESET) && (itenable != (uint16_t)RESET))
   1c8de:	cba1                	beqz	a5,1c92e <timer_get_int+0xbe>
E:\02-项目\13-RISCV实验箱\模块驱动\19-LCD_ST7796U\AHL-CH32V307-LCD_ST7796U\Debug/srcc/timer.c:258 (discriminator 1)
   1c8e0:	eb29                	bnez	a4,1c932 <timer_get_int+0xc2>
E:\02-项目\13-RISCV实验箱\模块驱动\19-LCD_ST7796U\AHL-CH32V307-LCD_ST7796U\Debug/srcc/timer.c:264
            bitstatus = RESET;
   1c8e2:	4501                	li	a0,0
   1c8e4:	8082                	ret
E:\02-项目\13-RISCV实验箱\模块驱动\19-LCD_ST7796U\AHL-CH32V307-LCD_ST7796U\Debug/srcc/timer.c:269
        itstatus = TIM3->INTFR & TIM_CC2IE;
   1c8e6:	400007b7          	lui	a5,0x40000
   1c8ea:	4107d703          	lhu	a4,1040(a5) # 40000410 <GEC_USER_RAM_END+0x1ffe0410>
   1c8ee:	40078793          	addi	a5,a5,1024
   1c8f2:	8b11                	andi	a4,a4,4
E:\02-项目\13-RISCV实验箱\模块驱动\19-LCD_ST7796U\AHL-CH32V307-LCD_ST7796U\Debug/srcc/timer.c:270
        itenable = TIM3->DMAINTENR & TIM_CC2IE;
   1c8f4:	00c7d783          	lhu	a5,12(a5)
   1c8f8:	8b91                	andi	a5,a5,4
E:\02-项目\13-RISCV实验箱\模块驱动\19-LCD_ST7796U\AHL-CH32V307-LCD_ST7796U\Debug/srcc/timer.c:272
        if ((itstatus != (uint16_t)RESET) && (itenable != (uint16_t)RESET))
   1c8fa:	cf15                	beqz	a4,1c936 <timer_get_int+0xc6>
E:\02-项目\13-RISCV实验箱\模块驱动\19-LCD_ST7796U\AHL-CH32V307-LCD_ST7796U\Debug/srcc/timer.c:272 (discriminator 1)
   1c8fc:	ef9d                	bnez	a5,1c93a <timer_get_int+0xca>
E:\02-项目\13-RISCV实验箱\模块驱动\19-LCD_ST7796U\AHL-CH32V307-LCD_ST7796U\Debug/srcc/timer.c:278
            bitstatus = RESET;
   1c8fe:	4501                	li	a0,0
   1c900:	8082                	ret
E:\02-项目\13-RISCV实验箱\模块驱动\19-LCD_ST7796U\AHL-CH32V307-LCD_ST7796U\Debug/srcc/timer.c:283
    {
        itstatus = TIM7->INTFR & TIM_UIE;
   1c902:	400017b7          	lui	a5,0x40001
   1c906:	4107d703          	lhu	a4,1040(a5) # 40001410 <GEC_USER_RAM_END+0x1ffe1410>
   1c90a:	40078793          	addi	a5,a5,1024
   1c90e:	8b05                	andi	a4,a4,1
E:\02-项目\13-RISCV实验箱\模块驱动\19-LCD_ST7796U\AHL-CH32V307-LCD_ST7796U\Debug/srcc/timer.c:284
        itenable = TIM7->DMAINTENR & TIM_UIE;
   1c910:	00c7d783          	lhu	a5,12(a5)
   1c914:	8b85                	andi	a5,a5,1
E:\02-项目\13-RISCV实验箱\模块驱动\19-LCD_ST7796U\AHL-CH32V307-LCD_ST7796U\Debug/srcc/timer.c:286

        if ((itstatus != (uint16_t)RESET) && (itenable != (uint16_t)RESET))
   1c916:	c705                	beqz	a4,1c93e <timer_get_int+0xce>
E:\02-项目\13-RISCV实验箱\模块驱动\19-LCD_ST7796U\AHL-CH32V307-LCD_ST7796U\Debug/srcc/timer.c:286 (discriminator 1)
   1c918:	e78d                	bnez	a5,1c942 <timer_get_int+0xd2>
E:\02-项目\13-RISCV实验箱\模块驱动\19-LCD_ST7796U\AHL-CH32V307-LCD_ST7796U\Debug/srcc/timer.c:292
        {
            bitstatus = SET;
        }
        else
        {
            bitstatus = RESET;
   1c91a:	4501                	li	a0,0
   1c91c:	8082                	ret
E:\02-项目\13-RISCV实验箱\模块驱动\19-LCD_ST7796U\AHL-CH32V307-LCD_ST7796U\Debug/srcc/timer.c:236
            bitstatus = RESET;
   1c91e:	4501                	li	a0,0
   1c920:	8082                	ret
E:\02-项目\13-RISCV实验箱\模块驱动\19-LCD_ST7796U\AHL-CH32V307-LCD_ST7796U\Debug/srcc/timer.c:232
            bitstatus = SET;
   1c922:	4505                	li	a0,1
   1c924:	8082                	ret
E:\02-项目\13-RISCV实验箱\模块驱动\19-LCD_ST7796U\AHL-CH32V307-LCD_ST7796U\Debug/srcc/timer.c:250
           bitstatus = RESET;
   1c926:	4501                	li	a0,0
   1c928:	8082                	ret
E:\02-项目\13-RISCV实验箱\模块驱动\19-LCD_ST7796U\AHL-CH32V307-LCD_ST7796U\Debug/srcc/timer.c:246
           bitstatus = SET;
   1c92a:	4505                	li	a0,1
   1c92c:	8082                	ret
E:\02-项目\13-RISCV实验箱\模块驱动\19-LCD_ST7796U\AHL-CH32V307-LCD_ST7796U\Debug/srcc/timer.c:264
            bitstatus = RESET;
   1c92e:	4501                	li	a0,0
   1c930:	8082                	ret
E:\02-项目\13-RISCV实验箱\模块驱动\19-LCD_ST7796U\AHL-CH32V307-LCD_ST7796U\Debug/srcc/timer.c:260
            bitstatus = SET;
   1c932:	4505                	li	a0,1
   1c934:	8082                	ret
E:\02-项目\13-RISCV实验箱\模块驱动\19-LCD_ST7796U\AHL-CH32V307-LCD_ST7796U\Debug/srcc/timer.c:278
            bitstatus = RESET;
   1c936:	4501                	li	a0,0
   1c938:	8082                	ret
E:\02-项目\13-RISCV实验箱\模块驱动\19-LCD_ST7796U\AHL-CH32V307-LCD_ST7796U\Debug/srcc/timer.c:274
            bitstatus = SET;
   1c93a:	4505                	li	a0,1
   1c93c:	8082                	ret
E:\02-项目\13-RISCV实验箱\模块驱动\19-LCD_ST7796U\AHL-CH32V307-LCD_ST7796U\Debug/srcc/timer.c:292
            bitstatus = RESET;
   1c93e:	4501                	li	a0,0
   1c940:	8082                	ret
E:\02-项目\13-RISCV实验箱\模块驱动\19-LCD_ST7796U\AHL-CH32V307-LCD_ST7796U\Debug/srcc/timer.c:288
            bitstatus = SET;
   1c942:	4505                	li	a0,1
E:\02-项目\13-RISCV实验箱\模块驱动\19-LCD_ST7796U\AHL-CH32V307-LCD_ST7796U\Debug/srcc/timer.c:297
        }

    }
    return bitstatus;
}
   1c944:	8082                	ret

0001c946 <timer_clear_int>:
timer_clear_int():
E:\02-项目\13-RISCV实验箱\模块驱动\19-LCD_ST7796U\AHL-CH32V307-LCD_ST7796U\Debug/srcc/timer.c:307
//参数说明： timer_No:时钟模块号（使用宏定义TIMER1、TIMER2、…）
//功能概要：定时器清除中断标志
//============================================================================
void timer_clear_int(uint8_t timer_No)
{
    switch(timer_No)
   1c946:	47a1                	li	a5,8
   1c948:	04a7ee63          	bltu	a5,a0,1c9a4 <timer_clear_int+0x5e>
   1c94c:	050a                	slli	a0,a0,0x2
   1c94e:	000227b7          	lui	a5,0x22
   1c952:	86478793          	addi	a5,a5,-1948 # 21864 <strlen+0x58>
   1c956:	953e                	add	a0,a0,a5
   1c958:	411c                	lw	a5,0(a0)
   1c95a:	8782                	jr	a5
E:\02-项目\13-RISCV实验箱\模块驱动\19-LCD_ST7796U\AHL-CH32V307-LCD_ST7796U\Debug/srcc/timer.c:309
    {
        case 1:TIM1->INTFR = (uint16_t)~TIM_UIE;break;
   1c95c:	400137b7          	lui	a5,0x40013
   1c960:	5779                	li	a4,-2
   1c962:	c0e79823          	sh	a4,-1008(a5) # 40012c10 <GEC_USER_RAM_END+0x1fff2c10>
   1c966:	8082                	ret
E:\02-项目\13-RISCV实验箱\模块驱动\19-LCD_ST7796U\AHL-CH32V307-LCD_ST7796U\Debug/srcc/timer.c:310
        case 8:TIM8->INTFR = (uint16_t)~TIM_BIE;break;
   1c968:	400137b7          	lui	a5,0x40013
   1c96c:	f7f00713          	li	a4,-129
   1c970:	40e79823          	sh	a4,1040(a5) # 40013410 <GEC_USER_RAM_END+0x1fff3410>
   1c974:	8082                	ret
E:\02-项目\13-RISCV实验箱\模块驱动\19-LCD_ST7796U\AHL-CH32V307-LCD_ST7796U\Debug/srcc/timer.c:311
        case 2:TIM2->INTFR = (uint16_t)~TIM_CC2IE;break;
   1c976:	400007b7          	lui	a5,0x40000
   1c97a:	576d                	li	a4,-5
   1c97c:	00e79823          	sh	a4,16(a5) # 40000010 <GEC_USER_RAM_END+0x1ffe0010>
   1c980:	8082                	ret
E:\02-项目\13-RISCV实验箱\模块驱动\19-LCD_ST7796U\AHL-CH32V307-LCD_ST7796U\Debug/srcc/timer.c:312
        case 3:TIM3->INTFR = (uint16_t)~TIM_CC3IE;break;
   1c982:	400007b7          	lui	a5,0x40000
   1c986:	575d                	li	a4,-9
   1c988:	40e79823          	sh	a4,1040(a5) # 40000410 <GEC_USER_RAM_END+0x1ffe0410>
   1c98c:	8082                	ret
E:\02-项目\13-RISCV实验箱\模块驱动\19-LCD_ST7796U\AHL-CH32V307-LCD_ST7796U\Debug/srcc/timer.c:313
        case 6:TIM6->INTFR = (uint16_t)~TIM_UIE;break;
   1c98e:	400017b7          	lui	a5,0x40001
   1c992:	5779                	li	a4,-2
   1c994:	00e79823          	sh	a4,16(a5) # 40001010 <GEC_USER_RAM_END+0x1ffe1010>
   1c998:	8082                	ret
E:\02-项目\13-RISCV实验箱\模块驱动\19-LCD_ST7796U\AHL-CH32V307-LCD_ST7796U\Debug/srcc/timer.c:314
        case 7:TIM7->INTFR = (uint16_t)~TIM_UIE;break;
   1c99a:	400017b7          	lui	a5,0x40001
   1c99e:	5779                	li	a4,-2
   1c9a0:	40e79823          	sh	a4,1040(a5) # 40001410 <GEC_USER_RAM_END+0x1ffe1410>
E:\02-项目\13-RISCV实验箱\模块驱动\19-LCD_ST7796U\AHL-CH32V307-LCD_ST7796U\Debug/srcc/timer.c:318


    }
}
   1c9a4:	8082                	ret

0001c9a6 <sdio_input>:
sdio_input():
E:\02-项目\13-RISCV实验箱\模块驱动\19-LCD_ST7796U\AHL-CH32V307-LCD_ST7796U\Debug/srcc/sccb.c:22
//函数返回：无
//参数说明：无
//功能概要：将该引脚改为输入模式
//=====================================================================
void sdio_input()
{
   1c9a6:	1141                	addi	sp,sp,-16
   1c9a8:	c606                	sw	ra,12(sp)
E:\02-项目\13-RISCV实验箱\模块驱动\19-LCD_ST7796U\AHL-CH32V307-LCD_ST7796U\Debug/srcc/sccb.c:23
    gpio_init(S_DIO, 0, 1);      //将GPIO设置为输入模式
   1c9aa:	4605                	li	a2,1
   1c9ac:	4581                	li	a1,0
   1c9ae:	40e00513          	li	a0,1038
   1c9b2:	448010ef          	jal	ra,1ddfa <gpio_init>
E:\02-项目\13-RISCV实验箱\模块驱动\19-LCD_ST7796U\AHL-CH32V307-LCD_ST7796U\Debug/srcc/sccb.c:25
//  gpio_pull(SDIO,1);
}
   1c9b6:	40b2                	lw	ra,12(sp)
   1c9b8:	0141                	addi	sp,sp,16
   1c9ba:	8082                	ret

0001c9bc <sdio_output>:
sdio_output():
E:\02-项目\13-RISCV实验箱\模块驱动\19-LCD_ST7796U\AHL-CH32V307-LCD_ST7796U\Debug/srcc/sccb.c:34
//函数返回：无
//参数说明：无
//功能概要：将该引脚改为输出模式
//=====================================================================
void sdio_output()
{
   1c9bc:	1141                	addi	sp,sp,-16
   1c9be:	c606                	sw	ra,12(sp)
E:\02-项目\13-RISCV实验箱\模块驱动\19-LCD_ST7796U\AHL-CH32V307-LCD_ST7796U\Debug/srcc/sccb.c:35
    gpio_init(S_DIO, 1, 1);      //将GPIO设置为输出模式
   1c9c0:	4605                	li	a2,1
   1c9c2:	4585                	li	a1,1
   1c9c4:	40e00513          	li	a0,1038
   1c9c8:	432010ef          	jal	ra,1ddfa <gpio_init>
E:\02-项目\13-RISCV实验箱\模块驱动\19-LCD_ST7796U\AHL-CH32V307-LCD_ST7796U\Debug/srcc/sccb.c:36
}
   1c9cc:	40b2                	lw	ra,12(sp)
   1c9ce:	0141                	addi	sp,sp,16
   1c9d0:	8082                	ret

0001c9d2 <SCCB_Init>:
SCCB_Init():
E:\02-项目\13-RISCV实验箱\模块驱动\19-LCD_ST7796U\AHL-CH32V307-LCD_ST7796U\Debug/srcc/sccb.c:185
//函数返回：无
//参数说明：无
//功能概要：SCCB初始化函数
//=====================================================================
void SCCB_Init()
{
   1c9d2:	1141                	addi	sp,sp,-16
   1c9d4:	c606                	sw	ra,12(sp)
E:\02-项目\13-RISCV实验箱\模块驱动\19-LCD_ST7796U\AHL-CH32V307-LCD_ST7796U\Debug/srcc/sccb.c:187
    //设置SCLK和SDIO为输出高电平
    gpio_init(S_CLK, 1, 1);
   1c9d6:	4605                	li	a2,1
   1c9d8:	4585                	li	a1,1
   1c9da:	40d00513          	li	a0,1037
   1c9de:	41c010ef          	jal	ra,1ddfa <gpio_init>
E:\02-项目\13-RISCV实验箱\模块驱动\19-LCD_ST7796U\AHL-CH32V307-LCD_ST7796U\Debug/srcc/sccb.c:188
    gpio_init(S_DIO, 1, 1);
   1c9e2:	4605                	li	a2,1
   1c9e4:	4585                	li	a1,1
   1c9e6:	40e00513          	li	a0,1038
   1c9ea:	410010ef          	jal	ra,1ddfa <gpio_init>
E:\02-项目\13-RISCV实验箱\模块驱动\19-LCD_ST7796U\AHL-CH32V307-LCD_ST7796U\Debug/srcc/sccb.c:189
}
   1c9ee:	40b2                	lw	ra,12(sp)
   1c9f0:	0141                	addi	sp,sp,16
   1c9f2:	8082                	ret

0001c9f4 <Delay_ms>:
Delay_ms():
E:\02-项目\13-RISCV实验箱\模块驱动\19-LCD_ST7796U\AHL-CH32V307-LCD_ST7796U\Debug/srcc/sccb.c:241
//功能概要：延时 - 毫秒级
//======================================================================
void Delay_ms(uint16_t u16ms)
{
        uint32_t u32ctr;
    for(u32ctr = 0; u32ctr < (SystemCoreClock/1000*u16ms/100); u32ctr++)
   1c9f4:	4701                	li	a4,0
E:\02-项目\13-RISCV实验箱\模块驱动\19-LCD_ST7796U\AHL-CH32V307-LCD_ST7796U\Debug/srcc/sccb.c:241 (discriminator 1)
   1c9f6:	200057b7          	lui	a5,0x20005
   1c9fa:	0807a783          	lw	a5,128(a5) # 20005080 <SystemCoreClock>
   1c9fe:	3e800693          	li	a3,1000
   1ca02:	02d7d7b3          	divu	a5,a5,a3
   1ca06:	02f507b3          	mul	a5,a0,a5
   1ca0a:	06400693          	li	a3,100
   1ca0e:	02d7d7b3          	divu	a5,a5,a3
   1ca12:	00f77563          	bgeu	a4,a5,1ca1c <Delay_ms+0x28>
E:\02-项目\13-RISCV实验箱\模块驱动\19-LCD_ST7796U\AHL-CH32V307-LCD_ST7796U\Debug/srcc/sccb.c:243 (discriminator 3)
    {
         __asm ("NOP") ;
   1ca16:	0001                	nop
E:\02-项目\13-RISCV实验箱\模块驱动\19-LCD_ST7796U\AHL-CH32V307-LCD_ST7796U\Debug/srcc/sccb.c:241 (discriminator 3)
    for(u32ctr = 0; u32ctr < (SystemCoreClock/1000*u16ms/100); u32ctr++)
   1ca18:	0705                	addi	a4,a4,1
   1ca1a:	bff1                	j	1c9f6 <Delay_ms+0x2>
E:\02-项目\13-RISCV实验箱\模块驱动\19-LCD_ST7796U\AHL-CH32V307-LCD_ST7796U\Debug/srcc/sccb.c:245
    }
}
   1ca1c:	8082                	ret

0001ca1e <sccb_start>:
sccb_start():
E:\02-项目\13-RISCV实验箱\模块驱动\19-LCD_ST7796U\AHL-CH32V307-LCD_ST7796U\Debug/srcc/sccb.c:45
{
   1ca1e:	1141                	addi	sp,sp,-16
   1ca20:	c606                	sw	ra,12(sp)
E:\02-项目\13-RISCV实验箱\模块驱动\19-LCD_ST7796U\AHL-CH32V307-LCD_ST7796U\Debug/srcc/sccb.c:47
    gpio_set(S_CLK, 1);          //SCLK保持高电平
   1ca22:	4585                	li	a1,1
   1ca24:	40d00513          	li	a0,1037
   1ca28:	37e010ef          	jal	ra,1dda6 <gpio_set>
E:\02-项目\13-RISCV实验箱\模块驱动\19-LCD_ST7796U\AHL-CH32V307-LCD_ST7796U\Debug/srcc/sccb.c:48
    gpio_set(S_DIO, 1);          //SDIO保持高电平
   1ca2c:	4585                	li	a1,1
   1ca2e:	40e00513          	li	a0,1038
   1ca32:	374010ef          	jal	ra,1dda6 <gpio_set>
E:\02-项目\13-RISCV实验箱\模块驱动\19-LCD_ST7796U\AHL-CH32V307-LCD_ST7796U\Debug/srcc/sccb.c:49
    Delay_ms(1);
   1ca36:	4505                	li	a0,1
   1ca38:	3f75                	jal	1c9f4 <Delay_ms>
E:\02-项目\13-RISCV实验箱\模块驱动\19-LCD_ST7796U\AHL-CH32V307-LCD_ST7796U\Debug/srcc/sccb.c:50
    gpio_set(S_DIO, 0);          //SDIO拉低
   1ca3a:	4581                	li	a1,0
   1ca3c:	40e00513          	li	a0,1038
   1ca40:	366010ef          	jal	ra,1dda6 <gpio_set>
E:\02-项目\13-RISCV实验箱\模块驱动\19-LCD_ST7796U\AHL-CH32V307-LCD_ST7796U\Debug/srcc/sccb.c:51
    Delay_ms(1);
   1ca44:	4505                	li	a0,1
   1ca46:	377d                	jal	1c9f4 <Delay_ms>
E:\02-项目\13-RISCV实验箱\模块驱动\19-LCD_ST7796U\AHL-CH32V307-LCD_ST7796U\Debug/srcc/sccb.c:52
    gpio_set(S_CLK, 0);          //SCLK拉低
   1ca48:	4581                	li	a1,0
   1ca4a:	40d00513          	li	a0,1037
   1ca4e:	358010ef          	jal	ra,1dda6 <gpio_set>
E:\02-项目\13-RISCV实验箱\模块驱动\19-LCD_ST7796U\AHL-CH32V307-LCD_ST7796U\Debug/srcc/sccb.c:53
    Delay_ms(1);
   1ca52:	4505                	li	a0,1
   1ca54:	3745                	jal	1c9f4 <Delay_ms>
E:\02-项目\13-RISCV实验箱\模块驱动\19-LCD_ST7796U\AHL-CH32V307-LCD_ST7796U\Debug/srcc/sccb.c:54
}
   1ca56:	40b2                	lw	ra,12(sp)
   1ca58:	0141                	addi	sp,sp,16
   1ca5a:	8082                	ret

0001ca5c <sccb_stop>:
sccb_stop():
E:\02-项目\13-RISCV实验箱\模块驱动\19-LCD_ST7796U\AHL-CH32V307-LCD_ST7796U\Debug/srcc/sccb.c:63
{
   1ca5c:	1141                	addi	sp,sp,-16
   1ca5e:	c606                	sw	ra,12(sp)
E:\02-项目\13-RISCV实验箱\模块驱动\19-LCD_ST7796U\AHL-CH32V307-LCD_ST7796U\Debug/srcc/sccb.c:65
    gpio_set(S_CLK, 0);          //SCLK保持低电平
   1ca60:	4581                	li	a1,0
   1ca62:	40d00513          	li	a0,1037
   1ca66:	340010ef          	jal	ra,1dda6 <gpio_set>
E:\02-项目\13-RISCV实验箱\模块驱动\19-LCD_ST7796U\AHL-CH32V307-LCD_ST7796U\Debug/srcc/sccb.c:66
    gpio_set(S_DIO, 0);          //SDIO保持低电平
   1ca6a:	4581                	li	a1,0
   1ca6c:	40e00513          	li	a0,1038
   1ca70:	336010ef          	jal	ra,1dda6 <gpio_set>
E:\02-项目\13-RISCV实验箱\模块驱动\19-LCD_ST7796U\AHL-CH32V307-LCD_ST7796U\Debug/srcc/sccb.c:67
    Delay_ms(1);
   1ca74:	4505                	li	a0,1
   1ca76:	3fbd                	jal	1c9f4 <Delay_ms>
E:\02-项目\13-RISCV实验箱\模块驱动\19-LCD_ST7796U\AHL-CH32V307-LCD_ST7796U\Debug/srcc/sccb.c:68
    gpio_set(S_CLK, 1);          //SCLK拉高
   1ca78:	4585                	li	a1,1
   1ca7a:	40d00513          	li	a0,1037
   1ca7e:	328010ef          	jal	ra,1dda6 <gpio_set>
E:\02-项目\13-RISCV实验箱\模块驱动\19-LCD_ST7796U\AHL-CH32V307-LCD_ST7796U\Debug/srcc/sccb.c:69
    Delay_ms(1);
   1ca82:	4505                	li	a0,1
   1ca84:	3f85                	jal	1c9f4 <Delay_ms>
E:\02-项目\13-RISCV实验箱\模块驱动\19-LCD_ST7796U\AHL-CH32V307-LCD_ST7796U\Debug/srcc/sccb.c:70
    gpio_set(S_DIO, 1);          //SDIO拉高
   1ca86:	4585                	li	a1,1
   1ca88:	40e00513          	li	a0,1038
   1ca8c:	31a010ef          	jal	ra,1dda6 <gpio_set>
E:\02-项目\13-RISCV实验箱\模块驱动\19-LCD_ST7796U\AHL-CH32V307-LCD_ST7796U\Debug/srcc/sccb.c:71
    Delay_ms(1);
   1ca90:	4505                	li	a0,1
   1ca92:	378d                	jal	1c9f4 <Delay_ms>
E:\02-项目\13-RISCV实验箱\模块驱动\19-LCD_ST7796U\AHL-CH32V307-LCD_ST7796U\Debug/srcc/sccb.c:72
}
   1ca94:	40b2                	lw	ra,12(sp)
   1ca96:	0141                	addi	sp,sp,16
   1ca98:	8082                	ret

0001ca9a <sccb_send1>:
sccb_send1():
E:\02-项目\13-RISCV实验箱\模块驱动\19-LCD_ST7796U\AHL-CH32V307-LCD_ST7796U\Debug/srcc/sccb.c:81
{
   1ca9a:	1141                	addi	sp,sp,-16
   1ca9c:	c606                	sw	ra,12(sp)
   1ca9e:	c422                	sw	s0,8(sp)
   1caa0:	c226                	sw	s1,4(sp)
   1caa2:	84aa                	mv	s1,a0
E:\02-项目\13-RISCV实验箱\模块驱动\19-LCD_ST7796U\AHL-CH32V307-LCD_ST7796U\Debug/srcc/sccb.c:84
    for(i=0; i<8; i++)
   1caa4:	4401                	li	s0,0
   1caa6:	a825                	j	1cade <sccb_send1+0x44>
E:\02-项目\13-RISCV实验箱\模块驱动\19-LCD_ST7796U\AHL-CH32V307-LCD_ST7796U\Debug/srcc/sccb.c:87
            gpio_set(S_DIO, 1);
   1caa8:	4585                	li	a1,1
   1caaa:	40e00513          	li	a0,1038
   1caae:	2f8010ef          	jal	ra,1dda6 <gpio_set>
E:\02-项目\13-RISCV实验箱\模块驱动\19-LCD_ST7796U\AHL-CH32V307-LCD_ST7796U\Debug/srcc/sccb.c:90 (discriminator 2)
        data <<= 1;
   1cab2:	0486                	slli	s1,s1,0x1
   1cab4:	0ff4f493          	andi	s1,s1,255
E:\02-项目\13-RISCV实验箱\模块驱动\19-LCD_ST7796U\AHL-CH32V307-LCD_ST7796U\Debug/srcc/sccb.c:91 (discriminator 2)
        Delay_ms(1);
   1cab8:	4505                	li	a0,1
   1caba:	3f2d                	jal	1c9f4 <Delay_ms>
E:\02-项目\13-RISCV实验箱\模块驱动\19-LCD_ST7796U\AHL-CH32V307-LCD_ST7796U\Debug/srcc/sccb.c:92 (discriminator 2)
        gpio_set(S_CLK, 1);      //SCLK拉高
   1cabc:	4585                	li	a1,1
   1cabe:	40d00513          	li	a0,1037
   1cac2:	2e4010ef          	jal	ra,1dda6 <gpio_set>
E:\02-项目\13-RISCV实验箱\模块驱动\19-LCD_ST7796U\AHL-CH32V307-LCD_ST7796U\Debug/srcc/sccb.c:93 (discriminator 2)
        Delay_ms(1);
   1cac6:	4505                	li	a0,1
   1cac8:	3735                	jal	1c9f4 <Delay_ms>
E:\02-项目\13-RISCV实验箱\模块驱动\19-LCD_ST7796U\AHL-CH32V307-LCD_ST7796U\Debug/srcc/sccb.c:94 (discriminator 2)
        gpio_set(S_CLK, 0);      //SCLK拉低
   1caca:	4581                	li	a1,0
   1cacc:	40d00513          	li	a0,1037
   1cad0:	2d6010ef          	jal	ra,1dda6 <gpio_set>
E:\02-项目\13-RISCV实验箱\模块驱动\19-LCD_ST7796U\AHL-CH32V307-LCD_ST7796U\Debug/srcc/sccb.c:95 (discriminator 2)
        Delay_ms(1);
   1cad4:	4505                	li	a0,1
   1cad6:	3f39                	jal	1c9f4 <Delay_ms>
E:\02-项目\13-RISCV实验箱\模块驱动\19-LCD_ST7796U\AHL-CH32V307-LCD_ST7796U\Debug/srcc/sccb.c:84 (discriminator 2)
    for(i=0; i<8; i++)
   1cad8:	0405                	addi	s0,s0,1
   1cada:	0ff47413          	andi	s0,s0,255
E:\02-项目\13-RISCV实验箱\模块驱动\19-LCD_ST7796U\AHL-CH32V307-LCD_ST7796U\Debug/srcc/sccb.c:84 (discriminator 1)
   1cade:	479d                	li	a5,7
   1cae0:	0087ed63          	bltu	a5,s0,1cafa <sccb_send1+0x60>
E:\02-项目\13-RISCV实验箱\模块驱动\19-LCD_ST7796U\AHL-CH32V307-LCD_ST7796U\Debug/srcc/sccb.c:86
        if(data & (0x80))
   1cae4:	01849793          	slli	a5,s1,0x18
   1cae8:	87e1                	srai	a5,a5,0x18
   1caea:	fa07cfe3          	bltz	a5,1caa8 <sccb_send1+0xe>
E:\02-项目\13-RISCV实验箱\模块驱动\19-LCD_ST7796U\AHL-CH32V307-LCD_ST7796U\Debug/srcc/sccb.c:89
            gpio_set(S_DIO, 0);
   1caee:	4581                	li	a1,0
   1caf0:	40e00513          	li	a0,1038
   1caf4:	2b2010ef          	jal	ra,1dda6 <gpio_set>
   1caf8:	bf6d                	j	1cab2 <sccb_send1+0x18>
E:\02-项目\13-RISCV实验箱\模块驱动\19-LCD_ST7796U\AHL-CH32V307-LCD_ST7796U\Debug/srcc/sccb.c:97
}
   1cafa:	40b2                	lw	ra,12(sp)
   1cafc:	4422                	lw	s0,8(sp)
   1cafe:	4492                	lw	s1,4(sp)
   1cb00:	0141                	addi	sp,sp,16
   1cb02:	8082                	ret

0001cb04 <sccb_waitAck>:
sccb_waitAck():
E:\02-项目\13-RISCV实验箱\模块驱动\19-LCD_ST7796U\AHL-CH32V307-LCD_ST7796U\Debug/srcc/sccb.c:100
{
   1cb04:	1141                	addi	sp,sp,-16
   1cb06:	c606                	sw	ra,12(sp)
   1cb08:	c422                	sw	s0,8(sp)
E:\02-项目\13-RISCV实验箱\模块驱动\19-LCD_ST7796U\AHL-CH32V307-LCD_ST7796U\Debug/srcc/sccb.c:102
    gpio_set(S_DIO, 1);          //SDIO拉高
   1cb0a:	4585                	li	a1,1
   1cb0c:	40e00513          	li	a0,1038
   1cb10:	296010ef          	jal	ra,1dda6 <gpio_set>
E:\02-项目\13-RISCV实验箱\模块驱动\19-LCD_ST7796U\AHL-CH32V307-LCD_ST7796U\Debug/srcc/sccb.c:103
    gpio_set(S_CLK, 0);          //SDIO拉高
   1cb14:	4581                	li	a1,0
   1cb16:	40d00513          	li	a0,1037
   1cb1a:	28c010ef          	jal	ra,1dda6 <gpio_set>
E:\02-项目\13-RISCV实验箱\模块驱动\19-LCD_ST7796U\AHL-CH32V307-LCD_ST7796U\Debug/srcc/sccb.c:104
    sdio_input();               //将SDIO转换成输入模式
   1cb1e:	3561                	jal	1c9a6 <sdio_input>
E:\02-项目\13-RISCV实验箱\模块驱动\19-LCD_ST7796U\AHL-CH32V307-LCD_ST7796U\Debug/srcc/sccb.c:105
    Delay_ms(10);
   1cb20:	4529                	li	a0,10
   1cb22:	3dc9                	jal	1c9f4 <Delay_ms>
E:\02-项目\13-RISCV实验箱\模块驱动\19-LCD_ST7796U\AHL-CH32V307-LCD_ST7796U\Debug/srcc/sccb.c:106
    gpio_set(S_CLK, 1);          //SCLK拉高
   1cb24:	4585                	li	a1,1
   1cb26:	40d00513          	li	a0,1037
   1cb2a:	27c010ef          	jal	ra,1dda6 <gpio_set>
E:\02-项目\13-RISCV实验箱\模块驱动\19-LCD_ST7796U\AHL-CH32V307-LCD_ST7796U\Debug/srcc/sccb.c:107
    ack = gpio_get(S_DIO);       //获取应答位
   1cb2e:	40e00513          	li	a0,1038
   1cb32:	3da010ef          	jal	ra,1df0c <gpio_get>
   1cb36:	842a                	mv	s0,a0
E:\02-项目\13-RISCV实验箱\模块驱动\19-LCD_ST7796U\AHL-CH32V307-LCD_ST7796U\Debug/srcc/sccb.c:108
    Delay_ms(1);
   1cb38:	4505                	li	a0,1
   1cb3a:	3d6d                	jal	1c9f4 <Delay_ms>
E:\02-项目\13-RISCV实验箱\模块驱动\19-LCD_ST7796U\AHL-CH32V307-LCD_ST7796U\Debug/srcc/sccb.c:109
    sdio_output();              //将SDIO转换成输出模式
   1cb3c:	3541                	jal	1c9bc <sdio_output>
E:\02-项目\13-RISCV实验箱\模块驱动\19-LCD_ST7796U\AHL-CH32V307-LCD_ST7796U\Debug/srcc/sccb.c:110
    gpio_set(S_CLK, 0);          //SCLK拉低
   1cb3e:	4581                	li	a1,0
   1cb40:	40d00513          	li	a0,1037
   1cb44:	262010ef          	jal	ra,1dda6 <gpio_set>
E:\02-项目\13-RISCV实验箱\模块驱动\19-LCD_ST7796U\AHL-CH32V307-LCD_ST7796U\Debug/srcc/sccb.c:112
}
   1cb48:	8522                	mv	a0,s0
   1cb4a:	40b2                	lw	ra,12(sp)
   1cb4c:	4422                	lw	s0,8(sp)
   1cb4e:	0141                	addi	sp,sp,16
   1cb50:	8082                	ret

0001cb52 <SCCB_Write>:
SCCB_Write():
E:\02-项目\13-RISCV实验箱\模块驱动\19-LCD_ST7796U\AHL-CH32V307-LCD_ST7796U\Debug/srcc/sccb.c:198
{
   1cb52:	1141                	addi	sp,sp,-16
   1cb54:	c606                	sw	ra,12(sp)
   1cb56:	c422                	sw	s0,8(sp)
   1cb58:	c226                	sw	s1,4(sp)
   1cb5a:	c04a                	sw	s2,0(sp)
   1cb5c:	892a                	mv	s2,a0
   1cb5e:	84ae                	mv	s1,a1
   1cb60:	8432                	mv	s0,a2
E:\02-项目\13-RISCV实验箱\模块驱动\19-LCD_ST7796U\AHL-CH32V307-LCD_ST7796U\Debug/srcc/sccb.c:199
    sccb_start();               //发送开始信号
   1cb62:	3d75                	jal	1ca1e <sccb_start>
E:\02-项目\13-RISCV实验箱\模块驱动\19-LCD_ST7796U\AHL-CH32V307-LCD_ST7796U\Debug/srcc/sccb.c:200
    sccb_send1(deceAddress);    //发送设备地址
   1cb64:	854a                	mv	a0,s2
   1cb66:	3f15                	jal	1ca9a <sccb_send1>
E:\02-项目\13-RISCV实验箱\模块驱动\19-LCD_ST7796U\AHL-CH32V307-LCD_ST7796U\Debug/srcc/sccb.c:201
    sccb_waitAck();             //等待应答位
   1cb68:	3f71                	jal	1cb04 <sccb_waitAck>
E:\02-项目\13-RISCV实验箱\模块驱动\19-LCD_ST7796U\AHL-CH32V307-LCD_ST7796U\Debug/srcc/sccb.c:202
    sccb_send1(regisetrAdd);    //发送寄存器地址
   1cb6a:	8526                	mv	a0,s1
   1cb6c:	373d                	jal	1ca9a <sccb_send1>
E:\02-项目\13-RISCV实验箱\模块驱动\19-LCD_ST7796U\AHL-CH32V307-LCD_ST7796U\Debug/srcc/sccb.c:203
    sccb_waitAck();             //等待应答位
   1cb6e:	3f59                	jal	1cb04 <sccb_waitAck>
E:\02-项目\13-RISCV实验箱\模块驱动\19-LCD_ST7796U\AHL-CH32V307-LCD_ST7796U\Debug/srcc/sccb.c:204
    sccb_send1(Data);           //发送数据
   1cb70:	8522                	mv	a0,s0
   1cb72:	3725                	jal	1ca9a <sccb_send1>
E:\02-项目\13-RISCV实验箱\模块驱动\19-LCD_ST7796U\AHL-CH32V307-LCD_ST7796U\Debug/srcc/sccb.c:205
   sccb_waitAck();             //等待应答位
   1cb74:	3f41                	jal	1cb04 <sccb_waitAck>
E:\02-项目\13-RISCV实验箱\模块驱动\19-LCD_ST7796U\AHL-CH32V307-LCD_ST7796U\Debug/srcc/sccb.c:206
    sccb_stop();                //发送停止信号
   1cb76:	35dd                	jal	1ca5c <sccb_stop>
E:\02-项目\13-RISCV实验箱\模块驱动\19-LCD_ST7796U\AHL-CH32V307-LCD_ST7796U\Debug/srcc/sccb.c:207
}
   1cb78:	40b2                	lw	ra,12(sp)
   1cb7a:	4422                	lw	s0,8(sp)
   1cb7c:	4492                	lw	s1,4(sp)
   1cb7e:	4902                	lw	s2,0(sp)
   1cb80:	0141                	addi	sp,sp,16
   1cb82:	8082                	ret

0001cb84 <sccb_rec1>:
sccb_rec1():
E:\02-项目\13-RISCV实验箱\模块驱动\19-LCD_ST7796U\AHL-CH32V307-LCD_ST7796U\Debug/srcc/sccb.c:121
{
   1cb84:	1141                	addi	sp,sp,-16
   1cb86:	c606                	sw	ra,12(sp)
   1cb88:	c422                	sw	s0,8(sp)
   1cb8a:	c226                	sw	s1,4(sp)
   1cb8c:	84aa                	mv	s1,a0
E:\02-项目\13-RISCV实验箱\模块驱动\19-LCD_ST7796U\AHL-CH32V307-LCD_ST7796U\Debug/srcc/sccb.c:123
    gpio_set(S_DIO, 1);          //将SDIO拉高
   1cb8e:	4585                	li	a1,1
   1cb90:	40e00513          	li	a0,1038
   1cb94:	212010ef          	jal	ra,1dda6 <gpio_set>
E:\02-项目\13-RISCV实验箱\模块驱动\19-LCD_ST7796U\AHL-CH32V307-LCD_ST7796U\Debug/srcc/sccb.c:124
    sdio_input();               //将SDIO转换成输入模式
   1cb98:	3539                	jal	1c9a6 <sdio_input>
E:\02-项目\13-RISCV实验箱\模块驱动\19-LCD_ST7796U\AHL-CH32V307-LCD_ST7796U\Debug/srcc/sccb.c:125
    for(i=0; i<8; i++)
   1cb9a:	4401                	li	s0,0
   1cb9c:	a819                	j	1cbb2 <sccb_rec1+0x2e>
E:\02-项目\13-RISCV实验箱\模块驱动\19-LCD_ST7796U\AHL-CH32V307-LCD_ST7796U\Debug/srcc/sccb.c:132 (discriminator 2)
        gpio_set(S_CLK,0);       //将SCLK拉低
   1cb9e:	4581                	li	a1,0
   1cba0:	40d00513          	li	a0,1037
   1cba4:	202010ef          	jal	ra,1dda6 <gpio_set>
E:\02-项目\13-RISCV实验箱\模块驱动\19-LCD_ST7796U\AHL-CH32V307-LCD_ST7796U\Debug/srcc/sccb.c:133 (discriminator 2)
        Delay_ms(1);
   1cba8:	4505                	li	a0,1
   1cbaa:	35a9                	jal	1c9f4 <Delay_ms>
E:\02-项目\13-RISCV实验箱\模块驱动\19-LCD_ST7796U\AHL-CH32V307-LCD_ST7796U\Debug/srcc/sccb.c:125 (discriminator 2)
    for(i=0; i<8; i++)
   1cbac:	0405                	addi	s0,s0,1
   1cbae:	0ff47413          	andi	s0,s0,255
E:\02-项目\13-RISCV实验箱\模块驱动\19-LCD_ST7796U\AHL-CH32V307-LCD_ST7796U\Debug/srcc/sccb.c:125 (discriminator 1)
   1cbb2:	479d                	li	a5,7
   1cbb4:	0287ea63          	bltu	a5,s0,1cbe8 <sccb_rec1+0x64>
E:\02-项目\13-RISCV实验箱\模块驱动\19-LCD_ST7796U\AHL-CH32V307-LCD_ST7796U\Debug/srcc/sccb.c:127
        gpio_set(S_CLK,1);       //将SCLK拉高
   1cbb8:	4585                	li	a1,1
   1cbba:	40d00513          	li	a0,1037
   1cbbe:	1e8010ef          	jal	ra,1dda6 <gpio_set>
E:\02-项目\13-RISCV实验箱\模块驱动\19-LCD_ST7796U\AHL-CH32V307-LCD_ST7796U\Debug/srcc/sccb.c:128
        Delay_ms(1);
   1cbc2:	4505                	li	a0,1
   1cbc4:	3d05                	jal	1c9f4 <Delay_ms>
E:\02-项目\13-RISCV实验箱\模块驱动\19-LCD_ST7796U\AHL-CH32V307-LCD_ST7796U\Debug/srcc/sccb.c:129
        *data <<= 1;
   1cbc6:	0004c783          	lbu	a5,0(s1)
   1cbca:	0786                	slli	a5,a5,0x1
   1cbcc:	00f48023          	sb	a5,0(s1)
E:\02-项目\13-RISCV实验箱\模块驱动\19-LCD_ST7796U\AHL-CH32V307-LCD_ST7796U\Debug/srcc/sccb.c:130
        if(gpio_get(S_DIO))      //获取SDIO上的数据
   1cbd0:	40e00513          	li	a0,1038
   1cbd4:	338010ef          	jal	ra,1df0c <gpio_get>
   1cbd8:	d179                	beqz	a0,1cb9e <sccb_rec1+0x1a>
E:\02-项目\13-RISCV实验箱\模块驱动\19-LCD_ST7796U\AHL-CH32V307-LCD_ST7796U\Debug/srcc/sccb.c:131
            *data |= 1;
   1cbda:	0004c783          	lbu	a5,0(s1)
   1cbde:	0017e793          	ori	a5,a5,1
   1cbe2:	00f48023          	sb	a5,0(s1)
   1cbe6:	bf65                	j	1cb9e <sccb_rec1+0x1a>
E:\02-项目\13-RISCV实验箱\模块驱动\19-LCD_ST7796U\AHL-CH32V307-LCD_ST7796U\Debug/srcc/sccb.c:135
     sdio_output();             //将SDIO转换成输出模式
   1cbe8:	3bd1                	jal	1c9bc <sdio_output>
E:\02-项目\13-RISCV实验箱\模块驱动\19-LCD_ST7796U\AHL-CH32V307-LCD_ST7796U\Debug/srcc/sccb.c:136
     Delay_ms(1);
   1cbea:	4505                	li	a0,1
   1cbec:	3521                	jal	1c9f4 <Delay_ms>
E:\02-项目\13-RISCV实验箱\模块驱动\19-LCD_ST7796U\AHL-CH32V307-LCD_ST7796U\Debug/srcc/sccb.c:137
}
   1cbee:	40b2                	lw	ra,12(sp)
   1cbf0:	4422                	lw	s0,8(sp)
   1cbf2:	4492                	lw	s1,4(sp)
   1cbf4:	0141                	addi	sp,sp,16
   1cbf6:	8082                	ret

0001cbf8 <sccb_nack>:
sccb_nack():
E:\02-项目\13-RISCV实验箱\模块驱动\19-LCD_ST7796U\AHL-CH32V307-LCD_ST7796U\Debug/srcc/sccb.c:164
{
   1cbf8:	1141                	addi	sp,sp,-16
   1cbfa:	c606                	sw	ra,12(sp)
E:\02-项目\13-RISCV实验箱\模块驱动\19-LCD_ST7796U\AHL-CH32V307-LCD_ST7796U\Debug/srcc/sccb.c:165
     gpio_set(S_CLK,0);          //将SCLK拉低
   1cbfc:	4581                	li	a1,0
   1cbfe:	40d00513          	li	a0,1037
   1cc02:	1a4010ef          	jal	ra,1dda6 <gpio_set>
E:\02-项目\13-RISCV实验箱\模块驱动\19-LCD_ST7796U\AHL-CH32V307-LCD_ST7796U\Debug/srcc/sccb.c:166
     Delay_ms(1);
   1cc06:	4505                	li	a0,1
   1cc08:	33f5                	jal	1c9f4 <Delay_ms>
E:\02-项目\13-RISCV实验箱\模块驱动\19-LCD_ST7796U\AHL-CH32V307-LCD_ST7796U\Debug/srcc/sccb.c:167
     gpio_set(S_DIO,1);          //将SDIO拉高
   1cc0a:	4585                	li	a1,1
   1cc0c:	40e00513          	li	a0,1038
   1cc10:	196010ef          	jal	ra,1dda6 <gpio_set>
E:\02-项目\13-RISCV实验箱\模块驱动\19-LCD_ST7796U\AHL-CH32V307-LCD_ST7796U\Debug/srcc/sccb.c:168
     Delay_ms(1);
   1cc14:	4505                	li	a0,1
   1cc16:	3bf9                	jal	1c9f4 <Delay_ms>
E:\02-项目\13-RISCV实验箱\模块驱动\19-LCD_ST7796U\AHL-CH32V307-LCD_ST7796U\Debug/srcc/sccb.c:169
     gpio_set(S_CLK,1);          //将SCLK拉高
   1cc18:	4585                	li	a1,1
   1cc1a:	40d00513          	li	a0,1037
   1cc1e:	188010ef          	jal	ra,1dda6 <gpio_set>
E:\02-项目\13-RISCV实验箱\模块驱动\19-LCD_ST7796U\AHL-CH32V307-LCD_ST7796U\Debug/srcc/sccb.c:170
     Delay_ms(1);
   1cc22:	4505                	li	a0,1
   1cc24:	3bc1                	jal	1c9f4 <Delay_ms>
E:\02-项目\13-RISCV实验箱\模块驱动\19-LCD_ST7796U\AHL-CH32V307-LCD_ST7796U\Debug/srcc/sccb.c:171
     gpio_set(S_CLK,0);          //将SCLK拉低
   1cc26:	4581                	li	a1,0
   1cc28:	40d00513          	li	a0,1037
   1cc2c:	17a010ef          	jal	ra,1dda6 <gpio_set>
E:\02-项目\13-RISCV实验箱\模块驱动\19-LCD_ST7796U\AHL-CH32V307-LCD_ST7796U\Debug/srcc/sccb.c:172
     Delay_ms(1);
   1cc30:	4505                	li	a0,1
   1cc32:	33c9                	jal	1c9f4 <Delay_ms>
E:\02-项目\13-RISCV实验箱\模块驱动\19-LCD_ST7796U\AHL-CH32V307-LCD_ST7796U\Debug/srcc/sccb.c:173
}
   1cc34:	40b2                	lw	ra,12(sp)
   1cc36:	0141                	addi	sp,sp,16
   1cc38:	8082                	ret

0001cc3a <SCCB_Read>:
SCCB_Read():
E:\02-项目\13-RISCV实验箱\模块驱动\19-LCD_ST7796U\AHL-CH32V307-LCD_ST7796U\Debug/srcc/sccb.c:216
{
   1cc3a:	1141                	addi	sp,sp,-16
   1cc3c:	c606                	sw	ra,12(sp)
   1cc3e:	c422                	sw	s0,8(sp)
   1cc40:	c226                	sw	s1,4(sp)
   1cc42:	c04a                	sw	s2,0(sp)
   1cc44:	842a                	mv	s0,a0
   1cc46:	892e                	mv	s2,a1
   1cc48:	84b2                	mv	s1,a2
E:\02-项目\13-RISCV实验箱\模块驱动\19-LCD_ST7796U\AHL-CH32V307-LCD_ST7796U\Debug/srcc/sccb.c:217
    sccb_start();               //发送开始信号
   1cc4a:	3bd1                	jal	1ca1e <sccb_start>
E:\02-项目\13-RISCV实验箱\模块驱动\19-LCD_ST7796U\AHL-CH32V307-LCD_ST7796U\Debug/srcc/sccb.c:218
    sccb_send1(deceAddress);    //发送设备地址
   1cc4c:	8522                	mv	a0,s0
   1cc4e:	35b1                	jal	1ca9a <sccb_send1>
E:\02-项目\13-RISCV实验箱\模块驱动\19-LCD_ST7796U\AHL-CH32V307-LCD_ST7796U\Debug/srcc/sccb.c:219
    sccb_waitAck();             //等待应答位
   1cc50:	3d55                	jal	1cb04 <sccb_waitAck>
E:\02-项目\13-RISCV实验箱\模块驱动\19-LCD_ST7796U\AHL-CH32V307-LCD_ST7796U\Debug/srcc/sccb.c:220
    sccb_send1(regisetrAdd);    //发送寄存器地址
   1cc52:	854a                	mv	a0,s2
   1cc54:	3599                	jal	1ca9a <sccb_send1>
E:\02-项目\13-RISCV实验箱\模块驱动\19-LCD_ST7796U\AHL-CH32V307-LCD_ST7796U\Debug/srcc/sccb.c:221
    sccb_waitAck();             //等待应答位
   1cc56:	357d                	jal	1cb04 <sccb_waitAck>
E:\02-项目\13-RISCV实验箱\模块驱动\19-LCD_ST7796U\AHL-CH32V307-LCD_ST7796U\Debug/srcc/sccb.c:222
    sccb_stop();                //发送停止信号
   1cc58:	3511                	jal	1ca5c <sccb_stop>
E:\02-项目\13-RISCV实验箱\模块驱动\19-LCD_ST7796U\AHL-CH32V307-LCD_ST7796U\Debug/srcc/sccb.c:223
    sccb_start();               //发送开始信号
   1cc5a:	33d1                	jal	1ca1e <sccb_start>
E:\02-项目\13-RISCV实验箱\模块驱动\19-LCD_ST7796U\AHL-CH32V307-LCD_ST7796U\Debug/srcc/sccb.c:224
    sccb_send1(deceAddress+1);  //发送设备地址
   1cc5c:	00140513          	addi	a0,s0,1
   1cc60:	0ff57513          	andi	a0,a0,255
   1cc64:	3d1d                	jal	1ca9a <sccb_send1>
E:\02-项目\13-RISCV实验箱\模块驱动\19-LCD_ST7796U\AHL-CH32V307-LCD_ST7796U\Debug/srcc/sccb.c:225
    sccb_waitAck();             //等待应答位
   1cc66:	3d79                	jal	1cb04 <sccb_waitAck>
E:\02-项目\13-RISCV实验箱\模块驱动\19-LCD_ST7796U\AHL-CH32V307-LCD_ST7796U\Debug/srcc/sccb.c:226
    sccb_rec1(Data);            //接收数据
   1cc68:	8526                	mv	a0,s1
   1cc6a:	3f29                	jal	1cb84 <sccb_rec1>
E:\02-项目\13-RISCV实验箱\模块驱动\19-LCD_ST7796U\AHL-CH32V307-LCD_ST7796U\Debug/srcc/sccb.c:227
    sccb_nack();                //发送非应答信号
   1cc6c:	3771                	jal	1cbf8 <sccb_nack>
E:\02-项目\13-RISCV实验箱\模块驱动\19-LCD_ST7796U\AHL-CH32V307-LCD_ST7796U\Debug/srcc/sccb.c:228
    sccb_stop();                //发送停止信号
   1cc6e:	33fd                	jal	1ca5c <sccb_stop>
E:\02-项目\13-RISCV实验箱\模块驱动\19-LCD_ST7796U\AHL-CH32V307-LCD_ST7796U\Debug/srcc/sccb.c:229
}
   1cc70:	40b2                	lw	ra,12(sp)
   1cc72:	4422                	lw	s0,8(sp)
   1cc74:	4492                	lw	s1,4(sp)
   1cc76:	4902                	lw	s2,0(sp)
   1cc78:	0141                	addi	sp,sp,16
   1cc7a:	8082                	ret

0001cc7c <cam_getimg_5656>:
cam_getimg_5656():
E:\02-项目\13-RISCV实验箱\模块驱动\19-LCD_ST7796U\AHL-CH32V307-LCD_ST7796U\Debug/srcc/cam.c:92
//    GPIO_TypeDef *gpio_ptr;
//    gpio_ptr=(GPIO_TypeDef *)GPIOB_BASE;
//
//
//    //(2)得到FIFO缓冲区缓冲结束信号
    if(cam_refresh_end)
   1cc7c:	200077b7          	lui	a5,0x20007
   1cc80:	9197c783          	lbu	a5,-1767(a5) # 20006919 <cam_refresh_end>
   1cc84:	e791                	bnez	a5,1cc90 <cam_getimg_5656+0x14>
E:\02-项目\13-RISCV实验箱\模块驱动\19-LCD_ST7796U\AHL-CH32V307-LCD_ST7796U\Debug/srcc/cam.c:180
        cam_refresh_end=0;
        //(6)使能像素帧中断
        gpio_enable_int(cam_VSYNC,FALLING_EDGE);
    }
    //（7）返回56*56大小的彩色像素数组
    return image16;
   1cc86:	20005537          	lui	a0,0x20005
E:\02-项目\13-RISCV实验箱\模块驱动\19-LCD_ST7796U\AHL-CH32V307-LCD_ST7796U\Debug/srcc/cam.c:181
}
   1cc8a:	08c50513          	addi	a0,a0,140 # 2000508c <image16>
   1cc8e:	8082                	ret
E:\02-项目\13-RISCV实验箱\模块驱动\19-LCD_ST7796U\AHL-CH32V307-LCD_ST7796U\Debug/srcc/cam.c:73
{
   1cc90:	1101                	addi	sp,sp,-32
   1cc92:	ce06                	sw	ra,28(sp)
   1cc94:	cc22                	sw	s0,24(sp)
   1cc96:	ca26                	sw	s1,20(sp)
   1cc98:	c84a                	sw	s2,16(sp)
   1cc9a:	c64e                	sw	s3,12(sp)
   1cc9c:	c452                	sw	s4,8(sp)
   1cc9e:	c256                	sw	s5,4(sp)
cam_FIFO_OE_0():
E:\02-项目\13-RISCV实验箱\模块驱动\19-LCD_ST7796U\AHL-CH32V307-LCD_ST7796U\Debug/srcc/cam.c:302
//参数说明：无
//功能概要：FIFO输出使能低电平输出
//=====================================================================
inline void cam_FIFO_OE_0()
{
    gpio_init(cam_FIFO_OE,1,0);
   1cca0:	4601                	li	a2,0
   1cca2:	4585                	li	a1,1
   1cca4:	4521                	li	a0,8
   1cca6:	154010ef          	jal	ra,1ddfa <gpio_init>
cam_FIFO_RRST_0():
E:\02-项目\13-RISCV实验箱\模块驱动\19-LCD_ST7796U\AHL-CH32V307-LCD_ST7796U\Debug/srcc/cam.c:279
    gpio_init(cam_FIFO_RRST,1,0);
   1ccaa:	4601                	li	a2,0
   1ccac:	4585                	li	a1,1
   1ccae:	20800513          	li	a0,520
   1ccb2:	148010ef          	jal	ra,1ddfa <gpio_init>
cam_FIFO_RCK_0():
E:\02-项目\13-RISCV实验箱\模块驱动\19-LCD_ST7796U\AHL-CH32V307-LCD_ST7796U\Debug/srcc/cam.c:257
    gpio_set(cam_FIFO_RCK,0);
   1ccb6:	4581                	li	a1,0
   1ccb8:	453d                	li	a0,15
   1ccba:	0ec010ef          	jal	ra,1dda6 <gpio_set>
cam_FIFO_RCK_1():
E:\02-项目\13-RISCV实验箱\模块驱动\19-LCD_ST7796U\AHL-CH32V307-LCD_ST7796U\Debug/srcc/cam.c:268
    gpio_set(cam_FIFO_RCK,1);
   1ccbe:	4585                	li	a1,1
   1ccc0:	453d                	li	a0,15
   1ccc2:	0e4010ef          	jal	ra,1dda6 <gpio_set>
cam_FIFO_RCK_0():
E:\02-项目\13-RISCV实验箱\模块驱动\19-LCD_ST7796U\AHL-CH32V307-LCD_ST7796U\Debug/srcc/cam.c:257
    gpio_set(cam_FIFO_RCK,0);
   1ccc6:	4581                	li	a1,0
   1ccc8:	453d                	li	a0,15
   1ccca:	0dc010ef          	jal	ra,1dda6 <gpio_set>
cam_FIFO_RRST_1():
E:\02-项目\13-RISCV实验箱\模块驱动\19-LCD_ST7796U\AHL-CH32V307-LCD_ST7796U\Debug/srcc/cam.c:290
    gpio_init(cam_FIFO_RRST,1,1);
   1ccce:	4605                	li	a2,1
   1ccd0:	4585                	li	a1,1
   1ccd2:	20800513          	li	a0,520
   1ccd6:	124010ef          	jal	ra,1ddfa <gpio_init>
cam_FIFO_RCK_1():
E:\02-项目\13-RISCV实验箱\模块驱动\19-LCD_ST7796U\AHL-CH32V307-LCD_ST7796U\Debug/srcc/cam.c:268
    gpio_set(cam_FIFO_RCK,1);
   1ccda:	4585                	li	a1,1
   1ccdc:	453d                	li	a0,15
   1ccde:	0c8010ef          	jal	ra,1dda6 <gpio_set>
cam_getimg_5656():
E:\02-项目\13-RISCV实验箱\模块驱动\19-LCD_ST7796U\AHL-CH32V307-LCD_ST7796U\Debug/srcc/cam.c:108
        Address_set(40,25,206,192);
   1cce2:	0c000693          	li	a3,192
   1cce6:	0ce00613          	li	a2,206
   1ccea:	45e5                	li	a1,25
   1ccec:	02800513          	li	a0,40
   1ccf0:	370020ef          	jal	ra,1f060 <Address_set>
E:\02-项目\13-RISCV实验箱\模块驱动\19-LCD_ST7796U\AHL-CH32V307-LCD_ST7796U\Debug/srcc/cam.c:79
    uint16_t count=0;
   1ccf4:	4901                	li	s2,0
E:\02-项目\13-RISCV实验箱\模块驱动\19-LCD_ST7796U\AHL-CH32V307-LCD_ST7796U\Debug/srcc/cam.c:77
    register uint16_t color=0;
   1ccf6:	4981                	li	s3,0
E:\02-项目\13-RISCV实验箱\模块驱动\19-LCD_ST7796U\AHL-CH32V307-LCD_ST7796U\Debug/srcc/cam.c:110
        for(i=0;i<240;i++)
   1ccf8:	4481                	li	s1,0
   1ccfa:	a219                	j	1ce00 <cam_getimg_5656+0x184>
E:\02-项目\13-RISCV实验箱\模块驱动\19-LCD_ST7796U\AHL-CH32V307-LCD_ST7796U\Debug/srcc/cam.c:117 (discriminator 1)
                if(i>36&&i<204&&j>76&&j<244)           //168*168if(i>36&&i<204&&j>76&&j<244)
   1ccfc:	04c00793          	li	a5,76
   1cd00:	0887f863          	bgeu	a5,s0,1cd90 <cam_getimg_5656+0x114>
E:\02-项目\13-RISCV实验箱\模块驱动\19-LCD_ST7796U\AHL-CH32V307-LCD_ST7796U\Debug/srcc/cam.c:117 (discriminator 2)
   1cd04:	0f300793          	li	a5,243
   1cd08:	0887e463          	bltu	a5,s0,1cd90 <cam_getimg_5656+0x114>
E:\02-项目\13-RISCV实验箱\模块驱动\19-LCD_ST7796U\AHL-CH32V307-LCD_ST7796U\Debug/srcc/cam.c:120
                    color=(GPIOD->INDR & 0x000000FF);
   1cd0c:	400117b7          	lui	a5,0x40011
   1cd10:	40078713          	addi	a4,a5,1024 # 40011400 <GEC_USER_RAM_END+0x1fff1400>
   1cd14:	00872983          	lw	s3,8(a4)
   1cd18:	09c2                	slli	s3,s3,0x10
   1cd1a:	0109d993          	srli	s3,s3,0x10
E:\02-项目\13-RISCV实验箱\模块驱动\19-LCD_ST7796U\AHL-CH32V307-LCD_ST7796U\Debug/srcc/cam.c:122
                    GPIOA->BSHR = (uint32_t)(1u<<15);//时钟口置高电平
   1cd1e:	80078793          	addi	a5,a5,-2048
   1cd22:	66a1                	lui	a3,0x8
   1cd24:	cb94                	sw	a3,16(a5)
E:\02-项目\13-RISCV实验箱\模块驱动\19-LCD_ST7796U\AHL-CH32V307-LCD_ST7796U\Debug/srcc/cam.c:126
                    __asm("NOP");
   1cd26:	0001                	nop
E:\02-项目\13-RISCV实验箱\模块驱动\19-LCD_ST7796U\AHL-CH32V307-LCD_ST7796U\Debug/srcc/cam.c:129
                    GPIOA->BCR = (uint32_t)(1u<<15); //时钟口置低电平
   1cd28:	cbd4                	sw	a3,20(a5)
E:\02-项目\13-RISCV实验箱\模块驱动\19-LCD_ST7796U\AHL-CH32V307-LCD_ST7796U\Debug/srcc/cam.c:130
                    __asm("NOP");
   1cd2a:	0001                	nop
E:\02-项目\13-RISCV实验箱\模块驱动\19-LCD_ST7796U\AHL-CH32V307-LCD_ST7796U\Debug/srcc/cam.c:134
                    color|=(GPIOD->INDR & 0x000000FF);
   1cd2c:	471c                	lw	a5,8(a4)
   1cd2e:	0ff7f793          	andi	a5,a5,255
   1cd32:	09a2                	slli	s3,s3,0x8
   1cd34:	00f9e9b3          	or	s3,s3,a5
   1cd38:	09c2                	slli	s3,s3,0x10
   1cd3a:	0109d993          	srli	s3,s3,0x10
E:\02-项目\13-RISCV实验箱\模块驱动\19-LCD_ST7796U\AHL-CH32V307-LCD_ST7796U\Debug/srcc/cam.c:138
                    GPIOE->BSHR = (uint32_t)(1u<<0); //lcd_dc 即e0 置1
   1cd3e:	40012a37          	lui	s4,0x40012
   1cd42:	4785                	li	a5,1
   1cd44:	80fa2823          	sw	a5,-2032(s4) # 40011810 <GEC_USER_RAM_END+0x1fff1810>
E:\02-项目\13-RISCV实验箱\模块驱动\19-LCD_ST7796U\AHL-CH32V307-LCD_ST7796U\Debug/srcc/cam.c:139
                    GPIOE->BCR = (uint32_t)(1u<<1);  //lcd cs 即e1 置0
   1cd48:	4a89                	li	s5,2
   1cd4a:	815a2a23          	sw	s5,-2028(s4)
E:\02-项目\13-RISCV实验箱\模块驱动\19-LCD_ST7796U\AHL-CH32V307-LCD_ST7796U\Debug/srcc/cam.c:141
                    spi_send1(LCD_SPI,color>>8);
   1cd4e:	0089d593          	srli	a1,s3,0x8
   1cd52:	4509                	li	a0,2
   1cd54:	3a9010ef          	jal	ra,1e8fc <spi_send1>
E:\02-项目\13-RISCV实验箱\模块驱动\19-LCD_ST7796U\AHL-CH32V307-LCD_ST7796U\Debug/srcc/cam.c:142
                    spi_send1(LCD_SPI,color);
   1cd58:	0ff9f593          	andi	a1,s3,255
   1cd5c:	4509                	li	a0,2
   1cd5e:	39f010ef          	jal	ra,1e8fc <spi_send1>
E:\02-项目\13-RISCV实验箱\模块驱动\19-LCD_ST7796U\AHL-CH32V307-LCD_ST7796U\Debug/srcc/cam.c:143
                    GPIOE->BSHR = (uint32_t)(1u<<1); //lcd cs 即b6 置1
   1cd62:	815a2823          	sw	s5,-2032(s4)
   1cd66:	a825                	j	1cd9e <cam_getimg_5656+0x122>
E:\02-项目\13-RISCV实验箱\模块驱动\19-LCD_ST7796U\AHL-CH32V307-LCD_ST7796U\Debug/srcc/cam.c:113 (discriminator 2)
            for(j=0;j<320;j++)
   1cd68:	0405                	addi	s0,s0,1
   1cd6a:	0442                	slli	s0,s0,0x10
   1cd6c:	8041                	srli	s0,s0,0x10
E:\02-项目\13-RISCV实验箱\模块驱动\19-LCD_ST7796U\AHL-CH32V307-LCD_ST7796U\Debug/srcc/cam.c:113 (discriminator 1)
   1cd6e:	13f00793          	li	a5,319
   1cd72:	0887e463          	bltu	a5,s0,1cdfa <cam_getimg_5656+0x17e>
E:\02-项目\13-RISCV实验箱\模块驱动\19-LCD_ST7796U\AHL-CH32V307-LCD_ST7796U\Debug/srcc/cam.c:115
                GPIOA->BCR = (uint32_t)(1u<<15);     //时钟口置低电平
   1cd76:	400117b7          	lui	a5,0x40011
   1cd7a:	6721                	lui	a4,0x8
   1cd7c:	80e7aa23          	sw	a4,-2028(a5) # 40010814 <GEC_USER_RAM_END+0x1fff0814>
E:\02-项目\13-RISCV实验箱\模块驱动\19-LCD_ST7796U\AHL-CH32V307-LCD_ST7796U\Debug/srcc/cam.c:117
                if(i>36&&i<204&&j>76&&j<244)           //168*168if(i>36&&i<204&&j>76&&j<244)
   1cd80:	fdb48793          	addi	a5,s1,-37
   1cd84:	07c2                	slli	a5,a5,0x10
   1cd86:	83c1                	srli	a5,a5,0x10
   1cd88:	0a600713          	li	a4,166
   1cd8c:	f6f778e3          	bgeu	a4,a5,1ccfc <cam_getimg_5656+0x80>
E:\02-项目\13-RISCV实验箱\模块驱动\19-LCD_ST7796U\AHL-CH32V307-LCD_ST7796U\Debug/srcc/cam.c:149
                    GPIOA->BSHR = (uint32_t)(1u<<15);
   1cd90:	400117b7          	lui	a5,0x40011
   1cd94:	6721                	lui	a4,0x8
   1cd96:	80e7a823          	sw	a4,-2032(a5) # 40010810 <GEC_USER_RAM_END+0x1fff0810>
E:\02-项目\13-RISCV实验箱\模块驱动\19-LCD_ST7796U\AHL-CH32V307-LCD_ST7796U\Debug/srcc/cam.c:150
                    GPIOA->BCR = (uint32_t)(1u<<15);
   1cd9a:	80e7aa23          	sw	a4,-2028(a5)
E:\02-项目\13-RISCV实验箱\模块驱动\19-LCD_ST7796U\AHL-CH32V307-LCD_ST7796U\Debug/srcc/cam.c:153
                GPIOA->BSHR = (uint32_t)(1u<<15);
   1cd9e:	400117b7          	lui	a5,0x40011
   1cda2:	6721                	lui	a4,0x8
   1cda4:	80e7a823          	sw	a4,-2032(a5) # 40010810 <GEC_USER_RAM_END+0x1fff0810>
E:\02-项目\13-RISCV实验箱\模块驱动\19-LCD_ST7796U\AHL-CH32V307-LCD_ST7796U\Debug/srcc/cam.c:156
                if(i%3==2&&j%3==2&&i>36&&i<204&&j>76&&j<244)
   1cda8:	478d                	li	a5,3
   1cdaa:	02f4f7b3          	remu	a5,s1,a5
   1cdae:	4709                	li	a4,2
   1cdb0:	fae79ce3          	bne	a5,a4,1cd68 <cam_getimg_5656+0xec>
E:\02-项目\13-RISCV实验箱\模块驱动\19-LCD_ST7796U\AHL-CH32V307-LCD_ST7796U\Debug/srcc/cam.c:156 (discriminator 1)
   1cdb4:	478d                	li	a5,3
   1cdb6:	02f477b3          	remu	a5,s0,a5
   1cdba:	fae797e3          	bne	a5,a4,1cd68 <cam_getimg_5656+0xec>
E:\02-项目\13-RISCV实验箱\模块驱动\19-LCD_ST7796U\AHL-CH32V307-LCD_ST7796U\Debug/srcc/cam.c:156 (discriminator 2)
   1cdbe:	02400793          	li	a5,36
   1cdc2:	fa97f3e3          	bgeu	a5,s1,1cd68 <cam_getimg_5656+0xec>
E:\02-项目\13-RISCV实验箱\模块驱动\19-LCD_ST7796U\AHL-CH32V307-LCD_ST7796U\Debug/srcc/cam.c:156 (discriminator 3)
   1cdc6:	0cb00793          	li	a5,203
   1cdca:	f897efe3          	bltu	a5,s1,1cd68 <cam_getimg_5656+0xec>
E:\02-项目\13-RISCV实验箱\模块驱动\19-LCD_ST7796U\AHL-CH32V307-LCD_ST7796U\Debug/srcc/cam.c:156 (discriminator 4)
   1cdce:	04c00793          	li	a5,76
   1cdd2:	f887fbe3          	bgeu	a5,s0,1cd68 <cam_getimg_5656+0xec>
E:\02-项目\13-RISCV实验箱\模块驱动\19-LCD_ST7796U\AHL-CH32V307-LCD_ST7796U\Debug/srcc/cam.c:156 (discriminator 5)
   1cdd6:	0f300793          	li	a5,243
   1cdda:	f887e7e3          	bltu	a5,s0,1cd68 <cam_getimg_5656+0xec>
E:\02-项目\13-RISCV实验箱\模块驱动\19-LCD_ST7796U\AHL-CH32V307-LCD_ST7796U\Debug/srcc/cam.c:161
                    image16[count]=color;
   1cdde:	00191793          	slli	a5,s2,0x1
   1cde2:	20005737          	lui	a4,0x20005
   1cde6:	08c70713          	addi	a4,a4,140 # 2000508c <image16>
   1cdea:	97ba                	add	a5,a5,a4
   1cdec:	01379023          	sh	s3,0(a5)
E:\02-项目\13-RISCV实验箱\模块驱动\19-LCD_ST7796U\AHL-CH32V307-LCD_ST7796U\Debug/srcc/cam.c:162
                    count++;
   1cdf0:	0905                	addi	s2,s2,1
   1cdf2:	0942                	slli	s2,s2,0x10
   1cdf4:	01095913          	srli	s2,s2,0x10
   1cdf8:	bf85                	j	1cd68 <cam_getimg_5656+0xec>
E:\02-项目\13-RISCV实验箱\模块驱动\19-LCD_ST7796U\AHL-CH32V307-LCD_ST7796U\Debug/srcc/cam.c:110 (discriminator 2)
        for(i=0;i<240;i++)
   1cdfa:	0485                	addi	s1,s1,1
   1cdfc:	04c2                	slli	s1,s1,0x10
   1cdfe:	80c1                	srli	s1,s1,0x10
E:\02-项目\13-RISCV实验箱\模块驱动\19-LCD_ST7796U\AHL-CH32V307-LCD_ST7796U\Debug/srcc/cam.c:110 (discriminator 1)
   1ce00:	0ef00793          	li	a5,239
   1ce04:	0097e463          	bltu	a5,s1,1ce0c <cam_getimg_5656+0x190>
E:\02-项目\13-RISCV实验箱\模块驱动\19-LCD_ST7796U\AHL-CH32V307-LCD_ST7796U\Debug/srcc/cam.c:113
            for(j=0;j<320;j++)
   1ce08:	4401                	li	s0,0
   1ce0a:	b795                	j	1cd6e <cam_getimg_5656+0xf2>
cam_FIFO_OE_1():
E:\02-项目\13-RISCV实验箱\模块驱动\19-LCD_ST7796U\AHL-CH32V307-LCD_ST7796U\Debug/srcc/cam.c:313
//参数说明：无
//功能概要：FIFO输出使能高电平输出
//=====================================================================
inline void cam_FIFO_OE_1()
{
    gpio_init(cam_FIFO_OE,1,1);
   1ce0c:	4605                	li	a2,1
   1ce0e:	4585                	li	a1,1
   1ce10:	4521                	li	a0,8
   1ce12:	7e9000ef          	jal	ra,1ddfa <gpio_init>
cam_FIFO_RCK_0():
E:\02-项目\13-RISCV实验箱\模块驱动\19-LCD_ST7796U\AHL-CH32V307-LCD_ST7796U\Debug/srcc/cam.c:257
    gpio_set(cam_FIFO_RCK,0);
   1ce16:	4581                	li	a1,0
   1ce18:	453d                	li	a0,15
   1ce1a:	78d000ef          	jal	ra,1dda6 <gpio_set>
cam_FIFO_RCK_1():
E:\02-项目\13-RISCV实验箱\模块驱动\19-LCD_ST7796U\AHL-CH32V307-LCD_ST7796U\Debug/srcc/cam.c:268
    gpio_set(cam_FIFO_RCK,1);
   1ce1e:	4585                	li	a1,1
   1ce20:	453d                	li	a0,15
   1ce22:	785000ef          	jal	ra,1dda6 <gpio_set>
cam_getimg_5656():
E:\02-项目\13-RISCV实验箱\模块驱动\19-LCD_ST7796U\AHL-CH32V307-LCD_ST7796U\Debug/srcc/cam.c:173
        cam_ready=0;
   1ce26:	200077b7          	lui	a5,0x20007
   1ce2a:	96078623          	sb	zero,-1684(a5) # 2000696c <cam_ready>
E:\02-项目\13-RISCV实验箱\模块驱动\19-LCD_ST7796U\AHL-CH32V307-LCD_ST7796U\Debug/srcc/cam.c:174
        cam_fifo_ready=0;
   1ce2e:	200077b7          	lui	a5,0x20007
   1ce32:	96078523          	sb	zero,-1686(a5) # 2000696a <cam_fifo_ready>
E:\02-项目\13-RISCV实验箱\模块驱动\19-LCD_ST7796U\AHL-CH32V307-LCD_ST7796U\Debug/srcc/cam.c:175
        cam_refresh_end=0;
   1ce36:	200077b7          	lui	a5,0x20007
   1ce3a:	90078ca3          	sb	zero,-1767(a5) # 20006919 <cam_refresh_end>
E:\02-项目\13-RISCV实验箱\模块驱动\19-LCD_ST7796U\AHL-CH32V307-LCD_ST7796U\Debug/srcc/cam.c:177
        gpio_enable_int(cam_VSYNC,FALLING_EDGE);
   1ce3e:	45b1                	li	a1,12
   1ce40:	20c00513          	li	a0,524
   1ce44:	1fc010ef          	jal	ra,1e040 <gpio_enable_int>
E:\02-项目\13-RISCV实验箱\模块驱动\19-LCD_ST7796U\AHL-CH32V307-LCD_ST7796U\Debug/srcc/cam.c:180
    return image16;
   1ce48:	20005537          	lui	a0,0x20005
E:\02-项目\13-RISCV实验箱\模块驱动\19-LCD_ST7796U\AHL-CH32V307-LCD_ST7796U\Debug/srcc/cam.c:181
}
   1ce4c:	08c50513          	addi	a0,a0,140 # 2000508c <image16>
   1ce50:	40f2                	lw	ra,28(sp)
   1ce52:	4462                	lw	s0,24(sp)
   1ce54:	44d2                	lw	s1,20(sp)
   1ce56:	4942                	lw	s2,16(sp)
   1ce58:	49b2                	lw	s3,12(sp)
   1ce5a:	4a22                	lw	s4,8(sp)
   1ce5c:	4a92                	lw	s5,4(sp)
   1ce5e:	6105                	addi	sp,sp,32
   1ce60:	8082                	ret

0001ce62 <cam_FIFO_WRST_1>:
cam_FIFO_WRST_1():
E:\02-项目\13-RISCV实验箱\模块驱动\19-LCD_ST7796U\AHL-CH32V307-LCD_ST7796U\Debug/srcc/cam.c:212
{
   1ce62:	1141                	addi	sp,sp,-16
   1ce64:	c606                	sw	ra,12(sp)
E:\02-项目\13-RISCV实验箱\模块驱动\19-LCD_ST7796U\AHL-CH32V307-LCD_ST7796U\Debug/srcc/cam.c:213
    gpio_init(cam_FIFO_WRST,1,1);
   1ce66:	4605                	li	a2,1
   1ce68:	4585                	li	a1,1
   1ce6a:	20900513          	li	a0,521
   1ce6e:	78d000ef          	jal	ra,1ddfa <gpio_init>
E:\02-项目\13-RISCV实验箱\模块驱动\19-LCD_ST7796U\AHL-CH32V307-LCD_ST7796U\Debug/srcc/cam.c:214
}
   1ce72:	40b2                	lw	ra,12(sp)
   1ce74:	0141                	addi	sp,sp,16
   1ce76:	8082                	ret

0001ce78 <cam_FIFO_WRST_0>:
cam_FIFO_WRST_0():
E:\02-项目\13-RISCV实验箱\模块驱动\19-LCD_ST7796U\AHL-CH32V307-LCD_ST7796U\Debug/srcc/cam.c:223
{
   1ce78:	1141                	addi	sp,sp,-16
   1ce7a:	c606                	sw	ra,12(sp)
E:\02-项目\13-RISCV实验箱\模块驱动\19-LCD_ST7796U\AHL-CH32V307-LCD_ST7796U\Debug/srcc/cam.c:224
    gpio_init(cam_FIFO_WRST,1,0);
   1ce7c:	4601                	li	a2,0
   1ce7e:	4585                	li	a1,1
   1ce80:	20900513          	li	a0,521
   1ce84:	777000ef          	jal	ra,1ddfa <gpio_init>
E:\02-项目\13-RISCV实验箱\模块驱动\19-LCD_ST7796U\AHL-CH32V307-LCD_ST7796U\Debug/srcc/cam.c:225
}
   1ce88:	40b2                	lw	ra,12(sp)
   1ce8a:	0141                	addi	sp,sp,16
   1ce8c:	8082                	ret

0001ce8e <cam_FIFO_WR_1>:
cam_FIFO_WR_1():
E:\02-项目\13-RISCV实验箱\模块驱动\19-LCD_ST7796U\AHL-CH32V307-LCD_ST7796U\Debug/srcc/cam.c:234
{
   1ce8e:	1141                	addi	sp,sp,-16
   1ce90:	c606                	sw	ra,12(sp)
E:\02-项目\13-RISCV实验箱\模块驱动\19-LCD_ST7796U\AHL-CH32V307-LCD_ST7796U\Debug/srcc/cam.c:235
    gpio_init(cam_FIFO_WR,1,1);
   1ce92:	4605                	li	a2,1
   1ce94:	4585                	li	a1,1
   1ce96:	10800513          	li	a0,264
   1ce9a:	761000ef          	jal	ra,1ddfa <gpio_init>
E:\02-项目\13-RISCV实验箱\模块驱动\19-LCD_ST7796U\AHL-CH32V307-LCD_ST7796U\Debug/srcc/cam.c:236
}
   1ce9e:	40b2                	lw	ra,12(sp)
   1cea0:	0141                	addi	sp,sp,16
   1cea2:	8082                	ret

0001cea4 <cam_FIFO_WR_0>:
cam_FIFO_WR_0():
E:\02-项目\13-RISCV实验箱\模块驱动\19-LCD_ST7796U\AHL-CH32V307-LCD_ST7796U\Debug/srcc/cam.c:245
{
   1cea4:	1141                	addi	sp,sp,-16
   1cea6:	c606                	sw	ra,12(sp)
E:\02-项目\13-RISCV实验箱\模块驱动\19-LCD_ST7796U\AHL-CH32V307-LCD_ST7796U\Debug/srcc/cam.c:246
    gpio_init(cam_FIFO_WR,1,0);
   1cea8:	4601                	li	a2,0
   1ceaa:	4585                	li	a1,1
   1ceac:	10800513          	li	a0,264
   1ceb0:	74b000ef          	jal	ra,1ddfa <gpio_init>
E:\02-项目\13-RISCV实验箱\模块驱动\19-LCD_ST7796U\AHL-CH32V307-LCD_ST7796U\Debug/srcc/cam.c:247
}
   1ceb4:	40b2                	lw	ra,12(sp)
   1ceb6:	0141                	addi	sp,sp,16
   1ceb8:	8082                	ret

0001ceba <cam_gpio_init>:
cam_gpio_init():
E:\02-项目\13-RISCV实验箱\模块驱动\19-LCD_ST7796U\AHL-CH32V307-LCD_ST7796U\Debug/srcc/cam.c:325
//函数返回：无
//参数说明：无
//功能概要：初始化ov7670使用的gpio引脚
//=====================================================================
void cam_gpio_init()
{
   1ceba:	1141                	addi	sp,sp,-16
   1cebc:	c606                	sw	ra,12(sp)
E:\02-项目\13-RISCV实验箱\模块驱动\19-LCD_ST7796U\AHL-CH32V307-LCD_ST7796U\Debug/srcc/cam.c:327
    //初始化控制脚
    gpio_init(cam_FIFO_RCK,1,0);
   1cebe:	4601                	li	a2,0
   1cec0:	4585                	li	a1,1
   1cec2:	453d                	li	a0,15
   1cec4:	737000ef          	jal	ra,1ddfa <gpio_init>
E:\02-项目\13-RISCV实验箱\模块驱动\19-LCD_ST7796U\AHL-CH32V307-LCD_ST7796U\Debug/srcc/cam.c:328
    gpio_init(cam_VSYNC, 0, 1);         //初始化帧中断读取引脚
   1cec8:	4605                	li	a2,1
   1ceca:	4581                	li	a1,0
   1cecc:	20c00513          	li	a0,524
   1ced0:	72b000ef          	jal	ra,1ddfa <gpio_init>
E:\02-项目\13-RISCV实验箱\模块驱动\19-LCD_ST7796U\AHL-CH32V307-LCD_ST7796U\Debug/srcc/cam.c:329
    printf("初始化引脚");
   1ced4:	00022537          	lui	a0,0x22
   1ced8:	88850513          	addi	a0,a0,-1912 # 21888 <strlen+0x7c>
   1cedc:	21a030ef          	jal	ra,200f6 <myprintf>
E:\02-项目\13-RISCV实验箱\模块驱动\19-LCD_ST7796U\AHL-CH32V307-LCD_ST7796U\Debug/srcc/cam.c:332

    //初始化图像数据接收8个引脚
    gpio_init(cam_DATA_IO_0, 0, 1);
   1cee0:	4605                	li	a2,1
   1cee2:	4581                	li	a1,0
   1cee4:	30000513          	li	a0,768
   1cee8:	713000ef          	jal	ra,1ddfa <gpio_init>
E:\02-项目\13-RISCV实验箱\模块驱动\19-LCD_ST7796U\AHL-CH32V307-LCD_ST7796U\Debug/srcc/cam.c:333
    gpio_init(cam_DATA_IO_1, 0, 1);
   1ceec:	4605                	li	a2,1
   1ceee:	4581                	li	a1,0
   1cef0:	30100513          	li	a0,769
   1cef4:	707000ef          	jal	ra,1ddfa <gpio_init>
E:\02-项目\13-RISCV实验箱\模块驱动\19-LCD_ST7796U\AHL-CH32V307-LCD_ST7796U\Debug/srcc/cam.c:334
    gpio_init(cam_DATA_IO_2, 0, 1);
   1cef8:	4605                	li	a2,1
   1cefa:	4581                	li	a1,0
   1cefc:	30200513          	li	a0,770
   1cf00:	6fb000ef          	jal	ra,1ddfa <gpio_init>
E:\02-项目\13-RISCV实验箱\模块驱动\19-LCD_ST7796U\AHL-CH32V307-LCD_ST7796U\Debug/srcc/cam.c:335
    gpio_init(cam_DATA_IO_3, 0, 1);
   1cf04:	4605                	li	a2,1
   1cf06:	4581                	li	a1,0
   1cf08:	30300513          	li	a0,771
   1cf0c:	6ef000ef          	jal	ra,1ddfa <gpio_init>
E:\02-项目\13-RISCV实验箱\模块驱动\19-LCD_ST7796U\AHL-CH32V307-LCD_ST7796U\Debug/srcc/cam.c:336
    gpio_init(cam_DATA_IO_4, 0, 1);
   1cf10:	4605                	li	a2,1
   1cf12:	4581                	li	a1,0
   1cf14:	30400513          	li	a0,772
   1cf18:	6e3000ef          	jal	ra,1ddfa <gpio_init>
E:\02-项目\13-RISCV实验箱\模块驱动\19-LCD_ST7796U\AHL-CH32V307-LCD_ST7796U\Debug/srcc/cam.c:337
    gpio_init(cam_DATA_IO_5, 0, 1);
   1cf1c:	4605                	li	a2,1
   1cf1e:	4581                	li	a1,0
   1cf20:	30500513          	li	a0,773
   1cf24:	6d7000ef          	jal	ra,1ddfa <gpio_init>
E:\02-项目\13-RISCV实验箱\模块驱动\19-LCD_ST7796U\AHL-CH32V307-LCD_ST7796U\Debug/srcc/cam.c:338
    gpio_init(cam_DATA_IO_6, 0, 1);
   1cf28:	4605                	li	a2,1
   1cf2a:	4581                	li	a1,0
   1cf2c:	30600513          	li	a0,774
   1cf30:	6cb000ef          	jal	ra,1ddfa <gpio_init>
E:\02-项目\13-RISCV实验箱\模块驱动\19-LCD_ST7796U\AHL-CH32V307-LCD_ST7796U\Debug/srcc/cam.c:339
    gpio_init(cam_DATA_IO_7, 0, 1);
   1cf34:	4605                	li	a2,1
   1cf36:	4581                	li	a1,0
   1cf38:	30700513          	li	a0,775
   1cf3c:	6bf000ef          	jal	ra,1ddfa <gpio_init>
cam_FIFO_OE_0():
E:\02-项目\13-RISCV实验箱\模块驱动\19-LCD_ST7796U\AHL-CH32V307-LCD_ST7796U\Debug/srcc/cam.c:302
    gpio_init(cam_FIFO_OE,1,0);
   1cf40:	4601                	li	a2,0
   1cf42:	4585                	li	a1,1
   1cf44:	4521                	li	a0,8
   1cf46:	6b5000ef          	jal	ra,1ddfa <gpio_init>
cam_gpio_init():
E:\02-项目\13-RISCV实验箱\模块驱动\19-LCD_ST7796U\AHL-CH32V307-LCD_ST7796U\Debug/srcc/cam.c:343

    //初始化摄像头输出使能脚
    cam_FIFO_OE_0();
}
   1cf4a:	40b2                	lw	ra,12(sp)
   1cf4c:	0141                	addi	sp,sp,16
   1cf4e:	8082                	ret

0001cf50 <cam_reg_write>:
cam_reg_write():
E:\02-项目\13-RISCV实验箱\模块驱动\19-LCD_ST7796U\AHL-CH32V307-LCD_ST7796U\Debug/srcc/cam.c:392
//参数说明：regID：寄存器地址
//          regDat：写入数值
//功能概要：更改ov7670指定地址寄存器参数
//=====================================================================
 void cam_reg_write(uint8_t regID, uint8_t regDat)
{
   1cf50:	1141                	addi	sp,sp,-16
   1cf52:	c606                	sw	ra,12(sp)
E:\02-项目\13-RISCV实验箱\模块驱动\19-LCD_ST7796U\AHL-CH32V307-LCD_ST7796U\Debug/srcc/cam.c:393
    SCCB_Write(cam_OV7670_ADRESS, regID, regDat);
   1cf54:	862e                	mv	a2,a1
   1cf56:	85aa                	mv	a1,a0
   1cf58:	04200513          	li	a0,66
   1cf5c:	3edd                	jal	1cb52 <SCCB_Write>
E:\02-项目\13-RISCV实验箱\模块驱动\19-LCD_ST7796U\AHL-CH32V307-LCD_ST7796U\Debug/srcc/cam.c:394
}
   1cf5e:	40b2                	lw	ra,12(sp)
   1cf60:	0141                	addi	sp,sp,16
   1cf62:	8082                	ret

0001cf64 <cam_reg_read>:
cam_reg_read():
E:\02-项目\13-RISCV实验箱\模块驱动\19-LCD_ST7796U\AHL-CH32V307-LCD_ST7796U\Debug/srcc/cam.c:404
//参数说明：regID：寄存器地址
//          regDat：写入数值
//功能概要：读取ov7670指定地址寄存器参数
//=====================================================================
 void cam_reg_read(uint8_t regID, uint8_t *regDat)
{
   1cf64:	1141                	addi	sp,sp,-16
   1cf66:	c606                	sw	ra,12(sp)
E:\02-项目\13-RISCV实验箱\模块驱动\19-LCD_ST7796U\AHL-CH32V307-LCD_ST7796U\Debug/srcc/cam.c:405
    SCCB_Read(cam_OV7670_ADRESS, regID, regDat);
   1cf68:	862e                	mv	a2,a1
   1cf6a:	85aa                	mv	a1,a0
   1cf6c:	04200513          	li	a0,66
   1cf70:	31e9                	jal	1cc3a <SCCB_Read>
E:\02-项目\13-RISCV实验箱\模块驱动\19-LCD_ST7796U\AHL-CH32V307-LCD_ST7796U\Debug/srcc/cam.c:406
}
   1cf72:	40b2                	lw	ra,12(sp)
   1cf74:	0141                	addi	sp,sp,16
   1cf76:	8082                	ret

0001cf78 <cam_config_window>:
cam_config_window():
E:\02-项目\13-RISCV实验箱\模块驱动\19-LCD_ST7796U\AHL-CH32V307-LCD_ST7796U\Debug/srcc/cam.c:357
{
   1cf78:	7179                	addi	sp,sp,-48
   1cf7a:	d606                	sw	ra,44(sp)
   1cf7c:	d422                	sw	s0,40(sp)
   1cf7e:	d226                	sw	s1,36(sp)
   1cf80:	d04a                	sw	s2,32(sp)
   1cf82:	ce4e                	sw	s3,28(sp)
   1cf84:	89aa                	mv	s3,a0
   1cf86:	892e                	mv	s2,a1
E:\02-项目\13-RISCV实验箱\模块驱动\19-LCD_ST7796U\AHL-CH32V307-LCD_ST7796U\Debug/srcc/cam.c:363
    endx=(startx+width*2);
   1cf88:	00161493          	slli	s1,a2,0x1
   1cf8c:	04c2                	slli	s1,s1,0x10
   1cf8e:	80c1                	srli	s1,s1,0x10
   1cf90:	94aa                	add	s1,s1,a0
   1cf92:	04c2                	slli	s1,s1,0x10
   1cf94:	80c1                	srli	s1,s1,0x10
E:\02-项目\13-RISCV实验箱\模块驱动\19-LCD_ST7796U\AHL-CH32V307-LCD_ST7796U\Debug/srcc/cam.c:364
    endy=(starty+height+height);
   1cf96:	00d58433          	add	s0,a1,a3
   1cf9a:	0442                	slli	s0,s0,0x10
   1cf9c:	8041                	srli	s0,s0,0x10
   1cf9e:	9436                	add	s0,s0,a3
   1cfa0:	0442                	slli	s0,s0,0x10
   1cfa2:	8041                	srli	s0,s0,0x10
E:\02-项目\13-RISCV实验箱\模块驱动\19-LCD_ST7796U\AHL-CH32V307-LCD_ST7796U\Debug/srcc/cam.c:367
    if(endy>784) endy-=784;
   1cfa4:	31000793          	li	a5,784
   1cfa8:	0087f663          	bgeu	a5,s0,1cfb4 <cam_config_window+0x3c>
E:\02-项目\13-RISCV实验箱\模块驱动\19-LCD_ST7796U\AHL-CH32V307-LCD_ST7796U\Debug/srcc/cam.c:367 (discriminator 1)
   1cfac:	cf040413          	addi	s0,s0,-784
   1cfb0:	0442                	slli	s0,s0,0x10
   1cfb2:	8041                	srli	s0,s0,0x10
E:\02-项目\13-RISCV实验箱\模块驱动\19-LCD_ST7796U\AHL-CH32V307-LCD_ST7796U\Debug/srcc/cam.c:370
    cam_reg_read(0x03, &temp_reg1 );
   1cfb4:	00f10593          	addi	a1,sp,15
   1cfb8:	450d                	li	a0,3
   1cfba:	376d                	jal	1cf64 <cam_reg_read>
E:\02-项目\13-RISCV实验箱\模块驱动\19-LCD_ST7796U\AHL-CH32V307-LCD_ST7796U\Debug/srcc/cam.c:371
    temp_reg1 &= 0xf0;
   1cfbc:	00f14583          	lbu	a1,15(sp)
   1cfc0:	0f05f793          	andi	a5,a1,240
E:\02-项目\13-RISCV实验箱\模块驱动\19-LCD_ST7796U\AHL-CH32V307-LCD_ST7796U\Debug/srcc/cam.c:372
    temp_reg1|=((endx&0X03)<<2)|(startx&0X03);
   1cfc4:	00249593          	slli	a1,s1,0x2
   1cfc8:	89b1                	andi	a1,a1,12
   1cfca:	0039f713          	andi	a4,s3,3
   1cfce:	8dd9                	or	a1,a1,a4
   1cfd0:	8ddd                	or	a1,a1,a5
   1cfd2:	00b107a3          	sb	a1,15(sp)
E:\02-项目\13-RISCV实验箱\模块驱动\19-LCD_ST7796U\AHL-CH32V307-LCD_ST7796U\Debug/srcc/cam.c:373
    cam_reg_write(0X03,temp_reg1);
   1cfd6:	450d                	li	a0,3
   1cfd8:	3fa5                	jal	1cf50 <cam_reg_write>
E:\02-项目\13-RISCV实验箱\模块驱动\19-LCD_ST7796U\AHL-CH32V307-LCD_ST7796U\Debug/srcc/cam.c:374
    cam_reg_write(0X19,startx>>2);
   1cfda:	0029d593          	srli	a1,s3,0x2
   1cfde:	0ff5f593          	andi	a1,a1,255
   1cfe2:	4565                	li	a0,25
   1cfe4:	37b5                	jal	1cf50 <cam_reg_write>
E:\02-项目\13-RISCV实验箱\模块驱动\19-LCD_ST7796U\AHL-CH32V307-LCD_ST7796U\Debug/srcc/cam.c:375
    cam_reg_write(0X1A,endx>>2);
   1cfe6:	0024d593          	srli	a1,s1,0x2
   1cfea:	0ff5f593          	andi	a1,a1,255
   1cfee:	4569                	li	a0,26
   1cff0:	3785                	jal	1cf50 <cam_reg_write>
E:\02-项目\13-RISCV实验箱\模块驱动\19-LCD_ST7796U\AHL-CH32V307-LCD_ST7796U\Debug/srcc/cam.c:377
    cam_reg_read(0x32, &temp_reg2 );
   1cff2:	00e10593          	addi	a1,sp,14
   1cff6:	03200513          	li	a0,50
   1cffa:	37ad                	jal	1cf64 <cam_reg_read>
E:\02-项目\13-RISCV实验箱\模块驱动\19-LCD_ST7796U\AHL-CH32V307-LCD_ST7796U\Debug/srcc/cam.c:378
    temp_reg2 &= 0xc0;
   1cffc:	00e14783          	lbu	a5,14(sp)
   1d000:	0c07f713          	andi	a4,a5,192
E:\02-项目\13-RISCV实验箱\模块驱动\19-LCD_ST7796U\AHL-CH32V307-LCD_ST7796U\Debug/srcc/cam.c:379
    temp_reg2|=((endy&0x7)<<3)|(starty&0x7);
   1d004:	00341793          	slli	a5,s0,0x3
   1d008:	0387f793          	andi	a5,a5,56
   1d00c:	00797693          	andi	a3,s2,7
   1d010:	8fd5                	or	a5,a5,a3
   1d012:	8fd9                	or	a5,a5,a4
   1d014:	00f10723          	sb	a5,14(sp)
E:\02-项目\13-RISCV实验箱\模块驱动\19-LCD_ST7796U\AHL-CH32V307-LCD_ST7796U\Debug/srcc/cam.c:380
    cam_reg_write(0x17, starty>>3 );
   1d018:	00395593          	srli	a1,s2,0x3
   1d01c:	0ff5f593          	andi	a1,a1,255
   1d020:	455d                	li	a0,23
   1d022:	373d                	jal	1cf50 <cam_reg_write>
E:\02-项目\13-RISCV实验箱\模块驱动\19-LCD_ST7796U\AHL-CH32V307-LCD_ST7796U\Debug/srcc/cam.c:381
    cam_reg_write(0x18, endy>>3);
   1d024:	00345593          	srli	a1,s0,0x3
   1d028:	0ff5f593          	andi	a1,a1,255
   1d02c:	4561                	li	a0,24
   1d02e:	370d                	jal	1cf50 <cam_reg_write>
E:\02-项目\13-RISCV实验箱\模块驱动\19-LCD_ST7796U\AHL-CH32V307-LCD_ST7796U\Debug/srcc/cam.c:382
}
   1d030:	50b2                	lw	ra,44(sp)
   1d032:	5422                	lw	s0,40(sp)
   1d034:	5492                	lw	s1,36(sp)
   1d036:	5902                	lw	s2,32(sp)
   1d038:	49f2                	lw	s3,28(sp)
   1d03a:	6145                	addi	sp,sp,48
   1d03c:	8082                	ret

0001d03e <cam_reg_init>:
cam_reg_init():
E:\02-项目\13-RISCV实验箱\模块驱动\19-LCD_ST7796U\AHL-CH32V307-LCD_ST7796U\Debug/srcc/cam.c:415
//函数返回：无
//参数说明：
//功能概要：参考官方手册配置ov7670寄存器
//=====================================================================
void cam_reg_init()
{
   1d03e:	1141                	addi	sp,sp,-16
   1d040:	c606                	sw	ra,12(sp)
E:\02-项目\13-RISCV实验箱\模块驱动\19-LCD_ST7796U\AHL-CH32V307-LCD_ST7796U\Debug/srcc/cam.c:416
    cam_reg_write(0x3a, 0x04);
   1d042:	4591                	li	a1,4
   1d044:	03a00513          	li	a0,58
   1d048:	3721                	jal	1cf50 <cam_reg_write>
E:\02-项目\13-RISCV实验箱\模块驱动\19-LCD_ST7796U\AHL-CH32V307-LCD_ST7796U\Debug/srcc/cam.c:417
    cam_reg_write(0x40, 0xd0);          //565
   1d04a:	0d000593          	li	a1,208
   1d04e:	04000513          	li	a0,64
   1d052:	3dfd                	jal	1cf50 <cam_reg_write>
E:\02-项目\13-RISCV实验箱\模块驱动\19-LCD_ST7796U\AHL-CH32V307-LCD_ST7796U\Debug/srcc/cam.c:418
    cam_reg_write(0x12, 0x14);          //QVGA,RGB输出
   1d054:	45d1                	li	a1,20
   1d056:	4549                	li	a0,18
   1d058:	3de5                	jal	1cf50 <cam_reg_write>
E:\02-项目\13-RISCV实验箱\模块驱动\19-LCD_ST7796U\AHL-CH32V307-LCD_ST7796U\Debug/srcc/cam.c:420
    //输出窗口设置
    cam_reg_write(0x32, 0x80);
   1d05a:	08000593          	li	a1,128
   1d05e:	03200513          	li	a0,50
   1d062:	35fd                	jal	1cf50 <cam_reg_write>
E:\02-项目\13-RISCV实验箱\模块驱动\19-LCD_ST7796U\AHL-CH32V307-LCD_ST7796U\Debug/srcc/cam.c:421
    cam_reg_write(0x17, 0x16);
   1d064:	45d9                	li	a1,22
   1d066:	455d                	li	a0,23
   1d068:	35e5                	jal	1cf50 <cam_reg_write>
E:\02-项目\13-RISCV实验箱\模块驱动\19-LCD_ST7796U\AHL-CH32V307-LCD_ST7796U\Debug/srcc/cam.c:422
    cam_reg_write(0x18, 0x04);
   1d06a:	4591                	li	a1,4
   1d06c:	4561                	li	a0,24
   1d06e:	35cd                	jal	1cf50 <cam_reg_write>
E:\02-项目\13-RISCV实验箱\模块驱动\19-LCD_ST7796U\AHL-CH32V307-LCD_ST7796U\Debug/srcc/cam.c:423
    cam_reg_write(0x19, 0x02);
   1d070:	4589                	li	a1,2
   1d072:	4565                	li	a0,25
   1d074:	3df1                	jal	1cf50 <cam_reg_write>
E:\02-项目\13-RISCV实验箱\模块驱动\19-LCD_ST7796U\AHL-CH32V307-LCD_ST7796U\Debug/srcc/cam.c:424
    cam_reg_write(0x1a, 0x7b);
   1d076:	07b00593          	li	a1,123
   1d07a:	4569                	li	a0,26
   1d07c:	3dd1                	jal	1cf50 <cam_reg_write>
E:\02-项目\13-RISCV实验箱\模块驱动\19-LCD_ST7796U\AHL-CH32V307-LCD_ST7796U\Debug/srcc/cam.c:425
    cam_reg_write(0x03, 0x06);          //帧竖直方向控制
   1d07e:	4599                	li	a1,6
   1d080:	450d                	li	a0,3
   1d082:	35f9                	jal	1cf50 <cam_reg_write>
E:\02-项目\13-RISCV实验箱\模块驱动\19-LCD_ST7796U\AHL-CH32V307-LCD_ST7796U\Debug/srcc/cam.c:427

    cam_reg_write(0x0c, 0x00);
   1d084:	4581                	li	a1,0
   1d086:	4531                	li	a0,12
   1d088:	35e1                	jal	1cf50 <cam_reg_write>
E:\02-项目\13-RISCV实验箱\模块驱动\19-LCD_ST7796U\AHL-CH32V307-LCD_ST7796U\Debug/srcc/cam.c:428
    cam_reg_write(0x15, 0x00);
   1d08a:	4581                	li	a1,0
   1d08c:	4555                	li	a0,21
   1d08e:	35c9                	jal	1cf50 <cam_reg_write>
E:\02-项目\13-RISCV实验箱\模块驱动\19-LCD_ST7796U\AHL-CH32V307-LCD_ST7796U\Debug/srcc/cam.c:429
    cam_reg_write(0x3e, 0x00);
   1d090:	4581                	li	a1,0
   1d092:	03e00513          	li	a0,62
   1d096:	3d6d                	jal	1cf50 <cam_reg_write>
E:\02-项目\13-RISCV实验箱\模块驱动\19-LCD_ST7796U\AHL-CH32V307-LCD_ST7796U\Debug/srcc/cam.c:430
    cam_reg_write(0x70, 0x3a);
   1d098:	03a00593          	li	a1,58
   1d09c:	07000513          	li	a0,112
   1d0a0:	3d45                	jal	1cf50 <cam_reg_write>
E:\02-项目\13-RISCV实验箱\模块驱动\19-LCD_ST7796U\AHL-CH32V307-LCD_ST7796U\Debug/srcc/cam.c:431
    cam_reg_write(0x71, 0x35);
   1d0a2:	03500593          	li	a1,53
   1d0a6:	07100513          	li	a0,113
   1d0aa:	355d                	jal	1cf50 <cam_reg_write>
E:\02-项目\13-RISCV实验箱\模块驱动\19-LCD_ST7796U\AHL-CH32V307-LCD_ST7796U\Debug/srcc/cam.c:432
    cam_reg_write(0x72, 0x11);
   1d0ac:	45c5                	li	a1,17
   1d0ae:	07200513          	li	a0,114
   1d0b2:	3d79                	jal	1cf50 <cam_reg_write>
E:\02-项目\13-RISCV实验箱\模块驱动\19-LCD_ST7796U\AHL-CH32V307-LCD_ST7796U\Debug/srcc/cam.c:433
    cam_reg_write(0x73, 0x00);
   1d0b4:	4581                	li	a1,0
   1d0b6:	07300513          	li	a0,115
   1d0ba:	3d59                	jal	1cf50 <cam_reg_write>
E:\02-项目\13-RISCV实验箱\模块驱动\19-LCD_ST7796U\AHL-CH32V307-LCD_ST7796U\Debug/srcc/cam.c:435

    cam_reg_write(0xa2, 0x02);
   1d0bc:	4589                	li	a1,2
   1d0be:	0a200513          	li	a0,162
   1d0c2:	3579                	jal	1cf50 <cam_reg_write>
E:\02-项目\13-RISCV实验箱\模块驱动\19-LCD_ST7796U\AHL-CH32V307-LCD_ST7796U\Debug/srcc/cam.c:436
    cam_reg_write(0x11, 0x81);           //时钟分频设置，0，不分频
   1d0c4:	08100593          	li	a1,129
   1d0c8:	4545                	li	a0,17
   1d0ca:	3559                	jal	1cf50 <cam_reg_write>
E:\02-项目\13-RISCV实验箱\模块驱动\19-LCD_ST7796U\AHL-CH32V307-LCD_ST7796U\Debug/srcc/cam.c:437
    cam_reg_write(0x7a, 0x20);
   1d0cc:	02000593          	li	a1,32
   1d0d0:	07a00513          	li	a0,122
   1d0d4:	3db5                	jal	1cf50 <cam_reg_write>
E:\02-项目\13-RISCV实验箱\模块驱动\19-LCD_ST7796U\AHL-CH32V307-LCD_ST7796U\Debug/srcc/cam.c:438
    cam_reg_write(0x7b, 0x1c);
   1d0d6:	45f1                	li	a1,28
   1d0d8:	07b00513          	li	a0,123
   1d0dc:	3d95                	jal	1cf50 <cam_reg_write>
E:\02-项目\13-RISCV实验箱\模块驱动\19-LCD_ST7796U\AHL-CH32V307-LCD_ST7796U\Debug/srcc/cam.c:439
    cam_reg_write(0x7c, 0x28);
   1d0de:	02800593          	li	a1,40
   1d0e2:	07c00513          	li	a0,124
   1d0e6:	35ad                	jal	1cf50 <cam_reg_write>
E:\02-项目\13-RISCV实验箱\模块驱动\19-LCD_ST7796U\AHL-CH32V307-LCD_ST7796U\Debug/srcc/cam.c:441

    cam_reg_write(0x7d, 0x3c);
   1d0e8:	03c00593          	li	a1,60
   1d0ec:	07d00513          	li	a0,125
   1d0f0:	3585                	jal	1cf50 <cam_reg_write>
E:\02-项目\13-RISCV实验箱\模块驱动\19-LCD_ST7796U\AHL-CH32V307-LCD_ST7796U\Debug/srcc/cam.c:442
    cam_reg_write(0x7e, 0x55);
   1d0f2:	05500593          	li	a1,85
   1d0f6:	07e00513          	li	a0,126
   1d0fa:	3d99                	jal	1cf50 <cam_reg_write>
E:\02-项目\13-RISCV实验箱\模块驱动\19-LCD_ST7796U\AHL-CH32V307-LCD_ST7796U\Debug/srcc/cam.c:443
    cam_reg_write(0x7f, 0x68);
   1d0fc:	06800593          	li	a1,104
   1d100:	07f00513          	li	a0,127
   1d104:	35b1                	jal	1cf50 <cam_reg_write>
E:\02-项目\13-RISCV实验箱\模块驱动\19-LCD_ST7796U\AHL-CH32V307-LCD_ST7796U\Debug/srcc/cam.c:444
    cam_reg_write(0x80, 0x76);
   1d106:	07600593          	li	a1,118
   1d10a:	08000513          	li	a0,128
   1d10e:	3589                	jal	1cf50 <cam_reg_write>
E:\02-项目\13-RISCV实验箱\模块驱动\19-LCD_ST7796U\AHL-CH32V307-LCD_ST7796U\Debug/srcc/cam.c:445
    cam_reg_write(0x81, 0x80);
   1d110:	08000593          	li	a1,128
   1d114:	08100513          	li	a0,129
   1d118:	3d25                	jal	1cf50 <cam_reg_write>
E:\02-项目\13-RISCV实验箱\模块驱动\19-LCD_ST7796U\AHL-CH32V307-LCD_ST7796U\Debug/srcc/cam.c:447

    cam_reg_write(0x82, 0x88);
   1d11a:	08800593          	li	a1,136
   1d11e:	08200513          	li	a0,130
   1d122:	353d                	jal	1cf50 <cam_reg_write>
E:\02-项目\13-RISCV实验箱\模块驱动\19-LCD_ST7796U\AHL-CH32V307-LCD_ST7796U\Debug/srcc/cam.c:448
    cam_reg_write(0x83, 0x8f);
   1d124:	08f00593          	li	a1,143
   1d128:	08300513          	li	a0,131
   1d12c:	3515                	jal	1cf50 <cam_reg_write>
E:\02-项目\13-RISCV实验箱\模块驱动\19-LCD_ST7796U\AHL-CH32V307-LCD_ST7796U\Debug/srcc/cam.c:449
    cam_reg_write(0x84, 0x96);
   1d12e:	09600593          	li	a1,150
   1d132:	08400513          	li	a0,132
   1d136:	3d29                	jal	1cf50 <cam_reg_write>
E:\02-项目\13-RISCV实验箱\模块驱动\19-LCD_ST7796U\AHL-CH32V307-LCD_ST7796U\Debug/srcc/cam.c:450
    cam_reg_write(0x85, 0xa3);
   1d138:	0a300593          	li	a1,163
   1d13c:	08500513          	li	a0,133
   1d140:	3d01                	jal	1cf50 <cam_reg_write>
E:\02-项目\13-RISCV实验箱\模块驱动\19-LCD_ST7796U\AHL-CH32V307-LCD_ST7796U\Debug/srcc/cam.c:451
    cam_reg_write(0x86, 0xaf);
   1d142:	0af00593          	li	a1,175
   1d146:	08600513          	li	a0,134
   1d14a:	3519                	jal	1cf50 <cam_reg_write>
E:\02-项目\13-RISCV实验箱\模块驱动\19-LCD_ST7796U\AHL-CH32V307-LCD_ST7796U\Debug/srcc/cam.c:453

    cam_reg_write(0x87, 0xc4);
   1d14c:	0c400593          	li	a1,196
   1d150:	08700513          	li	a0,135
   1d154:	3bf5                	jal	1cf50 <cam_reg_write>
E:\02-项目\13-RISCV实验箱\模块驱动\19-LCD_ST7796U\AHL-CH32V307-LCD_ST7796U\Debug/srcc/cam.c:454
    cam_reg_write(0x88, 0xd7);
   1d156:	0d700593          	li	a1,215
   1d15a:	08800513          	li	a0,136
   1d15e:	3bcd                	jal	1cf50 <cam_reg_write>
E:\02-项目\13-RISCV实验箱\模块驱动\19-LCD_ST7796U\AHL-CH32V307-LCD_ST7796U\Debug/srcc/cam.c:455
    cam_reg_write(0x89, 0xe8);
   1d160:	0e800593          	li	a1,232
   1d164:	08900513          	li	a0,137
   1d168:	33e5                	jal	1cf50 <cam_reg_write>
E:\02-项目\13-RISCV实验箱\模块驱动\19-LCD_ST7796U\AHL-CH32V307-LCD_ST7796U\Debug/srcc/cam.c:456
    cam_reg_write(0x13, 0xe0);
   1d16a:	0e000593          	li	a1,224
   1d16e:	454d                	li	a0,19
   1d170:	33c5                	jal	1cf50 <cam_reg_write>
E:\02-项目\13-RISCV实验箱\模块驱动\19-LCD_ST7796U\AHL-CH32V307-LCD_ST7796U\Debug/srcc/cam.c:457
    cam_reg_write(0x00, 0x00);
   1d172:	4581                	li	a1,0
   1d174:	4501                	li	a0,0
   1d176:	3be9                	jal	1cf50 <cam_reg_write>
E:\02-项目\13-RISCV实验箱\模块驱动\19-LCD_ST7796U\AHL-CH32V307-LCD_ST7796U\Debug/srcc/cam.c:459

    cam_reg_write(0x10, 0x00);
   1d178:	4581                	li	a1,0
   1d17a:	4541                	li	a0,16
   1d17c:	3bd1                	jal	1cf50 <cam_reg_write>
E:\02-项目\13-RISCV实验箱\模块驱动\19-LCD_ST7796U\AHL-CH32V307-LCD_ST7796U\Debug/srcc/cam.c:460
    cam_reg_write(0x0d, 0x30);            //全窗口， 位[5:4]: 01 半窗口，10 1/4窗口，11 1/4窗口
   1d17e:	03000593          	li	a1,48
   1d182:	4535                	li	a0,13
   1d184:	33f1                	jal	1cf50 <cam_reg_write>
E:\02-项目\13-RISCV实验箱\模块驱动\19-LCD_ST7796U\AHL-CH32V307-LCD_ST7796U\Debug/srcc/cam.c:461
    cam_reg_write(0x14, 0x28);
   1d186:	02800593          	li	a1,40
   1d18a:	4551                	li	a0,20
   1d18c:	33d1                	jal	1cf50 <cam_reg_write>
E:\02-项目\13-RISCV实验箱\模块驱动\19-LCD_ST7796U\AHL-CH32V307-LCD_ST7796U\Debug/srcc/cam.c:462
    cam_reg_write(0xa5, 0x05);
   1d18e:	4595                	li	a1,5
   1d190:	0a500513          	li	a0,165
   1d194:	3b75                	jal	1cf50 <cam_reg_write>
E:\02-项目\13-RISCV实验箱\模块驱动\19-LCD_ST7796U\AHL-CH32V307-LCD_ST7796U\Debug/srcc/cam.c:463
    cam_reg_write(0xab, 0x07);
   1d196:	459d                	li	a1,7
   1d198:	0ab00513          	li	a0,171
   1d19c:	3b55                	jal	1cf50 <cam_reg_write>
E:\02-项目\13-RISCV实验箱\模块驱动\19-LCD_ST7796U\AHL-CH32V307-LCD_ST7796U\Debug/srcc/cam.c:465

    cam_reg_write(0x24, 0x75);
   1d19e:	07500593          	li	a1,117
   1d1a2:	02400513          	li	a0,36
   1d1a6:	336d                	jal	1cf50 <cam_reg_write>
E:\02-项目\13-RISCV实验箱\模块驱动\19-LCD_ST7796U\AHL-CH32V307-LCD_ST7796U\Debug/srcc/cam.c:466
    cam_reg_write(0x25, 0x63);
   1d1a8:	06300593          	li	a1,99
   1d1ac:	02500513          	li	a0,37
   1d1b0:	3345                	jal	1cf50 <cam_reg_write>
E:\02-项目\13-RISCV实验箱\模块驱动\19-LCD_ST7796U\AHL-CH32V307-LCD_ST7796U\Debug/srcc/cam.c:467
    cam_reg_write(0x26, 0xA5);
   1d1b2:	0a500593          	li	a1,165
   1d1b6:	02600513          	li	a0,38
   1d1ba:	3b59                	jal	1cf50 <cam_reg_write>
E:\02-项目\13-RISCV实验箱\模块驱动\19-LCD_ST7796U\AHL-CH32V307-LCD_ST7796U\Debug/srcc/cam.c:468
    cam_reg_write(0x9f, 0x78);
   1d1bc:	07800593          	li	a1,120
   1d1c0:	09f00513          	li	a0,159
   1d1c4:	3371                	jal	1cf50 <cam_reg_write>
E:\02-项目\13-RISCV实验箱\模块驱动\19-LCD_ST7796U\AHL-CH32V307-LCD_ST7796U\Debug/srcc/cam.c:469
    cam_reg_write(0xa0, 0x68);
   1d1c6:	06800593          	li	a1,104
   1d1ca:	0a000513          	li	a0,160
   1d1ce:	3349                	jal	1cf50 <cam_reg_write>
E:\02-项目\13-RISCV实验箱\模块驱动\19-LCD_ST7796U\AHL-CH32V307-LCD_ST7796U\Debug/srcc/cam.c:471

    cam_reg_write(0xa1, 0x03);          //0x0b,
   1d1d0:	458d                	li	a1,3
   1d1d2:	0a100513          	li	a0,161
   1d1d6:	3bad                	jal	1cf50 <cam_reg_write>
E:\02-项目\13-RISCV实验箱\模块驱动\19-LCD_ST7796U\AHL-CH32V307-LCD_ST7796U\Debug/srcc/cam.c:472
    cam_reg_write(0xa6, 0xdf);          //0xd8,
   1d1d8:	0df00593          	li	a1,223
   1d1dc:	0a600513          	li	a0,166
   1d1e0:	3b85                	jal	1cf50 <cam_reg_write>
E:\02-项目\13-RISCV实验箱\模块驱动\19-LCD_ST7796U\AHL-CH32V307-LCD_ST7796U\Debug/srcc/cam.c:473
    cam_reg_write(0xa7, 0xdf);          //0xd8,
   1d1e2:	0df00593          	li	a1,223
   1d1e6:	0a700513          	li	a0,167
   1d1ea:	339d                	jal	1cf50 <cam_reg_write>
E:\02-项目\13-RISCV实验箱\模块驱动\19-LCD_ST7796U\AHL-CH32V307-LCD_ST7796U\Debug/srcc/cam.c:474
    cam_reg_write(0xa8, 0xf0);
   1d1ec:	0f000593          	li	a1,240
   1d1f0:	0a800513          	li	a0,168
   1d1f4:	3bb1                	jal	1cf50 <cam_reg_write>
E:\02-项目\13-RISCV实验箱\模块驱动\19-LCD_ST7796U\AHL-CH32V307-LCD_ST7796U\Debug/srcc/cam.c:475
    cam_reg_write(0xa9, 0x90);
   1d1f6:	09000593          	li	a1,144
   1d1fa:	0a900513          	li	a0,169
   1d1fe:	3b89                	jal	1cf50 <cam_reg_write>
E:\02-项目\13-RISCV实验箱\模块驱动\19-LCD_ST7796U\AHL-CH32V307-LCD_ST7796U\Debug/srcc/cam.c:477

    cam_reg_write(0xaa, 0x94);
   1d200:	09400593          	li	a1,148
   1d204:	0aa00513          	li	a0,170
   1d208:	33a1                	jal	1cf50 <cam_reg_write>
E:\02-项目\13-RISCV实验箱\模块驱动\19-LCD_ST7796U\AHL-CH32V307-LCD_ST7796U\Debug/srcc/cam.c:478
    cam_reg_write(0x13, 0xe5);
   1d20a:	0e500593          	li	a1,229
   1d20e:	454d                	li	a0,19
   1d210:	3381                	jal	1cf50 <cam_reg_write>
E:\02-项目\13-RISCV实验箱\模块驱动\19-LCD_ST7796U\AHL-CH32V307-LCD_ST7796U\Debug/srcc/cam.c:479
    cam_reg_write(0x0e, 0x61);
   1d212:	06100593          	li	a1,97
   1d216:	4539                	li	a0,14
   1d218:	3b25                	jal	1cf50 <cam_reg_write>
E:\02-项目\13-RISCV实验箱\模块驱动\19-LCD_ST7796U\AHL-CH32V307-LCD_ST7796U\Debug/srcc/cam.c:480
    cam_reg_write(0x0f, 0x4b);
   1d21a:	04b00593          	li	a1,75
   1d21e:	453d                	li	a0,15
   1d220:	3b05                	jal	1cf50 <cam_reg_write>
E:\02-项目\13-RISCV实验箱\模块驱动\19-LCD_ST7796U\AHL-CH32V307-LCD_ST7796U\Debug/srcc/cam.c:481
    cam_reg_write(0x16, 0x02);
   1d222:	4589                	li	a1,2
   1d224:	4559                	li	a0,22
   1d226:	332d                	jal	1cf50 <cam_reg_write>
E:\02-项目\13-RISCV实验箱\模块驱动\19-LCD_ST7796U\AHL-CH32V307-LCD_ST7796U\Debug/srcc/cam.c:483

    cam_reg_write(0x1e, 0x37);          //图像输出镜像控制.0x07
   1d228:	03700593          	li	a1,55
   1d22c:	4579                	li	a0,30
   1d22e:	330d                	jal	1cf50 <cam_reg_write>
E:\02-项目\13-RISCV实验箱\模块驱动\19-LCD_ST7796U\AHL-CH32V307-LCD_ST7796U\Debug/srcc/cam.c:484
    cam_reg_write(0x21, 0x02);
   1d230:	4589                	li	a1,2
   1d232:	02100513          	li	a0,33
   1d236:	3b29                	jal	1cf50 <cam_reg_write>
E:\02-项目\13-RISCV实验箱\模块驱动\19-LCD_ST7796U\AHL-CH32V307-LCD_ST7796U\Debug/srcc/cam.c:485
    cam_reg_write(0x22, 0x91);
   1d238:	09100593          	li	a1,145
   1d23c:	02200513          	li	a0,34
   1d240:	3b01                	jal	1cf50 <cam_reg_write>
E:\02-项目\13-RISCV实验箱\模块驱动\19-LCD_ST7796U\AHL-CH32V307-LCD_ST7796U\Debug/srcc/cam.c:486
    cam_reg_write(0x29, 0x07);
   1d242:	459d                	li	a1,7
   1d244:	02900513          	li	a0,41
   1d248:	3321                	jal	1cf50 <cam_reg_write>
E:\02-项目\13-RISCV实验箱\模块驱动\19-LCD_ST7796U\AHL-CH32V307-LCD_ST7796U\Debug/srcc/cam.c:487
    cam_reg_write(0x33, 0x0b);
   1d24a:	45ad                	li	a1,11
   1d24c:	03300513          	li	a0,51
   1d250:	3301                	jal	1cf50 <cam_reg_write>
E:\02-项目\13-RISCV实验箱\模块驱动\19-LCD_ST7796U\AHL-CH32V307-LCD_ST7796U\Debug/srcc/cam.c:489

    cam_reg_write(0x35, 0x0b);
   1d252:	45ad                	li	a1,11
   1d254:	03500513          	li	a0,53
   1d258:	39e5                	jal	1cf50 <cam_reg_write>
E:\02-项目\13-RISCV实验箱\模块驱动\19-LCD_ST7796U\AHL-CH32V307-LCD_ST7796U\Debug/srcc/cam.c:490
    cam_reg_write(0x37, 0x1d);
   1d25a:	45f5                	li	a1,29
   1d25c:	03700513          	li	a0,55
   1d260:	39c5                	jal	1cf50 <cam_reg_write>
E:\02-项目\13-RISCV实验箱\模块驱动\19-LCD_ST7796U\AHL-CH32V307-LCD_ST7796U\Debug/srcc/cam.c:491
    cam_reg_write(0x38, 0x71);
   1d262:	07100593          	li	a1,113
   1d266:	03800513          	li	a0,56
   1d26a:	31dd                	jal	1cf50 <cam_reg_write>
E:\02-项目\13-RISCV实验箱\模块驱动\19-LCD_ST7796U\AHL-CH32V307-LCD_ST7796U\Debug/srcc/cam.c:492
    cam_reg_write(0x39, 0x2a);
   1d26c:	02a00593          	li	a1,42
   1d270:	03900513          	li	a0,57
   1d274:	39f1                	jal	1cf50 <cam_reg_write>
E:\02-项目\13-RISCV实验箱\模块驱动\19-LCD_ST7796U\AHL-CH32V307-LCD_ST7796U\Debug/srcc/cam.c:493
    cam_reg_write(0x3c, 0x78);
   1d276:	07800593          	li	a1,120
   1d27a:	03c00513          	li	a0,60
   1d27e:	39c9                	jal	1cf50 <cam_reg_write>
E:\02-项目\13-RISCV实验箱\模块驱动\19-LCD_ST7796U\AHL-CH32V307-LCD_ST7796U\Debug/srcc/cam.c:495

    cam_reg_write(0x4d, 0x40);
   1d280:	04000593          	li	a1,64
   1d284:	04d00513          	li	a0,77
   1d288:	31e1                	jal	1cf50 <cam_reg_write>
E:\02-项目\13-RISCV实验箱\模块驱动\19-LCD_ST7796U\AHL-CH32V307-LCD_ST7796U\Debug/srcc/cam.c:496
    cam_reg_write(0x4e, 0x20);
   1d28a:	02000593          	li	a1,32
   1d28e:	04e00513          	li	a0,78
   1d292:	397d                	jal	1cf50 <cam_reg_write>
E:\02-项目\13-RISCV实验箱\模块驱动\19-LCD_ST7796U\AHL-CH32V307-LCD_ST7796U\Debug/srcc/cam.c:497
    cam_reg_write(0x69, 0x00);
   1d294:	4581                	li	a1,0
   1d296:	06900513          	li	a0,105
   1d29a:	395d                	jal	1cf50 <cam_reg_write>
E:\02-项目\13-RISCV实验箱\模块驱动\19-LCD_ST7796U\AHL-CH32V307-LCD_ST7796U\Debug/srcc/cam.c:498
    cam_reg_write(0x6b, 0x40);
   1d29c:	04000593          	li	a1,64
   1d2a0:	06b00513          	li	a0,107
   1d2a4:	3175                	jal	1cf50 <cam_reg_write>
E:\02-项目\13-RISCV实验箱\模块驱动\19-LCD_ST7796U\AHL-CH32V307-LCD_ST7796U\Debug/srcc/cam.c:499
    cam_reg_write(0x74, 0x19);
   1d2a6:	45e5                	li	a1,25
   1d2a8:	07400513          	li	a0,116
   1d2ac:	3155                	jal	1cf50 <cam_reg_write>
E:\02-项目\13-RISCV实验箱\模块驱动\19-LCD_ST7796U\AHL-CH32V307-LCD_ST7796U\Debug/srcc/cam.c:500
    cam_reg_write(0x8d, 0x4f);
   1d2ae:	04f00593          	li	a1,79
   1d2b2:	08d00513          	li	a0,141
   1d2b6:	3969                	jal	1cf50 <cam_reg_write>
E:\02-项目\13-RISCV实验箱\模块驱动\19-LCD_ST7796U\AHL-CH32V307-LCD_ST7796U\Debug/srcc/cam.c:502

    cam_reg_write(0x8e, 0x00);
   1d2b8:	4581                	li	a1,0
   1d2ba:	08e00513          	li	a0,142
   1d2be:	3949                	jal	1cf50 <cam_reg_write>
E:\02-项目\13-RISCV实验箱\模块驱动\19-LCD_ST7796U\AHL-CH32V307-LCD_ST7796U\Debug/srcc/cam.c:503
    cam_reg_write(0x8f, 0x00);
   1d2c0:	4581                	li	a1,0
   1d2c2:	08f00513          	li	a0,143
   1d2c6:	3169                	jal	1cf50 <cam_reg_write>
E:\02-项目\13-RISCV实验箱\模块驱动\19-LCD_ST7796U\AHL-CH32V307-LCD_ST7796U\Debug/srcc/cam.c:504
    cam_reg_write(0x90, 0x00);
   1d2c8:	4581                	li	a1,0
   1d2ca:	09000513          	li	a0,144
   1d2ce:	3149                	jal	1cf50 <cam_reg_write>
E:\02-项目\13-RISCV实验箱\模块驱动\19-LCD_ST7796U\AHL-CH32V307-LCD_ST7796U\Debug/srcc/cam.c:505
    cam_reg_write(0x91, 0x00);
   1d2d0:	4581                	li	a1,0
   1d2d2:	09100513          	li	a0,145
   1d2d6:	39ad                	jal	1cf50 <cam_reg_write>
E:\02-项目\13-RISCV实验箱\模块驱动\19-LCD_ST7796U\AHL-CH32V307-LCD_ST7796U\Debug/srcc/cam.c:506
    cam_reg_write(0x92, 0x00);
   1d2d8:	4581                	li	a1,0
   1d2da:	09200513          	li	a0,146
   1d2de:	398d                	jal	1cf50 <cam_reg_write>
E:\02-项目\13-RISCV实验箱\模块驱动\19-LCD_ST7796U\AHL-CH32V307-LCD_ST7796U\Debug/srcc/cam.c:508

    cam_reg_write(0x96, 0x00);
   1d2e0:	4581                	li	a1,0
   1d2e2:	09600513          	li	a0,150
   1d2e6:	31ad                	jal	1cf50 <cam_reg_write>
E:\02-项目\13-RISCV实验箱\模块驱动\19-LCD_ST7796U\AHL-CH32V307-LCD_ST7796U\Debug/srcc/cam.c:509
    cam_reg_write(0x9a, 0x80);
   1d2e8:	08000593          	li	a1,128
   1d2ec:	09a00513          	li	a0,154
   1d2f0:	3185                	jal	1cf50 <cam_reg_write>
E:\02-项目\13-RISCV实验箱\模块驱动\19-LCD_ST7796U\AHL-CH32V307-LCD_ST7796U\Debug/srcc/cam.c:510
    cam_reg_write(0xb0, 0x84);
   1d2f2:	08400593          	li	a1,132
   1d2f6:	0b000513          	li	a0,176
   1d2fa:	3999                	jal	1cf50 <cam_reg_write>
E:\02-项目\13-RISCV实验箱\模块驱动\19-LCD_ST7796U\AHL-CH32V307-LCD_ST7796U\Debug/srcc/cam.c:511
    cam_reg_write(0xb1, 0x0c);
   1d2fc:	45b1                	li	a1,12
   1d2fe:	0b100513          	li	a0,177
   1d302:	31b9                	jal	1cf50 <cam_reg_write>
E:\02-项目\13-RISCV实验箱\模块驱动\19-LCD_ST7796U\AHL-CH32V307-LCD_ST7796U\Debug/srcc/cam.c:512
    cam_reg_write(0xb2, 0x0e);
   1d304:	45b9                	li	a1,14
   1d306:	0b200513          	li	a0,178
   1d30a:	3199                	jal	1cf50 <cam_reg_write>
E:\02-项目\13-RISCV实验箱\模块驱动\19-LCD_ST7796U\AHL-CH32V307-LCD_ST7796U\Debug/srcc/cam.c:514

    cam_reg_write(0xb3, 0x82);
   1d30c:	08200593          	li	a1,130
   1d310:	0b300513          	li	a0,179
   1d314:	3935                	jal	1cf50 <cam_reg_write>
E:\02-项目\13-RISCV实验箱\模块驱动\19-LCD_ST7796U\AHL-CH32V307-LCD_ST7796U\Debug/srcc/cam.c:515
    cam_reg_write(0xb8, 0x0a);
   1d316:	45a9                	li	a1,10
   1d318:	0b800513          	li	a0,184
   1d31c:	3915                	jal	1cf50 <cam_reg_write>
E:\02-项目\13-RISCV实验箱\模块驱动\19-LCD_ST7796U\AHL-CH32V307-LCD_ST7796U\Debug/srcc/cam.c:516
    cam_reg_write(0x43, 0x14);
   1d31e:	45d1                	li	a1,20
   1d320:	04300513          	li	a0,67
   1d324:	3135                	jal	1cf50 <cam_reg_write>
E:\02-项目\13-RISCV实验箱\模块驱动\19-LCD_ST7796U\AHL-CH32V307-LCD_ST7796U\Debug/srcc/cam.c:517
    cam_reg_write(0x44, 0xf0);
   1d326:	0f000593          	li	a1,240
   1d32a:	04400513          	li	a0,68
   1d32e:	310d                	jal	1cf50 <cam_reg_write>
E:\02-项目\13-RISCV实验箱\模块驱动\19-LCD_ST7796U\AHL-CH32V307-LCD_ST7796U\Debug/srcc/cam.c:518
    cam_reg_write(0x45, 0x34);
   1d330:	03400593          	li	a1,52
   1d334:	04500513          	li	a0,69
   1d338:	3921                	jal	1cf50 <cam_reg_write>
E:\02-项目\13-RISCV实验箱\模块驱动\19-LCD_ST7796U\AHL-CH32V307-LCD_ST7796U\Debug/srcc/cam.c:520

    cam_reg_write(0x46, 0x58);
   1d33a:	05800593          	li	a1,88
   1d33e:	04600513          	li	a0,70
   1d342:	3139                	jal	1cf50 <cam_reg_write>
E:\02-项目\13-RISCV实验箱\模块驱动\19-LCD_ST7796U\AHL-CH32V307-LCD_ST7796U\Debug/srcc/cam.c:521
    cam_reg_write(0x47, 0x28);
   1d344:	02800593          	li	a1,40
   1d348:	04700513          	li	a0,71
   1d34c:	3111                	jal	1cf50 <cam_reg_write>
E:\02-项目\13-RISCV实验箱\模块驱动\19-LCD_ST7796U\AHL-CH32V307-LCD_ST7796U\Debug/srcc/cam.c:522
    cam_reg_write(0x48, 0x3a);
   1d34e:	03a00593          	li	a1,58
   1d352:	04800513          	li	a0,72
   1d356:	3eed                	jal	1cf50 <cam_reg_write>
E:\02-项目\13-RISCV实验箱\模块驱动\19-LCD_ST7796U\AHL-CH32V307-LCD_ST7796U\Debug/srcc/cam.c:523
    cam_reg_write(0x59, 0x88);
   1d358:	08800593          	li	a1,136
   1d35c:	05900513          	li	a0,89
   1d360:	3ec5                	jal	1cf50 <cam_reg_write>
E:\02-项目\13-RISCV实验箱\模块驱动\19-LCD_ST7796U\AHL-CH32V307-LCD_ST7796U\Debug/srcc/cam.c:524
    cam_reg_write(0x5a, 0x88);
   1d362:	08800593          	li	a1,136
   1d366:	05a00513          	li	a0,90
   1d36a:	36dd                	jal	1cf50 <cam_reg_write>
E:\02-项目\13-RISCV实验箱\模块驱动\19-LCD_ST7796U\AHL-CH32V307-LCD_ST7796U\Debug/srcc/cam.c:526

    cam_reg_write(0x5b, 0x44);
   1d36c:	04400593          	li	a1,68
   1d370:	05b00513          	li	a0,91
   1d374:	3ef1                	jal	1cf50 <cam_reg_write>
E:\02-项目\13-RISCV实验箱\模块驱动\19-LCD_ST7796U\AHL-CH32V307-LCD_ST7796U\Debug/srcc/cam.c:527
    cam_reg_write(0x5c, 0x67);
   1d376:	06700593          	li	a1,103
   1d37a:	05c00513          	li	a0,92
   1d37e:	3ec9                	jal	1cf50 <cam_reg_write>
E:\02-项目\13-RISCV实验箱\模块驱动\19-LCD_ST7796U\AHL-CH32V307-LCD_ST7796U\Debug/srcc/cam.c:528
    cam_reg_write(0x5d, 0x49);
   1d380:	04900593          	li	a1,73
   1d384:	05d00513          	li	a0,93
   1d388:	36e1                	jal	1cf50 <cam_reg_write>
E:\02-项目\13-RISCV实验箱\模块驱动\19-LCD_ST7796U\AHL-CH32V307-LCD_ST7796U\Debug/srcc/cam.c:529
    cam_reg_write(0x5e, 0x0e);
   1d38a:	45b9                	li	a1,14
   1d38c:	05e00513          	li	a0,94
   1d390:	36c1                	jal	1cf50 <cam_reg_write>
E:\02-项目\13-RISCV实验箱\模块驱动\19-LCD_ST7796U\AHL-CH32V307-LCD_ST7796U\Debug/srcc/cam.c:530
    cam_reg_write(0x64, 0x04);
   1d392:	4591                	li	a1,4
   1d394:	06400513          	li	a0,100
   1d398:	3e65                	jal	1cf50 <cam_reg_write>
E:\02-项目\13-RISCV实验箱\模块驱动\19-LCD_ST7796U\AHL-CH32V307-LCD_ST7796U\Debug/srcc/cam.c:531
    cam_reg_write(0x65, 0x20);
   1d39a:	02000593          	li	a1,32
   1d39e:	06500513          	li	a0,101
   1d3a2:	367d                	jal	1cf50 <cam_reg_write>
E:\02-项目\13-RISCV实验箱\模块驱动\19-LCD_ST7796U\AHL-CH32V307-LCD_ST7796U\Debug/srcc/cam.c:533

    cam_reg_write(0x66, 0x05);
   1d3a4:	4595                	li	a1,5
   1d3a6:	06600513          	li	a0,102
   1d3aa:	365d                	jal	1cf50 <cam_reg_write>
E:\02-项目\13-RISCV实验箱\模块驱动\19-LCD_ST7796U\AHL-CH32V307-LCD_ST7796U\Debug/srcc/cam.c:534
    cam_reg_write(0x94, 0x04);
   1d3ac:	4591                	li	a1,4
   1d3ae:	09400513          	li	a0,148
   1d3b2:	3e79                	jal	1cf50 <cam_reg_write>
E:\02-项目\13-RISCV实验箱\模块驱动\19-LCD_ST7796U\AHL-CH32V307-LCD_ST7796U\Debug/srcc/cam.c:535
    cam_reg_write(0x95, 0x08);
   1d3b4:	45a1                	li	a1,8
   1d3b6:	09500513          	li	a0,149
   1d3ba:	3e59                	jal	1cf50 <cam_reg_write>
E:\02-项目\13-RISCV实验箱\模块驱动\19-LCD_ST7796U\AHL-CH32V307-LCD_ST7796U\Debug/srcc/cam.c:536
    cam_reg_write(0x6c, 0x0a);
   1d3bc:	45a9                	li	a1,10
   1d3be:	06c00513          	li	a0,108
   1d3c2:	3679                	jal	1cf50 <cam_reg_write>
E:\02-项目\13-RISCV实验箱\模块驱动\19-LCD_ST7796U\AHL-CH32V307-LCD_ST7796U\Debug/srcc/cam.c:537
    cam_reg_write(0x6d, 0x55);
   1d3c4:	05500593          	li	a1,85
   1d3c8:	06d00513          	li	a0,109
   1d3cc:	3651                	jal	1cf50 <cam_reg_write>
E:\02-项目\13-RISCV实验箱\模块驱动\19-LCD_ST7796U\AHL-CH32V307-LCD_ST7796U\Debug/srcc/cam.c:539

    cam_reg_write(0x4f, 0x80);
   1d3ce:	08000593          	li	a1,128
   1d3d2:	04f00513          	li	a0,79
   1d3d6:	3ead                	jal	1cf50 <cam_reg_write>
E:\02-项目\13-RISCV实验箱\模块驱动\19-LCD_ST7796U\AHL-CH32V307-LCD_ST7796U\Debug/srcc/cam.c:540
    cam_reg_write(0x50, 0x80);
   1d3d8:	08000593          	li	a1,128
   1d3dc:	05000513          	li	a0,80
   1d3e0:	3e85                	jal	1cf50 <cam_reg_write>
E:\02-项目\13-RISCV实验箱\模块驱动\19-LCD_ST7796U\AHL-CH32V307-LCD_ST7796U\Debug/srcc/cam.c:541
    cam_reg_write(0x51, 0x00);
   1d3e2:	4581                	li	a1,0
   1d3e4:	05100513          	li	a0,81
   1d3e8:	36a5                	jal	1cf50 <cam_reg_write>
E:\02-项目\13-RISCV实验箱\模块驱动\19-LCD_ST7796U\AHL-CH32V307-LCD_ST7796U\Debug/srcc/cam.c:542
    cam_reg_write(0x52, 0x22);
   1d3ea:	02200593          	li	a1,34
   1d3ee:	05200513          	li	a0,82
   1d3f2:	3eb9                	jal	1cf50 <cam_reg_write>
E:\02-项目\13-RISCV实验箱\模块驱动\19-LCD_ST7796U\AHL-CH32V307-LCD_ST7796U\Debug/srcc/cam.c:543
    cam_reg_write(0x53, 0x5e);
   1d3f4:	05e00593          	li	a1,94
   1d3f8:	05300513          	li	a0,83
   1d3fc:	3e91                	jal	1cf50 <cam_reg_write>
E:\02-项目\13-RISCV实验箱\模块驱动\19-LCD_ST7796U\AHL-CH32V307-LCD_ST7796U\Debug/srcc/cam.c:544
    cam_reg_write(0x54, 0x80);
   1d3fe:	08000593          	li	a1,128
   1d402:	05400513          	li	a0,84
   1d406:	36a9                	jal	1cf50 <cam_reg_write>
E:\02-项目\13-RISCV实验箱\模块驱动\19-LCD_ST7796U\AHL-CH32V307-LCD_ST7796U\Debug/srcc/cam.c:546

    cam_reg_write(0x09, 0x03);           //驱动能力最大
   1d408:	458d                	li	a1,3
   1d40a:	4525                	li	a0,9
   1d40c:	3691                	jal	1cf50 <cam_reg_write>
E:\02-项目\13-RISCV实验箱\模块驱动\19-LCD_ST7796U\AHL-CH32V307-LCD_ST7796U\Debug/srcc/cam.c:548

    cam_reg_write(0x6e, 0x11);
   1d40e:	45c5                	li	a1,17
   1d410:	06e00513          	li	a0,110
   1d414:	3e35                	jal	1cf50 <cam_reg_write>
E:\02-项目\13-RISCV实验箱\模块驱动\19-LCD_ST7796U\AHL-CH32V307-LCD_ST7796U\Debug/srcc/cam.c:549
    cam_reg_write(0x6f, 0x9f);
   1d416:	09f00593          	li	a1,159
   1d41a:	06f00513          	li	a0,111
   1d41e:	3e0d                	jal	1cf50 <cam_reg_write>
E:\02-项目\13-RISCV实验箱\模块驱动\19-LCD_ST7796U\AHL-CH32V307-LCD_ST7796U\Debug/srcc/cam.c:550
    cam_reg_write(0x55, 0x40);          //亮度控制  30
   1d420:	04000593          	li	a1,64
   1d424:	05500513          	li	a0,85
   1d428:	3625                	jal	1cf50 <cam_reg_write>
E:\02-项目\13-RISCV实验箱\模块驱动\19-LCD_ST7796U\AHL-CH32V307-LCD_ST7796U\Debug/srcc/cam.c:551
    cam_reg_write(0x56, 0x40);          //对比度 0x40
   1d42a:	04000593          	li	a1,64
   1d42e:	05600513          	li	a0,86
   1d432:	3e39                	jal	1cf50 <cam_reg_write>
E:\02-项目\13-RISCV实验箱\模块驱动\19-LCD_ST7796U\AHL-CH32V307-LCD_ST7796U\Debug/srcc/cam.c:552
    cam_reg_write(0x57, 0x40);
   1d434:	04000593          	li	a1,64
   1d438:	05700513          	li	a0,87
   1d43c:	3e11                	jal	1cf50 <cam_reg_write>
E:\02-项目\13-RISCV实验箱\模块驱动\19-LCD_ST7796U\AHL-CH32V307-LCD_ST7796U\Debug/srcc/cam.c:554

    cam_reg_write(0x6a, 0x40);
   1d43e:	04000593          	li	a1,64
   1d442:	06a00513          	li	a0,106
   1d446:	3629                	jal	1cf50 <cam_reg_write>
E:\02-项目\13-RISCV实验箱\模块驱动\19-LCD_ST7796U\AHL-CH32V307-LCD_ST7796U\Debug/srcc/cam.c:555
    cam_reg_write(0x01, 0x40);
   1d448:	04000593          	li	a1,64
   1d44c:	4505                	li	a0,1
   1d44e:	3609                	jal	1cf50 <cam_reg_write>
E:\02-项目\13-RISCV实验箱\模块驱动\19-LCD_ST7796U\AHL-CH32V307-LCD_ST7796U\Debug/srcc/cam.c:556
    cam_reg_write(0x02, 0x40);
   1d450:	04000593          	li	a1,64
   1d454:	4509                	li	a0,2
   1d456:	3ced                	jal	1cf50 <cam_reg_write>
E:\02-项目\13-RISCV实验箱\模块驱动\19-LCD_ST7796U\AHL-CH32V307-LCD_ST7796U\Debug/srcc/cam.c:557
    cam_reg_write(0x13, 0xe7);
   1d458:	0e700593          	li	a1,231
   1d45c:	454d                	li	a0,19
   1d45e:	3ccd                	jal	1cf50 <cam_reg_write>
E:\02-项目\13-RISCV实验箱\模块驱动\19-LCD_ST7796U\AHL-CH32V307-LCD_ST7796U\Debug/srcc/cam.c:558
    cam_reg_write(0x15, 0x00);
   1d460:	4581                	li	a1,0
   1d462:	4555                	li	a0,21
   1d464:	34f5                	jal	1cf50 <cam_reg_write>
E:\02-项目\13-RISCV实验箱\模块驱动\19-LCD_ST7796U\AHL-CH32V307-LCD_ST7796U\Debug/srcc/cam.c:560

    cam_reg_write(0x58, 0x9e);
   1d466:	09e00593          	li	a1,158
   1d46a:	05800513          	li	a0,88
   1d46e:	34cd                	jal	1cf50 <cam_reg_write>
E:\02-项目\13-RISCV实验箱\模块驱动\19-LCD_ST7796U\AHL-CH32V307-LCD_ST7796U\Debug/srcc/cam.c:562

    cam_reg_write(0x41, 0x08);
   1d470:	45a1                	li	a1,8
   1d472:	04100513          	li	a0,65
   1d476:	3ce9                	jal	1cf50 <cam_reg_write>
E:\02-项目\13-RISCV实验箱\模块驱动\19-LCD_ST7796U\AHL-CH32V307-LCD_ST7796U\Debug/srcc/cam.c:563
    cam_reg_write(0x3f, 0x00);
   1d478:	4581                	li	a1,0
   1d47a:	03f00513          	li	a0,63
   1d47e:	3cc9                	jal	1cf50 <cam_reg_write>
E:\02-项目\13-RISCV实验箱\模块驱动\19-LCD_ST7796U\AHL-CH32V307-LCD_ST7796U\Debug/srcc/cam.c:564
    cam_reg_write(0x75, 0x05);
   1d480:	4595                	li	a1,5
   1d482:	07500513          	li	a0,117
   1d486:	34e9                	jal	1cf50 <cam_reg_write>
E:\02-项目\13-RISCV实验箱\模块驱动\19-LCD_ST7796U\AHL-CH32V307-LCD_ST7796U\Debug/srcc/cam.c:565
    cam_reg_write(0x76, 0xe1);
   1d488:	0e100593          	li	a1,225
   1d48c:	07600513          	li	a0,118
   1d490:	34c1                	jal	1cf50 <cam_reg_write>
E:\02-项目\13-RISCV实验箱\模块驱动\19-LCD_ST7796U\AHL-CH32V307-LCD_ST7796U\Debug/srcc/cam.c:566
    cam_reg_write(0x4c, 0x00);
   1d492:	4581                	li	a1,0
   1d494:	04c00513          	li	a0,76
   1d498:	3c65                	jal	1cf50 <cam_reg_write>
E:\02-项目\13-RISCV实验箱\模块驱动\19-LCD_ST7796U\AHL-CH32V307-LCD_ST7796U\Debug/srcc/cam.c:567
    cam_reg_write(0x77, 0x01);
   1d49a:	4585                	li	a1,1
   1d49c:	07700513          	li	a0,119
   1d4a0:	3c45                	jal	1cf50 <cam_reg_write>
E:\02-项目\13-RISCV实验箱\模块驱动\19-LCD_ST7796U\AHL-CH32V307-LCD_ST7796U\Debug/srcc/cam.c:568
    cam_reg_write(0x3d, 0xc2);
   1d4a2:	0c200593          	li	a1,194
   1d4a6:	03d00513          	li	a0,61
   1d4aa:	345d                	jal	1cf50 <cam_reg_write>
E:\02-项目\13-RISCV实验箱\模块驱动\19-LCD_ST7796U\AHL-CH32V307-LCD_ST7796U\Debug/srcc/cam.c:569
    cam_reg_write(0x4b, 0x09);
   1d4ac:	45a5                	li	a1,9
   1d4ae:	04b00513          	li	a0,75
   1d4b2:	3c79                	jal	1cf50 <cam_reg_write>
E:\02-项目\13-RISCV实验箱\模块驱动\19-LCD_ST7796U\AHL-CH32V307-LCD_ST7796U\Debug/srcc/cam.c:570
    cam_reg_write(0xc9, 0x60);
   1d4b4:	06000593          	li	a1,96
   1d4b8:	0c900513          	li	a0,201
   1d4bc:	3c51                	jal	1cf50 <cam_reg_write>
E:\02-项目\13-RISCV实验箱\模块驱动\19-LCD_ST7796U\AHL-CH32V307-LCD_ST7796U\Debug/srcc/cam.c:571
    cam_reg_write(0x41, 0x38);
   1d4be:	03800593          	li	a1,56
   1d4c2:	04100513          	li	a0,65
   1d4c6:	3469                	jal	1cf50 <cam_reg_write>
E:\02-项目\13-RISCV实验箱\模块驱动\19-LCD_ST7796U\AHL-CH32V307-LCD_ST7796U\Debug/srcc/cam.c:573

    cam_reg_write(0x34, 0x11);
   1d4c8:	45c5                	li	a1,17
   1d4ca:	03400513          	li	a0,52
   1d4ce:	3449                	jal	1cf50 <cam_reg_write>
E:\02-项目\13-RISCV实验箱\模块驱动\19-LCD_ST7796U\AHL-CH32V307-LCD_ST7796U\Debug/srcc/cam.c:574
    cam_reg_write(0x3b, 0x02);
   1d4d0:	4589                	li	a1,2
   1d4d2:	03b00513          	li	a0,59
   1d4d6:	3cad                	jal	1cf50 <cam_reg_write>
E:\02-项目\13-RISCV实验箱\模块驱动\19-LCD_ST7796U\AHL-CH32V307-LCD_ST7796U\Debug/srcc/cam.c:576

    cam_reg_write(0xa4, 0x89);
   1d4d8:	08900593          	li	a1,137
   1d4dc:	0a400513          	li	a0,164
   1d4e0:	3c85                	jal	1cf50 <cam_reg_write>
E:\02-项目\13-RISCV实验箱\模块驱动\19-LCD_ST7796U\AHL-CH32V307-LCD_ST7796U\Debug/srcc/cam.c:577
    cam_reg_write(0x96, 0x00);
   1d4e2:	4581                	li	a1,0
   1d4e4:	09600513          	li	a0,150
   1d4e8:	34a5                	jal	1cf50 <cam_reg_write>
E:\02-项目\13-RISCV实验箱\模块驱动\19-LCD_ST7796U\AHL-CH32V307-LCD_ST7796U\Debug/srcc/cam.c:578
    cam_reg_write(0x97, 0x30);
   1d4ea:	03000593          	li	a1,48
   1d4ee:	09700513          	li	a0,151
   1d4f2:	3cb9                	jal	1cf50 <cam_reg_write>
E:\02-项目\13-RISCV实验箱\模块驱动\19-LCD_ST7796U\AHL-CH32V307-LCD_ST7796U\Debug/srcc/cam.c:579
    cam_reg_write(0x98, 0x20);
   1d4f4:	02000593          	li	a1,32
   1d4f8:	09800513          	li	a0,152
   1d4fc:	3c91                	jal	1cf50 <cam_reg_write>
E:\02-项目\13-RISCV实验箱\模块驱动\19-LCD_ST7796U\AHL-CH32V307-LCD_ST7796U\Debug/srcc/cam.c:580
    cam_reg_write(0x99, 0x30);
   1d4fe:	03000593          	li	a1,48
   1d502:	09900513          	li	a0,153
   1d506:	34a9                	jal	1cf50 <cam_reg_write>
E:\02-项目\13-RISCV实验箱\模块驱动\19-LCD_ST7796U\AHL-CH32V307-LCD_ST7796U\Debug/srcc/cam.c:581
    cam_reg_write(0x9a, 0x84);
   1d508:	08400593          	li	a1,132
   1d50c:	09a00513          	li	a0,154
   1d510:	3481                	jal	1cf50 <cam_reg_write>
E:\02-项目\13-RISCV实验箱\模块驱动\19-LCD_ST7796U\AHL-CH32V307-LCD_ST7796U\Debug/srcc/cam.c:582
    cam_reg_write(0x9b, 0x29);
   1d512:	02900593          	li	a1,41
   1d516:	09b00513          	li	a0,155
   1d51a:	3c1d                	jal	1cf50 <cam_reg_write>
E:\02-项目\13-RISCV实验箱\模块驱动\19-LCD_ST7796U\AHL-CH32V307-LCD_ST7796U\Debug/srcc/cam.c:583
    cam_reg_write(0x9c, 0x03);
   1d51c:	458d                	li	a1,3
   1d51e:	09c00513          	li	a0,156
   1d522:	343d                	jal	1cf50 <cam_reg_write>
E:\02-项目\13-RISCV实验箱\模块驱动\19-LCD_ST7796U\AHL-CH32V307-LCD_ST7796U\Debug/srcc/cam.c:584
    cam_reg_write(0x9d, 0x4c);
   1d524:	04c00593          	li	a1,76
   1d528:	09d00513          	li	a0,157
   1d52c:	3415                	jal	1cf50 <cam_reg_write>
E:\02-项目\13-RISCV实验箱\模块驱动\19-LCD_ST7796U\AHL-CH32V307-LCD_ST7796U\Debug/srcc/cam.c:585
    cam_reg_write(0x9e, 0x3f);
   1d52e:	03f00593          	li	a1,63
   1d532:	09e00513          	li	a0,158
   1d536:	a1bff0ef          	jal	ra,1cf50 <cam_reg_write>
E:\02-项目\13-RISCV实验箱\模块驱动\19-LCD_ST7796U\AHL-CH32V307-LCD_ST7796U\Debug/srcc/cam.c:586
    cam_reg_write(0x78, 0x04);
   1d53a:	4591                	li	a1,4
   1d53c:	07800513          	li	a0,120
   1d540:	a11ff0ef          	jal	ra,1cf50 <cam_reg_write>
E:\02-项目\13-RISCV实验箱\模块驱动\19-LCD_ST7796U\AHL-CH32V307-LCD_ST7796U\Debug/srcc/cam.c:588

    cam_reg_write(0x79, 0x01);
   1d544:	4585                	li	a1,1
   1d546:	07900513          	li	a0,121
   1d54a:	a07ff0ef          	jal	ra,1cf50 <cam_reg_write>
E:\02-项目\13-RISCV实验箱\模块驱动\19-LCD_ST7796U\AHL-CH32V307-LCD_ST7796U\Debug/srcc/cam.c:589
    cam_reg_write(0xc8, 0xf0);
   1d54e:	0f000593          	li	a1,240
   1d552:	0c800513          	li	a0,200
   1d556:	9fbff0ef          	jal	ra,1cf50 <cam_reg_write>
E:\02-项目\13-RISCV实验箱\模块驱动\19-LCD_ST7796U\AHL-CH32V307-LCD_ST7796U\Debug/srcc/cam.c:590
    cam_reg_write(0x79, 0x0f);
   1d55a:	45bd                	li	a1,15
   1d55c:	07900513          	li	a0,121
   1d560:	9f1ff0ef          	jal	ra,1cf50 <cam_reg_write>
E:\02-项目\13-RISCV实验箱\模块驱动\19-LCD_ST7796U\AHL-CH32V307-LCD_ST7796U\Debug/srcc/cam.c:591
    cam_reg_write(0xc8, 0x00);
   1d564:	4581                	li	a1,0
   1d566:	0c800513          	li	a0,200
   1d56a:	9e7ff0ef          	jal	ra,1cf50 <cam_reg_write>
E:\02-项目\13-RISCV实验箱\模块驱动\19-LCD_ST7796U\AHL-CH32V307-LCD_ST7796U\Debug/srcc/cam.c:592
    cam_reg_write(0x79, 0x10);
   1d56e:	45c1                	li	a1,16
   1d570:	07900513          	li	a0,121
   1d574:	9ddff0ef          	jal	ra,1cf50 <cam_reg_write>
E:\02-项目\13-RISCV实验箱\模块驱动\19-LCD_ST7796U\AHL-CH32V307-LCD_ST7796U\Debug/srcc/cam.c:593
    cam_reg_write(0xc8, 0x7e);
   1d578:	07e00593          	li	a1,126
   1d57c:	0c800513          	li	a0,200
   1d580:	9d1ff0ef          	jal	ra,1cf50 <cam_reg_write>
E:\02-项目\13-RISCV实验箱\模块驱动\19-LCD_ST7796U\AHL-CH32V307-LCD_ST7796U\Debug/srcc/cam.c:594
    cam_reg_write(0x79, 0x0a);
   1d584:	45a9                	li	a1,10
   1d586:	07900513          	li	a0,121
   1d58a:	9c7ff0ef          	jal	ra,1cf50 <cam_reg_write>
E:\02-项目\13-RISCV实验箱\模块驱动\19-LCD_ST7796U\AHL-CH32V307-LCD_ST7796U\Debug/srcc/cam.c:595
    cam_reg_write(0xc8, 0x80);
   1d58e:	08000593          	li	a1,128
   1d592:	0c800513          	li	a0,200
   1d596:	9bbff0ef          	jal	ra,1cf50 <cam_reg_write>
E:\02-项目\13-RISCV实验箱\模块驱动\19-LCD_ST7796U\AHL-CH32V307-LCD_ST7796U\Debug/srcc/cam.c:596
    cam_reg_write(0x79, 0x0b);
   1d59a:	45ad                	li	a1,11
   1d59c:	07900513          	li	a0,121
   1d5a0:	9b1ff0ef          	jal	ra,1cf50 <cam_reg_write>
E:\02-项目\13-RISCV实验箱\模块驱动\19-LCD_ST7796U\AHL-CH32V307-LCD_ST7796U\Debug/srcc/cam.c:597
    cam_reg_write(0xc8, 0x01);
   1d5a4:	4585                	li	a1,1
   1d5a6:	0c800513          	li	a0,200
   1d5aa:	9a7ff0ef          	jal	ra,1cf50 <cam_reg_write>
E:\02-项目\13-RISCV实验箱\模块驱动\19-LCD_ST7796U\AHL-CH32V307-LCD_ST7796U\Debug/srcc/cam.c:598
    cam_reg_write(0x79, 0x0c);
   1d5ae:	45b1                	li	a1,12
   1d5b0:	07900513          	li	a0,121
   1d5b4:	99dff0ef          	jal	ra,1cf50 <cam_reg_write>
E:\02-项目\13-RISCV实验箱\模块驱动\19-LCD_ST7796U\AHL-CH32V307-LCD_ST7796U\Debug/srcc/cam.c:599
    cam_reg_write(0xc8, 0x0f);
   1d5b8:	45bd                	li	a1,15
   1d5ba:	0c800513          	li	a0,200
   1d5be:	993ff0ef          	jal	ra,1cf50 <cam_reg_write>
E:\02-项目\13-RISCV实验箱\模块驱动\19-LCD_ST7796U\AHL-CH32V307-LCD_ST7796U\Debug/srcc/cam.c:600
    cam_reg_write(0x79, 0x0d);
   1d5c2:	45b5                	li	a1,13
   1d5c4:	07900513          	li	a0,121
   1d5c8:	989ff0ef          	jal	ra,1cf50 <cam_reg_write>
E:\02-项目\13-RISCV实验箱\模块驱动\19-LCD_ST7796U\AHL-CH32V307-LCD_ST7796U\Debug/srcc/cam.c:601
    cam_reg_write(0xc8, 0x20);
   1d5cc:	02000593          	li	a1,32
   1d5d0:	0c800513          	li	a0,200
   1d5d4:	97dff0ef          	jal	ra,1cf50 <cam_reg_write>
E:\02-项目\13-RISCV实验箱\模块驱动\19-LCD_ST7796U\AHL-CH32V307-LCD_ST7796U\Debug/srcc/cam.c:602
    cam_reg_write(0x79, 0x09);
   1d5d8:	45a5                	li	a1,9
   1d5da:	07900513          	li	a0,121
   1d5de:	973ff0ef          	jal	ra,1cf50 <cam_reg_write>
E:\02-项目\13-RISCV实验箱\模块驱动\19-LCD_ST7796U\AHL-CH32V307-LCD_ST7796U\Debug/srcc/cam.c:603
    cam_reg_write(0xc8, 0x80);
   1d5e2:	08000593          	li	a1,128
   1d5e6:	0c800513          	li	a0,200
   1d5ea:	967ff0ef          	jal	ra,1cf50 <cam_reg_write>
E:\02-项目\13-RISCV实验箱\模块驱动\19-LCD_ST7796U\AHL-CH32V307-LCD_ST7796U\Debug/srcc/cam.c:604
    cam_reg_write(0x79, 0x02);
   1d5ee:	4589                	li	a1,2
   1d5f0:	07900513          	li	a0,121
   1d5f4:	95dff0ef          	jal	ra,1cf50 <cam_reg_write>
E:\02-项目\13-RISCV实验箱\模块驱动\19-LCD_ST7796U\AHL-CH32V307-LCD_ST7796U\Debug/srcc/cam.c:605
    cam_reg_write(0xc8, 0xc0);
   1d5f8:	0c000593          	li	a1,192
   1d5fc:	0c800513          	li	a0,200
   1d600:	951ff0ef          	jal	ra,1cf50 <cam_reg_write>
E:\02-项目\13-RISCV实验箱\模块驱动\19-LCD_ST7796U\AHL-CH32V307-LCD_ST7796U\Debug/srcc/cam.c:606
    cam_reg_write(0x79, 0x03);
   1d604:	458d                	li	a1,3
   1d606:	07900513          	li	a0,121
   1d60a:	947ff0ef          	jal	ra,1cf50 <cam_reg_write>
E:\02-项目\13-RISCV实验箱\模块驱动\19-LCD_ST7796U\AHL-CH32V307-LCD_ST7796U\Debug/srcc/cam.c:607
    cam_reg_write(0xc8, 0x40);
   1d60e:	04000593          	li	a1,64
   1d612:	0c800513          	li	a0,200
   1d616:	93bff0ef          	jal	ra,1cf50 <cam_reg_write>
E:\02-项目\13-RISCV实验箱\模块驱动\19-LCD_ST7796U\AHL-CH32V307-LCD_ST7796U\Debug/srcc/cam.c:608
    cam_reg_write(0x79, 0x05);
   1d61a:	4595                	li	a1,5
   1d61c:	07900513          	li	a0,121
   1d620:	931ff0ef          	jal	ra,1cf50 <cam_reg_write>
E:\02-项目\13-RISCV实验箱\模块驱动\19-LCD_ST7796U\AHL-CH32V307-LCD_ST7796U\Debug/srcc/cam.c:609
    cam_reg_write(0xc8, 0x30);
   1d624:	03000593          	li	a1,48
   1d628:	0c800513          	li	a0,200
   1d62c:	925ff0ef          	jal	ra,1cf50 <cam_reg_write>
E:\02-项目\13-RISCV实验箱\模块驱动\19-LCD_ST7796U\AHL-CH32V307-LCD_ST7796U\Debug/srcc/cam.c:610
    cam_reg_write(0x79, 0x26);
   1d630:	02600593          	li	a1,38
   1d634:	07900513          	li	a0,121
   1d638:	919ff0ef          	jal	ra,1cf50 <cam_reg_write>
E:\02-项目\13-RISCV实验箱\模块驱动\19-LCD_ST7796U\AHL-CH32V307-LCD_ST7796U\Debug/srcc/cam.c:611
    cam_reg_write(0x09, 0x00);
   1d63c:	4581                	li	a1,0
   1d63e:	4525                	li	a0,9
   1d640:	911ff0ef          	jal	ra,1cf50 <cam_reg_write>
E:\02-项目\13-RISCV实验箱\模块驱动\19-LCD_ST7796U\AHL-CH32V307-LCD_ST7796U\Debug/srcc/cam.c:614


}
   1d644:	40b2                	lw	ra,12(sp)
   1d646:	0141                	addi	sp,sp,16
   1d648:	8082                	ret

0001d64a <Delay_us>:
Delay_us():
E:\02-项目\13-RISCV实验箱\模块驱动\19-LCD_ST7796U\AHL-CH32V307-LCD_ST7796U\Debug/srcc/cam.c:626
//功能概要：延时 - 微秒级
//======================================================================
void Delay_us(uint16_t u16ms)
{
    uint32_t u32ctr;
    for(u32ctr = 0; u32ctr < (SystemCoreClock/1000*u16ms/100000); u32ctr++)
   1d64a:	4681                	li	a3,0
E:\02-项目\13-RISCV实验箱\模块驱动\19-LCD_ST7796U\AHL-CH32V307-LCD_ST7796U\Debug/srcc/cam.c:626 (discriminator 1)
   1d64c:	200057b7          	lui	a5,0x20005
   1d650:	0807a783          	lw	a5,128(a5) # 20005080 <SystemCoreClock>
   1d654:	3e800713          	li	a4,1000
   1d658:	02e7d7b3          	divu	a5,a5,a4
   1d65c:	02f507b3          	mul	a5,a0,a5
   1d660:	6761                	lui	a4,0x18
   1d662:	6a070713          	addi	a4,a4,1696 # 186a0 <__stack_size+0x17ea0>
   1d666:	02e7d7b3          	divu	a5,a5,a4
   1d66a:	00f6f563          	bgeu	a3,a5,1d674 <Delay_us+0x2a>
E:\02-项目\13-RISCV实验箱\模块驱动\19-LCD_ST7796U\AHL-CH32V307-LCD_ST7796U\Debug/srcc/cam.c:628 (discriminator 3)
    {
         __asm ("NOP") ;
   1d66e:	0001                	nop
E:\02-项目\13-RISCV实验箱\模块驱动\19-LCD_ST7796U\AHL-CH32V307-LCD_ST7796U\Debug/srcc/cam.c:626 (discriminator 3)
    for(u32ctr = 0; u32ctr < (SystemCoreClock/1000*u16ms/100000); u32ctr++)
   1d670:	0685                	addi	a3,a3,1
   1d672:	bfe9                	j	1d64c <Delay_us+0x2>
E:\02-项目\13-RISCV实验箱\模块驱动\19-LCD_ST7796U\AHL-CH32V307-LCD_ST7796U\Debug/srcc/cam.c:630
    }
}
   1d674:	8082                	ret

0001d676 <cam_init>:
cam_init():
E:\02-项目\13-RISCV实验箱\模块驱动\19-LCD_ST7796U\AHL-CH32V307-LCD_ST7796U\Debug/srcc/cam.c:30
{
   1d676:	1101                	addi	sp,sp,-32
   1d678:	ce06                	sw	ra,28(sp)
E:\02-项目\13-RISCV实验箱\模块驱动\19-LCD_ST7796U\AHL-CH32V307-LCD_ST7796U\Debug/srcc/cam.c:34
    cam_gpio_init();
   1d67a:	841ff0ef          	jal	ra,1ceba <cam_gpio_init>
E:\02-项目\13-RISCV实验箱\模块驱动\19-LCD_ST7796U\AHL-CH32V307-LCD_ST7796U\Debug/srcc/cam.c:35
    Delay_us(50);
   1d67e:	03200513          	li	a0,50
   1d682:	37e1                	jal	1d64a <Delay_us>
E:\02-项目\13-RISCV实验箱\模块驱动\19-LCD_ST7796U\AHL-CH32V307-LCD_ST7796U\Debug/srcc/cam.c:38
    SCCB_Init();
   1d684:	b4eff0ef          	jal	ra,1c9d2 <SCCB_Init>
E:\02-项目\13-RISCV实验箱\模块驱动\19-LCD_ST7796U\AHL-CH32V307-LCD_ST7796U\Debug/srcc/cam.c:39
    Delay_us(1);
   1d688:	4505                	li	a0,1
   1d68a:	37c1                	jal	1d64a <Delay_us>
E:\02-项目\13-RISCV实验箱\模块驱动\19-LCD_ST7796U\AHL-CH32V307-LCD_ST7796U\Debug/srcc/cam.c:40
    cam_reg_write(0x12, 0x80);  //读取0X12寄存器
   1d68c:	08000593          	li	a1,128
   1d690:	4549                	li	a0,18
   1d692:	8bfff0ef          	jal	ra,1cf50 <cam_reg_write>
E:\02-项目\13-RISCV实验箱\模块驱动\19-LCD_ST7796U\AHL-CH32V307-LCD_ST7796U\Debug/srcc/cam.c:41
    Delay_us(50);
   1d696:	03200513          	li	a0,50
   1d69a:	3f45                	jal	1d64a <Delay_us>
E:\02-项目\13-RISCV实验箱\模块驱动\19-LCD_ST7796U\AHL-CH32V307-LCD_ST7796U\Debug/srcc/cam.c:44
    cam_reg_init();
   1d69c:	9a3ff0ef          	jal	ra,1d03e <cam_reg_init>
E:\02-项目\13-RISCV实验箱\模块驱动\19-LCD_ST7796U\AHL-CH32V307-LCD_ST7796U\Debug/srcc/cam.c:45
    Delay_us(50);
   1d6a0:	03200513          	li	a0,50
   1d6a4:	375d                	jal	1d64a <Delay_us>
E:\02-项目\13-RISCV实验箱\模块驱动\19-LCD_ST7796U\AHL-CH32V307-LCD_ST7796U\Debug/srcc/cam.c:48
    cam_config_window(12,174,240,320);
   1d6a6:	14000693          	li	a3,320
   1d6aa:	0f000613          	li	a2,240
   1d6ae:	0ae00593          	li	a1,174
   1d6b2:	4531                	li	a0,12
   1d6b4:	8c5ff0ef          	jal	ra,1cf78 <cam_config_window>
E:\02-项目\13-RISCV实验箱\模块驱动\19-LCD_ST7796U\AHL-CH32V307-LCD_ST7796U\Debug/srcc/cam.c:49
    cam_reg_read(0x79, &state);
   1d6b8:	00f10593          	addi	a1,sp,15
   1d6bc:	07900513          	li	a0,121
   1d6c0:	8a5ff0ef          	jal	ra,1cf64 <cam_reg_read>
E:\02-项目\13-RISCV实验箱\模块驱动\19-LCD_ST7796U\AHL-CH32V307-LCD_ST7796U\Debug/srcc/cam.c:52
    if(state==0x26)
   1d6c4:	00f14783          	lbu	a5,15(sp)
   1d6c8:	02600713          	li	a4,38
   1d6cc:	00e78c63          	beq	a5,a4,1d6e4 <cam_init+0x6e>
E:\02-项目\13-RISCV实验箱\模块驱动\19-LCD_ST7796U\AHL-CH32V307-LCD_ST7796U\Debug/srcc/cam.c:56
    else if(state==0xff)
   1d6d0:	0ff00713          	li	a4,255
   1d6d4:	00e78663          	beq	a5,a4,1d6e0 <cam_init+0x6a>
E:\02-项目\13-RISCV实验箱\模块驱动\19-LCD_ST7796U\AHL-CH32V307-LCD_ST7796U\Debug/srcc/cam.c:62
      return 2;                   //读取到数据但是不正确 重新初始化一次
   1d6d8:	4509                	li	a0,2
E:\02-项目\13-RISCV实验箱\模块驱动\19-LCD_ST7796U\AHL-CH32V307-LCD_ST7796U\Debug/srcc/cam.c:64
}
   1d6da:	40f2                	lw	ra,28(sp)
   1d6dc:	6105                	addi	sp,sp,32
   1d6de:	8082                	ret
E:\02-项目\13-RISCV实验箱\模块驱动\19-LCD_ST7796U\AHL-CH32V307-LCD_ST7796U\Debug/srcc/cam.c:58
      return 1;                   //读取不到数据 硬件接线问题
   1d6e0:	4505                	li	a0,1
   1d6e2:	bfe5                	j	1d6da <cam_init+0x64>
E:\02-项目\13-RISCV实验箱\模块驱动\19-LCD_ST7796U\AHL-CH32V307-LCD_ST7796U\Debug/srcc/cam.c:54
      return 0;                   //成功
   1d6e4:	4501                	li	a0,0
   1d6e6:	bfd5                	j	1d6da <cam_init+0x64>

0001d6e8 <LCD_show_status>:
LCD_show_status():
E:\02-项目\13-RISCV实验箱\模块驱动\19-LCD_ST7796U\AHL-CH32V307-LCD_ST7796U\Debug/srcc/main.c:195
//函数返回:无
//参数说明:rflag;设备运行状态参数
//功能概要:显示设备运行状态
//========================================================================
void LCD_show_status(uint8_t rflag)
{
   1d6e8:	7179                	addi	sp,sp,-48
   1d6ea:	d606                	sw	ra,44(sp)
   1d6ec:	d422                	sw	s0,40(sp)
   1d6ee:	d226                	sw	s1,36(sp)
   1d6f0:	842a                	mv	s0,a0
E:\02-项目\13-RISCV实验箱\模块驱动\19-LCD_ST7796U\AHL-CH32V307-LCD_ST7796U\Debug/srcc/main.c:197
    //定义设备状态数组
    const char * LcdShowResultArr[]=
   1d6f2:	000227b7          	lui	a5,0x22
   1d6f6:	82078793          	addi	a5,a5,-2016 # 21820 <strlen+0x14>
   1d6fa:	0007a883          	lw	a7,0(a5)
   1d6fe:	0047a803          	lw	a6,4(a5)
   1d702:	4788                	lw	a0,8(a5)
   1d704:	47cc                	lw	a1,12(a5)
   1d706:	4b90                	lw	a2,16(a5)
   1d708:	4bd4                	lw	a3,20(a5)
   1d70a:	4f98                	lw	a4,24(a5)
   1d70c:	4fdc                	lw	a5,28(a5)
   1d70e:	c046                	sw	a7,0(sp)
   1d710:	c242                	sw	a6,4(sp)
   1d712:	c42a                	sw	a0,8(sp)
   1d714:	c62e                	sw	a1,12(sp)
   1d716:	c832                	sw	a2,16(sp)
   1d718:	ca36                	sw	a3,20(sp)
   1d71a:	cc3a                	sw	a4,24(sp)
   1d71c:	ce3e                	sw	a5,28(sp)
E:\02-项目\13-RISCV实验箱\模块驱动\19-LCD_ST7796U\AHL-CH32V307-LCD_ST7796U\Debug/srcc/main.c:209
        "InitSuccess",
        "SendingData",
        "FilteringError"
    };

    LCD_DrawSurface(130,300,240,320,WHITE);
   1d71e:	64c1                	lui	s1,0x10
   1d720:	fff48713          	addi	a4,s1,-1 # ffff <__stack_size+0xf7ff>
   1d724:	14000693          	li	a3,320
   1d728:	0f000613          	li	a2,240
   1d72c:	12c00593          	li	a1,300
   1d730:	08200513          	li	a0,130
   1d734:	78d010ef          	jal	ra,1f6c0 <LCD_DrawSurface>
E:\02-项目\13-RISCV实验箱\模块驱动\19-LCD_ST7796U\AHL-CH32V307-LCD_ST7796U\Debug/srcc/main.c:211

    LCD_ShowString(130,300,RED,WHITE,LcdShowResultArr[rflag-1]);//显示设备状态
   1d738:	147d                	addi	s0,s0,-1
   1d73a:	040a                	slli	s0,s0,0x2
   1d73c:	101c                	addi	a5,sp,32
   1d73e:	943e                	add	s0,s0,a5
   1d740:	fe042703          	lw	a4,-32(s0)
   1d744:	fff48693          	addi	a3,s1,-1
   1d748:	80048613          	addi	a2,s1,-2048
   1d74c:	12c00593          	li	a1,300
   1d750:	08200513          	li	a0,130
   1d754:	637010ef          	jal	ra,1f58a <LCD_ShowString>
E:\02-项目\13-RISCV实验箱\模块驱动\19-LCD_ST7796U\AHL-CH32V307-LCD_ST7796U\Debug/srcc/main.c:213

}
   1d758:	50b2                	lw	ra,44(sp)
   1d75a:	5422                	lw	s0,40(sp)
   1d75c:	5492                	lw	s1,36(sp)
   1d75e:	6145                	addi	sp,sp,48
   1d760:	8082                	ret

0001d762 <LCD_show_first>:
LCD_show_first():
E:\02-项目\13-RISCV实验箱\模块驱动\19-LCD_ST7796U\AHL-CH32V307-LCD_ST7796U\Debug/srcc/main.c:159
{
   1d762:	1141                	addi	sp,sp,-16
   1d764:	c606                	sw	ra,12(sp)
   1d766:	c422                	sw	s0,8(sp)
E:\02-项目\13-RISCV实验箱\模块驱动\19-LCD_ST7796U\AHL-CH32V307-LCD_ST7796U\Debug/srcc/main.c:160
    printf("******************************************************\r\n");
   1d768:	00022437          	lui	s0,0x22
   1d76c:	89440513          	addi	a0,s0,-1900 # 21894 <strlen+0x88>
   1d770:	187020ef          	jal	ra,200f6 <myprintf>
E:\02-项目\13-RISCV实验箱\模块驱动\19-LCD_ST7796U\AHL-CH32V307-LCD_ST7796U\Debug/srcc/main.c:161
    printf("                  EORS 数据集采集工程\r\n\r\n");
   1d774:	00022537          	lui	a0,0x22
   1d778:	8d050513          	addi	a0,a0,-1840 # 218d0 <strlen+0xc4>
   1d77c:	17b020ef          	jal	ra,200f6 <myprintf>
E:\02-项目\13-RISCV实验箱\模块驱动\19-LCD_ST7796U\AHL-CH32V307-LCD_ST7796U\Debug/srcc/main.c:162
    printf("使用说明:\r\n");
   1d780:	00022537          	lui	a0,0x22
   1d784:	8fc50513          	addi	a0,a0,-1796 # 218fc <strlen+0xf0>
   1d788:	16f020ef          	jal	ra,200f6 <myprintf>
E:\02-项目\13-RISCV实验箱\模块驱动\19-LCD_ST7796U\AHL-CH32V307-LCD_ST7796U\Debug/srcc/main.c:163
    printf("(1)默认发送灰度数据集，通过触摸开发板右上角区域改变发送模式\r\n");
   1d78c:	00022537          	lui	a0,0x22
   1d790:	90850513          	addi	a0,a0,-1784 # 21908 <strlen+0xfc>
   1d794:	163020ef          	jal	ra,200f6 <myprintf>
E:\02-项目\13-RISCV实验箱\模块驱动\19-LCD_ST7796U\AHL-CH32V307-LCD_ST7796U\Debug/srcc/main.c:164
    printf("(2)触摸十次即Tsi Count达到十次后 切换输出模式 共有灰度与彩色两种模式\r\n");
   1d798:	00022537          	lui	a0,0x22
   1d79c:	94850513          	addi	a0,a0,-1720 # 21948 <strlen+0x13c>
   1d7a0:	157020ef          	jal	ra,200f6 <myprintf>
E:\02-项目\13-RISCV实验箱\模块驱动\19-LCD_ST7796U\AHL-CH32V307-LCD_ST7796U\Debug/srcc/main.c:165
    printf("(3)若触摸后Tsi Count值不增加，请查看板子上是否有异物，是否有焊渣，如有，请清除干净\r\n");
   1d7a4:	00022537          	lui	a0,0x22
   1d7a8:	99050513          	addi	a0,a0,-1648 # 21990 <strlen+0x184>
   1d7ac:	14b020ef          	jal	ra,200f6 <myprintf>
E:\02-项目\13-RISCV实验箱\模块驱动\19-LCD_ST7796U\AHL-CH32V307-LCD_ST7796U\Debug/srcc/main.c:166
    printf("(4)将物体的位置放置在LCD给出的红框中\r\n");
   1d7b0:	00022537          	lui	a0,0x22
   1d7b4:	9e850513          	addi	a0,a0,-1560 # 219e8 <strlen+0x1dc>
   1d7b8:	13f020ef          	jal	ra,200f6 <myprintf>
E:\02-项目\13-RISCV实验箱\模块驱动\19-LCD_ST7796U\AHL-CH32V307-LCD_ST7796U\Debug/srcc/main.c:167
    printf("(5)打开数据接收工程接收数据\r\n");
   1d7bc:	00022537          	lui	a0,0x22
   1d7c0:	a1050513          	addi	a0,a0,-1520 # 21a10 <strlen+0x204>
   1d7c4:	133020ef          	jal	ra,200f6 <myprintf>
E:\02-项目\13-RISCV实验箱\模块驱动\19-LCD_ST7796U\AHL-CH32V307-LCD_ST7796U\Debug/srcc/main.c:168
    printf("   注意事项:\r\n");
   1d7c8:	00022537          	lui	a0,0x22
   1d7cc:	a3050513          	addi	a0,a0,-1488 # 21a30 <strlen+0x224>
   1d7d0:	127020ef          	jal	ra,200f6 <myprintf>
E:\02-项目\13-RISCV实验箱\模块驱动\19-LCD_ST7796U\AHL-CH32V307-LCD_ST7796U\Debug/srcc/main.c:169
    printf("            (1)LCD红框中无其他多余物体\r\n");
   1d7d4:	00022537          	lui	a0,0x22
   1d7d8:	a4050513          	addi	a0,a0,-1472 # 21a40 <strlen+0x234>
   1d7dc:	11b020ef          	jal	ra,200f6 <myprintf>
E:\02-项目\13-RISCV实验箱\模块驱动\19-LCD_ST7796U\AHL-CH32V307-LCD_ST7796U\Debug/srcc/main.c:170
    printf("            (2)保持识别场景光照良好\r\n");
   1d7e0:	00022537          	lui	a0,0x22
   1d7e4:	a6c50513          	addi	a0,a0,-1428 # 21a6c <strlen+0x260>
   1d7e8:	10f020ef          	jal	ra,200f6 <myprintf>
E:\02-项目\13-RISCV实验箱\模块驱动\19-LCD_ST7796U\AHL-CH32V307-LCD_ST7796U\Debug/srcc/main.c:171
    printf("******************************************************\r\n");
   1d7ec:	89440513          	addi	a0,s0,-1900
   1d7f0:	107020ef          	jal	ra,200f6 <myprintf>
E:\02-项目\13-RISCV实验箱\模块驱动\19-LCD_ST7796U\AHL-CH32V307-LCD_ST7796U\Debug/srcc/main.c:172
    printf("\r\n");
   1d7f4:	00022537          	lui	a0,0x22
   1d7f8:	a3c50513          	addi	a0,a0,-1476 # 21a3c <strlen+0x230>
   1d7fc:	0fb020ef          	jal	ra,200f6 <myprintf>
E:\02-项目\13-RISCV实验箱\模块驱动\19-LCD_ST7796U\AHL-CH32V307-LCD_ST7796U\Debug/srcc/main.c:175
    LCD_ShowString(30,2,BLUE,WHITE,(const char *)"AI-EORS Detect Device");
   1d800:	00022737          	lui	a4,0x22
   1d804:	a9470713          	addi	a4,a4,-1388 # 21a94 <strlen+0x288>
   1d808:	6441                	lui	s0,0x10
   1d80a:	fff40693          	addi	a3,s0,-1 # ffff <__stack_size+0xf7ff>
   1d80e:	467d                	li	a2,31
   1d810:	4589                	li	a1,2
   1d812:	4579                	li	a0,30
   1d814:	577010ef          	jal	ra,1f58a <LCD_ShowString>
E:\02-项目\13-RISCV实验箱\模块驱动\19-LCD_ST7796U\AHL-CH32V307-LCD_ST7796U\Debug/srcc/main.c:177
    LCD_ShowString(30,215,BLUE,WHITE,(const char *)"Data Format:");
   1d818:	00022737          	lui	a4,0x22
   1d81c:	aac70713          	addi	a4,a4,-1364 # 21aac <strlen+0x2a0>
   1d820:	fff40693          	addi	a3,s0,-1
   1d824:	467d                	li	a2,31
   1d826:	0d700593          	li	a1,215
   1d82a:	4579                	li	a0,30
   1d82c:	55f010ef          	jal	ra,1f58a <LCD_ShowString>
E:\02-项目\13-RISCV实验箱\模块驱动\19-LCD_ST7796U\AHL-CH32V307-LCD_ST7796U\Debug/srcc/main.c:179
    LCD_ShowString(140,215,RED,WHITE,(const char *)"Gray");
   1d830:	00022737          	lui	a4,0x22
   1d834:	abc70713          	addi	a4,a4,-1348 # 21abc <strlen+0x2b0>
   1d838:	fff40693          	addi	a3,s0,-1
   1d83c:	80040613          	addi	a2,s0,-2048
   1d840:	0d700593          	li	a1,215
   1d844:	08c00513          	li	a0,140
   1d848:	543010ef          	jal	ra,1f58a <LCD_ShowString>
E:\02-项目\13-RISCV实验箱\模块驱动\19-LCD_ST7796U\AHL-CH32V307-LCD_ST7796U\Debug/srcc/main.c:181
    LCD_ShowString(30,245,BLUE,WHITE,(const char *)"Tsi Count:");
   1d84c:	00022737          	lui	a4,0x22
   1d850:	ac470713          	addi	a4,a4,-1340 # 21ac4 <strlen+0x2b8>
   1d854:	fff40693          	addi	a3,s0,-1
   1d858:	467d                	li	a2,31
   1d85a:	0f500593          	li	a1,245
   1d85e:	4579                	li	a0,30
   1d860:	52b010ef          	jal	ra,1f58a <LCD_ShowString>
E:\02-项目\13-RISCV实验箱\模块驱动\19-LCD_ST7796U\AHL-CH32V307-LCD_ST7796U\Debug/srcc/main.c:183
    LCD_DrawLine(0,293, 240, 293,BLACK); //系统状态分割线
   1d864:	4701                	li	a4,0
   1d866:	12500693          	li	a3,293
   1d86a:	0f000613          	li	a2,240
   1d86e:	12500593          	li	a1,293
   1d872:	4501                	li	a0,0
   1d874:	38f010ef          	jal	ra,1f402 <LCD_DrawLine>
E:\02-项目\13-RISCV实验箱\模块驱动\19-LCD_ST7796U\AHL-CH32V307-LCD_ST7796U\Debug/srcc/main.c:185
    LCD_ShowString(10,300,BLUE,WHITE,(const char *)"Device Status:");
   1d878:	00022737          	lui	a4,0x22
   1d87c:	ad070713          	addi	a4,a4,-1328 # 21ad0 <strlen+0x2c4>
   1d880:	fff40693          	addi	a3,s0,-1
   1d884:	467d                	li	a2,31
   1d886:	12c00593          	li	a1,300
   1d88a:	4529                	li	a0,10
   1d88c:	4ff010ef          	jal	ra,1f58a <LCD_ShowString>
E:\02-项目\13-RISCV实验箱\模块驱动\19-LCD_ST7796U\AHL-CH32V307-LCD_ST7796U\Debug/srcc/main.c:186
    LCD_show_status(INIT);
   1d890:	4505                	li	a0,1
   1d892:	3d99                	jal	1d6e8 <LCD_show_status>
E:\02-项目\13-RISCV实验箱\模块驱动\19-LCD_ST7796U\AHL-CH32V307-LCD_ST7796U\Debug/srcc/main.c:187
}
   1d894:	40b2                	lw	ra,12(sp)
   1d896:	4422                	lw	s0,8(sp)
   1d898:	0141                	addi	sp,sp,16
   1d89a:	8082                	ret

0001d89c <mdelay_ms>:
mdelay_ms():
E:\02-项目\13-RISCV实验箱\模块驱动\19-LCD_ST7796U\AHL-CH32V307-LCD_ST7796U\Debug/srcc/main.c:216

void mdelay_ms(uint32_t ms)
{
   1d89c:	1141                	addi	sp,sp,-16
E:\02-项目\13-RISCV实验箱\模块驱动\19-LCD_ST7796U\AHL-CH32V307-LCD_ST7796U\Debug/srcc/main.c:217
    for(volatile uint32_t i= 0; i < (7200*ms); i++) __asm("nop");
   1d89e:	c602                	sw	zero,12(sp)
E:\02-项目\13-RISCV实验箱\模块驱动\19-LCD_ST7796U\AHL-CH32V307-LCD_ST7796U\Debug/srcc/main.c:217 (discriminator 1)
   1d8a0:	6789                	lui	a5,0x2
   1d8a2:	c2078793          	addi	a5,a5,-992 # 1c20 <__stack_size+0x1420>
   1d8a6:	02f507b3          	mul	a5,a0,a5
   1d8aa:	4732                	lw	a4,12(sp)
   1d8ac:	00f77763          	bgeu	a4,a5,1d8ba <mdelay_ms+0x1e>
E:\02-项目\13-RISCV实验箱\模块驱动\19-LCD_ST7796U\AHL-CH32V307-LCD_ST7796U\Debug/srcc/main.c:217 (discriminator 3)
   1d8b0:	0001                	nop
   1d8b2:	47b2                	lw	a5,12(sp)
   1d8b4:	0785                	addi	a5,a5,1
   1d8b6:	c63e                	sw	a5,12(sp)
   1d8b8:	b7e5                	j	1d8a0 <mdelay_ms+0x4>
E:\02-项目\13-RISCV实验箱\模块驱动\19-LCD_ST7796U\AHL-CH32V307-LCD_ST7796U\Debug/srcc/main.c:218
}
   1d8ba:	0141                	addi	sp,sp,16
   1d8bc:	8082                	ret

0001d8be <main>:
main():
E:\02-项目\13-RISCV实验箱\模块驱动\19-LCD_ST7796U\AHL-CH32V307-LCD_ST7796U\Debug/srcc/main.c:22
{
   1d8be:	1141                	addi	sp,sp,-16
   1d8c0:	c606                	sw	ra,12(sp)
   1d8c2:	c422                	sw	s0,8(sp)
E:\02-项目\13-RISCV实验箱\模块驱动\19-LCD_ST7796U\AHL-CH32V307-LCD_ST7796U\Debug/srcc/main.c:34
    DISABLE_INTERRUPTS;
   1d8c4:	4781                	li	a5,0
   1d8c6:	30079073          	csrw	mstatus,a5
E:\02-项目\13-RISCV实验箱\模块驱动\19-LCD_ST7796U\AHL-CH32V307-LCD_ST7796U\Debug/srcc/main.c:38
    cam_rec_flag=0;                 //接收图像标志位
   1d8ca:	200077b7          	lui	a5,0x20007
   1d8ce:	90078823          	sb	zero,-1776(a5) # 20006910 <cam_rec_flag>
E:\02-项目\13-RISCV实验箱\模块驱动\19-LCD_ST7796U\AHL-CH32V307-LCD_ST7796U\Debug/srcc/main.c:45
    cam_ready=0;
   1d8d2:	200077b7          	lui	a5,0x20007
   1d8d6:	96078623          	sb	zero,-1684(a5) # 2000696c <cam_ready>
E:\02-项目\13-RISCV实验箱\模块驱动\19-LCD_ST7796U\AHL-CH32V307-LCD_ST7796U\Debug/srcc/main.c:46
    cam_fifo_ready=0;
   1d8da:	200077b7          	lui	a5,0x20007
   1d8de:	96078523          	sb	zero,-1686(a5) # 2000696a <cam_fifo_ready>
E:\02-项目\13-RISCV实验箱\模块驱动\19-LCD_ST7796U\AHL-CH32V307-LCD_ST7796U\Debug/srcc/main.c:47
    cam_refresh_end=0;
   1d8e2:	200077b7          	lui	a5,0x20007
   1d8e6:	90078ca3          	sb	zero,-1767(a5) # 20006919 <cam_refresh_end>
E:\02-项目\13-RISCV实验箱\模块驱动\19-LCD_ST7796U\AHL-CH32V307-LCD_ST7796U\Debug/srcc/main.c:49
    gpio_init(LIGHT_RED,GPIO_OUTPUT,LIGHT_OFF);     //初始化红灯
   1d8ea:	4605                	li	a2,1
   1d8ec:	4585                	li	a1,1
   1d8ee:	20000513          	li	a0,512
   1d8f2:	2321                	jal	1ddfa <gpio_init>
E:\02-项目\13-RISCV实验箱\模块驱动\19-LCD_ST7796U\AHL-CH32V307-LCD_ST7796U\Debug/srcc/main.c:50
    gpio_init(LIGHT_BLUE,GPIO_OUTPUT,LIGHT_OFF);    //初始化蓝灯
   1d8f4:	4605                	li	a2,1
   1d8f6:	4585                	li	a1,1
   1d8f8:	20200513          	li	a0,514
   1d8fc:	29fd                	jal	1ddfa <gpio_init>
E:\02-项目\13-RISCV实验箱\模块驱动\19-LCD_ST7796U\AHL-CH32V307-LCD_ST7796U\Debug/srcc/main.c:51
    gpio_init(LIGHT_GREEN,GPIO_OUTPUT,LIGHT_OFF);   //初始化绿灯
   1d8fe:	4605                	li	a2,1
   1d900:	4585                	li	a1,1
   1d902:	20100513          	li	a0,513
   1d906:	29d5                	jal	1ddfa <gpio_init>
E:\02-项目\13-RISCV实验箱\模块驱动\19-LCD_ST7796U\AHL-CH32V307-LCD_ST7796U\Debug/srcc/main.c:52
    uart_init(UART_1,115200);                    //初始化User串口
   1d908:	6471                	lui	s0,0x1c
   1d90a:	20040593          	addi	a1,s0,512 # 1c200 <__stack_size+0x1ba00>
   1d90e:	4505                	li	a0,1
   1d910:	15c010ef          	jal	ra,1ea6c <uart_init>
E:\02-项目\13-RISCV实验箱\模块驱动\19-LCD_ST7796U\AHL-CH32V307-LCD_ST7796U\Debug/srcc/main.c:53
    timer_init(TIMER_USER,20);          //LPTMR计时器初始化为1000毫秒
   1d914:	45d1                	li	a1,20
   1d916:	451d                	li	a0,7
   1d918:	d91fe0ef          	jal	ra,1c6a8 <timer_init>
E:\02-项目\13-RISCV实验箱\模块驱动\19-LCD_ST7796U\AHL-CH32V307-LCD_ST7796U\Debug/srcc/main.c:54
    gpio_init(LIGHT_BLUE,GPIO_OUTPUT,LIGHT_ON);
   1d91c:	4601                	li	a2,0
   1d91e:	4585                	li	a1,1
   1d920:	20200513          	li	a0,514
   1d924:	29d9                	jal	1ddfa <gpio_init>
E:\02-项目\13-RISCV实验箱\模块驱动\19-LCD_ST7796U\AHL-CH32V307-LCD_ST7796U\Debug/srcc/main.c:55
    uart_init(UART_User,115200);
   1d926:	20040593          	addi	a1,s0,512
   1d92a:	4509                	li	a0,2
   1d92c:	140010ef          	jal	ra,1ea6c <uart_init>
E:\02-项目\13-RISCV实验箱\模块驱动\19-LCD_ST7796U\AHL-CH32V307-LCD_ST7796U\Debug/srcc/main.c:56
    LCD_Init();
   1d930:	7fe010ef          	jal	ra,1f12e <LCD_Init>
E:\02-项目\13-RISCV实验箱\模块驱动\19-LCD_ST7796U\AHL-CH32V307-LCD_ST7796U\Debug/srcc/main.c:58
    printf("金葫芦提示： 正在初始化摄像头.....\r\n");
   1d934:	00022537          	lui	a0,0x22
   1d938:	ae050513          	addi	a0,a0,-1312 # 21ae0 <strlen+0x2d4>
   1d93c:	7ba020ef          	jal	ra,200f6 <myprintf>
E:\02-项目\13-RISCV实验箱\模块驱动\19-LCD_ST7796U\AHL-CH32V307-LCD_ST7796U\Debug/srcc/main.c:59
    mflag=cam_init();           //初始化摄像头
   1d940:	d37ff0ef          	jal	ra,1d676 <cam_init>
E:\02-项目\13-RISCV实验箱\模块驱动\19-LCD_ST7796U\AHL-CH32V307-LCD_ST7796U\Debug/srcc/main.c:60
    while(mflag)
   1d944:	a81d                	j	1d97a <main+0xbc>
E:\02-项目\13-RISCV实验箱\模块驱动\19-LCD_ST7796U\AHL-CH32V307-LCD_ST7796U\Debug/srcc/main.c:63
        LCD_show_status(CAMERROR);
   1d946:	4509                	li	a0,2
   1d948:	da1ff0ef          	jal	ra,1d6e8 <LCD_show_status>
E:\02-项目\13-RISCV实验箱\模块驱动\19-LCD_ST7796U\AHL-CH32V307-LCD_ST7796U\Debug/srcc/main.c:64
        printf("金葫芦提示： 正在初始化摄像头.....");
   1d94c:	00022537          	lui	a0,0x22
   1d950:	b0850513          	addi	a0,a0,-1272 # 21b08 <strlen+0x2fc>
   1d954:	7a2020ef          	jal	ra,200f6 <myprintf>
E:\02-项目\13-RISCV实验箱\模块驱动\19-LCD_ST7796U\AHL-CH32V307-LCD_ST7796U\Debug/srcc/main.c:65
        printf("失败，可重新拔插摄像头！\r\n");
   1d958:	00022537          	lui	a0,0x22
   1d95c:	b2c50513          	addi	a0,a0,-1236 # 21b2c <strlen+0x320>
   1d960:	796020ef          	jal	ra,200f6 <myprintf>
E:\02-项目\13-RISCV实验箱\模块驱动\19-LCD_ST7796U\AHL-CH32V307-LCD_ST7796U\Debug/srcc/main.c:66
        printf("金葫芦提示： 系统将重新初始化摄像头....\r\n");
   1d964:	00022537          	lui	a0,0x22
   1d968:	b4850513          	addi	a0,a0,-1208 # 21b48 <strlen+0x33c>
   1d96c:	78a020ef          	jal	ra,200f6 <myprintf>
E:\02-项目\13-RISCV实验箱\模块驱动\19-LCD_ST7796U\AHL-CH32V307-LCD_ST7796U\Debug/srcc/main.c:67
        mdelay_ms(200);
   1d970:	0c800513          	li	a0,200
   1d974:	3725                	jal	1d89c <mdelay_ms>
E:\02-项目\13-RISCV实验箱\模块驱动\19-LCD_ST7796U\AHL-CH32V307-LCD_ST7796U\Debug/srcc/main.c:68
        mflag=cam_init();
   1d976:	d01ff0ef          	jal	ra,1d676 <cam_init>
E:\02-项目\13-RISCV实验箱\模块驱动\19-LCD_ST7796U\AHL-CH32V307-LCD_ST7796U\Debug/srcc/main.c:60
    while(mflag)
   1d97a:	f571                	bnez	a0,1d946 <main+0x88>
E:\02-项目\13-RISCV实验箱\模块驱动\19-LCD_ST7796U\AHL-CH32V307-LCD_ST7796U\Debug/srcc/main.c:72
        printf("金葫芦提示： 正在初始化摄像头.....成功\r\n");
   1d97c:	00022537          	lui	a0,0x22
   1d980:	b7450513          	addi	a0,a0,-1164 # 21b74 <strlen+0x368>
   1d984:	772020ef          	jal	ra,200f6 <myprintf>
E:\02-项目\13-RISCV实验箱\模块驱动\19-LCD_ST7796U\AHL-CH32V307-LCD_ST7796U\Debug/srcc/main.c:73
        LCD_show_status(INITSUCCESS);     //LCD 系统初始化成功
   1d988:	4519                	li	a0,6
   1d98a:	d5fff0ef          	jal	ra,1d6e8 <LCD_show_status>
E:\02-项目\13-RISCV实验箱\模块驱动\19-LCD_ST7796U\AHL-CH32V307-LCD_ST7796U\Debug/srcc/main.c:75
    LCD_show_first();                     //显示LCD预加载框架
   1d98e:	dd5ff0ef          	jal	ra,1d762 <LCD_show_first>
E:\02-项目\13-RISCV实验箱\模块驱动\19-LCD_ST7796U\AHL-CH32V307-LCD_ST7796U\Debug/srcc/main.c:77
    uart_enable_re_int(UART_User);
   1d992:	4509                	li	a0,2
   1d994:	4de010ef          	jal	ra,1ee72 <uart_enable_re_int>
E:\02-项目\13-RISCV实验箱\模块驱动\19-LCD_ST7796U\AHL-CH32V307-LCD_ST7796U\Debug/srcc/main.c:78
    gpio_enable_int(cam_VSYNC,FALLING_EDGE);   //使能摄像头帧中断
   1d998:	45b1                	li	a1,12
   1d99a:	20c00513          	li	a0,524
   1d99e:	254d                	jal	1e040 <gpio_enable_int>
E:\02-项目\13-RISCV实验箱\模块驱动\19-LCD_ST7796U\AHL-CH32V307-LCD_ST7796U\Debug/srcc/main.c:79
    LCD_DrawRectangle(30,24,214,195,RED); //标注屏幕红框//30,24,214,195
   1d9a0:	6741                	lui	a4,0x10
   1d9a2:	80070713          	addi	a4,a4,-2048 # f800 <__stack_size+0xf000>
   1d9a6:	0c300693          	li	a3,195
   1d9aa:	0d600613          	li	a2,214
   1d9ae:	45e1                	li	a1,24
   1d9b0:	4579                	li	a0,30
   1d9b2:	30d010ef          	jal	ra,1f4be <LCD_DrawRectangle>
E:\02-项目\13-RISCV实验箱\模块驱动\19-LCD_ST7796U\AHL-CH32V307-LCD_ST7796U\Debug/srcc/main.c:82
     ENABLE_INTERRUPTS;
   1d9b6:	08800793          	li	a5,136
   1d9ba:	30079073          	csrw	mstatus,a5
E:\02-项目\13-RISCV实验箱\模块驱动\19-LCD_ST7796U\AHL-CH32V307-LCD_ST7796U\Debug/srcc/main.c:99 (discriminator 1)
       image_orginal=cam_getimg_5656();
   1d9be:	abeff0ef          	jal	ra,1cc7c <cam_getimg_5656>
   1d9c2:	bff5                	j	1d9be <main+0x100>

0001d9c4 <SetSysClockTo72>:
SetSysClockTo72():
E:\02-项目\13-RISCV实验箱\模块驱动\19-LCD_ST7796U\AHL-CH32V307-LCD_ST7796U\Debug/srcc/system_ch32v30x.c:468
* Description    : Sets System clock frequency to 72MHz and configure HCLK, PCLK2 and PCLK1 prescalers.
* Input          : None
* Return         : None
*******************************************************************************************/
static void SetSysClockTo72(void)
{
   1d9c4:	1141                	addi	sp,sp,-16
E:\02-项目\13-RISCV实验箱\模块驱动\19-LCD_ST7796U\AHL-CH32V307-LCD_ST7796U\Debug/srcc/system_ch32v30x.c:469
  __IO uint32_t StartUpCounter = 0, HSEStatus = 0;
   1d9c6:	c602                	sw	zero,12(sp)
   1d9c8:	c402                	sw	zero,8(sp)
E:\02-项目\13-RISCV实验箱\模块驱动\19-LCD_ST7796U\AHL-CH32V307-LCD_ST7796U\Debug/srcc/system_ch32v30x.c:471
     
  RCC->CTLR |= ((uint32_t)RCC_HSEON);
   1d9ca:	40021737          	lui	a4,0x40021
   1d9ce:	431c                	lw	a5,0(a4)
   1d9d0:	66c1                	lui	a3,0x10
   1d9d2:	8fd5                	or	a5,a5,a3
   1d9d4:	c31c                	sw	a5,0(a4)
E:\02-项目\13-RISCV实验箱\模块驱动\19-LCD_ST7796U\AHL-CH32V307-LCD_ST7796U\Debug/srcc/system_ch32v30x.c:476 (discriminator 2)
 
  /* Wait till HSE is ready and if Time out is reached exit */
  do
  {
    HSEStatus = RCC->CTLR & RCC_HSERDY;
   1d9d6:	400217b7          	lui	a5,0x40021
   1d9da:	439c                	lw	a5,0(a5)
   1d9dc:	00020737          	lui	a4,0x20
   1d9e0:	8ff9                	and	a5,a5,a4
   1d9e2:	c43e                	sw	a5,8(sp)
E:\02-项目\13-RISCV实验箱\模块驱动\19-LCD_ST7796U\AHL-CH32V307-LCD_ST7796U\Debug/srcc/system_ch32v30x.c:477 (discriminator 2)
    StartUpCounter++;  
   1d9e4:	47b2                	lw	a5,12(sp)
   1d9e6:	0785                	addi	a5,a5,1
   1d9e8:	c63e                	sw	a5,12(sp)
E:\02-项目\13-RISCV实验箱\模块驱动\19-LCD_ST7796U\AHL-CH32V307-LCD_ST7796U\Debug/srcc/system_ch32v30x.c:478 (discriminator 2)
  } while((HSEStatus == 0) && (StartUpCounter != HSE_STARTUP_TIMEOUT));
   1d9ea:	47a2                	lw	a5,8(sp)
   1d9ec:	e791                	bnez	a5,1d9f8 <SetSysClockTo72+0x34>
E:\02-项目\13-RISCV实验箱\模块驱动\19-LCD_ST7796U\AHL-CH32V307-LCD_ST7796U\Debug/srcc/system_ch32v30x.c:478 (discriminator 1)
   1d9ee:	4732                	lw	a4,12(sp)
   1d9f0:	50000793          	li	a5,1280
   1d9f4:	fef711e3          	bne	a4,a5,1d9d6 <SetSysClockTo72+0x12>
E:\02-项目\13-RISCV实验箱\模块驱动\19-LCD_ST7796U\AHL-CH32V307-LCD_ST7796U\Debug/srcc/system_ch32v30x.c:480

  if ((RCC->CTLR & RCC_HSERDY) != RESET)
   1d9f8:	400217b7          	lui	a5,0x40021
   1d9fc:	439c                	lw	a5,0(a5)
   1d9fe:	00e79713          	slli	a4,a5,0xe
   1da02:	00075a63          	bgez	a4,1da16 <SetSysClockTo72+0x52>
E:\02-项目\13-RISCV实验箱\模块驱动\19-LCD_ST7796U\AHL-CH32V307-LCD_ST7796U\Debug/srcc/system_ch32v30x.c:482
  {
    HSEStatus = (uint32_t)0x01;
   1da06:	4785                	li	a5,1
   1da08:	c43e                	sw	a5,8(sp)
E:\02-项目\13-RISCV实验箱\模块驱动\19-LCD_ST7796U\AHL-CH32V307-LCD_ST7796U\Debug/srcc/system_ch32v30x.c:489
  else
  {
    HSEStatus = (uint32_t)0x00;
  }  

  if (HSEStatus == (uint32_t)0x01)
   1da0a:	4722                	lw	a4,8(sp)
   1da0c:	4785                	li	a5,1
   1da0e:	00f70663          	beq	a4,a5,1da1a <SetSysClockTo72+0x56>
E:\02-项目\13-RISCV实验箱\模块驱动\19-LCD_ST7796U\AHL-CH32V307-LCD_ST7796U\Debug/srcc/system_ch32v30x.c:530
		/* 
		 * If HSE fails to start-up, the application will have wrong clock 
     * configuration. User can add here some code to deal with this error 
		 */
  }
}
   1da12:	0141                	addi	sp,sp,16
   1da14:	8082                	ret
E:\02-项目\13-RISCV实验箱\模块驱动\19-LCD_ST7796U\AHL-CH32V307-LCD_ST7796U\Debug/srcc/system_ch32v30x.c:486
    HSEStatus = (uint32_t)0x00;
   1da16:	c402                	sw	zero,8(sp)
   1da18:	bfcd                	j	1da0a <SetSysClockTo72+0x46>
E:\02-项目\13-RISCV实验箱\模块驱动\19-LCD_ST7796U\AHL-CH32V307-LCD_ST7796U\Debug/srcc/system_ch32v30x.c:492
    FLASH->ACTLR |= FLASH_ACTLR_PRFTBE;
   1da1a:	400227b7          	lui	a5,0x40022
   1da1e:	4398                	lw	a4,0(a5)
   1da20:	01076713          	ori	a4,a4,16
   1da24:	c398                	sw	a4,0(a5)
E:\02-项目\13-RISCV实验箱\模块驱动\19-LCD_ST7796U\AHL-CH32V307-LCD_ST7796U\Debug/srcc/system_ch32v30x.c:495
    FLASH->ACTLR &= (uint32_t)((uint32_t)~FLASH_ACTLR_LATENCY);
   1da26:	4398                	lw	a4,0(a5)
   1da28:	9b71                	andi	a4,a4,-4
   1da2a:	c398                	sw	a4,0(a5)
E:\02-项目\13-RISCV实验箱\模块驱动\19-LCD_ST7796U\AHL-CH32V307-LCD_ST7796U\Debug/srcc/system_ch32v30x.c:496
    FLASH->ACTLR |= (uint32_t)FLASH_ACTLR_LATENCY_2;    
   1da2c:	4398                	lw	a4,0(a5)
   1da2e:	00276713          	ori	a4,a4,2
   1da32:	c398                	sw	a4,0(a5)
E:\02-项目\13-RISCV实验箱\模块驱动\19-LCD_ST7796U\AHL-CH32V307-LCD_ST7796U\Debug/srcc/system_ch32v30x.c:499
    RCC->CFGR0 |= (uint32_t)RCC_HPRE_DIV1; 
   1da34:	400217b7          	lui	a5,0x40021
   1da38:	43d8                	lw	a4,4(a5)
   1da3a:	c3d8                	sw	a4,4(a5)
E:\02-项目\13-RISCV实验箱\模块驱动\19-LCD_ST7796U\AHL-CH32V307-LCD_ST7796U\Debug/srcc/system_ch32v30x.c:501
    RCC->CFGR0 |= (uint32_t)RCC_PPRE2_DIV1; 
   1da3c:	43d8                	lw	a4,4(a5)
   1da3e:	c3d8                	sw	a4,4(a5)
E:\02-项目\13-RISCV实验箱\模块驱动\19-LCD_ST7796U\AHL-CH32V307-LCD_ST7796U\Debug/srcc/system_ch32v30x.c:503
    RCC->CFGR0 |= (uint32_t)RCC_PPRE1_DIV2;
   1da40:	43d8                	lw	a4,4(a5)
   1da42:	40076713          	ori	a4,a4,1024
   1da46:	c3d8                	sw	a4,4(a5)
E:\02-项目\13-RISCV实验箱\模块驱动\19-LCD_ST7796U\AHL-CH32V307-LCD_ST7796U\Debug/srcc/system_ch32v30x.c:506
    RCC->CFGR0 &= (uint32_t)((uint32_t)~(RCC_PLLSRC | RCC_PLLXTPRE |
   1da48:	43d8                	lw	a4,4(a5)
   1da4a:	ffc106b7          	lui	a3,0xffc10
   1da4e:	16fd                	addi	a3,a3,-1
   1da50:	8f75                	and	a4,a4,a3
   1da52:	c3d8                	sw	a4,4(a5)
E:\02-项目\13-RISCV实验箱\模块驱动\19-LCD_ST7796U\AHL-CH32V307-LCD_ST7796U\Debug/srcc/system_ch32v30x.c:508
    RCC->CFGR0 |= (uint32_t)(RCC_PLLSRC_HSE | RCC_PLLMULL9);
   1da54:	43d8                	lw	a4,4(a5)
   1da56:	001d06b7          	lui	a3,0x1d0
   1da5a:	8f55                	or	a4,a4,a3
   1da5c:	c3d8                	sw	a4,4(a5)
E:\02-项目\13-RISCV实验箱\模块驱动\19-LCD_ST7796U\AHL-CH32V307-LCD_ST7796U\Debug/srcc/system_ch32v30x.c:510
    RCC->CTLR |= RCC_PLLON;
   1da5e:	4398                	lw	a4,0(a5)
   1da60:	010006b7          	lui	a3,0x1000
   1da64:	8f55                	or	a4,a4,a3
   1da66:	c398                	sw	a4,0(a5)
E:\02-项目\13-RISCV实验箱\模块驱动\19-LCD_ST7796U\AHL-CH32V307-LCD_ST7796U\Debug/srcc/system_ch32v30x.c:512 (discriminator 1)
    while((RCC->CTLR & RCC_PLLRDY) == 0)
   1da68:	400217b7          	lui	a5,0x40021
   1da6c:	439c                	lw	a5,0(a5)
   1da6e:	00679713          	slli	a4,a5,0x6
   1da72:	fe075be3          	bgez	a4,1da68 <SetSysClockTo72+0xa4>
E:\02-项目\13-RISCV实验箱\模块驱动\19-LCD_ST7796U\AHL-CH32V307-LCD_ST7796U\Debug/srcc/system_ch32v30x.c:516
    RCC->CFGR0 &= (uint32_t)((uint32_t)~(RCC_SW));
   1da76:	400217b7          	lui	a5,0x40021
   1da7a:	43d8                	lw	a4,4(a5)
   1da7c:	9b71                	andi	a4,a4,-4
   1da7e:	c3d8                	sw	a4,4(a5)
E:\02-项目\13-RISCV实验箱\模块驱动\19-LCD_ST7796U\AHL-CH32V307-LCD_ST7796U\Debug/srcc/system_ch32v30x.c:517
    RCC->CFGR0 |= (uint32_t)RCC_SW_PLL;    
   1da80:	43d8                	lw	a4,4(a5)
   1da82:	00276713          	ori	a4,a4,2
   1da86:	c3d8                	sw	a4,4(a5)
E:\02-项目\13-RISCV实验箱\模块驱动\19-LCD_ST7796U\AHL-CH32V307-LCD_ST7796U\Debug/srcc/system_ch32v30x.c:519 (discriminator 1)
    while ((RCC->CFGR0 & (uint32_t)RCC_SWS) != (uint32_t)0x08)
   1da88:	400217b7          	lui	a5,0x40021
   1da8c:	43dc                	lw	a5,4(a5)
   1da8e:	8bb1                	andi	a5,a5,12
   1da90:	4721                	li	a4,8
   1da92:	fee79be3          	bne	a5,a4,1da88 <SetSysClockTo72+0xc4>
   1da96:	bfb5                	j	1da12 <SetSysClockTo72+0x4e>

0001da98 <SetSysClock>:
SetSysClock():
E:\02-项目\13-RISCV实验箱\模块驱动\19-LCD_ST7796U\AHL-CH32V307-LCD_ST7796U\Debug/srcc/system_ch32v30x.c:153
{
   1da98:	1141                	addi	sp,sp,-16
   1da9a:	c606                	sw	ra,12(sp)
E:\02-项目\13-RISCV实验箱\模块驱动\19-LCD_ST7796U\AHL-CH32V307-LCD_ST7796U\Debug/srcc/system_ch32v30x.c:163
  SetSysClockTo72();
   1da9c:	3725                	jal	1d9c4 <SetSysClockTo72>
E:\02-项目\13-RISCV实验箱\模块驱动\19-LCD_ST7796U\AHL-CH32V307-LCD_ST7796U\Debug/srcc/system_ch32v30x.c:178
}
   1da9e:	40b2                	lw	ra,12(sp)
   1daa0:	0141                	addi	sp,sp,16
   1daa2:	8082                	ret

0001daa4 <SystemInit>:
SystemInit():
E:\02-项目\13-RISCV实验箱\模块驱动\19-LCD_ST7796U\AHL-CH32V307-LCD_ST7796U\Debug/srcc/system_ch32v30x.c:82
{
   1daa4:	1141                	addi	sp,sp,-16
   1daa6:	c606                	sw	ra,12(sp)
E:\02-项目\13-RISCV实验箱\模块驱动\19-LCD_ST7796U\AHL-CH32V307-LCD_ST7796U\Debug/srcc/system_ch32v30x.c:83
  RCC->CTLR |= (uint32_t)0x00000001;
   1daa8:	400217b7          	lui	a5,0x40021
   1daac:	4398                	lw	a4,0(a5)
   1daae:	00176713          	ori	a4,a4,1
   1dab2:	c398                	sw	a4,0(a5)
E:\02-项目\13-RISCV实验箱\模块驱动\19-LCD_ST7796U\AHL-CH32V307-LCD_ST7796U\Debug/srcc/system_ch32v30x.c:84
  RCC->CFGR0 &= (uint32_t)0xF8FF0000;
   1dab4:	43d8                	lw	a4,4(a5)
   1dab6:	f8ff06b7          	lui	a3,0xf8ff0
   1daba:	8f75                	and	a4,a4,a3
   1dabc:	c3d8                	sw	a4,4(a5)
E:\02-项目\13-RISCV实验箱\模块驱动\19-LCD_ST7796U\AHL-CH32V307-LCD_ST7796U\Debug/srcc/system_ch32v30x.c:85
  RCC->CTLR &= (uint32_t)0xFEF6FFFF;
   1dabe:	4398                	lw	a4,0(a5)
   1dac0:	fef706b7          	lui	a3,0xfef70
   1dac4:	16fd                	addi	a3,a3,-1
   1dac6:	8f75                	and	a4,a4,a3
   1dac8:	c398                	sw	a4,0(a5)
E:\02-项目\13-RISCV实验箱\模块驱动\19-LCD_ST7796U\AHL-CH32V307-LCD_ST7796U\Debug/srcc/system_ch32v30x.c:86
  RCC->CTLR &= (uint32_t)0xFFFBFFFF;
   1daca:	4398                	lw	a4,0(a5)
   1dacc:	fffc06b7          	lui	a3,0xfffc0
   1dad0:	16fd                	addi	a3,a3,-1
   1dad2:	8f75                	and	a4,a4,a3
   1dad4:	c398                	sw	a4,0(a5)
E:\02-项目\13-RISCV实验箱\模块驱动\19-LCD_ST7796U\AHL-CH32V307-LCD_ST7796U\Debug/srcc/system_ch32v30x.c:87
  RCC->CFGR0 &= (uint32_t)0xFF80FFFF;
   1dad6:	43d8                	lw	a4,4(a5)
   1dad8:	ff8106b7          	lui	a3,0xff810
   1dadc:	16fd                	addi	a3,a3,-1
   1dade:	8f75                	and	a4,a4,a3
   1dae0:	c3d8                	sw	a4,4(a5)
E:\02-项目\13-RISCV实验箱\模块驱动\19-LCD_ST7796U\AHL-CH32V307-LCD_ST7796U\Debug/srcc/system_ch32v30x.c:88
  RCC->INTR = 0x009F0000;    
   1dae2:	009f0737          	lui	a4,0x9f0
   1dae6:	c798                	sw	a4,8(a5)
E:\02-项目\13-RISCV实验箱\模块驱动\19-LCD_ST7796U\AHL-CH32V307-LCD_ST7796U\Debug/srcc/system_ch32v30x.c:89
  SetSysClock();
   1dae8:	3f45                	jal	1da98 <SetSysClock>
E:\02-项目\13-RISCV实验箱\模块驱动\19-LCD_ST7796U\AHL-CH32V307-LCD_ST7796U\Debug/srcc/system_ch32v30x.c:90
}
   1daea:	40b2                	lw	ra,12(sp)
   1daec:	0141                	addi	sp,sp,16
   1daee:	8082                	ret

0001daf0 <flash_init>:
flash_init():
E:\02-项目\13-RISCV实验箱\模块驱动\19-LCD_ST7796U\AHL-CH32V307-LCD_ST7796U\Debug/srcc/flash.c:39
//功能概要：初始化flash模块
//======================================================================
void flash_init(void)
{
    //清除所有错误标志位
    FLASH->STATR &= 0xFFFFFFFF;
   1daf0:	400227b7          	lui	a5,0x40022
   1daf4:	47d8                	lw	a4,12(a5)
   1daf6:	c7d8                	sw	a4,12(a5)
E:\02-项目\13-RISCV实验箱\模块驱动\19-LCD_ST7796U\AHL-CH32V307-LCD_ST7796U\Debug/srcc/flash.c:42

    //解锁Flash控制寄存器
    if((FLASH->CTLR & FLASH_CTLR_LOCK )!= 0u)
   1daf8:	4b9c                	lw	a5,16(a5)
   1dafa:	0807f793          	andi	a5,a5,128
   1dafe:	cf99                	beqz	a5,1db1c <flash_init+0x2c>
E:\02-项目\13-RISCV实验箱\模块驱动\19-LCD_ST7796U\AHL-CH32V307-LCD_ST7796U\Debug/srcc/flash.c:44
    {
        FLASH->KEYR = (uint32_t)FLASH_KEY1;
   1db00:	400227b7          	lui	a5,0x40022
   1db04:	456706b7          	lui	a3,0x45670
   1db08:	12368693          	addi	a3,a3,291 # 45670123 <GEC_USER_RAM_END+0x25650123>
   1db0c:	c3d4                	sw	a3,4(a5)
E:\02-项目\13-RISCV实验箱\模块驱动\19-LCD_ST7796U\AHL-CH32V307-LCD_ST7796U\Debug/srcc/flash.c:45
        FLASH->KEYR = (uint32_t)FLASH_KEY2;
   1db0e:	cdef9737          	lui	a4,0xcdef9
   1db12:	9ab70713          	addi	a4,a4,-1621 # cdef89ab <GEC_USER_RAM_END+0xaded89ab>
   1db16:	c3d8                	sw	a4,4(a5)
E:\02-项目\13-RISCV实验箱\模块驱动\19-LCD_ST7796U\AHL-CH32V307-LCD_ST7796U\Debug/srcc/flash.c:47

        FLASH->MODEKEYR = FLASH_KEY1;
   1db18:	d3d4                	sw	a3,36(a5)
E:\02-项目\13-RISCV实验箱\模块驱动\19-LCD_ST7796U\AHL-CH32V307-LCD_ST7796U\Debug/srcc/flash.c:48
        FLASH->MODEKEYR = FLASH_KEY2;
   1db1a:	d3d8                	sw	a4,36(a5)
E:\02-项目\13-RISCV实验箱\模块驱动\19-LCD_ST7796U\AHL-CH32V307-LCD_ST7796U\Debug/srcc/flash.c:52 (discriminator 1)

    }
    //等待之前最后一个flash操作完成
    while((FLASH->STATR & FLASH_STATR_BSY) != 0U);
   1db1c:	400227b7          	lui	a5,0x40022
   1db20:	47dc                	lw	a5,12(a5)
   1db22:	8b85                	andi	a5,a5,1
   1db24:	ffe5                	bnez	a5,1db1c <flash_init+0x2c>
E:\02-项目\13-RISCV实验箱\模块驱动\19-LCD_ST7796U\AHL-CH32V307-LCD_ST7796U\Debug/srcc/flash.c:55

    //清数据缓冲区
    FLASH->ACTLR &= ~FLASH_ACTLR_PRFTBE;
   1db26:	400227b7          	lui	a5,0x40022
   1db2a:	4398                	lw	a4,0(a5)
   1db2c:	9b3d                	andi	a4,a4,-17
   1db2e:	c398                	sw	a4,0(a5)
E:\02-项目\13-RISCV实验箱\模块驱动\19-LCD_ST7796U\AHL-CH32V307-LCD_ST7796U\Debug/srcc/flash.c:57
    //清flash快速编程位
    FLASH->CTLR &= ~FLASH_CTLR_PAGE_PG;
   1db30:	4b98                	lw	a4,16(a5)
   1db32:	cb98                	sw	a4,16(a5)
E:\02-项目\13-RISCV实验箱\模块驱动\19-LCD_ST7796U\AHL-CH32V307-LCD_ST7796U\Debug/srcc/flash.c:59

}
   1db34:	8082                	ret

0001db36 <flash_erase>:
flash_erase():
E:\02-项目\13-RISCV实验箱\模块驱动\19-LCD_ST7796U\AHL-CH32V307-LCD_ST7796U\Debug/srcc/flash.c:68
//函数返回：函数执行执行状态：0=正常；1=异常。
//参数说明：sect：目标扇区号（范围取决于实际芯片，例如 STM32L433:0~127,每扇区2KB;
//功能概要：擦除flash存储器的sect扇区
//======================================================================
uint8_t flash_erase(uint32_t sect)
{
   1db36:	1141                	addi	sp,sp,-16
   1db38:	c606                	sw	ra,12(sp)
   1db3a:	c422                	sw	s0,8(sp)
E:\02-项目\13-RISCV实验箱\模块驱动\19-LCD_ST7796U\AHL-CH32V307-LCD_ST7796U\Debug/srcc/flash.c:71
    uint32_t address;

    address = (uint32_t)(sect*FLASH_PAGE_SIZE + FLASH_ADDR_START);
   1db3c:	00080437          	lui	s0,0x80
   1db40:	942a                	add	s0,s0,a0
   1db42:	0422                	slli	s0,s0,0x8
E:\02-项目\13-RISCV实验箱\模块驱动\19-LCD_ST7796U\AHL-CH32V307-LCD_ST7796U\Debug/srcc/flash.c:72
    flash_init();
   1db44:	3775                	jal	1daf0 <flash_init>
E:\02-项目\13-RISCV实验箱\模块驱动\19-LCD_ST7796U\AHL-CH32V307-LCD_ST7796U\Debug/srcc/flash.c:74 (discriminator 1)
    //等待之前最后一个flash操作完成
    while((FLASH->STATR & STATR_BSY) != 0U);
   1db46:	400227b7          	lui	a5,0x40022
   1db4a:	47dc                	lw	a5,12(a5)
   1db4c:	8b85                	andi	a5,a5,1
   1db4e:	ffe5                	bnez	a5,1db46 <flash_erase+0x10>
E:\02-项目\13-RISCV实验箱\模块驱动\19-LCD_ST7796U\AHL-CH32V307-LCD_ST7796U\Debug/srcc/flash.c:76
    //清闪存即时编程位
    FLASH->CTLR &= ~FLASH_CTLR_PG_set;
   1db50:	400227b7          	lui	a5,0x40022
   1db54:	4b98                	lw	a4,16(a5)
   1db56:	9b79                	andi	a4,a4,-2
   1db58:	cb98                	sw	a4,16(a5)
E:\02-项目\13-RISCV实验箱\模块驱动\19-LCD_ST7796U\AHL-CH32V307-LCD_ST7796U\Debug/srcc/flash.c:78
    //使能扇区快速擦除
    FLASH->CTLR |= FLASH_CTLR_PAGE_SET;
   1db5a:	4b98                	lw	a4,16(a5)
   1db5c:	000206b7          	lui	a3,0x20
   1db60:	8f55                	or	a4,a4,a3
   1db62:	cb98                	sw	a4,16(a5)
E:\02-项目\13-RISCV实验箱\模块驱动\19-LCD_ST7796U\AHL-CH32V307-LCD_ST7796U\Debug/srcc/flash.c:80
    //设置擦除扇区
    FLASH->ADDR = address;
   1db64:	cbc0                	sw	s0,20(a5)
E:\02-项目\13-RISCV实验箱\模块驱动\19-LCD_ST7796U\AHL-CH32V307-LCD_ST7796U\Debug/srcc/flash.c:82
    //开始扇区擦除
    FLASH->CTLR |= FLASH_CTLR_START;
   1db66:	4b98                	lw	a4,16(a5)
   1db68:	04076713          	ori	a4,a4,64
   1db6c:	cb98                	sw	a4,16(a5)
E:\02-项目\13-RISCV实验箱\模块驱动\19-LCD_ST7796U\AHL-CH32V307-LCD_ST7796U\Debug/srcc/flash.c:84 (discriminator 1)
    //等待擦出完成
    while((FLASH->STATR & STATR_BSY) != 0U);
   1db6e:	400227b7          	lui	a5,0x40022
   1db72:	47dc                	lw	a5,12(a5)
   1db74:	8b85                	andi	a5,a5,1
   1db76:	ffe5                	bnez	a5,1db6e <flash_erase+0x38>
E:\02-项目\13-RISCV实验箱\模块驱动\19-LCD_ST7796U\AHL-CH32V307-LCD_ST7796U\Debug/srcc/flash.c:86
    //禁止扇区擦除
    FLASH->CTLR &= ~FLASH_CTLR_PAGE_SET;
   1db78:	400226b7          	lui	a3,0x40022
   1db7c:	4a9c                	lw	a5,16(a3)
   1db7e:	7701                	lui	a4,0xfffe0
   1db80:	177d                	addi	a4,a4,-1
   1db82:	8ff9                	and	a5,a5,a4
   1db84:	ca9c                	sw	a5,16(a3)
E:\02-项目\13-RISCV实验箱\模块驱动\19-LCD_ST7796U\AHL-CH32V307-LCD_ST7796U\Debug/srcc/flash.c:88
    return 0;  //成功返回
}
   1db86:	4501                	li	a0,0
   1db88:	40b2                	lw	ra,12(sp)
   1db8a:	4422                	lw	s0,8(sp)
   1db8c:	0141                	addi	sp,sp,16
   1db8e:	8082                	ret

0001db90 <flash_read_logic>:
flash_read_logic():
E:\02-项目\13-RISCV实验箱\模块驱动\19-LCD_ST7796U\AHL-CH32V307-LCD_ST7796U\Debug/srcc/flash.c:230
//       offset:扇区内部偏移地址（0~2024，要求为0,4,8,12，......）
//       N：读字节数目（4~2048,要求为4,8,12,......）//
//功能概要：读取flash存储器的sect扇区的 offset处开始的N字节，到RAM区dest处
//=======================================================================
void flash_read_logic(uint8_t *dest,uint16_t sect,uint16_t offset,uint16_t N)
{
   1db90:	1141                	addi	sp,sp,-16
   1db92:	c606                	sw	ra,12(sp)
E:\02-项目\13-RISCV实验箱\模块驱动\19-LCD_ST7796U\AHL-CH32V307-LCD_ST7796U\Debug/srcc/flash.c:232
    uint8_t *src;
    src = (uint8_t *)(FLASH_BASE + ((uint32_t)(sect*FLASH_PAGE_SIZE)) + offset);
   1db94:	000807b7          	lui	a5,0x80
   1db98:	95be                	add	a1,a1,a5
   1db9a:	05a2                	slli	a1,a1,0x8
   1db9c:	95b2                	add	a1,a1,a2
E:\02-项目\13-RISCV实验箱\模块驱动\19-LCD_ST7796U\AHL-CH32V307-LCD_ST7796U\Debug/srcc/flash.c:233
    memcpy(dest,src,N);
   1db9e:	8636                	mv	a2,a3
   1dba0:	3b7030ef          	jal	ra,21756 <memcpy>
E:\02-项目\13-RISCV实验箱\模块驱动\19-LCD_ST7796U\AHL-CH32V307-LCD_ST7796U\Debug/srcc/flash.c:234
}
   1dba4:	40b2                	lw	ra,12(sp)
   1dba6:	0141                	addi	sp,sp,16
   1dba8:	8082                	ret

0001dbaa <flash_read_physical>:
flash_read_physical():
E:\02-项目\13-RISCV实验箱\模块驱动\19-LCD_ST7796U\AHL-CH32V307-LCD_ST7796U\Debug/srcc/flash.c:266
//       addr：目标地址，要求为4的倍数（例如：0x00000004）
//       N：读字节数目（0~1020,要求为4，8,12,......）
//功能概要：读取flash指定地址的内容
//======================================================================
void flash_read_physical(uint8_t *dest,uint32_t addr,uint16_t N)
{
   1dbaa:	1141                	addi	sp,sp,-16
   1dbac:	c606                	sw	ra,12(sp)
E:\02-项目\13-RISCV实验箱\模块驱动\19-LCD_ST7796U\AHL-CH32V307-LCD_ST7796U\Debug/srcc/flash.c:270

    uint8_t *src;
    src=(uint8_t *)addr;
    memcpy(dest,src,N);
   1dbae:	3a9030ef          	jal	ra,21756 <memcpy>
E:\02-项目\13-RISCV实验箱\模块驱动\19-LCD_ST7796U\AHL-CH32V307-LCD_ST7796U\Debug/srcc/flash.c:271
}
   1dbb2:	40b2                	lw	ra,12(sp)
   1dbb4:	0141                	addi	sp,sp,16
   1dbb6:	8082                	ret

0001dbb8 <flash_isempty>:
flash_isempty():
E:\02-项目\13-RISCV实验箱\模块驱动\19-LCD_ST7796U\AHL-CH32V307-LCD_ST7796U\Debug/srcc/flash.c:366
{
    uint16_t i,flag;
    uint32_t* buff;

    flag = 1;
    for(i = 0; i<N; i++)   //遍历区域内字节
   1dbb8:	4701                	li	a4,0
E:\02-项目\13-RISCV实验箱\模块驱动\19-LCD_ST7796U\AHL-CH32V307-LCD_ST7796U\Debug/srcc/flash.c:366 (discriminator 1)
   1dbba:	02b77163          	bgeu	a4,a1,1dbdc <flash_isempty+0x24>
E:\02-项目\13-RISCV实验箱\模块驱动\19-LCD_ST7796U\AHL-CH32V307-LCD_ST7796U\Debug/srcc/flash.c:368
    {
        buff=(uint32_t*)(sect*FLASH_PAGE_SIZE + FLASH_ADDR_START );
   1dbbe:	000807b7          	lui	a5,0x80
   1dbc2:	97aa                	add	a5,a5,a0
   1dbc4:	07a2                	slli	a5,a5,0x8
E:\02-项目\13-RISCV实验箱\模块驱动\19-LCD_ST7796U\AHL-CH32V307-LCD_ST7796U\Debug/srcc/flash.c:370

        if(buff[i]!=0xFFFFFFFF)   //非空
   1dbc6:	00271693          	slli	a3,a4,0x2
   1dbca:	97b6                	add	a5,a5,a3
   1dbcc:	4394                	lw	a3,0(a5)
   1dbce:	57fd                	li	a5,-1
   1dbd0:	00f69863          	bne	a3,a5,1dbe0 <flash_isempty+0x28>
E:\02-项目\13-RISCV实验箱\模块驱动\19-LCD_ST7796U\AHL-CH32V307-LCD_ST7796U\Debug/srcc/flash.c:366 (discriminator 2)
    for(i = 0; i<N; i++)   //遍历区域内字节
   1dbd4:	0705                	addi	a4,a4,1
   1dbd6:	0742                	slli	a4,a4,0x10
   1dbd8:	8341                	srli	a4,a4,0x10
   1dbda:	b7c5                	j	1dbba <flash_isempty+0x2>
E:\02-项目\13-RISCV实验箱\模块驱动\19-LCD_ST7796U\AHL-CH32V307-LCD_ST7796U\Debug/srcc/flash.c:376
        {
            return flag=0;
            break;
        }
    }
    return flag;
   1dbdc:	4505                	li	a0,1
   1dbde:	8082                	ret
E:\02-项目\13-RISCV实验箱\模块驱动\19-LCD_ST7796U\AHL-CH32V307-LCD_ST7796U\Debug/srcc/flash.c:372
            return flag=0;
   1dbe0:	4501                	li	a0,0
E:\02-项目\13-RISCV实验箱\模块驱动\19-LCD_ST7796U\AHL-CH32V307-LCD_ST7796U\Debug/srcc/flash.c:377
}
   1dbe2:	8082                	ret

0001dbe4 <flash_Best>:
flash_Best():
E:\02-项目\13-RISCV实验箱\模块驱动\19-LCD_ST7796U\AHL-CH32V307-LCD_ST7796U\Debug/srcc/flash.c:489
uint8_t flash_Best(uint16_t sect,uint16_t offset,uint16_t N,uint8_t *buf)
{
    uint32_t temp;
    uint32_t addr;
    uint16_t i;
    addr = (uint32_t)(sect * FLASH_PAGE_SIZE + FLASH_ADDR_START + offset);
   1dbe4:	000807b7          	lui	a5,0x80
   1dbe8:	97aa                	add	a5,a5,a0
   1dbea:	07a2                	slli	a5,a5,0x8
   1dbec:	95be                	add	a1,a1,a5
E:\02-项目\13-RISCV实验箱\模块驱动\19-LCD_ST7796U\AHL-CH32V307-LCD_ST7796U\Debug/srcc/flash.c:491

    FLASH->CTLR |= FLASH_CTLR_FTPG_PG;
   1dbee:	40022737          	lui	a4,0x40022
   1dbf2:	4b1c                	lw	a5,16(a4)
   1dbf4:	6541                	lui	a0,0x10
   1dbf6:	8fc9                	or	a5,a5,a0
   1dbf8:	cb1c                	sw	a5,16(a4)
E:\02-项目\13-RISCV实验箱\模块驱动\19-LCD_ST7796U\AHL-CH32V307-LCD_ST7796U\Debug/srcc/flash.c:492 (discriminator 1)
    while(FLASH->STATR & STATR_BSY);
   1dbfa:	400227b7          	lui	a5,0x40022
   1dbfe:	47dc                	lw	a5,12(a5)
   1dc00:	8b85                	andi	a5,a5,1
   1dc02:	ffe5                	bnez	a5,1dbfa <flash_Best+0x16>
E:\02-项目\13-RISCV实验箱\模块驱动\19-LCD_ST7796U\AHL-CH32V307-LCD_ST7796U\Debug/srcc/flash.c:493 (discriminator 1)
    while(FLASH->STATR & STATR_SW_BSY);
   1dc04:	400227b7          	lui	a5,0x40022
   1dc08:	47dc                	lw	a5,12(a5)
   1dc0a:	8b89                	andi	a5,a5,2
   1dc0c:	ffe5                	bnez	a5,1dc04 <flash_Best+0x20>
E:\02-项目\13-RISCV实验箱\模块驱动\19-LCD_ST7796U\AHL-CH32V307-LCD_ST7796U\Debug/srcc/flash.c:495

    for(i = 0; i < N; i+=4)
   1dc0e:	4701                	li	a4,0
   1dc10:	a021                	j	1dc18 <flash_Best+0x34>
E:\02-项目\13-RISCV实验箱\模块驱动\19-LCD_ST7796U\AHL-CH32V307-LCD_ST7796U\Debug/srcc/flash.c:495 (discriminator 2)
   1dc12:	0711                	addi	a4,a4,4
   1dc14:	0742                	slli	a4,a4,0x10
   1dc16:	8341                	srli	a4,a4,0x10
E:\02-项目\13-RISCV实验箱\模块驱动\19-LCD_ST7796U\AHL-CH32V307-LCD_ST7796U\Debug/srcc/flash.c:495 (discriminator 1)
   1dc18:	02c77c63          	bgeu	a4,a2,1dc50 <flash_Best+0x6c>
E:\02-项目\13-RISCV实验箱\模块驱动\19-LCD_ST7796U\AHL-CH32V307-LCD_ST7796U\Debug/srcc/flash.c:498
    {
      //低位字赋值
      temp = (uint32_t)((buf[i])|(buf[i+1]<<8)|(buf[i+2]<<16)|(buf[i+3]<<24));
   1dc1c:	00e68533          	add	a0,a3,a4
   1dc20:	00054783          	lbu	a5,0(a0) # 10000 <__stack_size+0xf800>
   1dc24:	00154803          	lbu	a6,1(a0)
   1dc28:	0822                	slli	a6,a6,0x8
   1dc2a:	0107e7b3          	or	a5,a5,a6
   1dc2e:	00254803          	lbu	a6,2(a0)
   1dc32:	0842                	slli	a6,a6,0x10
   1dc34:	0107e7b3          	or	a5,a5,a6
   1dc38:	00354503          	lbu	a0,3(a0)
   1dc3c:	0562                	slli	a0,a0,0x18
   1dc3e:	8fc9                	or	a5,a5,a0
E:\02-项目\13-RISCV实验箱\模块驱动\19-LCD_ST7796U\AHL-CH32V307-LCD_ST7796U\Debug/srcc/flash.c:500
      //在绝对地址(addr+i)，实现双字写入
      *(vuint32_t*)addr = temp;
   1dc40:	c19c                	sw	a5,0(a1)
E:\02-项目\13-RISCV实验箱\模块驱动\19-LCD_ST7796U\AHL-CH32V307-LCD_ST7796U\Debug/srcc/flash.c:501
      addr += 4;
   1dc42:	0591                	addi	a1,a1,4
E:\02-项目\13-RISCV实验箱\模块驱动\19-LCD_ST7796U\AHL-CH32V307-LCD_ST7796U\Debug/srcc/flash.c:502 (discriminator 1)
      while (FLASH->STATR & STATR_SW_BSY);
   1dc44:	400227b7          	lui	a5,0x40022
   1dc48:	47dc                	lw	a5,12(a5)
   1dc4a:	8b89                	andi	a5,a5,2
   1dc4c:	ffe5                	bnez	a5,1dc44 <flash_Best+0x60>
   1dc4e:	b7d1                	j	1dc12 <flash_Best+0x2e>
E:\02-项目\13-RISCV实验箱\模块驱动\19-LCD_ST7796U\AHL-CH32V307-LCD_ST7796U\Debug/srcc/flash.c:505
    }

    FLASH->CTLR |= FLASH_CTLR_PG_STRT;
   1dc50:	40022737          	lui	a4,0x40022
   1dc54:	4b1c                	lw	a5,16(a4)
   1dc56:	002006b7          	lui	a3,0x200
   1dc5a:	8fd5                	or	a5,a5,a3
   1dc5c:	cb1c                	sw	a5,16(a4)
E:\02-项目\13-RISCV实验箱\模块驱动\19-LCD_ST7796U\AHL-CH32V307-LCD_ST7796U\Debug/srcc/flash.c:506 (discriminator 1)
    while(FLASH->STATR & STATR_BSY);
   1dc5e:	400227b7          	lui	a5,0x40022
   1dc62:	47dc                	lw	a5,12(a5)
   1dc64:	8b85                	andi	a5,a5,1
   1dc66:	ffe5                	bnez	a5,1dc5e <flash_Best+0x7a>
E:\02-项目\13-RISCV实验箱\模块驱动\19-LCD_ST7796U\AHL-CH32V307-LCD_ST7796U\Debug/srcc/flash.c:507
    FLASH->CTLR &= ~FLASH_CTLR_FTPG_PG;
   1dc68:	400226b7          	lui	a3,0x40022
   1dc6c:	4a9c                	lw	a5,16(a3)
   1dc6e:	7741                	lui	a4,0xffff0
   1dc70:	177d                	addi	a4,a4,-1
   1dc72:	8ff9                	and	a5,a5,a4
   1dc74:	ca9c                	sw	a5,16(a3)
E:\02-项目\13-RISCV实验箱\模块驱动\19-LCD_ST7796U\AHL-CH32V307-LCD_ST7796U\Debug/srcc/flash.c:510

    return 0;
}
   1dc76:	4501                	li	a0,0
   1dc78:	8082                	ret

0001dc7a <flash_write>:
flash_write():
E:\02-项目\13-RISCV实验箱\模块驱动\19-LCD_ST7796U\AHL-CH32V307-LCD_ST7796U\Debug/srcc/flash.c:128
{
   1dc7a:	712d                	addi	sp,sp,-288
   1dc7c:	10112e23          	sw	ra,284(sp)
   1dc80:	10812c23          	sw	s0,280(sp)
   1dc84:	10912a23          	sw	s1,276(sp)
   1dc88:	11212823          	sw	s2,272(sp)
   1dc8c:	11312623          	sw	s3,268(sp)
   1dc90:	11412423          	sw	s4,264(sp)
   1dc94:	8a2a                	mv	s4,a0
   1dc96:	89ae                	mv	s3,a1
   1dc98:	8432                	mv	s0,a2
   1dc9a:	84b6                	mv	s1,a3
E:\02-项目\13-RISCV实验箱\模块驱动\19-LCD_ST7796U\AHL-CH32V307-LCD_ST7796U\Debug/srcc/flash.c:133
    if(offset+N>MCU_SECTORSIZE)
   1dc9c:	00b60733          	add	a4,a2,a1
   1dca0:	10000793          	li	a5,256
   1dca4:	04e7c463          	blt	a5,a4,1dcec <flash_write+0x72>
   1dca8:	892e                	mv	s2,a1
E:\02-项目\13-RISCV实验箱\模块驱动\19-LCD_ST7796U\AHL-CH32V307-LCD_ST7796U\Debug/srcc/flash.c:144
        if(offset%4==0&&N%4==0)
   1dcaa:	0035f793          	andi	a5,a1,3
   1dcae:	e781                	bnez	a5,1dcb6 <flash_write+0x3c>
E:\02-项目\13-RISCV实验箱\模块驱动\19-LCD_ST7796U\AHL-CH32V307-LCD_ST7796U\Debug/srcc/flash.c:144 (discriminator 1)
   1dcb0:	00367793          	andi	a5,a2,3
   1dcb4:	c7b5                	beqz	a5,1dd20 <flash_write+0xa6>
E:\02-项目\13-RISCV实验箱\模块驱动\19-LCD_ST7796U\AHL-CH32V307-LCD_ST7796U\Debug/srcc/flash.c:152
            flash_read_logic(data,sect,0,MCU_SECTORSIZE); //将当前扇区的全部值读入数组中
   1dcb6:	10000693          	li	a3,256
   1dcba:	4601                	li	a2,0
   1dcbc:	85d2                	mv	a1,s4
   1dcbe:	850a                	mv	a0,sp
   1dcc0:	ed1ff0ef          	jal	ra,1db90 <flash_read_logic>
E:\02-项目\13-RISCV实验箱\模块驱动\19-LCD_ST7796U\AHL-CH32V307-LCD_ST7796U\Debug/srcc/flash.c:154
            for(i = 0;i<N;i++)
   1dcc4:	4781                	li	a5,0
E:\02-项目\13-RISCV实验箱\模块驱动\19-LCD_ST7796U\AHL-CH32V307-LCD_ST7796U\Debug/srcc/flash.c:154 (discriminator 1)
   1dcc6:	01079713          	slli	a4,a5,0x10
   1dcca:	8341                	srli	a4,a4,0x10
   1dccc:	04877d63          	bgeu	a4,s0,1dd26 <flash_write+0xac>
E:\02-项目\13-RISCV实验箱\模块驱动\19-LCD_ST7796U\AHL-CH32V307-LCD_ST7796U\Debug/srcc/flash.c:156 (discriminator 3)
                data[offset+i] = buf[i];
   1dcd0:	01278733          	add	a4,a5,s2
   1dcd4:	00f486b3          	add	a3,s1,a5
   1dcd8:	0006c683          	lbu	a3,0(a3) # 40022000 <GEC_USER_RAM_END+0x20002000>
   1dcdc:	0210                	addi	a2,sp,256
   1dcde:	9732                	add	a4,a4,a2
   1dce0:	f0d70023          	sb	a3,-256(a4) # fffeff00 <GEC_USER_RAM_END+0xdffcff00>
E:\02-项目\13-RISCV实验箱\模块驱动\19-LCD_ST7796U\AHL-CH32V307-LCD_ST7796U\Debug/srcc/flash.c:154 (discriminator 3)
            for(i = 0;i<N;i++)
   1dce4:	0785                	addi	a5,a5,1
   1dce6:	0ff7f793          	andi	a5,a5,255
   1dcea:	bff1                	j	1dcc6 <flash_write+0x4c>
E:\02-项目\13-RISCV实验箱\模块驱动\19-LCD_ST7796U\AHL-CH32V307-LCD_ST7796U\Debug/srcc/flash.c:136
        flash_write(sect,offset,MCU_SECTORSIZE-offset,buf);
   1dcec:	10000613          	li	a2,256
   1dcf0:	8e0d                	sub	a2,a2,a1
   1dcf2:	0642                	slli	a2,a2,0x10
   1dcf4:	8241                	srli	a2,a2,0x10
   1dcf6:	3751                	jal	1dc7a <flash_write>
E:\02-项目\13-RISCV实验箱\模块驱动\19-LCD_ST7796U\AHL-CH32V307-LCD_ST7796U\Debug/srcc/flash.c:138
        flash_write(sect+1,0,N-(MCU_SECTORSIZE-offset),buf+(MCU_SECTORSIZE-offset));
   1dcf8:	00898633          	add	a2,s3,s0
   1dcfc:	0642                	slli	a2,a2,0x10
   1dcfe:	8241                	srli	a2,a2,0x10
   1dd00:	10000693          	li	a3,256
   1dd04:	413686b3          	sub	a3,a3,s3
   1dd08:	f0060613          	addi	a2,a2,-256
   1dd0c:	001a0513          	addi	a0,s4,1
   1dd10:	96a6                	add	a3,a3,s1
   1dd12:	0642                	slli	a2,a2,0x10
   1dd14:	8241                	srli	a2,a2,0x10
   1dd16:	4581                	li	a1,0
   1dd18:	0542                	slli	a0,a0,0x10
   1dd1a:	8141                	srli	a0,a0,0x10
   1dd1c:	3fb9                	jal	1dc7a <flash_write>
   1dd1e:	a831                	j	1dd3a <flash_write+0xc0>
E:\02-项目\13-RISCV实验箱\模块驱动\19-LCD_ST7796U\AHL-CH32V307-LCD_ST7796U\Debug/srcc/flash.c:146
            flash_Best(sect,offset,N,buf);
   1dd20:	ec5ff0ef          	jal	ra,1dbe4 <flash_Best>
   1dd24:	a819                	j	1dd3a <flash_write+0xc0>
E:\02-项目\13-RISCV实验箱\模块驱动\19-LCD_ST7796U\AHL-CH32V307-LCD_ST7796U\Debug/srcc/flash.c:159
            flash_erase(sect);
   1dd26:	8552                	mv	a0,s4
   1dd28:	e0fff0ef          	jal	ra,1db36 <flash_erase>
E:\02-项目\13-RISCV实验箱\模块驱动\19-LCD_ST7796U\AHL-CH32V307-LCD_ST7796U\Debug/srcc/flash.c:161
            flash_Best(sect,0,MCU_SECTORSIZE,data);
   1dd2c:	868a                	mv	a3,sp
   1dd2e:	10000613          	li	a2,256
   1dd32:	4581                	li	a1,0
   1dd34:	8552                	mv	a0,s4
   1dd36:	eafff0ef          	jal	ra,1dbe4 <flash_Best>
E:\02-项目\13-RISCV实验箱\模块驱动\19-LCD_ST7796U\AHL-CH32V307-LCD_ST7796U\Debug/srcc/flash.c:165
}
   1dd3a:	4501                	li	a0,0
   1dd3c:	11c12083          	lw	ra,284(sp)
   1dd40:	11812403          	lw	s0,280(sp)
   1dd44:	11412483          	lw	s1,276(sp)
   1dd48:	11012903          	lw	s2,272(sp)
   1dd4c:	10c12983          	lw	s3,268(sp)
   1dd50:	10812a03          	lw	s4,264(sp)
   1dd54:	6115                	addi	sp,sp,288
   1dd56:	8082                	ret

0001dd58 <flash_write_physical>:
flash_write_physical():
E:\02-项目\13-RISCV实验箱\模块驱动\19-LCD_ST7796U\AHL-CH32V307-LCD_ST7796U\Debug/srcc/flash.c:205
{
   1dd58:	1141                	addi	sp,sp,-16
   1dd5a:	c606                	sw	ra,12(sp)
E:\02-项目\13-RISCV实验箱\模块驱动\19-LCD_ST7796U\AHL-CH32V307-LCD_ST7796U\Debug/srcc/flash.c:211
    sect = (addr-MCU_FLASH_ADDR_START)/MCU_SECTORSIZE;
   1dd5c:	f80007b7          	lui	a5,0xf8000
   1dd60:	97aa                	add	a5,a5,a0
   1dd62:	83a1                	srli	a5,a5,0x8
   1dd64:	07c2                	slli	a5,a5,0x10
   1dd66:	83c1                	srli	a5,a5,0x10
E:\02-项目\13-RISCV实验箱\模块驱动\19-LCD_ST7796U\AHL-CH32V307-LCD_ST7796U\Debug/srcc/flash.c:212
    offset = addr-(sect*MCU_SECTORSIZE)-MCU_FLASH_ADDR_START;
   1dd68:	0542                	slli	a0,a0,0x10
   1dd6a:	8141                	srli	a0,a0,0x10
   1dd6c:	00879713          	slli	a4,a5,0x8
   1dd70:	0742                	slli	a4,a4,0x10
   1dd72:	8341                	srli	a4,a4,0x10
   1dd74:	8d19                	sub	a0,a0,a4
E:\02-项目\13-RISCV实验箱\模块驱动\19-LCD_ST7796U\AHL-CH32V307-LCD_ST7796U\Debug/srcc/flash.c:214
    flash_write(sect,offset,N,buf);
   1dd76:	86b2                	mv	a3,a2
   1dd78:	862e                	mv	a2,a1
   1dd7a:	01051593          	slli	a1,a0,0x10
   1dd7e:	81c1                	srli	a1,a1,0x10
   1dd80:	853e                	mv	a0,a5
   1dd82:	ef9ff0ef          	jal	ra,1dc7a <flash_write>
E:\02-项目\13-RISCV实验箱\模块驱动\19-LCD_ST7796U\AHL-CH32V307-LCD_ST7796U\Debug/srcc/flash.c:216 (discriminator 1)
    while( (FLASH->STATR & STATR_BSY) != 0U);
   1dd86:	400227b7          	lui	a5,0x40022
   1dd8a:	47dc                	lw	a5,12(a5)
   1dd8c:	8b85                	andi	a5,a5,1
   1dd8e:	ffe5                	bnez	a5,1dd86 <flash_write_physical+0x2e>
E:\02-项目\13-RISCV实验箱\模块驱动\19-LCD_ST7796U\AHL-CH32V307-LCD_ST7796U\Debug/srcc/flash.c:218
}
   1dd90:	4501                	li	a0,0
   1dd92:	40b2                	lw	ra,12(sp)
   1dd94:	0141                	addi	sp,sp,16
   1dd96:	8082                	ret

0001dd98 <gpio_get_port_pin>:
gpio_get_port_pin():
E:\02-项目\13-RISCV实验箱\模块驱动\19-LCD_ST7796U\AHL-CH32V307-LCD_ST7796U\Debug/srcc/gpio.c:546
//功能概要：将传进参数port_pin进行解析，得出具体端口号与引脚号，分别赋值给port与pin,返回。
//       （例：(PTB_NUM)|(9)解析为PORTB与9，并将其分别赋值给port与pin）。
//=====================================================================
void gpio_get_port_pin(uint16_t port_pin,uint8_t* port,uint8_t* pin)
{
    *port = (port_pin>>8);
   1dd98:	00855793          	srli	a5,a0,0x8
   1dd9c:	00f58023          	sb	a5,0(a1)
E:\02-项目\13-RISCV实验箱\模块驱动\19-LCD_ST7796U\AHL-CH32V307-LCD_ST7796U\Debug/srcc/gpio.c:547
    *pin = port_pin;
   1dda0:	00a60023          	sb	a0,0(a2)
E:\02-项目\13-RISCV实验箱\模块驱动\19-LCD_ST7796U\AHL-CH32V307-LCD_ST7796U\Debug/srcc/gpio.c:548
}
   1dda4:	8082                	ret

0001dda6 <gpio_set>:
gpio_set():
E:\02-项目\13-RISCV实验箱\模块驱动\19-LCD_ST7796U\AHL-CH32V307-LCD_ST7796U\Debug/srcc/gpio.c:151
{
   1dda6:	1101                	addi	sp,sp,-32
   1dda8:	ce06                	sw	ra,28(sp)
   1ddaa:	cc22                	sw	s0,24(sp)
   1ddac:	842e                	mv	s0,a1
E:\02-项目\13-RISCV实验箱\模块驱动\19-LCD_ST7796U\AHL-CH32V307-LCD_ST7796U\Debug/srcc/gpio.c:156
    gpio_get_port_pin(port_pin,&port,&pin);
   1ddae:	00e10613          	addi	a2,sp,14
   1ddb2:	00f10593          	addi	a1,sp,15
   1ddb6:	37cd                	jal	1dd98 <gpio_get_port_pin>
E:\02-项目\13-RISCV实验箱\模块驱动\19-LCD_ST7796U\AHL-CH32V307-LCD_ST7796U\Debug/srcc/gpio.c:159
    gpio_ptr = GPIO_ARR[port];
   1ddb8:	00f14783          	lbu	a5,15(sp)
   1ddbc:	00279713          	slli	a4,a5,0x2
   1ddc0:	200057b7          	lui	a5,0x20005
   1ddc4:	00078793          	mv	a5,a5
   1ddc8:	97ba                	add	a5,a5,a4
   1ddca:	4398                	lw	a4,0(a5)
E:\02-项目\13-RISCV实验箱\模块驱动\19-LCD_ST7796U\AHL-CH32V307-LCD_ST7796U\Debug/srcc/gpio.c:162
    if(1==state)
   1ddcc:	4785                	li	a5,1
   1ddce:	00f40e63          	beq	s0,a5,1ddea <gpio_set+0x44>
E:\02-项目\13-RISCV实验箱\模块驱动\19-LCD_ST7796U\AHL-CH32V307-LCD_ST7796U\Debug/srcc/gpio.c:168
        gpio_ptr->BCR = (uint16_t)(1u << pin);
   1ddd2:	00e14683          	lbu	a3,14(sp)
   1ddd6:	4785                	li	a5,1
   1ddd8:	00d797b3          	sll	a5,a5,a3
   1dddc:	07c2                	slli	a5,a5,0x10
   1ddde:	83c1                	srli	a5,a5,0x10
   1dde0:	cb5c                	sw	a5,20(a4)
E:\02-项目\13-RISCV实验箱\模块驱动\19-LCD_ST7796U\AHL-CH32V307-LCD_ST7796U\Debug/srcc/gpio.c:171
}
   1dde2:	40f2                	lw	ra,28(sp)
   1dde4:	4462                	lw	s0,24(sp)
   1dde6:	6105                	addi	sp,sp,32
   1dde8:	8082                	ret
E:\02-项目\13-RISCV实验箱\模块驱动\19-LCD_ST7796U\AHL-CH32V307-LCD_ST7796U\Debug/srcc/gpio.c:164
        gpio_ptr->BSHR = (uint16_t)(1u << pin);
   1ddea:	00e14683          	lbu	a3,14(sp)
   1ddee:	00d797b3          	sll	a5,a5,a3
   1ddf2:	07c2                	slli	a5,a5,0x10
   1ddf4:	83c1                	srli	a5,a5,0x10
   1ddf6:	cb1c                	sw	a5,16(a4)
   1ddf8:	b7ed                	j	1dde2 <gpio_set+0x3c>

0001ddfa <gpio_init>:
gpio_init():
E:\02-项目\13-RISCV实验箱\模块驱动\19-LCD_ST7796U\AHL-CH32V307-LCD_ST7796U\Debug/srcc/gpio.c:35
{
   1ddfa:	7179                	addi	sp,sp,-48
   1ddfc:	d606                	sw	ra,44(sp)
   1ddfe:	d422                	sw	s0,40(sp)
   1de00:	d226                	sw	s1,36(sp)
   1de02:	d04a                	sw	s2,32(sp)
   1de04:	ce4e                	sw	s3,28(sp)
   1de06:	842a                	mv	s0,a0
   1de08:	89ae                	mv	s3,a1
   1de0a:	84b2                	mv	s1,a2
E:\02-项目\13-RISCV实验箱\模块驱动\19-LCD_ST7796U\AHL-CH32V307-LCD_ST7796U\Debug/srcc/gpio.c:41
    gpio_get_port_pin(port_pin,&port,&pin);
   1de0c:	00e10613          	addi	a2,sp,14
   1de10:	00f10593          	addi	a1,sp,15
   1de14:	3751                	jal	1dd98 <gpio_get_port_pin>
E:\02-项目\13-RISCV实验箱\模块驱动\19-LCD_ST7796U\AHL-CH32V307-LCD_ST7796U\Debug/srcc/gpio.c:43
    gpio_ptr = GPIO_ARR[port];
   1de16:	00f14603          	lbu	a2,15(sp)
   1de1a:	00261713          	slli	a4,a2,0x2
   1de1e:	200057b7          	lui	a5,0x20005
   1de22:	00078793          	mv	a5,a5
   1de26:	97ba                	add	a5,a5,a4
   1de28:	0007a903          	lw	s2,0(a5) # 20005000 <GEC_USER_RAM_START>
E:\02-项目\13-RISCV实验箱\模块驱动\19-LCD_ST7796U\AHL-CH32V307-LCD_ST7796U\Debug/srcc/gpio.c:46
    RCC->APB2PCENR |= (RCC_IOPAEN << (port * 1u));
   1de2c:	400216b7          	lui	a3,0x40021
   1de30:	4e9c                	lw	a5,24(a3)
   1de32:	4711                	li	a4,4
   1de34:	00c71733          	sll	a4,a4,a2
   1de38:	8fd9                	or	a5,a5,a4
   1de3a:	ce9c                	sw	a5,24(a3)
E:\02-项目\13-RISCV实验箱\模块驱动\19-LCD_ST7796U\AHL-CH32V307-LCD_ST7796U\Debug/srcc/gpio.c:48
    if(pin <= 0x07)
   1de3c:	00e14783          	lbu	a5,14(sp)
   1de40:	471d                	li	a4,7
   1de42:	02f76a63          	bltu	a4,a5,1de76 <gpio_init+0x7c>
E:\02-项目\13-RISCV实验箱\模块驱动\19-LCD_ST7796U\AHL-CH32V307-LCD_ST7796U\Debug/srcc/gpio.c:50
        temp = gpio_ptr->CFGLR;
   1de46:	00092683          	lw	a3,0(s2)
E:\02-项目\13-RISCV实验箱\模块驱动\19-LCD_ST7796U\AHL-CH32V307-LCD_ST7796U\Debug/srcc/gpio.c:51
        temp &= ~(GPIO_CFGLR_CNF0 << (pin * 4u));
   1de4a:	078a                	slli	a5,a5,0x2
   1de4c:	4731                	li	a4,12
   1de4e:	00f71733          	sll	a4,a4,a5
   1de52:	fff74713          	not	a4,a4
   1de56:	8f75                	and	a4,a4,a3
E:\02-项目\13-RISCV实验箱\模块驱动\19-LCD_ST7796U\AHL-CH32V307-LCD_ST7796U\Debug/srcc/gpio.c:53
        if(dir == 1)   // 定义为输出引脚
   1de58:	4685                	li	a3,1
   1de5a:	06d98563          	beq	s3,a3,1dec4 <gpio_init+0xca>
E:\02-项目\13-RISCV实验箱\模块驱动\19-LCD_ST7796U\AHL-CH32V307-LCD_ST7796U\Debug/srcc/gpio.c:63
            temp &= ~(GPIO_CFGLR_MODE0 << (pin * 4u));
   1de5e:	468d                	li	a3,3
   1de60:	00f696b3          	sll	a3,a3,a5
   1de64:	fff6c693          	not	a3,a3
   1de68:	8f75                	and	a4,a4,a3
E:\02-项目\13-RISCV实验箱\模块驱动\19-LCD_ST7796U\AHL-CH32V307-LCD_ST7796U\Debug/srcc/gpio.c:64
            temp |= (GPIO_INPUT << (pin * 4u));
   1de6a:	4691                	li	a3,4
   1de6c:	00f697b3          	sll	a5,a3,a5
   1de70:	8f5d                	or	a4,a4,a5
E:\02-项目\13-RISCV实验箱\模块驱动\19-LCD_ST7796U\AHL-CH32V307-LCD_ST7796U\Debug/srcc/gpio.c:65
            gpio_ptr->CFGLR = temp;
   1de72:	00e92023          	sw	a4,0(s2)
E:\02-项目\13-RISCV实验箱\模块驱动\19-LCD_ST7796U\AHL-CH32V307-LCD_ST7796U\Debug/srcc/gpio.c:68
    if(pin > 0x07)
   1de76:	00e14783          	lbu	a5,14(sp)
   1de7a:	471d                	li	a4,7
   1de7c:	02f77d63          	bgeu	a4,a5,1deb6 <gpio_init+0xbc>
E:\02-项目\13-RISCV实验箱\模块驱动\19-LCD_ST7796U\AHL-CH32V307-LCD_ST7796U\Debug/srcc/gpio.c:71
        temp = gpio_ptr->CFGHR;
   1de80:	00492683          	lw	a3,4(s2)
E:\02-项目\13-RISCV实验箱\模块驱动\19-LCD_ST7796U\AHL-CH32V307-LCD_ST7796U\Debug/srcc/gpio.c:72
        temp &= ~(GPIO_CFGHR_CNF8 << (pin * 4u));
   1de84:	00279613          	slli	a2,a5,0x2
   1de88:	4731                	li	a4,12
   1de8a:	00c71733          	sll	a4,a4,a2
   1de8e:	fff74713          	not	a4,a4
   1de92:	8f75                	and	a4,a4,a3
E:\02-项目\13-RISCV实验箱\模块驱动\19-LCD_ST7796U\AHL-CH32V307-LCD_ST7796U\Debug/srcc/gpio.c:74
        if(dir == 1)   // 定义为输出引脚
   1de94:	4685                	li	a3,1
   1de96:	04d98863          	beq	s3,a3,1dee6 <gpio_init+0xec>
E:\02-项目\13-RISCV实验箱\模块驱动\19-LCD_ST7796U\AHL-CH32V307-LCD_ST7796U\Debug/srcc/gpio.c:84
            temp &= ~(GPIO_CFGLR_MODE0 << ((pin-8) * 4u));
   1de9a:	17e1                	addi	a5,a5,-8
   1de9c:	078a                	slli	a5,a5,0x2
   1de9e:	468d                	li	a3,3
   1dea0:	00f696b3          	sll	a3,a3,a5
   1dea4:	fff6c693          	not	a3,a3
   1dea8:	8f75                	and	a4,a4,a3
E:\02-项目\13-RISCV实验箱\模块驱动\19-LCD_ST7796U\AHL-CH32V307-LCD_ST7796U\Debug/srcc/gpio.c:85
            temp |= (GPIO_INPUT << ((pin-8) * 4u));
   1deaa:	4691                	li	a3,4
   1deac:	00f697b3          	sll	a5,a3,a5
   1deb0:	8f5d                	or	a4,a4,a5
E:\02-项目\13-RISCV实验箱\模块驱动\19-LCD_ST7796U\AHL-CH32V307-LCD_ST7796U\Debug/srcc/gpio.c:86
            gpio_ptr->CFGHR = temp;
   1deb2:	00e92223          	sw	a4,4(s2)
E:\02-项目\13-RISCV实验箱\模块驱动\19-LCD_ST7796U\AHL-CH32V307-LCD_ST7796U\Debug/srcc/gpio.c:90
}
   1deb6:	50b2                	lw	ra,44(sp)
   1deb8:	5422                	lw	s0,40(sp)
   1deba:	5492                	lw	s1,36(sp)
   1debc:	5902                	lw	s2,32(sp)
   1debe:	49f2                	lw	s3,28(sp)
   1dec0:	6145                	addi	sp,sp,48
   1dec2:	8082                	ret
E:\02-项目\13-RISCV实验箱\模块驱动\19-LCD_ST7796U\AHL-CH32V307-LCD_ST7796U\Debug/srcc/gpio.c:55
            temp &= ~(GPIO_CFGLR_MODE0 << (pin * 4u));
   1dec4:	468d                	li	a3,3
   1dec6:	00f696b3          	sll	a3,a3,a5
   1deca:	fff6c693          	not	a3,a3
   1dece:	8f75                	and	a4,a4,a3
E:\02-项目\13-RISCV实验箱\模块驱动\19-LCD_ST7796U\AHL-CH32V307-LCD_ST7796U\Debug/srcc/gpio.c:57
            temp |= (GPIO_OUTPUT << (pin * 4u));
   1ded0:	4685                	li	a3,1
   1ded2:	00f697b3          	sll	a5,a3,a5
   1ded6:	8f5d                	or	a4,a4,a5
E:\02-项目\13-RISCV实验箱\模块驱动\19-LCD_ST7796U\AHL-CH32V307-LCD_ST7796U\Debug/srcc/gpio.c:58
            gpio_ptr->CFGLR = temp;
   1ded8:	00e92023          	sw	a4,0(s2)
E:\02-项目\13-RISCV实验箱\模块驱动\19-LCD_ST7796U\AHL-CH32V307-LCD_ST7796U\Debug/srcc/gpio.c:59
            gpio_set(port_pin,state);
   1dedc:	85a6                	mv	a1,s1
   1dede:	8522                	mv	a0,s0
   1dee0:	ec7ff0ef          	jal	ra,1dda6 <gpio_set>
   1dee4:	bf49                	j	1de76 <gpio_init+0x7c>
E:\02-项目\13-RISCV实验箱\模块驱动\19-LCD_ST7796U\AHL-CH32V307-LCD_ST7796U\Debug/srcc/gpio.c:76
            temp &= ~(GPIO_CFGLR_MODE0 << ((pin-8) * 4u));
   1dee6:	17e1                	addi	a5,a5,-8
   1dee8:	078a                	slli	a5,a5,0x2
   1deea:	468d                	li	a3,3
   1deec:	00f696b3          	sll	a3,a3,a5
   1def0:	fff6c693          	not	a3,a3
   1def4:	8f75                	and	a4,a4,a3
E:\02-项目\13-RISCV实验箱\模块驱动\19-LCD_ST7796U\AHL-CH32V307-LCD_ST7796U\Debug/srcc/gpio.c:78
            temp |= (GPIO_OUTPUT << ((pin-8) * 4u));
   1def6:	4685                	li	a3,1
   1def8:	00f697b3          	sll	a5,a3,a5
   1defc:	8f5d                	or	a4,a4,a5
E:\02-项目\13-RISCV实验箱\模块驱动\19-LCD_ST7796U\AHL-CH32V307-LCD_ST7796U\Debug/srcc/gpio.c:79
            gpio_ptr->CFGHR = temp;
   1defe:	00e92223          	sw	a4,4(s2)
E:\02-项目\13-RISCV实验箱\模块驱动\19-LCD_ST7796U\AHL-CH32V307-LCD_ST7796U\Debug/srcc/gpio.c:80
            gpio_set(port_pin,state);
   1df02:	85a6                	mv	a1,s1
   1df04:	8522                	mv	a0,s0
   1df06:	ea1ff0ef          	jal	ra,1dda6 <gpio_set>
   1df0a:	b775                	j	1deb6 <gpio_init+0xbc>

0001df0c <gpio_get>:
gpio_get():
E:\02-项目\13-RISCV实验箱\模块驱动\19-LCD_ST7796U\AHL-CH32V307-LCD_ST7796U\Debug/srcc/gpio.c:180
{
   1df0c:	1101                	addi	sp,sp,-32
   1df0e:	ce06                	sw	ra,28(sp)
E:\02-项目\13-RISCV实验箱\模块驱动\19-LCD_ST7796U\AHL-CH32V307-LCD_ST7796U\Debug/srcc/gpio.c:188
    gpio_get_port_pin(port_pin,&port,&pin);
   1df10:	00e10613          	addi	a2,sp,14
   1df14:	00f10593          	addi	a1,sp,15
   1df18:	e81ff0ef          	jal	ra,1dd98 <gpio_get_port_pin>
E:\02-项目\13-RISCV实验箱\模块驱动\19-LCD_ST7796U\AHL-CH32V307-LCD_ST7796U\Debug/srcc/gpio.c:191
    gpio_ptr = GPIO_ARR[port];
   1df1c:	00f14783          	lbu	a5,15(sp)
   1df20:	00279713          	slli	a4,a5,0x2
   1df24:	200057b7          	lui	a5,0x20005
   1df28:	00078793          	mv	a5,a5
   1df2c:	97ba                	add	a5,a5,a4
   1df2e:	4398                	lw	a4,0(a5)
E:\02-项目\13-RISCV实验箱\模块驱动\19-LCD_ST7796U\AHL-CH32V307-LCD_ST7796U\Debug/srcc/gpio.c:194
    if(pin < 0x08)
   1df30:	00e14783          	lbu	a5,14(sp)
   1df34:	469d                	li	a3,7
   1df36:	02f6ec63          	bltu	a3,a5,1df6e <gpio_get+0x62>
E:\02-项目\13-RISCV实验箱\模块驱动\19-LCD_ST7796U\AHL-CH32V307-LCD_ST7796U\Debug/srcc/gpio.c:196
        temp =gpio_ptr->CFGLR;
   1df3a:	4310                	lw	a2,0(a4)
E:\02-项目\13-RISCV实验箱\模块驱动\19-LCD_ST7796U\AHL-CH32V307-LCD_ST7796U\Debug/srcc/gpio.c:197
        if((temp & (3u<<(pin*4)))==0x00u)   // GPIO输入
   1df3c:	00279593          	slli	a1,a5,0x2
   1df40:	468d                	li	a3,3
   1df42:	00b696b3          	sll	a3,a3,a1
   1df46:	8ef1                	and	a3,a3,a2
   1df48:	ea99                	bnez	a3,1df5e <gpio_get+0x52>
E:\02-项目\13-RISCV实验箱\模块驱动\19-LCD_ST7796U\AHL-CH32V307-LCD_ST7796U\Debug/srcc/gpio.c:200
            temp = gpio_ptr->INDR;
   1df4a:	4714                	lw	a3,8(a4)
E:\02-项目\13-RISCV实验箱\模块驱动\19-LCD_ST7796U\AHL-CH32V307-LCD_ST7796U\Debug/srcc/gpio.c:201
            if((temp & (1u<<pin)) != 0x00u)
   1df4c:	4705                	li	a4,1
   1df4e:	00f717b3          	sll	a5,a4,a5
   1df52:	8ff5                	and	a5,a5,a3
   1df54:	c7b9                	beqz	a5,1dfa2 <gpio_get+0x96>
E:\02-项目\13-RISCV实验箱\模块驱动\19-LCD_ST7796U\AHL-CH32V307-LCD_ST7796U\Debug/srcc/gpio.c:202
                value = 1;
   1df56:	4505                	li	a0,1
E:\02-项目\13-RISCV实验箱\模块驱动\19-LCD_ST7796U\AHL-CH32V307-LCD_ST7796U\Debug/srcc/gpio.c:239
}
   1df58:	40f2                	lw	ra,28(sp)
   1df5a:	6105                	addi	sp,sp,32
   1df5c:	8082                	ret
E:\02-项目\13-RISCV实验箱\模块驱动\19-LCD_ST7796U\AHL-CH32V307-LCD_ST7796U\Debug/srcc/gpio.c:209
            temp = gpio_ptr->OUTDR;
   1df5e:	4754                	lw	a3,12(a4)
E:\02-项目\13-RISCV实验箱\模块驱动\19-LCD_ST7796U\AHL-CH32V307-LCD_ST7796U\Debug/srcc/gpio.c:210
            if((temp & (1u<<pin) )!= 0x00u)
   1df60:	4705                	li	a4,1
   1df62:	00f717b3          	sll	a5,a4,a5
   1df66:	8ff5                	and	a5,a5,a3
   1df68:	cf9d                	beqz	a5,1dfa6 <gpio_get+0x9a>
E:\02-项目\13-RISCV实验箱\模块驱动\19-LCD_ST7796U\AHL-CH32V307-LCD_ST7796U\Debug/srcc/gpio.c:211
                value = 1;
   1df6a:	4505                	li	a0,1
   1df6c:	b7f5                	j	1df58 <gpio_get+0x4c>
E:\02-项目\13-RISCV实验箱\模块驱动\19-LCD_ST7796U\AHL-CH32V307-LCD_ST7796U\Debug/srcc/gpio.c:218
        temp = gpio_ptr->CFGHR;
   1df6e:	434c                	lw	a1,4(a4)
E:\02-项目\13-RISCV实验箱\模块驱动\19-LCD_ST7796U\AHL-CH32V307-LCD_ST7796U\Debug/srcc/gpio.c:219
        if((temp & (3u<<((pin-8)*4)))==0x00u)   // GPIO输入
   1df70:	ff878693          	addi	a3,a5,-8 # 20004ff8 <_data_lma+0x1ffe2aa0>
   1df74:	00269613          	slli	a2,a3,0x2
   1df78:	468d                	li	a3,3
   1df7a:	00c696b3          	sll	a3,a3,a2
   1df7e:	8eed                	and	a3,a3,a1
   1df80:	ea89                	bnez	a3,1df92 <gpio_get+0x86>
E:\02-项目\13-RISCV实验箱\模块驱动\19-LCD_ST7796U\AHL-CH32V307-LCD_ST7796U\Debug/srcc/gpio.c:222
            temp = gpio_ptr->INDR;
   1df82:	4714                	lw	a3,8(a4)
E:\02-项目\13-RISCV实验箱\模块驱动\19-LCD_ST7796U\AHL-CH32V307-LCD_ST7796U\Debug/srcc/gpio.c:223
            if((temp & (1u<<pin)) != 0x00u)
   1df84:	4705                	li	a4,1
   1df86:	00f717b3          	sll	a5,a4,a5
   1df8a:	8ff5                	and	a5,a5,a3
   1df8c:	cf99                	beqz	a5,1dfaa <gpio_get+0x9e>
E:\02-项目\13-RISCV实验箱\模块驱动\19-LCD_ST7796U\AHL-CH32V307-LCD_ST7796U\Debug/srcc/gpio.c:224
                value = 1;
   1df8e:	4505                	li	a0,1
   1df90:	b7e1                	j	1df58 <gpio_get+0x4c>
E:\02-项目\13-RISCV实验箱\模块驱动\19-LCD_ST7796U\AHL-CH32V307-LCD_ST7796U\Debug/srcc/gpio.c:231
            temp = gpio_ptr->OUTDR;
   1df92:	4754                	lw	a3,12(a4)
E:\02-项目\13-RISCV实验箱\模块驱动\19-LCD_ST7796U\AHL-CH32V307-LCD_ST7796U\Debug/srcc/gpio.c:232
            if((temp & (1u<<pin)) != 0x00u)
   1df94:	4705                	li	a4,1
   1df96:	00f717b3          	sll	a5,a4,a5
   1df9a:	8ff5                	and	a5,a5,a3
   1df9c:	cb89                	beqz	a5,1dfae <gpio_get+0xa2>
E:\02-项目\13-RISCV实验箱\模块驱动\19-LCD_ST7796U\AHL-CH32V307-LCD_ST7796U\Debug/srcc/gpio.c:233
                value = 1;
   1df9e:	4505                	li	a0,1
   1dfa0:	bf65                	j	1df58 <gpio_get+0x4c>
E:\02-项目\13-RISCV实验箱\模块驱动\19-LCD_ST7796U\AHL-CH32V307-LCD_ST7796U\Debug/srcc/gpio.c:204
                value = 0;
   1dfa2:	4501                	li	a0,0
   1dfa4:	bf55                	j	1df58 <gpio_get+0x4c>
E:\02-项目\13-RISCV实验箱\模块驱动\19-LCD_ST7796U\AHL-CH32V307-LCD_ST7796U\Debug/srcc/gpio.c:213
                value = 0;
   1dfa6:	4501                	li	a0,0
   1dfa8:	bf45                	j	1df58 <gpio_get+0x4c>
E:\02-项目\13-RISCV实验箱\模块驱动\19-LCD_ST7796U\AHL-CH32V307-LCD_ST7796U\Debug/srcc/gpio.c:226
                value = 0;
   1dfaa:	4501                	li	a0,0
   1dfac:	b775                	j	1df58 <gpio_get+0x4c>
E:\02-项目\13-RISCV实验箱\模块驱动\19-LCD_ST7796U\AHL-CH32V307-LCD_ST7796U\Debug/srcc/gpio.c:235
                value = 0;
   1dfae:	4501                	li	a0,0
   1dfb0:	b765                	j	1df58 <gpio_get+0x4c>

0001dfb2 <gpio_get_int>:
gpio_get_int():
E:\02-项目\13-RISCV实验箱\模块驱动\19-LCD_ST7796U\AHL-CH32V307-LCD_ST7796U\Debug/srcc/gpio.c:481
{
   1dfb2:	1101                	addi	sp,sp,-32
   1dfb4:	ce06                	sw	ra,28(sp)
E:\02-项目\13-RISCV实验箱\模块驱动\19-LCD_ST7796U\AHL-CH32V307-LCD_ST7796U\Debug/srcc/gpio.c:485
    gpio_get_port_pin(port_pin,&port,&pin);
   1dfb6:	00e10613          	addi	a2,sp,14
   1dfba:	00f10593          	addi	a1,sp,15
   1dfbe:	ddbff0ef          	jal	ra,1dd98 <gpio_get_port_pin>
E:\02-项目\13-RISCV实验箱\模块驱动\19-LCD_ST7796U\AHL-CH32V307-LCD_ST7796U\Debug/srcc/gpio.c:488
    if((EXTI->INTFR & (1u << pin)) == (1u << pin))
   1dfc2:	400107b7          	lui	a5,0x40010
   1dfc6:	4147a703          	lw	a4,1044(a5) # 40010414 <GEC_USER_RAM_END+0x1fff0414>
   1dfca:	00e14683          	lbu	a3,14(sp)
   1dfce:	4785                	li	a5,1
   1dfd0:	00d797b3          	sll	a5,a5,a3
   1dfd4:	8f7d                	and	a4,a4,a5
   1dfd6:	00e78663          	beq	a5,a4,1dfe2 <gpio_get_int+0x30>
E:\02-项目\13-RISCV实验箱\模块驱动\19-LCD_ST7796U\AHL-CH32V307-LCD_ST7796U\Debug/srcc/gpio.c:493
        return 0;
   1dfda:	4501                	li	a0,0
E:\02-项目\13-RISCV实验箱\模块驱动\19-LCD_ST7796U\AHL-CH32V307-LCD_ST7796U\Debug/srcc/gpio.c:494
}
   1dfdc:	40f2                	lw	ra,28(sp)
   1dfde:	6105                	addi	sp,sp,32
   1dfe0:	8082                	ret
E:\02-项目\13-RISCV实验箱\模块驱动\19-LCD_ST7796U\AHL-CH32V307-LCD_ST7796U\Debug/srcc/gpio.c:490
        return 1;
   1dfe2:	4505                	li	a0,1
   1dfe4:	bfe5                	j	1dfdc <gpio_get_int+0x2a>

0001dfe6 <gpio_clear_int>:
gpio_clear_int():
E:\02-项目\13-RISCV实验箱\模块驱动\19-LCD_ST7796U\AHL-CH32V307-LCD_ST7796U\Debug/srcc/gpio.c:507
{
   1dfe6:	1101                	addi	sp,sp,-32
   1dfe8:	ce06                	sw	ra,28(sp)
E:\02-项目\13-RISCV实验箱\模块驱动\19-LCD_ST7796U\AHL-CH32V307-LCD_ST7796U\Debug/srcc/gpio.c:511
   gpio_get_port_pin(port_pin,&port,&pin);
   1dfea:	00e10613          	addi	a2,sp,14
   1dfee:	00f10593          	addi	a1,sp,15
   1dff2:	da7ff0ef          	jal	ra,1dd98 <gpio_get_port_pin>
E:\02-项目\13-RISCV实验箱\模块驱动\19-LCD_ST7796U\AHL-CH32V307-LCD_ST7796U\Debug/srcc/gpio.c:514
   EXTI->INTFR |= (1u << pin);
   1dff6:	400107b7          	lui	a5,0x40010
   1dffa:	4147a703          	lw	a4,1044(a5) # 40010414 <GEC_USER_RAM_END+0x1fff0414>
   1dffe:	00e14603          	lbu	a2,14(sp)
   1e002:	4685                	li	a3,1
   1e004:	00c696b3          	sll	a3,a3,a2
   1e008:	8f55                	or	a4,a4,a3
   1e00a:	40e7aa23          	sw	a4,1044(a5)
E:\02-项目\13-RISCV实验箱\模块驱动\19-LCD_ST7796U\AHL-CH32V307-LCD_ST7796U\Debug/srcc/gpio.c:516
}
   1e00e:	40f2                	lw	ra,28(sp)
   1e010:	6105                	addi	sp,sp,32
   1e012:	8082                	ret

0001e014 <GPIO_EXTILineConfig>:
GPIO_EXTILineConfig():
E:\02-项目\13-RISCV实验箱\模块驱动\19-LCD_ST7796U\AHL-CH32V307-LCD_ST7796U\Debug/srcc/gpio.c:562
//=====================================================================
void GPIO_EXTILineConfig(uint8_t GPIO_PortSource, uint8_t GPIO_PinSource)
{
  uint32_t tmp = 0x00;

  tmp = ((uint32_t)0x0F) << (0x04 * (GPIO_PinSource & (uint8_t)0x03));
   1e014:	0035f793          	andi	a5,a1,3
   1e018:	078a                	slli	a5,a5,0x2
   1e01a:	473d                	li	a4,15
   1e01c:	00f71733          	sll	a4,a4,a5
E:\02-项目\13-RISCV实验箱\模块驱动\19-LCD_ST7796U\AHL-CH32V307-LCD_ST7796U\Debug/srcc/gpio.c:563
  AFIO->EXTICR[GPIO_PinSource >> 0x02] &= ~tmp;
   1e020:	0fc5f693          	andi	a3,a1,252
   1e024:	400105b7          	lui	a1,0x40010
   1e028:	95b6                	add	a1,a1,a3
   1e02a:	4594                	lw	a3,8(a1)
   1e02c:	fff74713          	not	a4,a4
   1e030:	8f75                	and	a4,a4,a3
   1e032:	c598                	sw	a4,8(a1)
E:\02-项目\13-RISCV实验箱\模块驱动\19-LCD_ST7796U\AHL-CH32V307-LCD_ST7796U\Debug/srcc/gpio.c:564
  AFIO->EXTICR[GPIO_PinSource >> 0x02] |= (((uint32_t)GPIO_PortSource) << (0x04 * (GPIO_PinSource & (uint8_t)0x03)));
   1e034:	4598                	lw	a4,8(a1)
   1e036:	00f51533          	sll	a0,a0,a5
   1e03a:	8d59                	or	a0,a0,a4
   1e03c:	c588                	sw	a0,8(a1)
E:\02-项目\13-RISCV实验箱\模块驱动\19-LCD_ST7796U\AHL-CH32V307-LCD_ST7796U\Debug/srcc/gpio.c:565
}
   1e03e:	8082                	ret

0001e040 <gpio_enable_int>:
gpio_enable_int():
E:\02-项目\13-RISCV实验箱\模块驱动\19-LCD_ST7796U\AHL-CH32V307-LCD_ST7796U\Debug/srcc/gpio.c:338
{
   1e040:	1101                	addi	sp,sp,-32
   1e042:	ce06                	sw	ra,28(sp)
   1e044:	cc22                	sw	s0,24(sp)
   1e046:	842e                	mv	s0,a1
E:\02-项目\13-RISCV实验箱\模块驱动\19-LCD_ST7796U\AHL-CH32V307-LCD_ST7796U\Debug/srcc/gpio.c:343
    gpio_get_port_pin(port_pin,&port,&pin);
   1e048:	00e10613          	addi	a2,sp,14
   1e04c:	00f10593          	addi	a1,sp,15
   1e050:	d49ff0ef          	jal	ra,1dd98 <gpio_get_port_pin>
E:\02-项目\13-RISCV实验箱\模块驱动\19-LCD_ST7796U\AHL-CH32V307-LCD_ST7796U\Debug/srcc/gpio.c:346
    RCC->APB2PCENR|=RCC_AFIOEN;
   1e054:	40021737          	lui	a4,0x40021
   1e058:	4f1c                	lw	a5,24(a4)
   1e05a:	0017e793          	ori	a5,a5,1
   1e05e:	cf1c                	sw	a5,24(a4)
E:\02-项目\13-RISCV实验箱\模块驱动\19-LCD_ST7796U\AHL-CH32V307-LCD_ST7796U\Debug/srcc/gpio.c:349
    GPIO_EXTILineConfig(port,pin);
   1e060:	00e14583          	lbu	a1,14(sp)
   1e064:	00f14503          	lbu	a0,15(sp)
   1e068:	3775                	jal	1e014 <GPIO_EXTILineConfig>
E:\02-项目\13-RISCV实验箱\模块驱动\19-LCD_ST7796U\AHL-CH32V307-LCD_ST7796U\Debug/srcc/gpio.c:353
    EXTI->INTENR &= ~(EXTI_INTENR_MR0 << pin);
   1e06a:	400106b7          	lui	a3,0x40010
   1e06e:	4006a583          	lw	a1,1024(a3) # 40010400 <GEC_USER_RAM_END+0x1fff0400>
   1e072:	00e14603          	lbu	a2,14(sp)
   1e076:	4785                	li	a5,1
   1e078:	00c79633          	sll	a2,a5,a2
   1e07c:	fff64613          	not	a2,a2
   1e080:	8e6d                	and	a2,a2,a1
   1e082:	40c6a023          	sw	a2,1024(a3)
E:\02-项目\13-RISCV实验箱\模块驱动\19-LCD_ST7796U\AHL-CH32V307-LCD_ST7796U\Debug/srcc/gpio.c:354
    EXTI->EVENR &= ~(EXTI_EVENR_MR0 << pin);
   1e086:	4046a583          	lw	a1,1028(a3)
   1e08a:	00e14603          	lbu	a2,14(sp)
   1e08e:	00c797b3          	sll	a5,a5,a2
   1e092:	fff7c613          	not	a2,a5
   1e096:	8df1                	and	a1,a1,a2
   1e098:	40b6a223          	sw	a1,1028(a3)
E:\02-项目\13-RISCV实验箱\模块驱动\19-LCD_ST7796U\AHL-CH32V307-LCD_ST7796U\Debug/srcc/gpio.c:355
    EXTI->RTENR &= ~(EXTI_RTENR_TR0 << pin);
   1e09c:	4086a583          	lw	a1,1032(a3)
   1e0a0:	8df1                	and	a1,a1,a2
   1e0a2:	40b6a423          	sw	a1,1032(a3)
E:\02-项目\13-RISCV实验箱\模块驱动\19-LCD_ST7796U\AHL-CH32V307-LCD_ST7796U\Debug/srcc/gpio.c:356
    EXTI->FTENR &= ~(EXTI_FTENR_TR0 << pin);
   1e0a6:	40c6a583          	lw	a1,1036(a3)
   1e0aa:	8e6d                	and	a2,a2,a1
   1e0ac:	40c6a623          	sw	a2,1036(a3)
E:\02-项目\13-RISCV实验箱\模块驱动\19-LCD_ST7796U\AHL-CH32V307-LCD_ST7796U\Debug/srcc/gpio.c:361
    *(__IO uint32_t *) temp |= (EXTI_INTENR_MR0 << pin);
   1e0b0:	4006a703          	lw	a4,1024(a3)
   1e0b4:	8fd9                	or	a5,a5,a4
   1e0b6:	40f6a023          	sw	a5,1024(a3)
E:\02-项目\13-RISCV实验箱\模块驱动\19-LCD_ST7796U\AHL-CH32V307-LCD_ST7796U\Debug/srcc/gpio.c:364
    if(DOUBLE_EDGE == irqtype)
   1e0ba:	47c1                	li	a5,16
   1e0bc:	04f40b63          	beq	s0,a5,1e112 <gpio_enable_int+0xd2>
E:\02-项目\13-RISCV实验箱\模块驱动\19-LCD_ST7796U\AHL-CH32V307-LCD_ST7796U\Debug/srcc/gpio.c:373
        temp += irqtype;
   1e0c0:	400107b7          	lui	a5,0x40010
   1e0c4:	40078793          	addi	a5,a5,1024 # 40010400 <GEC_USER_RAM_END+0x1fff0400>
   1e0c8:	943e                	add	s0,s0,a5
E:\02-项目\13-RISCV实验箱\模块驱动\19-LCD_ST7796U\AHL-CH32V307-LCD_ST7796U\Debug/srcc/gpio.c:374
        *(__IO uint32_t *) temp |= (EXTI_FTENR_TR0 << pin);
   1e0ca:	401c                	lw	a5,0(s0)
   1e0cc:	00e14683          	lbu	a3,14(sp)
   1e0d0:	4705                	li	a4,1
   1e0d2:	00d71733          	sll	a4,a4,a3
   1e0d6:	8fd9                	or	a5,a5,a4
   1e0d8:	c01c                	sw	a5,0(s0)
E:\02-项目\13-RISCV实验箱\模块驱动\19-LCD_ST7796U\AHL-CH32V307-LCD_ST7796U\Debug/srcc/gpio.c:379
    if(pin>=0 && pin<=4)
   1e0da:	00e14783          	lbu	a5,14(sp)
   1e0de:	4711                	li	a4,4
   1e0e0:	04f76b63          	bltu	a4,a5,1e136 <gpio_enable_int+0xf6>
E:\02-项目\13-RISCV实验箱\模块驱动\19-LCD_ST7796U\AHL-CH32V307-LCD_ST7796U\Debug/srcc/gpio.c:381
        NVIC_EnableIRQ(table_irq_exti[pin]);
   1e0e4:	078a                	slli	a5,a5,0x2
   1e0e6:	20005737          	lui	a4,0x20005
   1e0ea:	01470713          	addi	a4,a4,20 # 20005014 <table_irq_exti>
   1e0ee:	97ba                	add	a5,a5,a4
   1e0f0:	4398                	lw	a4,0(a5)
NVIC_EnableIRQ():
E:\02-项目\13-RISCV实验箱\模块驱动\19-LCD_ST7796U\AHL-CH32V307-LCD_ST7796U\02_CPU/core_riscv.h:122
* Description    : Enable Interrupt
* Input          : IRQn: Interrupt Numbers
* Return         : None
*******************************************************************************/
RV_STATIC_INLINE void NVIC_EnableIRQ(IRQn_Type IRQn){
  NVIC->IENR[((uint32_t)(IRQn) >> 5)] = (1 << ((uint32_t)(IRQn) & 0x1F));
   1e0f2:	00575793          	srli	a5,a4,0x5
   1e0f6:	4685                	li	a3,1
   1e0f8:	00e696b3          	sll	a3,a3,a4
   1e0fc:	04078793          	addi	a5,a5,64
   1e100:	078a                	slli	a5,a5,0x2
   1e102:	e000e737          	lui	a4,0xe000e
   1e106:	97ba                	add	a5,a5,a4
   1e108:	c394                	sw	a3,0(a5)
gpio_enable_int():
E:\02-项目\13-RISCV实验箱\模块驱动\19-LCD_ST7796U\AHL-CH32V307-LCD_ST7796U\Debug/srcc/gpio.c:389
}
   1e10a:	40f2                	lw	ra,28(sp)
   1e10c:	4462                	lw	s0,24(sp)
   1e10e:	6105                	addi	sp,sp,32
   1e110:	8082                	ret
E:\02-项目\13-RISCV实验箱\模块驱动\19-LCD_ST7796U\AHL-CH32V307-LCD_ST7796U\Debug/srcc/gpio.c:366
        EXTI->RTENR |= (EXTI_RTENR_TR0 << pin);
   1e112:	400107b7          	lui	a5,0x40010
   1e116:	4087a683          	lw	a3,1032(a5) # 40010408 <GEC_USER_RAM_END+0x1fff0408>
   1e11a:	00e14603          	lbu	a2,14(sp)
   1e11e:	4705                	li	a4,1
   1e120:	00c71733          	sll	a4,a4,a2
   1e124:	8ed9                	or	a3,a3,a4
   1e126:	40d7a423          	sw	a3,1032(a5)
E:\02-项目\13-RISCV实验箱\模块驱动\19-LCD_ST7796U\AHL-CH32V307-LCD_ST7796U\Debug/srcc/gpio.c:367
        EXTI->FTENR |= (EXTI_FTENR_TR0 << pin);
   1e12a:	40c7a683          	lw	a3,1036(a5)
   1e12e:	8f55                	or	a4,a4,a3
   1e130:	40e7a623          	sw	a4,1036(a5)
   1e134:	b75d                	j	1e0da <gpio_enable_int+0x9a>
E:\02-项目\13-RISCV实验箱\模块驱动\19-LCD_ST7796U\AHL-CH32V307-LCD_ST7796U\Debug/srcc/gpio.c:382
    else if(pin>=5 && pin<=9)
   1e136:	17ed                	addi	a5,a5,-5
   1e138:	0ff7f793          	andi	a5,a5,255
   1e13c:	4711                	li	a4,4
   1e13e:	02f76463          	bltu	a4,a5,1e166 <gpio_enable_int+0x126>
E:\02-项目\13-RISCV实验箱\模块驱动\19-LCD_ST7796U\AHL-CH32V307-LCD_ST7796U\Debug/srcc/gpio.c:384
        NVIC_EnableIRQ(table_irq_exti[5]);
   1e142:	200057b7          	lui	a5,0x20005
   1e146:	01478793          	addi	a5,a5,20 # 20005014 <table_irq_exti>
   1e14a:	4bd8                	lw	a4,20(a5)
NVIC_EnableIRQ():
E:\02-项目\13-RISCV实验箱\模块驱动\19-LCD_ST7796U\AHL-CH32V307-LCD_ST7796U\02_CPU/core_riscv.h:122
   1e14c:	00575793          	srli	a5,a4,0x5
   1e150:	4685                	li	a3,1
   1e152:	00e696b3          	sll	a3,a3,a4
   1e156:	04078793          	addi	a5,a5,64
   1e15a:	078a                	slli	a5,a5,0x2
   1e15c:	e000e737          	lui	a4,0xe000e
   1e160:	97ba                	add	a5,a5,a4
   1e162:	c394                	sw	a3,0(a5)
   1e164:	b75d                	j	1e10a <gpio_enable_int+0xca>
gpio_enable_int():
E:\02-项目\13-RISCV实验箱\模块驱动\19-LCD_ST7796U\AHL-CH32V307-LCD_ST7796U\Debug/srcc/gpio.c:387
        NVIC_EnableIRQ(table_irq_exti[6]);
   1e166:	200057b7          	lui	a5,0x20005
   1e16a:	01478793          	addi	a5,a5,20 # 20005014 <table_irq_exti>
   1e16e:	4f98                	lw	a4,24(a5)
NVIC_EnableIRQ():
E:\02-项目\13-RISCV实验箱\模块驱动\19-LCD_ST7796U\AHL-CH32V307-LCD_ST7796U\02_CPU/core_riscv.h:122
   1e170:	00575793          	srli	a5,a4,0x5
   1e174:	4685                	li	a3,1
   1e176:	00e696b3          	sll	a3,a3,a4
   1e17a:	04078793          	addi	a5,a5,64
   1e17e:	078a                	slli	a5,a5,0x2
   1e180:	e000e737          	lui	a4,0xe000e
   1e184:	97ba                	add	a5,a5,a4
   1e186:	c394                	sw	a3,0(a5)
gpio_enable_int():
E:\02-项目\13-RISCV实验箱\模块驱动\19-LCD_ST7796U\AHL-CH32V307-LCD_ST7796U\Debug/srcc/gpio.c:389
}
   1e188:	b749                	j	1e10a <gpio_enable_int+0xca>

0001e18a <spi_init>:
spi_init():
E:\02-项目\13-RISCV实验箱\模块驱动\19-LCD_ST7796U\AHL-CH32V307-LCD_ST7796U\Debug/srcc/spi.c:29
            uint8_t CPOL,uint8_t CPHA)
{
    uint16_t Freq_div;
    uint8_t BaudRate_Mode;
    GPIO_TypeDef *gpio_ptr;
    if(No<SPI_1||No>SPI_3)   No=SPI_1;    //如果SPI号参数错误则强制选择 SPI1
   1e18a:	4789                	li	a5,2
   1e18c:	12a7e263          	bltu	a5,a0,1e2b0 <spi_init+0x126>
E:\02-项目\13-RISCV实验箱\模块驱动\19-LCD_ST7796U\AHL-CH32V307-LCD_ST7796U\Debug/srcc/spi.c:31
    //（1）使能SPI和对应GPIO时钟
    switch(No)
   1e190:	4785                	li	a5,1
   1e192:	3ef50963          	beq	a0,a5,1e584 <spi_init+0x3fa>
   1e196:	01851793          	slli	a5,a0,0x18
   1e19a:	87e1                	srai	a5,a5,0x18
   1e19c:	10078b63          	beqz	a5,1e2b2 <spi_init+0x128>
   1e1a0:	4789                	li	a5,2
   1e1a2:	20f51e63          	bne	a0,a5,1e3be <spi_init+0x234>
E:\02-项目\13-RISCV实验箱\模块驱动\19-LCD_ST7796U\AHL-CH32V307-LCD_ST7796U\Debug/srcc/spi.c:148
            gpio_ptr->CFGHR |= GPIO_CFGHR_CNF15_0;
        }
        break;
        
        case SPI_3:
        RCC->APB1PCENR |= RCC_SPI3RST;
   1e1a6:	400217b7          	lui	a5,0x40021
   1e1aa:	01c7a803          	lw	a6,28(a5) # 4002101c <GEC_USER_RAM_END+0x2000101c>
   1e1ae:	68a1                	lui	a7,0x8
   1e1b0:	01186833          	or	a6,a6,a7
   1e1b4:	0107ae23          	sw	a6,28(a5)
E:\02-项目\13-RISCV实验箱\模块驱动\19-LCD_ST7796U\AHL-CH32V307-LCD_ST7796U\Debug/srcc/spi.c:149
        RCC->APB2PCENR |= (RCC_IOPBEN|RCC_IOPAEN);
   1e1b8:	0187a803          	lw	a6,24(a5)
   1e1bc:	00c86813          	ori	a6,a6,12
   1e1c0:	0107ac23          	sw	a6,24(a5)
E:\02-项目\13-RISCV实验箱\模块驱动\19-LCD_ST7796U\AHL-CH32V307-LCD_ST7796U\Debug/srcc/spi.c:151
        gpio_ptr = (GPIO_TypeDef *)GPIOB_BASE;
        if(MSTR == 1)    //主机模式
   1e1c4:	4785                	li	a5,1
   1e1c6:	5cf58863          	beq	a1,a5,1e796 <spi_init+0x60c>
E:\02-项目\13-RISCV实验箱\模块驱动\19-LCD_ST7796U\AHL-CH32V307-LCD_ST7796U\Debug/srcc/spi.c:181
        }
        else    //从机模式
        {
            //使能PTA15,PTB3,PTB4,PTB5为SPI(NSS,SCK,MISO,MOSI)功能
            //配置PTB12引脚为下拉输入
            GPIOA->CFGHR &= ~(GPIO_CFGHR_MODE15);
   1e1ca:	400117b7          	lui	a5,0x40011
   1e1ce:	8047a883          	lw	a7,-2044(a5) # 40010804 <GEC_USER_RAM_END+0x1fff0804>
   1e1d2:	d0000337          	lui	t1,0xd0000
   1e1d6:	137d                	addi	t1,t1,-1
   1e1d8:	0068f8b3          	and	a7,a7,t1
   1e1dc:	8117a223          	sw	a7,-2044(a5)
E:\02-项目\13-RISCV实验箱\模块驱动\19-LCD_ST7796U\AHL-CH32V307-LCD_ST7796U\Debug/srcc/spi.c:182
            GPIOA->CFGHR &= ~(GPIO_CFGHR_CNF15);
   1e1e0:	8047a883          	lw	a7,-2044(a5)
   1e1e4:	40000337          	lui	t1,0x40000
   1e1e8:	137d                	addi	t1,t1,-1
   1e1ea:	0068f8b3          	and	a7,a7,t1
   1e1ee:	8117a223          	sw	a7,-2044(a5)
E:\02-项目\13-RISCV实验箱\模块驱动\19-LCD_ST7796U\AHL-CH32V307-LCD_ST7796U\Debug/srcc/spi.c:183
            GPIOA->CFGHR |= GPIO_CFGHR_CNF15_1;
   1e1f2:	8047a883          	lw	a7,-2044(a5)
   1e1f6:	80000337          	lui	t1,0x80000
   1e1fa:	0068e8b3          	or	a7,a7,t1
   1e1fe:	8117a223          	sw	a7,-2044(a5)
E:\02-项目\13-RISCV实验箱\模块驱动\19-LCD_ST7796U\AHL-CH32V307-LCD_ST7796U\Debug/srcc/spi.c:184
            GPIOA->BCR = (((uint32_t)0x01) << 15);
   1e202:	68a1                	lui	a7,0x8
   1e204:	8117aa23          	sw	a7,-2028(a5)
E:\02-项目\13-RISCV实验箱\模块驱动\19-LCD_ST7796U\AHL-CH32V307-LCD_ST7796U\Debug/srcc/spi.c:187

            //配置PTB3引脚为浮空输入
            gpio_ptr->CFGLR &= ~(GPIO_CFGLR_MODE3);
   1e208:	c007a803          	lw	a6,-1024(a5)
   1e20c:	78f5                	lui	a7,0xffffd
   1e20e:	18fd                	addi	a7,a7,-1
   1e210:	01187833          	and	a6,a6,a7
   1e214:	c107a023          	sw	a6,-1024(a5)
E:\02-项目\13-RISCV实验箱\模块驱动\19-LCD_ST7796U\AHL-CH32V307-LCD_ST7796U\Debug/srcc/spi.c:188
            gpio_ptr->CFGLR &= ~(GPIO_CFGLR_CNF3);
   1e218:	c007a803          	lw	a6,-1024(a5)
   1e21c:	78d1                	lui	a7,0xffff4
   1e21e:	18fd                	addi	a7,a7,-1
   1e220:	01187833          	and	a6,a6,a7
   1e224:	c107a023          	sw	a6,-1024(a5)
E:\02-项目\13-RISCV实验箱\模块驱动\19-LCD_ST7796U\AHL-CH32V307-LCD_ST7796U\Debug/srcc/spi.c:189
            gpio_ptr->CFGLR |= GPIO_CFGLR_CNF3_0;
   1e228:	c007a803          	lw	a6,-1024(a5)
   1e22c:	6891                	lui	a7,0x4
   1e22e:	01186833          	or	a6,a6,a7
   1e232:	c107a023          	sw	a6,-1024(a5)
E:\02-项目\13-RISCV实验箱\模块驱动\19-LCD_ST7796U\AHL-CH32V307-LCD_ST7796U\Debug/srcc/spi.c:192

            //配置PTB4引脚为复用推挽输出，最大速度 50MHz
            gpio_ptr->CFGLR &= ~(GPIO_CFGLR_MODE4);
   1e236:	c007a803          	lw	a6,-1024(a5)
   1e23a:	fffd08b7          	lui	a7,0xfffd0
   1e23e:	18fd                	addi	a7,a7,-1
   1e240:	01187833          	and	a6,a6,a7
   1e244:	c107a023          	sw	a6,-1024(a5)
E:\02-项目\13-RISCV实验箱\模块驱动\19-LCD_ST7796U\AHL-CH32V307-LCD_ST7796U\Debug/srcc/spi.c:193
            gpio_ptr->CFGLR |= (GPIO_CFGLR_MODE4);
   1e248:	c007a803          	lw	a6,-1024(a5)
   1e24c:	000308b7          	lui	a7,0x30
   1e250:	01186833          	or	a6,a6,a7
   1e254:	c107a023          	sw	a6,-1024(a5)
E:\02-项目\13-RISCV实验箱\模块驱动\19-LCD_ST7796U\AHL-CH32V307-LCD_ST7796U\Debug/srcc/spi.c:194
            gpio_ptr->CFGLR &= ~(GPIO_CFGLR_CNF4);
   1e258:	c007a803          	lw	a6,-1024(a5)
   1e25c:	fff408b7          	lui	a7,0xfff40
   1e260:	18fd                	addi	a7,a7,-1
   1e262:	01187833          	and	a6,a6,a7
   1e266:	c107a023          	sw	a6,-1024(a5)
E:\02-项目\13-RISCV实验箱\模块驱动\19-LCD_ST7796U\AHL-CH32V307-LCD_ST7796U\Debug/srcc/spi.c:195
            gpio_ptr->CFGLR |= GPIO_CFGLR_CNF4_1;
   1e26a:	c007a803          	lw	a6,-1024(a5)
   1e26e:	000808b7          	lui	a7,0x80
   1e272:	01186833          	or	a6,a6,a7
   1e276:	c107a023          	sw	a6,-1024(a5)
E:\02-项目\13-RISCV实验箱\模块驱动\19-LCD_ST7796U\AHL-CH32V307-LCD_ST7796U\Debug/srcc/spi.c:198

            //配置PTB5引脚为浮空输入
            gpio_ptr->CFGLR &= ~(GPIO_CFGLR_MODE5);
   1e27a:	c007a803          	lw	a6,-1024(a5)
   1e27e:	ffd008b7          	lui	a7,0xffd00
   1e282:	18fd                	addi	a7,a7,-1
   1e284:	01187833          	and	a6,a6,a7
   1e288:	c107a023          	sw	a6,-1024(a5)
E:\02-项目\13-RISCV实验箱\模块驱动\19-LCD_ST7796U\AHL-CH32V307-LCD_ST7796U\Debug/srcc/spi.c:199
            gpio_ptr->CFGLR &= ~(GPIO_CFGLR_CNF5);
   1e28c:	c007a803          	lw	a6,-1024(a5)
   1e290:	ff4008b7          	lui	a7,0xff400
   1e294:	18fd                	addi	a7,a7,-1
   1e296:	01187833          	and	a6,a6,a7
   1e29a:	c107a023          	sw	a6,-1024(a5)
E:\02-项目\13-RISCV实验箱\模块驱动\19-LCD_ST7796U\AHL-CH32V307-LCD_ST7796U\Debug/srcc/spi.c:200
            gpio_ptr->CFGLR |= GPIO_CFGLR_CNF5_0;
   1e29e:	c007a803          	lw	a6,-1024(a5)
   1e2a2:	004008b7          	lui	a7,0x400
   1e2a6:	01186833          	or	a6,a6,a7
   1e2aa:	c107a023          	sw	a6,-1024(a5)
   1e2ae:	aa01                	j	1e3be <spi_init+0x234>
E:\02-项目\13-RISCV实验箱\模块驱动\19-LCD_ST7796U\AHL-CH32V307-LCD_ST7796U\Debug/srcc/spi.c:29
    if(No<SPI_1||No>SPI_3)   No=SPI_1;    //如果SPI号参数错误则强制选择 SPI1
   1e2b0:	4501                	li	a0,0
E:\02-项目\13-RISCV实验箱\模块驱动\19-LCD_ST7796U\AHL-CH32V307-LCD_ST7796U\Debug/srcc/spi.c:34
        RCC->APB2PCENR |= RCC_SPI1RST;
   1e2b2:	400217b7          	lui	a5,0x40021
   1e2b6:	0187a803          	lw	a6,24(a5) # 40021018 <GEC_USER_RAM_END+0x20001018>
   1e2ba:	6885                	lui	a7,0x1
   1e2bc:	01186833          	or	a6,a6,a7
   1e2c0:	0107ac23          	sw	a6,24(a5)
E:\02-项目\13-RISCV实验箱\模块驱动\19-LCD_ST7796U\AHL-CH32V307-LCD_ST7796U\Debug/srcc/spi.c:35
        RCC->APB2PCENR |= RCC_IOPAEN;
   1e2c4:	0187a803          	lw	a6,24(a5)
   1e2c8:	00486813          	ori	a6,a6,4
   1e2cc:	0107ac23          	sw	a6,24(a5)
E:\02-项目\13-RISCV实验箱\模块驱动\19-LCD_ST7796U\AHL-CH32V307-LCD_ST7796U\Debug/srcc/spi.c:37
        if(MSTR == 1)    //主机模式
   1e2d0:	4785                	li	a5,1
   1e2d2:	1af58b63          	beq	a1,a5,1e488 <spi_init+0x2fe>
E:\02-项目\13-RISCV实验箱\模块驱动\19-LCD_ST7796U\AHL-CH32V307-LCD_ST7796U\Debug/srcc/spi.c:67
            gpio_ptr->CFGLR &= ~(GPIO_CFGLR_MODE4);
   1e2d6:	400117b7          	lui	a5,0x40011
   1e2da:	8007a803          	lw	a6,-2048(a5) # 40010800 <GEC_USER_RAM_END+0x1fff0800>
   1e2de:	fffd08b7          	lui	a7,0xfffd0
   1e2e2:	18fd                	addi	a7,a7,-1
   1e2e4:	01187833          	and	a6,a6,a7
   1e2e8:	8107a023          	sw	a6,-2048(a5)
E:\02-项目\13-RISCV实验箱\模块驱动\19-LCD_ST7796U\AHL-CH32V307-LCD_ST7796U\Debug/srcc/spi.c:68
            gpio_ptr->CFGLR &= ~(GPIO_CFGLR_CNF4);
   1e2ec:	8007a803          	lw	a6,-2048(a5)
   1e2f0:	fff408b7          	lui	a7,0xfff40
   1e2f4:	18fd                	addi	a7,a7,-1
   1e2f6:	01187833          	and	a6,a6,a7
   1e2fa:	8107a023          	sw	a6,-2048(a5)
E:\02-项目\13-RISCV实验箱\模块驱动\19-LCD_ST7796U\AHL-CH32V307-LCD_ST7796U\Debug/srcc/spi.c:69
            gpio_ptr->CFGLR |= GPIO_CFGLR_CNF4_1;
   1e2fe:	8007a803          	lw	a6,-2048(a5)
   1e302:	000808b7          	lui	a7,0x80
   1e306:	01186833          	or	a6,a6,a7
   1e30a:	8107a023          	sw	a6,-2048(a5)
E:\02-项目\13-RISCV实验箱\模块驱动\19-LCD_ST7796U\AHL-CH32V307-LCD_ST7796U\Debug/srcc/spi.c:70
            gpio_ptr->BCR = (((uint32_t)0x01) << 4);
   1e30e:	4841                	li	a6,16
   1e310:	8107aa23          	sw	a6,-2028(a5)
E:\02-项目\13-RISCV实验箱\模块驱动\19-LCD_ST7796U\AHL-CH32V307-LCD_ST7796U\Debug/srcc/spi.c:73
            gpio_ptr->CFGLR &= ~(GPIO_CFGLR_MODE5);
   1e314:	8007a803          	lw	a6,-2048(a5)
   1e318:	ffd008b7          	lui	a7,0xffd00
   1e31c:	18fd                	addi	a7,a7,-1
   1e31e:	01187833          	and	a6,a6,a7
   1e322:	8107a023          	sw	a6,-2048(a5)
E:\02-项目\13-RISCV实验箱\模块驱动\19-LCD_ST7796U\AHL-CH32V307-LCD_ST7796U\Debug/srcc/spi.c:74
            gpio_ptr->CFGLR &= ~(GPIO_CFGLR_CNF5);
   1e326:	8007a803          	lw	a6,-2048(a5)
   1e32a:	ff4008b7          	lui	a7,0xff400
   1e32e:	18fd                	addi	a7,a7,-1
   1e330:	01187833          	and	a6,a6,a7
   1e334:	8107a023          	sw	a6,-2048(a5)
E:\02-项目\13-RISCV实验箱\模块驱动\19-LCD_ST7796U\AHL-CH32V307-LCD_ST7796U\Debug/srcc/spi.c:75
            gpio_ptr->CFGLR |= GPIO_CFGLR_CNF5_0;
   1e338:	8007a803          	lw	a6,-2048(a5)
   1e33c:	004008b7          	lui	a7,0x400
   1e340:	01186833          	or	a6,a6,a7
   1e344:	8107a023          	sw	a6,-2048(a5)
E:\02-项目\13-RISCV实验箱\模块驱动\19-LCD_ST7796U\AHL-CH32V307-LCD_ST7796U\Debug/srcc/spi.c:78
            gpio_ptr->CFGLR &= ~(GPIO_CFGLR_MODE6);
   1e348:	8007a803          	lw	a6,-2048(a5)
   1e34c:	fd0008b7          	lui	a7,0xfd000
   1e350:	18fd                	addi	a7,a7,-1
   1e352:	01187833          	and	a6,a6,a7
   1e356:	8107a023          	sw	a6,-2048(a5)
E:\02-项目\13-RISCV实验箱\模块驱动\19-LCD_ST7796U\AHL-CH32V307-LCD_ST7796U\Debug/srcc/spi.c:79
            gpio_ptr->CFGLR |= (GPIO_CFGLR_MODE6);
   1e35a:	8007a803          	lw	a6,-2048(a5)
   1e35e:	030008b7          	lui	a7,0x3000
   1e362:	01186833          	or	a6,a6,a7
   1e366:	8107a023          	sw	a6,-2048(a5)
E:\02-项目\13-RISCV实验箱\模块驱动\19-LCD_ST7796U\AHL-CH32V307-LCD_ST7796U\Debug/srcc/spi.c:80
            gpio_ptr->CFGLR &= ~(GPIO_CFGLR_CNF6);
   1e36a:	8007a803          	lw	a6,-2048(a5)
   1e36e:	f40008b7          	lui	a7,0xf4000
   1e372:	18fd                	addi	a7,a7,-1
   1e374:	01187833          	and	a6,a6,a7
   1e378:	8107a023          	sw	a6,-2048(a5)
E:\02-项目\13-RISCV实验箱\模块驱动\19-LCD_ST7796U\AHL-CH32V307-LCD_ST7796U\Debug/srcc/spi.c:81
            gpio_ptr->CFGLR |= GPIO_CFGLR_CNF6_1;
   1e37c:	8007a803          	lw	a6,-2048(a5)
   1e380:	080008b7          	lui	a7,0x8000
   1e384:	01186833          	or	a6,a6,a7
   1e388:	8107a023          	sw	a6,-2048(a5)
E:\02-项目\13-RISCV实验箱\模块驱动\19-LCD_ST7796U\AHL-CH32V307-LCD_ST7796U\Debug/srcc/spi.c:84
            gpio_ptr->CFGLR &= ~(GPIO_CFGLR_MODE7);
   1e38c:	8007a803          	lw	a6,-2048(a5)
   1e390:	d00008b7          	lui	a7,0xd0000
   1e394:	18fd                	addi	a7,a7,-1
   1e396:	01187833          	and	a6,a6,a7
   1e39a:	8107a023          	sw	a6,-2048(a5)
E:\02-项目\13-RISCV实验箱\模块驱动\19-LCD_ST7796U\AHL-CH32V307-LCD_ST7796U\Debug/srcc/spi.c:85
            gpio_ptr->CFGLR &= ~(GPIO_CFGLR_CNF7);
   1e39e:	8007a883          	lw	a7,-2048(a5)
   1e3a2:	40000337          	lui	t1,0x40000
   1e3a6:	fff30813          	addi	a6,t1,-1 # 3fffffff <GEC_USER_RAM_END+0x1ffdffff>
   1e3aa:	0108f8b3          	and	a7,a7,a6
   1e3ae:	8117a023          	sw	a7,-2048(a5)
E:\02-项目\13-RISCV实验箱\模块驱动\19-LCD_ST7796U\AHL-CH32V307-LCD_ST7796U\Debug/srcc/spi.c:86
            gpio_ptr->CFGLR |= GPIO_CFGLR_CNF7_0;
   1e3b2:	8007a803          	lw	a6,-2048(a5)
   1e3b6:	00686833          	or	a6,a6,t1
   1e3ba:	8107a023          	sw	a6,-2048(a5)
E:\02-项目\13-RISCV实验箱\模块驱动\19-LCD_ST7796U\AHL-CH32V307-LCD_ST7796U\Debug/srcc/spi.c:206
        }
        break;
        
    }

    SPI_ARR[No]->CTLR1 &= CTLR1_CLEAR_Mask;
   1e3be:	88aa                	mv	a7,a0
   1e3c0:	00251793          	slli	a5,a0,0x2
   1e3c4:	20005837          	lui	a6,0x20005
   1e3c8:	03080813          	addi	a6,a6,48 # 20005030 <SPI_ARR>
   1e3cc:	97c2                	add	a5,a5,a6
   1e3ce:	0007a303          	lw	t1,0(a5)
   1e3d2:	00035e03          	lhu	t3,0(t1)
   1e3d6:	680d                	lui	a6,0x3
   1e3d8:	04080813          	addi	a6,a6,64 # 3040 <__stack_size+0x2840>
   1e3dc:	01c87833          	and	a6,a6,t3
   1e3e0:	01031023          	sh	a6,0(t1)
E:\02-项目\13-RISCV实验箱\模块驱动\19-LCD_ST7796U\AHL-CH32V307-LCD_ST7796U\Debug/srcc/spi.c:207
    SPI_ARR[No]->CTLR1 |= (uint16_t)((CPOL<<1) | CPHA);     //配置时钟极性及相位
   1e3e4:	0007a803          	lw	a6,0(a5)
   1e3e8:	00085303          	lhu	t1,0(a6)
   1e3ec:	0686                	slli	a3,a3,0x1
   1e3ee:	8ed9                	or	a3,a3,a4
   1e3f0:	0066e6b3          	or	a3,a3,t1
   1e3f4:	00d81023          	sh	a3,0(a6)
E:\02-项目\13-RISCV实验箱\模块驱动\19-LCD_ST7796U\AHL-CH32V307-LCD_ST7796U\Debug/srcc/spi.c:208
    SPI_ARR[No]->CTLR1 &= ~SPI_CTLR1_DFF;                   //配置数据字长
   1e3f8:	4394                	lw	a3,0(a5)
   1e3fa:	0006d803          	lhu	a6,0(a3)
   1e3fe:	777d                	lui	a4,0xfffff
   1e400:	7ff70713          	addi	a4,a4,2047 # fffff7ff <GEC_USER_RAM_END+0xdffdf7ff>
   1e404:	01077733          	and	a4,a4,a6
   1e408:	00e69023          	sh	a4,0(a3)
E:\02-项目\13-RISCV实验箱\模块驱动\19-LCD_ST7796U\AHL-CH32V307-LCD_ST7796U\Debug/srcc/spi.c:209
    SPI_ARR[No]->CTLR1 &= ~SPI_CTLR1_LSBFIRST;              //配置帧格式
   1e40c:	4394                	lw	a3,0(a5)
   1e40e:	0006d703          	lhu	a4,0(a3)
   1e412:	0742                	slli	a4,a4,0x10
   1e414:	8341                	srli	a4,a4,0x10
   1e416:	f7f77713          	andi	a4,a4,-129
   1e41a:	0742                	slli	a4,a4,0x10
   1e41c:	8341                	srli	a4,a4,0x10
   1e41e:	00e69023          	sh	a4,0(a3)
E:\02-项目\13-RISCV实验箱\模块驱动\19-LCD_ST7796U\AHL-CH32V307-LCD_ST7796U\Debug/srcc/spi.c:210
    SPI_ARR[No]->CTLR1 |= SPI_CTLR1_SSM;                    //配置NSS引脚，由软件控制
   1e422:	4398                	lw	a4,0(a5)
   1e424:	00075783          	lhu	a5,0(a4)
   1e428:	2007e793          	ori	a5,a5,512
   1e42c:	00f71023          	sh	a5,0(a4)
E:\02-项目\13-RISCV实验箱\模块驱动\19-LCD_ST7796U\AHL-CH32V307-LCD_ST7796U\Debug/srcc/spi.c:211
    if(MSTR == 1)    //主机模式
   1e430:	4785                	li	a5,1
   1e432:	44f58b63          	beq	a1,a5,1e888 <spi_init+0x6fe>
E:\02-项目\13-RISCV实验箱\模块驱动\19-LCD_ST7796U\AHL-CH32V307-LCD_ST7796U\Debug/srcc/spi.c:236
        SPI_ARR[No]->CTLR1 |= SPI_CTLR1_SSI;                //配置NSS引脚为高电平
        SPI_ARR[No]->CTLR1 |= SPI_CTLR1_MSTR;               //配置为主机模式
    }
    else            //从机模式
    {
        SPI_ARR[No]->CTLR1 &= ~SPI_CTLR1_SSI;               //从机模式保持 SSI不被置位
   1e436:	050a                	slli	a0,a0,0x2
   1e438:	200057b7          	lui	a5,0x20005
   1e43c:	03078793          	addi	a5,a5,48 # 20005030 <SPI_ARR>
   1e440:	953e                	add	a0,a0,a5
   1e442:	4118                	lw	a4,0(a0)
   1e444:	00075783          	lhu	a5,0(a4)
   1e448:	07c2                	slli	a5,a5,0x10
   1e44a:	83c1                	srli	a5,a5,0x10
   1e44c:	eff7f793          	andi	a5,a5,-257
   1e450:	07c2                	slli	a5,a5,0x10
   1e452:	83c1                	srli	a5,a5,0x10
   1e454:	00f71023          	sh	a5,0(a4)
E:\02-项目\13-RISCV实验箱\模块驱动\19-LCD_ST7796U\AHL-CH32V307-LCD_ST7796U\Debug/srcc/spi.c:237
        SPI_ARR[No]->CTLR1 &= ~SPI_CTLR1_MSTR;              //配置为从机模式
   1e458:	4118                	lw	a4,0(a0)
   1e45a:	00075783          	lhu	a5,0(a4)
   1e45e:	07c2                	slli	a5,a5,0x10
   1e460:	83c1                	srli	a5,a5,0x10
   1e462:	9bed                	andi	a5,a5,-5
   1e464:	07c2                	slli	a5,a5,0x10
   1e466:	83c1                	srli	a5,a5,0x10
   1e468:	00f71023          	sh	a5,0(a4)
E:\02-项目\13-RISCV实验箱\模块驱动\19-LCD_ST7796U\AHL-CH32V307-LCD_ST7796U\Debug/srcc/spi.c:239
    }
    SPI_ARR[No]->CTLR1 |= SPI_CTLR1_SPE;            //SPI使能
   1e46c:	088a                	slli	a7,a7,0x2
   1e46e:	200057b7          	lui	a5,0x20005
   1e472:	03078793          	addi	a5,a5,48 # 20005030 <SPI_ARR>
   1e476:	97c6                	add	a5,a5,a7
   1e478:	4398                	lw	a4,0(a5)
   1e47a:	00075783          	lhu	a5,0(a4)
   1e47e:	0407e793          	ori	a5,a5,64
   1e482:	00f71023          	sh	a5,0(a4)
E:\02-项目\13-RISCV实验箱\模块驱动\19-LCD_ST7796U\AHL-CH32V307-LCD_ST7796U\Debug/srcc/spi.c:240
}
   1e486:	8082                	ret
E:\02-项目\13-RISCV实验箱\模块驱动\19-LCD_ST7796U\AHL-CH32V307-LCD_ST7796U\Debug/srcc/spi.c:41
            gpio_ptr->CFGLR &= ~(GPIO_CFGLR_MODE4);
   1e488:	400117b7          	lui	a5,0x40011
   1e48c:	8007a803          	lw	a6,-2048(a5) # 40010800 <GEC_USER_RAM_END+0x1fff0800>
   1e490:	fffd08b7          	lui	a7,0xfffd0
   1e494:	18fd                	addi	a7,a7,-1
   1e496:	01187833          	and	a6,a6,a7
   1e49a:	8107a023          	sw	a6,-2048(a5)
E:\02-项目\13-RISCV实验箱\模块驱动\19-LCD_ST7796U\AHL-CH32V307-LCD_ST7796U\Debug/srcc/spi.c:42
            gpio_ptr->CFGLR |= GPIO_CFGLR_MODE4;
   1e49e:	8007a803          	lw	a6,-2048(a5)
   1e4a2:	000308b7          	lui	a7,0x30
   1e4a6:	01186833          	or	a6,a6,a7
   1e4aa:	8107a023          	sw	a6,-2048(a5)
E:\02-项目\13-RISCV实验箱\模块驱动\19-LCD_ST7796U\AHL-CH32V307-LCD_ST7796U\Debug/srcc/spi.c:43
            gpio_ptr->CFGLR &= ~(GPIO_CFGLR_CNF4);
   1e4ae:	8007a803          	lw	a6,-2048(a5)
   1e4b2:	fff408b7          	lui	a7,0xfff40
   1e4b6:	18fd                	addi	a7,a7,-1
   1e4b8:	01187833          	and	a6,a6,a7
   1e4bc:	8107a023          	sw	a6,-2048(a5)
E:\02-项目\13-RISCV实验箱\模块驱动\19-LCD_ST7796U\AHL-CH32V307-LCD_ST7796U\Debug/srcc/spi.c:44
            gpio_ptr->BSHR = (((uint32_t)0x01) << 4);
   1e4c0:	4841                	li	a6,16
   1e4c2:	8107a823          	sw	a6,-2032(a5)
E:\02-项目\13-RISCV实验箱\模块驱动\19-LCD_ST7796U\AHL-CH32V307-LCD_ST7796U\Debug/srcc/spi.c:47
            gpio_ptr->CFGLR &= ~(GPIO_CFGLR_MODE5);
   1e4c6:	8007a803          	lw	a6,-2048(a5)
   1e4ca:	ffd008b7          	lui	a7,0xffd00
   1e4ce:	18fd                	addi	a7,a7,-1
   1e4d0:	01187833          	and	a6,a6,a7
   1e4d4:	8107a023          	sw	a6,-2048(a5)
E:\02-项目\13-RISCV实验箱\模块驱动\19-LCD_ST7796U\AHL-CH32V307-LCD_ST7796U\Debug/srcc/spi.c:48
            gpio_ptr->CFGLR |= (GPIO_CFGLR_MODE5);
   1e4d8:	8007a803          	lw	a6,-2048(a5)
   1e4dc:	003008b7          	lui	a7,0x300
   1e4e0:	01186833          	or	a6,a6,a7
   1e4e4:	8107a023          	sw	a6,-2048(a5)
E:\02-项目\13-RISCV实验箱\模块驱动\19-LCD_ST7796U\AHL-CH32V307-LCD_ST7796U\Debug/srcc/spi.c:49
            gpio_ptr->CFGLR &= ~(GPIO_CFGLR_CNF5);
   1e4e8:	8007a803          	lw	a6,-2048(a5)
   1e4ec:	ff4008b7          	lui	a7,0xff400
   1e4f0:	18fd                	addi	a7,a7,-1
   1e4f2:	01187833          	and	a6,a6,a7
   1e4f6:	8107a023          	sw	a6,-2048(a5)
E:\02-项目\13-RISCV实验箱\模块驱动\19-LCD_ST7796U\AHL-CH32V307-LCD_ST7796U\Debug/srcc/spi.c:50
            gpio_ptr->CFGLR |= GPIO_CFGLR_CNF5_1;
   1e4fa:	8007a803          	lw	a6,-2048(a5)
   1e4fe:	008008b7          	lui	a7,0x800
   1e502:	01186833          	or	a6,a6,a7
   1e506:	8107a023          	sw	a6,-2048(a5)
E:\02-项目\13-RISCV实验箱\模块驱动\19-LCD_ST7796U\AHL-CH32V307-LCD_ST7796U\Debug/srcc/spi.c:53
            gpio_ptr->CFGLR &= ~(GPIO_CFGLR_MODE6);
   1e50a:	8007a803          	lw	a6,-2048(a5)
   1e50e:	fd0008b7          	lui	a7,0xfd000
   1e512:	18fd                	addi	a7,a7,-1
   1e514:	01187833          	and	a6,a6,a7
   1e518:	8107a023          	sw	a6,-2048(a5)
E:\02-项目\13-RISCV实验箱\模块驱动\19-LCD_ST7796U\AHL-CH32V307-LCD_ST7796U\Debug/srcc/spi.c:54
            gpio_ptr->CFGLR &= ~(GPIO_CFGLR_CNF6);
   1e51c:	8007a803          	lw	a6,-2048(a5)
   1e520:	f40008b7          	lui	a7,0xf4000
   1e524:	18fd                	addi	a7,a7,-1
   1e526:	01187833          	and	a6,a6,a7
   1e52a:	8107a023          	sw	a6,-2048(a5)
E:\02-项目\13-RISCV实验箱\模块驱动\19-LCD_ST7796U\AHL-CH32V307-LCD_ST7796U\Debug/srcc/spi.c:55
            gpio_ptr->CFGLR |= GPIO_CFGLR_CNF6_0;
   1e52e:	8007a803          	lw	a6,-2048(a5)
   1e532:	040008b7          	lui	a7,0x4000
   1e536:	01186833          	or	a6,a6,a7
   1e53a:	8107a023          	sw	a6,-2048(a5)
E:\02-项目\13-RISCV实验箱\模块驱动\19-LCD_ST7796U\AHL-CH32V307-LCD_ST7796U\Debug/srcc/spi.c:58
            gpio_ptr->CFGLR &= ~(GPIO_CFGLR_MODE7);
   1e53e:	8007a803          	lw	a6,-2048(a5)
   1e542:	d00008b7          	lui	a7,0xd0000
   1e546:	18fd                	addi	a7,a7,-1
   1e548:	01187833          	and	a6,a6,a7
   1e54c:	8107a023          	sw	a6,-2048(a5)
E:\02-项目\13-RISCV实验箱\模块驱动\19-LCD_ST7796U\AHL-CH32V307-LCD_ST7796U\Debug/srcc/spi.c:59
            gpio_ptr->CFGLR |= (GPIO_CFGLR_MODE7);
   1e550:	8007a803          	lw	a6,-2048(a5)
   1e554:	300008b7          	lui	a7,0x30000
   1e558:	01186833          	or	a6,a6,a7
   1e55c:	8107a023          	sw	a6,-2048(a5)
E:\02-项目\13-RISCV实验箱\模块驱动\19-LCD_ST7796U\AHL-CH32V307-LCD_ST7796U\Debug/srcc/spi.c:60
            gpio_ptr->CFGLR &= ~(GPIO_CFGLR_CNF7);
   1e560:	8007a803          	lw	a6,-2048(a5)
   1e564:	400008b7          	lui	a7,0x40000
   1e568:	18fd                	addi	a7,a7,-1
   1e56a:	01187833          	and	a6,a6,a7
   1e56e:	8107a023          	sw	a6,-2048(a5)
E:\02-项目\13-RISCV实验箱\模块驱动\19-LCD_ST7796U\AHL-CH32V307-LCD_ST7796U\Debug/srcc/spi.c:61
            gpio_ptr->CFGLR |= GPIO_CFGLR_CNF7_1;
   1e572:	8007a803          	lw	a6,-2048(a5)
   1e576:	800008b7          	lui	a7,0x80000
   1e57a:	01186833          	or	a6,a6,a7
   1e57e:	8107a023          	sw	a6,-2048(a5)
   1e582:	bd35                	j	1e3be <spi_init+0x234>
E:\02-项目\13-RISCV实验箱\模块驱动\19-LCD_ST7796U\AHL-CH32V307-LCD_ST7796U\Debug/srcc/spi.c:91
        RCC->APB1PCENR |= RCC_SPI2RST;
   1e584:	400217b7          	lui	a5,0x40021
   1e588:	01c7a803          	lw	a6,28(a5) # 4002101c <GEC_USER_RAM_END+0x2000101c>
   1e58c:	6891                	lui	a7,0x4
   1e58e:	01186833          	or	a6,a6,a7
   1e592:	0107ae23          	sw	a6,28(a5)
E:\02-项目\13-RISCV实验箱\模块驱动\19-LCD_ST7796U\AHL-CH32V307-LCD_ST7796U\Debug/srcc/spi.c:92
        RCC->APB2PCENR |= RCC_IOPBEN;
   1e596:	0187a803          	lw	a6,24(a5)
   1e59a:	00886813          	ori	a6,a6,8
   1e59e:	0107ac23          	sw	a6,24(a5)
E:\02-项目\13-RISCV实验箱\模块驱动\19-LCD_ST7796U\AHL-CH32V307-LCD_ST7796U\Debug/srcc/spi.c:94
        if(MSTR == 1)    //主机模式
   1e5a2:	4785                	li	a5,1
   1e5a4:	0ef58963          	beq	a1,a5,1e696 <spi_init+0x50c>
E:\02-项目\13-RISCV实验箱\模块驱动\19-LCD_ST7796U\AHL-CH32V307-LCD_ST7796U\Debug/srcc/spi.c:124
            gpio_ptr->CFGHR &= ~(GPIO_CFGHR_MODE12);
   1e5a8:	400117b7          	lui	a5,0x40011
   1e5ac:	c0078793          	addi	a5,a5,-1024 # 40010c00 <GEC_USER_RAM_END+0x1fff0c00>
   1e5b0:	0047a803          	lw	a6,4(a5)
   1e5b4:	fffd08b7          	lui	a7,0xfffd0
   1e5b8:	18fd                	addi	a7,a7,-1
   1e5ba:	01187833          	and	a6,a6,a7
   1e5be:	0107a223          	sw	a6,4(a5)
E:\02-项目\13-RISCV实验箱\模块驱动\19-LCD_ST7796U\AHL-CH32V307-LCD_ST7796U\Debug/srcc/spi.c:125
            gpio_ptr->CFGHR &= ~(GPIO_CFGHR_CNF12);
   1e5c2:	0047a803          	lw	a6,4(a5)
   1e5c6:	fff408b7          	lui	a7,0xfff40
   1e5ca:	18fd                	addi	a7,a7,-1
   1e5cc:	01187833          	and	a6,a6,a7
   1e5d0:	0107a223          	sw	a6,4(a5)
E:\02-项目\13-RISCV实验箱\模块驱动\19-LCD_ST7796U\AHL-CH32V307-LCD_ST7796U\Debug/srcc/spi.c:126
            gpio_ptr->CFGHR |= GPIO_CFGHR_CNF12_1;
   1e5d4:	0047a803          	lw	a6,4(a5)
   1e5d8:	000808b7          	lui	a7,0x80
   1e5dc:	01186833          	or	a6,a6,a7
   1e5e0:	0107a223          	sw	a6,4(a5)
E:\02-项目\13-RISCV实验箱\模块驱动\19-LCD_ST7796U\AHL-CH32V307-LCD_ST7796U\Debug/srcc/spi.c:127
            gpio_ptr->BCR = (((uint32_t)0x01) << 12);
   1e5e4:	6805                	lui	a6,0x1
   1e5e6:	0107aa23          	sw	a6,20(a5)
E:\02-项目\13-RISCV实验箱\模块驱动\19-LCD_ST7796U\AHL-CH32V307-LCD_ST7796U\Debug/srcc/spi.c:130
            gpio_ptr->CFGHR &= ~(GPIO_CFGHR_MODE13);
   1e5ea:	0047a803          	lw	a6,4(a5)
   1e5ee:	ffd008b7          	lui	a7,0xffd00
   1e5f2:	18fd                	addi	a7,a7,-1
   1e5f4:	01187833          	and	a6,a6,a7
   1e5f8:	0107a223          	sw	a6,4(a5)
E:\02-项目\13-RISCV实验箱\模块驱动\19-LCD_ST7796U\AHL-CH32V307-LCD_ST7796U\Debug/srcc/spi.c:131
            gpio_ptr->CFGHR &= ~(GPIO_CFGHR_CNF13);
   1e5fc:	0047a803          	lw	a6,4(a5)
   1e600:	ff4008b7          	lui	a7,0xff400
   1e604:	18fd                	addi	a7,a7,-1
   1e606:	01187833          	and	a6,a6,a7
   1e60a:	0107a223          	sw	a6,4(a5)
E:\02-项目\13-RISCV实验箱\模块驱动\19-LCD_ST7796U\AHL-CH32V307-LCD_ST7796U\Debug/srcc/spi.c:132
            gpio_ptr->CFGHR |= GPIO_CFGHR_CNF13_0;
   1e60e:	0047a803          	lw	a6,4(a5)
   1e612:	004008b7          	lui	a7,0x400
   1e616:	01186833          	or	a6,a6,a7
   1e61a:	0107a223          	sw	a6,4(a5)
E:\02-项目\13-RISCV实验箱\模块驱动\19-LCD_ST7796U\AHL-CH32V307-LCD_ST7796U\Debug/srcc/spi.c:135
            gpio_ptr->CFGHR &= ~(GPIO_CFGHR_MODE14);
   1e61e:	0047a803          	lw	a6,4(a5)
   1e622:	fd0008b7          	lui	a7,0xfd000
   1e626:	18fd                	addi	a7,a7,-1
   1e628:	01187833          	and	a6,a6,a7
   1e62c:	0107a223          	sw	a6,4(a5)
E:\02-项目\13-RISCV实验箱\模块驱动\19-LCD_ST7796U\AHL-CH32V307-LCD_ST7796U\Debug/srcc/spi.c:136
            gpio_ptr->CFGHR |= (GPIO_CFGHR_MODE14);
   1e630:	0047a803          	lw	a6,4(a5)
   1e634:	030008b7          	lui	a7,0x3000
   1e638:	01186833          	or	a6,a6,a7
   1e63c:	0107a223          	sw	a6,4(a5)
E:\02-项目\13-RISCV实验箱\模块驱动\19-LCD_ST7796U\AHL-CH32V307-LCD_ST7796U\Debug/srcc/spi.c:137
            gpio_ptr->CFGHR &= ~(GPIO_CFGHR_CNF14);
   1e640:	0047a803          	lw	a6,4(a5)
   1e644:	f40008b7          	lui	a7,0xf4000
   1e648:	18fd                	addi	a7,a7,-1
   1e64a:	01187833          	and	a6,a6,a7
   1e64e:	0107a223          	sw	a6,4(a5)
E:\02-项目\13-RISCV实验箱\模块驱动\19-LCD_ST7796U\AHL-CH32V307-LCD_ST7796U\Debug/srcc/spi.c:138
            gpio_ptr->CFGHR |= GPIO_CFGHR_CNF14_1;
   1e652:	0047a803          	lw	a6,4(a5)
   1e656:	080008b7          	lui	a7,0x8000
   1e65a:	01186833          	or	a6,a6,a7
   1e65e:	0107a223          	sw	a6,4(a5)
E:\02-项目\13-RISCV实验箱\模块驱动\19-LCD_ST7796U\AHL-CH32V307-LCD_ST7796U\Debug/srcc/spi.c:141
            gpio_ptr->CFGHR &= ~(GPIO_CFGHR_MODE15);
   1e662:	0047a803          	lw	a6,4(a5)
   1e666:	d00008b7          	lui	a7,0xd0000
   1e66a:	18fd                	addi	a7,a7,-1
   1e66c:	01187833          	and	a6,a6,a7
   1e670:	0107a223          	sw	a6,4(a5)
E:\02-项目\13-RISCV实验箱\模块驱动\19-LCD_ST7796U\AHL-CH32V307-LCD_ST7796U\Debug/srcc/spi.c:142
            gpio_ptr->CFGHR &= ~(GPIO_CFGHR_CNF15);
   1e674:	0047a883          	lw	a7,4(a5)
   1e678:	40000337          	lui	t1,0x40000
   1e67c:	fff30813          	addi	a6,t1,-1 # 3fffffff <GEC_USER_RAM_END+0x1ffdffff>
   1e680:	0108f8b3          	and	a7,a7,a6
   1e684:	0117a223          	sw	a7,4(a5)
E:\02-项目\13-RISCV实验箱\模块驱动\19-LCD_ST7796U\AHL-CH32V307-LCD_ST7796U\Debug/srcc/spi.c:143
            gpio_ptr->CFGHR |= GPIO_CFGHR_CNF15_0;
   1e688:	0047a803          	lw	a6,4(a5)
   1e68c:	00686833          	or	a6,a6,t1
   1e690:	0107a223          	sw	a6,4(a5)
   1e694:	b32d                	j	1e3be <spi_init+0x234>
E:\02-项目\13-RISCV实验箱\模块驱动\19-LCD_ST7796U\AHL-CH32V307-LCD_ST7796U\Debug/srcc/spi.c:98
            gpio_ptr->CFGHR &= ~(GPIO_CFGHR_MODE12);
   1e696:	400117b7          	lui	a5,0x40011
   1e69a:	c0078793          	addi	a5,a5,-1024 # 40010c00 <GEC_USER_RAM_END+0x1fff0c00>
   1e69e:	0047a803          	lw	a6,4(a5)
   1e6a2:	fffd08b7          	lui	a7,0xfffd0
   1e6a6:	18fd                	addi	a7,a7,-1
   1e6a8:	01187833          	and	a6,a6,a7
   1e6ac:	0107a223          	sw	a6,4(a5)
E:\02-项目\13-RISCV实验箱\模块驱动\19-LCD_ST7796U\AHL-CH32V307-LCD_ST7796U\Debug/srcc/spi.c:99
            gpio_ptr->CFGHR |= GPIO_CFGHR_MODE12;
   1e6b0:	0047a803          	lw	a6,4(a5)
   1e6b4:	000308b7          	lui	a7,0x30
   1e6b8:	01186833          	or	a6,a6,a7
   1e6bc:	0107a223          	sw	a6,4(a5)
E:\02-项目\13-RISCV实验箱\模块驱动\19-LCD_ST7796U\AHL-CH32V307-LCD_ST7796U\Debug/srcc/spi.c:100
            gpio_ptr->CFGHR &= ~(GPIO_CFGHR_CNF12);
   1e6c0:	0047a803          	lw	a6,4(a5)
   1e6c4:	fff408b7          	lui	a7,0xfff40
   1e6c8:	18fd                	addi	a7,a7,-1
   1e6ca:	01187833          	and	a6,a6,a7
   1e6ce:	0107a223          	sw	a6,4(a5)
E:\02-项目\13-RISCV实验箱\模块驱动\19-LCD_ST7796U\AHL-CH32V307-LCD_ST7796U\Debug/srcc/spi.c:101
            gpio_ptr->BSHR = (((uint32_t)0x01) << 12);
   1e6d2:	6805                	lui	a6,0x1
   1e6d4:	0107a823          	sw	a6,16(a5)
E:\02-项目\13-RISCV实验箱\模块驱动\19-LCD_ST7796U\AHL-CH32V307-LCD_ST7796U\Debug/srcc/spi.c:104
            gpio_ptr->CFGHR &= ~(GPIO_CFGHR_MODE13);
   1e6d8:	0047a803          	lw	a6,4(a5)
   1e6dc:	ffd008b7          	lui	a7,0xffd00
   1e6e0:	18fd                	addi	a7,a7,-1
   1e6e2:	01187833          	and	a6,a6,a7
   1e6e6:	0107a223          	sw	a6,4(a5)
E:\02-项目\13-RISCV实验箱\模块驱动\19-LCD_ST7796U\AHL-CH32V307-LCD_ST7796U\Debug/srcc/spi.c:105
            gpio_ptr->CFGHR |= (GPIO_CFGHR_MODE13);
   1e6ea:	0047a803          	lw	a6,4(a5)
   1e6ee:	003008b7          	lui	a7,0x300
   1e6f2:	01186833          	or	a6,a6,a7
   1e6f6:	0107a223          	sw	a6,4(a5)
E:\02-项目\13-RISCV实验箱\模块驱动\19-LCD_ST7796U\AHL-CH32V307-LCD_ST7796U\Debug/srcc/spi.c:106
            gpio_ptr->CFGHR &= ~(GPIO_CFGHR_CNF13);
   1e6fa:	0047a803          	lw	a6,4(a5)
   1e6fe:	ff4008b7          	lui	a7,0xff400
   1e702:	18fd                	addi	a7,a7,-1
   1e704:	01187833          	and	a6,a6,a7
   1e708:	0107a223          	sw	a6,4(a5)
E:\02-项目\13-RISCV实验箱\模块驱动\19-LCD_ST7796U\AHL-CH32V307-LCD_ST7796U\Debug/srcc/spi.c:107
            gpio_ptr->CFGHR |= GPIO_CFGHR_CNF13_1;
   1e70c:	0047a803          	lw	a6,4(a5)
   1e710:	008008b7          	lui	a7,0x800
   1e714:	01186833          	or	a6,a6,a7
   1e718:	0107a223          	sw	a6,4(a5)
E:\02-项目\13-RISCV实验箱\模块驱动\19-LCD_ST7796U\AHL-CH32V307-LCD_ST7796U\Debug/srcc/spi.c:110
            gpio_ptr->CFGHR &= ~(GPIO_CFGHR_MODE14);
   1e71c:	0047a803          	lw	a6,4(a5)
   1e720:	fd0008b7          	lui	a7,0xfd000
   1e724:	18fd                	addi	a7,a7,-1
   1e726:	01187833          	and	a6,a6,a7
   1e72a:	0107a223          	sw	a6,4(a5)
E:\02-项目\13-RISCV实验箱\模块驱动\19-LCD_ST7796U\AHL-CH32V307-LCD_ST7796U\Debug/srcc/spi.c:111
            gpio_ptr->CFGHR &= ~(GPIO_CFGHR_CNF14);
   1e72e:	0047a803          	lw	a6,4(a5)
   1e732:	f40008b7          	lui	a7,0xf4000
   1e736:	18fd                	addi	a7,a7,-1
   1e738:	01187833          	and	a6,a6,a7
   1e73c:	0107a223          	sw	a6,4(a5)
E:\02-项目\13-RISCV实验箱\模块驱动\19-LCD_ST7796U\AHL-CH32V307-LCD_ST7796U\Debug/srcc/spi.c:112
            gpio_ptr->CFGHR |= GPIO_CFGHR_CNF14_0;
   1e740:	0047a803          	lw	a6,4(a5)
   1e744:	040008b7          	lui	a7,0x4000
   1e748:	01186833          	or	a6,a6,a7
   1e74c:	0107a223          	sw	a6,4(a5)
E:\02-项目\13-RISCV实验箱\模块驱动\19-LCD_ST7796U\AHL-CH32V307-LCD_ST7796U\Debug/srcc/spi.c:115
            gpio_ptr->CFGHR &= ~(GPIO_CFGHR_MODE15);
   1e750:	0047a803          	lw	a6,4(a5)
   1e754:	d00008b7          	lui	a7,0xd0000
   1e758:	18fd                	addi	a7,a7,-1
   1e75a:	01187833          	and	a6,a6,a7
   1e75e:	0107a223          	sw	a6,4(a5)
E:\02-项目\13-RISCV实验箱\模块驱动\19-LCD_ST7796U\AHL-CH32V307-LCD_ST7796U\Debug/srcc/spi.c:116
            gpio_ptr->CFGHR |= (GPIO_CFGHR_MODE15);
   1e762:	0047a803          	lw	a6,4(a5)
   1e766:	300008b7          	lui	a7,0x30000
   1e76a:	01186833          	or	a6,a6,a7
   1e76e:	0107a223          	sw	a6,4(a5)
E:\02-项目\13-RISCV实验箱\模块驱动\19-LCD_ST7796U\AHL-CH32V307-LCD_ST7796U\Debug/srcc/spi.c:117
            gpio_ptr->CFGHR &= ~(GPIO_CFGHR_CNF15);
   1e772:	0047a803          	lw	a6,4(a5)
   1e776:	400008b7          	lui	a7,0x40000
   1e77a:	18fd                	addi	a7,a7,-1
   1e77c:	01187833          	and	a6,a6,a7
   1e780:	0107a223          	sw	a6,4(a5)
E:\02-项目\13-RISCV实验箱\模块驱动\19-LCD_ST7796U\AHL-CH32V307-LCD_ST7796U\Debug/srcc/spi.c:118
            gpio_ptr->CFGHR |= GPIO_CFGHR_CNF15_1;
   1e784:	0047a803          	lw	a6,4(a5)
   1e788:	800008b7          	lui	a7,0x80000
   1e78c:	01186833          	or	a6,a6,a7
   1e790:	0107a223          	sw	a6,4(a5)
   1e794:	b12d                	j	1e3be <spi_init+0x234>
E:\02-项目\13-RISCV实验箱\模块驱动\19-LCD_ST7796U\AHL-CH32V307-LCD_ST7796U\Debug/srcc/spi.c:155
            GPIOA->CFGHR &= ~(GPIO_CFGHR_MODE15);
   1e796:	400117b7          	lui	a5,0x40011
   1e79a:	8047a883          	lw	a7,-2044(a5) # 40010804 <GEC_USER_RAM_END+0x1fff0804>
   1e79e:	d0000337          	lui	t1,0xd0000
   1e7a2:	137d                	addi	t1,t1,-1
   1e7a4:	0068f8b3          	and	a7,a7,t1
   1e7a8:	8117a223          	sw	a7,-2044(a5)
E:\02-项目\13-RISCV实验箱\模块驱动\19-LCD_ST7796U\AHL-CH32V307-LCD_ST7796U\Debug/srcc/spi.c:156
            GPIOA->CFGHR |= GPIO_CFGHR_MODE15;
   1e7ac:	8047a883          	lw	a7,-2044(a5)
   1e7b0:	30000337          	lui	t1,0x30000
   1e7b4:	0068e8b3          	or	a7,a7,t1
   1e7b8:	8117a223          	sw	a7,-2044(a5)
E:\02-项目\13-RISCV实验箱\模块驱动\19-LCD_ST7796U\AHL-CH32V307-LCD_ST7796U\Debug/srcc/spi.c:157
            GPIOA->CFGHR &= ~(GPIO_CFGHR_CNF15);
   1e7bc:	8047a883          	lw	a7,-2044(a5)
   1e7c0:	40000337          	lui	t1,0x40000
   1e7c4:	137d                	addi	t1,t1,-1
   1e7c6:	0068f8b3          	and	a7,a7,t1
   1e7ca:	8117a223          	sw	a7,-2044(a5)
E:\02-项目\13-RISCV实验箱\模块驱动\19-LCD_ST7796U\AHL-CH32V307-LCD_ST7796U\Debug/srcc/spi.c:158
            GPIOA->BSHR = (((uint32_t)0x01) << 15);
   1e7ce:	6321                	lui	t1,0x8
   1e7d0:	8067a823          	sw	t1,-2032(a5)
E:\02-项目\13-RISCV实验箱\模块驱动\19-LCD_ST7796U\AHL-CH32V307-LCD_ST7796U\Debug/srcc/spi.c:161
            gpio_ptr->CFGLR &= ~(GPIO_CFGLR_MODE3);
   1e7d4:	c007a803          	lw	a6,-1024(a5)
   1e7d8:	78f5                	lui	a7,0xffffd
   1e7da:	18fd                	addi	a7,a7,-1
   1e7dc:	01187833          	and	a6,a6,a7
   1e7e0:	c107a023          	sw	a6,-1024(a5)
E:\02-项目\13-RISCV实验箱\模块驱动\19-LCD_ST7796U\AHL-CH32V307-LCD_ST7796U\Debug/srcc/spi.c:162
            gpio_ptr->CFGLR |= (GPIO_CFGLR_MODE3);
   1e7e4:	c007a803          	lw	a6,-1024(a5)
   1e7e8:	688d                	lui	a7,0x3
   1e7ea:	01186833          	or	a6,a6,a7
   1e7ee:	c107a023          	sw	a6,-1024(a5)
E:\02-项目\13-RISCV实验箱\模块驱动\19-LCD_ST7796U\AHL-CH32V307-LCD_ST7796U\Debug/srcc/spi.c:163
            gpio_ptr->CFGLR &= ~(GPIO_CFGLR_CNF3);
   1e7f2:	c007a803          	lw	a6,-1024(a5)
   1e7f6:	78d1                	lui	a7,0xffff4
   1e7f8:	18fd                	addi	a7,a7,-1
   1e7fa:	01187833          	and	a6,a6,a7
   1e7fe:	c107a023          	sw	a6,-1024(a5)
E:\02-项目\13-RISCV实验箱\模块驱动\19-LCD_ST7796U\AHL-CH32V307-LCD_ST7796U\Debug/srcc/spi.c:164
            gpio_ptr->CFGLR |= GPIO_CFGLR_CNF3_1;
   1e802:	c007a803          	lw	a6,-1024(a5)
   1e806:	00686833          	or	a6,a6,t1
   1e80a:	c107a023          	sw	a6,-1024(a5)
E:\02-项目\13-RISCV实验箱\模块驱动\19-LCD_ST7796U\AHL-CH32V307-LCD_ST7796U\Debug/srcc/spi.c:167
            gpio_ptr->CFGLR &= ~(GPIO_CFGLR_MODE4);
   1e80e:	c007a803          	lw	a6,-1024(a5)
   1e812:	fffd08b7          	lui	a7,0xfffd0
   1e816:	18fd                	addi	a7,a7,-1
   1e818:	01187833          	and	a6,a6,a7
   1e81c:	c107a023          	sw	a6,-1024(a5)
E:\02-项目\13-RISCV实验箱\模块驱动\19-LCD_ST7796U\AHL-CH32V307-LCD_ST7796U\Debug/srcc/spi.c:168
            gpio_ptr->CFGLR &= ~(GPIO_CFGLR_CNF4);
   1e820:	c007a803          	lw	a6,-1024(a5)
   1e824:	fff408b7          	lui	a7,0xfff40
   1e828:	18fd                	addi	a7,a7,-1
   1e82a:	01187833          	and	a6,a6,a7
   1e82e:	c107a023          	sw	a6,-1024(a5)
E:\02-项目\13-RISCV实验箱\模块驱动\19-LCD_ST7796U\AHL-CH32V307-LCD_ST7796U\Debug/srcc/spi.c:169
            gpio_ptr->CFGLR |= GPIO_CFGLR_CNF4_0;
   1e832:	c007a803          	lw	a6,-1024(a5)
   1e836:	000408b7          	lui	a7,0x40
   1e83a:	01186833          	or	a6,a6,a7
   1e83e:	c107a023          	sw	a6,-1024(a5)
E:\02-项目\13-RISCV实验箱\模块驱动\19-LCD_ST7796U\AHL-CH32V307-LCD_ST7796U\Debug/srcc/spi.c:172
            gpio_ptr->CFGLR &= ~(GPIO_CFGLR_MODE5);
   1e842:	c007a803          	lw	a6,-1024(a5)
   1e846:	ffd008b7          	lui	a7,0xffd00
   1e84a:	18fd                	addi	a7,a7,-1
   1e84c:	01187833          	and	a6,a6,a7
   1e850:	c107a023          	sw	a6,-1024(a5)
E:\02-项目\13-RISCV实验箱\模块驱动\19-LCD_ST7796U\AHL-CH32V307-LCD_ST7796U\Debug/srcc/spi.c:173
            gpio_ptr->CFGLR |= (GPIO_CFGLR_MODE5);
   1e854:	c007a803          	lw	a6,-1024(a5)
   1e858:	003008b7          	lui	a7,0x300
   1e85c:	01186833          	or	a6,a6,a7
   1e860:	c107a023          	sw	a6,-1024(a5)
E:\02-项目\13-RISCV实验箱\模块驱动\19-LCD_ST7796U\AHL-CH32V307-LCD_ST7796U\Debug/srcc/spi.c:174
            gpio_ptr->CFGLR &= ~(GPIO_CFGLR_CNF5);
   1e864:	c007a803          	lw	a6,-1024(a5)
   1e868:	ff4008b7          	lui	a7,0xff400
   1e86c:	18fd                	addi	a7,a7,-1
   1e86e:	01187833          	and	a6,a6,a7
   1e872:	c107a023          	sw	a6,-1024(a5)
E:\02-项目\13-RISCV实验箱\模块驱动\19-LCD_ST7796U\AHL-CH32V307-LCD_ST7796U\Debug/srcc/spi.c:175
            gpio_ptr->CFGLR |= GPIO_CFGLR_CNF5_1;
   1e876:	c007a803          	lw	a6,-1024(a5)
   1e87a:	008008b7          	lui	a7,0x800
   1e87e:	01186833          	or	a6,a6,a7
   1e882:	c107a023          	sw	a6,-1024(a5)
   1e886:	be25                	j	1e3be <spi_init+0x234>
E:\02-项目\13-RISCV实验箱\模块驱动\19-LCD_ST7796U\AHL-CH32V307-LCD_ST7796U\Debug/srcc/spi.c:215
        if(No == SPI_1)
   1e888:	e11d                	bnez	a0,1e8ae <spi_init+0x724>
E:\02-项目\13-RISCV实验箱\模块驱动\19-LCD_ST7796U\AHL-CH32V307-LCD_ST7796U\Debug/srcc/spi.c:217
            Freq_div = SystemCoreClock/4/BaudRate;
   1e88a:	200057b7          	lui	a5,0x20005
   1e88e:	0807a703          	lw	a4,128(a5) # 20005080 <SystemCoreClock>
   1e892:	8309                	srli	a4,a4,0x2
   1e894:	02c75733          	divu	a4,a4,a2
   1e898:	0742                	slli	a4,a4,0x10
   1e89a:	8341                	srli	a4,a4,0x10
E:\02-项目\13-RISCV实验箱\模块驱动\19-LCD_ST7796U\AHL-CH32V307-LCD_ST7796U\Debug/srcc/spi.c:29
    if(No<SPI_1||No>SPI_3)   No=SPI_1;    //如果SPI号参数错误则强制选择 SPI1
   1e89c:	4781                	li	a5,0
E:\02-项目\13-RISCV实验箱\模块驱动\19-LCD_ST7796U\AHL-CH32V307-LCD_ST7796U\Debug/srcc/spi.c:224
        while(Freq_div/2 >= 2)
   1e89e:	468d                	li	a3,3
   1e8a0:	02e6f163          	bgeu	a3,a4,1e8c2 <spi_init+0x738>
E:\02-项目\13-RISCV实验箱\模块驱动\19-LCD_ST7796U\AHL-CH32V307-LCD_ST7796U\Debug/srcc/spi.c:226
            BaudRate_Mode++;
   1e8a4:	0785                	addi	a5,a5,1
   1e8a6:	0ff7f793          	andi	a5,a5,255
E:\02-项目\13-RISCV实验箱\模块驱动\19-LCD_ST7796U\AHL-CH32V307-LCD_ST7796U\Debug/srcc/spi.c:227
            Freq_div = Freq_div/2;
   1e8aa:	8305                	srli	a4,a4,0x1
   1e8ac:	bfcd                	j	1e89e <spi_init+0x714>
E:\02-项目\13-RISCV实验箱\模块驱动\19-LCD_ST7796U\AHL-CH32V307-LCD_ST7796U\Debug/srcc/spi.c:221
            Freq_div = SystemCoreClock/2/BaudRate;
   1e8ae:	200057b7          	lui	a5,0x20005
   1e8b2:	0807a703          	lw	a4,128(a5) # 20005080 <SystemCoreClock>
   1e8b6:	8305                	srli	a4,a4,0x1
   1e8b8:	02c75733          	divu	a4,a4,a2
   1e8bc:	0742                	slli	a4,a4,0x10
   1e8be:	8341                	srli	a4,a4,0x10
   1e8c0:	bff1                	j	1e89c <spi_init+0x712>
E:\02-项目\13-RISCV实验箱\模块驱动\19-LCD_ST7796U\AHL-CH32V307-LCD_ST7796U\Debug/srcc/spi.c:229
        SPI_ARR[No]->CTLR1 |= (BaudRate_Mode<<3);
   1e8c2:	00289713          	slli	a4,a7,0x2
   1e8c6:	200056b7          	lui	a3,0x20005
   1e8ca:	03068693          	addi	a3,a3,48 # 20005030 <SPI_ARR>
   1e8ce:	9736                	add	a4,a4,a3
   1e8d0:	4314                	lw	a3,0(a4)
   1e8d2:	0006d603          	lhu	a2,0(a3)
   1e8d6:	078e                	slli	a5,a5,0x3
   1e8d8:	8fd1                	or	a5,a5,a2
   1e8da:	00f69023          	sh	a5,0(a3)
E:\02-项目\13-RISCV实验箱\模块驱动\19-LCD_ST7796U\AHL-CH32V307-LCD_ST7796U\Debug/srcc/spi.c:231
        SPI_ARR[No]->CTLR1 |= SPI_CTLR1_SSI;                //配置NSS引脚为高电平
   1e8de:	4314                	lw	a3,0(a4)
   1e8e0:	0006d783          	lhu	a5,0(a3)
   1e8e4:	1007e793          	ori	a5,a5,256
   1e8e8:	00f69023          	sh	a5,0(a3)
E:\02-项目\13-RISCV实验箱\模块驱动\19-LCD_ST7796U\AHL-CH32V307-LCD_ST7796U\Debug/srcc/spi.c:232
        SPI_ARR[No]->CTLR1 |= SPI_CTLR1_MSTR;               //配置为主机模式
   1e8ec:	4318                	lw	a4,0(a4)
   1e8ee:	00075783          	lhu	a5,0(a4)
   1e8f2:	0047e793          	ori	a5,a5,4
   1e8f6:	00f71023          	sh	a5,0(a4)
   1e8fa:	be8d                	j	1e46c <spi_init+0x2e2>

0001e8fc <spi_send1>:
spi_send1():
E:\02-项目\13-RISCV实验箱\模块驱动\19-LCD_ST7796U\AHL-CH32V307-LCD_ST7796U\Debug/srcc/spi.c:250
//函数参数：No：模块号，可用参数可参见gec.h文件
//       data：     需要发送的一字节数据。
//函数返回：0：发送失败；1：发送成功。
//=====================================================================
uint8_t spi_send1(uint8_t No,uint8_t data)
{
   1e8fc:	1141                	addi	sp,sp,-16
E:\02-项目\13-RISCV实验箱\模块驱动\19-LCD_ST7796U\AHL-CH32V307-LCD_ST7796U\Debug/srcc/spi.c:253
    volatile uint32_t i;

    i = 0;
   1e8fe:	c602                	sw	zero,12(sp)
E:\02-项目\13-RISCV实验箱\模块驱动\19-LCD_ST7796U\AHL-CH32V307-LCD_ST7796U\Debug/srcc/spi.c:255

    if(No<SPI_1||No>SPI_3)   return 0;  //如果SPI号参数错误则发送失败
   1e900:	4789                	li	a5,2
   1e902:	0aa7e063          	bltu	a5,a0,1e9a2 <spi_send1+0xa6>
E:\02-项目\13-RISCV实验箱\模块驱动\19-LCD_ST7796U\AHL-CH32V307-LCD_ST7796U\Debug/srcc/spi.c:258

    //若SPI未使能，则使能
    if ((SPI_ARR[No]->CTLR1 & SPI_CTLR1_SPE) != SPI_CTLR1_SPE)
   1e906:	86aa                	mv	a3,a0
   1e908:	050a                	slli	a0,a0,0x2
   1e90a:	200057b7          	lui	a5,0x20005
   1e90e:	03078793          	addi	a5,a5,48 # 20005030 <SPI_ARR>
   1e912:	953e                	add	a0,a0,a5
   1e914:	4118                	lw	a4,0(a0)
   1e916:	00075783          	lhu	a5,0(a4)
   1e91a:	0407f793          	andi	a5,a5,64
   1e91e:	e799                	bnez	a5,1e92c <spi_send1+0x30>
E:\02-项目\13-RISCV实验箱\模块驱动\19-LCD_ST7796U\AHL-CH32V307-LCD_ST7796U\Debug/srcc/spi.c:260
    {
        SPI_ARR[No]->CTLR1 |= SPI_CTLR1_SPE;
   1e920:	00075783          	lhu	a5,0(a4)
   1e924:	0407e793          	ori	a5,a5,64
   1e928:	00f71023          	sh	a5,0(a4)
E:\02-项目\13-RISCV实验箱\模块驱动\19-LCD_ST7796U\AHL-CH32V307-LCD_ST7796U\Debug/srcc/spi.c:263
    }
    //判断发送缓冲区是否为空。若为空，则发送数据
    while((SPI_ARR[No]->STATR & SPI_STATR_TXE) !=  SPI_STATR_TXE)
   1e92c:	00269793          	slli	a5,a3,0x2
   1e930:	20005737          	lui	a4,0x20005
   1e934:	03070713          	addi	a4,a4,48 # 20005030 <SPI_ARR>
   1e938:	97ba                	add	a5,a5,a4
   1e93a:	4398                	lw	a4,0(a5)
   1e93c:	00875783          	lhu	a5,8(a4)
   1e940:	8b89                	andi	a5,a5,2
   1e942:	eb99                	bnez	a5,1e958 <spi_send1+0x5c>
E:\02-项目\13-RISCV实验箱\模块驱动\19-LCD_ST7796U\AHL-CH32V307-LCD_ST7796U\Debug/srcc/spi.c:265
    {
        i++;
   1e944:	47b2                	lw	a5,12(sp)
   1e946:	0785                	addi	a5,a5,1
   1e948:	c63e                	sw	a5,12(sp)
E:\02-项目\13-RISCV实验箱\模块驱动\19-LCD_ST7796U\AHL-CH32V307-LCD_ST7796U\Debug/srcc/spi.c:266
        if(i>0xfffe) return 0;
   1e94a:	4732                	lw	a4,12(sp)
   1e94c:	67c1                	lui	a5,0x10
   1e94e:	17f9                	addi	a5,a5,-2
   1e950:	fce7fee3          	bgeu	a5,a4,1e92c <spi_send1+0x30>
   1e954:	4501                	li	a0,0
   1e956:	a0b9                	j	1e9a4 <spi_send1+0xa8>
E:\02-项目\13-RISCV实验箱\模块驱动\19-LCD_ST7796U\AHL-CH32V307-LCD_ST7796U\Debug/srcc/spi.c:268
    }
    *((__IO uint8_t *)&SPI_ARR[No]->DATAR) = data;
   1e958:	00b70623          	sb	a1,12(a4)
E:\02-项目\13-RISCV实验箱\模块驱动\19-LCD_ST7796U\AHL-CH32V307-LCD_ST7796U\Debug/srcc/spi.c:271
//    printf("1");
//    uart_send1(UART_1,data);
    i = 0;
   1e95c:	c602                	sw	zero,12(sp)
E:\02-项目\13-RISCV实验箱\模块驱动\19-LCD_ST7796U\AHL-CH32V307-LCD_ST7796U\Debug/srcc/spi.c:273
    //接收回发数据，防止发送缓冲区溢出
    while((SPI_ARR[No]->STATR & SPI_STATR_RXNE) !=  SPI_STATR_RXNE)
   1e95e:	00269793          	slli	a5,a3,0x2
   1e962:	20005737          	lui	a4,0x20005
   1e966:	03070713          	addi	a4,a4,48 # 20005030 <SPI_ARR>
   1e96a:	97ba                	add	a5,a5,a4
   1e96c:	4398                	lw	a4,0(a5)
   1e96e:	00875783          	lhu	a5,8(a4)
   1e972:	8b85                	andi	a5,a5,1
   1e974:	eb99                	bnez	a5,1e98a <spi_send1+0x8e>
E:\02-项目\13-RISCV实验箱\模块驱动\19-LCD_ST7796U\AHL-CH32V307-LCD_ST7796U\Debug/srcc/spi.c:275
    {
        i++;
   1e976:	47b2                	lw	a5,12(sp)
   1e978:	0785                	addi	a5,a5,1
   1e97a:	c63e                	sw	a5,12(sp)
E:\02-项目\13-RISCV实验箱\模块驱动\19-LCD_ST7796U\AHL-CH32V307-LCD_ST7796U\Debug/srcc/spi.c:276
        if(i>0xfffe) return 0;
   1e97c:	4732                	lw	a4,12(sp)
   1e97e:	67c1                	lui	a5,0x10
   1e980:	17f9                	addi	a5,a5,-2
   1e982:	fce7fee3          	bgeu	a5,a4,1e95e <spi_send1+0x62>
   1e986:	4501                	li	a0,0
   1e988:	a831                	j	1e9a4 <spi_send1+0xa8>
E:\02-项目\13-RISCV实验箱\模块驱动\19-LCD_ST7796U\AHL-CH32V307-LCD_ST7796U\Debug/srcc/spi.c:279
    }
    //读一次DR,SR，防止DR,SR不被清空
    i = SPI_ARR[No]->DATAR;
   1e98a:	00c75783          	lhu	a5,12(a4)
   1e98e:	07c2                	slli	a5,a5,0x10
   1e990:	83c1                	srli	a5,a5,0x10
   1e992:	c63e                	sw	a5,12(sp)
E:\02-项目\13-RISCV实验箱\模块驱动\19-LCD_ST7796U\AHL-CH32V307-LCD_ST7796U\Debug/srcc/spi.c:280
    i = SPI_ARR[No]->STATR;
   1e994:	00875783          	lhu	a5,8(a4)
   1e998:	07c2                	slli	a5,a5,0x10
   1e99a:	83c1                	srli	a5,a5,0x10
   1e99c:	c63e                	sw	a5,12(sp)
E:\02-项目\13-RISCV实验箱\模块驱动\19-LCD_ST7796U\AHL-CH32V307-LCD_ST7796U\Debug/srcc/spi.c:281
    return 1;
   1e99e:	4505                	li	a0,1
   1e9a0:	a011                	j	1e9a4 <spi_send1+0xa8>
E:\02-项目\13-RISCV实验箱\模块驱动\19-LCD_ST7796U\AHL-CH32V307-LCD_ST7796U\Debug/srcc/spi.c:255
    if(No<SPI_1||No>SPI_3)   return 0;  //如果SPI号参数错误则发送失败
   1e9a2:	4501                	li	a0,0
E:\02-项目\13-RISCV实验箱\模块驱动\19-LCD_ST7796U\AHL-CH32V307-LCD_ST7796U\Debug/srcc/spi.c:282
}
   1e9a4:	0141                	addi	sp,sp,16
   1e9a6:	8082                	ret

0001e9a8 <Vectors_Init>:
Vectors_Init():
E:\02-项目\13-RISCV实验箱\模块驱动\19-LCD_ST7796U\AHL-CH32V307-LCD_ST7796U\Debug/srcc/gec.c:16
//参数说明：无
//功能概要：User对BIOS中断向量表的部分继承,构件库函数指针初始化
//修改信息：WYH，20200805，规范
//======================================================================
void  Vectors_Init()
{
   1e9a8:	bf010113          	addi	sp,sp,-1040
   1e9ac:	40112623          	sw	ra,1036(sp)
E:\02-项目\13-RISCV实验箱\模块驱动\19-LCD_ST7796U\AHL-CH32V307-LCD_ST7796U\Debug/srcc/gec.c:20
    //有用户程序，编译本段代码
    #if (GEC_USER_SECTOR_START!=0)
    //（1）若Flash倒数1扇区的前24字节为空，则写入设备序列号及软件版本号初值
    if(flash_isempty(MCU_SECTOR_NUM-1,24))
   1e9b0:	45e1                	li	a1,24
   1e9b2:	77f00513          	li	a0,1919
   1e9b6:	a02ff0ef          	jal	ra,1dbb8 <flash_isempty>
   1e9ba:	e529                	bnez	a0,1ea04 <Vectors_Init+0x5c>
E:\02-项目\13-RISCV实验箱\模块驱动\19-LCD_ST7796U\AHL-CH32V307-LCD_ST7796U\Debug/srcc/gec.c:30

    //（2）继承BIOS的中断
    void ** bios = (void *)MCU_FLASH_ADDR_START;    //BIOS向量表起始地址
    uint32_t user[MCU_SECTORSIZE];                 //User向量表变量数组
    //（2.1）读取User程序的中断向量表各中断处理程序首地址赋并给user数组
    flash_read_physical((uint8_t *)user,GEC_USER_SECTOR_START*
   1e9bc:	20000613          	li	a2,512
   1e9c0:	0801c5b7          	lui	a1,0x801c
   1e9c4:	40058593          	addi	a1,a1,1024 # 801c400 <_data_lma+0x7ff9ea8>
   1e9c8:	850a                	mv	a0,sp
   1e9ca:	9e0ff0ef          	jal	ra,1dbaa <flash_read_physical>
E:\02-项目\13-RISCV实验箱\模块驱动\19-LCD_ST7796U\AHL-CH32V307-LCD_ST7796U\Debug/srcc/gec.c:33
               MCU_SECTORSIZE+MCU_FLASH_ADDR_START,MCU_SECTORSIZE*2);
 	//（2.2）读取User程序的中断向量表各中断处理程序首地址赋并给user数组
    if (user[BIOS_UPDATE_IRQn] != (uint32_t)bios[BIOS_UPDATE_IRQn])
   1e9ce:	10c12703          	lw	a4,268(sp)
   1e9d2:	080007b7          	lui	a5,0x8000
   1e9d6:	10c7a783          	lw	a5,268(a5) # 800010c <_data_lma+0x7fddbb4>
   1e9da:	04f71163          	bne	a4,a5,1ea1c <Vectors_Init+0x74>
E:\02-项目\13-RISCV实验箱\模块驱动\19-LCD_ST7796U\AHL-CH32V307-LCD_ST7796U\Debug/srcc/gec.c:54
        flash_write_physical(GEC_USER_SECTOR_START*MCU_SECTORSIZE+
               MCU_FLASH_ADDR_START,MCU_SECTORSIZE*2,(uint8_t *)user);
    }

    //（3）给component_fun赋值，SYSTEM_FUNCTION函数用
    component_fun=(void **)(MCU_FLASH_ADDR_START+GEC_COMPONENT_LST_START*MCU_SECTORSIZE);
   1e9de:	20007737          	lui	a4,0x20007
   1e9e2:	080117b7          	lui	a5,0x8011
   1e9e6:	40078793          	addi	a5,a5,1024 # 8011400 <_data_lma+0x7feeea8>
   1e9ea:	90f72623          	sw	a5,-1780(a4) # 2000690c <component_fun>
E:\02-项目\13-RISCV实验箱\模块驱动\19-LCD_ST7796U\AHL-CH32V307-LCD_ST7796U\Debug/srcc/gec.c:57

    //（4）printf提示
    printf("  【User提示】：将进入User的main函数执行...\r\n\n");
   1e9ee:	00022537          	lui	a0,0x22
   1e9f2:	c3850513          	addi	a0,a0,-968 # 21c38 <strlen+0x42c>
   1e9f6:	700010ef          	jal	ra,200f6 <myprintf>
E:\02-项目\13-RISCV实验箱\模块驱动\19-LCD_ST7796U\AHL-CH32V307-LCD_ST7796U\Debug/srcc/gec.c:60

    #endif
}
   1e9fa:	40c12083          	lw	ra,1036(sp)
   1e9fe:	41010113          	addi	sp,sp,1040
   1ea02:	8082                	ret
E:\02-项目\13-RISCV实验箱\模块驱动\19-LCD_ST7796U\AHL-CH32V307-LCD_ST7796U\Debug/srcc/gec.c:22
        flash_write_physical((MCU_SECTOR_NUM-1)*MCU_SECTORSIZE+
   1ea04:	00022637          	lui	a2,0x22
   1ea08:	c0060613          	addi	a2,a2,-1024 # 21c00 <strlen+0x3f4>
   1ea0c:	45e1                	li	a1,24
   1ea0e:	08078537          	lui	a0,0x8078
   1ea12:	f0050513          	addi	a0,a0,-256 # 8077f00 <_data_lma+0x80559a8>
   1ea16:	b42ff0ef          	jal	ra,1dd58 <flash_write_physical>
   1ea1a:	b74d                	j	1e9bc <Vectors_Init+0x14>
E:\02-项目\13-RISCV实验箱\模块驱动\19-LCD_ST7796U\AHL-CH32V307-LCD_ST7796U\Debug/srcc/gec.c:35
        printf("  【User提示】：中断继承\r\n");
   1ea1c:	00022537          	lui	a0,0x22
   1ea20:	c1c50513          	addi	a0,a0,-996 # 21c1c <strlen+0x410>
   1ea24:	6d2010ef          	jal	ra,200f6 <myprintf>
E:\02-项目\13-RISCV实验箱\模块驱动\19-LCD_ST7796U\AHL-CH32V307-LCD_ST7796U\Debug/srcc/gec.c:37
        flash_erase(GEC_USER_SECTOR_START);
   1ea28:	1c400513          	li	a0,452
   1ea2c:	90aff0ef          	jal	ra,1db36 <flash_erase>
E:\02-项目\13-RISCV实验箱\模块驱动\19-LCD_ST7796U\AHL-CH32V307-LCD_ST7796U\Debug/srcc/gec.c:38
        flash_erase(GEC_USER_SECTOR_START+1);
   1ea30:	1c500513          	li	a0,453
   1ea34:	902ff0ef          	jal	ra,1db36 <flash_erase>
E:\02-项目\13-RISCV实验箱\模块驱动\19-LCD_ST7796U\AHL-CH32V307-LCD_ST7796U\Debug/srcc/gec.c:42
        user[BIOS_UPDATE_IRQn]=(uint32_t)bios[BIOS_UPDATE_IRQn];
   1ea38:	080007b7          	lui	a5,0x8000
   1ea3c:	10c7a783          	lw	a5,268(a5) # 800010c <_data_lma+0x7fddbb4>
   1ea40:	10f12623          	sw	a5,268(sp)
E:\02-项目\13-RISCV实验箱\模块驱动\19-LCD_ST7796U\AHL-CH32V307-LCD_ST7796U\Debug/srcc/gec.c:49
        flash_write_physical(GEC_USER_SECTOR_START*MCU_SECTORSIZE+
   1ea44:	860a                	mv	a2,sp
   1ea46:	20000593          	li	a1,512
   1ea4a:	0801c537          	lui	a0,0x801c
   1ea4e:	40050513          	addi	a0,a0,1024 # 801c400 <_data_lma+0x7ff9ea8>
   1ea52:	b06ff0ef          	jal	ra,1dd58 <flash_write_physical>
   1ea56:	b761                	j	1e9de <Vectors_Init+0x36>

0001ea58 <uart_is_uartNo>:
uart_is_uartNo():
E:\02-项目\13-RISCV实验箱\模块驱动\19-LCD_ST7796U\AHL-CH32V307-LCD_ST7796U\Debug/srcc/uart.c:708
//参数说明：串口号uartNo  :UART_1、UART_2、UART_3
//功能概要：为程序健壮性而判断uartNo是否在串口数字范围内
//=====================================================================
uint8_t uart_is_uartNo(uint8_t uartNo)
{
    if(uartNo < UART_1 || uartNo > UART_8)
   1ea58:	157d                	addi	a0,a0,-1
   1ea5a:	0ff57513          	andi	a0,a0,255
   1ea5e:	479d                	li	a5,7
   1ea60:	00a7f463          	bgeu	a5,a0,1ea68 <uart_is_uartNo+0x10>
E:\02-项目\13-RISCV实验箱\模块驱动\19-LCD_ST7796U\AHL-CH32V307-LCD_ST7796U\Debug/srcc/uart.c:709
        return 0;
   1ea64:	4501                	li	a0,0
   1ea66:	8082                	ret
E:\02-项目\13-RISCV实验箱\模块驱动\19-LCD_ST7796U\AHL-CH32V307-LCD_ST7796U\Debug/srcc/uart.c:711
    else
        return 1;
   1ea68:	4505                	li	a0,1
E:\02-项目\13-RISCV实验箱\模块驱动\19-LCD_ST7796U\AHL-CH32V307-LCD_ST7796U\Debug/srcc/uart.c:712
}
   1ea6a:	8082                	ret

0001ea6c <uart_init>:
uart_init():
E:\02-项目\13-RISCV实验箱\模块驱动\19-LCD_ST7796U\AHL-CH32V307-LCD_ST7796U\Debug/srcc/uart.c:32
{
   1ea6c:	1141                	addi	sp,sp,-16
   1ea6e:	c606                	sw	ra,12(sp)
   1ea70:	c422                	sw	s0,8(sp)
   1ea72:	c226                	sw	s1,4(sp)
   1ea74:	84aa                	mv	s1,a0
   1ea76:	842e                	mv	s0,a1
E:\02-项目\13-RISCV实验箱\模块驱动\19-LCD_ST7796U\AHL-CH32V307-LCD_ST7796U\Debug/srcc/uart.c:36
    if(!uart_is_uartNo(uartNo))
   1ea78:	37c5                	jal	1ea58 <uart_is_uartNo>
   1ea7a:	14050063          	beqz	a0,1ebba <uart_init+0x14e>
E:\02-项目\13-RISCV实验箱\模块驱动\19-LCD_ST7796U\AHL-CH32V307-LCD_ST7796U\Debug/srcc/uart.c:42
    switch(uartNo)
   1ea7e:	47a1                	li	a5,8
   1ea80:	0497ee63          	bltu	a5,s1,1eadc <uart_init+0x70>
   1ea84:	00249793          	slli	a5,s1,0x2
   1ea88:	00022737          	lui	a4,0x22
   1ea8c:	c6870713          	addi	a4,a4,-920 # 21c68 <strlen+0x45c>
   1ea90:	97ba                	add	a5,a5,a4
   1ea92:	439c                	lw	a5,0(a5)
   1ea94:	8782                	jr	a5
E:\02-项目\13-RISCV实验箱\模块驱动\19-LCD_ST7796U\AHL-CH32V307-LCD_ST7796U\Debug/srcc/uart.c:51
            RCC->APB2PCENR |= RCC_USART1EN;
   1ea96:	400217b7          	lui	a5,0x40021
   1ea9a:	4f98                	lw	a4,24(a5)
   1ea9c:	6691                	lui	a3,0x4
   1ea9e:	8f55                	or	a4,a4,a3
   1eaa0:	cf98                	sw	a4,24(a5)
E:\02-项目\13-RISCV实验箱\模块驱动\19-LCD_ST7796U\AHL-CH32V307-LCD_ST7796U\Debug/srcc/uart.c:52
            RCC->APB2PCENR |= RCC_AFIOEN;
   1eaa2:	4f98                	lw	a4,24(a5)
   1eaa4:	00176713          	ori	a4,a4,1
   1eaa8:	cf98                	sw	a4,24(a5)
E:\02-项目\13-RISCV实验箱\模块驱动\19-LCD_ST7796U\AHL-CH32V307-LCD_ST7796U\Debug/srcc/uart.c:53
            RCC->APB2PCENR |= RCC_IOPAEN;
   1eaaa:	4f98                	lw	a4,24(a5)
   1eaac:	00476713          	ori	a4,a4,4
   1eab0:	cf98                	sw	a4,24(a5)
E:\02-项目\13-RISCV实验箱\模块驱动\19-LCD_ST7796U\AHL-CH32V307-LCD_ST7796U\Debug/srcc/uart.c:55
            GPIOA->CFGHR &= ~(GPIO_CFGHR_MODE9|GPIO_CFGHR_CNF9|GPIO_CFGHR_CNF10|GPIO_CFGHR_MODE10);
   1eab2:	400117b7          	lui	a5,0x40011
   1eab6:	8047a703          	lw	a4,-2044(a5) # 40010804 <GEC_USER_RAM_END+0x1fff0804>
   1eaba:	76fd                	lui	a3,0xfffff
   1eabc:	06bd                	addi	a3,a3,15
   1eabe:	8f75                	and	a4,a4,a3
   1eac0:	80e7a223          	sw	a4,-2044(a5)
E:\02-项目\13-RISCV实验箱\模块驱动\19-LCD_ST7796U\AHL-CH32V307-LCD_ST7796U\Debug/srcc/uart.c:56
            GPIOA->CFGHR |= ((GPIO_CFGHR_MODE9_1|GPIO_CFGHR_CNF9_1)|(GPIO_CFGHR_CNF10_1));
   1eac4:	8047a703          	lw	a4,-2044(a5)
   1eac8:	6685                	lui	a3,0x1
   1eaca:	8a068693          	addi	a3,a3,-1888 # 8a0 <__stack_size+0xa0>
   1eace:	8f55                	or	a4,a4,a3
   1ead0:	80e7a223          	sw	a4,-2044(a5)
E:\02-项目\13-RISCV实验箱\模块驱动\19-LCD_ST7796U\AHL-CH32V307-LCD_ST7796U\Debug/srcc/uart.c:57
            AFIO->PCFR1 |= 0;
   1ead4:	400107b7          	lui	a5,0x40010
   1ead8:	43d8                	lw	a4,4(a5)
   1eada:	c3d8                	sw	a4,4(a5)
E:\02-项目\13-RISCV实验箱\模块驱动\19-LCD_ST7796U\AHL-CH32V307-LCD_ST7796U\Debug/srcc/uart.c:337
    USART_ARR[uartNo-1]->CTLR1 &= ~USART_CTLR1_UE;
   1eadc:	fff48793          	addi	a5,s1,-1
   1eae0:	00279693          	slli	a3,a5,0x2
   1eae4:	20005737          	lui	a4,0x20005
   1eae8:	03c70713          	addi	a4,a4,60 # 2000503c <USART_ARR>
   1eaec:	9736                	add	a4,a4,a3
   1eaee:	4310                	lw	a2,0(a4)
   1eaf0:	00c65583          	lhu	a1,12(a2)
   1eaf4:	76f9                	lui	a3,0xffffe
   1eaf6:	16fd                	addi	a3,a3,-1
   1eaf8:	8eed                	and	a3,a3,a1
   1eafa:	00d61623          	sh	a3,12(a2)
E:\02-项目\13-RISCV实验箱\模块驱动\19-LCD_ST7796U\AHL-CH32V307-LCD_ST7796U\Debug/srcc/uart.c:339
    USART_ARR[uartNo-1]->CTLR1 &= ~(USART_CTLR1_TE|USART_CTLR1_RE);
   1eafe:	4310                	lw	a2,0(a4)
   1eb00:	00c65683          	lhu	a3,12(a2)
   1eb04:	06c2                	slli	a3,a3,0x10
   1eb06:	82c1                	srli	a3,a3,0x10
   1eb08:	9acd                	andi	a3,a3,-13
   1eb0a:	06c2                	slli	a3,a3,0x10
   1eb0c:	82c1                	srli	a3,a3,0x10
   1eb0e:	00d61623          	sh	a3,12(a2)
E:\02-项目\13-RISCV实验箱\模块驱动\19-LCD_ST7796U\AHL-CH32V307-LCD_ST7796U\Debug/srcc/uart.c:342
    if(USART_ARR[uartNo-1]==(USART_TypeDef*)USART1_BASE)
   1eb12:	4310                	lw	a2,0(a4)
   1eb14:	40014737          	lui	a4,0x40014
   1eb18:	80070713          	addi	a4,a4,-2048 # 40013800 <GEC_USER_RAM_END+0x1fff3800>
   1eb1c:	22e60d63          	beq	a2,a4,1ed56 <uart_init+0x2ea>
E:\02-项目\13-RISCV实验箱\模块驱动\19-LCD_ST7796U\AHL-CH32V307-LCD_ST7796U\Debug/srcc/uart.c:350
        DIV_M = (uint16_t)(SYSCLK_FREQ_72MHz/(16*2*baud_rate));
   1eb20:	00541693          	slli	a3,s0,0x5
   1eb24:	044aa737          	lui	a4,0x44aa
   1eb28:	20070713          	addi	a4,a4,512 # 44aa200 <_data_lma+0x4487ca8>
   1eb2c:	02d75733          	divu	a4,a4,a3
E:\02-项目\13-RISCV实验箱\模块驱动\19-LCD_ST7796U\AHL-CH32V307-LCD_ST7796U\Debug/srcc/uart.c:351
        DIV_F = (uint8_t)((((((SYSCLK_FREQ_72MHz/2/16)*100)/baud_rate)%100)*16)/100);
   1eb30:	0d6946b7          	lui	a3,0xd694
   1eb34:	a4068693          	addi	a3,a3,-1472 # d693a40 <_data_lma+0xd6714e8>
   1eb38:	0286d6b3          	divu	a3,a3,s0
   1eb3c:	06400593          	li	a1,100
   1eb40:	02b6f6b3          	remu	a3,a3,a1
   1eb44:	0692                	slli	a3,a3,0x4
   1eb46:	02b6d6b3          	divu	a3,a3,a1
   1eb4a:	0ff6f693          	andi	a3,a3,255
E:\02-项目\13-RISCV实验箱\模块驱动\19-LCD_ST7796U\AHL-CH32V307-LCD_ST7796U\Debug/srcc/uart.c:352
        USART_ARR[uartNo-1]->BRR = (uint32_t)(((DIV_M)<<4)|DIV_F);
   1eb4e:	0712                	slli	a4,a4,0x4
   1eb50:	001005b7          	lui	a1,0x100
   1eb54:	15c1                	addi	a1,a1,-16
   1eb56:	8f6d                	and	a4,a4,a1
   1eb58:	8f55                	or	a4,a4,a3
   1eb5a:	0742                	slli	a4,a4,0x10
   1eb5c:	8341                	srli	a4,a4,0x10
   1eb5e:	00e61423          	sh	a4,8(a2)
E:\02-项目\13-RISCV实验箱\模块驱动\19-LCD_ST7796U\AHL-CH32V307-LCD_ST7796U\Debug/srcc/uart.c:355
    USART_ARR[uartNo-1]->STATR = 0;
   1eb62:	00279713          	slli	a4,a5,0x2
   1eb66:	200057b7          	lui	a5,0x20005
   1eb6a:	03c78793          	addi	a5,a5,60 # 2000503c <USART_ARR>
   1eb6e:	97ba                	add	a5,a5,a4
   1eb70:	4398                	lw	a4,0(a5)
   1eb72:	00071023          	sh	zero,0(a4)
E:\02-项目\13-RISCV实验箱\模块驱动\19-LCD_ST7796U\AHL-CH32V307-LCD_ST7796U\Debug/srcc/uart.c:356
    USART_ARR[uartNo-1]->CTLR2 &= ~(USART_CTLR2_LINEN | USART_CTLR2_CLKEN);
   1eb76:	4394                	lw	a3,0(a5)
   1eb78:	0106d603          	lhu	a2,16(a3)
   1eb7c:	776d                	lui	a4,0xffffb
   1eb7e:	7ff70713          	addi	a4,a4,2047 # ffffb7ff <GEC_USER_RAM_END+0xdffdb7ff>
   1eb82:	8f71                	and	a4,a4,a2
   1eb84:	00e69823          	sh	a4,16(a3)
E:\02-项目\13-RISCV实验箱\模块驱动\19-LCD_ST7796U\AHL-CH32V307-LCD_ST7796U\Debug/srcc/uart.c:357
    USART_ARR[uartNo-1]->CTLR3 &= ~(USART_CTLR3_SCEN | USART_CTLR3_HDSEL | USART_CTLR3_IREN);
   1eb88:	4394                	lw	a3,0(a5)
   1eb8a:	0146d703          	lhu	a4,20(a3)
   1eb8e:	0742                	slli	a4,a4,0x10
   1eb90:	8341                	srli	a4,a4,0x10
   1eb92:	fd577713          	andi	a4,a4,-43
   1eb96:	0742                	slli	a4,a4,0x10
   1eb98:	8341                	srli	a4,a4,0x10
   1eb9a:	00e69a23          	sh	a4,20(a3)
E:\02-项目\13-RISCV实验箱\模块驱动\19-LCD_ST7796U\AHL-CH32V307-LCD_ST7796U\Debug/srcc/uart.c:359
    USART_ARR[uartNo-1]->CTLR1 |= (USART_CTLR1_TE|USART_CTLR1_RE);
   1eb9e:	4394                	lw	a3,0(a5)
   1eba0:	00c6d703          	lhu	a4,12(a3)
   1eba4:	00c76713          	ori	a4,a4,12
   1eba8:	00e69623          	sh	a4,12(a3)
E:\02-项目\13-RISCV实验箱\模块驱动\19-LCD_ST7796U\AHL-CH32V307-LCD_ST7796U\Debug/srcc/uart.c:362
    USART_ARR[uartNo-1]->CTLR1 |= USART_CTLR1_UE;
   1ebac:	4398                	lw	a4,0(a5)
   1ebae:	00c75783          	lhu	a5,12(a4)
   1ebb2:	6689                	lui	a3,0x2
   1ebb4:	8fd5                	or	a5,a5,a3
   1ebb6:	00f71623          	sh	a5,12(a4)
E:\02-项目\13-RISCV实验箱\模块驱动\19-LCD_ST7796U\AHL-CH32V307-LCD_ST7796U\Debug/srcc/uart.c:364
}
   1ebba:	40b2                	lw	ra,12(sp)
   1ebbc:	4422                	lw	s0,8(sp)
   1ebbe:	4492                	lw	s1,4(sp)
   1ebc0:	0141                	addi	sp,sp,16
   1ebc2:	8082                	ret
E:\02-项目\13-RISCV实验箱\模块驱动\19-LCD_ST7796U\AHL-CH32V307-LCD_ST7796U\Debug/srcc/uart.c:83
            RCC->APB1PCENR |= RCC_USART2EN;
   1ebc4:	400217b7          	lui	a5,0x40021
   1ebc8:	4fd8                	lw	a4,28(a5)
   1ebca:	000206b7          	lui	a3,0x20
   1ebce:	8f55                	or	a4,a4,a3
   1ebd0:	cfd8                	sw	a4,28(a5)
E:\02-项目\13-RISCV实验箱\模块驱动\19-LCD_ST7796U\AHL-CH32V307-LCD_ST7796U\Debug/srcc/uart.c:84
            RCC->APB2PCENR |= RCC_IOPAEN;
   1ebd2:	4f98                	lw	a4,24(a5)
   1ebd4:	00476713          	ori	a4,a4,4
   1ebd8:	cf98                	sw	a4,24(a5)
E:\02-项目\13-RISCV实验箱\模块驱动\19-LCD_ST7796U\AHL-CH32V307-LCD_ST7796U\Debug/srcc/uart.c:86
            GPIOA->CFGLR &= ~(GPIO_CFGLR_MODE2|GPIO_CFGLR_MODE3|GPIO_CFGLR_CNF2|GPIO_CFGLR_CNF3);
   1ebda:	400117b7          	lui	a5,0x40011
   1ebde:	8007a703          	lw	a4,-2048(a5) # 40010800 <GEC_USER_RAM_END+0x1fff0800>
   1ebe2:	76c1                	lui	a3,0xffff0
   1ebe4:	0ff68693          	addi	a3,a3,255 # ffff00ff <GEC_USER_RAM_END+0xdffd00ff>
   1ebe8:	8f75                	and	a4,a4,a3
   1ebea:	80e7a023          	sw	a4,-2048(a5)
E:\02-项目\13-RISCV实验箱\模块驱动\19-LCD_ST7796U\AHL-CH32V307-LCD_ST7796U\Debug/srcc/uart.c:87
            GPIOA->CFGLR |= ((GPIO_CFGLR_CNF2_1|GPIO_CFGLR_MODE2)|(GPIO_CFGLR_CNF3_0));
   1ebee:	8007a703          	lw	a4,-2048(a5)
   1ebf2:	6695                	lui	a3,0x5
   1ebf4:	b0068693          	addi	a3,a3,-1280 # 4b00 <__stack_size+0x4300>
   1ebf8:	8f55                	or	a4,a4,a3
   1ebfa:	80e7a023          	sw	a4,-2048(a5)
E:\02-项目\13-RISCV实验箱\模块驱动\19-LCD_ST7796U\AHL-CH32V307-LCD_ST7796U\Debug/srcc/uart.c:104
        break;
   1ebfe:	bdf9                	j	1eadc <uart_init+0x70>
E:\02-项目\13-RISCV实验箱\模块驱动\19-LCD_ST7796U\AHL-CH32V307-LCD_ST7796U\Debug/srcc/uart.c:113
            RCC->APB1PCENR |= RCC_USART3EN;
   1ec00:	400217b7          	lui	a5,0x40021
   1ec04:	4fd8                	lw	a4,28(a5)
   1ec06:	000406b7          	lui	a3,0x40
   1ec0a:	8f55                	or	a4,a4,a3
   1ec0c:	cfd8                	sw	a4,28(a5)
E:\02-项目\13-RISCV实验箱\模块驱动\19-LCD_ST7796U\AHL-CH32V307-LCD_ST7796U\Debug/srcc/uart.c:114
            RCC->APB2PCENR |= RCC_IOPBEN;
   1ec0e:	4f98                	lw	a4,24(a5)
   1ec10:	00876713          	ori	a4,a4,8
   1ec14:	cf98                	sw	a4,24(a5)
E:\02-项目\13-RISCV实验箱\模块驱动\19-LCD_ST7796U\AHL-CH32V307-LCD_ST7796U\Debug/srcc/uart.c:116
            GPIOB->CFGHR &= ~(GPIO_CFGHR_MODE10|GPIO_CFGHR_MODE11|GPIO_CFGHR_CNF10|GPIO_CFGHR_CNF11);
   1ec16:	400117b7          	lui	a5,0x40011
   1ec1a:	c047a703          	lw	a4,-1020(a5) # 40010c04 <GEC_USER_RAM_END+0x1fff0c04>
   1ec1e:	76c1                	lui	a3,0xffff0
   1ec20:	0ff68693          	addi	a3,a3,255 # ffff00ff <GEC_USER_RAM_END+0xdffd00ff>
   1ec24:	8f75                	and	a4,a4,a3
   1ec26:	c0e7a223          	sw	a4,-1020(a5)
E:\02-项目\13-RISCV实验箱\模块驱动\19-LCD_ST7796U\AHL-CH32V307-LCD_ST7796U\Debug/srcc/uart.c:117
            GPIOB->CFGHR |= ((GPIO_CFGHR_CNF10_1|GPIO_CFGHR_MODE10_1)|(GPIO_CFGHR_CNF11_0));
   1ec2a:	c047a703          	lw	a4,-1020(a5)
   1ec2e:	6695                	lui	a3,0x5
   1ec30:	a0068693          	addi	a3,a3,-1536 # 4a00 <__stack_size+0x4200>
   1ec34:	8f55                	or	a4,a4,a3
   1ec36:	c0e7a223          	sw	a4,-1020(a5)
E:\02-项目\13-RISCV实验箱\模块驱动\19-LCD_ST7796U\AHL-CH32V307-LCD_ST7796U\Debug/srcc/uart.c:134
        break;
   1ec3a:	b54d                	j	1eadc <uart_init+0x70>
E:\02-项目\13-RISCV实验箱\模块驱动\19-LCD_ST7796U\AHL-CH32V307-LCD_ST7796U\Debug/srcc/uart.c:143
            RCC->APB1PCENR |= RCC_UART4EN;
   1ec3c:	400217b7          	lui	a5,0x40021
   1ec40:	4fd8                	lw	a4,28(a5)
   1ec42:	000806b7          	lui	a3,0x80
   1ec46:	8f55                	or	a4,a4,a3
   1ec48:	cfd8                	sw	a4,28(a5)
E:\02-项目\13-RISCV实验箱\模块驱动\19-LCD_ST7796U\AHL-CH32V307-LCD_ST7796U\Debug/srcc/uart.c:144
            RCC->APB2PCENR |= RCC_IOPCEN;
   1ec4a:	4f98                	lw	a4,24(a5)
   1ec4c:	01076713          	ori	a4,a4,16
   1ec50:	cf98                	sw	a4,24(a5)
E:\02-项目\13-RISCV实验箱\模块驱动\19-LCD_ST7796U\AHL-CH32V307-LCD_ST7796U\Debug/srcc/uart.c:146
            GPIOC->CFGHR &= ~(GPIO_CFGHR_MODE10|GPIO_CFGHR_MODE11|GPIO_CFGHR_CNF10|GPIO_CFGHR_CNF11);
   1ec52:	400117b7          	lui	a5,0x40011
   1ec56:	43d8                	lw	a4,4(a5)
   1ec58:	76c1                	lui	a3,0xffff0
   1ec5a:	0ff68693          	addi	a3,a3,255 # ffff00ff <GEC_USER_RAM_END+0xdffd00ff>
   1ec5e:	8f75                	and	a4,a4,a3
   1ec60:	c3d8                	sw	a4,4(a5)
E:\02-项目\13-RISCV实验箱\模块驱动\19-LCD_ST7796U\AHL-CH32V307-LCD_ST7796U\Debug/srcc/uart.c:147
            GPIOC->CFGHR |= ((GPIO_CFGHR_CNF10_1|GPIO_CFGHR_MODE10_1)|(GPIO_CFGHR_CNF11_0));
   1ec62:	43d8                	lw	a4,4(a5)
   1ec64:	6695                	lui	a3,0x5
   1ec66:	a0068693          	addi	a3,a3,-1536 # 4a00 <__stack_size+0x4200>
   1ec6a:	8f55                	or	a4,a4,a3
   1ec6c:	c3d8                	sw	a4,4(a5)
E:\02-项目\13-RISCV实验箱\模块驱动\19-LCD_ST7796U\AHL-CH32V307-LCD_ST7796U\Debug/srcc/uart.c:175
        break;
   1ec6e:	b5bd                	j	1eadc <uart_init+0x70>
E:\02-项目\13-RISCV实验箱\模块驱动\19-LCD_ST7796U\AHL-CH32V307-LCD_ST7796U\Debug/srcc/uart.c:184
            RCC->APB1PCENR |= RCC_UART5EN;
   1ec70:	400217b7          	lui	a5,0x40021
   1ec74:	4fd8                	lw	a4,28(a5)
   1ec76:	001006b7          	lui	a3,0x100
   1ec7a:	8f55                	or	a4,a4,a3
   1ec7c:	cfd8                	sw	a4,28(a5)
E:\02-项目\13-RISCV实验箱\模块驱动\19-LCD_ST7796U\AHL-CH32V307-LCD_ST7796U\Debug/srcc/uart.c:185
            RCC->APB2PCENR |= RCC_IOPCEN;
   1ec7e:	4f98                	lw	a4,24(a5)
   1ec80:	01076713          	ori	a4,a4,16
   1ec84:	cf98                	sw	a4,24(a5)
E:\02-项目\13-RISCV实验箱\模块驱动\19-LCD_ST7796U\AHL-CH32V307-LCD_ST7796U\Debug/srcc/uart.c:186
            RCC->APB2PCENR |= RCC_IOPDEN;
   1ec86:	4f98                	lw	a4,24(a5)
   1ec88:	02076713          	ori	a4,a4,32
   1ec8c:	cf98                	sw	a4,24(a5)
E:\02-项目\13-RISCV实验箱\模块驱动\19-LCD_ST7796U\AHL-CH32V307-LCD_ST7796U\Debug/srcc/uart.c:188
            GPIOC->CFGHR &= ~(GPIO_CFGHR_MODE12|GPIO_CFGHR_CNF12);
   1ec8e:	400117b7          	lui	a5,0x40011
   1ec92:	43d8                	lw	a4,4(a5)
   1ec94:	fff106b7          	lui	a3,0xfff10
   1ec98:	16fd                	addi	a3,a3,-1
   1ec9a:	8f75                	and	a4,a4,a3
   1ec9c:	c3d8                	sw	a4,4(a5)
E:\02-项目\13-RISCV实验箱\模块驱动\19-LCD_ST7796U\AHL-CH32V307-LCD_ST7796U\Debug/srcc/uart.c:189
            GPIOD->CFGLR &= ~(GPIO_CFGLR_MODE2|GPIO_CFGLR_CNF2);
   1ec9e:	4007a703          	lw	a4,1024(a5) # 40011400 <GEC_USER_RAM_END+0x1fff1400>
   1eca2:	76fd                	lui	a3,0xfffff
   1eca4:	0ff68693          	addi	a3,a3,255 # fffff0ff <GEC_USER_RAM_END+0xdffdf0ff>
   1eca8:	8f75                	and	a4,a4,a3
   1ecaa:	40e7a023          	sw	a4,1024(a5)
E:\02-项目\13-RISCV实验箱\模块驱动\19-LCD_ST7796U\AHL-CH32V307-LCD_ST7796U\Debug/srcc/uart.c:190
            GPIOC->CFGHR |= ((GPIO_CFGHR_CNF12_1|GPIO_CFGHR_MODE12_1));
   1ecae:	43d8                	lw	a4,4(a5)
   1ecb0:	000a06b7          	lui	a3,0xa0
   1ecb4:	8f55                	or	a4,a4,a3
   1ecb6:	c3d8                	sw	a4,4(a5)
E:\02-项目\13-RISCV实验箱\模块驱动\19-LCD_ST7796U\AHL-CH32V307-LCD_ST7796U\Debug/srcc/uart.c:191
            GPIOD->CFGLR |= (GPIO_CFGLR_CNF2_1);
   1ecb8:	4007a703          	lw	a4,1024(a5)
   1ecbc:	6685                	lui	a3,0x1
   1ecbe:	80068693          	addi	a3,a3,-2048 # 800 <__stack_size>
   1ecc2:	8f55                	or	a4,a4,a3
   1ecc4:	40e7a023          	sw	a4,1024(a5)
E:\02-项目\13-RISCV实验箱\模块驱动\19-LCD_ST7796U\AHL-CH32V307-LCD_ST7796U\Debug/srcc/uart.c:217
        break;
   1ecc8:	bd11                	j	1eadc <uart_init+0x70>
E:\02-项目\13-RISCV实验箱\模块驱动\19-LCD_ST7796U\AHL-CH32V307-LCD_ST7796U\Debug/srcc/uart.c:225
            RCC->APB1PCENR |= RCC_UART6EN;
   1ecca:	400217b7          	lui	a5,0x40021
   1ecce:	4fd8                	lw	a4,28(a5)
   1ecd0:	04076713          	ori	a4,a4,64
   1ecd4:	cfd8                	sw	a4,28(a5)
E:\02-项目\13-RISCV实验箱\模块驱动\19-LCD_ST7796U\AHL-CH32V307-LCD_ST7796U\Debug/srcc/uart.c:226
            RCC->APB2PCENR |= RCC_IOPCEN;
   1ecd6:	4f98                	lw	a4,24(a5)
   1ecd8:	01076713          	ori	a4,a4,16
   1ecdc:	cf98                	sw	a4,24(a5)
E:\02-项目\13-RISCV实验箱\模块驱动\19-LCD_ST7796U\AHL-CH32V307-LCD_ST7796U\Debug/srcc/uart.c:228
            GPIOC->CFGLR &= ~(GPIO_CFGLR_MODE0|GPIO_CFGLR_MODE1|GPIO_CFGLR_CNF0|GPIO_CFGLR_CNF1);
   1ecde:	400117b7          	lui	a5,0x40011
   1ece2:	4398                	lw	a4,0(a5)
   1ece4:	f0077713          	andi	a4,a4,-256
   1ece8:	c398                	sw	a4,0(a5)
E:\02-项目\13-RISCV实验箱\模块驱动\19-LCD_ST7796U\AHL-CH32V307-LCD_ST7796U\Debug/srcc/uart.c:229
            GPIOC->CFGLR |= ((GPIO_CFGLR_CNF0_1|GPIO_CFGLR_MODE0_1)|(GPIO_CFGLR_CNF1_0));
   1ecea:	4398                	lw	a4,0(a5)
   1ecec:	04a76713          	ori	a4,a4,74
   1ecf0:	c398                	sw	a4,0(a5)
E:\02-项目\13-RISCV实验箱\模块驱动\19-LCD_ST7796U\AHL-CH32V307-LCD_ST7796U\Debug/srcc/uart.c:255
        break;
   1ecf2:	b3ed                	j	1eadc <uart_init+0x70>
E:\02-项目\13-RISCV实验箱\模块驱动\19-LCD_ST7796U\AHL-CH32V307-LCD_ST7796U\Debug/srcc/uart.c:264
          RCC->APB1PCENR |= RCC_UART7EN;
   1ecf4:	400217b7          	lui	a5,0x40021
   1ecf8:	4fd8                	lw	a4,28(a5)
   1ecfa:	08076713          	ori	a4,a4,128
   1ecfe:	cfd8                	sw	a4,28(a5)
E:\02-项目\13-RISCV实验箱\模块驱动\19-LCD_ST7796U\AHL-CH32V307-LCD_ST7796U\Debug/srcc/uart.c:265
          RCC->APB2PCENR |= RCC_IOPCEN;
   1ed00:	4f98                	lw	a4,24(a5)
   1ed02:	01076713          	ori	a4,a4,16
   1ed06:	cf98                	sw	a4,24(a5)
E:\02-项目\13-RISCV实验箱\模块驱动\19-LCD_ST7796U\AHL-CH32V307-LCD_ST7796U\Debug/srcc/uart.c:267
          GPIOC->CFGLR &= ~(GPIO_CFGLR_MODE2|GPIO_CFGLR_MODE3|GPIO_CFGLR_CNF2|GPIO_CFGLR_CNF3);
   1ed08:	400117b7          	lui	a5,0x40011
   1ed0c:	4398                	lw	a4,0(a5)
   1ed0e:	76c1                	lui	a3,0xffff0
   1ed10:	0ff68693          	addi	a3,a3,255 # ffff00ff <GEC_USER_RAM_END+0xdffd00ff>
   1ed14:	8f75                	and	a4,a4,a3
   1ed16:	c398                	sw	a4,0(a5)
E:\02-项目\13-RISCV实验箱\模块驱动\19-LCD_ST7796U\AHL-CH32V307-LCD_ST7796U\Debug/srcc/uart.c:268
          GPIOC->CFGLR |= ((GPIO_CFGLR_CNF2_1|GPIO_CFGLR_MODE2_1)|(GPIO_CFGLR_CNF3_0));
   1ed18:	4398                	lw	a4,0(a5)
   1ed1a:	6695                	lui	a3,0x5
   1ed1c:	a0068693          	addi	a3,a3,-1536 # 4a00 <__stack_size+0x4200>
   1ed20:	8f55                	or	a4,a4,a3
   1ed22:	c398                	sw	a4,0(a5)
E:\02-项目\13-RISCV实验箱\模块驱动\19-LCD_ST7796U\AHL-CH32V307-LCD_ST7796U\Debug/srcc/uart.c:294
      break;
   1ed24:	bb65                	j	1eadc <uart_init+0x70>
E:\02-项目\13-RISCV实验箱\模块驱动\19-LCD_ST7796U\AHL-CH32V307-LCD_ST7796U\Debug/srcc/uart.c:303
            RCC->APB1PCENR |= RCC_UART8EN;
   1ed26:	400217b7          	lui	a5,0x40021
   1ed2a:	4fd8                	lw	a4,28(a5)
   1ed2c:	10076713          	ori	a4,a4,256
   1ed30:	cfd8                	sw	a4,28(a5)
E:\02-项目\13-RISCV实验箱\模块驱动\19-LCD_ST7796U\AHL-CH32V307-LCD_ST7796U\Debug/srcc/uart.c:304
            RCC->APB2PCENR |= RCC_IOPCEN;
   1ed32:	4f98                	lw	a4,24(a5)
   1ed34:	01076713          	ori	a4,a4,16
   1ed38:	cf98                	sw	a4,24(a5)
E:\02-项目\13-RISCV实验箱\模块驱动\19-LCD_ST7796U\AHL-CH32V307-LCD_ST7796U\Debug/srcc/uart.c:306
            GPIOC->CFGLR &= ~(GPIO_CFGLR_MODE4|GPIO_CFGLR_MODE5|GPIO_CFGLR_CNF4|GPIO_CFGLR_CNF5);
   1ed3a:	400117b7          	lui	a5,0x40011
   1ed3e:	4398                	lw	a4,0(a5)
   1ed40:	ff0106b7          	lui	a3,0xff010
   1ed44:	16fd                	addi	a3,a3,-1
   1ed46:	8f75                	and	a4,a4,a3
   1ed48:	c398                	sw	a4,0(a5)
E:\02-项目\13-RISCV实验箱\模块驱动\19-LCD_ST7796U\AHL-CH32V307-LCD_ST7796U\Debug/srcc/uart.c:307
            GPIOC->CFGLR |= ((GPIO_CFGLR_CNF4_1|GPIO_CFGLR_MODE4_1)|(GPIO_CFGLR_CNF5_0));
   1ed4a:	4398                	lw	a4,0(a5)
   1ed4c:	004a06b7          	lui	a3,0x4a0
   1ed50:	8f55                	or	a4,a4,a3
   1ed52:	c398                	sw	a4,0(a5)
E:\02-项目\13-RISCV实验箱\模块驱动\19-LCD_ST7796U\AHL-CH32V307-LCD_ST7796U\Debug/srcc/uart.c:333
    break;
   1ed54:	b361                	j	1eadc <uart_init+0x70>
E:\02-项目\13-RISCV实验箱\模块驱动\19-LCD_ST7796U\AHL-CH32V307-LCD_ST7796U\Debug/srcc/uart.c:344
        DIV_M = (uint16_t)(SYSCLK_FREQ_72MHz/(16*baud_rate));
   1ed56:	00441713          	slli	a4,s0,0x4
   1ed5a:	044aa6b7          	lui	a3,0x44aa
   1ed5e:	20068693          	addi	a3,a3,512 # 44aa200 <_data_lma+0x4487ca8>
   1ed62:	02e6d6b3          	divu	a3,a3,a4
E:\02-项目\13-RISCV实验箱\模块驱动\19-LCD_ST7796U\AHL-CH32V307-LCD_ST7796U\Debug/srcc/uart.c:345
        DIV_F = (uint8_t)(((((((SYSCLK_FREQ_72MHz/16)*100)/baud_rate)%100)*16)+50)/100);
   1ed66:	1ad27737          	lui	a4,0x1ad27
   1ed6a:	48070713          	addi	a4,a4,1152 # 1ad27480 <_data_lma+0x1ad04f28>
   1ed6e:	02875733          	divu	a4,a4,s0
   1ed72:	06400593          	li	a1,100
   1ed76:	02b77733          	remu	a4,a4,a1
   1ed7a:	0712                	slli	a4,a4,0x4
   1ed7c:	03270713          	addi	a4,a4,50
   1ed80:	02b75733          	divu	a4,a4,a1
   1ed84:	0ff77713          	andi	a4,a4,255
E:\02-项目\13-RISCV实验箱\模块驱动\19-LCD_ST7796U\AHL-CH32V307-LCD_ST7796U\Debug/srcc/uart.c:346
        USART_ARR[uartNo-1]->BRR = (uint16_t)(DIV_M<<4|DIV_F);
   1ed88:	0692                	slli	a3,a3,0x4
   1ed8a:	001005b7          	lui	a1,0x100
   1ed8e:	15c1                	addi	a1,a1,-16
   1ed90:	8eed                	and	a3,a3,a1
   1ed92:	8f55                	or	a4,a4,a3
   1ed94:	0742                	slli	a4,a4,0x10
   1ed96:	8341                	srli	a4,a4,0x10
   1ed98:	00e61423          	sh	a4,8(a2)
   1ed9c:	b3d9                	j	1eb62 <uart_init+0xf6>

0001ed9e <uart_send1>:
uart_send1():
E:\02-项目\13-RISCV实验箱\模块驱动\19-LCD_ST7796U\AHL-CH32V307-LCD_ST7796U\Debug/srcc/uart.c:374
{
   1ed9e:	1141                	addi	sp,sp,-16
   1eda0:	c606                	sw	ra,12(sp)
   1eda2:	c422                	sw	s0,8(sp)
   1eda4:	c226                	sw	s1,4(sp)
   1eda6:	842a                	mv	s0,a0
   1eda8:	84ae                	mv	s1,a1
E:\02-项目\13-RISCV实验箱\模块驱动\19-LCD_ST7796U\AHL-CH32V307-LCD_ST7796U\Debug/srcc/uart.c:378
    if(!uart_is_uartNo(uartNo))
   1edaa:	cafff0ef          	jal	ra,1ea58 <uart_is_uartNo>
   1edae:	c131                	beqz	a0,1edf2 <uart_send1+0x54>
E:\02-项目\13-RISCV实验箱\模块驱动\19-LCD_ST7796U\AHL-CH32V307-LCD_ST7796U\Debug/srcc/uart.c:382
    for(t = 0; t< 0xFBBB; t++)
   1edb0:	4681                	li	a3,0
E:\02-项目\13-RISCV实验箱\模块驱动\19-LCD_ST7796U\AHL-CH32V307-LCD_ST7796U\Debug/srcc/uart.c:382 (discriminator 1)
   1edb2:	67c1                	lui	a5,0x10
   1edb4:	bba78793          	addi	a5,a5,-1094 # fbba <__stack_size+0xf3ba>
   1edb8:	02d7e763          	bltu	a5,a3,1ede6 <uart_send1+0x48>
E:\02-项目\13-RISCV实验箱\模块驱动\19-LCD_ST7796U\AHL-CH32V307-LCD_ST7796U\Debug/srcc/uart.c:385
        if(USART_ARR[uartNo-1]->STATR & USART_STATR_TXE)
   1edbc:	fff40793          	addi	a5,s0,-1 # 7ffff <_data_lma+0x5daa7>
   1edc0:	00279713          	slli	a4,a5,0x2
   1edc4:	200057b7          	lui	a5,0x20005
   1edc8:	03c78793          	addi	a5,a5,60 # 2000503c <USART_ARR>
   1edcc:	97ba                	add	a5,a5,a4
   1edce:	4398                	lw	a4,0(a5)
   1edd0:	00075783          	lhu	a5,0(a4)
   1edd4:	0807f793          	andi	a5,a5,128
   1edd8:	e399                	bnez	a5,1edde <uart_send1+0x40>
E:\02-项目\13-RISCV实验箱\模块驱动\19-LCD_ST7796U\AHL-CH32V307-LCD_ST7796U\Debug/srcc/uart.c:382 (discriminator 2)
    for(t = 0; t< 0xFBBB; t++)
   1edda:	0685                	addi	a3,a3,1
   1eddc:	bfd9                	j	1edb2 <uart_send1+0x14>
E:\02-项目\13-RISCV实验箱\模块驱动\19-LCD_ST7796U\AHL-CH32V307-LCD_ST7796U\Debug/srcc/uart.c:387
            USART_ARR[uartNo-1]->DATAR = (ch & USART_DATAR_DR);
   1edde:	04c2                	slli	s1,s1,0x10
   1ede0:	80c1                	srli	s1,s1,0x10
   1ede2:	00971223          	sh	s1,4(a4)
E:\02-项目\13-RISCV实验箱\模块驱动\19-LCD_ST7796U\AHL-CH32V307-LCD_ST7796U\Debug/srcc/uart.c:391
    if(t >= 0xFBBB)
   1ede6:	67c1                	lui	a5,0x10
   1ede8:	bba78793          	addi	a5,a5,-1094 # fbba <__stack_size+0xf3ba>
   1edec:	00d7f863          	bgeu	a5,a3,1edfc <uart_send1+0x5e>
E:\02-项目\13-RISCV实验箱\模块驱动\19-LCD_ST7796U\AHL-CH32V307-LCD_ST7796U\Debug/srcc/uart.c:393
        return 0; //发送超时，发送失败
   1edf0:	4501                	li	a0,0
E:\02-项目\13-RISCV实验箱\模块驱动\19-LCD_ST7796U\AHL-CH32V307-LCD_ST7796U\Debug/srcc/uart.c:398
}
   1edf2:	40b2                	lw	ra,12(sp)
   1edf4:	4422                	lw	s0,8(sp)
   1edf6:	4492                	lw	s1,4(sp)
   1edf8:	0141                	addi	sp,sp,16
   1edfa:	8082                	ret
E:\02-项目\13-RISCV实验箱\模块驱动\19-LCD_ST7796U\AHL-CH32V307-LCD_ST7796U\Debug/srcc/uart.c:397
        return 1;
   1edfc:	4505                	li	a0,1
   1edfe:	bfd5                	j	1edf2 <uart_send1+0x54>

0001ee00 <uart_re1>:
uart_re1():
E:\02-项目\13-RISCV实验箱\模块驱动\19-LCD_ST7796U\AHL-CH32V307-LCD_ST7796U\Debug/srcc/uart.c:467
{
   1ee00:	1141                	addi	sp,sp,-16
   1ee02:	c606                	sw	ra,12(sp)
   1ee04:	c422                	sw	s0,8(sp)
   1ee06:	c226                	sw	s1,4(sp)
   1ee08:	842a                	mv	s0,a0
   1ee0a:	84ae                	mv	s1,a1
E:\02-项目\13-RISCV实验箱\模块驱动\19-LCD_ST7796U\AHL-CH32V307-LCD_ST7796U\Debug/srcc/uart.c:472
    if(!uart_is_uartNo(uartNo))
   1ee0c:	c4dff0ef          	jal	ra,1ea58 <uart_is_uartNo>
   1ee10:	c905                	beqz	a0,1ee40 <uart_re1+0x40>
E:\02-项目\13-RISCV实验箱\模块驱动\19-LCD_ST7796U\AHL-CH32V307-LCD_ST7796U\Debug/srcc/uart.c:478
    for(t=0; t< 0xFBBB; t++)
   1ee12:	4681                	li	a3,0
E:\02-项目\13-RISCV实验箱\模块驱动\19-LCD_ST7796U\AHL-CH32V307-LCD_ST7796U\Debug/srcc/uart.c:478 (discriminator 1)
   1ee14:	67c1                	lui	a5,0x10
   1ee16:	bba78793          	addi	a5,a5,-1094 # fbba <__stack_size+0xf3ba>
   1ee1a:	02d7ed63          	bltu	a5,a3,1ee54 <uart_re1+0x54>
E:\02-项目\13-RISCV实验箱\模块驱动\19-LCD_ST7796U\AHL-CH32V307-LCD_ST7796U\Debug/srcc/uart.c:481
        if(USART_ARR[uartNo-1]->STATR & USART_STATR_RXNE)
   1ee1e:	fff40793          	addi	a5,s0,-1
   1ee22:	00279713          	slli	a4,a5,0x2
   1ee26:	200057b7          	lui	a5,0x20005
   1ee2a:	03c78793          	addi	a5,a5,60 # 2000503c <USART_ARR>
   1ee2e:	97ba                	add	a5,a5,a4
   1ee30:	4398                	lw	a4,0(a5)
   1ee32:	00075783          	lhu	a5,0(a4)
   1ee36:	0207f793          	andi	a5,a5,32
   1ee3a:	e791                	bnez	a5,1ee46 <uart_re1+0x46>
E:\02-项目\13-RISCV实验箱\模块驱动\19-LCD_ST7796U\AHL-CH32V307-LCD_ST7796U\Debug/srcc/uart.c:478 (discriminator 2)
    for(t=0; t< 0xFBBB; t++)
   1ee3c:	0685                	addi	a3,a3,1
   1ee3e:	bfd9                	j	1ee14 <uart_re1+0x14>
E:\02-项目\13-RISCV实验箱\模块驱动\19-LCD_ST7796U\AHL-CH32V307-LCD_ST7796U\Debug/srcc/uart.c:474
        *fp = 0;
   1ee40:	00048023          	sb	zero,0(s1)
E:\02-项目\13-RISCV实验箱\模块驱动\19-LCD_ST7796U\AHL-CH32V307-LCD_ST7796U\Debug/srcc/uart.c:475
        return 0;
   1ee44:	a829                	j	1ee5e <uart_re1+0x5e>
E:\02-项目\13-RISCV实验箱\模块驱动\19-LCD_ST7796U\AHL-CH32V307-LCD_ST7796U\Debug/srcc/uart.c:483
            dat = (USART_ARR[uartNo-1]->DATAR & USART_DATAR_DR); // 获取数据，清接收中断位
   1ee46:	00475503          	lhu	a0,4(a4)
   1ee4a:	0ff57513          	andi	a0,a0,255
E:\02-项目\13-RISCV实验箱\模块驱动\19-LCD_ST7796U\AHL-CH32V307-LCD_ST7796U\Debug/srcc/uart.c:484
            *fp = 1; //接收成功
   1ee4e:	4785                	li	a5,1
   1ee50:	00f48023          	sb	a5,0(s1)
E:\02-项目\13-RISCV实验箱\模块驱动\19-LCD_ST7796U\AHL-CH32V307-LCD_ST7796U\Debug/srcc/uart.c:488
    if(t>=0xFBBB)
   1ee54:	67c1                	lui	a5,0x10
   1ee56:	bba78793          	addi	a5,a5,-1094 # fbba <__stack_size+0xf3ba>
   1ee5a:	00d7e763          	bltu	a5,a3,1ee68 <uart_re1+0x68>
E:\02-项目\13-RISCV实验箱\模块驱动\19-LCD_ST7796U\AHL-CH32V307-LCD_ST7796U\Debug/srcc/uart.c:496
}
   1ee5e:	40b2                	lw	ra,12(sp)
   1ee60:	4422                	lw	s0,8(sp)
   1ee62:	4492                	lw	s1,4(sp)
   1ee64:	0141                	addi	sp,sp,16
   1ee66:	8082                	ret
E:\02-项目\13-RISCV实验箱\模块驱动\19-LCD_ST7796U\AHL-CH32V307-LCD_ST7796U\Debug/srcc/uart.c:491
        *fp = 0;
   1ee68:	00048023          	sb	zero,0(s1)
E:\02-项目\13-RISCV实验箱\模块驱动\19-LCD_ST7796U\AHL-CH32V307-LCD_ST7796U\Debug/srcc/uart.c:490
        dat = 0xFF;
   1ee6c:	0ff00513          	li	a0,255
   1ee70:	b7fd                	j	1ee5e <uart_re1+0x5e>

0001ee72 <uart_enable_re_int>:
uart_enable_re_int():
E:\02-项目\13-RISCV实验箱\模块驱动\19-LCD_ST7796U\AHL-CH32V307-LCD_ST7796U\Debug/srcc/uart.c:538
{
   1ee72:	1141                	addi	sp,sp,-16
   1ee74:	c606                	sw	ra,12(sp)
   1ee76:	c422                	sw	s0,8(sp)
   1ee78:	842a                	mv	s0,a0
E:\02-项目\13-RISCV实验箱\模块驱动\19-LCD_ST7796U\AHL-CH32V307-LCD_ST7796U\Debug/srcc/uart.c:540
    if(!uart_is_uartNo(uartNo))
   1ee7a:	bdfff0ef          	jal	ra,1ea58 <uart_is_uartNo>
   1ee7e:	c131                	beqz	a0,1eec2 <uart_enable_re_int+0x50>
E:\02-项目\13-RISCV实验箱\模块驱动\19-LCD_ST7796U\AHL-CH32V307-LCD_ST7796U\Debug/srcc/uart.c:545
    USART_ARR[uartNo-1]->CTLR1 |= USART_CTLR1_RXNEIE;    //开放UART接收中断
   1ee80:	fff40513          	addi	a0,s0,-1
   1ee84:	050a                	slli	a0,a0,0x2
   1ee86:	200057b7          	lui	a5,0x20005
   1ee8a:	03c78793          	addi	a5,a5,60 # 2000503c <USART_ARR>
   1ee8e:	97aa                	add	a5,a5,a0
   1ee90:	4398                	lw	a4,0(a5)
   1ee92:	00c75783          	lhu	a5,12(a4)
   1ee96:	0207e793          	ori	a5,a5,32
   1ee9a:	00f71623          	sh	a5,12(a4)
E:\02-项目\13-RISCV实验箱\模块驱动\19-LCD_ST7796U\AHL-CH32V307-LCD_ST7796U\Debug/srcc/uart.c:548
    NVIC_EnableIRQ(table_irq_uart[uartNo-1]);            //开中断控制器IRQ中断
   1ee9e:	200057b7          	lui	a5,0x20005
   1eea2:	05c78793          	addi	a5,a5,92 # 2000505c <table_irq_uart>
   1eea6:	953e                	add	a0,a0,a5
   1eea8:	4118                	lw	a4,0(a0)
NVIC_EnableIRQ():
E:\02-项目\13-RISCV实验箱\模块驱动\19-LCD_ST7796U\AHL-CH32V307-LCD_ST7796U\02_CPU/core_riscv.h:122
   1eeaa:	00575793          	srli	a5,a4,0x5
   1eeae:	4685                	li	a3,1
   1eeb0:	00e696b3          	sll	a3,a3,a4
   1eeb4:	04078793          	addi	a5,a5,64
   1eeb8:	078a                	slli	a5,a5,0x2
   1eeba:	e000e737          	lui	a4,0xe000e
   1eebe:	97ba                	add	a5,a5,a4
   1eec0:	c394                	sw	a3,0(a5)
uart_enable_re_int():
E:\02-项目\13-RISCV实验箱\模块驱动\19-LCD_ST7796U\AHL-CH32V307-LCD_ST7796U\Debug/srcc/uart.c:550
}
   1eec2:	40b2                	lw	ra,12(sp)
   1eec4:	4422                	lw	s0,8(sp)
   1eec6:	0141                	addi	sp,sp,16
   1eec8:	8082                	ret

0001eeca <uart_get_re_int>:
uart_get_re_int():
E:\02-项目\13-RISCV实验箱\模块驱动\19-LCD_ST7796U\AHL-CH32V307-LCD_ST7796U\Debug/srcc/uart.c:577
{
   1eeca:	1141                	addi	sp,sp,-16
   1eecc:	c606                	sw	ra,12(sp)
   1eece:	c422                	sw	s0,8(sp)
   1eed0:	842a                	mv	s0,a0
E:\02-项目\13-RISCV实验箱\模块驱动\19-LCD_ST7796U\AHL-CH32V307-LCD_ST7796U\Debug/srcc/uart.c:579
    if(!uart_is_uartNo(uartNo))
   1eed2:	b87ff0ef          	jal	ra,1ea58 <uart_is_uartNo>
   1eed6:	c515                	beqz	a0,1ef02 <uart_get_re_int+0x38>
E:\02-项目\13-RISCV实验箱\模块驱动\19-LCD_ST7796U\AHL-CH32V307-LCD_ST7796U\Debug/srcc/uart.c:585
    if(((USART_ARR[uartNo-1]->STATR & USART_STATR_RXNE) == USART_STATR_RXNE)
   1eed8:	147d                	addi	s0,s0,-1
   1eeda:	040a                	slli	s0,s0,0x2
   1eedc:	200057b7          	lui	a5,0x20005
   1eee0:	03c78793          	addi	a5,a5,60 # 2000503c <USART_ARR>
   1eee4:	943e                	add	s0,s0,a5
   1eee6:	4018                	lw	a4,0(s0)
   1eee8:	00075783          	lhu	a5,0(a4) # e000e000 <GEC_USER_RAM_END+0xbffee000>
   1eeec:	0207f793          	andi	a5,a5,32
   1eef0:	cb81                	beqz	a5,1ef00 <uart_get_re_int+0x36>
E:\02-项目\13-RISCV实验箱\模块驱动\19-LCD_ST7796U\AHL-CH32V307-LCD_ST7796U\Debug/srcc/uart.c:586
       && ((USART_ARR[uartNo-1]->CTLR1 & USART_CTLR1_RXNEIE) == USART_CTLR1_RXNEIE))
   1eef2:	00c75783          	lhu	a5,12(a4)
   1eef6:	0207f793          	andi	a5,a5,32
   1eefa:	eb81                	bnez	a5,1ef0a <uart_get_re_int+0x40>
E:\02-项目\13-RISCV实验箱\模块驱动\19-LCD_ST7796U\AHL-CH32V307-LCD_ST7796U\Debug/srcc/uart.c:589
        return 0;
   1eefc:	4501                	li	a0,0
   1eefe:	a011                	j	1ef02 <uart_get_re_int+0x38>
   1ef00:	4501                	li	a0,0
E:\02-项目\13-RISCV实验箱\模块驱动\19-LCD_ST7796U\AHL-CH32V307-LCD_ST7796U\Debug/srcc/uart.c:590
}
   1ef02:	40b2                	lw	ra,12(sp)
   1ef04:	4422                	lw	s0,8(sp)
   1ef06:	0141                	addi	sp,sp,16
   1ef08:	8082                	ret
E:\02-项目\13-RISCV实验箱\模块驱动\19-LCD_ST7796U\AHL-CH32V307-LCD_ST7796U\Debug/srcc/uart.c:587
        return 1;
   1ef0a:	4505                	li	a0,1
   1ef0c:	bfdd                	j	1ef02 <uart_get_re_int+0x38>

0001ef0e <LCD_Delay_ms>:
LCD_Delay_ms():
E:\02-项目\13-RISCV实验箱\模块驱动\19-LCD_ST7796U\AHL-CH32V307-LCD_ST7796U\Debug/srcc/lcd.c:29
int32_t k;		//用于记录是几位数，算出下一数字所需写入的位置，中文字是16x16，英文字和数字是8x16

void LCD_Delay_ms(uint16_t u16ms)
{
    uint32_t u32ctr;
    for(u32ctr = 0; u32ctr < (SystemCoreClock*u16ms/100000); u32ctr++)
   1ef0e:	4681                	li	a3,0
E:\02-项目\13-RISCV实验箱\模块驱动\19-LCD_ST7796U\AHL-CH32V307-LCD_ST7796U\Debug/srcc/lcd.c:29 (discriminator 1)
   1ef10:	200057b7          	lui	a5,0x20005
   1ef14:	0807a783          	lw	a5,128(a5) # 20005080 <SystemCoreClock>
   1ef18:	02f507b3          	mul	a5,a0,a5
   1ef1c:	6761                	lui	a4,0x18
   1ef1e:	6a070713          	addi	a4,a4,1696 # 186a0 <__stack_size+0x17ea0>
   1ef22:	02e7d7b3          	divu	a5,a5,a4
   1ef26:	00f6f563          	bgeu	a3,a5,1ef30 <LCD_Delay_ms+0x22>
E:\02-项目\13-RISCV实验箱\模块驱动\19-LCD_ST7796U\AHL-CH32V307-LCD_ST7796U\Debug/srcc/lcd.c:31 (discriminator 3)
    {
         __asm ("NOP") ;
   1ef2a:	0001                	nop
E:\02-项目\13-RISCV实验箱\模块驱动\19-LCD_ST7796U\AHL-CH32V307-LCD_ST7796U\Debug/srcc/lcd.c:29 (discriminator 3)
    for(u32ctr = 0; u32ctr < (SystemCoreClock*u16ms/100000); u32ctr++)
   1ef2c:	0685                	addi	a3,a3,1
   1ef2e:	b7cd                	j	1ef10 <LCD_Delay_ms+0x2>
E:\02-项目\13-RISCV实验箱\模块驱动\19-LCD_ST7796U\AHL-CH32V307-LCD_ST7796U\Debug/srcc/lcd.c:33
    }
}
   1ef30:	8082                	ret

0001ef32 <LCD_WR_DATA8>:
LCD_WR_DATA8():
E:\02-项目\13-RISCV实验箱\模块驱动\19-LCD_ST7796U\AHL-CH32V307-LCD_ST7796U\Debug/srcc/lcd.c:659
    result=1;
    while(n--) result*=m;
    return result;
}
void LCD_WR_DATA8(uint8_t da) //发送数据-8位参数
{
   1ef32:	1141                	addi	sp,sp,-16
   1ef34:	c606                	sw	ra,12(sp)
   1ef36:	c422                	sw	s0,8(sp)
   1ef38:	842a                	mv	s0,a0
E:\02-项目\13-RISCV实验箱\模块驱动\19-LCD_ST7796U\AHL-CH32V307-LCD_ST7796U\Debug/srcc/lcd.c:660
    gpio_set(LCD_DC,1);
   1ef3a:	4585                	li	a1,1
   1ef3c:	40000513          	li	a0,1024
   1ef40:	e67fe0ef          	jal	ra,1dda6 <gpio_set>
E:\02-项目\13-RISCV实验箱\模块驱动\19-LCD_ST7796U\AHL-CH32V307-LCD_ST7796U\Debug/srcc/lcd.c:661
    gpio_set(LCD_CS,0);
   1ef44:	4581                	li	a1,0
   1ef46:	40100513          	li	a0,1025
   1ef4a:	e5dfe0ef          	jal	ra,1dda6 <gpio_set>
E:\02-项目\13-RISCV实验箱\模块驱动\19-LCD_ST7796U\AHL-CH32V307-LCD_ST7796U\Debug/srcc/lcd.c:663
    //	gpio_init(LCD_CS,1,0);
    spi_send1(LCD_SPI,da);
   1ef4e:	85a2                	mv	a1,s0
   1ef50:	4509                	li	a0,2
   1ef52:	9abff0ef          	jal	ra,1e8fc <spi_send1>
E:\02-项目\13-RISCV实验箱\模块驱动\19-LCD_ST7796U\AHL-CH32V307-LCD_ST7796U\Debug/srcc/lcd.c:664
    gpio_set(LCD_CS,1);
   1ef56:	4585                	li	a1,1
   1ef58:	40100513          	li	a0,1025
   1ef5c:	e4bfe0ef          	jal	ra,1dda6 <gpio_set>
E:\02-项目\13-RISCV实验箱\模块驱动\19-LCD_ST7796U\AHL-CH32V307-LCD_ST7796U\Debug/srcc/lcd.c:666
    //	gpio_init(LCD_CS,1,1);
}
   1ef60:	40b2                	lw	ra,12(sp)
   1ef62:	4422                	lw	s0,8(sp)
   1ef64:	0141                	addi	sp,sp,16
   1ef66:	8082                	ret

0001ef68 <LCD_WR_DATA>:
LCD_WR_DATA():
E:\02-项目\13-RISCV实验箱\模块驱动\19-LCD_ST7796U\AHL-CH32V307-LCD_ST7796U\Debug/srcc/lcd.c:668
void LCD_WR_DATA(uint16_t da)
{
   1ef68:	1141                	addi	sp,sp,-16
   1ef6a:	c606                	sw	ra,12(sp)
   1ef6c:	c422                	sw	s0,8(sp)
   1ef6e:	842a                	mv	s0,a0
E:\02-项目\13-RISCV实验箱\模块驱动\19-LCD_ST7796U\AHL-CH32V307-LCD_ST7796U\Debug/srcc/lcd.c:669
    gpio_set(LCD_DC,1);
   1ef70:	4585                	li	a1,1
   1ef72:	40000513          	li	a0,1024
   1ef76:	e31fe0ef          	jal	ra,1dda6 <gpio_set>
E:\02-项目\13-RISCV实验箱\模块驱动\19-LCD_ST7796U\AHL-CH32V307-LCD_ST7796U\Debug/srcc/lcd.c:670
    gpio_set(LCD_CS,0);
   1ef7a:	4581                	li	a1,0
   1ef7c:	40100513          	li	a0,1025
   1ef80:	e27fe0ef          	jal	ra,1dda6 <gpio_set>
E:\02-项目\13-RISCV实验箱\模块驱动\19-LCD_ST7796U\AHL-CH32V307-LCD_ST7796U\Debug/srcc/lcd.c:672
    //	gpio_init(LCD_CS,1,0);
    spi_send1(LCD_SPI,da>>8);
   1ef84:	00845593          	srli	a1,s0,0x8
   1ef88:	4509                	li	a0,2
   1ef8a:	973ff0ef          	jal	ra,1e8fc <spi_send1>
E:\02-项目\13-RISCV实验箱\模块驱动\19-LCD_ST7796U\AHL-CH32V307-LCD_ST7796U\Debug/srcc/lcd.c:673
    spi_send1(LCD_SPI,da);
   1ef8e:	0ff47593          	andi	a1,s0,255
   1ef92:	4509                	li	a0,2
   1ef94:	969ff0ef          	jal	ra,1e8fc <spi_send1>
E:\02-项目\13-RISCV实验箱\模块驱动\19-LCD_ST7796U\AHL-CH32V307-LCD_ST7796U\Debug/srcc/lcd.c:674
    gpio_set(LCD_CS,1);
   1ef98:	4585                	li	a1,1
   1ef9a:	40100513          	li	a0,1025
   1ef9e:	e09fe0ef          	jal	ra,1dda6 <gpio_set>
E:\02-项目\13-RISCV实验箱\模块驱动\19-LCD_ST7796U\AHL-CH32V307-LCD_ST7796U\Debug/srcc/lcd.c:676
    //    gpio_init(LCD_CS,1,1);
}
   1efa2:	40b2                	lw	ra,12(sp)
   1efa4:	4422                	lw	s0,8(sp)
   1efa6:	0141                	addi	sp,sp,16
   1efa8:	8082                	ret

0001efaa <LCD_WR_REG>:
LCD_WR_REG():
E:\02-项目\13-RISCV实验箱\模块驱动\19-LCD_ST7796U\AHL-CH32V307-LCD_ST7796U\Debug/srcc/lcd.c:678
void LCD_WR_REG(uint8_t da)
{
   1efaa:	1141                	addi	sp,sp,-16
   1efac:	c606                	sw	ra,12(sp)
   1efae:	c422                	sw	s0,8(sp)
   1efb0:	842a                	mv	s0,a0
E:\02-项目\13-RISCV实验箱\模块驱动\19-LCD_ST7796U\AHL-CH32V307-LCD_ST7796U\Debug/srcc/lcd.c:679
    gpio_set(LCD_DC,0);
   1efb2:	4581                	li	a1,0
   1efb4:	40000513          	li	a0,1024
   1efb8:	deffe0ef          	jal	ra,1dda6 <gpio_set>
E:\02-项目\13-RISCV实验箱\模块驱动\19-LCD_ST7796U\AHL-CH32V307-LCD_ST7796U\Debug/srcc/lcd.c:680
    gpio_set(LCD_CS,0);
   1efbc:	4581                	li	a1,0
   1efbe:	40100513          	li	a0,1025
   1efc2:	de5fe0ef          	jal	ra,1dda6 <gpio_set>
E:\02-项目\13-RISCV实验箱\模块驱动\19-LCD_ST7796U\AHL-CH32V307-LCD_ST7796U\Debug/srcc/lcd.c:682
    //	gpio_init(LCD_CS,1,0);
    spi_send1(LCD_SPI,da);
   1efc6:	85a2                	mv	a1,s0
   1efc8:	4509                	li	a0,2
   1efca:	933ff0ef          	jal	ra,1e8fc <spi_send1>
E:\02-项目\13-RISCV实验箱\模块驱动\19-LCD_ST7796U\AHL-CH32V307-LCD_ST7796U\Debug/srcc/lcd.c:684
    //	gpio_init(LCD_CS,1,1);
    gpio_set(LCD_CS,1);
   1efce:	4585                	li	a1,1
   1efd0:	40100513          	li	a0,1025
   1efd4:	dd3fe0ef          	jal	ra,1dda6 <gpio_set>
E:\02-项目\13-RISCV实验箱\模块驱动\19-LCD_ST7796U\AHL-CH32V307-LCD_ST7796U\Debug/srcc/lcd.c:685
}
   1efd8:	40b2                	lw	ra,12(sp)
   1efda:	4422                	lw	s0,8(sp)
   1efdc:	0141                	addi	sp,sp,16
   1efde:	8082                	ret

0001efe0 <LCD_WR_REG_DATA>:
LCD_WR_REG_DATA():
E:\02-项目\13-RISCV实验箱\模块驱动\19-LCD_ST7796U\AHL-CH32V307-LCD_ST7796U\Debug/srcc/lcd.c:689


void LCD_WR_REG_DATA(uint8_t reg,uint8_t da)
{
   1efe0:	1141                	addi	sp,sp,-16
   1efe2:	c606                	sw	ra,12(sp)
   1efe4:	c422                	sw	s0,8(sp)
   1efe6:	842e                	mv	s0,a1
E:\02-项目\13-RISCV实验箱\模块驱动\19-LCD_ST7796U\AHL-CH32V307-LCD_ST7796U\Debug/srcc/lcd.c:690
    DISABLE_INTERRUPTS;
   1efe8:	4781                	li	a5,0
   1efea:	30079073          	csrw	mstatus,a5
E:\02-项目\13-RISCV实验箱\模块驱动\19-LCD_ST7796U\AHL-CH32V307-LCD_ST7796U\Debug/srcc/lcd.c:691
    LCD_WR_REG(reg);
   1efee:	3f75                	jal	1efaa <LCD_WR_REG>
E:\02-项目\13-RISCV实验箱\模块驱动\19-LCD_ST7796U\AHL-CH32V307-LCD_ST7796U\Debug/srcc/lcd.c:692
    LCD_WR_DATA8(da);
   1eff0:	8522                	mv	a0,s0
   1eff2:	f41ff0ef          	jal	ra,1ef32 <LCD_WR_DATA8>
E:\02-项目\13-RISCV实验箱\模块驱动\19-LCD_ST7796U\AHL-CH32V307-LCD_ST7796U\Debug/srcc/lcd.c:693
    ENABLE_INTERRUPTS;
   1eff6:	08800793          	li	a5,136
   1effa:	30079073          	csrw	mstatus,a5
E:\02-项目\13-RISCV实验箱\模块驱动\19-LCD_ST7796U\AHL-CH32V307-LCD_ST7796U\Debug/srcc/lcd.c:694
}
   1effe:	40b2                	lw	ra,12(sp)
   1f000:	4422                	lw	s0,8(sp)
   1f002:	0141                	addi	sp,sp,16
   1f004:	8082                	ret

0001f006 <LCD_direction>:
LCD_direction():
E:\02-项目\13-RISCV实验箱\模块驱动\19-LCD_ST7796U\AHL-CH32V307-LCD_ST7796U\Debug/srcc/lcd.c:280
{
   1f006:	1141                	addi	sp,sp,-16
   1f008:	c606                	sw	ra,12(sp)
E:\02-项目\13-RISCV实验箱\模块驱动\19-LCD_ST7796U\AHL-CH32V307-LCD_ST7796U\Debug/srcc/lcd.c:284
    switch(direction)
   1f00a:	4785                	li	a5,1
   1f00c:	02f50563          	beq	a0,a5,1f036 <LCD_direction+0x30>
   1f010:	01851793          	slli	a5,a0,0x18
   1f014:	87e1                	srai	a5,a5,0x18
   1f016:	cb91                	beqz	a5,1f02a <LCD_direction+0x24>
   1f018:	4789                	li	a5,2
   1f01a:	02f50563          	beq	a0,a5,1f044 <LCD_direction+0x3e>
   1f01e:	478d                	li	a5,3
   1f020:	02f50963          	beq	a0,a5,1f052 <LCD_direction+0x4c>
E:\02-项目\13-RISCV实验箱\模块驱动\19-LCD_ST7796U\AHL-CH32V307-LCD_ST7796U\Debug/srcc/lcd.c:299
}
   1f024:	40b2                	lw	ra,12(sp)
   1f026:	0141                	addi	sp,sp,16
   1f028:	8082                	ret
E:\02-项目\13-RISCV实验箱\模块驱动\19-LCD_ST7796U\AHL-CH32V307-LCD_ST7796U\Debug/srcc/lcd.c:287
            LCD_WR_REG_DATA(0X36,(0<<3)|(1<<7)|(0<<6)|(0<<5));
   1f02a:	08000593          	li	a1,128
   1f02e:	03600513          	li	a0,54
   1f032:	377d                	jal	1efe0 <LCD_WR_REG_DATA>
E:\02-项目\13-RISCV实验箱\模块驱动\19-LCD_ST7796U\AHL-CH32V307-LCD_ST7796U\Debug/srcc/lcd.c:288
            break;
   1f034:	bfc5                	j	1f024 <LCD_direction+0x1e>
E:\02-项目\13-RISCV实验箱\模块驱动\19-LCD_ST7796U\AHL-CH32V307-LCD_ST7796U\Debug/srcc/lcd.c:290
            LCD_WR_REG_DATA(0X36,(0<<7)|(1<<6)|(0<<5));
   1f036:	04000593          	li	a1,64
   1f03a:	03600513          	li	a0,54
   1f03e:	fa3ff0ef          	jal	ra,1efe0 <LCD_WR_REG_DATA>
E:\02-项目\13-RISCV实验箱\模块驱动\19-LCD_ST7796U\AHL-CH32V307-LCD_ST7796U\Debug/srcc/lcd.c:291
            break;
   1f042:	b7cd                	j	1f024 <LCD_direction+0x1e>
E:\02-项目\13-RISCV实验箱\模块驱动\19-LCD_ST7796U\AHL-CH32V307-LCD_ST7796U\Debug/srcc/lcd.c:293
            LCD_WR_REG_DATA(0x36,(1<<7)|(1<<6)|(0<<5));
   1f044:	0c000593          	li	a1,192
   1f048:	03600513          	li	a0,54
   1f04c:	f95ff0ef          	jal	ra,1efe0 <LCD_WR_REG_DATA>
E:\02-项目\13-RISCV实验箱\模块驱动\19-LCD_ST7796U\AHL-CH32V307-LCD_ST7796U\Debug/srcc/lcd.c:294
            break;
   1f050:	bfd1                	j	1f024 <LCD_direction+0x1e>
E:\02-项目\13-RISCV实验箱\模块驱动\19-LCD_ST7796U\AHL-CH32V307-LCD_ST7796U\Debug/srcc/lcd.c:296
            LCD_WR_REG_DATA(0x36,(1<7)|(1<<6)|(0<<5));
   1f052:	04100593          	li	a1,65
   1f056:	03600513          	li	a0,54
   1f05a:	f87ff0ef          	jal	ra,1efe0 <LCD_WR_REG_DATA>
E:\02-项目\13-RISCV实验箱\模块驱动\19-LCD_ST7796U\AHL-CH32V307-LCD_ST7796U\Debug/srcc/lcd.c:299
}
   1f05e:	b7d9                	j	1f024 <LCD_direction+0x1e>

0001f060 <Address_set>:
Address_set():
E:\02-项目\13-RISCV实验箱\模块驱动\19-LCD_ST7796U\AHL-CH32V307-LCD_ST7796U\Debug/srcc/lcd.c:696
void Address_set(uint16_t x1,uint16_t y1,uint16_t x2,uint16_t y2)
{
   1f060:	1101                	addi	sp,sp,-32
   1f062:	ce06                	sw	ra,28(sp)
   1f064:	cc22                	sw	s0,24(sp)
   1f066:	ca26                	sw	s1,20(sp)
   1f068:	c84a                	sw	s2,16(sp)
   1f06a:	c64e                	sw	s3,12(sp)
   1f06c:	89aa                	mv	s3,a0
   1f06e:	84ae                	mv	s1,a1
   1f070:	8932                	mv	s2,a2
   1f072:	8436                	mv	s0,a3
E:\02-项目\13-RISCV实验箱\模块驱动\19-LCD_ST7796U\AHL-CH32V307-LCD_ST7796U\Debug/srcc/lcd.c:697
    LCD_WR_REG(0x2a);      //写行地址命令
   1f074:	02a00513          	li	a0,42
   1f078:	f33ff0ef          	jal	ra,1efaa <LCD_WR_REG>
E:\02-项目\13-RISCV实验箱\模块驱动\19-LCD_ST7796U\AHL-CH32V307-LCD_ST7796U\Debug/srcc/lcd.c:698
    LCD_WR_DATA8(x1>>8);   //写起始行地址
   1f07c:	0089d513          	srli	a0,s3,0x8
   1f080:	eb3ff0ef          	jal	ra,1ef32 <LCD_WR_DATA8>
E:\02-项目\13-RISCV实验箱\模块驱动\19-LCD_ST7796U\AHL-CH32V307-LCD_ST7796U\Debug/srcc/lcd.c:699
    LCD_WR_DATA8(x1);
   1f084:	0ff9f513          	andi	a0,s3,255
   1f088:	eabff0ef          	jal	ra,1ef32 <LCD_WR_DATA8>
E:\02-项目\13-RISCV实验箱\模块驱动\19-LCD_ST7796U\AHL-CH32V307-LCD_ST7796U\Debug/srcc/lcd.c:700
    LCD_WR_DATA8(x2>>8);   //写结束行地址
   1f08c:	00895513          	srli	a0,s2,0x8
   1f090:	ea3ff0ef          	jal	ra,1ef32 <LCD_WR_DATA8>
E:\02-项目\13-RISCV实验箱\模块驱动\19-LCD_ST7796U\AHL-CH32V307-LCD_ST7796U\Debug/srcc/lcd.c:701
    LCD_WR_DATA8(x2);
   1f094:	0ff97513          	andi	a0,s2,255
   1f098:	e9bff0ef          	jal	ra,1ef32 <LCD_WR_DATA8>
E:\02-项目\13-RISCV实验箱\模块驱动\19-LCD_ST7796U\AHL-CH32V307-LCD_ST7796U\Debug/srcc/lcd.c:702
    LCD_WR_REG(0x2b);     //写列地址命令
   1f09c:	02b00513          	li	a0,43
   1f0a0:	f0bff0ef          	jal	ra,1efaa <LCD_WR_REG>
E:\02-项目\13-RISCV实验箱\模块驱动\19-LCD_ST7796U\AHL-CH32V307-LCD_ST7796U\Debug/srcc/lcd.c:703
    LCD_WR_DATA8(y1>>8);  //写列起始地址
   1f0a4:	0084d513          	srli	a0,s1,0x8
   1f0a8:	e8bff0ef          	jal	ra,1ef32 <LCD_WR_DATA8>
E:\02-项目\13-RISCV实验箱\模块驱动\19-LCD_ST7796U\AHL-CH32V307-LCD_ST7796U\Debug/srcc/lcd.c:704
    LCD_WR_DATA8(y1);
   1f0ac:	0ff4f513          	andi	a0,s1,255
   1f0b0:	e83ff0ef          	jal	ra,1ef32 <LCD_WR_DATA8>
E:\02-项目\13-RISCV实验箱\模块驱动\19-LCD_ST7796U\AHL-CH32V307-LCD_ST7796U\Debug/srcc/lcd.c:705
    LCD_WR_DATA8(y2>>8);  //写结束列地址
   1f0b4:	00845513          	srli	a0,s0,0x8
   1f0b8:	e7bff0ef          	jal	ra,1ef32 <LCD_WR_DATA8>
E:\02-项目\13-RISCV实验箱\模块驱动\19-LCD_ST7796U\AHL-CH32V307-LCD_ST7796U\Debug/srcc/lcd.c:706
    LCD_WR_DATA8(y2);
   1f0bc:	0ff47513          	andi	a0,s0,255
   1f0c0:	e73ff0ef          	jal	ra,1ef32 <LCD_WR_DATA8>
E:\02-项目\13-RISCV实验箱\模块驱动\19-LCD_ST7796U\AHL-CH32V307-LCD_ST7796U\Debug/srcc/lcd.c:707
    LCD_WR_REG(0x2C);     //写存储器命令
   1f0c4:	02c00513          	li	a0,44
   1f0c8:	ee3ff0ef          	jal	ra,1efaa <LCD_WR_REG>
E:\02-项目\13-RISCV实验箱\模块驱动\19-LCD_ST7796U\AHL-CH32V307-LCD_ST7796U\Debug/srcc/lcd.c:708
}
   1f0cc:	40f2                	lw	ra,28(sp)
   1f0ce:	4462                	lw	s0,24(sp)
   1f0d0:	44d2                	lw	s1,20(sp)
   1f0d2:	4942                	lw	s2,16(sp)
   1f0d4:	49b2                	lw	s3,12(sp)
   1f0d6:	6105                	addi	sp,sp,32
   1f0d8:	8082                	ret

0001f0da <LCD_Clear>:
LCD_Clear():
E:\02-项目\13-RISCV实验箱\模块驱动\19-LCD_ST7796U\AHL-CH32V307-LCD_ST7796U\Debug/srcc/lcd.c:308
{
   1f0da:	1141                	addi	sp,sp,-16
   1f0dc:	c606                	sw	ra,12(sp)
   1f0de:	c422                	sw	s0,8(sp)
   1f0e0:	c226                	sw	s1,4(sp)
   1f0e2:	c04a                	sw	s2,0(sp)
   1f0e4:	84aa                	mv	s1,a0
E:\02-项目\13-RISCV实验箱\模块驱动\19-LCD_ST7796U\AHL-CH32V307-LCD_ST7796U\Debug/srcc/lcd.c:310
    Address_set(0,0,LCD_W-1,LCD_H-1);
   1f0e6:	1df00693          	li	a3,479
   1f0ea:	13f00613          	li	a2,319
   1f0ee:	4581                	li	a1,0
   1f0f0:	4501                	li	a0,0
   1f0f2:	f6fff0ef          	jal	ra,1f060 <Address_set>
E:\02-项目\13-RISCV实验箱\模块驱动\19-LCD_ST7796U\AHL-CH32V307-LCD_ST7796U\Debug/srcc/lcd.c:311
    for(i=0;i<LCD_W;i++)
   1f0f6:	4901                	li	s2,0
   1f0f8:	a029                	j	1f102 <LCD_Clear+0x28>
E:\02-项目\13-RISCV实验箱\模块驱动\19-LCD_ST7796U\AHL-CH32V307-LCD_ST7796U\Debug/srcc/lcd.c:311 (discriminator 2)
   1f0fa:	0905                	addi	s2,s2,1
   1f0fc:	0942                	slli	s2,s2,0x10
   1f0fe:	01095913          	srli	s2,s2,0x10
E:\02-项目\13-RISCV实验箱\模块驱动\19-LCD_ST7796U\AHL-CH32V307-LCD_ST7796U\Debug/srcc/lcd.c:311 (discriminator 1)
   1f102:	13f00793          	li	a5,319
   1f106:	0127ee63          	bltu	a5,s2,1f122 <LCD_Clear+0x48>
E:\02-项目\13-RISCV实验箱\模块驱动\19-LCD_ST7796U\AHL-CH32V307-LCD_ST7796U\Debug/srcc/lcd.c:313
        for (j=0;j<LCD_H;j++) LCD_WR_DATA(background);
   1f10a:	4401                	li	s0,0
E:\02-项目\13-RISCV实验箱\模块驱动\19-LCD_ST7796U\AHL-CH32V307-LCD_ST7796U\Debug/srcc/lcd.c:313 (discriminator 1)
   1f10c:	1df00793          	li	a5,479
   1f110:	fe87e5e3          	bltu	a5,s0,1f0fa <LCD_Clear+0x20>
E:\02-项目\13-RISCV实验箱\模块驱动\19-LCD_ST7796U\AHL-CH32V307-LCD_ST7796U\Debug/srcc/lcd.c:313 (discriminator 3)
   1f114:	8526                	mv	a0,s1
   1f116:	e53ff0ef          	jal	ra,1ef68 <LCD_WR_DATA>
   1f11a:	0405                	addi	s0,s0,1
   1f11c:	0442                	slli	s0,s0,0x10
   1f11e:	8041                	srli	s0,s0,0x10
   1f120:	b7f5                	j	1f10c <LCD_Clear+0x32>
E:\02-项目\13-RISCV实验箱\模块驱动\19-LCD_ST7796U\AHL-CH32V307-LCD_ST7796U\Debug/srcc/lcd.c:316
}
   1f122:	40b2                	lw	ra,12(sp)
   1f124:	4422                	lw	s0,8(sp)
   1f126:	4492                	lw	s1,4(sp)
   1f128:	4902                	lw	s2,0(sp)
   1f12a:	0141                	addi	sp,sp,16
   1f12c:	8082                	ret

0001f12e <LCD_Init>:
LCD_Init():
E:\02-项目\13-RISCV实验箱\模块驱动\19-LCD_ST7796U\AHL-CH32V307-LCD_ST7796U\Debug/srcc/lcd.c:35
{
   1f12e:	1141                	addi	sp,sp,-16
   1f130:	c606                	sw	ra,12(sp)
E:\02-项目\13-RISCV实验箱\模块驱动\19-LCD_ST7796U\AHL-CH32V307-LCD_ST7796U\Debug/srcc/lcd.c:37
    gpio_init(LCD_RS,1,0);
   1f132:	4601                	li	a2,0
   1f134:	4585                	li	a1,1
   1f136:	10900513          	li	a0,265
   1f13a:	cc1fe0ef          	jal	ra,1ddfa <gpio_init>
E:\02-项目\13-RISCV实验箱\模块驱动\19-LCD_ST7796U\AHL-CH32V307-LCD_ST7796U\Debug/srcc/lcd.c:38
    gpio_init(LCD_DC,1,0);
   1f13e:	4601                	li	a2,0
   1f140:	4585                	li	a1,1
   1f142:	40000513          	li	a0,1024
   1f146:	cb5fe0ef          	jal	ra,1ddfa <gpio_init>
E:\02-项目\13-RISCV实验箱\模块驱动\19-LCD_ST7796U\AHL-CH32V307-LCD_ST7796U\Debug/srcc/lcd.c:39
    gpio_init(LCD_CS,1,1);
   1f14a:	4605                	li	a2,1
   1f14c:	4585                	li	a1,1
   1f14e:	40100513          	li	a0,1025
   1f152:	ca9fe0ef          	jal	ra,1ddfa <gpio_init>
E:\02-项目\13-RISCV实验箱\模块驱动\19-LCD_ST7796U\AHL-CH32V307-LCD_ST7796U\Debug/srcc/lcd.c:40
    spi_init(LCD_SPI,1,40000,0,0);
   1f156:	4701                	li	a4,0
   1f158:	4681                	li	a3,0
   1f15a:	6629                	lui	a2,0xa
   1f15c:	c4060613          	addi	a2,a2,-960 # 9c40 <__stack_size+0x9440>
   1f160:	4585                	li	a1,1
   1f162:	4509                	li	a0,2
   1f164:	826ff0ef          	jal	ra,1e18a <spi_init>
E:\02-项目\13-RISCV实验箱\模块驱动\19-LCD_ST7796U\AHL-CH32V307-LCD_ST7796U\Debug/srcc/lcd.c:41
    gpio_set(LCD_RS,0);
   1f168:	4581                	li	a1,0
   1f16a:	10900513          	li	a0,265
   1f16e:	c39fe0ef          	jal	ra,1dda6 <gpio_set>
E:\02-项目\13-RISCV实验箱\模块驱动\19-LCD_ST7796U\AHL-CH32V307-LCD_ST7796U\Debug/srcc/lcd.c:42
    LCD_Delay_ms(100);
   1f172:	06400513          	li	a0,100
   1f176:	d99ff0ef          	jal	ra,1ef0e <LCD_Delay_ms>
E:\02-项目\13-RISCV实验箱\模块驱动\19-LCD_ST7796U\AHL-CH32V307-LCD_ST7796U\Debug/srcc/lcd.c:43
    gpio_set(LCD_RS,1);
   1f17a:	4585                	li	a1,1
   1f17c:	10900513          	li	a0,265
   1f180:	c27fe0ef          	jal	ra,1dda6 <gpio_set>
E:\02-项目\13-RISCV实验箱\模块驱动\19-LCD_ST7796U\AHL-CH32V307-LCD_ST7796U\Debug/srcc/lcd.c:44
    LCD_Delay_ms(50);
   1f184:	03200513          	li	a0,50
   1f188:	d87ff0ef          	jal	ra,1ef0e <LCD_Delay_ms>
E:\02-项目\13-RISCV实验箱\模块驱动\19-LCD_ST7796U\AHL-CH32V307-LCD_ST7796U\Debug/srcc/lcd.c:189
    LCD_WR_REG(0xF0);
   1f18c:	0f000513          	li	a0,240
   1f190:	e1bff0ef          	jal	ra,1efaa <LCD_WR_REG>
E:\02-项目\13-RISCV实验箱\模块驱动\19-LCD_ST7796U\AHL-CH32V307-LCD_ST7796U\Debug/srcc/lcd.c:190
    LCD_WR_DATA8(0xC3);
   1f194:	0c300513          	li	a0,195
   1f198:	d9bff0ef          	jal	ra,1ef32 <LCD_WR_DATA8>
E:\02-项目\13-RISCV实验箱\模块驱动\19-LCD_ST7796U\AHL-CH32V307-LCD_ST7796U\Debug/srcc/lcd.c:191
    LCD_WR_REG(0xF0);
   1f19c:	0f000513          	li	a0,240
   1f1a0:	e0bff0ef          	jal	ra,1efaa <LCD_WR_REG>
E:\02-项目\13-RISCV实验箱\模块驱动\19-LCD_ST7796U\AHL-CH32V307-LCD_ST7796U\Debug/srcc/lcd.c:192
    LCD_WR_DATA8(0x96);
   1f1a4:	09600513          	li	a0,150
   1f1a8:	d8bff0ef          	jal	ra,1ef32 <LCD_WR_DATA8>
E:\02-项目\13-RISCV实验箱\模块驱动\19-LCD_ST7796U\AHL-CH32V307-LCD_ST7796U\Debug/srcc/lcd.c:193
    LCD_WR_REG(0x36);
   1f1ac:	03600513          	li	a0,54
   1f1b0:	dfbff0ef          	jal	ra,1efaa <LCD_WR_REG>
E:\02-项目\13-RISCV实验箱\模块驱动\19-LCD_ST7796U\AHL-CH32V307-LCD_ST7796U\Debug/srcc/lcd.c:194
    LCD_WR_DATA8(0x68);
   1f1b4:	06800513          	li	a0,104
   1f1b8:	d7bff0ef          	jal	ra,1ef32 <LCD_WR_DATA8>
E:\02-项目\13-RISCV实验箱\模块驱动\19-LCD_ST7796U\AHL-CH32V307-LCD_ST7796U\Debug/srcc/lcd.c:195
    LCD_WR_REG(0x3A);
   1f1bc:	03a00513          	li	a0,58
   1f1c0:	debff0ef          	jal	ra,1efaa <LCD_WR_REG>
E:\02-项目\13-RISCV实验箱\模块驱动\19-LCD_ST7796U\AHL-CH32V307-LCD_ST7796U\Debug/srcc/lcd.c:196
    LCD_WR_DATA8(0x05);
   1f1c4:	4515                	li	a0,5
   1f1c6:	d6dff0ef          	jal	ra,1ef32 <LCD_WR_DATA8>
E:\02-项目\13-RISCV实验箱\模块驱动\19-LCD_ST7796U\AHL-CH32V307-LCD_ST7796U\Debug/srcc/lcd.c:197
    LCD_WR_REG(0xB0);
   1f1ca:	0b000513          	li	a0,176
   1f1ce:	dddff0ef          	jal	ra,1efaa <LCD_WR_REG>
E:\02-项目\13-RISCV实验箱\模块驱动\19-LCD_ST7796U\AHL-CH32V307-LCD_ST7796U\Debug/srcc/lcd.c:198
    LCD_WR_DATA8(0x80);
   1f1d2:	08000513          	li	a0,128
   1f1d6:	d5dff0ef          	jal	ra,1ef32 <LCD_WR_DATA8>
E:\02-项目\13-RISCV实验箱\模块驱动\19-LCD_ST7796U\AHL-CH32V307-LCD_ST7796U\Debug/srcc/lcd.c:199
    LCD_WR_REG(0xB6);
   1f1da:	0b600513          	li	a0,182
   1f1de:	dcdff0ef          	jal	ra,1efaa <LCD_WR_REG>
E:\02-项目\13-RISCV实验箱\模块驱动\19-LCD_ST7796U\AHL-CH32V307-LCD_ST7796U\Debug/srcc/lcd.c:200
    LCD_WR_DATA8(0x00);
   1f1e2:	4501                	li	a0,0
   1f1e4:	d4fff0ef          	jal	ra,1ef32 <LCD_WR_DATA8>
E:\02-项目\13-RISCV实验箱\模块驱动\19-LCD_ST7796U\AHL-CH32V307-LCD_ST7796U\Debug/srcc/lcd.c:201
    LCD_WR_DATA8(0x02);
   1f1e8:	4509                	li	a0,2
   1f1ea:	d49ff0ef          	jal	ra,1ef32 <LCD_WR_DATA8>
E:\02-项目\13-RISCV实验箱\模块驱动\19-LCD_ST7796U\AHL-CH32V307-LCD_ST7796U\Debug/srcc/lcd.c:202
    LCD_WR_REG(0xB5);
   1f1ee:	0b500513          	li	a0,181
   1f1f2:	db9ff0ef          	jal	ra,1efaa <LCD_WR_REG>
E:\02-项目\13-RISCV实验箱\模块驱动\19-LCD_ST7796U\AHL-CH32V307-LCD_ST7796U\Debug/srcc/lcd.c:203
    LCD_WR_DATA8(0x02);
   1f1f6:	4509                	li	a0,2
   1f1f8:	d3bff0ef          	jal	ra,1ef32 <LCD_WR_DATA8>
E:\02-项目\13-RISCV实验箱\模块驱动\19-LCD_ST7796U\AHL-CH32V307-LCD_ST7796U\Debug/srcc/lcd.c:204
    LCD_WR_DATA8(0x03);
   1f1fc:	450d                	li	a0,3
   1f1fe:	d35ff0ef          	jal	ra,1ef32 <LCD_WR_DATA8>
E:\02-项目\13-RISCV实验箱\模块驱动\19-LCD_ST7796U\AHL-CH32V307-LCD_ST7796U\Debug/srcc/lcd.c:205
    LCD_WR_DATA8(0x00);
   1f202:	4501                	li	a0,0
   1f204:	d2fff0ef          	jal	ra,1ef32 <LCD_WR_DATA8>
E:\02-项目\13-RISCV实验箱\模块驱动\19-LCD_ST7796U\AHL-CH32V307-LCD_ST7796U\Debug/srcc/lcd.c:206
    LCD_WR_DATA8(0x04);
   1f208:	4511                	li	a0,4
   1f20a:	d29ff0ef          	jal	ra,1ef32 <LCD_WR_DATA8>
E:\02-项目\13-RISCV实验箱\模块驱动\19-LCD_ST7796U\AHL-CH32V307-LCD_ST7796U\Debug/srcc/lcd.c:207
    LCD_WR_REG(0xB1);
   1f20e:	0b100513          	li	a0,177
   1f212:	d99ff0ef          	jal	ra,1efaa <LCD_WR_REG>
E:\02-项目\13-RISCV实验箱\模块驱动\19-LCD_ST7796U\AHL-CH32V307-LCD_ST7796U\Debug/srcc/lcd.c:208
    LCD_WR_DATA8(0x80);
   1f216:	08000513          	li	a0,128
   1f21a:	d19ff0ef          	jal	ra,1ef32 <LCD_WR_DATA8>
E:\02-项目\13-RISCV实验箱\模块驱动\19-LCD_ST7796U\AHL-CH32V307-LCD_ST7796U\Debug/srcc/lcd.c:209
    LCD_WR_DATA8(0x10);
   1f21e:	4541                	li	a0,16
   1f220:	d13ff0ef          	jal	ra,1ef32 <LCD_WR_DATA8>
E:\02-项目\13-RISCV实验箱\模块驱动\19-LCD_ST7796U\AHL-CH32V307-LCD_ST7796U\Debug/srcc/lcd.c:210
    LCD_WR_REG(0xB4);
   1f224:	0b400513          	li	a0,180
   1f228:	d83ff0ef          	jal	ra,1efaa <LCD_WR_REG>
E:\02-项目\13-RISCV实验箱\模块驱动\19-LCD_ST7796U\AHL-CH32V307-LCD_ST7796U\Debug/srcc/lcd.c:211
    LCD_WR_DATA8(0x00);
   1f22c:	4501                	li	a0,0
   1f22e:	d05ff0ef          	jal	ra,1ef32 <LCD_WR_DATA8>
E:\02-项目\13-RISCV实验箱\模块驱动\19-LCD_ST7796U\AHL-CH32V307-LCD_ST7796U\Debug/srcc/lcd.c:212
    LCD_WR_REG(0xB7);
   1f232:	0b700513          	li	a0,183
   1f236:	d75ff0ef          	jal	ra,1efaa <LCD_WR_REG>
E:\02-项目\13-RISCV实验箱\模块驱动\19-LCD_ST7796U\AHL-CH32V307-LCD_ST7796U\Debug/srcc/lcd.c:213
    LCD_WR_DATA8(0xC6);
   1f23a:	0c600513          	li	a0,198
   1f23e:	cf5ff0ef          	jal	ra,1ef32 <LCD_WR_DATA8>
E:\02-项目\13-RISCV实验箱\模块驱动\19-LCD_ST7796U\AHL-CH32V307-LCD_ST7796U\Debug/srcc/lcd.c:214
    LCD_WR_REG(0xC5);
   1f242:	0c500513          	li	a0,197
   1f246:	d65ff0ef          	jal	ra,1efaa <LCD_WR_REG>
E:\02-项目\13-RISCV实验箱\模块驱动\19-LCD_ST7796U\AHL-CH32V307-LCD_ST7796U\Debug/srcc/lcd.c:215
    LCD_WR_DATA8(0x24);
   1f24a:	02400513          	li	a0,36
   1f24e:	ce5ff0ef          	jal	ra,1ef32 <LCD_WR_DATA8>
E:\02-项目\13-RISCV实验箱\模块驱动\19-LCD_ST7796U\AHL-CH32V307-LCD_ST7796U\Debug/srcc/lcd.c:216
    LCD_WR_REG(0xE4);
   1f252:	0e400513          	li	a0,228
   1f256:	d55ff0ef          	jal	ra,1efaa <LCD_WR_REG>
E:\02-项目\13-RISCV实验箱\模块驱动\19-LCD_ST7796U\AHL-CH32V307-LCD_ST7796U\Debug/srcc/lcd.c:217
    LCD_WR_DATA8(0x31);
   1f25a:	03100513          	li	a0,49
   1f25e:	cd5ff0ef          	jal	ra,1ef32 <LCD_WR_DATA8>
E:\02-项目\13-RISCV实验箱\模块驱动\19-LCD_ST7796U\AHL-CH32V307-LCD_ST7796U\Debug/srcc/lcd.c:218
    LCD_WR_REG(0xE8);
   1f262:	0e800513          	li	a0,232
   1f266:	d45ff0ef          	jal	ra,1efaa <LCD_WR_REG>
E:\02-项目\13-RISCV实验箱\模块驱动\19-LCD_ST7796U\AHL-CH32V307-LCD_ST7796U\Debug/srcc/lcd.c:219
    LCD_WR_DATA8(0x40);
   1f26a:	04000513          	li	a0,64
   1f26e:	cc5ff0ef          	jal	ra,1ef32 <LCD_WR_DATA8>
E:\02-项目\13-RISCV实验箱\模块驱动\19-LCD_ST7796U\AHL-CH32V307-LCD_ST7796U\Debug/srcc/lcd.c:220
    LCD_WR_DATA8(0x8A);
   1f272:	08a00513          	li	a0,138
   1f276:	cbdff0ef          	jal	ra,1ef32 <LCD_WR_DATA8>
E:\02-项目\13-RISCV实验箱\模块驱动\19-LCD_ST7796U\AHL-CH32V307-LCD_ST7796U\Debug/srcc/lcd.c:221
    LCD_WR_DATA8(0x00);
   1f27a:	4501                	li	a0,0
   1f27c:	cb7ff0ef          	jal	ra,1ef32 <LCD_WR_DATA8>
E:\02-项目\13-RISCV实验箱\模块驱动\19-LCD_ST7796U\AHL-CH32V307-LCD_ST7796U\Debug/srcc/lcd.c:222
    LCD_WR_DATA8(0x00);
   1f280:	4501                	li	a0,0
   1f282:	cb1ff0ef          	jal	ra,1ef32 <LCD_WR_DATA8>
E:\02-项目\13-RISCV实验箱\模块驱动\19-LCD_ST7796U\AHL-CH32V307-LCD_ST7796U\Debug/srcc/lcd.c:223
    LCD_WR_DATA8(0x29);
   1f286:	02900513          	li	a0,41
   1f28a:	ca9ff0ef          	jal	ra,1ef32 <LCD_WR_DATA8>
E:\02-项目\13-RISCV实验箱\模块驱动\19-LCD_ST7796U\AHL-CH32V307-LCD_ST7796U\Debug/srcc/lcd.c:224
    LCD_WR_DATA8(0x19);
   1f28e:	4565                	li	a0,25
   1f290:	ca3ff0ef          	jal	ra,1ef32 <LCD_WR_DATA8>
E:\02-项目\13-RISCV实验箱\模块驱动\19-LCD_ST7796U\AHL-CH32V307-LCD_ST7796U\Debug/srcc/lcd.c:225
    LCD_WR_DATA8(0xA5);
   1f294:	0a500513          	li	a0,165
   1f298:	c9bff0ef          	jal	ra,1ef32 <LCD_WR_DATA8>
E:\02-项目\13-RISCV实验箱\模块驱动\19-LCD_ST7796U\AHL-CH32V307-LCD_ST7796U\Debug/srcc/lcd.c:226
    LCD_WR_DATA8(0x33);
   1f29c:	03300513          	li	a0,51
   1f2a0:	c93ff0ef          	jal	ra,1ef32 <LCD_WR_DATA8>
E:\02-项目\13-RISCV实验箱\模块驱动\19-LCD_ST7796U\AHL-CH32V307-LCD_ST7796U\Debug/srcc/lcd.c:227
    LCD_WR_REG(0xC2);
   1f2a4:	0c200513          	li	a0,194
   1f2a8:	d03ff0ef          	jal	ra,1efaa <LCD_WR_REG>
E:\02-项目\13-RISCV实验箱\模块驱动\19-LCD_ST7796U\AHL-CH32V307-LCD_ST7796U\Debug/srcc/lcd.c:228
    LCD_WR_REG(0xA7);
   1f2ac:	0a700513          	li	a0,167
   1f2b0:	cfbff0ef          	jal	ra,1efaa <LCD_WR_REG>
E:\02-项目\13-RISCV实验箱\模块驱动\19-LCD_ST7796U\AHL-CH32V307-LCD_ST7796U\Debug/srcc/lcd.c:229
    LCD_WR_REG(0xE0);
   1f2b4:	0e000513          	li	a0,224
   1f2b8:	cf3ff0ef          	jal	ra,1efaa <LCD_WR_REG>
E:\02-项目\13-RISCV实验箱\模块驱动\19-LCD_ST7796U\AHL-CH32V307-LCD_ST7796U\Debug/srcc/lcd.c:230
    LCD_WR_DATA8(0xF0);
   1f2bc:	0f000513          	li	a0,240
   1f2c0:	c73ff0ef          	jal	ra,1ef32 <LCD_WR_DATA8>
E:\02-项目\13-RISCV实验箱\模块驱动\19-LCD_ST7796U\AHL-CH32V307-LCD_ST7796U\Debug/srcc/lcd.c:231
    LCD_WR_DATA8(0x09);
   1f2c4:	4525                	li	a0,9
   1f2c6:	c6dff0ef          	jal	ra,1ef32 <LCD_WR_DATA8>
E:\02-项目\13-RISCV实验箱\模块驱动\19-LCD_ST7796U\AHL-CH32V307-LCD_ST7796U\Debug/srcc/lcd.c:232
    LCD_WR_DATA8(0x13);
   1f2ca:	454d                	li	a0,19
   1f2cc:	c67ff0ef          	jal	ra,1ef32 <LCD_WR_DATA8>
E:\02-项目\13-RISCV实验箱\模块驱动\19-LCD_ST7796U\AHL-CH32V307-LCD_ST7796U\Debug/srcc/lcd.c:233
    LCD_WR_DATA8(0x12);
   1f2d0:	4549                	li	a0,18
   1f2d2:	c61ff0ef          	jal	ra,1ef32 <LCD_WR_DATA8>
E:\02-项目\13-RISCV实验箱\模块驱动\19-LCD_ST7796U\AHL-CH32V307-LCD_ST7796U\Debug/srcc/lcd.c:234
    LCD_WR_DATA8(0x12);
   1f2d6:	4549                	li	a0,18
   1f2d8:	c5bff0ef          	jal	ra,1ef32 <LCD_WR_DATA8>
E:\02-项目\13-RISCV实验箱\模块驱动\19-LCD_ST7796U\AHL-CH32V307-LCD_ST7796U\Debug/srcc/lcd.c:235
    LCD_WR_DATA8(0x2B);
   1f2dc:	02b00513          	li	a0,43
   1f2e0:	c53ff0ef          	jal	ra,1ef32 <LCD_WR_DATA8>
E:\02-项目\13-RISCV实验箱\模块驱动\19-LCD_ST7796U\AHL-CH32V307-LCD_ST7796U\Debug/srcc/lcd.c:236
    LCD_WR_DATA8(0x3C);
   1f2e4:	03c00513          	li	a0,60
   1f2e8:	c4bff0ef          	jal	ra,1ef32 <LCD_WR_DATA8>
E:\02-项目\13-RISCV实验箱\模块驱动\19-LCD_ST7796U\AHL-CH32V307-LCD_ST7796U\Debug/srcc/lcd.c:237
    LCD_WR_DATA8(0x44);
   1f2ec:	04400513          	li	a0,68
   1f2f0:	c43ff0ef          	jal	ra,1ef32 <LCD_WR_DATA8>
E:\02-项目\13-RISCV实验箱\模块驱动\19-LCD_ST7796U\AHL-CH32V307-LCD_ST7796U\Debug/srcc/lcd.c:238
    LCD_WR_DATA8(0x4B);
   1f2f4:	04b00513          	li	a0,75
   1f2f8:	c3bff0ef          	jal	ra,1ef32 <LCD_WR_DATA8>
E:\02-项目\13-RISCV实验箱\模块驱动\19-LCD_ST7796U\AHL-CH32V307-LCD_ST7796U\Debug/srcc/lcd.c:239
    LCD_WR_DATA8(0x1B);
   1f2fc:	456d                	li	a0,27
   1f2fe:	c35ff0ef          	jal	ra,1ef32 <LCD_WR_DATA8>
E:\02-项目\13-RISCV实验箱\模块驱动\19-LCD_ST7796U\AHL-CH32V307-LCD_ST7796U\Debug/srcc/lcd.c:240
    LCD_WR_DATA8(0x18);
   1f302:	4561                	li	a0,24
   1f304:	c2fff0ef          	jal	ra,1ef32 <LCD_WR_DATA8>
E:\02-项目\13-RISCV实验箱\模块驱动\19-LCD_ST7796U\AHL-CH32V307-LCD_ST7796U\Debug/srcc/lcd.c:241
    LCD_WR_DATA8(0x17);
   1f308:	455d                	li	a0,23
   1f30a:	c29ff0ef          	jal	ra,1ef32 <LCD_WR_DATA8>
E:\02-项目\13-RISCV实验箱\模块驱动\19-LCD_ST7796U\AHL-CH32V307-LCD_ST7796U\Debug/srcc/lcd.c:242
    LCD_WR_DATA8(0x1D);
   1f30e:	4575                	li	a0,29
   1f310:	c23ff0ef          	jal	ra,1ef32 <LCD_WR_DATA8>
E:\02-项目\13-RISCV实验箱\模块驱动\19-LCD_ST7796U\AHL-CH32V307-LCD_ST7796U\Debug/srcc/lcd.c:243
    LCD_WR_DATA8(0x21);
   1f314:	02100513          	li	a0,33
   1f318:	c1bff0ef          	jal	ra,1ef32 <LCD_WR_DATA8>
E:\02-项目\13-RISCV实验箱\模块驱动\19-LCD_ST7796U\AHL-CH32V307-LCD_ST7796U\Debug/srcc/lcd.c:244
    LCD_WR_REG(0XE1);
   1f31c:	0e100513          	li	a0,225
   1f320:	c8bff0ef          	jal	ra,1efaa <LCD_WR_REG>
E:\02-项目\13-RISCV实验箱\模块驱动\19-LCD_ST7796U\AHL-CH32V307-LCD_ST7796U\Debug/srcc/lcd.c:245
    LCD_WR_DATA8(0xF0);
   1f324:	0f000513          	li	a0,240
   1f328:	c0bff0ef          	jal	ra,1ef32 <LCD_WR_DATA8>
E:\02-项目\13-RISCV实验箱\模块驱动\19-LCD_ST7796U\AHL-CH32V307-LCD_ST7796U\Debug/srcc/lcd.c:246
    LCD_WR_DATA8(0x09);
   1f32c:	4525                	li	a0,9
   1f32e:	c05ff0ef          	jal	ra,1ef32 <LCD_WR_DATA8>
E:\02-项目\13-RISCV实验箱\模块驱动\19-LCD_ST7796U\AHL-CH32V307-LCD_ST7796U\Debug/srcc/lcd.c:247
    LCD_WR_DATA8(0x13);
   1f332:	454d                	li	a0,19
   1f334:	bffff0ef          	jal	ra,1ef32 <LCD_WR_DATA8>
E:\02-项目\13-RISCV实验箱\模块驱动\19-LCD_ST7796U\AHL-CH32V307-LCD_ST7796U\Debug/srcc/lcd.c:248
    LCD_WR_DATA8(0x0C);
   1f338:	4531                	li	a0,12
   1f33a:	bf9ff0ef          	jal	ra,1ef32 <LCD_WR_DATA8>
E:\02-项目\13-RISCV实验箱\模块驱动\19-LCD_ST7796U\AHL-CH32V307-LCD_ST7796U\Debug/srcc/lcd.c:249
    LCD_WR_DATA8(0x0D);
   1f33e:	4535                	li	a0,13
   1f340:	bf3ff0ef          	jal	ra,1ef32 <LCD_WR_DATA8>
E:\02-项目\13-RISCV实验箱\模块驱动\19-LCD_ST7796U\AHL-CH32V307-LCD_ST7796U\Debug/srcc/lcd.c:250
    LCD_WR_DATA8(0x27);
   1f344:	02700513          	li	a0,39
   1f348:	bebff0ef          	jal	ra,1ef32 <LCD_WR_DATA8>
E:\02-项目\13-RISCV实验箱\模块驱动\19-LCD_ST7796U\AHL-CH32V307-LCD_ST7796U\Debug/srcc/lcd.c:251
    LCD_WR_DATA8(0x3B);
   1f34c:	03b00513          	li	a0,59
   1f350:	be3ff0ef          	jal	ra,1ef32 <LCD_WR_DATA8>
E:\02-项目\13-RISCV实验箱\模块驱动\19-LCD_ST7796U\AHL-CH32V307-LCD_ST7796U\Debug/srcc/lcd.c:252
    LCD_WR_DATA8(0x44);
   1f354:	04400513          	li	a0,68
   1f358:	bdbff0ef          	jal	ra,1ef32 <LCD_WR_DATA8>
E:\02-项目\13-RISCV实验箱\模块驱动\19-LCD_ST7796U\AHL-CH32V307-LCD_ST7796U\Debug/srcc/lcd.c:253
    LCD_WR_DATA8(0x4D);
   1f35c:	04d00513          	li	a0,77
   1f360:	bd3ff0ef          	jal	ra,1ef32 <LCD_WR_DATA8>
E:\02-项目\13-RISCV实验箱\模块驱动\19-LCD_ST7796U\AHL-CH32V307-LCD_ST7796U\Debug/srcc/lcd.c:254
    LCD_WR_DATA8(0x0B);
   1f364:	452d                	li	a0,11
   1f366:	bcdff0ef          	jal	ra,1ef32 <LCD_WR_DATA8>
E:\02-项目\13-RISCV实验箱\模块驱动\19-LCD_ST7796U\AHL-CH32V307-LCD_ST7796U\Debug/srcc/lcd.c:255
    LCD_WR_DATA8(0x17);
   1f36a:	455d                	li	a0,23
   1f36c:	bc7ff0ef          	jal	ra,1ef32 <LCD_WR_DATA8>
E:\02-项目\13-RISCV实验箱\模块驱动\19-LCD_ST7796U\AHL-CH32V307-LCD_ST7796U\Debug/srcc/lcd.c:256
    LCD_WR_DATA8(0x17);
   1f370:	455d                	li	a0,23
   1f372:	bc1ff0ef          	jal	ra,1ef32 <LCD_WR_DATA8>
E:\02-项目\13-RISCV实验箱\模块驱动\19-LCD_ST7796U\AHL-CH32V307-LCD_ST7796U\Debug/srcc/lcd.c:257
    LCD_WR_DATA8(0x1D);
   1f376:	4575                	li	a0,29
   1f378:	bbbff0ef          	jal	ra,1ef32 <LCD_WR_DATA8>
E:\02-项目\13-RISCV实验箱\模块驱动\19-LCD_ST7796U\AHL-CH32V307-LCD_ST7796U\Debug/srcc/lcd.c:258
    LCD_WR_DATA8(0x21);
   1f37c:	02100513          	li	a0,33
   1f380:	bb3ff0ef          	jal	ra,1ef32 <LCD_WR_DATA8>
E:\02-项目\13-RISCV实验箱\模块驱动\19-LCD_ST7796U\AHL-CH32V307-LCD_ST7796U\Debug/srcc/lcd.c:259
    LCD_WR_REG(0X36);
   1f384:	03600513          	li	a0,54
   1f388:	c23ff0ef          	jal	ra,1efaa <LCD_WR_REG>
E:\02-项目\13-RISCV实验箱\模块驱动\19-LCD_ST7796U\AHL-CH32V307-LCD_ST7796U\Debug/srcc/lcd.c:260
    LCD_WR_DATA8(0xEC);
   1f38c:	0ec00513          	li	a0,236
   1f390:	ba3ff0ef          	jal	ra,1ef32 <LCD_WR_DATA8>
E:\02-项目\13-RISCV实验箱\模块驱动\19-LCD_ST7796U\AHL-CH32V307-LCD_ST7796U\Debug/srcc/lcd.c:261
    LCD_WR_REG(0xF0);
   1f394:	0f000513          	li	a0,240
   1f398:	c13ff0ef          	jal	ra,1efaa <LCD_WR_REG>
E:\02-项目\13-RISCV实验箱\模块驱动\19-LCD_ST7796U\AHL-CH32V307-LCD_ST7796U\Debug/srcc/lcd.c:262
    LCD_WR_DATA8(0xC3);
   1f39c:	0c300513          	li	a0,195
   1f3a0:	b93ff0ef          	jal	ra,1ef32 <LCD_WR_DATA8>
E:\02-项目\13-RISCV实验箱\模块驱动\19-LCD_ST7796U\AHL-CH32V307-LCD_ST7796U\Debug/srcc/lcd.c:263
    LCD_WR_REG(0xF0);
   1f3a4:	0f000513          	li	a0,240
   1f3a8:	c03ff0ef          	jal	ra,1efaa <LCD_WR_REG>
E:\02-项目\13-RISCV实验箱\模块驱动\19-LCD_ST7796U\AHL-CH32V307-LCD_ST7796U\Debug/srcc/lcd.c:264
    LCD_WR_DATA8(0x69);
   1f3ac:	06900513          	li	a0,105
   1f3b0:	b83ff0ef          	jal	ra,1ef32 <LCD_WR_DATA8>
E:\02-项目\13-RISCV实验箱\模块驱动\19-LCD_ST7796U\AHL-CH32V307-LCD_ST7796U\Debug/srcc/lcd.c:265
    LCD_Delay_ms(120);
   1f3b4:	07800513          	li	a0,120
   1f3b8:	b57ff0ef          	jal	ra,1ef0e <LCD_Delay_ms>
E:\02-项目\13-RISCV实验箱\模块驱动\19-LCD_ST7796U\AHL-CH32V307-LCD_ST7796U\Debug/srcc/lcd.c:266
    LCD_WR_REG(0X13);
   1f3bc:	454d                	li	a0,19
   1f3be:	bedff0ef          	jal	ra,1efaa <LCD_WR_REG>
E:\02-项目\13-RISCV实验箱\模块驱动\19-LCD_ST7796U\AHL-CH32V307-LCD_ST7796U\Debug/srcc/lcd.c:267
    LCD_WR_REG(0X11);
   1f3c2:	4545                	li	a0,17
   1f3c4:	be7ff0ef          	jal	ra,1efaa <LCD_WR_REG>
E:\02-项目\13-RISCV实验箱\模块驱动\19-LCD_ST7796U\AHL-CH32V307-LCD_ST7796U\Debug/srcc/lcd.c:268
    LCD_WR_REG(0X29);
   1f3c8:	02900513          	li	a0,41
   1f3cc:	bdfff0ef          	jal	ra,1efaa <LCD_WR_REG>
E:\02-项目\13-RISCV实验箱\模块驱动\19-LCD_ST7796U\AHL-CH32V307-LCD_ST7796U\Debug/srcc/lcd.c:271
    LCD_direction(0);
   1f3d0:	4501                	li	a0,0
   1f3d2:	c35ff0ef          	jal	ra,1f006 <LCD_direction>
E:\02-项目\13-RISCV实验箱\模块驱动\19-LCD_ST7796U\AHL-CH32V307-LCD_ST7796U\Debug/srcc/lcd.c:273
    LCD_Clear(WHITE);
   1f3d6:	6541                	lui	a0,0x10
   1f3d8:	157d                	addi	a0,a0,-1
   1f3da:	d01ff0ef          	jal	ra,1f0da <LCD_Clear>
E:\02-项目\13-RISCV实验箱\模块驱动\19-LCD_ST7796U\AHL-CH32V307-LCD_ST7796U\Debug/srcc/lcd.c:277
}
   1f3de:	40b2                	lw	ra,12(sp)
   1f3e0:	0141                	addi	sp,sp,16
   1f3e2:	8082                	ret

0001f3e4 <LCD_DrawPoint>:
LCD_DrawPoint():
E:\02-项目\13-RISCV实验箱\模块驱动\19-LCD_ST7796U\AHL-CH32V307-LCD_ST7796U\Debug/srcc/lcd.c:327
{
   1f3e4:	1141                	addi	sp,sp,-16
   1f3e6:	c606                	sw	ra,12(sp)
   1f3e8:	c422                	sw	s0,8(sp)
   1f3ea:	8432                	mv	s0,a2
E:\02-项目\13-RISCV实验箱\模块驱动\19-LCD_ST7796U\AHL-CH32V307-LCD_ST7796U\Debug/srcc/lcd.c:328
    Address_set(x,y,x,y);//设置光标位置
   1f3ec:	86ae                	mv	a3,a1
   1f3ee:	862a                	mv	a2,a0
   1f3f0:	c71ff0ef          	jal	ra,1f060 <Address_set>
E:\02-项目\13-RISCV实验箱\模块驱动\19-LCD_ST7796U\AHL-CH32V307-LCD_ST7796U\Debug/srcc/lcd.c:329
    LCD_WR_DATA(color);
   1f3f4:	8522                	mv	a0,s0
   1f3f6:	b73ff0ef          	jal	ra,1ef68 <LCD_WR_DATA>
E:\02-项目\13-RISCV实验箱\模块驱动\19-LCD_ST7796U\AHL-CH32V307-LCD_ST7796U\Debug/srcc/lcd.c:330
}
   1f3fa:	40b2                	lw	ra,12(sp)
   1f3fc:	4422                	lw	s0,8(sp)
   1f3fe:	0141                	addi	sp,sp,16
   1f400:	8082                	ret

0001f402 <LCD_DrawLine>:
LCD_DrawLine():
E:\02-项目\13-RISCV实验箱\模块驱动\19-LCD_ST7796U\AHL-CH32V307-LCD_ST7796U\Debug/srcc/lcd.c:588
{
   1f402:	7179                	addi	sp,sp,-48
   1f404:	d606                	sw	ra,44(sp)
   1f406:	d422                	sw	s0,40(sp)
   1f408:	d226                	sw	s1,36(sp)
   1f40a:	d04a                	sw	s2,32(sp)
   1f40c:	ce4e                	sw	s3,28(sp)
   1f40e:	cc52                	sw	s4,24(sp)
   1f410:	ca56                	sw	s5,20(sp)
   1f412:	c85a                	sw	s6,16(sp)
   1f414:	c65e                	sw	s7,12(sp)
   1f416:	c462                	sw	s8,8(sp)
   1f418:	c266                	sw	s9,4(sp)
   1f41a:	c06a                	sw	s10,0(sp)
   1f41c:	8c3a                	mv	s8,a4
E:\02-项目\13-RISCV实验箱\模块驱动\19-LCD_ST7796U\AHL-CH32V307-LCD_ST7796U\Debug/srcc/lcd.c:593
    delta_x=x2-x1; //计算坐标增量
   1f41e:	8a2a                	mv	s4,a0
   1f420:	40a60b33          	sub	s6,a2,a0
E:\02-项目\13-RISCV实验箱\模块驱动\19-LCD_ST7796U\AHL-CH32V307-LCD_ST7796U\Debug/srcc/lcd.c:594
    delta_y=y2-y1;
   1f424:	8aae                	mv	s5,a1
   1f426:	40b68bb3          	sub	s7,a3,a1
E:\02-项目\13-RISCV实验箱\模块驱动\19-LCD_ST7796U\AHL-CH32V307-LCD_ST7796U\Debug/srcc/lcd.c:597
    if(delta_x>0)incx=1; //设置单步方向
   1f42a:	01605d63          	blez	s6,1f444 <LCD_DrawLine+0x42>
   1f42e:	4c85                	li	s9,1
E:\02-项目\13-RISCV实验箱\模块驱动\19-LCD_ST7796U\AHL-CH32V307-LCD_ST7796U\Debug/srcc/lcd.c:600
    if(delta_y>0)incy=1;
   1f430:	03705263          	blez	s7,1f454 <LCD_DrawLine+0x52>
   1f434:	4d05                	li	s10,1
E:\02-项目\13-RISCV实验箱\模块驱动\19-LCD_ST7796U\AHL-CH32V307-LCD_ST7796U\Debug/srcc/lcd.c:603
    if( delta_x>delta_y)distance=delta_x; //选取基本增量坐标轴
   1f436:	036bd763          	bge	s7,s6,1f464 <LCD_DrawLine+0x62>
   1f43a:	84da                	mv	s1,s6
E:\02-项目\13-RISCV实验箱\模块驱动\19-LCD_ST7796U\AHL-CH32V307-LCD_ST7796U\Debug/srcc/lcd.c:590
    int xerr=0,yerr=0,delta_x,delta_y,distance;
   1f43c:	4981                	li	s3,0
   1f43e:	4901                	li	s2,0
E:\02-项目\13-RISCV实验箱\模块驱动\19-LCD_ST7796U\AHL-CH32V307-LCD_ST7796U\Debug/srcc/lcd.c:605
    for(t=0;t<=distance+1;t++ )//画线输出
   1f440:	4401                	li	s0,0
   1f442:	a035                	j	1f46e <LCD_DrawLine+0x6c>
E:\02-项目\13-RISCV实验箱\模块驱动\19-LCD_ST7796U\AHL-CH32V307-LCD_ST7796U\Debug/srcc/lcd.c:598
    else if(delta_x==0)incx=0;//垂直线
   1f444:	000b0663          	beqz	s6,1f450 <LCD_DrawLine+0x4e>
E:\02-项目\13-RISCV实验箱\模块驱动\19-LCD_ST7796U\AHL-CH32V307-LCD_ST7796U\Debug/srcc/lcd.c:599
    else {incx=-1;delta_x=-delta_x;}
   1f448:	40c50b33          	sub	s6,a0,a2
   1f44c:	5cfd                	li	s9,-1
   1f44e:	b7cd                	j	1f430 <LCD_DrawLine+0x2e>
E:\02-项目\13-RISCV实验箱\模块驱动\19-LCD_ST7796U\AHL-CH32V307-LCD_ST7796U\Debug/srcc/lcd.c:598
    else if(delta_x==0)incx=0;//垂直线
   1f450:	8cda                	mv	s9,s6
   1f452:	bff9                	j	1f430 <LCD_DrawLine+0x2e>
E:\02-项目\13-RISCV实验箱\模块驱动\19-LCD_ST7796U\AHL-CH32V307-LCD_ST7796U\Debug/srcc/lcd.c:601
    else if(delta_y==0)incy=0;//水平线
   1f454:	000b8663          	beqz	s7,1f460 <LCD_DrawLine+0x5e>
E:\02-项目\13-RISCV实验箱\模块驱动\19-LCD_ST7796U\AHL-CH32V307-LCD_ST7796U\Debug/srcc/lcd.c:602
    else{incy=-1;delta_y=-delta_y;}
   1f458:	40d58bb3          	sub	s7,a1,a3
   1f45c:	5d7d                	li	s10,-1
   1f45e:	bfe1                	j	1f436 <LCD_DrawLine+0x34>
E:\02-项目\13-RISCV实验箱\模块驱动\19-LCD_ST7796U\AHL-CH32V307-LCD_ST7796U\Debug/srcc/lcd.c:601
    else if(delta_y==0)incy=0;//水平线
   1f460:	8d5e                	mv	s10,s7
   1f462:	bfd1                	j	1f436 <LCD_DrawLine+0x34>
E:\02-项目\13-RISCV实验箱\模块驱动\19-LCD_ST7796U\AHL-CH32V307-LCD_ST7796U\Debug/srcc/lcd.c:604
    else distance=delta_y;
   1f464:	84de                	mv	s1,s7
   1f466:	bfd9                	j	1f43c <LCD_DrawLine+0x3a>
E:\02-项目\13-RISCV实验箱\模块驱动\19-LCD_ST7796U\AHL-CH32V307-LCD_ST7796U\Debug/srcc/lcd.c:605 (discriminator 2)
    for(t=0;t<=distance+1;t++ )//画线输出
   1f468:	0405                	addi	s0,s0,1
   1f46a:	0442                	slli	s0,s0,0x10
   1f46c:	8041                	srli	s0,s0,0x10
E:\02-项目\13-RISCV实验箱\模块驱动\19-LCD_ST7796U\AHL-CH32V307-LCD_ST7796U\Debug/srcc/lcd.c:605 (discriminator 1)
   1f46e:	00148793          	addi	a5,s1,1
   1f472:	0287c863          	blt	a5,s0,1f4a2 <LCD_DrawLine+0xa0>
E:\02-项目\13-RISCV实验箱\模块驱动\19-LCD_ST7796U\AHL-CH32V307-LCD_ST7796U\Debug/srcc/lcd.c:607
        LCD_DrawPoint(uRow,uCol,color);//画点
   1f476:	8662                	mv	a2,s8
   1f478:	010a9593          	slli	a1,s5,0x10
   1f47c:	81c1                	srli	a1,a1,0x10
   1f47e:	010a1513          	slli	a0,s4,0x10
   1f482:	8141                	srli	a0,a0,0x10
   1f484:	f61ff0ef          	jal	ra,1f3e4 <LCD_DrawPoint>
E:\02-项目\13-RISCV实验箱\模块驱动\19-LCD_ST7796U\AHL-CH32V307-LCD_ST7796U\Debug/srcc/lcd.c:608
        xerr+=delta_x ;
   1f488:	995a                	add	s2,s2,s6
E:\02-项目\13-RISCV实验箱\模块驱动\19-LCD_ST7796U\AHL-CH32V307-LCD_ST7796U\Debug/srcc/lcd.c:609
        yerr+=delta_y ;
   1f48a:	99de                	add	s3,s3,s7
E:\02-项目\13-RISCV实验箱\模块驱动\19-LCD_ST7796U\AHL-CH32V307-LCD_ST7796U\Debug/srcc/lcd.c:610
        if(xerr>distance)
   1f48c:	0124d563          	bge	s1,s2,1f496 <LCD_DrawLine+0x94>
E:\02-项目\13-RISCV实验箱\模块驱动\19-LCD_ST7796U\AHL-CH32V307-LCD_ST7796U\Debug/srcc/lcd.c:612
            xerr-=distance;
   1f490:	40990933          	sub	s2,s2,s1
E:\02-项目\13-RISCV实验箱\模块驱动\19-LCD_ST7796U\AHL-CH32V307-LCD_ST7796U\Debug/srcc/lcd.c:613
            uRow+=incx;
   1f494:	9a66                	add	s4,s4,s9
E:\02-项目\13-RISCV实验箱\模块驱动\19-LCD_ST7796U\AHL-CH32V307-LCD_ST7796U\Debug/srcc/lcd.c:615
        if(yerr>distance)
   1f496:	fd34d9e3          	bge	s1,s3,1f468 <LCD_DrawLine+0x66>
E:\02-项目\13-RISCV实验箱\模块驱动\19-LCD_ST7796U\AHL-CH32V307-LCD_ST7796U\Debug/srcc/lcd.c:617
            yerr-=distance;
   1f49a:	409989b3          	sub	s3,s3,s1
E:\02-项目\13-RISCV实验箱\模块驱动\19-LCD_ST7796U\AHL-CH32V307-LCD_ST7796U\Debug/srcc/lcd.c:618
            uCol+=incy;
   1f49e:	9aea                	add	s5,s5,s10
   1f4a0:	b7e1                	j	1f468 <LCD_DrawLine+0x66>
E:\02-项目\13-RISCV实验箱\模块驱动\19-LCD_ST7796U\AHL-CH32V307-LCD_ST7796U\Debug/srcc/lcd.c:621
}
   1f4a2:	50b2                	lw	ra,44(sp)
   1f4a4:	5422                	lw	s0,40(sp)
   1f4a6:	5492                	lw	s1,36(sp)
   1f4a8:	5902                	lw	s2,32(sp)
   1f4aa:	49f2                	lw	s3,28(sp)
   1f4ac:	4a62                	lw	s4,24(sp)
   1f4ae:	4ad2                	lw	s5,20(sp)
   1f4b0:	4b42                	lw	s6,16(sp)
   1f4b2:	4bb2                	lw	s7,12(sp)
   1f4b4:	4c22                	lw	s8,8(sp)
   1f4b6:	4c92                	lw	s9,4(sp)
   1f4b8:	4d02                	lw	s10,0(sp)
   1f4ba:	6145                	addi	sp,sp,48
   1f4bc:	8082                	ret

0001f4be <LCD_DrawRectangle>:
LCD_DrawRectangle():
E:\02-项目\13-RISCV实验箱\模块驱动\19-LCD_ST7796U\AHL-CH32V307-LCD_ST7796U\Debug/srcc/lcd.c:393
{
   1f4be:	1101                	addi	sp,sp,-32
   1f4c0:	ce06                	sw	ra,28(sp)
   1f4c2:	cc22                	sw	s0,24(sp)
   1f4c4:	ca26                	sw	s1,20(sp)
   1f4c6:	c84a                	sw	s2,16(sp)
   1f4c8:	c64e                	sw	s3,12(sp)
   1f4ca:	c452                	sw	s4,8(sp)
   1f4cc:	8a2a                	mv	s4,a0
   1f4ce:	892e                	mv	s2,a1
   1f4d0:	84b2                	mv	s1,a2
   1f4d2:	8436                	mv	s0,a3
   1f4d4:	89ba                	mv	s3,a4
E:\02-项目\13-RISCV实验箱\模块驱动\19-LCD_ST7796U\AHL-CH32V307-LCD_ST7796U\Debug/srcc/lcd.c:394
    LCD_DrawLine(x1,y1,x2,y1,color);
   1f4d6:	86ae                	mv	a3,a1
   1f4d8:	f2bff0ef          	jal	ra,1f402 <LCD_DrawLine>
E:\02-项目\13-RISCV实验箱\模块驱动\19-LCD_ST7796U\AHL-CH32V307-LCD_ST7796U\Debug/srcc/lcd.c:395
    LCD_DrawLine(x1,y1,x1,y2,color);
   1f4dc:	874e                	mv	a4,s3
   1f4de:	86a2                	mv	a3,s0
   1f4e0:	8652                	mv	a2,s4
   1f4e2:	85ca                	mv	a1,s2
   1f4e4:	8552                	mv	a0,s4
   1f4e6:	f1dff0ef          	jal	ra,1f402 <LCD_DrawLine>
E:\02-项目\13-RISCV实验箱\模块驱动\19-LCD_ST7796U\AHL-CH32V307-LCD_ST7796U\Debug/srcc/lcd.c:396
    LCD_DrawLine(x1,y2,x2,y2,color);
   1f4ea:	874e                	mv	a4,s3
   1f4ec:	86a2                	mv	a3,s0
   1f4ee:	8626                	mv	a2,s1
   1f4f0:	85a2                	mv	a1,s0
   1f4f2:	8552                	mv	a0,s4
   1f4f4:	f0fff0ef          	jal	ra,1f402 <LCD_DrawLine>
E:\02-项目\13-RISCV实验箱\模块驱动\19-LCD_ST7796U\AHL-CH32V307-LCD_ST7796U\Debug/srcc/lcd.c:397
    LCD_DrawLine(x2,y1,x2,y2,color);
   1f4f8:	874e                	mv	a4,s3
   1f4fa:	86a2                	mv	a3,s0
   1f4fc:	8626                	mv	a2,s1
   1f4fe:	85ca                	mv	a1,s2
   1f500:	8526                	mv	a0,s1
   1f502:	f01ff0ef          	jal	ra,1f402 <LCD_DrawLine>
E:\02-项目\13-RISCV实验箱\模块驱动\19-LCD_ST7796U\AHL-CH32V307-LCD_ST7796U\Debug/srcc/lcd.c:398
}
   1f506:	40f2                	lw	ra,28(sp)
   1f508:	4462                	lw	s0,24(sp)
   1f50a:	44d2                	lw	s1,20(sp)
   1f50c:	4942                	lw	s2,16(sp)
   1f50e:	49b2                	lw	s3,12(sp)
   1f510:	4a22                	lw	s4,8(sp)
   1f512:	6105                	addi	sp,sp,32
   1f514:	8082                	ret

0001f516 <LCD_ShowCharactor>:
LCD_ShowCharactor():
E:\02-项目\13-RISCV实验箱\模块驱动\19-LCD_ST7796U\AHL-CH32V307-LCD_ST7796U\Debug/srcc/lcd.c:410
{
   1f516:	1101                	addi	sp,sp,-32
   1f518:	ce06                	sw	ra,28(sp)
   1f51a:	cc22                	sw	s0,24(sp)
   1f51c:	ca26                	sw	s1,20(sp)
   1f51e:	c84a                	sw	s2,16(sp)
   1f520:	c64e                	sw	s3,12(sp)
   1f522:	c452                	sw	s4,8(sp)
   1f524:	8a32                	mv	s4,a2
   1f526:	89b6                	mv	s3,a3
   1f528:	84ba                	mv	s1,a4
E:\02-项目\13-RISCV实验箱\模块驱动\19-LCD_ST7796U\AHL-CH32V307-LCD_ST7796U\Debug/srcc/lcd.c:413
    Address_set(x,y,x+15,y+15); //设置区域
   1f52a:	00f58693          	addi	a3,a1,15 # 10000f <_data_lma+0xddab7>
   1f52e:	00f50613          	addi	a2,a0,15 # 1000f <__stack_size+0xf80f>
   1f532:	06c2                	slli	a3,a3,0x10
   1f534:	82c1                	srli	a3,a3,0x10
   1f536:	0642                	slli	a2,a2,0x10
   1f538:	8241                	srli	a2,a2,0x10
   1f53a:	b27ff0ef          	jal	ra,1f060 <Address_set>
E:\02-项目\13-RISCV实验箱\模块驱动\19-LCD_ST7796U\AHL-CH32V307-LCD_ST7796U\Debug/srcc/lcd.c:414
    for(j=0;j<32;j++)
   1f53e:	4901                	li	s2,0
   1f540:	a805                	j	1f570 <LCD_ShowCharactor+0x5a>
E:\02-项目\13-RISCV实验箱\模块驱动\19-LCD_ST7796U\AHL-CH32V307-LCD_ST7796U\Debug/srcc/lcd.c:422
            LCD_WR_DATA(groundbackcolor);
   1f542:	854e                	mv	a0,s3
   1f544:	a25ff0ef          	jal	ra,1ef68 <LCD_WR_DATA>
E:\02-项目\13-RISCV实验箱\模块驱动\19-LCD_ST7796U\AHL-CH32V307-LCD_ST7796U\Debug/srcc/lcd.c:416 (discriminator 2)
        for(i=0;i<8;i++)
   1f548:	0405                	addi	s0,s0,1
   1f54a:	0ff47413          	andi	s0,s0,255
E:\02-项目\13-RISCV实验箱\模块驱动\19-LCD_ST7796U\AHL-CH32V307-LCD_ST7796U\Debug/srcc/lcd.c:416 (discriminator 1)
   1f54e:	479d                	li	a5,7
   1f550:	0087ec63          	bltu	a5,s0,1f568 <LCD_ShowCharactor+0x52>
E:\02-项目\13-RISCV实验箱\模块驱动\19-LCD_ST7796U\AHL-CH32V307-LCD_ST7796U\Debug/srcc/lcd.c:418
            if((*temp&(1<<i))!=0)
   1f554:	00048783          	lb	a5,0(s1)
   1f558:	4087d7b3          	sra	a5,a5,s0
   1f55c:	8b85                	andi	a5,a5,1
   1f55e:	d3f5                	beqz	a5,1f542 <LCD_ShowCharactor+0x2c>
E:\02-项目\13-RISCV实验箱\模块驱动\19-LCD_ST7796U\AHL-CH32V307-LCD_ST7796U\Debug/srcc/lcd.c:419
            LCD_WR_DATA(fontcolor);
   1f560:	8552                	mv	a0,s4
   1f562:	a07ff0ef          	jal	ra,1ef68 <LCD_WR_DATA>
   1f566:	b7cd                	j	1f548 <LCD_ShowCharactor+0x32>
E:\02-项目\13-RISCV实验箱\模块驱动\19-LCD_ST7796U\AHL-CH32V307-LCD_ST7796U\Debug/srcc/lcd.c:424 (discriminator 2)
        temp++;
   1f568:	0485                	addi	s1,s1,1
E:\02-项目\13-RISCV实验箱\模块驱动\19-LCD_ST7796U\AHL-CH32V307-LCD_ST7796U\Debug/srcc/lcd.c:414 (discriminator 2)
    for(j=0;j<32;j++)
   1f56a:	0905                	addi	s2,s2,1
   1f56c:	0ff97913          	andi	s2,s2,255
E:\02-项目\13-RISCV实验箱\模块驱动\19-LCD_ST7796U\AHL-CH32V307-LCD_ST7796U\Debug/srcc/lcd.c:414 (discriminator 1)
   1f570:	47fd                	li	a5,31
   1f572:	0127e463          	bltu	a5,s2,1f57a <LCD_ShowCharactor+0x64>
E:\02-项目\13-RISCV实验箱\模块驱动\19-LCD_ST7796U\AHL-CH32V307-LCD_ST7796U\Debug/srcc/lcd.c:416
        for(i=0;i<8;i++)
   1f576:	4401                	li	s0,0
   1f578:	bfd9                	j	1f54e <LCD_ShowCharactor+0x38>
E:\02-项目\13-RISCV实验箱\模块驱动\19-LCD_ST7796U\AHL-CH32V307-LCD_ST7796U\Debug/srcc/lcd.c:426
}
   1f57a:	40f2                	lw	ra,28(sp)
   1f57c:	4462                	lw	s0,24(sp)
   1f57e:	44d2                	lw	s1,20(sp)
   1f580:	4942                	lw	s2,16(sp)
   1f582:	49b2                	lw	s3,12(sp)
   1f584:	4a22                	lw	s4,8(sp)
   1f586:	6105                	addi	sp,sp,32
   1f588:	8082                	ret

0001f58a <LCD_ShowString>:
LCD_ShowString():
E:\02-项目\13-RISCV实验箱\模块驱动\19-LCD_ST7796U\AHL-CH32V307-LCD_ST7796U\Debug/srcc/lcd.c:491
{
   1f58a:	7179                	addi	sp,sp,-48
   1f58c:	d606                	sw	ra,44(sp)
   1f58e:	d422                	sw	s0,40(sp)
   1f590:	d226                	sw	s1,36(sp)
   1f592:	d04a                	sw	s2,32(sp)
   1f594:	ce4e                	sw	s3,28(sp)
   1f596:	cc52                	sw	s4,24(sp)
   1f598:	ca56                	sw	s5,20(sp)
   1f59a:	c85a                	sw	s6,16(sp)
   1f59c:	c65e                	sw	s7,12(sp)
   1f59e:	c462                	sw	s8,8(sp)
   1f5a0:	8c2a                	mv	s8,a0
   1f5a2:	8bae                	mv	s7,a1
   1f5a4:	8a32                	mv	s4,a2
   1f5a6:	89b6                	mv	s3,a3
   1f5a8:	8aba                	mv	s5,a4
E:\02-项目\13-RISCV实验箱\模块驱动\19-LCD_ST7796U\AHL-CH32V307-LCD_ST7796U\Debug/srcc/lcd.c:494
    k = 0;
   1f5aa:	4b01                	li	s6,0
E:\02-项目\13-RISCV实验箱\模块驱动\19-LCD_ST7796U\AHL-CH32V307-LCD_ST7796U\Debug/srcc/lcd.c:495
    while(*p != 0)
   1f5ac:	a8bd                	j	1f62a <LCD_ShowString+0xa0>
E:\02-项目\13-RISCV实验箱\模块驱动\19-LCD_ST7796U\AHL-CH32V307-LCD_ST7796U\Debug/srcc/lcd.c:502
            Address_set(x+8*k,y,x+7+8*k,y+15); //设置区域
   1f5ae:	003b1513          	slli	a0,s6,0x3
   1f5b2:	9562                	add	a0,a0,s8
   1f5b4:	0542                	slli	a0,a0,0x10
   1f5b6:	8141                	srli	a0,a0,0x10
   1f5b8:	00fb8693          	addi	a3,s7,15
   1f5bc:	00750613          	addi	a2,a0,7
   1f5c0:	06c2                	slli	a3,a3,0x10
   1f5c2:	82c1                	srli	a3,a3,0x10
   1f5c4:	0642                	slli	a2,a2,0x10
   1f5c6:	8241                	srli	a2,a2,0x10
   1f5c8:	85de                	mv	a1,s7
   1f5ca:	a97ff0ef          	jal	ra,1f060 <Address_set>
E:\02-项目\13-RISCV实验箱\模块驱动\19-LCD_ST7796U\AHL-CH32V307-LCD_ST7796U\Debug/srcc/lcd.c:503
            temp+=(*p-0x20)*16;
   1f5ce:	000a8783          	lb	a5,0(s5)
   1f5d2:	1781                	addi	a5,a5,-32
   1f5d4:	0792                	slli	a5,a5,0x4
   1f5d6:	000224b7          	lui	s1,0x22
   1f5da:	cf448493          	addi	s1,s1,-780 # 21cf4 <nAsciiDot>
   1f5de:	94be                	add	s1,s1,a5
E:\02-项目\13-RISCV实验箱\模块驱动\19-LCD_ST7796U\AHL-CH32V307-LCD_ST7796U\Debug/srcc/lcd.c:504
            for(j=0;j<16;j++)
   1f5e0:	4901                	li	s2,0
   1f5e2:	a805                	j	1f612 <LCD_ShowString+0x88>
E:\02-项目\13-RISCV实验箱\模块驱动\19-LCD_ST7796U\AHL-CH32V307-LCD_ST7796U\Debug/srcc/lcd.c:514
                        LCD_WR_DATA(groundbackcolor);
   1f5e4:	854e                	mv	a0,s3
   1f5e6:	983ff0ef          	jal	ra,1ef68 <LCD_WR_DATA>
E:\02-项目\13-RISCV实验箱\模块驱动\19-LCD_ST7796U\AHL-CH32V307-LCD_ST7796U\Debug/srcc/lcd.c:506 (discriminator 2)
                for(i=0;i<8;i++)
   1f5ea:	0405                	addi	s0,s0,1
   1f5ec:	0ff47413          	andi	s0,s0,255
E:\02-项目\13-RISCV实验箱\模块驱动\19-LCD_ST7796U\AHL-CH32V307-LCD_ST7796U\Debug/srcc/lcd.c:506 (discriminator 1)
   1f5f0:	479d                	li	a5,7
   1f5f2:	0087ec63          	bltu	a5,s0,1f60a <LCD_ShowString+0x80>
E:\02-项目\13-RISCV实验箱\模块驱动\19-LCD_ST7796U\AHL-CH32V307-LCD_ST7796U\Debug/srcc/lcd.c:508
                    if((*temp&(1<<i))!=0)
   1f5f6:	00048783          	lb	a5,0(s1)
   1f5fa:	4087d7b3          	sra	a5,a5,s0
   1f5fe:	8b85                	andi	a5,a5,1
   1f600:	d3f5                	beqz	a5,1f5e4 <LCD_ShowString+0x5a>
E:\02-项目\13-RISCV实验箱\模块驱动\19-LCD_ST7796U\AHL-CH32V307-LCD_ST7796U\Debug/srcc/lcd.c:510
                        LCD_WR_DATA(fontcolor);
   1f602:	8552                	mv	a0,s4
   1f604:	965ff0ef          	jal	ra,1ef68 <LCD_WR_DATA>
   1f608:	b7cd                	j	1f5ea <LCD_ShowString+0x60>
E:\02-项目\13-RISCV实验箱\模块驱动\19-LCD_ST7796U\AHL-CH32V307-LCD_ST7796U\Debug/srcc/lcd.c:517 (discriminator 2)
                temp++;
   1f60a:	0485                	addi	s1,s1,1
E:\02-项目\13-RISCV实验箱\模块驱动\19-LCD_ST7796U\AHL-CH32V307-LCD_ST7796U\Debug/srcc/lcd.c:504 (discriminator 2)
            for(j=0;j<16;j++)
   1f60c:	0905                	addi	s2,s2,1
   1f60e:	0ff97913          	andi	s2,s2,255
E:\02-项目\13-RISCV实验箱\模块驱动\19-LCD_ST7796U\AHL-CH32V307-LCD_ST7796U\Debug/srcc/lcd.c:504 (discriminator 1)
   1f612:	47bd                	li	a5,15
   1f614:	0127e463          	bltu	a5,s2,1f61c <LCD_ShowString+0x92>
E:\02-项目\13-RISCV实验箱\模块驱动\19-LCD_ST7796U\AHL-CH32V307-LCD_ST7796U\Debug/srcc/lcd.c:506
                for(i=0;i<8;i++)
   1f618:	4401                	li	s0,0
   1f61a:	bfd9                	j	1f5f0 <LCD_ShowString+0x66>
E:\02-项目\13-RISCV实验箱\模块驱动\19-LCD_ST7796U\AHL-CH32V307-LCD_ST7796U\Debug/srcc/lcd.c:519
            k++;
   1f61c:	0b05                	addi	s6,s6,1
   1f61e:	0ffb7b13          	andi	s6,s6,255
E:\02-项目\13-RISCV实验箱\模块驱动\19-LCD_ST7796U\AHL-CH32V307-LCD_ST7796U\Debug/srcc/lcd.c:538
        p++;
   1f622:	0a85                	addi	s5,s5,1
E:\02-项目\13-RISCV实验箱\模块驱动\19-LCD_ST7796U\AHL-CH32V307-LCD_ST7796U\Debug/srcc/lcd.c:539
        if (k>=30) break;
   1f624:	47f5                	li	a5,29
   1f626:	0967e163          	bltu	a5,s6,1f6a8 <LCD_ShowString+0x11e>
E:\02-项目\13-RISCV实验箱\模块驱动\19-LCD_ST7796U\AHL-CH32V307-LCD_ST7796U\Debug/srcc/lcd.c:495
    while(*p != 0)
   1f62a:	000a8783          	lb	a5,0(s5)
   1f62e:	cfad                	beqz	a5,1f6a8 <LCD_ShowString+0x11e>
E:\02-项目\13-RISCV实验箱\模块驱动\19-LCD_ST7796U\AHL-CH32V307-LCD_ST7796U\Debug/srcc/lcd.c:499
        if(*p>=0x20 && *p<=0x7e)
   1f630:	fe078713          	addi	a4,a5,-32
   1f634:	0ff77713          	andi	a4,a4,255
   1f638:	05e00693          	li	a3,94
   1f63c:	f6e6f9e3          	bgeu	a3,a4,1f5ae <LCD_ShowString+0x24>
E:\02-项目\13-RISCV实验箱\模块驱动\19-LCD_ST7796U\AHL-CH32V307-LCD_ST7796U\Debug/srcc/lcd.c:521
        else if(*p > 0x7e)
   1f640:	07f00713          	li	a4,127
   1f644:	fce79fe3          	bne	a5,a4,1f622 <LCD_ShowString+0x98>
E:\02-项目\13-RISCV实验箱\模块驱动\19-LCD_ST7796U\AHL-CH32V307-LCD_ST7796U\Debug/srcc/lcd.c:524
            for(i=0;i<ChineseCharacterLength;i++)
   1f648:	4701                	li	a4,0
   1f64a:	a021                	j	1f652 <LCD_ShowString+0xc8>
E:\02-项目\13-RISCV实验箱\模块驱动\19-LCD_ST7796U\AHL-CH32V307-LCD_ST7796U\Debug/srcc/lcd.c:524 (discriminator 2)
   1f64c:	0705                	addi	a4,a4,1
   1f64e:	0ff77713          	andi	a4,a4,255
E:\02-项目\13-RISCV实验箱\模块驱动\19-LCD_ST7796U\AHL-CH32V307-LCD_ST7796U\Debug/srcc/lcd.c:524 (discriminator 1)
   1f652:	4689                	li	a3,2
   1f654:	04e6e663          	bltu	a3,a4,1f6a0 <LCD_ShowString+0x116>
E:\02-项目\13-RISCV实验箱\模块驱动\19-LCD_ST7796U\AHL-CH32V307-LCD_ST7796U\Debug/srcc/lcd.c:527
                uint8_t b = *(p+1);
   1f658:	001a8503          	lb	a0,1(s5)
E:\02-项目\13-RISCV实验箱\模块驱动\19-LCD_ST7796U\AHL-CH32V307-LCD_ST7796U\Debug/srcc/lcd.c:528
                uint8_t c = GB_16[i].Index[0];
   1f65c:	00471613          	slli	a2,a4,0x4
   1f660:	963a                	add	a2,a2,a4
   1f662:	00161593          	slli	a1,a2,0x1
   1f666:	000226b7          	lui	a3,0x22
   1f66a:	c8c68693          	addi	a3,a3,-884 # 21c8c <GB_16>
   1f66e:	96ae                	add	a3,a3,a1
   1f670:	00068603          	lb	a2,0(a3)
E:\02-项目\13-RISCV实验箱\模块驱动\19-LCD_ST7796U\AHL-CH32V307-LCD_ST7796U\Debug/srcc/lcd.c:529
                uint8_t d = GB_16[i].Index[1];
   1f674:	00168683          	lb	a3,1(a3)
E:\02-项目\13-RISCV实验箱\模块驱动\19-LCD_ST7796U\AHL-CH32V307-LCD_ST7796U\Debug/srcc/lcd.c:530
                if( (a == c) && (b == d))
   1f678:	fcf61ae3          	bne	a2,a5,1f64c <LCD_ShowString+0xc2>
E:\02-项目\13-RISCV实验箱\模块驱动\19-LCD_ST7796U\AHL-CH32V307-LCD_ST7796U\Debug/srcc/lcd.c:530 (discriminator 1)
   1f67c:	fcd518e3          	bne	a0,a3,1f64c <LCD_ShowString+0xc2>
E:\02-项目\13-RISCV实验箱\模块驱动\19-LCD_ST7796U\AHL-CH32V307-LCD_ST7796U\Debug/srcc/lcd.c:532
                    LCD_ShowCharactor(x+8*k,y,fontcolor,groundbackcolor,GB_16[i].Msk);
   1f680:	00022737          	lui	a4,0x22
   1f684:	c8c70713          	addi	a4,a4,-884 # 21c8c <GB_16>
   1f688:	972e                	add	a4,a4,a1
   1f68a:	003b1513          	slli	a0,s6,0x3
   1f68e:	9562                	add	a0,a0,s8
   1f690:	0709                	addi	a4,a4,2
   1f692:	86ce                	mv	a3,s3
   1f694:	8652                	mv	a2,s4
   1f696:	85de                	mv	a1,s7
   1f698:	0542                	slli	a0,a0,0x10
   1f69a:	8141                	srli	a0,a0,0x10
   1f69c:	e7bff0ef          	jal	ra,1f516 <LCD_ShowCharactor>
E:\02-项目\13-RISCV实验箱\模块驱动\19-LCD_ST7796U\AHL-CH32V307-LCD_ST7796U\Debug/srcc/lcd.c:536
            k++;
   1f6a0:	0b05                	addi	s6,s6,1
   1f6a2:	0ffb7b13          	andi	s6,s6,255
   1f6a6:	bfb5                	j	1f622 <LCD_ShowString+0x98>
E:\02-项目\13-RISCV实验箱\模块驱动\19-LCD_ST7796U\AHL-CH32V307-LCD_ST7796U\Debug/srcc/lcd.c:542
}
   1f6a8:	50b2                	lw	ra,44(sp)
   1f6aa:	5422                	lw	s0,40(sp)
   1f6ac:	5492                	lw	s1,36(sp)
   1f6ae:	5902                	lw	s2,32(sp)
   1f6b0:	49f2                	lw	s3,28(sp)
   1f6b2:	4a62                	lw	s4,24(sp)
   1f6b4:	4ad2                	lw	s5,20(sp)
   1f6b6:	4b42                	lw	s6,16(sp)
   1f6b8:	4bb2                	lw	s7,12(sp)
   1f6ba:	4c22                	lw	s8,8(sp)
   1f6bc:	6145                	addi	sp,sp,48
   1f6be:	8082                	ret

0001f6c0 <LCD_DrawSurface>:
LCD_DrawSurface():
E:\02-项目\13-RISCV实验箱\模块驱动\19-LCD_ST7796U\AHL-CH32V307-LCD_ST7796U\Debug/srcc/lcd.c:632
{
   1f6c0:	1101                	addi	sp,sp,-32
   1f6c2:	ce06                	sw	ra,28(sp)
   1f6c4:	cc22                	sw	s0,24(sp)
   1f6c6:	ca26                	sw	s1,20(sp)
   1f6c8:	c84a                	sw	s2,16(sp)
   1f6ca:	c64e                	sw	s3,12(sp)
   1f6cc:	c452                	sw	s4,8(sp)
   1f6ce:	c256                	sw	s5,4(sp)
   1f6d0:	8aaa                	mv	s5,a0
   1f6d2:	89ae                	mv	s3,a1
   1f6d4:	84b2                	mv	s1,a2
   1f6d6:	8a36                	mv	s4,a3
   1f6d8:	893a                	mv	s2,a4
E:\02-项目\13-RISCV实验箱\模块驱动\19-LCD_ST7796U\AHL-CH32V307-LCD_ST7796U\Debug/srcc/lcd.c:634
    Address_set(x1,y1,x2,y2);      //设置光标位置
   1f6da:	987ff0ef          	jal	ra,1f060 <Address_set>
E:\02-项目\13-RISCV实验箱\模块驱动\19-LCD_ST7796U\AHL-CH32V307-LCD_ST7796U\Debug/srcc/lcd.c:635
    for(i=y1;i<=y2;i++)
   1f6de:	a029                	j	1f6e8 <LCD_DrawSurface+0x28>
E:\02-项目\13-RISCV实验箱\模块驱动\19-LCD_ST7796U\AHL-CH32V307-LCD_ST7796U\Debug/srcc/lcd.c:635 (discriminator 2)
   1f6e0:	0985                	addi	s3,s3,1
   1f6e2:	09c2                	slli	s3,s3,0x10
   1f6e4:	0109d993          	srli	s3,s3,0x10
E:\02-项目\13-RISCV实验箱\模块驱动\19-LCD_ST7796U\AHL-CH32V307-LCD_ST7796U\Debug/srcc/lcd.c:635 (discriminator 1)
   1f6e8:	013a6c63          	bltu	s4,s3,1f700 <LCD_DrawSurface+0x40>
E:\02-项目\13-RISCV实验箱\模块驱动\19-LCD_ST7796U\AHL-CH32V307-LCD_ST7796U\Debug/srcc/lcd.c:637
        for(j=x1;j<=x2;j++)LCD_WR_DATA(color);//画点
   1f6ec:	8456                	mv	s0,s5
E:\02-项目\13-RISCV实验箱\模块驱动\19-LCD_ST7796U\AHL-CH32V307-LCD_ST7796U\Debug/srcc/lcd.c:637 (discriminator 1)
   1f6ee:	fe84e9e3          	bltu	s1,s0,1f6e0 <LCD_DrawSurface+0x20>
E:\02-项目\13-RISCV实验箱\模块驱动\19-LCD_ST7796U\AHL-CH32V307-LCD_ST7796U\Debug/srcc/lcd.c:637 (discriminator 3)
   1f6f2:	854a                	mv	a0,s2
   1f6f4:	875ff0ef          	jal	ra,1ef68 <LCD_WR_DATA>
   1f6f8:	0405                	addi	s0,s0,1
   1f6fa:	0442                	slli	s0,s0,0x10
   1f6fc:	8041                	srli	s0,s0,0x10
   1f6fe:	bfc5                	j	1f6ee <LCD_DrawSurface+0x2e>
E:\02-项目\13-RISCV实验箱\模块驱动\19-LCD_ST7796U\AHL-CH32V307-LCD_ST7796U\Debug/srcc/lcd.c:639
}
   1f700:	40f2                	lw	ra,28(sp)
   1f702:	4462                	lw	s0,24(sp)
   1f704:	44d2                	lw	s1,20(sp)
   1f706:	4942                	lw	s2,16(sp)
   1f708:	49b2                	lw	s3,12(sp)
   1f70a:	4a22                	lw	s4,8(sp)
   1f70c:	4a92                	lw	s5,4(sp)
   1f70e:	6105                	addi	sp,sp,32
   1f710:	8082                	ret

0001f712 <UART_User_Handler>:
UART_User_Handler():
E:\02-项目\13-RISCV实验箱\模块驱动\19-LCD_ST7796U\AHL-CH32V307-LCD_ST7796U\Debug/srcc/isr.c:18
//触发条件：UART_User串口收到一个字节触发
//备    注：进入本程序后，可使用uart_get_re_int函数可再进行中断标志判断
//          （1-有UART接收中断，0-没有UART接收中断）
//======================================================================
void UART_User_Handler(void)
{
   1f712:	1101                	addi	sp,sp,-32
   1f714:	ce06                	sw	ra,28(sp)
E:\02-项目\13-RISCV实验箱\模块驱动\19-LCD_ST7796U\AHL-CH32V307-LCD_ST7796U\Debug/srcc/isr.c:21
	 //（1）变量声明
    uint8_t flag,ch;
    DISABLE_INTERRUPTS;      //关总中断
   1f716:	4781                	li	a5,0
   1f718:	30079073          	csrw	mstatus,a5
E:\02-项目\13-RISCV实验箱\模块驱动\19-LCD_ST7796U\AHL-CH32V307-LCD_ST7796U\Debug/srcc/isr.c:23
    //（2）未触发串口接收中断，退出
    if(!uart_get_re_int(UART_User)) goto UART_User_Handler_EXIT;
   1f71c:	4509                	li	a0,2
   1f71e:	facff0ef          	jal	ra,1eeca <uart_get_re_int>
   1f722:	e901                	bnez	a0,1f732 <UART_User_Handler+0x20>
E:\02-项目\13-RISCV实验箱\模块驱动\19-LCD_ST7796U\AHL-CH32V307-LCD_ST7796U\Debug/srcc/isr.c:49
        gcRecvLen = 0;   //帧已经使用完毕，下次若收到一个字节，可以继续组帧
        //【使用模板提供的User串口通信帧结构（结束)】
     */
    //（5）【公共退出区】
UART_User_Handler_EXIT:
    ENABLE_INTERRUPTS;//开总中断
   1f724:	08800793          	li	a5,136
   1f728:	30079073          	csrw	mstatus,a5
E:\02-项目\13-RISCV实验箱\模块驱动\19-LCD_ST7796U\AHL-CH32V307-LCD_ST7796U\Debug/srcc/isr.c:50
}
   1f72c:	40f2                	lw	ra,28(sp)
   1f72e:	6105                	addi	sp,sp,32
   1f730:	8082                	ret
E:\02-项目\13-RISCV实验箱\模块驱动\19-LCD_ST7796U\AHL-CH32V307-LCD_ST7796U\Debug/srcc/isr.c:25
    ch = uart_re1(UART_User,&flag);        //调用接收一个字节的函数
   1f732:	00f10593          	addi	a1,sp,15
   1f736:	4509                	li	a0,2
   1f738:	ec8ff0ef          	jal	ra,1ee00 <uart_re1>
E:\02-项目\13-RISCV实验箱\模块驱动\19-LCD_ST7796U\AHL-CH32V307-LCD_ST7796U\Debug/srcc/isr.c:26
    if(!flag) goto UART_User_Handler_EXIT; //实际未收到数据，退出
   1f73c:	00f14783          	lbu	a5,15(sp)
   1f740:	d3f5                	beqz	a5,1f724 <UART_User_Handler+0x12>
E:\02-项目\13-RISCV实验箱\模块驱动\19-LCD_ST7796U\AHL-CH32V307-LCD_ST7796U\Debug/srcc/isr.c:30
        uart_send1(UART_User,ch);     //例如，收到一个字节回发一个字节
   1f742:	85aa                	mv	a1,a0
   1f744:	4509                	li	a0,2
   1f746:	e58ff0ef          	jal	ra,1ed9e <uart_send1>
   1f74a:	bfe9                	j	1f724 <UART_User_Handler+0x12>

0001f74c <Cam_User_Handler>:
Cam_User_Handler():
E:\02-项目\13-RISCV实验箱\模块驱动\19-LCD_ST7796U\AHL-CH32V307-LCD_ST7796U\Debug/srcc/isr.c:59
//触发条件：摄像头模块发送完整一帧数据后从VSYNC脚发出上升沿中断
//备    注：
//          
//======================================================================
void Cam_User_Handler(void)
{
   1f74c:	1141                	addi	sp,sp,-16
   1f74e:	c606                	sw	ra,12(sp)
E:\02-项目\13-RISCV实验箱\模块驱动\19-LCD_ST7796U\AHL-CH32V307-LCD_ST7796U\Debug/srcc/isr.c:60
	DISABLE_INTERRUPTS;
   1f750:	4781                	li	a5,0
   1f752:	30079073          	csrw	mstatus,a5
E:\02-项目\13-RISCV实验箱\模块驱动\19-LCD_ST7796U\AHL-CH32V307-LCD_ST7796U\Debug/srcc/isr.c:62
    //接收到摄像头模块引脚VSYNC中断触发
    if(gpio_get_int(cam_VSYNC))
   1f756:	20c00513          	li	a0,524
   1f75a:	859fe0ef          	jal	ra,1dfb2 <gpio_get_int>
   1f75e:	e901                	bnez	a0,1f76e <Cam_User_Handler+0x22>
E:\02-项目\13-RISCV实验箱\模块驱动\19-LCD_ST7796U\AHL-CH32V307-LCD_ST7796U\Debug/srcc/isr.c:86
            cam_refresh_end=1;
            cam_FIFO_WR_0();
//            gpio_disable_int(cam_VSYNC);
        }
    }
    ENABLE_INTERRUPTS;
   1f760:	08800793          	li	a5,136
   1f764:	30079073          	csrw	mstatus,a5
E:\02-项目\13-RISCV实验箱\模块驱动\19-LCD_ST7796U\AHL-CH32V307-LCD_ST7796U\Debug/srcc/isr.c:87
}
   1f768:	40b2                	lw	ra,12(sp)
   1f76a:	0141                	addi	sp,sp,16
   1f76c:	8082                	ret
E:\02-项目\13-RISCV实验箱\模块驱动\19-LCD_ST7796U\AHL-CH32V307-LCD_ST7796U\Debug/srcc/isr.c:65
    	gpio_clear_int(cam_VSYNC);
   1f76e:	20c00513          	li	a0,524
   1f772:	875fe0ef          	jal	ra,1dfe6 <gpio_clear_int>
E:\02-项目\13-RISCV实验箱\模块驱动\19-LCD_ST7796U\AHL-CH32V307-LCD_ST7796U\Debug/srcc/isr.c:68
   		if(cam_ready==0)
   1f776:	200077b7          	lui	a5,0x20007
   1f77a:	96c7c783          	lbu	a5,-1684(a5) # 2000696c <cam_ready>
   1f77e:	c385                	beqz	a5,1f79e <Cam_User_Handler+0x52>
E:\02-项目\13-RISCV实验箱\模块驱动\19-LCD_ST7796U\AHL-CH32V307-LCD_ST7796U\Debug/srcc/isr.c:78
   		else if(cam_fifo_ready==1)
   1f780:	200077b7          	lui	a5,0x20007
   1f784:	96a7c703          	lbu	a4,-1686(a5) # 2000696a <cam_fifo_ready>
   1f788:	4785                	li	a5,1
   1f78a:	fcf71be3          	bne	a4,a5,1f760 <Cam_User_Handler+0x14>
E:\02-项目\13-RISCV实验箱\模块驱动\19-LCD_ST7796U\AHL-CH32V307-LCD_ST7796U\Debug/srcc/isr.c:81
            cam_refresh_end=1;
   1f78e:	200077b7          	lui	a5,0x20007
   1f792:	4705                	li	a4,1
   1f794:	90e78ca3          	sb	a4,-1767(a5) # 20006919 <cam_refresh_end>
E:\02-项目\13-RISCV实验箱\模块驱动\19-LCD_ST7796U\AHL-CH32V307-LCD_ST7796U\Debug/srcc/isr.c:82
            cam_FIFO_WR_0();
   1f798:	f0cfd0ef          	jal	ra,1cea4 <cam_FIFO_WR_0>
   1f79c:	b7d1                	j	1f760 <Cam_User_Handler+0x14>
E:\02-项目\13-RISCV实验箱\模块驱动\19-LCD_ST7796U\AHL-CH32V307-LCD_ST7796U\Debug/srcc/isr.c:71
   			cam_FIFO_WRST_0();
   1f79e:	edafd0ef          	jal	ra,1ce78 <cam_FIFO_WRST_0>
E:\02-项目\13-RISCV实验箱\模块驱动\19-LCD_ST7796U\AHL-CH32V307-LCD_ST7796U\Debug/srcc/isr.c:72
			cam_FIFO_WRST_1();
   1f7a2:	ec0fd0ef          	jal	ra,1ce62 <cam_FIFO_WRST_1>
E:\02-项目\13-RISCV实验箱\模块驱动\19-LCD_ST7796U\AHL-CH32V307-LCD_ST7796U\Debug/srcc/isr.c:73
			cam_FIFO_WR_1();
   1f7a6:	ee8fd0ef          	jal	ra,1ce8e <cam_FIFO_WR_1>
E:\02-项目\13-RISCV实验箱\模块驱动\19-LCD_ST7796U\AHL-CH32V307-LCD_ST7796U\Debug/srcc/isr.c:74
			cam_fifo_ready=1;
   1f7aa:	4785                	li	a5,1
   1f7ac:	20007737          	lui	a4,0x20007
   1f7b0:	96f70523          	sb	a5,-1686(a4) # 2000696a <cam_fifo_ready>
E:\02-项目\13-RISCV实验箱\模块驱动\19-LCD_ST7796U\AHL-CH32V307-LCD_ST7796U\Debug/srcc/isr.c:75
			cam_ready=1;
   1f7b4:	20007737          	lui	a4,0x20007
   1f7b8:	96f70623          	sb	a5,-1684(a4) # 2000696c <cam_ready>
   1f7bc:	b755                	j	1f760 <Cam_User_Handler+0x14>

0001f7be <TIMER_USER_Handler>:
TIMER_USER_Handler():
E:\02-项目\13-RISCV实验箱\模块驱动\19-LCD_ST7796U\AHL-CH32V307-LCD_ST7796U\Debug/srcc/isr.c:99
//           程序，计算“时、分、秒”
//特别提示：（1）使用全局变量字节型数组gTime[3]，分别存储“时、分、秒”
//        （2）注意其中静态变量的使用
//=====================================================================
void TIMER_USER_Handler(void)
{
   1f7be:	1141                	addi	sp,sp,-16
   1f7c0:	c606                	sw	ra,12(sp)
E:\02-项目\13-RISCV实验箱\模块驱动\19-LCD_ST7796U\AHL-CH32V307-LCD_ST7796U\Debug/srcc/isr.c:100
    printf("触发了timer中断\r\n");
   1f7c2:	00022537          	lui	a0,0x22
   1f7c6:	32050513          	addi	a0,a0,800 # 22320 <nAsciiDot+0x62c>
   1f7ca:	12d000ef          	jal	ra,200f6 <myprintf>
E:\02-项目\13-RISCV实验箱\模块驱动\19-LCD_ST7796U\AHL-CH32V307-LCD_ST7796U\Debug/srcc/isr.c:101
	DISABLE_INTERRUPTS;                        //关总中断
   1f7ce:	4781                	li	a5,0
   1f7d0:	30079073          	csrw	mstatus,a5
E:\02-项目\13-RISCV实验箱\模块驱动\19-LCD_ST7796U\AHL-CH32V307-LCD_ST7796U\Debug/srcc/isr.c:107
	//------------------------------------------------------------------
	//（在此处增加功能）
	//申请一个静态的计数器值
	static uint8_t TimerCount = 0;
	//获取当前时钟溢出标志位
	if(timer_get_int(TIMER_USER))
   1f7d4:	451d                	li	a0,7
   1f7d6:	89afd0ef          	jal	ra,1c870 <timer_get_int>
   1f7da:	cd0d                	beqz	a0,1f814 <TIMER_USER_Handler+0x56>
E:\02-项目\13-RISCV实验箱\模块驱动\19-LCD_ST7796U\AHL-CH32V307-LCD_ST7796U\Debug/srcc/isr.c:109
	{
		TimerCount++;           //计数器累加
   1f7dc:	20005737          	lui	a4,0x20005
   1f7e0:	08870713          	addi	a4,a4,136 # 20005088 <_edata>
   1f7e4:	00074783          	lbu	a5,0(a4)
   1f7e8:	0785                	addi	a5,a5,1
   1f7ea:	0ff7f793          	andi	a5,a5,255
   1f7ee:	00f70023          	sb	a5,0(a4)
E:\02-项目\13-RISCV实验箱\模块驱动\19-LCD_ST7796U\AHL-CH32V307-LCD_ST7796U\Debug/srcc/isr.c:110
		if (TimerCount >= 50)
   1f7f2:	03100713          	li	a4,49
   1f7f6:	00f77b63          	bgeu	a4,a5,1f80c <TIMER_USER_Handler+0x4e>
E:\02-项目\13-RISCV实验箱\模块驱动\19-LCD_ST7796U\AHL-CH32V307-LCD_ST7796U\Debug/srcc/isr.c:112
		{
			TimerCount = 0;    //时钟计数器清零
   1f7fa:	200057b7          	lui	a5,0x20005
   1f7fe:	08078423          	sb	zero,136(a5) # 20005088 <_edata>
E:\02-项目\13-RISCV实验箱\模块驱动\19-LCD_ST7796U\AHL-CH32V307-LCD_ST7796U\Debug/srcc/isr.c:113
			gTimberFlag1s=1;
   1f802:	200077b7          	lui	a5,0x20007
   1f806:	4705                	li	a4,1
   1f808:	90e78c23          	sb	a4,-1768(a5) # 20006918 <gTimberFlag1s>
E:\02-项目\13-RISCV实验箱\模块驱动\19-LCD_ST7796U\AHL-CH32V307-LCD_ST7796U\Debug/srcc/isr.c:115
		}
		TIM7->CNT = 0;
   1f80c:	400017b7          	lui	a5,0x40001
   1f810:	42079223          	sh	zero,1060(a5) # 40001424 <GEC_USER_RAM_END+0x1ffe1424>
E:\02-项目\13-RISCV实验箱\模块驱动\19-LCD_ST7796U\AHL-CH32V307-LCD_ST7796U\Debug/srcc/isr.c:118
	}
	//------------------------------------------------------------------
	timer_clear_int(TIMER_USER);    //清时钟溢出标志位
   1f814:	451d                	li	a0,7
   1f816:	930fd0ef          	jal	ra,1c946 <timer_clear_int>
E:\02-项目\13-RISCV实验箱\模块驱动\19-LCD_ST7796U\AHL-CH32V307-LCD_ST7796U\Debug/srcc/isr.c:119
	ENABLE_INTERRUPTS;                        //开总中断
   1f81a:	08800793          	li	a5,136
   1f81e:	30079073          	csrw	mstatus,a5
E:\02-项目\13-RISCV实验箱\模块驱动\19-LCD_ST7796U\AHL-CH32V307-LCD_ST7796U\Debug/srcc/isr.c:120
}
   1f822:	40b2                	lw	ra,12(sp)
   1f824:	0141                	addi	sp,sp,16
   1f826:	8082                	ret

0001f828 <HardFault_Handler>:
HardFault_Handler():
E:\02-项目\13-RISCV实验箱\模块驱动\19-LCD_ST7796U\AHL-CH32V307-LCD_ST7796U\Debug/srcc/isr.c:125
void HardFault_Handler(void) __attribute__((interrupt("WCH-Interrupt-fast")));

void HardFault_Handler(void)
{
  printf("mcause:%08x\r\n",__get_MCAUSE());
   1f828:	2825                	jal	1f860 <__get_MCAUSE>
   1f82a:	85aa                	mv	a1,a0
   1f82c:	00022537          	lui	a0,0x22
   1f830:	2f450513          	addi	a0,a0,756 # 222f4 <nAsciiDot+0x600>
   1f834:	0c3000ef          	jal	ra,200f6 <myprintf>
E:\02-项目\13-RISCV实验箱\模块驱动\19-LCD_ST7796U\AHL-CH32V307-LCD_ST7796U\Debug/srcc/isr.c:126
  printf("mepc:%08x\r\n",__get_MEPC());
   1f838:	200d                	jal	1f85a <__get_MEPC>
   1f83a:	85aa                	mv	a1,a0
   1f83c:	00022537          	lui	a0,0x22
   1f840:	30450513          	addi	a0,a0,772 # 22304 <nAsciiDot+0x610>
   1f844:	0b3000ef          	jal	ra,200f6 <myprintf>
E:\02-项目\13-RISCV实验箱\模块驱动\19-LCD_ST7796U\AHL-CH32V307-LCD_ST7796U\Debug/srcc/isr.c:127
  printf("mtval:%08x\r\n",__get_MTVAL());
   1f848:	2839                	jal	1f866 <__get_MTVAL>
   1f84a:	85aa                	mv	a1,a0
   1f84c:	00022537          	lui	a0,0x22
   1f850:	31050513          	addi	a0,a0,784 # 22310 <nAsciiDot+0x61c>
   1f854:	0a3000ef          	jal	ra,200f6 <myprintf>
E:\02-项目\13-RISCV实验箱\模块驱动\19-LCD_ST7796U\AHL-CH32V307-LCD_ST7796U\Debug/srcc/isr.c:132 (discriminator 1)

  while (1)
  {

  }
   1f858:	a001                	j	1f858 <HardFault_Handler+0x30>

0001f85a <__get_MEPC>:
__get_MEPC():
E:\02-项目\13-RISCV实验箱\模块驱动\19-LCD_ST7796U\AHL-CH32V307-LCD_ST7796U\Debug/srcc/core_riscv.c:190
 */
uint32_t __get_MEPC(void)
{
  uint32_t result;

  __ASM volatile ( "csrr %0," "mepc" : "=r" (result) );
   1f85a:	34102573          	csrr	a0,mepc
E:\02-项目\13-RISCV实验箱\模块驱动\19-LCD_ST7796U\AHL-CH32V307-LCD_ST7796U\Debug/srcc/core_riscv.c:192
  return (result);
}
   1f85e:	8082                	ret

0001f860 <__get_MCAUSE>:
__get_MCAUSE():
E:\02-项目\13-RISCV实验箱\模块驱动\19-LCD_ST7796U\AHL-CH32V307-LCD_ST7796U\Debug/srcc/core_riscv.c:209
 */
uint32_t __get_MCAUSE(void)
{
  uint32_t result;

  __ASM volatile ( "csrr %0," "mcause" : "=r" (result) );
   1f860:	34202573          	csrr	a0,mcause
E:\02-项目\13-RISCV实验箱\模块驱动\19-LCD_ST7796U\AHL-CH32V307-LCD_ST7796U\Debug/srcc/core_riscv.c:211
  return (result);
}
   1f864:	8082                	ret

0001f866 <__get_MTVAL>:
__get_MTVAL():
E:\02-项目\13-RISCV实验箱\模块驱动\19-LCD_ST7796U\AHL-CH32V307-LCD_ST7796U\Debug/srcc/core_riscv.c:228
 */
uint32_t __get_MTVAL(void)
{
  uint32_t result;

  __ASM volatile ( "csrr %0," "mtval" : "=r" (result) );
   1f866:	34302573          	csrr	a0,mtval
E:\02-项目\13-RISCV实验箱\模块驱动\19-LCD_ST7796U\AHL-CH32V307-LCD_ST7796U\Debug/srcc/core_riscv.c:230
  return (result);
}
   1f86a:	8082                	ret

0001f86c <USART2_IRQHandler>:
USART2_IRQHandler():
E:\02-项目\13-RISCV实验箱\模块驱动\19-LCD_ST7796U\AHL-CH32V307-LCD_ST7796U\Debug/srcc/user.c:15
//备    注：对中断服务例程进行重写覆盖
//======================================================================
void USART2_IRQHandler(void) __attribute__((interrupt("WCH-Interrupt-fast")));
void USART2_IRQHandler()
{
    if(UART2_Handler != 0) UART2_Handler();
   1f86c:	ea7ff0ef          	jal	ra,1f712 <UART_User_Handler>
E:\02-项目\13-RISCV实验箱\模块驱动\19-LCD_ST7796U\AHL-CH32V307-LCD_ST7796U\Debug/srcc/user.c:16
}
   1f870:	30200073          	mret

0001f874 <EXTI15_10_IRQHandler>:
EXTI15_10_IRQHandler():
E:\02-项目\13-RISCV实验箱\模块驱动\19-LCD_ST7796U\AHL-CH32V307-LCD_ST7796U\Debug/srcc/user.c:21

void EXTI15_10_IRQHandler (void) __attribute__((interrupt("WCH-Interrupt-fast")));
void EXTI15_10_IRQHandler ()
{
    if(Cam_Handler != 0) Cam_Handler();
   1f874:	ed9ff0ef          	jal	ra,1f74c <Cam_User_Handler>
E:\02-项目\13-RISCV实验箱\模块驱动\19-LCD_ST7796U\AHL-CH32V307-LCD_ST7796U\Debug/srcc/user.c:22
}
   1f878:	30200073          	mret

0001f87c <TIM7_IRQHandler>:
TIM7_IRQHandler():
E:\02-项目\13-RISCV实验箱\模块驱动\19-LCD_ST7796U\AHL-CH32V307-LCD_ST7796U\Debug/srcc/user.c:34


void TIM7_IRQHandler(void) __attribute__((interrupt("WCH-Interrupt-fast")));
void TIM7_IRQHandler()
{
    if(TIMER_Handler != 0) TIMER_Handler();
   1f87c:	f43ff0ef          	jal	ra,1f7be <TIMER_USER_Handler>
E:\02-项目\13-RISCV实验箱\模块驱动\19-LCD_ST7796U\AHL-CH32V307-LCD_ST7796U\Debug/srcc/user.c:35
}
   1f880:	30200073          	mret

0001f884 <printk_putc>:
printk_putc():
E:\02-项目\13-RISCV实验箱\模块驱动\19-LCD_ST7796U\AHL-CH32V307-LCD_ST7796U\Debug/srcc/printf.c:28
//功能概要：通过串口打出一个字符
//参数说明：data:数据：通过串口发送的一字节数据
//函数返回：无
//======================================================================
static void printk_putc(int c, int *count, PRINTK_INFO *info)
{
   1f884:	1141                	addi	sp,sp,-16
   1f886:	c606                	sw	ra,12(sp)
   1f888:	c422                	sw	s0,8(sp)
   1f88a:	842e                	mv	s0,a1
E:\02-项目\13-RISCV实验箱\模块驱动\19-LCD_ST7796U\AHL-CH32V307-LCD_ST7796U\Debug/srcc/printf.c:29
	switch (info->dest) {
   1f88c:	421c                	lw	a5,0(a2)
   1f88e:	4705                	li	a4,1
   1f890:	00e78c63          	beq	a5,a4,1f8a8 <printk_putc+0x24>
   1f894:	4709                	li	a4,2
   1f896:	00e78e63          	beq	a5,a4,1f8b2 <printk_putc+0x2e>
E:\02-项目\13-RISCV实验箱\模块驱动\19-LCD_ST7796U\AHL-CH32V307-LCD_ST7796U\Debug/srcc/printf.c:40
		++(info->loc);
		break;
	default:
		break;
	}
	*count += 1;
   1f89a:	401c                	lw	a5,0(s0)
   1f89c:	0785                	addi	a5,a5,1
   1f89e:	c01c                	sw	a5,0(s0)
E:\02-项目\13-RISCV实验箱\模块驱动\19-LCD_ST7796U\AHL-CH32V307-LCD_ST7796U\Debug/srcc/printf.c:41
}
   1f8a0:	40b2                	lw	ra,12(sp)
   1f8a2:	4422                	lw	s0,8(sp)
   1f8a4:	0141                	addi	sp,sp,16
   1f8a6:	8082                	ret
E:\02-项目\13-RISCV实验箱\模块驱动\19-LCD_ST7796U\AHL-CH32V307-LCD_ST7796U\Debug/srcc/printf.c:31
		info->func((char) c);
   1f8a8:	425c                	lw	a5,4(a2)
   1f8aa:	0562                	slli	a0,a0,0x18
   1f8ac:	8561                	srai	a0,a0,0x18
   1f8ae:	9782                	jalr	a5
E:\02-项目\13-RISCV实验箱\模块驱动\19-LCD_ST7796U\AHL-CH32V307-LCD_ST7796U\Debug/srcc/printf.c:32
		break;
   1f8b0:	b7ed                	j	1f89a <printk_putc+0x16>
E:\02-项目\13-RISCV实验箱\模块驱动\19-LCD_ST7796U\AHL-CH32V307-LCD_ST7796U\Debug/srcc/printf.c:34
		*(info->loc) = (unsigned char) c;
   1f8b2:	461c                	lw	a5,8(a2)
   1f8b4:	00a78023          	sb	a0,0(a5)
E:\02-项目\13-RISCV实验箱\模块驱动\19-LCD_ST7796U\AHL-CH32V307-LCD_ST7796U\Debug/srcc/printf.c:35
		++(info->loc);
   1f8b8:	461c                	lw	a5,8(a2)
   1f8ba:	0785                	addi	a5,a5,1
   1f8bc:	c61c                	sw	a5,8(a2)
E:\02-项目\13-RISCV实验箱\模块驱动\19-LCD_ST7796U\AHL-CH32V307-LCD_ST7796U\Debug/srcc/printf.c:36
		break;
   1f8be:	bff1                	j	1f89a <printk_putc+0x16>

0001f8c0 <printk_mknumstr>:
printk_mknumstr():
E:\02-项目\13-RISCV实验箱\模块驱动\19-LCD_ST7796U\AHL-CH32V307-LCD_ST7796U\Debug/srcc/printf.c:139
	int nlen;
	char *nstrp;

	nlen = 0;
	nstrp = numstr;
	*nstrp++ = '\0';
   1f8c0:	00150713          	addi	a4,a0,1
   1f8c4:	00050023          	sb	zero,0(a0)
E:\02-项目\13-RISCV实验箱\模块驱动\19-LCD_ST7796U\AHL-CH32V307-LCD_ST7796U\Debug/srcc/printf.c:141

	if (neg) {
   1f8c8:	ce1d                	beqz	a2,1f906 <printk_mknumstr+0x46>
E:\02-项目\13-RISCV实验箱\模块驱动\19-LCD_ST7796U\AHL-CH32V307-LCD_ST7796U\Debug/srcc/printf.c:142
		a = *(int *) nump;
   1f8ca:	419c                	lw	a5,0(a1)
E:\02-项目\13-RISCV实验箱\模块驱动\19-LCD_ST7796U\AHL-CH32V307-LCD_ST7796U\Debug/srcc/printf.c:143
		if (a == 0) {
   1f8cc:	c399                	beqz	a5,1f8d2 <printk_mknumstr+0x12>
E:\02-项目\13-RISCV实验箱\模块驱动\19-LCD_ST7796U\AHL-CH32V307-LCD_ST7796U\Debug/srcc/printf.c:137
	nlen = 0;
   1f8ce:	4501                	li	a0,0
   1f8d0:	a005                	j	1f8f0 <printk_mknumstr+0x30>
E:\02-项目\13-RISCV实验箱\模块驱动\19-LCD_ST7796U\AHL-CH32V307-LCD_ST7796U\Debug/srcc/printf.c:144
			*nstrp = '0';
   1f8d2:	03000793          	li	a5,48
   1f8d6:	00f500a3          	sb	a5,1(a0)
E:\02-项目\13-RISCV实验箱\模块驱动\19-LCD_ST7796U\AHL-CH32V307-LCD_ST7796U\Debug/srcc/printf.c:145
			++nlen;
   1f8da:	4505                	li	a0,1
E:\02-项目\13-RISCV实验箱\模块驱动\19-LCD_ST7796U\AHL-CH32V307-LCD_ST7796U\Debug/srcc/printf.c:146
			goto done;
   1f8dc:	8082                	ret
E:\02-项目\13-RISCV实验箱\模块驱动\19-LCD_ST7796U\AHL-CH32V307-LCD_ST7796U\Debug/srcc/printf.c:152
		}
		while (a != 0) {
			b = (int) a / (int) radix;
			c = (int) a - ((int) b * (int) radix);
			if (c < 0) {
				c = ~c + 1 + '0';
   1f8de:	03000593          	li	a1,48
   1f8e2:	40f587b3          	sub	a5,a1,a5
E:\02-项目\13-RISCV实验箱\模块驱动\19-LCD_ST7796U\AHL-CH32V307-LCD_ST7796U\Debug/srcc/printf.c:157
			} else {
				c = c + '0';
			}
			a = b;
			*nstrp++ = (char) c;
   1f8e6:	00f70023          	sb	a5,0(a4)
E:\02-项目\13-RISCV实验箱\模块驱动\19-LCD_ST7796U\AHL-CH32V307-LCD_ST7796U\Debug/srcc/printf.c:158
			++nlen;
   1f8ea:	0505                	addi	a0,a0,1
E:\02-项目\13-RISCV实验箱\模块驱动\19-LCD_ST7796U\AHL-CH32V307-LCD_ST7796U\Debug/srcc/printf.c:157
			*nstrp++ = (char) c;
   1f8ec:	0705                	addi	a4,a4,1
E:\02-项目\13-RISCV实验箱\模块驱动\19-LCD_ST7796U\AHL-CH32V307-LCD_ST7796U\Debug/srcc/printf.c:156
			a = b;
   1f8ee:	87b2                	mv	a5,a2
E:\02-项目\13-RISCV实验箱\模块驱动\19-LCD_ST7796U\AHL-CH32V307-LCD_ST7796U\Debug/srcc/printf.c:148
		while (a != 0) {
   1f8f0:	cb91                	beqz	a5,1f904 <printk_mknumstr+0x44>
E:\02-项目\13-RISCV实验箱\模块驱动\19-LCD_ST7796U\AHL-CH32V307-LCD_ST7796U\Debug/srcc/printf.c:149
			b = (int) a / (int) radix;
   1f8f2:	02d7c633          	div	a2,a5,a3
E:\02-项目\13-RISCV实验箱\模块驱动\19-LCD_ST7796U\AHL-CH32V307-LCD_ST7796U\Debug/srcc/printf.c:150
			c = (int) a - ((int) b * (int) radix);
   1f8f6:	02d7e7b3          	rem	a5,a5,a3
E:\02-项目\13-RISCV实验箱\模块驱动\19-LCD_ST7796U\AHL-CH32V307-LCD_ST7796U\Debug/srcc/printf.c:151
			if (c < 0) {
   1f8fa:	fe07c2e3          	bltz	a5,1f8de <printk_mknumstr+0x1e>
E:\02-项目\13-RISCV实验箱\模块驱动\19-LCD_ST7796U\AHL-CH32V307-LCD_ST7796U\Debug/srcc/printf.c:154
				c = c + '0';
   1f8fe:	03078793          	addi	a5,a5,48
   1f902:	b7d5                	j	1f8e6 <printk_mknumstr+0x26>
   1f904:	8082                	ret
E:\02-项目\13-RISCV实验箱\模块驱动\19-LCD_ST7796U\AHL-CH32V307-LCD_ST7796U\Debug/srcc/printf.c:161
		}
	} else {
		ua = *(unsigned int *) nump;
   1f906:	419c                	lw	a5,0(a1)
E:\02-项目\13-RISCV实验箱\模块驱动\19-LCD_ST7796U\AHL-CH32V307-LCD_ST7796U\Debug/srcc/printf.c:162
		if (ua == 0) {
   1f908:	ef91                	bnez	a5,1f924 <printk_mknumstr+0x64>
E:\02-项目\13-RISCV实验箱\模块驱动\19-LCD_ST7796U\AHL-CH32V307-LCD_ST7796U\Debug/srcc/printf.c:163
			*nstrp = '0';
   1f90a:	03000793          	li	a5,48
   1f90e:	00f500a3          	sb	a5,1(a0)
E:\02-项目\13-RISCV实验箱\模块驱动\19-LCD_ST7796U\AHL-CH32V307-LCD_ST7796U\Debug/srcc/printf.c:164
			++nlen;
   1f912:	4505                	li	a0,1
E:\02-项目\13-RISCV实验箱\模块驱动\19-LCD_ST7796U\AHL-CH32V307-LCD_ST7796U\Debug/srcc/printf.c:165
			goto done;
   1f914:	8082                	ret
E:\02-项目\13-RISCV实验箱\模块驱动\19-LCD_ST7796U\AHL-CH32V307-LCD_ST7796U\Debug/srcc/printf.c:173
			ub = (unsigned int) ua / (unsigned int) radix;
			uc = (unsigned int) ua - ((unsigned int) ub * (unsigned int) radix);
			if (uc < 10) {
				uc = uc + '0';
			} else {
				uc = uc - 10 + 'A';
   1f916:	03778793          	addi	a5,a5,55
E:\02-项目\13-RISCV实验箱\模块驱动\19-LCD_ST7796U\AHL-CH32V307-LCD_ST7796U\Debug/srcc/printf.c:176
			}
			ua = ub;
			*nstrp++ = (char) uc;
   1f91a:	00f70023          	sb	a5,0(a4)
E:\02-项目\13-RISCV实验箱\模块驱动\19-LCD_ST7796U\AHL-CH32V307-LCD_ST7796U\Debug/srcc/printf.c:177
			++nlen;
   1f91e:	0605                	addi	a2,a2,1
E:\02-项目\13-RISCV实验箱\模块驱动\19-LCD_ST7796U\AHL-CH32V307-LCD_ST7796U\Debug/srcc/printf.c:176
			*nstrp++ = (char) uc;
   1f920:	0705                	addi	a4,a4,1
E:\02-项目\13-RISCV实验箱\模块驱动\19-LCD_ST7796U\AHL-CH32V307-LCD_ST7796U\Debug/srcc/printf.c:175
			ua = ub;
   1f922:	87ae                	mv	a5,a1
E:\02-项目\13-RISCV实验箱\模块驱动\19-LCD_ST7796U\AHL-CH32V307-LCD_ST7796U\Debug/srcc/printf.c:167
		while (ua != 0) {
   1f924:	cf81                	beqz	a5,1f93c <printk_mknumstr+0x7c>
E:\02-项目\13-RISCV实验箱\模块驱动\19-LCD_ST7796U\AHL-CH32V307-LCD_ST7796U\Debug/srcc/printf.c:168
			ub = (unsigned int) ua / (unsigned int) radix;
   1f926:	02d7d5b3          	divu	a1,a5,a3
E:\02-项目\13-RISCV实验箱\模块驱动\19-LCD_ST7796U\AHL-CH32V307-LCD_ST7796U\Debug/srcc/printf.c:169
			uc = (unsigned int) ua - ((unsigned int) ub * (unsigned int) radix);
   1f92a:	02b68533          	mul	a0,a3,a1
   1f92e:	8f89                	sub	a5,a5,a0
E:\02-项目\13-RISCV实验箱\模块驱动\19-LCD_ST7796U\AHL-CH32V307-LCD_ST7796U\Debug/srcc/printf.c:170
			if (uc < 10) {
   1f930:	4525                	li	a0,9
   1f932:	fef562e3          	bltu	a0,a5,1f916 <printk_mknumstr+0x56>
E:\02-项目\13-RISCV实验箱\模块驱动\19-LCD_ST7796U\AHL-CH32V307-LCD_ST7796U\Debug/srcc/printf.c:171
				uc = uc + '0';
   1f936:	03078793          	addi	a5,a5,48
   1f93a:	b7c5                	j	1f91a <printk_mknumstr+0x5a>
E:\02-项目\13-RISCV实验箱\模块驱动\19-LCD_ST7796U\AHL-CH32V307-LCD_ST7796U\Debug/srcc/printf.c:180
		}
	}
	done: return nlen;
   1f93c:	8532                	mv	a0,a2
E:\02-项目\13-RISCV实验箱\模块驱动\19-LCD_ST7796U\AHL-CH32V307-LCD_ST7796U\Debug/srcc/printf.c:181
}
   1f93e:	8082                	ret

0001f940 <printk_pad_zero>:
printk_pad_zero():
E:\02-项目\13-RISCV实验箱\模块驱动\19-LCD_ST7796U\AHL-CH32V307-LCD_ST7796U\Debug/srcc/printf.c:184
/********************************************************************/
static void printk_pad_zero(int curlen, int field_width, int *count,
		PRINTK_INFO *info) {
   1f940:	1101                	addi	sp,sp,-32
   1f942:	ce06                	sw	ra,28(sp)
   1f944:	cc22                	sw	s0,24(sp)
   1f946:	ca26                	sw	s1,20(sp)
   1f948:	c84a                	sw	s2,16(sp)
   1f94a:	c64e                	sw	s3,12(sp)
   1f94c:	842a                	mv	s0,a0
   1f94e:	84ae                	mv	s1,a1
   1f950:	89b2                	mv	s3,a2
   1f952:	8936                	mv	s2,a3
E:\02-项目\13-RISCV实验箱\模块驱动\19-LCD_ST7796U\AHL-CH32V307-LCD_ST7796U\Debug/srcc/printf.c:187 (discriminator 1)
	int i;

	for (i = curlen; i < field_width; i++) {
   1f954:	00945a63          	bge	s0,s1,1f968 <printk_pad_zero+0x28>
E:\02-项目\13-RISCV实验箱\模块驱动\19-LCD_ST7796U\AHL-CH32V307-LCD_ST7796U\Debug/srcc/printf.c:188 (discriminator 3)
		printk_putc('0', count, info);
   1f958:	864a                	mv	a2,s2
   1f95a:	85ce                	mv	a1,s3
   1f95c:	03000513          	li	a0,48
   1f960:	f25ff0ef          	jal	ra,1f884 <printk_putc>
E:\02-项目\13-RISCV实验箱\模块驱动\19-LCD_ST7796U\AHL-CH32V307-LCD_ST7796U\Debug/srcc/printf.c:187 (discriminator 3)
	for (i = curlen; i < field_width; i++) {
   1f964:	0405                	addi	s0,s0,1
   1f966:	b7fd                	j	1f954 <printk_pad_zero+0x14>
E:\02-项目\13-RISCV实验箱\模块驱动\19-LCD_ST7796U\AHL-CH32V307-LCD_ST7796U\Debug/srcc/printf.c:190
	}
}
   1f968:	40f2                	lw	ra,28(sp)
   1f96a:	4462                	lw	s0,24(sp)
   1f96c:	44d2                	lw	s1,20(sp)
   1f96e:	4942                	lw	s2,16(sp)
   1f970:	49b2                	lw	s3,12(sp)
   1f972:	6105                	addi	sp,sp,32
   1f974:	8082                	ret

0001f976 <printk_pad_space>:
printk_pad_space():
E:\02-项目\13-RISCV实验箱\模块驱动\19-LCD_ST7796U\AHL-CH32V307-LCD_ST7796U\Debug/srcc/printf.c:194

/********************************************************************/
static void printk_pad_space(int curlen, int field_width, int *count,
		PRINTK_INFO *info) {
   1f976:	1101                	addi	sp,sp,-32
   1f978:	ce06                	sw	ra,28(sp)
   1f97a:	cc22                	sw	s0,24(sp)
   1f97c:	ca26                	sw	s1,20(sp)
   1f97e:	c84a                	sw	s2,16(sp)
   1f980:	c64e                	sw	s3,12(sp)
   1f982:	842a                	mv	s0,a0
   1f984:	84ae                	mv	s1,a1
   1f986:	89b2                	mv	s3,a2
   1f988:	8936                	mv	s2,a3
E:\02-项目\13-RISCV实验箱\模块驱动\19-LCD_ST7796U\AHL-CH32V307-LCD_ST7796U\Debug/srcc/printf.c:197 (discriminator 1)
	int i;

	for (i = curlen; i < field_width; i++) {
   1f98a:	00945a63          	bge	s0,s1,1f99e <printk_pad_space+0x28>
E:\02-项目\13-RISCV实验箱\模块驱动\19-LCD_ST7796U\AHL-CH32V307-LCD_ST7796U\Debug/srcc/printf.c:198 (discriminator 3)
		printk_putc(' ', count, info);
   1f98e:	864a                	mv	a2,s2
   1f990:	85ce                	mv	a1,s3
   1f992:	02000513          	li	a0,32
   1f996:	eefff0ef          	jal	ra,1f884 <printk_putc>
E:\02-项目\13-RISCV实验箱\模块驱动\19-LCD_ST7796U\AHL-CH32V307-LCD_ST7796U\Debug/srcc/printf.c:197 (discriminator 3)
	for (i = curlen; i < field_width; i++) {
   1f99a:	0405                	addi	s0,s0,1
   1f99c:	b7fd                	j	1f98a <printk_pad_space+0x14>
E:\02-项目\13-RISCV实验箱\模块驱动\19-LCD_ST7796U\AHL-CH32V307-LCD_ST7796U\Debug/srcc/printf.c:200
	}
}
   1f99e:	40f2                	lw	ra,28(sp)
   1f9a0:	4462                	lw	s0,24(sp)
   1f9a2:	44d2                	lw	s1,20(sp)
   1f9a4:	4942                	lw	s2,16(sp)
   1f9a6:	49b2                	lw	s3,12(sp)
   1f9a8:	6105                	addi	sp,sp,32
   1f9aa:	8082                	ret

0001f9ac <out_char>:
out_char():
E:\02-项目\13-RISCV实验箱\模块驱动\19-LCD_ST7796U\AHL-CH32V307-LCD_ST7796U\Debug/srcc/printf.c:18
void out_char(char data) {
   1f9ac:	1141                	addi	sp,sp,-16
   1f9ae:	c606                	sw	ra,12(sp)
E:\02-项目\13-RISCV实验箱\模块驱动\19-LCD_ST7796U\AHL-CH32V307-LCD_ST7796U\Debug/srcc/printf.c:19
	uart_send1(UART_printf, data);
   1f9b0:	0ff57593          	andi	a1,a0,255
   1f9b4:	4505                	li	a0,1
   1f9b6:	be8ff0ef          	jal	ra,1ed9e <uart_send1>
E:\02-项目\13-RISCV实验箱\模块驱动\19-LCD_ST7796U\AHL-CH32V307-LCD_ST7796U\Debug/srcc/printf.c:20
}
   1f9ba:	40b2                	lw	ra,12(sp)
   1f9bc:	0141                	addi	sp,sp,16
   1f9be:	8082                	ret

0001f9c0 <printk_mkfloatstr>:
printk_mkfloatstr():
E:\02-项目\13-RISCV实验箱\模块驱动\19-LCD_ST7796U\AHL-CH32V307-LCD_ST7796U\Debug/srcc/printf.c:50
{
   1f9c0:	7119                	addi	sp,sp,-128
   1f9c2:	de86                	sw	ra,124(sp)
   1f9c4:	dca2                	sw	s0,120(sp)
   1f9c6:	daa6                	sw	s1,116(sp)
   1f9c8:	d8ca                	sw	s2,112(sp)
   1f9ca:	d6ce                	sw	s3,108(sp)
   1f9cc:	d4d2                	sw	s4,104(sp)
   1f9ce:	d2d6                	sw	s5,100(sp)
   1f9d0:	d0da                	sw	s6,96(sp)
   1f9d2:	892a                	mv	s2,a0
   1f9d4:	84ae                	mv	s1,a1
   1f9d6:	8432                	mv	s0,a2
E:\02-项目\13-RISCV实验箱\模块驱动\19-LCD_ST7796U\AHL-CH32V307-LCD_ST7796U\Debug/srcc/printf.c:51
	uint32_t p,i,j,k,a[5]={0},b[19]={0};
   1f9d8:	c682                	sw	zero,76(sp)
   1f9da:	c882                	sw	zero,80(sp)
   1f9dc:	ca82                	sw	zero,84(sp)
   1f9de:	cc82                	sw	zero,88(sp)
   1f9e0:	ce82                	sw	zero,92(sp)
   1f9e2:	04c00613          	li	a2,76
   1f9e6:	4581                	li	a1,0
   1f9e8:	850a                	mv	a0,sp
   1f9ea:	c17fc0ef          	jal	ra,1c600 <memset>
E:\02-项目\13-RISCV实验箱\模块驱动\19-LCD_ST7796U\AHL-CH32V307-LCD_ST7796U\Debug/srcc/printf.c:58
	p=(uint32_t)*f;//整数部分
   1f9ee:	00492983          	lw	s3,4(s2)
   1f9f2:	00092903          	lw	s2,0(s2)
   1f9f6:	854a                	mv	a0,s2
   1f9f8:	85ce                	mv	a1,s3
   1f9fa:	387010ef          	jal	ra,21580 <__fixunsdfsi>
   1f9fe:	8aaa                	mv	s5,a0
E:\02-项目\13-RISCV实验箱\模块驱动\19-LCD_ST7796U\AHL-CH32V307-LCD_ST7796U\Debug/srcc/printf.c:59
	tempf=(*f-p);
   1fa00:	3dd010ef          	jal	ra,215dc <__floatunsidf>
   1fa04:	862a                	mv	a2,a0
   1fa06:	86ae                	mv	a3,a1
   1fa08:	854a                	mv	a0,s2
   1fa0a:	85ce                	mv	a1,s3
   1fa0c:	43a010ef          	jal	ra,20e46 <__subdf3>
   1fa10:	8a2a                	mv	s4,a0
   1fa12:	8b2e                	mv	s6,a1
E:\02-项目\13-RISCV实验箱\模块驱动\19-LCD_ST7796U\AHL-CH32V307-LCD_ST7796U\Debug/srcc/printf.c:60
	if(precision_width==0)
   1fa14:	e831                	bnez	s0,1fa68 <printk_mkfloatstr+0xa8>
E:\02-项目\13-RISCV实验箱\模块驱动\19-LCD_ST7796U\AHL-CH32V307-LCD_ST7796U\Debug/srcc/printf.c:61
	q=(*f-p)*100000000000000000;//小数部分
   1fa16:	000227b7          	lui	a5,0x22
   1fa1a:	4007a603          	lw	a2,1024(a5) # 22400 <nAsciiDot+0x70c>
   1fa1e:	4047a683          	lw	a3,1028(a5)
   1fa22:	8552                	mv	a0,s4
   1fa24:	85da                	mv	a1,s6
   1fa26:	769000ef          	jal	ra,2098e <__muldf3>
   1fa2a:	419010ef          	jal	ra,21642 <__fixunsdfdi>
   1fa2e:	892a                	mv	s2,a0
   1fa30:	89ae                	mv	s3,a1
E:\02-项目\13-RISCV实验箱\模块驱动\19-LCD_ST7796U\AHL-CH32V307-LCD_ST7796U\Debug/srcc/printf.c:69
	k=0;
   1fa32:	4401                	li	s0,0
E:\02-项目\13-RISCV实验箱\模块驱动\19-LCD_ST7796U\AHL-CH32V307-LCD_ST7796U\Debug/srcc/printf.c:70
	while(m<1)
   1fa34:	000227b7          	lui	a5,0x22
   1fa38:	4107a603          	lw	a2,1040(a5) # 22410 <nAsciiDot+0x71c>
   1fa3c:	4147a683          	lw	a3,1044(a5)
   1fa40:	8552                	mv	a0,s4
   1fa42:	85da                	mv	a1,s6
   1fa44:	695000ef          	jal	ra,208d8 <__ledf2>
   1fa48:	04055263          	bgez	a0,1fa8c <printk_mkfloatstr+0xcc>
E:\02-项目\13-RISCV实验箱\模块驱动\19-LCD_ST7796U\AHL-CH32V307-LCD_ST7796U\Debug/srcc/printf.c:72
		m=m*10;
   1fa4c:	000227b7          	lui	a5,0x22
   1fa50:	4087a603          	lw	a2,1032(a5) # 22408 <nAsciiDot+0x714>
   1fa54:	40c7a683          	lw	a3,1036(a5)
   1fa58:	8552                	mv	a0,s4
   1fa5a:	85da                	mv	a1,s6
   1fa5c:	733000ef          	jal	ra,2098e <__muldf3>
   1fa60:	8a2a                	mv	s4,a0
   1fa62:	8b2e                	mv	s6,a1
E:\02-项目\13-RISCV实验箱\模块驱动\19-LCD_ST7796U\AHL-CH32V307-LCD_ST7796U\Debug/srcc/printf.c:73
		k++;
   1fa64:	0405                	addi	s0,s0,1
   1fa66:	b7f9                	j	1fa34 <printk_mkfloatstr+0x74>
E:\02-项目\13-RISCV实验箱\模块驱动\19-LCD_ST7796U\AHL-CH32V307-LCD_ST7796U\Debug/srcc/printf.c:64
		while(precision_width--)
   1fa68:	fff40913          	addi	s2,s0,-1
   1fa6c:	c819                	beqz	s0,1fa82 <printk_mkfloatstr+0xc2>
E:\02-项目\13-RISCV实验箱\模块驱动\19-LCD_ST7796U\AHL-CH32V307-LCD_ST7796U\Debug/srcc/printf.c:65
		tempf*=10;
   1fa6e:	000227b7          	lui	a5,0x22
   1fa72:	4087a603          	lw	a2,1032(a5) # 22408 <nAsciiDot+0x714>
   1fa76:	40c7a683          	lw	a3,1036(a5)
   1fa7a:	715000ef          	jal	ra,2098e <__muldf3>
E:\02-项目\13-RISCV实验箱\模块驱动\19-LCD_ST7796U\AHL-CH32V307-LCD_ST7796U\Debug/srcc/printf.c:64
		while(precision_width--)
   1fa7e:	844a                	mv	s0,s2
   1fa80:	b7e5                	j	1fa68 <printk_mkfloatstr+0xa8>
E:\02-项目\13-RISCV实验箱\模块驱动\19-LCD_ST7796U\AHL-CH32V307-LCD_ST7796U\Debug/srcc/printf.c:66
		q=tempf;
   1fa82:	3c1010ef          	jal	ra,21642 <__fixunsdfdi>
   1fa86:	892a                	mv	s2,a0
   1fa88:	89ae                	mv	s3,a1
   1fa8a:	b765                	j	1fa32 <printk_mkfloatstr+0x72>
E:\02-项目\13-RISCV实验箱\模块驱动\19-LCD_ST7796U\AHL-CH32V307-LCD_ST7796U\Debug/srcc/printf.c:75
	k--;          //记录小数点后到第一位不为零的小数之前 有多少个0.
   1fa8c:	fff40b13          	addi	s6,s0,-1
E:\02-项目\13-RISCV实验箱\模块驱动\19-LCD_ST7796U\AHL-CH32V307-LCD_ST7796U\Debug/srcc/printf.c:78
	if(0==p)//整数部分为0
   1fa90:	040a9763          	bnez	s5,1fade <printk_mkfloatstr+0x11e>
E:\02-项目\13-RISCV实验箱\模块驱动\19-LCD_ST7796U\AHL-CH32V307-LCD_ST7796U\Debug/srcc/printf.c:79
		c[i++]='0';
   1fa94:	03000793          	li	a5,48
   1fa98:	00f48023          	sb	a5,0(s1)
   1fa9c:	4a85                	li	s5,1
E:\02-项目\13-RISCV实验箱\模块驱动\19-LCD_ST7796U\AHL-CH32V307-LCD_ST7796U\Debug/srcc/printf.c:94
	c[i++]='.';//小数点
   1fa9e:	001a8a13          	addi	s4,s5,1
   1faa2:	015487b3          	add	a5,s1,s5
   1faa6:	02e00713          	li	a4,46
   1faaa:	00e78023          	sb	a4,0(a5)
E:\02-项目\13-RISCV实验箱\模块驱动\19-LCD_ST7796U\AHL-CH32V307-LCD_ST7796U\Debug/srcc/printf.c:95
	if(0==q)//小数部分为0
   1faae:	013967b3          	or	a5,s2,s3
   1fab2:	e7b5                	bnez	a5,1fb1e <printk_mkfloatstr+0x15e>
E:\02-项目\13-RISCV实验箱\模块驱动\19-LCD_ST7796U\AHL-CH32V307-LCD_ST7796U\Debug/srcc/printf.c:96
		c[i++]='0';
   1fab4:	9a26                	add	s4,s4,s1
   1fab6:	03000793          	li	a5,48
   1faba:	00fa0023          	sb	a5,0(s4)
   1fabe:	002a8a13          	addi	s4,s5,2
E:\02-项目\13-RISCV实验箱\模块驱动\19-LCD_ST7796U\AHL-CH32V307-LCD_ST7796U\Debug/srcc/printf.c:117
	c[i]='\0';
   1fac2:	94d2                	add	s1,s1,s4
   1fac4:	00048023          	sb	zero,0(s1)
E:\02-项目\13-RISCV实验箱\模块驱动\19-LCD_ST7796U\AHL-CH32V307-LCD_ST7796U\Debug/srcc/printf.c:119
}
   1fac8:	8552                	mv	a0,s4
   1faca:	50f6                	lw	ra,124(sp)
   1facc:	5466                	lw	s0,120(sp)
   1face:	54d6                	lw	s1,116(sp)
   1fad0:	5946                	lw	s2,112(sp)
   1fad2:	59b6                	lw	s3,108(sp)
   1fad4:	5a26                	lw	s4,104(sp)
   1fad6:	5a96                	lw	s5,100(sp)
   1fad8:	5b06                	lw	s6,96(sp)
   1fada:	6109                	addi	sp,sp,128
   1fadc:	8082                	ret
E:\02-项目\13-RISCV实验箱\模块驱动\19-LCD_ST7796U\AHL-CH32V307-LCD_ST7796U\Debug/srcc/printf.c:82
		j=0;
   1fade:	4781                	li	a5,0
E:\02-项目\13-RISCV实验箱\模块驱动\19-LCD_ST7796U\AHL-CH32V307-LCD_ST7796U\Debug/srcc/printf.c:83
		while(p!=0)//倒序的数字
   1fae0:	020a8d63          	beqz	s5,1fb1a <printk_mkfloatstr+0x15a>
E:\02-项目\13-RISCV实验箱\模块驱动\19-LCD_ST7796U\AHL-CH32V307-LCD_ST7796U\Debug/srcc/printf.c:85
			a[j++]=p%10;
   1fae4:	46a9                	li	a3,10
   1fae6:	02daf633          	remu	a2,s5,a3
   1faea:	00279713          	slli	a4,a5,0x2
   1faee:	108c                	addi	a1,sp,96
   1faf0:	972e                	add	a4,a4,a1
   1faf2:	fec72623          	sw	a2,-20(a4)
E:\02-项目\13-RISCV实验箱\模块驱动\19-LCD_ST7796U\AHL-CH32V307-LCD_ST7796U\Debug/srcc/printf.c:86
			p/=10;
   1faf6:	02dadab3          	divu	s5,s5,a3
E:\02-项目\13-RISCV实验箱\模块驱动\19-LCD_ST7796U\AHL-CH32V307-LCD_ST7796U\Debug/srcc/printf.c:85
			a[j++]=p%10;
   1fafa:	0785                	addi	a5,a5,1
   1fafc:	b7d5                	j	1fae0 <printk_mkfloatstr+0x120>
E:\02-项目\13-RISCV实验箱\模块驱动\19-LCD_ST7796U\AHL-CH32V307-LCD_ST7796U\Debug/srcc/printf.c:90
			c[i++]=a[j-1]+'0';
   1fafe:	17fd                	addi	a5,a5,-1
   1fb00:	00279713          	slli	a4,a5,0x2
   1fb04:	1094                	addi	a3,sp,96
   1fb06:	9736                	add	a4,a4,a3
   1fb08:	fec72703          	lw	a4,-20(a4)
   1fb0c:	015486b3          	add	a3,s1,s5
   1fb10:	03070713          	addi	a4,a4,48
   1fb14:	00e68023          	sb	a4,0(a3)
   1fb18:	0a85                	addi	s5,s5,1
E:\02-项目\13-RISCV实验箱\模块驱动\19-LCD_ST7796U\AHL-CH32V307-LCD_ST7796U\Debug/srcc/printf.c:88
		while(j>0)//将倒序数字转为正序，并转换为对应的字符形式
   1fb1a:	f3f5                	bnez	a5,1fafe <printk_mkfloatstr+0x13e>
   1fb1c:	b749                	j	1fa9e <printk_mkfloatstr+0xde>
E:\02-项目\13-RISCV实验箱\模块驱动\19-LCD_ST7796U\AHL-CH32V307-LCD_ST7796U\Debug/srcc/printf.c:99
		j=0;
   1fb1e:	4401                	li	s0,0
E:\02-项目\13-RISCV实验箱\模块驱动\19-LCD_ST7796U\AHL-CH32V307-LCD_ST7796U\Debug/srcc/printf.c:101
		while(q!=0)//倒序的数字
   1fb20:	013967b3          	or	a5,s2,s3
   1fb24:	c79d                	beqz	a5,1fb52 <printk_mkfloatstr+0x192>
E:\02-项目\13-RISCV实验箱\模块驱动\19-LCD_ST7796U\AHL-CH32V307-LCD_ST7796U\Debug/srcc/printf.c:103
			b[j++]=q%10;
   1fb26:	4629                	li	a2,10
   1fb28:	4681                	li	a3,0
   1fb2a:	854a                	mv	a0,s2
   1fb2c:	85ce                	mv	a1,s3
   1fb2e:	21d000ef          	jal	ra,2054a <__umoddi3>
   1fb32:	00140a93          	addi	s5,s0,1
   1fb36:	040a                	slli	s0,s0,0x2
   1fb38:	109c                	addi	a5,sp,96
   1fb3a:	943e                	add	s0,s0,a5
   1fb3c:	faa42023          	sw	a0,-96(s0)
E:\02-项目\13-RISCV实验箱\模块驱动\19-LCD_ST7796U\AHL-CH32V307-LCD_ST7796U\Debug/srcc/printf.c:104
			q/=10;
   1fb40:	4629                	li	a2,10
   1fb42:	4681                	li	a3,0
   1fb44:	854a                	mv	a0,s2
   1fb46:	85ce                	mv	a1,s3
   1fb48:	25ad                	jal	201b2 <__udivdi3>
   1fb4a:	892a                	mv	s2,a0
   1fb4c:	89ae                	mv	s3,a1
E:\02-项目\13-RISCV实验箱\模块驱动\19-LCD_ST7796U\AHL-CH32V307-LCD_ST7796U\Debug/srcc/printf.c:103
			b[j++]=q%10;
   1fb4e:	8456                	mv	s0,s5
   1fb50:	bfc1                	j	1fb20 <printk_mkfloatstr+0x160>
E:\02-项目\13-RISCV实验箱\模块驱动\19-LCD_ST7796U\AHL-CH32V307-LCD_ST7796U\Debug/srcc/printf.c:106
		while(k!=0)
   1fb52:	020b0963          	beqz	s6,1fb84 <printk_mkfloatstr+0x1c4>
E:\02-项目\13-RISCV实验箱\模块驱动\19-LCD_ST7796U\AHL-CH32V307-LCD_ST7796U\Debug/srcc/printf.c:108
			b[j++]=0;
   1fb56:	00241793          	slli	a5,s0,0x2
   1fb5a:	1098                	addi	a4,sp,96
   1fb5c:	97ba                	add	a5,a5,a4
   1fb5e:	fa07a023          	sw	zero,-96(a5)
E:\02-项目\13-RISCV实验箱\模块驱动\19-LCD_ST7796U\AHL-CH32V307-LCD_ST7796U\Debug/srcc/printf.c:109
			k--;
   1fb62:	1b7d                	addi	s6,s6,-1
E:\02-项目\13-RISCV实验箱\模块驱动\19-LCD_ST7796U\AHL-CH32V307-LCD_ST7796U\Debug/srcc/printf.c:108
			b[j++]=0;
   1fb64:	0405                	addi	s0,s0,1
   1fb66:	b7f5                	j	1fb52 <printk_mkfloatstr+0x192>
E:\02-项目\13-RISCV实验箱\模块驱动\19-LCD_ST7796U\AHL-CH32V307-LCD_ST7796U\Debug/srcc/printf.c:113
			c[i++]=b[j-1]+'0';
   1fb68:	147d                	addi	s0,s0,-1
   1fb6a:	00241793          	slli	a5,s0,0x2
   1fb6e:	1098                	addi	a4,sp,96
   1fb70:	97ba                	add	a5,a5,a4
   1fb72:	fa07a783          	lw	a5,-96(a5)
   1fb76:	01448733          	add	a4,s1,s4
   1fb7a:	03078793          	addi	a5,a5,48
   1fb7e:	00f70023          	sb	a5,0(a4)
   1fb82:	0a05                	addi	s4,s4,1
E:\02-项目\13-RISCV实验箱\模块驱动\19-LCD_ST7796U\AHL-CH32V307-LCD_ST7796U\Debug/srcc/printf.c:111
		while(j>0)//将倒序数字转为正序，并转换为对应的字符形式
   1fb84:	f075                	bnez	s0,1fb68 <printk_mkfloatstr+0x1a8>
   1fb86:	bf35                	j	1fac2 <printk_mkfloatstr+0x102>

0001fb88 <printk>:
printk():
E:\02-项目\13-RISCV实验箱\模块驱动\19-LCD_ST7796U\AHL-CH32V307-LCD_ST7796U\Debug/srcc/printf.c:210
//       fmt:输出格式信息
//       ap:va_list指针指向格式信息输出
//函数返回：无
//======================================================================
int printk(PRINTK_INFO *info, const char *fmt, char * ap)
{
   1fb88:	7159                	addi	sp,sp,-112
   1fb8a:	d686                	sw	ra,108(sp)
   1fb8c:	d4a2                	sw	s0,104(sp)
   1fb8e:	d2a6                	sw	s1,100(sp)
   1fb90:	d0ca                	sw	s2,96(sp)
   1fb92:	cece                	sw	s3,92(sp)
   1fb94:	ccd2                	sw	s4,88(sp)
   1fb96:	cad6                	sw	s5,84(sp)
   1fb98:	c8da                	sw	s6,80(sp)
   1fb9a:	c6de                	sw	s7,76(sp)
   1fb9c:	c4e2                	sw	s8,72(sp)
   1fb9e:	c2e6                	sw	s9,68(sp)
   1fba0:	c0ea                	sw	s10,64(sp)
   1fba2:	892a                	mv	s2,a0
   1fba4:	842e                	mv	s0,a1
   1fba6:	89b2                	mv	s3,a2
E:\02-项目\13-RISCV实验箱\模块驱动\19-LCD_ST7796U\AHL-CH32V307-LCD_ST7796U\Debug/srcc/printf.c:234

	}un1;*/
	char *p;
	int c;
	//char temp1;
	char vstr[33]={'0'};
   1fba8:	ce02                	sw	zero,28(sp)
   1fbaa:	d002                	sw	zero,32(sp)
   1fbac:	d202                	sw	zero,36(sp)
   1fbae:	d402                	sw	zero,40(sp)
   1fbb0:	d602                	sw	zero,44(sp)
   1fbb2:	d802                	sw	zero,48(sp)
   1fbb4:	da02                	sw	zero,52(sp)
   1fbb6:	dc02                	sw	zero,56(sp)
   1fbb8:	02010e23          	sb	zero,60(sp)
   1fbbc:	03000793          	li	a5,48
   1fbc0:	00f10e23          	sb	a5,28(sp)
E:\02-项目\13-RISCV实验箱\模块驱动\19-LCD_ST7796U\AHL-CH32V307-LCD_ST7796U\Debug/srcc/printf.c:255
	int *ivalp;
	char *sval;
	int cval;
	unsigned int uval;

	count = 0;
   1fbc4:	cc02                	sw	zero,24(sp)
E:\02-项目\13-RISCV实验箱\模块驱动\19-LCD_ST7796U\AHL-CH32V307-LCD_ST7796U\Debug/srcc/printf.c:257
	length_modifier=0;
	precision_used=TRUE;
   1fbc6:	4a85                	li	s5,1
E:\02-项目\13-RISCV实验箱\模块驱动\19-LCD_ST7796U\AHL-CH32V307-LCD_ST7796U\Debug/srcc/printf.c:256
	length_modifier=0;
   1fbc8:	4a01                	li	s4,0
E:\02-项目\13-RISCV实验箱\模块驱动\19-LCD_ST7796U\AHL-CH32V307-LCD_ST7796U\Debug/srcc/printf.c:259
	//从格式字符串第一个字符开始格式化输出数据
	for (p = (char *) fmt; (c = *p) != 0; p++)
   1fbca:	a821                	j	1fbe2 <printk+0x5a>
E:\02-项目\13-RISCV实验箱\模块驱动\19-LCD_ST7796U\AHL-CH32V307-LCD_ST7796U\Debug/srcc/printf.c:271
			if (c != '\n') {
				printk_putc(c, &count, info);
			}
			//输出换行符
			else {
				printk_putc(0x0D /* CR */, &count, info);
   1fbcc:	864a                	mv	a2,s2
   1fbce:	082c                	addi	a1,sp,24
   1fbd0:	4535                	li	a0,13
   1fbd2:	cb3ff0ef          	jal	ra,1f884 <printk_putc>
E:\02-项目\13-RISCV实验箱\模块驱动\19-LCD_ST7796U\AHL-CH32V307-LCD_ST7796U\Debug/srcc/printf.c:272
				printk_putc(0x0A /* LF */, &count, info);
   1fbd6:	864a                	mv	a2,s2
   1fbd8:	082c                	addi	a1,sp,24
   1fbda:	4529                	li	a0,10
   1fbdc:	ca9ff0ef          	jal	ra,1f884 <printk_putc>
E:\02-项目\13-RISCV实验箱\模块驱动\19-LCD_ST7796U\AHL-CH32V307-LCD_ST7796U\Debug/srcc/printf.c:259 (discriminator 2)
	for (p = (char *) fmt; (c = *p) != 0; p++)
   1fbe0:	0405                	addi	s0,s0,1
E:\02-项目\13-RISCV实验箱\模块驱动\19-LCD_ST7796U\AHL-CH32V307-LCD_ST7796U\Debug/srcc/printf.c:259 (discriminator 1)
   1fbe2:	00040503          	lb	a0,0(s0)
   1fbe6:	4e050963          	beqz	a0,200d8 <printk+0x550>
E:\02-项目\13-RISCV实验箱\模块驱动\19-LCD_ST7796U\AHL-CH32V307-LCD_ST7796U\Debug/srcc/printf.c:262
		if (c != '%')
   1fbea:	02500793          	li	a5,37
   1fbee:	04f50d63          	beq	a0,a5,1fc48 <printk+0xc0>
E:\02-项目\13-RISCV实验箱\模块驱动\19-LCD_ST7796U\AHL-CH32V307-LCD_ST7796U\Debug/srcc/printf.c:266
			if (c != '\n') {
   1fbf2:	47a9                	li	a5,10
   1fbf4:	fcf50ce3          	beq	a0,a5,1fbcc <printk+0x44>
E:\02-项目\13-RISCV实验箱\模块驱动\19-LCD_ST7796U\AHL-CH32V307-LCD_ST7796U\Debug/srcc/printf.c:267
				printk_putc(c, &count, info);
   1fbf8:	864a                	mv	a2,s2
   1fbfa:	082c                	addi	a1,sp,24
   1fbfc:	c89ff0ef          	jal	ra,1f884 <printk_putc>
   1fc00:	b7c5                	j	1fbe0 <printk+0x58>
E:\02-项目\13-RISCV实验箱\模块驱动\19-LCD_ST7796U\AHL-CH32V307-LCD_ST7796U\Debug/srcc/printf.c:289
		flags_used = 0;
		done = FALSE;
		while (!done) {
			switch (/* c = */*++p) {
			case '-':
				flags_used |= FLAGS_MINUS;
   1fc02:	0014e493          	ori	s1,s1,1
E:\02-项目\13-RISCV实验箱\模块驱动\19-LCD_ST7796U\AHL-CH32V307-LCD_ST7796U\Debug/srcc/printf.c:210
{
   1fc06:	8432                	mv	s0,a2
E:\02-项目\13-RISCV实验箱\模块驱动\19-LCD_ST7796U\AHL-CH32V307-LCD_ST7796U\Debug/srcc/printf.c:286
		while (!done) {
   1fc08:	e5a9                	bnez	a1,1fc52 <printk+0xca>
E:\02-项目\13-RISCV实验箱\模块驱动\19-LCD_ST7796U\AHL-CH32V307-LCD_ST7796U\Debug/srcc/printf.c:287
			switch (/* c = */*++p) {
   1fc0a:	00140613          	addi	a2,s0,1
   1fc0e:	00140783          	lb	a5,1(s0)
   1fc12:	1781                	addi	a5,a5,-32
   1fc14:	0ff7f693          	andi	a3,a5,255
   1fc18:	4741                	li	a4,16
   1fc1a:	02d76a63          	bltu	a4,a3,1fc4e <printk+0xc6>
   1fc1e:	00269793          	slli	a5,a3,0x2
   1fc22:	00022737          	lui	a4,0x22
   1fc26:	33470713          	addi	a4,a4,820 # 22334 <nAsciiDot+0x640>
   1fc2a:	97ba                	add	a5,a5,a4
   1fc2c:	439c                	lw	a5,0(a5)
   1fc2e:	8782                	jr	a5
E:\02-项目\13-RISCV实验箱\模块驱动\19-LCD_ST7796U\AHL-CH32V307-LCD_ST7796U\Debug/srcc/printf.c:292
				break;
			case '+':
				flags_used |= FLAGS_PLUS;
   1fc30:	0024e493          	ori	s1,s1,2
E:\02-项目\13-RISCV实验箱\模块驱动\19-LCD_ST7796U\AHL-CH32V307-LCD_ST7796U\Debug/srcc/printf.c:293
				break;
   1fc34:	bfc9                	j	1fc06 <printk+0x7e>
E:\02-项目\13-RISCV实验箱\模块驱动\19-LCD_ST7796U\AHL-CH32V307-LCD_ST7796U\Debug/srcc/printf.c:295
			case ' ':
				flags_used |= FLAGS_SPACE;
   1fc36:	0044e493          	ori	s1,s1,4
E:\02-项目\13-RISCV实验箱\模块驱动\19-LCD_ST7796U\AHL-CH32V307-LCD_ST7796U\Debug/srcc/printf.c:296
				break;
   1fc3a:	b7f1                	j	1fc06 <printk+0x7e>
E:\02-项目\13-RISCV实验箱\模块驱动\19-LCD_ST7796U\AHL-CH32V307-LCD_ST7796U\Debug/srcc/printf.c:298
			case '0':
				flags_used |= FLAGS_ZERO;
   1fc3c:	0084e493          	ori	s1,s1,8
E:\02-项目\13-RISCV实验箱\模块驱动\19-LCD_ST7796U\AHL-CH32V307-LCD_ST7796U\Debug/srcc/printf.c:299
				break;
   1fc40:	b7d9                	j	1fc06 <printk+0x7e>
E:\02-项目\13-RISCV实验箱\模块驱动\19-LCD_ST7796U\AHL-CH32V307-LCD_ST7796U\Debug/srcc/printf.c:301
			case '#':
				flags_used |= FLAGS_POUND;
   1fc42:	0104e493          	ori	s1,s1,16
E:\02-项目\13-RISCV实验箱\模块驱动\19-LCD_ST7796U\AHL-CH32V307-LCD_ST7796U\Debug/srcc/printf.c:302
				break;
   1fc46:	b7c1                	j	1fc06 <printk+0x7e>
E:\02-项目\13-RISCV实验箱\模块驱动\19-LCD_ST7796U\AHL-CH32V307-LCD_ST7796U\Debug/srcc/printf.c:284
		flags_used = 0;
   1fc48:	4481                	li	s1,0
E:\02-项目\13-RISCV实验箱\模块驱动\19-LCD_ST7796U\AHL-CH32V307-LCD_ST7796U\Debug/srcc/printf.c:285
		done = FALSE;
   1fc4a:	4581                	li	a1,0
   1fc4c:	bf75                	j	1fc08 <printk+0x80>
E:\02-项目\13-RISCV实验箱\模块驱动\19-LCD_ST7796U\AHL-CH32V307-LCD_ST7796U\Debug/srcc/printf.c:306
			default:
				/* we've gone one char too far */
				--p;
				done = TRUE;
   1fc4e:	4585                	li	a1,1
   1fc50:	bf65                	j	1fc08 <printk+0x80>
E:\02-项目\13-RISCV实验箱\模块驱动\19-LCD_ST7796U\AHL-CH32V307-LCD_ST7796U\Debug/srcc/printf.c:313
			}
		}


		//检查%后再下一个字符 确定输出长度
		field_width = 0;
   1fc52:	4b01                	li	s6,0
E:\02-项目\13-RISCV实验箱\模块驱动\19-LCD_ST7796U\AHL-CH32V307-LCD_ST7796U\Debug/srcc/printf.c:314
		done = FALSE;
   1fc54:	4b81                	li	s7,0
   1fc56:	a011                	j	1fc5a <printk+0xd2>
E:\02-项目\13-RISCV实验箱\模块驱动\19-LCD_ST7796U\AHL-CH32V307-LCD_ST7796U\Debug/srcc/printf.c:332
				field_width = (field_width * 10) + (c - '0');
				break;
			default:
				/* we've gone one char too far */
				--p;
				done = TRUE;
   1fc58:	8bae                	mv	s7,a1
E:\02-项目\13-RISCV实验箱\模块驱动\19-LCD_ST7796U\AHL-CH32V307-LCD_ST7796U\Debug/srcc/printf.c:315
		while (!done) {
   1fc5a:	020b9363          	bnez	s7,1fc80 <printk+0xf8>
E:\02-项目\13-RISCV实验箱\模块驱动\19-LCD_ST7796U\AHL-CH32V307-LCD_ST7796U\Debug/srcc/printf.c:316
			switch (c = *++p) {
   1fc5e:	00140693          	addi	a3,s0,1
   1fc62:	00140783          	lb	a5,1(s0)
   1fc66:	fd078793          	addi	a5,a5,-48
   1fc6a:	4725                	li	a4,9
   1fc6c:	fef766e3          	bltu	a4,a5,1fc58 <printk+0xd0>
E:\02-项目\13-RISCV实验箱\模块驱动\19-LCD_ST7796U\AHL-CH32V307-LCD_ST7796U\Debug/srcc/printf.c:327
				field_width = (field_width * 10) + (c - '0');
   1fc70:	002b1713          	slli	a4,s6,0x2
   1fc74:	975a                	add	a4,a4,s6
   1fc76:	00171b13          	slli	s6,a4,0x1
   1fc7a:	9b3e                	add	s6,s6,a5
E:\02-项目\13-RISCV实验箱\模块驱动\19-LCD_ST7796U\AHL-CH32V307-LCD_ST7796U\Debug/srcc/printf.c:316
			switch (c = *++p) {
   1fc7c:	8436                	mv	s0,a3
E:\02-项目\13-RISCV实验箱\模块驱动\19-LCD_ST7796U\AHL-CH32V307-LCD_ST7796U\Debug/srcc/printf.c:328
				break;
   1fc7e:	bff1                	j	1fc5a <printk+0xd2>
E:\02-项目\13-RISCV实验箱\模块驱动\19-LCD_ST7796U\AHL-CH32V307-LCD_ST7796U\Debug/srcc/printf.c:337
				break;
			}
		}
		//此时字符为%看是否有.输入
		if (/* (c = *++p) */*++p == '.') {
   1fc80:	00140713          	addi	a4,s0,1
   1fc84:	00140683          	lb	a3,1(s0)
   1fc88:	02e00793          	li	a5,46
   1fc8c:	04f68a63          	beq	a3,a5,1fce0 <printk+0x158>
E:\02-项目\13-RISCV实验箱\模块驱动\19-LCD_ST7796U\AHL-CH32V307-LCD_ST7796U\Debug/srcc/printf.c:374
		} else {
			/* we've gone one char too far */
			--p;
#if 1
			precision_used = FALSE;
			precision_width = 0;
   1fc90:	4c01                	li	s8,0
E:\02-项目\13-RISCV实验箱\模块驱动\19-LCD_ST7796U\AHL-CH32V307-LCD_ST7796U\Debug/srcc/printf.c:373
			precision_used = FALSE;
   1fc92:	4a81                	li	s5,0
E:\02-项目\13-RISCV实验箱\模块驱动\19-LCD_ST7796U\AHL-CH32V307-LCD_ST7796U\Debug/srcc/printf.c:378
#endif
		}
		//判断 输出的是否有lf、LF等
		switch (/* c = */*++p) {
   1fc94:	00140713          	addi	a4,s0,1
   1fc98:	00140783          	lb	a5,1(s0)
   1fc9c:	06800693          	li	a3,104
   1fca0:	00d78b63          	beq	a5,a3,1fcb6 <printk+0x12e>
   1fca4:	06c00693          	li	a3,108
   1fca8:	06d78463          	beq	a5,a3,1fd10 <printk+0x188>
   1fcac:	04c00693          	li	a3,76
   1fcb0:	06d78363          	beq	a5,a3,1fd16 <printk+0x18e>
E:\02-项目\13-RISCV实验箱\模块驱动\19-LCD_ST7796U\AHL-CH32V307-LCD_ST7796U\Debug/srcc/printf.c:390
		case 'L':
			 length_modifier |= LENMOD_L;
			break;
		default:
			/* we've gone one char too far */
			--p;
   1fcb4:	8722                	mv	a4,s0
E:\02-项目\13-RISCV实验箱\模块驱动\19-LCD_ST7796U\AHL-CH32V307-LCD_ST7796U\Debug/srcc/printf.c:395
			break;
		}

		//p为格式字符串的首地址
		switch (c = *++p) {
   1fcb6:	00170413          	addi	s0,a4,1
   1fcba:	00170503          	lb	a0,1(a4)
   1fcbe:	fa850793          	addi	a5,a0,-88
   1fcc2:	0ff7f693          	andi	a3,a5,255
   1fcc6:	02000713          	li	a4,32
   1fcca:	40d76063          	bltu	a4,a3,200ca <printk+0x542>
   1fcce:	00269793          	slli	a5,a3,0x2
   1fcd2:	00022737          	lui	a4,0x22
   1fcd6:	37870713          	addi	a4,a4,888 # 22378 <nAsciiDot+0x684>
   1fcda:	97ba                	add	a5,a5,a4
   1fcdc:	439c                	lw	a5,0(a5)
   1fcde:	8782                	jr	a5
E:\02-项目\13-RISCV实验箱\模块驱动\19-LCD_ST7796U\AHL-CH32V307-LCD_ST7796U\Debug/srcc/printf.c:343
			precision_width = 0;
   1fce0:	4c01                	li	s8,0
E:\02-项目\13-RISCV实验箱\模块驱动\19-LCD_ST7796U\AHL-CH32V307-LCD_ST7796U\Debug/srcc/printf.c:344
			done = FALSE;
   1fce2:	4581                	li	a1,0
   1fce4:	a011                	j	1fce8 <printk+0x160>
E:\02-项目\13-RISCV实验箱\模块驱动\19-LCD_ST7796U\AHL-CH32V307-LCD_ST7796U\Debug/srcc/printf.c:365
					done = TRUE;
   1fce6:	85de                	mv	a1,s7
E:\02-项目\13-RISCV实验箱\模块驱动\19-LCD_ST7796U\AHL-CH32V307-LCD_ST7796U\Debug/srcc/printf.c:345
			while (!done) {
   1fce8:	e195                	bnez	a1,1fd0c <printk+0x184>
E:\02-项目\13-RISCV实验箱\模块驱动\19-LCD_ST7796U\AHL-CH32V307-LCD_ST7796U\Debug/srcc/printf.c:346
				switch ( c = *++p) {
   1fcea:	00170613          	addi	a2,a4,1
   1fcee:	00170783          	lb	a5,1(a4)
   1fcf2:	fd078793          	addi	a5,a5,-48
   1fcf6:	46a5                	li	a3,9
   1fcf8:	fef6e7e3          	bltu	a3,a5,1fce6 <printk+0x15e>
E:\02-项目\13-RISCV实验箱\模块驱动\19-LCD_ST7796U\AHL-CH32V307-LCD_ST7796U\Debug/srcc/printf.c:358
				precision_width = (precision_width * 10) +	(c - '0');
   1fcfc:	002c1713          	slli	a4,s8,0x2
   1fd00:	9762                	add	a4,a4,s8
   1fd02:	00171c13          	slli	s8,a4,0x1
   1fd06:	9c3e                	add	s8,s8,a5
E:\02-项目\13-RISCV实验箱\模块驱动\19-LCD_ST7796U\AHL-CH32V307-LCD_ST7796U\Debug/srcc/printf.c:346
				switch ( c = *++p) {
   1fd08:	8732                	mv	a4,a2
E:\02-项目\13-RISCV实验箱\模块驱动\19-LCD_ST7796U\AHL-CH32V307-LCD_ST7796U\Debug/srcc/printf.c:361
					break;
   1fd0a:	bff9                	j	1fce8 <printk+0x160>
   1fd0c:	843a                	mv	s0,a4
   1fd0e:	b759                	j	1fc94 <printk+0x10c>
E:\02-项目\13-RISCV实验箱\模块驱动\19-LCD_ST7796U\AHL-CH32V307-LCD_ST7796U\Debug/srcc/printf.c:383
			 length_modifier |= LENMOD_l;
   1fd10:	001a6a13          	ori	s4,s4,1
E:\02-项目\13-RISCV实验箱\模块驱动\19-LCD_ST7796U\AHL-CH32V307-LCD_ST7796U\Debug/srcc/printf.c:384
			break;
   1fd14:	b74d                	j	1fcb6 <printk+0x12e>
E:\02-项目\13-RISCV实验箱\模块驱动\19-LCD_ST7796U\AHL-CH32V307-LCD_ST7796U\Debug/srcc/printf.c:386
			 length_modifier |= LENMOD_L;
   1fd16:	002a6a13          	ori	s4,s4,2
E:\02-项目\13-RISCV实验箱\模块驱动\19-LCD_ST7796U\AHL-CH32V307-LCD_ST7796U\Debug/srcc/printf.c:387
			break;
   1fd1a:	bf71                	j	1fcb6 <printk+0x12e>
E:\02-项目\13-RISCV实验箱\模块驱动\19-LCD_ST7796U\AHL-CH32V307-LCD_ST7796U\Debug/srcc/printf.c:399
		case 'd':
		case 'i':
			 //此时ap为指向可变参数列表的第一个参数
			ival = (int) va_arg1(ap, int);  //返回当前参数，并将ap指向下一个参数
   1fd1c:	00498b93          	addi	s7,s3,4
   1fd20:	0009a783          	lw	a5,0(s3)
   1fd24:	ca3e                	sw	a5,20(sp)
E:\02-项目\13-RISCV实验箱\模块驱动\19-LCD_ST7796U\AHL-CH32V307-LCD_ST7796U\Debug/srcc/printf.c:400
			vlen = printk_mknumstr(vstr, &ival, TRUE, 10);//将整型转换成字符型保存在vstr中，返回字符数vlen
   1fd26:	46a9                	li	a3,10
   1fd28:	4605                	li	a2,1
   1fd2a:	084c                	addi	a1,sp,20
   1fd2c:	0868                	addi	a0,sp,28
   1fd2e:	b93ff0ef          	jal	ra,1f8c0 <printk_mknumstr>
   1fd32:	8caa                	mv	s9,a0
E:\02-项目\13-RISCV实验箱\模块驱动\19-LCD_ST7796U\AHL-CH32V307-LCD_ST7796U\Debug/srcc/printf.c:401
			vstrp = &vstr[vlen];  //指向转换后的最后一个字符
   1fd34:	087c                	addi	a5,sp,28
   1fd36:	00a78c33          	add	s8,a5,a0
E:\02-项目\13-RISCV实验箱\模块驱动\19-LCD_ST7796U\AHL-CH32V307-LCD_ST7796U\Debug/srcc/printf.c:404

			//若参数小于0，添加'-'号，并将字符长度加1
			if (ival < 0) {
   1fd3a:	47d2                	lw	a5,20(sp)
   1fd3c:	0007ca63          	bltz	a5,1fd50 <printk+0x1c8>
E:\02-项目\13-RISCV实验箱\模块驱动\19-LCD_ST7796U\AHL-CH32V307-LCD_ST7796U\Debug/srcc/printf.c:410
				schar = '-';
				++vlen;
			}
			//若参数不小于0，添加‘+’号或者‘ ’或者为0，并将字符长度加1
			else {
				if (IS_FLAG_PLUS(flags_used)) {
   1fd40:	0024f793          	andi	a5,s1,2
   1fd44:	cb85                	beqz	a5,1fd74 <printk+0x1ec>
E:\02-项目\13-RISCV实验箱\模块驱动\19-LCD_ST7796U\AHL-CH32V307-LCD_ST7796U\Debug/srcc/printf.c:412
					schar = '+';
					++vlen;
   1fd46:	00150c93          	addi	s9,a0,1
E:\02-项目\13-RISCV实验箱\模块驱动\19-LCD_ST7796U\AHL-CH32V307-LCD_ST7796U\Debug/srcc/printf.c:411
					schar = '+';
   1fd4a:	02b00993          	li	s3,43
   1fd4e:	a029                	j	1fd58 <printk+0x1d0>
E:\02-项目\13-RISCV实验箱\模块驱动\19-LCD_ST7796U\AHL-CH32V307-LCD_ST7796U\Debug/srcc/printf.c:406
				++vlen;
   1fd50:	00150c93          	addi	s9,a0,1
E:\02-项目\13-RISCV实验箱\模块驱动\19-LCD_ST7796U\AHL-CH32V307-LCD_ST7796U\Debug/srcc/printf.c:405
				schar = '-';
   1fd54:	02d00993          	li	s3,45
E:\02-项目\13-RISCV实验箱\模块驱动\19-LCD_ST7796U\AHL-CH32V307-LCD_ST7796U\Debug/srcc/printf.c:427
			dschar = FALSE;

			/*
			 * do the ZERO pad.
			 */
			if (IS_FLAG_ZERO(flags_used)) {
   1fd58:	0084f793          	andi	a5,s1,8
   1fd5c:	cb9d                	beqz	a5,1fd92 <printk+0x20a>
E:\02-项目\13-RISCV实验箱\模块驱动\19-LCD_ST7796U\AHL-CH32V307-LCD_ST7796U\Debug/srcc/printf.c:428
				if (schar)
   1fd5e:	02099463          	bnez	s3,1fd86 <printk+0x1fe>
E:\02-项目\13-RISCV实验箱\模块驱动\19-LCD_ST7796U\AHL-CH32V307-LCD_ST7796U\Debug/srcc/printf.c:431
					printk_putc(schar, &count, info);  //输出符号
				dschar = TRUE;
				printk_pad_zero(vlen, field_width, &count, info);
   1fd62:	86ca                	mv	a3,s2
   1fd64:	0830                	addi	a2,sp,24
   1fd66:	85da                	mv	a1,s6
   1fd68:	8566                	mv	a0,s9
   1fd6a:	bd7ff0ef          	jal	ra,1f940 <printk_pad_zero>
E:\02-项目\13-RISCV实验箱\模块驱动\19-LCD_ST7796U\AHL-CH32V307-LCD_ST7796U\Debug/srcc/printf.c:432
				vlen = field_width;
   1fd6e:	8cda                	mv	s9,s6
E:\02-项目\13-RISCV实验箱\模块驱动\19-LCD_ST7796U\AHL-CH32V307-LCD_ST7796U\Debug/srcc/printf.c:399
			ival = (int) va_arg1(ap, int);  //返回当前参数，并将ap指向下一个参数
   1fd70:	89de                	mv	s3,s7
E:\02-项目\13-RISCV实验箱\模块驱动\19-LCD_ST7796U\AHL-CH32V307-LCD_ST7796U\Debug/srcc/printf.c:448
			/* the string was built in reverse order, now display in */
			/* correct order */
			if (!dschar && schar) {
				printk_putc(schar, &count, info);
			}
			goto cont_xd;  //开始跳转
   1fd72:	ac65                	j	2002a <printk+0x4a2>
E:\02-项目\13-RISCV实验箱\模块驱动\19-LCD_ST7796U\AHL-CH32V307-LCD_ST7796U\Debug/srcc/printf.c:414
					if (IS_FLAG_SPACE(flags_used)) {
   1fd74:	0044f993          	andi	s3,s1,4
   1fd78:	fe0980e3          	beqz	s3,1fd58 <printk+0x1d0>
E:\02-项目\13-RISCV实验箱\模块驱动\19-LCD_ST7796U\AHL-CH32V307-LCD_ST7796U\Debug/srcc/printf.c:416
						++vlen;
   1fd7c:	00150c93          	addi	s9,a0,1
E:\02-项目\13-RISCV实验箱\模块驱动\19-LCD_ST7796U\AHL-CH32V307-LCD_ST7796U\Debug/srcc/printf.c:415
						schar = ' ';
   1fd80:	02000993          	li	s3,32
   1fd84:	bfd1                	j	1fd58 <printk+0x1d0>
E:\02-项目\13-RISCV实验箱\模块驱动\19-LCD_ST7796U\AHL-CH32V307-LCD_ST7796U\Debug/srcc/printf.c:429
					printk_putc(schar, &count, info);  //输出符号
   1fd86:	864a                	mv	a2,s2
   1fd88:	082c                	addi	a1,sp,24
   1fd8a:	854e                	mv	a0,s3
   1fd8c:	af9ff0ef          	jal	ra,1f884 <printk_putc>
   1fd90:	bfc9                	j	1fd62 <printk+0x1da>
E:\02-项目\13-RISCV实验箱\模块驱动\19-LCD_ST7796U\AHL-CH32V307-LCD_ST7796U\Debug/srcc/printf.c:434
				if (!IS_FLAG_MINUS(flags_used)) {
   1fd92:	0014f793          	andi	a5,s1,1
   1fd96:	cb89                	beqz	a5,1fda8 <printk+0x220>
E:\02-项目\13-RISCV实验箱\模块驱动\19-LCD_ST7796U\AHL-CH32V307-LCD_ST7796U\Debug/srcc/printf.c:445
			if (!dschar && schar) {
   1fd98:	fc098ce3          	beqz	s3,1fd70 <printk+0x1e8>
E:\02-项目\13-RISCV实验箱\模块驱动\19-LCD_ST7796U\AHL-CH32V307-LCD_ST7796U\Debug/srcc/printf.c:446
				printk_putc(schar, &count, info);
   1fd9c:	864a                	mv	a2,s2
   1fd9e:	082c                	addi	a1,sp,24
   1fda0:	854e                	mv	a0,s3
   1fda2:	ae3ff0ef          	jal	ra,1f884 <printk_putc>
   1fda6:	b7e9                	j	1fd70 <printk+0x1e8>
E:\02-项目\13-RISCV实验箱\模块驱动\19-LCD_ST7796U\AHL-CH32V307-LCD_ST7796U\Debug/srcc/printf.c:435
					printk_pad_space(vlen, field_width, &count, info);  //输出空格
   1fda8:	86ca                	mv	a3,s2
   1fdaa:	0830                	addi	a2,sp,24
   1fdac:	85da                	mv	a1,s6
   1fdae:	8566                	mv	a0,s9
   1fdb0:	bc7ff0ef          	jal	ra,1f976 <printk_pad_space>
E:\02-项目\13-RISCV实验箱\模块驱动\19-LCD_ST7796U\AHL-CH32V307-LCD_ST7796U\Debug/srcc/printf.c:437
					if (schar)
   1fdb4:	fa098ee3          	beqz	s3,1fd70 <printk+0x1e8>
E:\02-项目\13-RISCV实验箱\模块驱动\19-LCD_ST7796U\AHL-CH32V307-LCD_ST7796U\Debug/srcc/printf.c:438
						printk_putc(schar, &count, info);
   1fdb8:	864a                	mv	a2,s2
   1fdba:	082c                	addi	a1,sp,24
   1fdbc:	854e                	mv	a0,s3
   1fdbe:	ac7ff0ef          	jal	ra,1f884 <printk_putc>
   1fdc2:	b77d                	j	1fd70 <printk+0x1e8>
E:\02-项目\13-RISCV实验箱\模块驱动\19-LCD_ST7796U\AHL-CH32V307-LCD_ST7796U\Debug/srcc/printf.c:460
			//实际传入变参数 函数后 浮点数变为:0x6000000040091EB8 实际是将其转化为double型数据
			//但是顺序反了，我们要做的是将后四字节提前，然后把0x60移到紧接着前四个字节后的位置。
			
			//【20200816】  XSX，解决浮点数不优化问题
			ap=ap+4;
			fval= (double)va_arg1(ap,double);
   1fdc4:	00c98b93          	addi	s7,s3,12
   1fdc8:	0049ac83          	lw	s9,4(s3)
   1fdcc:	0089a983          	lw	s3,8(s3)
   1fdd0:	c466                	sw	s9,8(sp)
   1fdd2:	c64e                	sw	s3,12(sp)
E:\02-项目\13-RISCV实验箱\模块驱动\19-LCD_ST7796U\AHL-CH32V307-LCD_ST7796U\Debug/srcc/printf.c:464
			
			//【20200816】  XSX，解决负数的浮点数输出问题
			//若参数小于0，添加'-'号，并将字符长度加1
			if (fval < 0) {
   1fdd4:	4601                	li	a2,0
   1fdd6:	4681                	li	a3,0
   1fdd8:	8566                	mv	a0,s9
   1fdda:	85ce                	mv	a1,s3
   1fddc:	2fd000ef          	jal	ra,208d8 <__ledf2>
   1fde0:	00054c63          	bltz	a0,1fdf8 <printk+0x270>
E:\02-项目\13-RISCV实验箱\模块驱动\19-LCD_ST7796U\AHL-CH32V307-LCD_ST7796U\Debug/srcc/printf.c:471
				fval = -fval;				//负数取它的正数
				++vlen;
			}
			//若参数不小于0，添加‘+’号或者‘ ’或者为0，并将字符长度加1
			else {
				if (IS_FLAG_PLUS(flags_used)) {
   1fde4:	0024f793          	andi	a5,s1,2
   1fde8:	eba9                	bnez	a5,1fe3a <printk+0x2b2>
E:\02-项目\13-RISCV实验箱\模块驱动\19-LCD_ST7796U\AHL-CH32V307-LCD_ST7796U\Debug/srcc/printf.c:475
					schar = '+';
					++vlen;
				} else {
					if (IS_FLAG_SPACE(flags_used)) {
   1fdea:	0044f993          	andi	s3,s1,4
   1fdee:	00098d63          	beqz	s3,1fe08 <printk+0x280>
E:\02-项目\13-RISCV实验箱\模块驱动\19-LCD_ST7796U\AHL-CH32V307-LCD_ST7796U\Debug/srcc/printf.c:476
						schar = ' ';
   1fdf2:	02000993          	li	s3,32
   1fdf6:	a809                	j	1fe08 <printk+0x280>
E:\02-项目\13-RISCV实验箱\模块驱动\19-LCD_ST7796U\AHL-CH32V307-LCD_ST7796U\Debug/srcc/printf.c:466
				fval = -fval;				//负数取它的正数
   1fdf8:	800007b7          	lui	a5,0x80000
   1fdfc:	0137c7b3          	xor	a5,a5,s3
   1fe00:	c466                	sw	s9,8(sp)
   1fe02:	c63e                	sw	a5,12(sp)
E:\02-项目\13-RISCV实验箱\模块驱动\19-LCD_ST7796U\AHL-CH32V307-LCD_ST7796U\Debug/srcc/printf.c:465
				schar = '-';
   1fe04:	02d00993          	li	s3,45
E:\02-项目\13-RISCV实验箱\模块驱动\19-LCD_ST7796U\AHL-CH32V307-LCD_ST7796U\Debug/srcc/printf.c:486
				}
			}
			dschar = FALSE;
			
			//确定是否使用小数点精度数值
			if(precision_used)
   1fe08:	020a9c63          	bnez	s5,1fe40 <printk+0x2b8>
E:\02-项目\13-RISCV实验箱\模块驱动\19-LCD_ST7796U\AHL-CH32V307-LCD_ST7796U\Debug/srcc/printf.c:493
				vlen = printk_mkfloatstr(&fval,vstr,precision_width);//将整型转换成字符型保存在vstr中，返回字符数vlen
				vstrp = &vstr[0];  //指向转换后的第一个字符
			}
			else
			{
				if(length_modifier==0)   //浮点型精度到小数点后8位
   1fe0c:	040a1163          	bnez	s4,1fe4e <printk+0x2c6>
E:\02-项目\13-RISCV实验箱\模块驱动\19-LCD_ST7796U\AHL-CH32V307-LCD_ST7796U\Debug/srcc/printf.c:495
				{
					vlen = printk_mkfloatstr(&fval,vstr,6);//将整型转换成字符型保存在vstr中，返回字符数vlen
   1fe10:	4619                	li	a2,6
   1fe12:	086c                	addi	a1,sp,28
   1fe14:	0028                	addi	a0,sp,8
   1fe16:	babff0ef          	jal	ra,1f9c0 <printk_mkfloatstr>
   1fe1a:	8c2a                	mv	s8,a0
E:\02-项目\13-RISCV实验箱\模块驱动\19-LCD_ST7796U\AHL-CH32V307-LCD_ST7796U\Debug/srcc/printf.c:511
			

			/*
			 * do the ZERO pad.
			 */
			if (IS_FLAG_ZERO(flags_used)) {
   1fe1c:	0084f793          	andi	a5,s1,8
   1fe20:	c7a1                	beqz	a5,1fe68 <printk+0x2e0>
E:\02-项目\13-RISCV实验箱\模块驱动\19-LCD_ST7796U\AHL-CH32V307-LCD_ST7796U\Debug/srcc/printf.c:512
				if (schar)
   1fe22:	02099d63          	bnez	s3,1fe5c <printk+0x2d4>
E:\02-项目\13-RISCV实验箱\模块驱动\19-LCD_ST7796U\AHL-CH32V307-LCD_ST7796U\Debug/srcc/printf.c:515
					printk_putc(schar, &count, info);  //输出符号
				dschar = TRUE;
				printk_pad_zero(vlen, field_width, &count, info);
   1fe26:	86ca                	mv	a3,s2
   1fe28:	0830                	addi	a2,sp,24
   1fe2a:	85da                	mv	a1,s6
   1fe2c:	8562                	mv	a0,s8
   1fe2e:	b13ff0ef          	jal	ra,1f940 <printk_pad_zero>
E:\02-项目\13-RISCV实验箱\模块驱动\19-LCD_ST7796U\AHL-CH32V307-LCD_ST7796U\Debug/srcc/printf.c:516
				vlen = field_width;
   1fe32:	8c5a                	mv	s8,s6
   1fe34:	01c10993          	addi	s3,sp,28
   1fe38:	a0b5                	j	1fea4 <printk+0x31c>
E:\02-项目\13-RISCV实验箱\模块驱动\19-LCD_ST7796U\AHL-CH32V307-LCD_ST7796U\Debug/srcc/printf.c:472
					schar = '+';
   1fe3a:	02b00993          	li	s3,43
   1fe3e:	b7e9                	j	1fe08 <printk+0x280>
E:\02-项目\13-RISCV实验箱\模块驱动\19-LCD_ST7796U\AHL-CH32V307-LCD_ST7796U\Debug/srcc/printf.c:488
				vlen = printk_mkfloatstr(&fval,vstr,precision_width);//将整型转换成字符型保存在vstr中，返回字符数vlen
   1fe40:	8662                	mv	a2,s8
   1fe42:	086c                	addi	a1,sp,28
   1fe44:	0028                	addi	a0,sp,8
   1fe46:	b7bff0ef          	jal	ra,1f9c0 <printk_mkfloatstr>
   1fe4a:	8c2a                	mv	s8,a0
E:\02-项目\13-RISCV实验箱\模块驱动\19-LCD_ST7796U\AHL-CH32V307-LCD_ST7796U\Debug/srcc/printf.c:489
				vstrp = &vstr[0];  //指向转换后的第一个字符
   1fe4c:	bfc1                	j	1fe1c <printk+0x294>
E:\02-项目\13-RISCV实验箱\模块驱动\19-LCD_ST7796U\AHL-CH32V307-LCD_ST7796U\Debug/srcc/printf.c:500
					vlen = printk_mkfloatstr(&fval,vstr,6);//将整型转换成字符型保存在vstr中，返回字符数vlen
   1fe4e:	4619                	li	a2,6
   1fe50:	086c                	addi	a1,sp,28
   1fe52:	0028                	addi	a0,sp,8
   1fe54:	b6dff0ef          	jal	ra,1f9c0 <printk_mkfloatstr>
   1fe58:	8c2a                	mv	s8,a0
E:\02-项目\13-RISCV实验箱\模块驱动\19-LCD_ST7796U\AHL-CH32V307-LCD_ST7796U\Debug/srcc/printf.c:501
					vstrp = &vstr[0];  //指向转换后的第一个字符
   1fe5a:	b7c9                	j	1fe1c <printk+0x294>
E:\02-项目\13-RISCV实验箱\模块驱动\19-LCD_ST7796U\AHL-CH32V307-LCD_ST7796U\Debug/srcc/printf.c:513
					printk_putc(schar, &count, info);  //输出符号
   1fe5c:	864a                	mv	a2,s2
   1fe5e:	082c                	addi	a1,sp,24
   1fe60:	854e                	mv	a0,s3
   1fe62:	a23ff0ef          	jal	ra,1f884 <printk_putc>
   1fe66:	b7c1                	j	1fe26 <printk+0x29e>
E:\02-项目\13-RISCV实验箱\模块驱动\19-LCD_ST7796U\AHL-CH32V307-LCD_ST7796U\Debug/srcc/printf.c:518
			} else {
				if (!IS_FLAG_MINUS(flags_used)) {
   1fe68:	0014f793          	andi	a5,s1,1
   1fe6c:	cb89                	beqz	a5,1fe7e <printk+0x2f6>
E:\02-项目\13-RISCV实验箱\模块驱动\19-LCD_ST7796U\AHL-CH32V307-LCD_ST7796U\Debug/srcc/printf.c:529
				}
			}

			/* the string was built in reverse order, now display in */
			/* correct order */
			if (!dschar && schar) {
   1fe6e:	fc0983e3          	beqz	s3,1fe34 <printk+0x2ac>
E:\02-项目\13-RISCV实验箱\模块驱动\19-LCD_ST7796U\AHL-CH32V307-LCD_ST7796U\Debug/srcc/printf.c:530
				printk_putc(schar, &count, info);
   1fe72:	864a                	mv	a2,s2
   1fe74:	082c                	addi	a1,sp,24
   1fe76:	854e                	mv	a0,s3
   1fe78:	a0dff0ef          	jal	ra,1f884 <printk_putc>
   1fe7c:	bf65                	j	1fe34 <printk+0x2ac>
E:\02-项目\13-RISCV实验箱\模块驱动\19-LCD_ST7796U\AHL-CH32V307-LCD_ST7796U\Debug/srcc/printf.c:519
					printk_pad_space(vlen, field_width, &count, info);  //输出空格
   1fe7e:	86ca                	mv	a3,s2
   1fe80:	0830                	addi	a2,sp,24
   1fe82:	85da                	mv	a1,s6
   1fe84:	8562                	mv	a0,s8
   1fe86:	af1ff0ef          	jal	ra,1f976 <printk_pad_space>
E:\02-项目\13-RISCV实验箱\模块驱动\19-LCD_ST7796U\AHL-CH32V307-LCD_ST7796U\Debug/srcc/printf.c:521
					if (schar)
   1fe8a:	fa0985e3          	beqz	s3,1fe34 <printk+0x2ac>
E:\02-项目\13-RISCV实验箱\模块驱动\19-LCD_ST7796U\AHL-CH32V307-LCD_ST7796U\Debug/srcc/printf.c:522
						printk_putc(schar, &count, info);
   1fe8e:	864a                	mv	a2,s2
   1fe90:	082c                	addi	a1,sp,24
   1fe92:	854e                	mv	a0,s3
   1fe94:	9f1ff0ef          	jal	ra,1f884 <printk_putc>
   1fe98:	bf71                	j	1fe34 <printk+0x2ac>
E:\02-项目\13-RISCV实验箱\模块驱动\19-LCD_ST7796U\AHL-CH32V307-LCD_ST7796U\Debug/srcc/printf.c:533
			}
			while (*vstrp)
				printk_putc(*vstrp++, &count, info);
   1fe9a:	0985                	addi	s3,s3,1
   1fe9c:	864a                	mv	a2,s2
   1fe9e:	082c                	addi	a1,sp,24
   1fea0:	9e5ff0ef          	jal	ra,1f884 <printk_putc>
E:\02-项目\13-RISCV实验箱\模块驱动\19-LCD_ST7796U\AHL-CH32V307-LCD_ST7796U\Debug/srcc/printf.c:532
			while (*vstrp)
   1fea4:	00098503          	lb	a0,0(s3)
   1fea8:	f96d                	bnez	a0,1fe9a <printk+0x312>
E:\02-项目\13-RISCV实验箱\模块驱动\19-LCD_ST7796U\AHL-CH32V307-LCD_ST7796U\Debug/srcc/printf.c:534
			if (IS_FLAG_MINUS(flags_used)) {
   1feaa:	8885                	andi	s1,s1,1
   1feac:	e099                	bnez	s1,1feb2 <printk+0x32a>
E:\02-项目\13-RISCV实验箱\模块驱动\19-LCD_ST7796U\AHL-CH32V307-LCD_ST7796U\Debug/srcc/printf.c:460
			fval= (double)va_arg1(ap,double);
   1feae:	89de                	mv	s3,s7
   1feb0:	bb05                	j	1fbe0 <printk+0x58>
E:\02-项目\13-RISCV实验箱\模块驱动\19-LCD_ST7796U\AHL-CH32V307-LCD_ST7796U\Debug/srcc/printf.c:535
				printk_pad_space(vlen, field_width, &count, info);
   1feb2:	86ca                	mv	a3,s2
   1feb4:	0830                	addi	a2,sp,24
   1feb6:	85da                	mv	a1,s6
   1feb8:	8562                	mv	a0,s8
   1feba:	abdff0ef          	jal	ra,1f976 <printk_pad_space>
E:\02-项目\13-RISCV实验箱\模块驱动\19-LCD_ST7796U\AHL-CH32V307-LCD_ST7796U\Debug/srcc/printf.c:460
			fval= (double)va_arg1(ap,double);
   1febe:	89de                	mv	s3,s7
   1fec0:	b305                	j	1fbe0 <printk+0x58>
E:\02-项目\13-RISCV实验箱\模块驱动\19-LCD_ST7796U\AHL-CH32V307-LCD_ST7796U\Debug/srcc/printf.c:541
			}
            break;
        //以下是16进制整形输出
		case 'x':
		case 'X':
			uval = (unsigned int) va_arg1(ap, unsigned int);
   1fec2:	00498d13          	addi	s10,s3,4
   1fec6:	0009a783          	lw	a5,0(s3)
   1feca:	c23e                	sw	a5,4(sp)
E:\02-项目\13-RISCV实验箱\模块驱动\19-LCD_ST7796U\AHL-CH32V307-LCD_ST7796U\Debug/srcc/printf.c:542
			vlen = printk_mknumstr(vstr, &uval, FALSE, 16);
   1fecc:	46c1                	li	a3,16
   1fece:	4601                	li	a2,0
   1fed0:	004c                	addi	a1,sp,4
   1fed2:	0868                	addi	a0,sp,28
   1fed4:	9edff0ef          	jal	ra,1f8c0 <printk_mknumstr>
   1fed8:	8caa                	mv	s9,a0
E:\02-项目\13-RISCV实验箱\模块驱动\19-LCD_ST7796U\AHL-CH32V307-LCD_ST7796U\Debug/srcc/printf.c:543
			vstrp = &vstr[vlen];
   1feda:	087c                	addi	a5,sp,28
   1fedc:	00a78c33          	add	s8,a5,a0
E:\02-项目\13-RISCV实验箱\模块驱动\19-LCD_ST7796U\AHL-CH32V307-LCD_ST7796U\Debug/srcc/printf.c:546

			dschar = FALSE;
			if (IS_FLAG_ZERO(flags_used)) {
   1fee0:	0084f993          	andi	s3,s1,8
   1fee4:	04098263          	beqz	s3,1ff28 <printk+0x3a0>
E:\02-项目\13-RISCV实验箱\模块驱动\19-LCD_ST7796U\AHL-CH32V307-LCD_ST7796U\Debug/srcc/printf.c:547
				if (IS_FLAG_POUND(flags_used)) {
   1fee8:	0104f993          	andi	s3,s1,16
   1feec:	02099063          	bnez	s3,1ff0c <printk+0x384>
E:\02-项目\13-RISCV实验箱\模块驱动\19-LCD_ST7796U\AHL-CH32V307-LCD_ST7796U\Debug/srcc/printf.c:553
					printk_putc('0', &count, info);
					printk_putc('x', &count, info);
					/*vlen += 2;*/
					dschar = TRUE;
				}
				printk_pad_zero(vlen, field_width, &count, info);
   1fef0:	86ca                	mv	a3,s2
   1fef2:	0830                	addi	a2,sp,24
   1fef4:	85da                	mv	a1,s6
   1fef6:	8566                	mv	a0,s9
   1fef8:	a49ff0ef          	jal	ra,1f940 <printk_pad_zero>
E:\02-项目\13-RISCV实验箱\模块驱动\19-LCD_ST7796U\AHL-CH32V307-LCD_ST7796U\Debug/srcc/printf.c:554
				vlen = field_width;
   1fefc:	8cda                	mv	s9,s6
E:\02-项目\13-RISCV实验箱\模块驱动\19-LCD_ST7796U\AHL-CH32V307-LCD_ST7796U\Debug/srcc/printf.c:569
						dschar = TRUE;
					}
				}
			}

			if ((IS_FLAG_POUND(flags_used)) && !dschar) {
   1fefe:	0104f793          	andi	a5,s1,16
   1ff02:	c399                	beqz	a5,1ff08 <printk+0x380>
E:\02-项目\13-RISCV实验箱\模块驱动\19-LCD_ST7796U\AHL-CH32V307-LCD_ST7796U\Debug/srcc/printf.c:569 (discriminator 1)
   1ff04:	06098163          	beqz	s3,1ff66 <printk+0x3de>
E:\02-项目\13-RISCV实验箱\模块驱动\19-LCD_ST7796U\AHL-CH32V307-LCD_ST7796U\Debug/srcc/printf.c:541
			uval = (unsigned int) va_arg1(ap, unsigned int);
   1ff08:	89ea                	mv	s3,s10
E:\02-项目\13-RISCV实验箱\模块驱动\19-LCD_ST7796U\AHL-CH32V307-LCD_ST7796U\Debug/srcc/printf.c:574
				printk_putc('0', &count, info);
				printk_putc('x', &count, info);
				vlen += 2;
			}
			goto cont_xd;
   1ff0a:	a205                	j	2002a <printk+0x4a2>
E:\02-项目\13-RISCV实验箱\模块驱动\19-LCD_ST7796U\AHL-CH32V307-LCD_ST7796U\Debug/srcc/printf.c:548
					printk_putc('0', &count, info);
   1ff0c:	864a                	mv	a2,s2
   1ff0e:	082c                	addi	a1,sp,24
   1ff10:	03000513          	li	a0,48
   1ff14:	971ff0ef          	jal	ra,1f884 <printk_putc>
E:\02-项目\13-RISCV实验箱\模块驱动\19-LCD_ST7796U\AHL-CH32V307-LCD_ST7796U\Debug/srcc/printf.c:549
					printk_putc('x', &count, info);
   1ff18:	864a                	mv	a2,s2
   1ff1a:	082c                	addi	a1,sp,24
   1ff1c:	07800513          	li	a0,120
   1ff20:	965ff0ef          	jal	ra,1f884 <printk_putc>
E:\02-项目\13-RISCV实验箱\模块驱动\19-LCD_ST7796U\AHL-CH32V307-LCD_ST7796U\Debug/srcc/printf.c:551
					dschar = TRUE;
   1ff24:	89de                	mv	s3,s7
   1ff26:	b7e9                	j	1fef0 <printk+0x368>
E:\02-项目\13-RISCV实验箱\模块驱动\19-LCD_ST7796U\AHL-CH32V307-LCD_ST7796U\Debug/srcc/printf.c:556
				if (!IS_FLAG_MINUS(flags_used)) {
   1ff28:	0014f793          	andi	a5,s1,1
   1ff2c:	fbe9                	bnez	a5,1fefe <printk+0x376>
E:\02-项目\13-RISCV实验箱\模块驱动\19-LCD_ST7796U\AHL-CH32V307-LCD_ST7796U\Debug/srcc/printf.c:557
					if (IS_FLAG_POUND(flags_used)) {
   1ff2e:	0104f993          	andi	s3,s1,16
   1ff32:	00098463          	beqz	s3,1ff3a <printk+0x3b2>
E:\02-项目\13-RISCV实验箱\模块驱动\19-LCD_ST7796U\AHL-CH32V307-LCD_ST7796U\Debug/srcc/printf.c:558
						vlen += 2;
   1ff36:	00250c93          	addi	s9,a0,2
E:\02-项目\13-RISCV实验箱\模块驱动\19-LCD_ST7796U\AHL-CH32V307-LCD_ST7796U\Debug/srcc/printf.c:560
					printk_pad_space(vlen, field_width, &count, info);
   1ff3a:	86ca                	mv	a3,s2
   1ff3c:	0830                	addi	a2,sp,24
   1ff3e:	85da                	mv	a1,s6
   1ff40:	8566                	mv	a0,s9
   1ff42:	a35ff0ef          	jal	ra,1f976 <printk_pad_space>
E:\02-项目\13-RISCV实验箱\模块驱动\19-LCD_ST7796U\AHL-CH32V307-LCD_ST7796U\Debug/srcc/printf.c:561
					if (IS_FLAG_POUND(flags_used)) {
   1ff46:	fa098ce3          	beqz	s3,1fefe <printk+0x376>
E:\02-项目\13-RISCV实验箱\模块驱动\19-LCD_ST7796U\AHL-CH32V307-LCD_ST7796U\Debug/srcc/printf.c:562
						printk_putc('0', &count, info);
   1ff4a:	864a                	mv	a2,s2
   1ff4c:	082c                	addi	a1,sp,24
   1ff4e:	03000513          	li	a0,48
   1ff52:	933ff0ef          	jal	ra,1f884 <printk_putc>
E:\02-项目\13-RISCV实验箱\模块驱动\19-LCD_ST7796U\AHL-CH32V307-LCD_ST7796U\Debug/srcc/printf.c:563
						printk_putc('x', &count, info);
   1ff56:	864a                	mv	a2,s2
   1ff58:	082c                	addi	a1,sp,24
   1ff5a:	07800513          	li	a0,120
   1ff5e:	927ff0ef          	jal	ra,1f884 <printk_putc>
E:\02-项目\13-RISCV实验箱\模块驱动\19-LCD_ST7796U\AHL-CH32V307-LCD_ST7796U\Debug/srcc/printf.c:564
						dschar = TRUE;
   1ff62:	89de                	mv	s3,s7
   1ff64:	bf69                	j	1fefe <printk+0x376>
E:\02-项目\13-RISCV实验箱\模块驱动\19-LCD_ST7796U\AHL-CH32V307-LCD_ST7796U\Debug/srcc/printf.c:570
				printk_putc('0', &count, info);
   1ff66:	864a                	mv	a2,s2
   1ff68:	082c                	addi	a1,sp,24
   1ff6a:	03000513          	li	a0,48
   1ff6e:	917ff0ef          	jal	ra,1f884 <printk_putc>
E:\02-项目\13-RISCV实验箱\模块驱动\19-LCD_ST7796U\AHL-CH32V307-LCD_ST7796U\Debug/srcc/printf.c:571
				printk_putc('x', &count, info);
   1ff72:	864a                	mv	a2,s2
   1ff74:	082c                	addi	a1,sp,24
   1ff76:	07800513          	li	a0,120
   1ff7a:	90bff0ef          	jal	ra,1f884 <printk_putc>
E:\02-项目\13-RISCV实验箱\模块驱动\19-LCD_ST7796U\AHL-CH32V307-LCD_ST7796U\Debug/srcc/printf.c:572
				vlen += 2;
   1ff7e:	0c89                	addi	s9,s9,2
   1ff80:	b761                	j	1ff08 <printk+0x380>
E:\02-项目\13-RISCV实验箱\模块驱动\19-LCD_ST7796U\AHL-CH32V307-LCD_ST7796U\Debug/srcc/printf.c:577
		//无符号以八进制表示的整数输出
		case 'o':
			uval = (unsigned int) va_arg1(ap, unsigned int);
   1ff82:	00498b93          	addi	s7,s3,4
   1ff86:	0009a783          	lw	a5,0(s3)
   1ff8a:	c23e                	sw	a5,4(sp)
E:\02-项目\13-RISCV实验箱\模块驱动\19-LCD_ST7796U\AHL-CH32V307-LCD_ST7796U\Debug/srcc/printf.c:578
			vlen = printk_mknumstr(vstr, &uval, FALSE, 8);
   1ff8c:	46a1                	li	a3,8
   1ff8e:	4601                	li	a2,0
   1ff90:	004c                	addi	a1,sp,4
   1ff92:	0868                	addi	a0,sp,28
   1ff94:	92dff0ef          	jal	ra,1f8c0 <printk_mknumstr>
   1ff98:	8caa                	mv	s9,a0
E:\02-项目\13-RISCV实验箱\模块驱动\19-LCD_ST7796U\AHL-CH32V307-LCD_ST7796U\Debug/srcc/printf.c:577
			uval = (unsigned int) va_arg1(ap, unsigned int);
   1ff9a:	89de                	mv	s3,s7
E:\02-项目\13-RISCV实验箱\模块驱动\19-LCD_ST7796U\AHL-CH32V307-LCD_ST7796U\Debug/srcc/printf.c:594
			goto cont_u;
		case 'u':
			uval = (unsigned int) va_arg1(ap, unsigned int);
			vlen = printk_mknumstr(vstr, &uval, FALSE, 10);

			cont_u: vstrp = &vstr[vlen];
   1ff9c:	087c                	addi	a5,sp,28
   1ff9e:	01978c33          	add	s8,a5,s9
E:\02-项目\13-RISCV实验箱\模块驱动\19-LCD_ST7796U\AHL-CH32V307-LCD_ST7796U\Debug/srcc/printf.c:596

			if (IS_FLAG_ZERO(flags_used)) {
   1ffa2:	0084f793          	andi	a5,s1,8
   1ffa6:	e7ad                	bnez	a5,20010 <printk+0x488>
E:\02-项目\13-RISCV实验箱\模块驱动\19-LCD_ST7796U\AHL-CH32V307-LCD_ST7796U\Debug/srcc/printf.c:600
				printk_pad_zero(vlen, field_width, &count, info);
				vlen = field_width;
			} else {
				if (!IS_FLAG_MINUS(flags_used)) {
   1ffa8:	0014f793          	andi	a5,s1,1
   1ffac:	efbd                	bnez	a5,2002a <printk+0x4a2>
E:\02-项目\13-RISCV实验箱\模块驱动\19-LCD_ST7796U\AHL-CH32V307-LCD_ST7796U\Debug/srcc/printf.c:601
					printk_pad_space(vlen, field_width, &count, info);
   1ffae:	86ca                	mv	a3,s2
   1ffb0:	0830                	addi	a2,sp,24
   1ffb2:	85da                	mv	a1,s6
   1ffb4:	8566                	mv	a0,s9
   1ffb6:	9c1ff0ef          	jal	ra,1f976 <printk_pad_space>
   1ffba:	a885                	j	2002a <printk+0x4a2>
E:\02-项目\13-RISCV实验箱\模块驱动\19-LCD_ST7796U\AHL-CH32V307-LCD_ST7796U\Debug/srcc/printf.c:582
			uval = (unsigned int) va_arg1(ap, unsigned int);
   1ffbc:	00498b93          	addi	s7,s3,4
   1ffc0:	0009a783          	lw	a5,0(s3)
   1ffc4:	c23e                	sw	a5,4(sp)
E:\02-项目\13-RISCV实验箱\模块驱动\19-LCD_ST7796U\AHL-CH32V307-LCD_ST7796U\Debug/srcc/printf.c:583
			vlen = printk_mknumstr(vstr, &uval, FALSE, 2);
   1ffc6:	4689                	li	a3,2
   1ffc8:	4601                	li	a2,0
   1ffca:	004c                	addi	a1,sp,4
   1ffcc:	0868                	addi	a0,sp,28
   1ffce:	8f3ff0ef          	jal	ra,1f8c0 <printk_mknumstr>
   1ffd2:	8caa                	mv	s9,a0
E:\02-项目\13-RISCV实验箱\模块驱动\19-LCD_ST7796U\AHL-CH32V307-LCD_ST7796U\Debug/srcc/printf.c:582
			uval = (unsigned int) va_arg1(ap, unsigned int);
   1ffd4:	89de                	mv	s3,s7
E:\02-项目\13-RISCV实验箱\模块驱动\19-LCD_ST7796U\AHL-CH32V307-LCD_ST7796U\Debug/srcc/printf.c:584
			goto cont_u;
   1ffd6:	b7d9                	j	1ff9c <printk+0x414>
E:\02-项目\13-RISCV实验箱\模块驱动\19-LCD_ST7796U\AHL-CH32V307-LCD_ST7796U\Debug/srcc/printf.c:587
			uval = (unsigned int) va_arg1(ap, void *);
   1ffd8:	00498b93          	addi	s7,s3,4
   1ffdc:	0009a783          	lw	a5,0(s3)
   1ffe0:	c23e                	sw	a5,4(sp)
E:\02-项目\13-RISCV实验箱\模块驱动\19-LCD_ST7796U\AHL-CH32V307-LCD_ST7796U\Debug/srcc/printf.c:588
			vlen = printk_mknumstr(vstr, &uval, FALSE, 16);
   1ffe2:	46c1                	li	a3,16
   1ffe4:	4601                	li	a2,0
   1ffe6:	004c                	addi	a1,sp,4
   1ffe8:	0868                	addi	a0,sp,28
   1ffea:	8d7ff0ef          	jal	ra,1f8c0 <printk_mknumstr>
   1ffee:	8caa                	mv	s9,a0
E:\02-项目\13-RISCV实验箱\模块驱动\19-LCD_ST7796U\AHL-CH32V307-LCD_ST7796U\Debug/srcc/printf.c:587
			uval = (unsigned int) va_arg1(ap, void *);
   1fff0:	89de                	mv	s3,s7
E:\02-项目\13-RISCV实验箱\模块驱动\19-LCD_ST7796U\AHL-CH32V307-LCD_ST7796U\Debug/srcc/printf.c:589
			goto cont_u;
   1fff2:	b76d                	j	1ff9c <printk+0x414>
E:\02-项目\13-RISCV实验箱\模块驱动\19-LCD_ST7796U\AHL-CH32V307-LCD_ST7796U\Debug/srcc/printf.c:591
			uval = (unsigned int) va_arg1(ap, unsigned int);
   1fff4:	00498b93          	addi	s7,s3,4
   1fff8:	0009a783          	lw	a5,0(s3)
   1fffc:	c23e                	sw	a5,4(sp)
E:\02-项目\13-RISCV实验箱\模块驱动\19-LCD_ST7796U\AHL-CH32V307-LCD_ST7796U\Debug/srcc/printf.c:592
			vlen = printk_mknumstr(vstr, &uval, FALSE, 10);
   1fffe:	46a9                	li	a3,10
   20000:	4601                	li	a2,0
   20002:	004c                	addi	a1,sp,4
   20004:	0868                	addi	a0,sp,28
   20006:	8bbff0ef          	jal	ra,1f8c0 <printk_mknumstr>
   2000a:	8caa                	mv	s9,a0
E:\02-项目\13-RISCV实验箱\模块驱动\19-LCD_ST7796U\AHL-CH32V307-LCD_ST7796U\Debug/srcc/printf.c:591
			uval = (unsigned int) va_arg1(ap, unsigned int);
   2000c:	89de                	mv	s3,s7
   2000e:	b779                	j	1ff9c <printk+0x414>
E:\02-项目\13-RISCV实验箱\模块驱动\19-LCD_ST7796U\AHL-CH32V307-LCD_ST7796U\Debug/srcc/printf.c:597
				printk_pad_zero(vlen, field_width, &count, info);
   20010:	86ca                	mv	a3,s2
   20012:	0830                	addi	a2,sp,24
   20014:	85da                	mv	a1,s6
   20016:	8566                	mv	a0,s9
   20018:	929ff0ef          	jal	ra,1f940 <printk_pad_zero>
E:\02-项目\13-RISCV实验箱\模块驱动\19-LCD_ST7796U\AHL-CH32V307-LCD_ST7796U\Debug/srcc/printf.c:598
				vlen = field_width;
   2001c:	8cda                	mv	s9,s6
   2001e:	a031                	j	2002a <printk+0x4a2>
E:\02-项目\13-RISCV实验箱\模块驱动\19-LCD_ST7796U\AHL-CH32V307-LCD_ST7796U\Debug/srcc/printf.c:606
				}
			}

			cont_xd: while (*vstrp)
				printk_putc(*vstrp--, &count, info);
   20020:	1c7d                	addi	s8,s8,-1
   20022:	864a                	mv	a2,s2
   20024:	082c                	addi	a1,sp,24
   20026:	85fff0ef          	jal	ra,1f884 <printk_putc>
E:\02-项目\13-RISCV实验箱\模块驱动\19-LCD_ST7796U\AHL-CH32V307-LCD_ST7796U\Debug/srcc/printf.c:605 (discriminator 1)
			cont_xd: while (*vstrp)
   2002a:	000c0503          	lb	a0,0(s8)
   2002e:	f96d                	bnez	a0,20020 <printk+0x498>
E:\02-项目\13-RISCV实验箱\模块驱动\19-LCD_ST7796U\AHL-CH32V307-LCD_ST7796U\Debug/srcc/printf.c:608

			if (IS_FLAG_MINUS(flags_used)) {
   20030:	8885                	andi	s1,s1,1
   20032:	ba0487e3          	beqz	s1,1fbe0 <printk+0x58>
E:\02-项目\13-RISCV实验箱\模块驱动\19-LCD_ST7796U\AHL-CH32V307-LCD_ST7796U\Debug/srcc/printf.c:609
				printk_pad_space(vlen, field_width, &count, info);
   20036:	86ca                	mv	a3,s2
   20038:	0830                	addi	a2,sp,24
   2003a:	85da                	mv	a1,s6
   2003c:	8566                	mv	a0,s9
   2003e:	939ff0ef          	jal	ra,1f976 <printk_pad_space>
   20042:	be79                	j	1fbe0 <printk+0x58>
E:\02-项目\13-RISCV实验箱\模块驱动\19-LCD_ST7796U\AHL-CH32V307-LCD_ST7796U\Debug/srcc/printf.c:615
			}

			break;
        //字符型输出
		case 'c':
			cval = (char) va_arg1(ap, unsigned int);
   20044:	00498493          	addi	s1,s3,4
E:\02-项目\13-RISCV实验箱\模块驱动\19-LCD_ST7796U\AHL-CH32V307-LCD_ST7796U\Debug/srcc/printf.c:616
			printk_putc(cval, &count, info);
   20048:	864a                	mv	a2,s2
   2004a:	082c                	addi	a1,sp,24
   2004c:	00098503          	lb	a0,0(s3)
   20050:	835ff0ef          	jal	ra,1f884 <printk_putc>
E:\02-项目\13-RISCV实验箱\模块驱动\19-LCD_ST7796U\AHL-CH32V307-LCD_ST7796U\Debug/srcc/printf.c:615
			cval = (char) va_arg1(ap, unsigned int);
   20054:	89a6                	mv	s3,s1
E:\02-项目\13-RISCV实验箱\模块驱动\19-LCD_ST7796U\AHL-CH32V307-LCD_ST7796U\Debug/srcc/printf.c:617
			break;
   20056:	b669                	j	1fbe0 <printk+0x58>
E:\02-项目\13-RISCV实验箱\模块驱动\19-LCD_ST7796U\AHL-CH32V307-LCD_ST7796U\Debug/srcc/printf.c:619
		case 's':
			sval = (char *) va_arg1(ap, char *);
   20058:	00498b93          	addi	s7,s3,4
   2005c:	0009a983          	lw	s3,0(s3)
E:\02-项目\13-RISCV实验箱\模块驱动\19-LCD_ST7796U\AHL-CH32V307-LCD_ST7796U\Debug/srcc/printf.c:620
			if (sval) {
   20060:	06098a63          	beqz	s3,200d4 <printk+0x54c>
E:\02-项目\13-RISCV实验箱\模块驱动\19-LCD_ST7796U\AHL-CH32V307-LCD_ST7796U\Debug/srcc/printf.c:621
				vlen = strlen(sval);
   20064:	854e                	mv	a0,s3
   20066:	7a6010ef          	jal	ra,2180c <strlen>
   2006a:	8caa                	mv	s9,a0
E:\02-项目\13-RISCV实验箱\模块驱动\19-LCD_ST7796U\AHL-CH32V307-LCD_ST7796U\Debug/srcc/printf.c:622
				if (!IS_FLAG_MINUS(flags_used)) {
   2006c:	8885                	andi	s1,s1,1
   2006e:	cc99                	beqz	s1,2008c <printk+0x504>
E:\02-项目\13-RISCV实验箱\模块驱动\19-LCD_ST7796U\AHL-CH32V307-LCD_ST7796U\Debug/srcc/printf.c:625
					printk_pad_space(vlen, field_width, &count, info);
				}
				if(precision_width!=0)
   20070:	020c0963          	beqz	s8,200a2 <printk+0x51a>
E:\02-项目\13-RISCV实验箱\模块驱动\19-LCD_ST7796U\AHL-CH32V307-LCD_ST7796U\Debug/srcc/printf.c:627
				{
					while (*sval)
   20074:	00098503          	lb	a0,0(s3)
   20078:	c905                	beqz	a0,200a8 <printk+0x520>
E:\02-项目\13-RISCV实验箱\模块驱动\19-LCD_ST7796U\AHL-CH32V307-LCD_ST7796U\Debug/srcc/printf.c:629
					{
						if(precision_width>=1)
   2007a:	ff805de3          	blez	s8,20074 <printk+0x4ec>
E:\02-项目\13-RISCV实验箱\模块驱动\19-LCD_ST7796U\AHL-CH32V307-LCD_ST7796U\Debug/srcc/printf.c:631
						{
							precision_width--;
   2007e:	1c7d                	addi	s8,s8,-1
E:\02-项目\13-RISCV实验箱\模块驱动\19-LCD_ST7796U\AHL-CH32V307-LCD_ST7796U\Debug/srcc/printf.c:632
							printk_putc(*sval++, &count, info);
   20080:	0985                	addi	s3,s3,1
   20082:	864a                	mv	a2,s2
   20084:	082c                	addi	a1,sp,24
   20086:	ffeff0ef          	jal	ra,1f884 <printk_putc>
   2008a:	b7ed                	j	20074 <printk+0x4ec>
E:\02-项目\13-RISCV实验箱\模块驱动\19-LCD_ST7796U\AHL-CH32V307-LCD_ST7796U\Debug/srcc/printf.c:623
					printk_pad_space(vlen, field_width, &count, info);
   2008c:	86ca                	mv	a3,s2
   2008e:	0830                	addi	a2,sp,24
   20090:	85da                	mv	a1,s6
   20092:	8e5ff0ef          	jal	ra,1f976 <printk_pad_space>
   20096:	bfe9                	j	20070 <printk+0x4e8>
E:\02-项目\13-RISCV实验箱\模块驱动\19-LCD_ST7796U\AHL-CH32V307-LCD_ST7796U\Debug/srcc/printf.c:639
					}
				}
				else    //precision_width=0情况
				{
					while (*sval)
					   printk_putc(*sval++, &count, info);
   20098:	0985                	addi	s3,s3,1
   2009a:	864a                	mv	a2,s2
   2009c:	082c                	addi	a1,sp,24
   2009e:	fe6ff0ef          	jal	ra,1f884 <printk_putc>
E:\02-项目\13-RISCV实验箱\模块驱动\19-LCD_ST7796U\AHL-CH32V307-LCD_ST7796U\Debug/srcc/printf.c:638
					while (*sval)
   200a2:	00098503          	lb	a0,0(s3)
   200a6:	f96d                	bnez	a0,20098 <printk+0x510>
E:\02-项目\13-RISCV实验箱\模块驱动\19-LCD_ST7796U\AHL-CH32V307-LCD_ST7796U\Debug/srcc/printf.c:641
				}
				if (IS_FLAG_MINUS(flags_used)) {
   200a8:	e099                	bnez	s1,200ae <printk+0x526>
E:\02-项目\13-RISCV实验箱\模块驱动\19-LCD_ST7796U\AHL-CH32V307-LCD_ST7796U\Debug/srcc/printf.c:619
			sval = (char *) va_arg1(ap, char *);
   200aa:	89de                	mv	s3,s7
   200ac:	be15                	j	1fbe0 <printk+0x58>
E:\02-项目\13-RISCV实验箱\模块驱动\19-LCD_ST7796U\AHL-CH32V307-LCD_ST7796U\Debug/srcc/printf.c:642
					printk_pad_space(vlen, field_width, &count, info);
   200ae:	86ca                	mv	a3,s2
   200b0:	0830                	addi	a2,sp,24
   200b2:	85da                	mv	a1,s6
   200b4:	8566                	mv	a0,s9
   200b6:	8c1ff0ef          	jal	ra,1f976 <printk_pad_space>
E:\02-项目\13-RISCV实验箱\模块驱动\19-LCD_ST7796U\AHL-CH32V307-LCD_ST7796U\Debug/srcc/printf.c:619
			sval = (char *) va_arg1(ap, char *);
   200ba:	89de                	mv	s3,s7
   200bc:	b615                	j	1fbe0 <printk+0x58>
E:\02-项目\13-RISCV实验箱\模块驱动\19-LCD_ST7796U\AHL-CH32V307-LCD_ST7796U\Debug/srcc/printf.c:647
				}
			}
			break;
		case 'n':
			ivalp = (int *) va_arg1(ap, int *);
   200be:	0009a783          	lw	a5,0(s3)
E:\02-项目\13-RISCV实验箱\模块驱动\19-LCD_ST7796U\AHL-CH32V307-LCD_ST7796U\Debug/srcc/printf.c:648
			*ivalp = count;
   200c2:	4762                	lw	a4,24(sp)
   200c4:	c398                	sw	a4,0(a5)
E:\02-项目\13-RISCV实验箱\模块驱动\19-LCD_ST7796U\AHL-CH32V307-LCD_ST7796U\Debug/srcc/printf.c:647
			ivalp = (int *) va_arg1(ap, int *);
   200c6:	0991                	addi	s3,s3,4
E:\02-项目\13-RISCV实验箱\模块驱动\19-LCD_ST7796U\AHL-CH32V307-LCD_ST7796U\Debug/srcc/printf.c:649
			break;
   200c8:	be21                	j	1fbe0 <printk+0x58>
E:\02-项目\13-RISCV实验箱\模块驱动\19-LCD_ST7796U\AHL-CH32V307-LCD_ST7796U\Debug/srcc/printf.c:652

		default:
			printk_putc(c, &count, info);
   200ca:	864a                	mv	a2,s2
   200cc:	082c                	addi	a1,sp,24
   200ce:	fb6ff0ef          	jal	ra,1f884 <printk_putc>
E:\02-项目\13-RISCV实验箱\模块驱动\19-LCD_ST7796U\AHL-CH32V307-LCD_ST7796U\Debug/srcc/printf.c:653
			break;
   200d2:	b639                	j	1fbe0 <printk+0x58>
E:\02-项目\13-RISCV实验箱\模块驱动\19-LCD_ST7796U\AHL-CH32V307-LCD_ST7796U\Debug/srcc/printf.c:619
			sval = (char *) va_arg1(ap, char *);
   200d4:	89de                	mv	s3,s7
   200d6:	b629                	j	1fbe0 <printk+0x58>
E:\02-项目\13-RISCV实验箱\模块驱动\19-LCD_ST7796U\AHL-CH32V307-LCD_ST7796U\Debug/srcc/printf.c:657
		}
	}
	return count;
}
   200d8:	4562                	lw	a0,24(sp)
   200da:	50b6                	lw	ra,108(sp)
   200dc:	5426                	lw	s0,104(sp)
   200de:	5496                	lw	s1,100(sp)
   200e0:	5906                	lw	s2,96(sp)
   200e2:	49f6                	lw	s3,92(sp)
   200e4:	4a66                	lw	s4,88(sp)
   200e6:	4ad6                	lw	s5,84(sp)
   200e8:	4b46                	lw	s6,80(sp)
   200ea:	4bb6                	lw	s7,76(sp)
   200ec:	4c26                	lw	s8,72(sp)
   200ee:	4c96                	lw	s9,68(sp)
   200f0:	4d06                	lw	s10,64(sp)
   200f2:	6165                	addi	sp,sp,112
   200f4:	8082                	ret

000200f6 <myprintf>:
myprintf():
E:\02-项目\13-RISCV实验箱\模块驱动\19-LCD_ST7796U\AHL-CH32V307-LCD_ST7796U\Debug/srcc/printf.c:666
//参数说明：const char *:打印参数字符串：对输入的字符串进行解析并按格式输出
//       例如： printf("c=%c\n",c); 将c按char型进行输出
//函数返回：字符串长度
//======================================================================
int myprintf(const char *fmt, ...)
{
   200f6:	7139                	addi	sp,sp,-64
   200f8:	ce06                	sw	ra,28(sp)
   200fa:	d22e                	sw	a1,36(sp)
   200fc:	d432                	sw	a2,40(sp)
   200fe:	d636                	sw	a3,44(sp)
   20100:	d83a                	sw	a4,48(sp)
   20102:	da3e                	sw	a5,52(sp)
   20104:	dc42                	sw	a6,56(sp)
   20106:	de46                	sw	a7,60(sp)
E:\02-项目\13-RISCV实验箱\模块驱动\19-LCD_ST7796U\AHL-CH32V307-LCD_ST7796U\Debug/srcc/printf.c:671
//	char * ap;
	va_list ap;
	int rvalue;
	PRINTK_INFO info;
	info.dest = DEST_CONSOLE;  //宏定义为1
   20108:	4785                	li	a5,1
   2010a:	c03e                	sw	a5,0(sp)
E:\02-项目\13-RISCV实验箱\模块驱动\19-LCD_ST7796U\AHL-CH32V307-LCD_ST7796U\Debug/srcc/printf.c:672
	info.func = &out_char;     //调用的串口输出函数
   2010c:	000207b7          	lui	a5,0x20
   20110:	9ac78793          	addi	a5,a5,-1620 # 1f9ac <out_char>
   20114:	c23e                	sw	a5,4(sp)
E:\02-项目\13-RISCV实验箱\模块驱动\19-LCD_ST7796U\AHL-CH32V307-LCD_ST7796U\Debug/srcc/printf.c:673
	va_start(ap, fmt);  //对ap 进行初始化，让它指向可变参数表里面的第一个参数
   20116:	1050                	addi	a2,sp,36
   20118:	c632                	sw	a2,12(sp)
E:\02-项目\13-RISCV实验箱\模块驱动\19-LCD_ST7796U\AHL-CH32V307-LCD_ST7796U\Debug/srcc/printf.c:674
	rvalue = printk(&info, fmt, ap);
   2011a:	85aa                	mv	a1,a0
   2011c:	850a                	mv	a0,sp
   2011e:	a6bff0ef          	jal	ra,1fb88 <printk>
E:\02-项目\13-RISCV实验箱\模块驱动\19-LCD_ST7796U\AHL-CH32V307-LCD_ST7796U\Debug/srcc/printf.c:679

	va_end(ap);

	return rvalue;
}
   20122:	40f2                	lw	ra,28(sp)
   20124:	6121                	addi	sp,sp,64
   20126:	8082                	ret

00020128 <handle_reset>:
handle_reset():
E:\02-项目\13-RISCV实验箱\模块驱动\19-LCD_ST7796U\AHL-CH32V307-LCD_ST7796U\Debug/srcs/startup_ch32v30x.S:242
	.weak	handle_reset
	.align	1
handle_reset:
.option push 
.option	norelax 
    csrw mepc, t0
   20128:	34129073          	csrw	mepc,t0
E:\02-项目\13-RISCV实验箱\模块驱动\19-LCD_ST7796U\AHL-CH32V307-LCD_ST7796U\Debug/srcs/startup_ch32v30x.S:246
	#la gp, __global_pointer$
.option	pop 
1:
	la sp, _eusrstack
   2012c:	20000117          	auipc	sp,0x20000
   20130:	ed410113          	addi	sp,sp,-300 # 20020000 <GEC_USER_RAM_END>
E:\02-项目\13-RISCV实验箱\模块驱动\19-LCD_ST7796U\AHL-CH32V307-LCD_ST7796U\Debug/srcs/startup_ch32v30x.S:250
2:
	/* 【固定】将data段数据复制到RAM中 */
	/* data段存放有初值的全局变量和静态变量 */
	la a0, _data_lma
   20134:	00002517          	auipc	a0,0x2
   20138:	42450513          	addi	a0,a0,1060 # 22558 <_data_lma>
E:\02-项目\13-RISCV实验箱\模块驱动\19-LCD_ST7796U\AHL-CH32V307-LCD_ST7796U\Debug/srcs/startup_ch32v30x.S:251
	la a1, _data_vma
   2013c:	1ffe5597          	auipc	a1,0x1ffe5
   20140:	ec458593          	addi	a1,a1,-316 # 20005000 <GEC_USER_RAM_START>
E:\02-项目\13-RISCV实验箱\模块驱动\19-LCD_ST7796U\AHL-CH32V307-LCD_ST7796U\Debug/srcs/startup_ch32v30x.S:252
	la a2, _edata
   20144:	1ffe5617          	auipc	a2,0x1ffe5
   20148:	f4460613          	addi	a2,a2,-188 # 20005088 <_edata>
E:\02-项目\13-RISCV实验箱\模块驱动\19-LCD_ST7796U\AHL-CH32V307-LCD_ST7796U\Debug/srcs/startup_ch32v30x.S:253
	bgeu a1, a2, 2f
   2014c:	00c5fa63          	bgeu	a1,a2,20160 <handle_reset+0x38>
E:\02-项目\13-RISCV实验箱\模块驱动\19-LCD_ST7796U\AHL-CH32V307-LCD_ST7796U\Debug/srcs/startup_ch32v30x.S:255
1:
	lw t0, (a0)
   20150:	00052283          	lw	t0,0(a0)
E:\02-项目\13-RISCV实验箱\模块驱动\19-LCD_ST7796U\AHL-CH32V307-LCD_ST7796U\Debug/srcs/startup_ch32v30x.S:256
	sw t0, (a1)
   20154:	0055a023          	sw	t0,0(a1)
E:\02-项目\13-RISCV实验箱\模块驱动\19-LCD_ST7796U\AHL-CH32V307-LCD_ST7796U\Debug/srcs/startup_ch32v30x.S:257
	addi a0, a0, 4
   20158:	0511                	addi	a0,a0,4
E:\02-项目\13-RISCV实验箱\模块驱动\19-LCD_ST7796U\AHL-CH32V307-LCD_ST7796U\Debug/srcs/startup_ch32v30x.S:258
	addi a1, a1, 4
   2015a:	0591                	addi	a1,a1,4
E:\02-项目\13-RISCV实验箱\模块驱动\19-LCD_ST7796U\AHL-CH32V307-LCD_ST7796U\Debug/srcs/startup_ch32v30x.S:259
	bltu a1, a2, 1b
   2015c:	fec5eae3          	bltu	a1,a2,20150 <handle_reset+0x28>
E:\02-项目\13-RISCV实验箱\模块驱动\19-LCD_ST7796U\AHL-CH32V307-LCD_ST7796U\Debug/srcs/startup_ch32v30x.S:263
2:
	/* 【固定】将BSS段数据清零 */
	/* BSS段存放有未初始化的全局变量 */
	la a0, _sbss
   20160:	1ffe5517          	auipc	a0,0x1ffe5
   20164:	f2850513          	addi	a0,a0,-216 # 20005088 <_edata>
E:\02-项目\13-RISCV实验箱\模块驱动\19-LCD_ST7796U\AHL-CH32V307-LCD_ST7796U\Debug/srcs/startup_ch32v30x.S:264
	la a1, _ebss
   20168:	1ffe8597          	auipc	a1,0x1ffe8
   2016c:	81458593          	addi	a1,a1,-2028 # 2000797c <_ebss>
E:\02-项目\13-RISCV实验箱\模块驱动\19-LCD_ST7796U\AHL-CH32V307-LCD_ST7796U\Debug/srcs/startup_ch32v30x.S:265
	bgeu a0, a1, 2f
   20170:	00b57763          	bgeu	a0,a1,2017e <handle_reset+0x56>
E:\02-项目\13-RISCV实验箱\模块驱动\19-LCD_ST7796U\AHL-CH32V307-LCD_ST7796U\Debug/srcs/startup_ch32v30x.S:267
1:
	sw zero, (a0)
   20174:	00052023          	sw	zero,0(a0)
E:\02-项目\13-RISCV实验箱\模块驱动\19-LCD_ST7796U\AHL-CH32V307-LCD_ST7796U\Debug/srcs/startup_ch32v30x.S:268
	addi a0, a0, 4
   20178:	0511                	addi	a0,a0,4
E:\02-项目\13-RISCV实验箱\模块驱动\19-LCD_ST7796U\AHL-CH32V307-LCD_ST7796U\Debug/srcs/startup_ch32v30x.S:269
	bltu a0, a1, 1b
   2017a:	feb56de3          	bltu	a0,a1,20174 <handle_reset+0x4c>
E:\02-项目\13-RISCV实验箱\模块驱动\19-LCD_ST7796U\AHL-CH32V307-LCD_ST7796U\Debug/srcs/startup_ch32v30x.S:272
2:
	/* 【固定】将芯片运行模式设置机器模式 */
   	li t0, 0x7888				
   2017e:	000082b7          	lui	t0,0x8
   20182:	88828293          	addi	t0,t0,-1912 # 7888 <__stack_size+0x7088>
E:\02-项目\13-RISCV实验箱\模块驱动\19-LCD_ST7796U\AHL-CH32V307-LCD_ST7796U\Debug/srcs/startup_ch32v30x.S:273
   	csrs mstatus, t0
   20186:	3002a073          	csrs	mstatus,t0
E:\02-项目\13-RISCV实验箱\模块驱动\19-LCD_ST7796U\AHL-CH32V307-LCD_ST7796U\Debug/srcs/startup_ch32v30x.S:275
   	
   	jal  SystemInit
   2018a:	91bfd0ef          	jal	ra,1daa4 <SystemInit>
E:\02-项目\13-RISCV实验箱\模块驱动\19-LCD_ST7796U\AHL-CH32V307-LCD_ST7796U\Debug/srcs/startup_ch32v30x.S:279

	/* 【固定】中断继承，.s文件仅修改此处 */
	/* 将中断向量表基址赋值给机器模式异常入口基地址寄存器 */
    jal  Vectors_Init			
   2018e:	81bfe0ef          	jal	ra,1e9a8 <Vectors_Init>
E:\02-项目\13-RISCV实验箱\模块驱动\19-LCD_ST7796U\AHL-CH32V307-LCD_ST7796U\Debug/srcs/startup_ch32v30x.S:280
 	la t0, _vector_base
   20192:	ffffc297          	auipc	t0,0xffffc
   20196:	2a628293          	addi	t0,t0,678 # 1c438 <_einit>
E:\02-项目\13-RISCV实验箱\模块驱动\19-LCD_ST7796U\AHL-CH32V307-LCD_ST7796U\Debug/srcs/startup_ch32v30x.S:281
    ori t0, t0, 3
   2019a:	0032e293          	ori	t0,t0,3
E:\02-项目\13-RISCV实验箱\模块驱动\19-LCD_ST7796U\AHL-CH32V307-LCD_ST7796U\Debug/srcs/startup_ch32v30x.S:282
	csrw mtvec, t0				
   2019e:	30529073          	csrw	mtvec,t0
E:\02-项目\13-RISCV实验箱\模块驱动\19-LCD_ST7796U\AHL-CH32V307-LCD_ST7796U\Debug/srcs/startup_ch32v30x.S:285

    /*jal  SystemInit*/
	la t0, main
   201a2:	ffffd297          	auipc	t0,0xffffd
   201a6:	71c28293          	addi	t0,t0,1820 # 1d8be <main>
E:\02-项目\13-RISCV实验箱\模块驱动\19-LCD_ST7796U\AHL-CH32V307-LCD_ST7796U\Debug/srcs/startup_ch32v30x.S:286
	csrw mepc, t0
   201aa:	34129073          	csrw	mepc,t0
E:\02-项目\13-RISCV实验箱\模块驱动\19-LCD_ST7796U\AHL-CH32V307-LCD_ST7796U\Debug/srcs/startup_ch32v30x.S:287
	mret
   201ae:	30200073          	mret

000201b2 <__udivdi3>:
__udivdi3():
   201b2:	87b6                	mv	a5,a3
   201b4:	88b2                	mv	a7,a2
   201b6:	832a                	mv	t1,a0
   201b8:	882e                	mv	a6,a1
   201ba:	14069d63          	bnez	a3,20314 <__udivdi3+0x162>
   201be:	0ac5f963          	bgeu	a1,a2,20270 <__udivdi3+0xbe>
   201c2:	6741                	lui	a4,0x10
   201c4:	1ae66e63          	bltu	a2,a4,20380 <__udivdi3+0x1ce>
   201c8:	010007b7          	lui	a5,0x1000
   201cc:	34f66363          	bltu	a2,a5,20512 <__udivdi3+0x360>
   201d0:	01865693          	srli	a3,a2,0x18
   201d4:	47e1                	li	a5,24
   201d6:	00002717          	auipc	a4,0x2
   201da:	28270713          	addi	a4,a4,642 # 22458 <__clz_tab>
   201de:	9736                	add	a4,a4,a3
   201e0:	00074703          	lbu	a4,0(a4)
   201e4:	97ba                	add	a5,a5,a4
   201e6:	02000713          	li	a4,32
   201ea:	8f1d                	sub	a4,a4,a5
   201ec:	cb19                	beqz	a4,20202 <__udivdi3+0x50>
   201ee:	00e59833          	sll	a6,a1,a4
   201f2:	00f557b3          	srl	a5,a0,a5
   201f6:	00e618b3          	sll	a7,a2,a4
   201fa:	0107e833          	or	a6,a5,a6
   201fe:	00e51333          	sll	t1,a0,a4
   20202:	0108d613          	srli	a2,a7,0x10
   20206:	02c85533          	divu	a0,a6,a2
   2020a:	01089693          	slli	a3,a7,0x10
   2020e:	82c1                	srli	a3,a3,0x10
   20210:	01035793          	srli	a5,t1,0x10
   20214:	02c87733          	remu	a4,a6,a2
   20218:	02a685b3          	mul	a1,a3,a0
   2021c:	0742                	slli	a4,a4,0x10
   2021e:	00f76833          	or	a6,a4,a5
   20222:	00b87a63          	bgeu	a6,a1,20236 <__udivdi3+0x84>
   20226:	9846                	add	a6,a6,a7
   20228:	fff50793          	addi	a5,a0,-1
   2022c:	01186463          	bltu	a6,a7,20234 <__udivdi3+0x82>
   20230:	30b86763          	bltu	a6,a1,2053e <__udivdi3+0x38c>
   20234:	853e                	mv	a0,a5
   20236:	40b80833          	sub	a6,a6,a1
   2023a:	02c85733          	divu	a4,a6,a2
   2023e:	0342                	slli	t1,t1,0x10
   20240:	01035313          	srli	t1,t1,0x10
   20244:	02c87833          	remu	a6,a6,a2
   20248:	02e686b3          	mul	a3,a3,a4
   2024c:	0842                	slli	a6,a6,0x10
   2024e:	00686833          	or	a6,a6,t1
   20252:	00d87b63          	bgeu	a6,a3,20268 <__udivdi3+0xb6>
   20256:	9846                	add	a6,a6,a7
   20258:	fff70793          	addi	a5,a4,-1
   2025c:	01186563          	bltu	a6,a7,20266 <__udivdi3+0xb4>
   20260:	1779                	addi	a4,a4,-2
   20262:	00d86363          	bltu	a6,a3,20268 <__udivdi3+0xb6>
   20266:	873e                	mv	a4,a5
   20268:	0542                	slli	a0,a0,0x10
   2026a:	8d59                	or	a0,a0,a4
   2026c:	4581                	li	a1,0
   2026e:	8082                	ret
   20270:	e601                	bnez	a2,20278 <__udivdi3+0xc6>
   20272:	4705                	li	a4,1
   20274:	02c758b3          	divu	a7,a4,a2
   20278:	6741                	lui	a4,0x10
   2027a:	0ee8ea63          	bltu	a7,a4,2036e <__udivdi3+0x1bc>
   2027e:	010007b7          	lui	a5,0x1000
   20282:	28f8ec63          	bltu	a7,a5,2051a <__udivdi3+0x368>
   20286:	0188d693          	srli	a3,a7,0x18
   2028a:	47e1                	li	a5,24
   2028c:	00002717          	auipc	a4,0x2
   20290:	1cc70713          	addi	a4,a4,460 # 22458 <__clz_tab>
   20294:	9736                	add	a4,a4,a3
   20296:	00074683          	lbu	a3,0(a4)
   2029a:	96be                	add	a3,a3,a5
   2029c:	02000793          	li	a5,32
   202a0:	8f95                	sub	a5,a5,a3
   202a2:	ebe5                	bnez	a5,20392 <__udivdi3+0x1e0>
   202a4:	01089e93          	slli	t4,a7,0x10
   202a8:	41158733          	sub	a4,a1,a7
   202ac:	0108df13          	srli	t5,a7,0x10
   202b0:	010ede93          	srli	t4,t4,0x10
   202b4:	4585                	li	a1,1
   202b6:	01035793          	srli	a5,t1,0x10
   202ba:	03e75533          	divu	a0,a4,t5
   202be:	03e77733          	remu	a4,a4,t5
   202c2:	03d506b3          	mul	a3,a0,t4
   202c6:	0742                	slli	a4,a4,0x10
   202c8:	8fd9                	or	a5,a5,a4
   202ca:	00d7fa63          	bgeu	a5,a3,202de <__udivdi3+0x12c>
   202ce:	97c6                	add	a5,a5,a7
   202d0:	fff50713          	addi	a4,a0,-1
   202d4:	0117e463          	bltu	a5,a7,202dc <__udivdi3+0x12a>
   202d8:	26d7e663          	bltu	a5,a3,20544 <__udivdi3+0x392>
   202dc:	853a                	mv	a0,a4
   202de:	8f95                	sub	a5,a5,a3
   202e0:	03e7d733          	divu	a4,a5,t5
   202e4:	0342                	slli	t1,t1,0x10
   202e6:	01035313          	srli	t1,t1,0x10
   202ea:	03e7f7b3          	remu	a5,a5,t5
   202ee:	03d70eb3          	mul	t4,a4,t4
   202f2:	07c2                	slli	a5,a5,0x10
   202f4:	0067e7b3          	or	a5,a5,t1
   202f8:	01d7fb63          	bgeu	a5,t4,2030e <__udivdi3+0x15c>
   202fc:	97c6                	add	a5,a5,a7
   202fe:	fff70693          	addi	a3,a4,-1
   20302:	0117e563          	bltu	a5,a7,2030c <__udivdi3+0x15a>
   20306:	1779                	addi	a4,a4,-2
   20308:	01d7e363          	bltu	a5,t4,2030e <__udivdi3+0x15c>
   2030c:	8736                	mv	a4,a3
   2030e:	0542                	slli	a0,a0,0x10
   20310:	8d59                	or	a0,a0,a4
   20312:	8082                	ret
   20314:	04d5e263          	bltu	a1,a3,20358 <__udivdi3+0x1a6>
   20318:	67c1                	lui	a5,0x10
   2031a:	04f6e263          	bltu	a3,a5,2035e <__udivdi3+0x1ac>
   2031e:	010007b7          	lui	a5,0x1000
   20322:	1ef6e463          	bltu	a3,a5,2050a <__udivdi3+0x358>
   20326:	0186d713          	srli	a4,a3,0x18
   2032a:	4861                	li	a6,24
   2032c:	00002797          	auipc	a5,0x2
   20330:	12c78793          	addi	a5,a5,300 # 22458 <__clz_tab>
   20334:	97ba                	add	a5,a5,a4
   20336:	0007c703          	lbu	a4,0(a5)
   2033a:	02000e13          	li	t3,32
   2033e:	9742                	add	a4,a4,a6
   20340:	40ee0e33          	sub	t3,t3,a4
   20344:	0c0e1a63          	bnez	t3,20418 <__udivdi3+0x266>
   20348:	1cb6ed63          	bltu	a3,a1,20522 <__udivdi3+0x370>
   2034c:	00c53533          	sltu	a0,a0,a2
   20350:	00154513          	xori	a0,a0,1
   20354:	4581                	li	a1,0
   20356:	8082                	ret
   20358:	4581                	li	a1,0
   2035a:	4501                	li	a0,0
   2035c:	8082                	ret
   2035e:	0ff00793          	li	a5,255
   20362:	1cd7f363          	bgeu	a5,a3,20528 <__udivdi3+0x376>
   20366:	0086d713          	srli	a4,a3,0x8
   2036a:	4821                	li	a6,8
   2036c:	b7c1                	j	2032c <__udivdi3+0x17a>
   2036e:	0ff00713          	li	a4,255
   20372:	86c6                	mv	a3,a7
   20374:	f1177ce3          	bgeu	a4,a7,2028c <__udivdi3+0xda>
   20378:	0088d693          	srli	a3,a7,0x8
   2037c:	47a1                	li	a5,8
   2037e:	b739                	j	2028c <__udivdi3+0xda>
   20380:	0ff00713          	li	a4,255
   20384:	86b2                	mv	a3,a2
   20386:	e4c778e3          	bgeu	a4,a2,201d6 <__udivdi3+0x24>
   2038a:	00865693          	srli	a3,a2,0x8
   2038e:	47a1                	li	a5,8
   20390:	b599                	j	201d6 <__udivdi3+0x24>
   20392:	00f898b3          	sll	a7,a7,a5
   20396:	00d5d633          	srl	a2,a1,a3
   2039a:	0108df13          	srli	t5,a7,0x10
   2039e:	03e65e33          	divu	t3,a2,t5
   203a2:	00f59733          	sll	a4,a1,a5
   203a6:	00d556b3          	srl	a3,a0,a3
   203aa:	8f55                	or	a4,a4,a3
   203ac:	01089e93          	slli	t4,a7,0x10
   203b0:	010ede93          	srli	t4,t4,0x10
   203b4:	00f51333          	sll	t1,a0,a5
   203b8:	01075593          	srli	a1,a4,0x10
   203bc:	03e676b3          	remu	a3,a2,t5
   203c0:	03ce87b3          	mul	a5,t4,t3
   203c4:	06c2                	slli	a3,a3,0x10
   203c6:	8ecd                	or	a3,a3,a1
   203c8:	00f6fb63          	bgeu	a3,a5,203de <__udivdi3+0x22c>
   203cc:	96c6                	add	a3,a3,a7
   203ce:	fffe0613          	addi	a2,t3,-1
   203d2:	1716e463          	bltu	a3,a7,2053a <__udivdi3+0x388>
   203d6:	16f6f263          	bgeu	a3,a5,2053a <__udivdi3+0x388>
   203da:	1e79                	addi	t3,t3,-2
   203dc:	96c6                	add	a3,a3,a7
   203de:	8e9d                	sub	a3,a3,a5
   203e0:	03e6d633          	divu	a2,a3,t5
   203e4:	01071793          	slli	a5,a4,0x10
   203e8:	83c1                	srli	a5,a5,0x10
   203ea:	03e6f6b3          	remu	a3,a3,t5
   203ee:	02ce8533          	mul	a0,t4,a2
   203f2:	01069713          	slli	a4,a3,0x10
   203f6:	8f5d                	or	a4,a4,a5
   203f8:	00a77b63          	bgeu	a4,a0,2040e <__udivdi3+0x25c>
   203fc:	9746                	add	a4,a4,a7
   203fe:	fff60793          	addi	a5,a2,-1
   20402:	13176863          	bltu	a4,a7,20532 <__udivdi3+0x380>
   20406:	12a77663          	bgeu	a4,a0,20532 <__udivdi3+0x380>
   2040a:	1679                	addi	a2,a2,-2
   2040c:	9746                	add	a4,a4,a7
   2040e:	010e1593          	slli	a1,t3,0x10
   20412:	8f09                	sub	a4,a4,a0
   20414:	8dd1                	or	a1,a1,a2
   20416:	b545                	j	202b6 <__udivdi3+0x104>
   20418:	00e657b3          	srl	a5,a2,a4
   2041c:	01c696b3          	sll	a3,a3,t3
   20420:	8edd                	or	a3,a3,a5
   20422:	00e5d333          	srl	t1,a1,a4
   20426:	0106df13          	srli	t5,a3,0x10
   2042a:	03e357b3          	divu	a5,t1,t5
   2042e:	01069e93          	slli	t4,a3,0x10
   20432:	010ede93          	srli	t4,t4,0x10
   20436:	01c59833          	sll	a6,a1,t3
   2043a:	00e55733          	srl	a4,a0,a4
   2043e:	01076833          	or	a6,a4,a6
   20442:	01085893          	srli	a7,a6,0x10
   20446:	01c61633          	sll	a2,a2,t3
   2044a:	03e37333          	remu	t1,t1,t5
   2044e:	02fe85b3          	mul	a1,t4,a5
   20452:	0342                	slli	t1,t1,0x10
   20454:	011368b3          	or	a7,t1,a7
   20458:	00b8fb63          	bgeu	a7,a1,2046e <__udivdi3+0x2bc>
   2045c:	98b6                	add	a7,a7,a3
   2045e:	fff78713          	addi	a4,a5,-1
   20462:	0cd8ea63          	bltu	a7,a3,20536 <__udivdi3+0x384>
   20466:	0cb8f863          	bgeu	a7,a1,20536 <__udivdi3+0x384>
   2046a:	17f9                	addi	a5,a5,-2
   2046c:	98b6                	add	a7,a7,a3
   2046e:	40b888b3          	sub	a7,a7,a1
   20472:	03e8d733          	divu	a4,a7,t5
   20476:	0842                	slli	a6,a6,0x10
   20478:	01085813          	srli	a6,a6,0x10
   2047c:	03e8f8b3          	remu	a7,a7,t5
   20480:	02ee8333          	mul	t1,t4,a4
   20484:	08c2                	slli	a7,a7,0x10
   20486:	0108e5b3          	or	a1,a7,a6
   2048a:	0065fb63          	bgeu	a1,t1,204a0 <__udivdi3+0x2ee>
   2048e:	95b6                	add	a1,a1,a3
   20490:	fff70813          	addi	a6,a4,-1
   20494:	08d5ed63          	bltu	a1,a3,2052e <__udivdi3+0x37c>
   20498:	0865fb63          	bgeu	a1,t1,2052e <__udivdi3+0x37c>
   2049c:	1779                	addi	a4,a4,-2
   2049e:	95b6                	add	a1,a1,a3
   204a0:	07c2                	slli	a5,a5,0x10
   204a2:	6f41                	lui	t5,0x10
   204a4:	8fd9                	or	a5,a5,a4
   204a6:	ffff0713          	addi	a4,t5,-1 # ffff <__stack_size+0xf7ff>
   204aa:	00e7f6b3          	and	a3,a5,a4
   204ae:	0107d893          	srli	a7,a5,0x10
   204b2:	8f71                	and	a4,a4,a2
   204b4:	8241                	srli	a2,a2,0x10
   204b6:	02e68eb3          	mul	t4,a3,a4
   204ba:	406585b3          	sub	a1,a1,t1
   204be:	02c686b3          	mul	a3,a3,a2
   204c2:	010ed813          	srli	a6,t4,0x10
   204c6:	02e88733          	mul	a4,a7,a4
   204ca:	96ba                	add	a3,a3,a4
   204cc:	96c2                	add	a3,a3,a6
   204ce:	02c88633          	mul	a2,a7,a2
   204d2:	00e6f363          	bgeu	a3,a4,204d8 <__udivdi3+0x326>
   204d6:	967a                	add	a2,a2,t5
   204d8:	0106d893          	srli	a7,a3,0x10
   204dc:	9646                	add	a2,a2,a7
   204de:	02c5e263          	bltu	a1,a2,20502 <__udivdi3+0x350>
   204e2:	00c58563          	beq	a1,a2,204ec <__udivdi3+0x33a>
   204e6:	853e                	mv	a0,a5
   204e8:	4581                	li	a1,0
   204ea:	8082                	ret
   204ec:	6741                	lui	a4,0x10
   204ee:	177d                	addi	a4,a4,-1
   204f0:	8ef9                	and	a3,a3,a4
   204f2:	06c2                	slli	a3,a3,0x10
   204f4:	00eefeb3          	and	t4,t4,a4
   204f8:	01c51533          	sll	a0,a0,t3
   204fc:	96f6                	add	a3,a3,t4
   204fe:	fed574e3          	bgeu	a0,a3,204e6 <__udivdi3+0x334>
   20502:	fff78513          	addi	a0,a5,-1
   20506:	4581                	li	a1,0
   20508:	8082                	ret
   2050a:	0106d713          	srli	a4,a3,0x10
   2050e:	4841                	li	a6,16
   20510:	bd31                	j	2032c <__udivdi3+0x17a>
   20512:	01065693          	srli	a3,a2,0x10
   20516:	47c1                	li	a5,16
   20518:	b97d                	j	201d6 <__udivdi3+0x24>
   2051a:	0108d693          	srli	a3,a7,0x10
   2051e:	47c1                	li	a5,16
   20520:	b3b5                	j	2028c <__udivdi3+0xda>
   20522:	4581                	li	a1,0
   20524:	4505                	li	a0,1
   20526:	8082                	ret
   20528:	8736                	mv	a4,a3
   2052a:	4801                	li	a6,0
   2052c:	b501                	j	2032c <__udivdi3+0x17a>
   2052e:	8742                	mv	a4,a6
   20530:	bf85                	j	204a0 <__udivdi3+0x2ee>
   20532:	863e                	mv	a2,a5
   20534:	bde9                	j	2040e <__udivdi3+0x25c>
   20536:	87ba                	mv	a5,a4
   20538:	bf1d                	j	2046e <__udivdi3+0x2bc>
   2053a:	8e32                	mv	t3,a2
   2053c:	b54d                	j	203de <__udivdi3+0x22c>
   2053e:	1579                	addi	a0,a0,-2
   20540:	9846                	add	a6,a6,a7
   20542:	b9d5                	j	20236 <__udivdi3+0x84>
   20544:	1579                	addi	a0,a0,-2
   20546:	97c6                	add	a5,a5,a7
   20548:	bb59                	j	202de <__udivdi3+0x12c>

0002054a <__umoddi3>:
__umoddi3():
   2054a:	87b6                	mv	a5,a3
   2054c:	8832                	mv	a6,a2
   2054e:	832a                	mv	t1,a0
   20550:	872e                	mv	a4,a1
   20552:	8e2e                	mv	t3,a1
   20554:	14069363          	bnez	a3,2069a <__umoddi3+0x150>
   20558:	0ac5f163          	bgeu	a1,a2,205fa <__umoddi3+0xb0>
   2055c:	6741                	lui	a4,0x10
   2055e:	1ae67863          	bgeu	a2,a4,2070e <__umoddi3+0x1c4>
   20562:	0ff00713          	li	a4,255
   20566:	86b2                	mv	a3,a2
   20568:	00c77563          	bgeu	a4,a2,20572 <__umoddi3+0x28>
   2056c:	00865693          	srli	a3,a2,0x8
   20570:	47a1                	li	a5,8
   20572:	00002717          	auipc	a4,0x2
   20576:	ee670713          	addi	a4,a4,-282 # 22458 <__clz_tab>
   2057a:	9736                	add	a4,a4,a3
   2057c:	00074703          	lbu	a4,0(a4)
   20580:	02000893          	li	a7,32
   20584:	97ba                	add	a5,a5,a4
   20586:	40f888b3          	sub	a7,a7,a5
   2058a:	00088c63          	beqz	a7,205a2 <__umoddi3+0x58>
   2058e:	011595b3          	sll	a1,a1,a7
   20592:	00f557b3          	srl	a5,a0,a5
   20596:	01161833          	sll	a6,a2,a7
   2059a:	00b7ee33          	or	t3,a5,a1
   2059e:	01151333          	sll	t1,a0,a7
   205a2:	01085613          	srli	a2,a6,0x10
   205a6:	02ce57b3          	divu	a5,t3,a2
   205aa:	01081513          	slli	a0,a6,0x10
   205ae:	8141                	srli	a0,a0,0x10
   205b0:	01035693          	srli	a3,t1,0x10
   205b4:	02ce7e33          	remu	t3,t3,a2
   205b8:	02f507b3          	mul	a5,a0,a5
   205bc:	0e42                	slli	t3,t3,0x10
   205be:	00de6733          	or	a4,t3,a3
   205c2:	00f77863          	bgeu	a4,a5,205d2 <__umoddi3+0x88>
   205c6:	9742                	add	a4,a4,a6
   205c8:	01076563          	bltu	a4,a6,205d2 <__umoddi3+0x88>
   205cc:	00f77363          	bgeu	a4,a5,205d2 <__umoddi3+0x88>
   205d0:	9742                	add	a4,a4,a6
   205d2:	8f1d                	sub	a4,a4,a5
   205d4:	02c756b3          	divu	a3,a4,a2
   205d8:	01031793          	slli	a5,t1,0x10
   205dc:	83c1                	srli	a5,a5,0x10
   205de:	02c77733          	remu	a4,a4,a2
   205e2:	02d50533          	mul	a0,a0,a3
   205e6:	0742                	slli	a4,a4,0x10
   205e8:	8fd9                	or	a5,a5,a4
   205ea:	08a7ec63          	bltu	a5,a0,20682 <__umoddi3+0x138>
   205ee:	40a78533          	sub	a0,a5,a0
   205f2:	01155533          	srl	a0,a0,a7
   205f6:	4581                	li	a1,0
   205f8:	8082                	ret
   205fa:	e601                	bnez	a2,20602 <__umoddi3+0xb8>
   205fc:	4705                	li	a4,1
   205fe:	02c75833          	divu	a6,a4,a2
   20602:	6741                	lui	a4,0x10
   20604:	0ee86c63          	bltu	a6,a4,206fc <__umoddi3+0x1b2>
   20608:	010007b7          	lui	a5,0x1000
   2060c:	2af86563          	bltu	a6,a5,208b6 <__umoddi3+0x36c>
   20610:	01885693          	srli	a3,a6,0x18
   20614:	47e1                	li	a5,24
   20616:	00002717          	auipc	a4,0x2
   2061a:	e4270713          	addi	a4,a4,-446 # 22458 <__clz_tab>
   2061e:	9736                	add	a4,a4,a3
   20620:	00074703          	lbu	a4,0(a4)
   20624:	02000893          	li	a7,32
   20628:	97ba                	add	a5,a5,a4
   2062a:	40f888b3          	sub	a7,a7,a5
   2062e:	1e089a63          	bnez	a7,20822 <__umoddi3+0x2d8>
   20632:	01081e13          	slli	t3,a6,0x10
   20636:	410585b3          	sub	a1,a1,a6
   2063a:	01085613          	srli	a2,a6,0x10
   2063e:	010e5e13          	srli	t3,t3,0x10
   20642:	01035713          	srli	a4,t1,0x10
   20646:	02c5d6b3          	divu	a3,a1,a2
   2064a:	02c5f5b3          	remu	a1,a1,a2
   2064e:	03c686b3          	mul	a3,a3,t3
   20652:	05c2                	slli	a1,a1,0x10
   20654:	8f4d                	or	a4,a4,a1
   20656:	00d77763          	bgeu	a4,a3,20664 <__umoddi3+0x11a>
   2065a:	9742                	add	a4,a4,a6
   2065c:	01076463          	bltu	a4,a6,20664 <__umoddi3+0x11a>
   20660:	26d76a63          	bltu	a4,a3,208d4 <__umoddi3+0x38a>
   20664:	8f15                	sub	a4,a4,a3
   20666:	02c75533          	divu	a0,a4,a2
   2066a:	0342                	slli	t1,t1,0x10
   2066c:	01035313          	srli	t1,t1,0x10
   20670:	02c77733          	remu	a4,a4,a2
   20674:	03c50533          	mul	a0,a0,t3
   20678:	0742                	slli	a4,a4,0x10
   2067a:	006767b3          	or	a5,a4,t1
   2067e:	00a7f863          	bgeu	a5,a0,2068e <__umoddi3+0x144>
   20682:	97c2                	add	a5,a5,a6
   20684:	0107e563          	bltu	a5,a6,2068e <__umoddi3+0x144>
   20688:	00a7f363          	bgeu	a5,a0,2068e <__umoddi3+0x144>
   2068c:	97c2                	add	a5,a5,a6
   2068e:	40a78533          	sub	a0,a5,a0
   20692:	01155533          	srl	a0,a0,a7
   20696:	4581                	li	a1,0
   20698:	8082                	ret
   2069a:	882a                	mv	a6,a0
   2069c:	f4d5eee3          	bltu	a1,a3,205f8 <__umoddi3+0xae>
   206a0:	67c1                	lui	a5,0x10
   206a2:	04f6e563          	bltu	a3,a5,206ec <__umoddi3+0x1a2>
   206a6:	010007b7          	lui	a5,0x1000
   206aa:	20f6e263          	bltu	a3,a5,208ae <__umoddi3+0x364>
   206ae:	0186d313          	srli	t1,a3,0x18
   206b2:	48e1                	li	a7,24
   206b4:	00002797          	auipc	a5,0x2
   206b8:	da478793          	addi	a5,a5,-604 # 22458 <__clz_tab>
   206bc:	979a                	add	a5,a5,t1
   206be:	0007ce03          	lbu	t3,0(a5)
   206c2:	02000313          	li	t1,32
   206c6:	9e46                	add	t3,t3,a7
   206c8:	41c30333          	sub	t1,t1,t3
   206cc:	04031963          	bnez	t1,2071e <__umoddi3+0x1d4>
   206d0:	00b6e463          	bltu	a3,a1,206d8 <__umoddi3+0x18e>
   206d4:	00c56963          	bltu	a0,a2,206e6 <__umoddi3+0x19c>
   206d8:	40c50833          	sub	a6,a0,a2
   206dc:	8d95                	sub	a1,a1,a3
   206de:	01053733          	sltu	a4,a0,a6
   206e2:	40e58733          	sub	a4,a1,a4
   206e6:	8542                	mv	a0,a6
   206e8:	85ba                	mv	a1,a4
   206ea:	8082                	ret
   206ec:	0ff00793          	li	a5,255
   206f0:	1cd7fb63          	bgeu	a5,a3,208c6 <__umoddi3+0x37c>
   206f4:	0086d313          	srli	t1,a3,0x8
   206f8:	48a1                	li	a7,8
   206fa:	bf6d                	j	206b4 <__umoddi3+0x16a>
   206fc:	0ff00713          	li	a4,255
   20700:	86c2                	mv	a3,a6
   20702:	f1077ae3          	bgeu	a4,a6,20616 <__umoddi3+0xcc>
   20706:	00885693          	srli	a3,a6,0x8
   2070a:	47a1                	li	a5,8
   2070c:	b729                	j	20616 <__umoddi3+0xcc>
   2070e:	010007b7          	lui	a5,0x1000
   20712:	1af66663          	bltu	a2,a5,208be <__umoddi3+0x374>
   20716:	01865693          	srli	a3,a2,0x18
   2071a:	47e1                	li	a5,24
   2071c:	bd99                	j	20572 <__umoddi3+0x28>
   2071e:	01c657b3          	srl	a5,a2,t3
   20722:	006696b3          	sll	a3,a3,t1
   20726:	8edd                	or	a3,a3,a5
   20728:	01c5d8b3          	srl	a7,a1,t3
   2072c:	0106d713          	srli	a4,a3,0x10
   20730:	02e8deb3          	divu	t4,a7,a4
   20734:	01069f13          	slli	t5,a3,0x10
   20738:	01c557b3          	srl	a5,a0,t3
   2073c:	010f5f13          	srli	t5,t5,0x10
   20740:	006595b3          	sll	a1,a1,t1
   20744:	8ddd                	or	a1,a1,a5
   20746:	0105d813          	srli	a6,a1,0x10
   2074a:	00661633          	sll	a2,a2,t1
   2074e:	00651533          	sll	a0,a0,t1
   20752:	02e8f8b3          	remu	a7,a7,a4
   20756:	03df07b3          	mul	a5,t5,t4
   2075a:	08c2                	slli	a7,a7,0x10
   2075c:	0108e833          	or	a6,a7,a6
   20760:	00f87b63          	bgeu	a6,a5,20776 <__umoddi3+0x22c>
   20764:	9836                	add	a6,a6,a3
   20766:	fffe8893          	addi	a7,t4,-1
   2076a:	16d86363          	bltu	a6,a3,208d0 <__umoddi3+0x386>
   2076e:	16f87163          	bgeu	a6,a5,208d0 <__umoddi3+0x386>
   20772:	1ef9                	addi	t4,t4,-2
   20774:	9836                	add	a6,a6,a3
   20776:	40f80833          	sub	a6,a6,a5
   2077a:	02e857b3          	divu	a5,a6,a4
   2077e:	05c2                	slli	a1,a1,0x10
   20780:	81c1                	srli	a1,a1,0x10
   20782:	02e87833          	remu	a6,a6,a4
   20786:	02ff0f33          	mul	t5,t5,a5
   2078a:	01081713          	slli	a4,a6,0x10
   2078e:	8f4d                	or	a4,a4,a1
   20790:	01e77b63          	bgeu	a4,t5,207a6 <__umoddi3+0x25c>
   20794:	9736                	add	a4,a4,a3
   20796:	fff78593          	addi	a1,a5,-1 # ffffff <_data_lma+0xfddaa7>
   2079a:	12d76963          	bltu	a4,a3,208cc <__umoddi3+0x382>
   2079e:	13e77763          	bgeu	a4,t5,208cc <__umoddi3+0x382>
   207a2:	17f9                	addi	a5,a5,-2
   207a4:	9736                	add	a4,a4,a3
   207a6:	0ec2                	slli	t4,t4,0x10
   207a8:	62c1                	lui	t0,0x10
   207aa:	00feeeb3          	or	t4,t4,a5
   207ae:	fff28813          	addi	a6,t0,-1 # ffff <__stack_size+0xf7ff>
   207b2:	010ef8b3          	and	a7,t4,a6
   207b6:	01065593          	srli	a1,a2,0x10
   207ba:	010ede93          	srli	t4,t4,0x10
   207be:	01067833          	and	a6,a2,a6
   207c2:	03088fb3          	mul	t6,a7,a6
   207c6:	41e70733          	sub	a4,a4,t5
   207ca:	030e8833          	mul	a6,t4,a6
   207ce:	010fd793          	srli	a5,t6,0x10
   207d2:	02b888b3          	mul	a7,a7,a1
   207d6:	98c2                	add	a7,a7,a6
   207d8:	97c6                	add	a5,a5,a7
   207da:	02be8eb3          	mul	t4,t4,a1
   207de:	0107f363          	bgeu	a5,a6,207e4 <__umoddi3+0x29a>
   207e2:	9e96                	add	t4,t4,t0
   207e4:	6841                	lui	a6,0x10
   207e6:	187d                	addi	a6,a6,-1
   207e8:	0107d593          	srli	a1,a5,0x10
   207ec:	0107f7b3          	and	a5,a5,a6
   207f0:	07c2                	slli	a5,a5,0x10
   207f2:	010fffb3          	and	t6,t6,a6
   207f6:	95f6                	add	a1,a1,t4
   207f8:	97fe                	add	a5,a5,t6
   207fa:	0ab76263          	bltu	a4,a1,2089e <__umoddi3+0x354>
   207fe:	08b70e63          	beq	a4,a1,2089a <__umoddi3+0x350>
   20802:	40f507b3          	sub	a5,a0,a5
   20806:	00f53533          	sltu	a0,a0,a5
   2080a:	40b705b3          	sub	a1,a4,a1
   2080e:	8d89                	sub	a1,a1,a0
   20810:	01c59e33          	sll	t3,a1,t3
   20814:	0067d533          	srl	a0,a5,t1
   20818:	00ae6533          	or	a0,t3,a0
   2081c:	0065d5b3          	srl	a1,a1,t1
   20820:	8082                	ret
   20822:	01181833          	sll	a6,a6,a7
   20826:	00f5d733          	srl	a4,a1,a5
   2082a:	01085613          	srli	a2,a6,0x10
   2082e:	02c756b3          	divu	a3,a4,a2
   20832:	01081e13          	slli	t3,a6,0x10
   20836:	00f557b3          	srl	a5,a0,a5
   2083a:	010e5e13          	srli	t3,t3,0x10
   2083e:	011595b3          	sll	a1,a1,a7
   20842:	8ddd                	or	a1,a1,a5
   20844:	0105de93          	srli	t4,a1,0x10
   20848:	01151333          	sll	t1,a0,a7
   2084c:	02c77733          	remu	a4,a4,a2
   20850:	02de07b3          	mul	a5,t3,a3
   20854:	01071693          	slli	a3,a4,0x10
   20858:	01d6e6b3          	or	a3,a3,t4
   2085c:	00f6f863          	bgeu	a3,a5,2086c <__umoddi3+0x322>
   20860:	96c2                	add	a3,a3,a6
   20862:	0106e563          	bltu	a3,a6,2086c <__umoddi3+0x322>
   20866:	00f6f363          	bgeu	a3,a5,2086c <__umoddi3+0x322>
   2086a:	96c2                	add	a3,a3,a6
   2086c:	8e9d                	sub	a3,a3,a5
   2086e:	02c6d733          	divu	a4,a3,a2
   20872:	01059793          	slli	a5,a1,0x10
   20876:	83c1                	srli	a5,a5,0x10
   20878:	02c6f6b3          	remu	a3,a3,a2
   2087c:	02ee0733          	mul	a4,t3,a4
   20880:	01069593          	slli	a1,a3,0x10
   20884:	8ddd                	or	a1,a1,a5
   20886:	00e5f863          	bgeu	a1,a4,20896 <__umoddi3+0x34c>
   2088a:	95c2                	add	a1,a1,a6
   2088c:	0105e563          	bltu	a1,a6,20896 <__umoddi3+0x34c>
   20890:	00e5f363          	bgeu	a1,a4,20896 <__umoddi3+0x34c>
   20894:	95c2                	add	a1,a1,a6
   20896:	8d99                	sub	a1,a1,a4
   20898:	b36d                	j	20642 <__umoddi3+0xf8>
   2089a:	f6f574e3          	bgeu	a0,a5,20802 <__umoddi3+0x2b8>
   2089e:	40c78633          	sub	a2,a5,a2
   208a2:	00c7b7b3          	sltu	a5,a5,a2
   208a6:	97b6                	add	a5,a5,a3
   208a8:	8d9d                	sub	a1,a1,a5
   208aa:	87b2                	mv	a5,a2
   208ac:	bf99                	j	20802 <__umoddi3+0x2b8>
   208ae:	0106d313          	srli	t1,a3,0x10
   208b2:	48c1                	li	a7,16
   208b4:	b501                	j	206b4 <__umoddi3+0x16a>
   208b6:	01085693          	srli	a3,a6,0x10
   208ba:	47c1                	li	a5,16
   208bc:	bba9                	j	20616 <__umoddi3+0xcc>
   208be:	01065693          	srli	a3,a2,0x10
   208c2:	47c1                	li	a5,16
   208c4:	b17d                	j	20572 <__umoddi3+0x28>
   208c6:	8336                	mv	t1,a3
   208c8:	4881                	li	a7,0
   208ca:	b3ed                	j	206b4 <__umoddi3+0x16a>
   208cc:	87ae                	mv	a5,a1
   208ce:	bde1                	j	207a6 <__umoddi3+0x25c>
   208d0:	8ec6                	mv	t4,a7
   208d2:	b555                	j	20776 <__umoddi3+0x22c>
   208d4:	9742                	add	a4,a4,a6
   208d6:	b379                	j	20664 <__umoddi3+0x11a>

000208d8 <__ledf2>:
__ltdf2():
   208d8:	0145d713          	srli	a4,a1,0x14
   208dc:	001007b7          	lui	a5,0x100
   208e0:	17fd                	addi	a5,a5,-1
   208e2:	0146d813          	srli	a6,a3,0x14
   208e6:	7ff77713          	andi	a4,a4,2047
   208ea:	7ff00893          	li	a7,2047
   208ee:	00b7fe33          	and	t3,a5,a1
   208f2:	8eaa                	mv	t4,a0
   208f4:	8ff5                	and	a5,a5,a3
   208f6:	81fd                	srli	a1,a1,0x1f
   208f8:	8f32                	mv	t5,a2
   208fa:	7ff87813          	andi	a6,a6,2047
   208fe:	82fd                	srli	a3,a3,0x1f
   20900:	03170e63          	beq	a4,a7,2093c <__ledf2+0x64>
   20904:	01180d63          	beq	a6,a7,2091e <__ledf2+0x46>
   20908:	e329                	bnez	a4,2094a <__ledf2+0x72>
   2090a:	00ae68b3          	or	a7,t3,a0
   2090e:	00081f63          	bnez	a6,2092c <__ledf2+0x54>
   20912:	8e5d                	or	a2,a2,a5
   20914:	ee01                	bnez	a2,2092c <__ledf2+0x54>
   20916:	4301                	li	t1,0
   20918:	04088c63          	beqz	a7,20970 <__ledf2+0x98>
   2091c:	a821                	j	20934 <__ledf2+0x5c>
   2091e:	00c7e8b3          	or	a7,a5,a2
   20922:	4309                	li	t1,2
   20924:	04089663          	bnez	a7,20970 <__ledf2+0x98>
   20928:	d36d                	beqz	a4,2090a <__ledf2+0x32>
   2092a:	a005                	j	2094a <__ledf2+0x72>
   2092c:	04088463          	beqz	a7,20974 <__ledf2+0x9c>
   20930:	02d58563          	beq	a1,a3,2095a <__ledf2+0x82>
   20934:	4305                	li	t1,1
   20936:	cd8d                	beqz	a1,20970 <__ledf2+0x98>
   20938:	537d                	li	t1,-1
   2093a:	a81d                	j	20970 <__ledf2+0x98>
   2093c:	00ae68b3          	or	a7,t3,a0
   20940:	4309                	li	t1,2
   20942:	02089763          	bnez	a7,20970 <__ledf2+0x98>
   20946:	02e80a63          	beq	a6,a4,2097a <__ledf2+0xa2>
   2094a:	00081463          	bnez	a6,20952 <__ledf2+0x7a>
   2094e:	8e5d                	or	a2,a2,a5
   20950:	d275                	beqz	a2,20934 <__ledf2+0x5c>
   20952:	fed591e3          	bne	a1,a3,20934 <__ledf2+0x5c>
   20956:	fce84fe3          	blt	a6,a4,20934 <__ledf2+0x5c>
   2095a:	01074963          	blt	a4,a6,2096c <__ledf2+0x94>
   2095e:	fdc7ebe3          	bltu	a5,t3,20934 <__ledf2+0x5c>
   20962:	00fe0f63          	beq	t3,a5,20980 <__ledf2+0xa8>
   20966:	4301                	li	t1,0
   20968:	00fe7463          	bgeu	t3,a5,20970 <__ledf2+0x98>
   2096c:	d5f1                	beqz	a1,20938 <__ledf2+0x60>
   2096e:	4305                	li	t1,1
   20970:	851a                	mv	a0,t1
   20972:	8082                	ret
   20974:	feed                	bnez	a3,2096e <__ledf2+0x96>
   20976:	537d                	li	t1,-1
   20978:	bfe5                	j	20970 <__ledf2+0x98>
   2097a:	8e5d                	or	a2,a2,a5
   2097c:	da79                	beqz	a2,20952 <__ledf2+0x7a>
   2097e:	bfcd                	j	20970 <__ledf2+0x98>
   20980:	fbdf6ae3          	bltu	t5,t4,20934 <__ledf2+0x5c>
   20984:	4301                	li	t1,0
   20986:	ffeef5e3          	bgeu	t4,t5,20970 <__ledf2+0x98>
   2098a:	f1f5                	bnez	a1,2096e <__ledf2+0x96>
   2098c:	b775                	j	20938 <__ledf2+0x60>

0002098e <__muldf3>:
__muldf3():
   2098e:	7139                	addi	sp,sp,-64
   20990:	d84a                	sw	s2,48(sp)
   20992:	0145d913          	srli	s2,a1,0x14
   20996:	d64e                	sw	s3,44(sp)
   20998:	d452                	sw	s4,40(sp)
   2099a:	d256                	sw	s5,36(sp)
   2099c:	00c59993          	slli	s3,a1,0xc
   209a0:	de06                	sw	ra,60(sp)
   209a2:	dc22                	sw	s0,56(sp)
   209a4:	da26                	sw	s1,52(sp)
   209a6:	d05a                	sw	s6,32(sp)
   209a8:	ce5e                	sw	s7,28(sp)
   209aa:	7ff97913          	andi	s2,s2,2047
   209ae:	8a2a                	mv	s4,a0
   209b0:	00c9d993          	srli	s3,s3,0xc
   209b4:	01f5da93          	srli	s5,a1,0x1f
   209b8:	0e090d63          	beqz	s2,20ab2 <__muldf3+0x124>
   209bc:	7ff00793          	li	a5,2047
   209c0:	18f90663          	beq	s2,a5,20b4c <__muldf3+0x1be>
   209c4:	01d55413          	srli	s0,a0,0x1d
   209c8:	098e                	slli	s3,s3,0x3
   209ca:	013469b3          	or	s3,s0,s3
   209ce:	00800437          	lui	s0,0x800
   209d2:	0089e433          	or	s0,s3,s0
   209d6:	00351493          	slli	s1,a0,0x3
   209da:	c0190913          	addi	s2,s2,-1023
   209de:	4981                	li	s3,0
   209e0:	4b81                	li	s7,0
   209e2:	0146d713          	srli	a4,a3,0x14
   209e6:	00c69a13          	slli	s4,a3,0xc
   209ea:	7ff77713          	andi	a4,a4,2047
   209ee:	85b2                	mv	a1,a2
   209f0:	00ca5a13          	srli	s4,s4,0xc
   209f4:	01f6db13          	srli	s6,a3,0x1f
   209f8:	10070b63          	beqz	a4,20b0e <__muldf3+0x180>
   209fc:	7ff00793          	li	a5,2047
   20a00:	04f70363          	beq	a4,a5,20a46 <__muldf3+0xb8>
   20a04:	01d65793          	srli	a5,a2,0x1d
   20a08:	0a0e                	slli	s4,s4,0x3
   20a0a:	0147ea33          	or	s4,a5,s4
   20a0e:	c0170713          	addi	a4,a4,-1023
   20a12:	008007b7          	lui	a5,0x800
   20a16:	00fa67b3          	or	a5,s4,a5
   20a1a:	00361593          	slli	a1,a2,0x3
   20a1e:	993a                	add	s2,s2,a4
   20a20:	4881                	li	a7,0
   20a22:	016ac733          	xor	a4,s5,s6
   20a26:	46bd                	li	a3,15
   20a28:	853a                	mv	a0,a4
   20a2a:	00190813          	addi	a6,s2,1
   20a2e:	1736e863          	bltu	a3,s3,20b9e <__muldf3+0x210>
   20a32:	00002617          	auipc	a2,0x2
   20a36:	9e660613          	addi	a2,a2,-1562 # 22418 <nAsciiDot+0x724>
   20a3a:	098a                	slli	s3,s3,0x2
   20a3c:	99b2                	add	s3,s3,a2
   20a3e:	0009a683          	lw	a3,0(s3)
   20a42:	96b2                	add	a3,a3,a2
   20a44:	8682                	jr	a3
   20a46:	00ca67b3          	or	a5,s4,a2
   20a4a:	7ff90913          	addi	s2,s2,2047
   20a4e:	12079963          	bnez	a5,20b80 <__muldf3+0x1f2>
   20a52:	0029e993          	ori	s3,s3,2
   20a56:	4581                	li	a1,0
   20a58:	4889                	li	a7,2
   20a5a:	b7e1                	j	20a22 <__muldf3+0x94>
   20a5c:	4701                	li	a4,0
   20a5e:	7ff00793          	li	a5,2047
   20a62:	00080437          	lui	s0,0x80
   20a66:	4481                	li	s1,0
   20a68:	0432                	slli	s0,s0,0xc
   20a6a:	07d2                	slli	a5,a5,0x14
   20a6c:	8031                	srli	s0,s0,0xc
   20a6e:	077e                	slli	a4,a4,0x1f
   20a70:	8c5d                	or	s0,s0,a5
   20a72:	8c59                	or	s0,s0,a4
   20a74:	85a2                	mv	a1,s0
   20a76:	50f2                	lw	ra,60(sp)
   20a78:	5462                	lw	s0,56(sp)
   20a7a:	8526                	mv	a0,s1
   20a7c:	5942                	lw	s2,48(sp)
   20a7e:	54d2                	lw	s1,52(sp)
   20a80:	59b2                	lw	s3,44(sp)
   20a82:	5a22                	lw	s4,40(sp)
   20a84:	5a92                	lw	s5,36(sp)
   20a86:	5b02                	lw	s6,32(sp)
   20a88:	4bf2                	lw	s7,28(sp)
   20a8a:	6121                	addi	sp,sp,64
   20a8c:	8082                	ret
   20a8e:	855a                	mv	a0,s6
   20a90:	843e                	mv	s0,a5
   20a92:	84ae                	mv	s1,a1
   20a94:	8bc6                	mv	s7,a7
   20a96:	4789                	li	a5,2
   20a98:	0efb8d63          	beq	s7,a5,20b92 <__muldf3+0x204>
   20a9c:	478d                	li	a5,3
   20a9e:	fafb8fe3          	beq	s7,a5,20a5c <__muldf3+0xce>
   20aa2:	4785                	li	a5,1
   20aa4:	872a                	mv	a4,a0
   20aa6:	38fb9e63          	bne	s7,a5,20e42 <__muldf3+0x4b4>
   20aaa:	4781                	li	a5,0
   20aac:	4401                	li	s0,0
   20aae:	4481                	li	s1,0
   20ab0:	bf65                	j	20a68 <__muldf3+0xda>
   20ab2:	00a9e433          	or	s0,s3,a0
   20ab6:	c061                	beqz	s0,20b76 <__muldf3+0x1e8>
   20ab8:	c636                	sw	a3,12(sp)
   20aba:	c432                	sw	a2,8(sp)
   20abc:	2a098c63          	beqz	s3,20d74 <__muldf3+0x3e6>
   20ac0:	854e                	mv	a0,s3
   20ac2:	41f000ef          	jal	ra,216e0 <__clzsi2>
   20ac6:	4622                	lw	a2,8(sp)
   20ac8:	46b2                	lw	a3,12(sp)
   20aca:	87aa                	mv	a5,a0
   20acc:	ff550713          	addi	a4,a0,-11
   20ad0:	4475                	li	s0,29
   20ad2:	ff878493          	addi	s1,a5,-8 # 7ffff8 <_data_lma+0x7ddaa0>
   20ad6:	8c19                	sub	s0,s0,a4
   20ad8:	009999b3          	sll	s3,s3,s1
   20adc:	008a5433          	srl	s0,s4,s0
   20ae0:	01346433          	or	s0,s0,s3
   20ae4:	009a14b3          	sll	s1,s4,s1
   20ae8:	0146d713          	srli	a4,a3,0x14
   20aec:	c0d00913          	li	s2,-1011
   20af0:	00c69a13          	slli	s4,a3,0xc
   20af4:	7ff77713          	andi	a4,a4,2047
   20af8:	40f90933          	sub	s2,s2,a5
   20afc:	4981                	li	s3,0
   20afe:	4b81                	li	s7,0
   20b00:	85b2                	mv	a1,a2
   20b02:	00ca5a13          	srli	s4,s4,0xc
   20b06:	01f6db13          	srli	s6,a3,0x1f
   20b0a:	ee0719e3          	bnez	a4,209fc <__muldf3+0x6e>
   20b0e:	00ca67b3          	or	a5,s4,a2
   20b12:	c7b1                	beqz	a5,20b5e <__muldf3+0x1d0>
   20b14:	220a0f63          	beqz	s4,20d52 <__muldf3+0x3c4>
   20b18:	8552                	mv	a0,s4
   20b1a:	c432                	sw	a2,8(sp)
   20b1c:	3c5000ef          	jal	ra,216e0 <__clzsi2>
   20b20:	4622                	lw	a2,8(sp)
   20b22:	872a                	mv	a4,a0
   20b24:	ff550693          	addi	a3,a0,-11
   20b28:	47f5                	li	a5,29
   20b2a:	ff870593          	addi	a1,a4,-8
   20b2e:	8f95                	sub	a5,a5,a3
   20b30:	00ba1a33          	sll	s4,s4,a1
   20b34:	00f657b3          	srl	a5,a2,a5
   20b38:	0147e7b3          	or	a5,a5,s4
   20b3c:	00b615b3          	sll	a1,a2,a1
   20b40:	40e90933          	sub	s2,s2,a4
   20b44:	c0d90913          	addi	s2,s2,-1011
   20b48:	4881                	li	a7,0
   20b4a:	bde1                	j	20a22 <__muldf3+0x94>
   20b4c:	00a9e433          	or	s0,s3,a0
   20b50:	ec01                	bnez	s0,20b68 <__muldf3+0x1da>
   20b52:	49a1                	li	s3,8
   20b54:	4481                	li	s1,0
   20b56:	7ff00913          	li	s2,2047
   20b5a:	4b89                	li	s7,2
   20b5c:	b559                	j	209e2 <__muldf3+0x54>
   20b5e:	0019e993          	ori	s3,s3,1
   20b62:	4581                	li	a1,0
   20b64:	4885                	li	a7,1
   20b66:	bd75                	j	20a22 <__muldf3+0x94>
   20b68:	844e                	mv	s0,s3
   20b6a:	84aa                	mv	s1,a0
   20b6c:	49b1                	li	s3,12
   20b6e:	7ff00913          	li	s2,2047
   20b72:	4b8d                	li	s7,3
   20b74:	b5bd                	j	209e2 <__muldf3+0x54>
   20b76:	4991                	li	s3,4
   20b78:	4481                	li	s1,0
   20b7a:	4901                	li	s2,0
   20b7c:	4b85                	li	s7,1
   20b7e:	b595                	j	209e2 <__muldf3+0x54>
   20b80:	0039e993          	ori	s3,s3,3
   20b84:	87d2                	mv	a5,s4
   20b86:	488d                	li	a7,3
   20b88:	bd69                	j	20a22 <__muldf3+0x94>
   20b8a:	4789                	li	a5,2
   20b8c:	8556                	mv	a0,s5
   20b8e:	f0fb97e3          	bne	s7,a5,20a9c <__muldf3+0x10e>
   20b92:	872a                	mv	a4,a0
   20b94:	7ff00793          	li	a5,2047
   20b98:	4401                	li	s0,0
   20b9a:	4481                	li	s1,0
   20b9c:	b5f1                	j	20a68 <__muldf3+0xda>
   20b9e:	6ec1                	lui	t4,0x10
   20ba0:	fffe8613          	addi	a2,t4,-1 # ffff <__stack_size+0xf7ff>
   20ba4:	0104d693          	srli	a3,s1,0x10
   20ba8:	0105de13          	srli	t3,a1,0x10
   20bac:	8cf1                	and	s1,s1,a2
   20bae:	8df1                	and	a1,a1,a2
   20bb0:	02958633          	mul	a2,a1,s1
   20bb4:	02b68333          	mul	t1,a3,a1
   20bb8:	01065893          	srli	a7,a2,0x10
   20bbc:	029e0533          	mul	a0,t3,s1
   20bc0:	951a                	add	a0,a0,t1
   20bc2:	98aa                	add	a7,a7,a0
   20bc4:	03c682b3          	mul	t0,a3,t3
   20bc8:	0068f363          	bgeu	a7,t1,20bce <__muldf3+0x240>
   20bcc:	92f6                	add	t0,t0,t4
   20bce:	6fc1                	lui	t6,0x10
   20bd0:	ffff8313          	addi	t1,t6,-1 # ffff <__stack_size+0xf7ff>
   20bd4:	0067f533          	and	a0,a5,t1
   20bd8:	0107d393          	srli	t2,a5,0x10
   20bdc:	0068f7b3          	and	a5,a7,t1
   20be0:	07c2                	slli	a5,a5,0x10
   20be2:	00667333          	and	t1,a2,t1
   20be6:	933e                	add	t1,t1,a5
   20be8:	02950633          	mul	a2,a0,s1
   20bec:	0108d893          	srli	a7,a7,0x10
   20bf0:	02a687b3          	mul	a5,a3,a0
   20bf4:	01065f13          	srli	t5,a2,0x10
   20bf8:	029384b3          	mul	s1,t2,s1
   20bfc:	94be                	add	s1,s1,a5
   20bfe:	94fa                	add	s1,s1,t5
   20c00:	02768eb3          	mul	t4,a3,t2
   20c04:	00f4f363          	bgeu	s1,a5,20c0a <__muldf3+0x27c>
   20c08:	9efe                	add	t4,t4,t6
   20c0a:	6a41                	lui	s4,0x10
   20c0c:	fffa0793          	addi	a5,s4,-1 # ffff <__stack_size+0xf7ff>
   20c10:	01045f93          	srli	t6,s0,0x10
   20c14:	00f476b3          	and	a3,s0,a5
   20c18:	00f4f9b3          	and	s3,s1,a5
   20c1c:	8e7d                	and	a2,a2,a5
   20c1e:	80c1                	srli	s1,s1,0x10
   20c20:	02d58433          	mul	s0,a1,a3
   20c24:	09c2                	slli	s3,s3,0x10
   20c26:	01d48f33          	add	t5,s1,t4
   20c2a:	99b2                	add	s3,s3,a2
   20c2c:	98ce                	add	a7,a7,s3
   20c2e:	02de07b3          	mul	a5,t3,a3
   20c32:	01045e93          	srli	t4,s0,0x10
   20c36:	02bf85b3          	mul	a1,t6,a1
   20c3a:	97ae                	add	a5,a5,a1
   20c3c:	9ebe                	add	t4,t4,a5
   20c3e:	03fe0e33          	mul	t3,t3,t6
   20c42:	00bef363          	bgeu	t4,a1,20c48 <__muldf3+0x2ba>
   20c46:	9e52                	add	t3,t3,s4
   20c48:	67c1                	lui	a5,0x10
   20c4a:	fff78593          	addi	a1,a5,-1 # ffff <__stack_size+0xf7ff>
   20c4e:	00bef633          	and	a2,t4,a1
   20c52:	8c6d                	and	s0,s0,a1
   20c54:	0642                	slli	a2,a2,0x10
   20c56:	9622                	add	a2,a2,s0
   20c58:	010ede93          	srli	t4,t4,0x10
   20c5c:	02d505b3          	mul	a1,a0,a3
   20c60:	9e76                	add	t3,t3,t4
   20c62:	02af8533          	mul	a0,t6,a0
   20c66:	0105d413          	srli	s0,a1,0x10
   20c6a:	02d386b3          	mul	a3,t2,a3
   20c6e:	96aa                	add	a3,a3,a0
   20c70:	96a2                	add	a3,a3,s0
   20c72:	03f38fb3          	mul	t6,t2,t6
   20c76:	00a6f363          	bgeu	a3,a0,20c7c <__muldf3+0x2ee>
   20c7a:	9fbe                	add	t6,t6,a5
   20c7c:	6541                	lui	a0,0x10
   20c7e:	157d                	addi	a0,a0,-1
   20c80:	00a6f7b3          	and	a5,a3,a0
   20c84:	07c2                	slli	a5,a5,0x10
   20c86:	8d6d                	and	a0,a0,a1
   20c88:	97aa                	add	a5,a5,a0
   20c8a:	005885b3          	add	a1,a7,t0
   20c8e:	0135b9b3          	sltu	s3,a1,s3
   20c92:	97fa                	add	a5,a5,t5
   20c94:	95b2                	add	a1,a1,a2
   20c96:	01378433          	add	s0,a5,s3
   20c9a:	00c5b633          	sltu	a2,a1,a2
   20c9e:	01c40eb3          	add	t4,s0,t3
   20ca2:	00ce8533          	add	a0,t4,a2
   20ca6:	01343433          	sltu	s0,s0,s3
   20caa:	01e7b7b3          	sltu	a5,a5,t5
   20cae:	8fc1                	or	a5,a5,s0
   20cb0:	01cebe33          	sltu	t3,t4,t3
   20cb4:	0106d413          	srli	s0,a3,0x10
   20cb8:	00c53633          	sltu	a2,a0,a2
   20cbc:	943e                	add	s0,s0,a5
   20cbe:	00ce6633          	or	a2,t3,a2
   20cc2:	00959493          	slli	s1,a1,0x9
   20cc6:	9432                	add	s0,s0,a2
   20cc8:	947e                	add	s0,s0,t6
   20cca:	0064e4b3          	or	s1,s1,t1
   20cce:	0426                	slli	s0,s0,0x9
   20cd0:	01755693          	srli	a3,a0,0x17
   20cd4:	009034b3          	snez	s1,s1
   20cd8:	81dd                	srli	a1,a1,0x17
   20cda:	00951793          	slli	a5,a0,0x9
   20cde:	8ccd                	or	s1,s1,a1
   20ce0:	8c55                	or	s0,s0,a3
   20ce2:	8cdd                	or	s1,s1,a5
   20ce4:	00741793          	slli	a5,s0,0x7
   20ce8:	0007db63          	bgez	a5,20cfe <__muldf3+0x370>
   20cec:	0014d793          	srli	a5,s1,0x1
   20cf0:	8885                	andi	s1,s1,1
   20cf2:	01f41693          	slli	a3,s0,0x1f
   20cf6:	8cdd                	or	s1,s1,a5
   20cf8:	8cd5                	or	s1,s1,a3
   20cfa:	8005                	srli	s0,s0,0x1
   20cfc:	8942                	mv	s2,a6
   20cfe:	3ff90793          	addi	a5,s2,1023
   20d02:	08f05963          	blez	a5,20d94 <__muldf3+0x406>
   20d06:	0074f693          	andi	a3,s1,7
   20d0a:	ce81                	beqz	a3,20d22 <__muldf3+0x394>
   20d0c:	00f4f693          	andi	a3,s1,15
   20d10:	4611                	li	a2,4
   20d12:	00c68863          	beq	a3,a2,20d22 <__muldf3+0x394>
   20d16:	00448693          	addi	a3,s1,4
   20d1a:	0096b4b3          	sltu	s1,a3,s1
   20d1e:	9426                	add	s0,s0,s1
   20d20:	84b6                	mv	s1,a3
   20d22:	00741693          	slli	a3,s0,0x7
   20d26:	0006d863          	bgez	a3,20d36 <__muldf3+0x3a8>
   20d2a:	ff0007b7          	lui	a5,0xff000
   20d2e:	17fd                	addi	a5,a5,-1
   20d30:	8c7d                	and	s0,s0,a5
   20d32:	40090793          	addi	a5,s2,1024
   20d36:	7fe00693          	li	a3,2046
   20d3a:	0ef6cf63          	blt	a3,a5,20e38 <__muldf3+0x4aa>
   20d3e:	0034d693          	srli	a3,s1,0x3
   20d42:	01d41493          	slli	s1,s0,0x1d
   20d46:	0426                	slli	s0,s0,0x9
   20d48:	8cd5                	or	s1,s1,a3
   20d4a:	8031                	srli	s0,s0,0xc
   20d4c:	7ff7f793          	andi	a5,a5,2047
   20d50:	bb21                	j	20a68 <__muldf3+0xda>
   20d52:	8532                	mv	a0,a2
   20d54:	c432                	sw	a2,8(sp)
   20d56:	18b000ef          	jal	ra,216e0 <__clzsi2>
   20d5a:	01550693          	addi	a3,a0,21 # 10015 <__stack_size+0xf815>
   20d5e:	47f1                	li	a5,28
   20d60:	02050713          	addi	a4,a0,32
   20d64:	4622                	lw	a2,8(sp)
   20d66:	dcd7d1e3          	bge	a5,a3,20b28 <__muldf3+0x19a>
   20d6a:	1561                	addi	a0,a0,-8
   20d6c:	00a617b3          	sll	a5,a2,a0
   20d70:	4581                	li	a1,0
   20d72:	b3f9                	j	20b40 <__muldf3+0x1b2>
   20d74:	16d000ef          	jal	ra,216e0 <__clzsi2>
   20d78:	01550713          	addi	a4,a0,21
   20d7c:	45f1                	li	a1,28
   20d7e:	02050793          	addi	a5,a0,32
   20d82:	4622                	lw	a2,8(sp)
   20d84:	46b2                	lw	a3,12(sp)
   20d86:	d4e5d5e3          	bge	a1,a4,20ad0 <__muldf3+0x142>
   20d8a:	1561                	addi	a0,a0,-8
   20d8c:	00aa1433          	sll	s0,s4,a0
   20d90:	4481                	li	s1,0
   20d92:	bb99                	j	20ae8 <__muldf3+0x15a>
   20d94:	4685                	li	a3,1
   20d96:	8e9d                	sub	a3,a3,a5
   20d98:	e7b1                	bnez	a5,20de4 <__muldf3+0x456>
   20d9a:	41e90913          	addi	s2,s2,1054
   20d9e:	012497b3          	sll	a5,s1,s2
   20da2:	00d4d4b3          	srl	s1,s1,a3
   20da6:	01241933          	sll	s2,s0,s2
   20daa:	00f037b3          	snez	a5,a5
   20dae:	009964b3          	or	s1,s2,s1
   20db2:	8cdd                	or	s1,s1,a5
   20db4:	0074f793          	andi	a5,s1,7
   20db8:	00d456b3          	srl	a3,s0,a3
   20dbc:	cf81                	beqz	a5,20dd4 <__muldf3+0x446>
   20dbe:	00f4f793          	andi	a5,s1,15
   20dc2:	4611                	li	a2,4
   20dc4:	00c78863          	beq	a5,a2,20dd4 <__muldf3+0x446>
   20dc8:	00448793          	addi	a5,s1,4
   20dcc:	0097b4b3          	sltu	s1,a5,s1
   20dd0:	96a6                	add	a3,a3,s1
   20dd2:	84be                	mv	s1,a5
   20dd4:	00869793          	slli	a5,a3,0x8
   20dd8:	0407d863          	bgez	a5,20e28 <__muldf3+0x49a>
   20ddc:	4785                	li	a5,1
   20dde:	4401                	li	s0,0
   20de0:	4481                	li	s1,0
   20de2:	b159                	j	20a68 <__muldf3+0xda>
   20de4:	03800613          	li	a2,56
   20de8:	ccd641e3          	blt	a2,a3,20aaa <__muldf3+0x11c>
   20dec:	467d                	li	a2,31
   20dee:	fad656e3          	bge	a2,a3,20d9a <__muldf3+0x40c>
   20df2:	5605                	li	a2,-31
   20df4:	40f607b3          	sub	a5,a2,a5
   20df8:	02000593          	li	a1,32
   20dfc:	00f45633          	srl	a2,s0,a5
   20e00:	00b68763          	beq	a3,a1,20e0e <__muldf3+0x480>
   20e04:	43e90913          	addi	s2,s2,1086
   20e08:	012417b3          	sll	a5,s0,s2
   20e0c:	8cdd                	or	s1,s1,a5
   20e0e:	009034b3          	snez	s1,s1
   20e12:	8cd1                	or	s1,s1,a2
   20e14:	0074f693          	andi	a3,s1,7
   20e18:	4401                	li	s0,0
   20e1a:	ca99                	beqz	a3,20e30 <__muldf3+0x4a2>
   20e1c:	00f4f793          	andi	a5,s1,15
   20e20:	4611                	li	a2,4
   20e22:	4681                	li	a3,0
   20e24:	fac792e3          	bne	a5,a2,20dc8 <__muldf3+0x43a>
   20e28:	00969413          	slli	s0,a3,0x9
   20e2c:	8031                	srli	s0,s0,0xc
   20e2e:	06f6                	slli	a3,a3,0x1d
   20e30:	808d                	srli	s1,s1,0x3
   20e32:	8cd5                	or	s1,s1,a3
   20e34:	4781                	li	a5,0
   20e36:	b90d                	j	20a68 <__muldf3+0xda>
   20e38:	7ff00793          	li	a5,2047
   20e3c:	4401                	li	s0,0
   20e3e:	4481                	li	s1,0
   20e40:	b125                	j	20a68 <__muldf3+0xda>
   20e42:	8942                	mv	s2,a6
   20e44:	bd6d                	j	20cfe <__muldf3+0x370>

00020e46 <__subdf3>:
__subdf3():
   20e46:	00100737          	lui	a4,0x100
   20e4a:	177d                	addi	a4,a4,-1
   20e4c:	1101                	addi	sp,sp,-32
   20e4e:	00b77333          	and	t1,a4,a1
   20e52:	0146d893          	srli	a7,a3,0x14
   20e56:	8f75                	and	a4,a4,a3
   20e58:	01d65e93          	srli	t4,a2,0x1d
   20e5c:	cc22                	sw	s0,24(sp)
   20e5e:	ca26                	sw	s1,20(sp)
   20e60:	030e                	slli	t1,t1,0x3
   20e62:	0145d493          	srli	s1,a1,0x14
   20e66:	01d55793          	srli	a5,a0,0x1d
   20e6a:	070e                	slli	a4,a4,0x3
   20e6c:	ce06                	sw	ra,28(sp)
   20e6e:	c84a                	sw	s2,16(sp)
   20e70:	c64e                	sw	s3,12(sp)
   20e72:	7ff8f893          	andi	a7,a7,2047
   20e76:	7ff00e13          	li	t3,2047
   20e7a:	00eee733          	or	a4,t4,a4
   20e7e:	7ff4f493          	andi	s1,s1,2047
   20e82:	01f5d413          	srli	s0,a1,0x1f
   20e86:	0067e333          	or	t1,a5,t1
   20e8a:	00351f13          	slli	t5,a0,0x3
   20e8e:	82fd                	srli	a3,a3,0x1f
   20e90:	00361e93          	slli	t4,a2,0x3
   20e94:	17c88f63          	beq	a7,t3,21012 <__subdf3+0x1cc>
   20e98:	0016c693          	xori	a3,a3,1
   20e9c:	411485b3          	sub	a1,s1,a7
   20ea0:	12d40463          	beq	s0,a3,20fc8 <__subdf3+0x182>
   20ea4:	18b05063          	blez	a1,21024 <__subdf3+0x1de>
   20ea8:	1a088a63          	beqz	a7,2105c <__subdf3+0x216>
   20eac:	008007b7          	lui	a5,0x800
   20eb0:	8f5d                	or	a4,a4,a5
   20eb2:	57c48f63          	beq	s1,t3,21430 <__subdf3+0x5ea>
   20eb6:	03800793          	li	a5,56
   20eba:	34b7c263          	blt	a5,a1,211fe <__subdf3+0x3b8>
   20ebe:	47fd                	li	a5,31
   20ec0:	48b7c363          	blt	a5,a1,21346 <__subdf3+0x500>
   20ec4:	02000793          	li	a5,32
   20ec8:	8f8d                	sub	a5,a5,a1
   20eca:	00bed9b3          	srl	s3,t4,a1
   20ece:	00f71833          	sll	a6,a4,a5
   20ed2:	00fe9eb3          	sll	t4,t4,a5
   20ed6:	01386833          	or	a6,a6,s3
   20eda:	00b75733          	srl	a4,a4,a1
   20ede:	01d039b3          	snez	s3,t4
   20ee2:	01386833          	or	a6,a6,s3
   20ee6:	40e30333          	sub	t1,t1,a4
   20eea:	410f09b3          	sub	s3,t5,a6
   20eee:	013f37b3          	sltu	a5,t5,s3
   20ef2:	40f30633          	sub	a2,t1,a5
   20ef6:	00861793          	slli	a5,a2,0x8
   20efa:	2407d263          	bgez	a5,2113e <__subdf3+0x2f8>
   20efe:	00800937          	lui	s2,0x800
   20f02:	197d                	addi	s2,s2,-1
   20f04:	01267933          	and	s2,a2,s2
   20f08:	2c090e63          	beqz	s2,211e4 <__subdf3+0x39e>
   20f0c:	854a                	mv	a0,s2
   20f0e:	2fc9                	jal	216e0 <__clzsi2>
   20f10:	ff850713          	addi	a4,a0,-8
   20f14:	02000793          	li	a5,32
   20f18:	8f99                	sub	a5,a5,a4
   20f1a:	00f9d7b3          	srl	a5,s3,a5
   20f1e:	00e91633          	sll	a2,s2,a4
   20f22:	8fd1                	or	a5,a5,a2
   20f24:	00e999b3          	sll	s3,s3,a4
   20f28:	2a974463          	blt	a4,s1,211d0 <__subdf3+0x38a>
   20f2c:	8f05                	sub	a4,a4,s1
   20f2e:	00170613          	addi	a2,a4,1 # 100001 <_data_lma+0xddaa9>
   20f32:	46fd                	li	a3,31
   20f34:	3ac6c463          	blt	a3,a2,212dc <__subdf3+0x496>
   20f38:	02000713          	li	a4,32
   20f3c:	8f11                	sub	a4,a4,a2
   20f3e:	00c9d6b3          	srl	a3,s3,a2
   20f42:	00e99833          	sll	a6,s3,a4
   20f46:	00e79733          	sll	a4,a5,a4
   20f4a:	8f55                	or	a4,a4,a3
   20f4c:	01003833          	snez	a6,a6
   20f50:	010769b3          	or	s3,a4,a6
   20f54:	00c7d633          	srl	a2,a5,a2
   20f58:	4481                	li	s1,0
   20f5a:	0079f793          	andi	a5,s3,7
   20f5e:	cf81                	beqz	a5,20f76 <__subdf3+0x130>
   20f60:	00f9f693          	andi	a3,s3,15
   20f64:	4791                	li	a5,4
   20f66:	00f68863          	beq	a3,a5,20f76 <__subdf3+0x130>
   20f6a:	00498693          	addi	a3,s3,4
   20f6e:	0136b833          	sltu	a6,a3,s3
   20f72:	9642                	add	a2,a2,a6
   20f74:	89b6                	mv	s3,a3
   20f76:	00861793          	slli	a5,a2,0x8
   20f7a:	1c07d663          	bgez	a5,21146 <__subdf3+0x300>
   20f7e:	00148713          	addi	a4,s1,1
   20f82:	7ff00793          	li	a5,2047
   20f86:	8805                	andi	s0,s0,1
   20f88:	20f70663          	beq	a4,a5,21194 <__subdf3+0x34e>
   20f8c:	ff8007b7          	lui	a5,0xff800
   20f90:	17fd                	addi	a5,a5,-1
   20f92:	8ff1                	and	a5,a5,a2
   20f94:	01d79813          	slli	a6,a5,0x1d
   20f98:	0039d993          	srli	s3,s3,0x3
   20f9c:	07a6                	slli	a5,a5,0x9
   20f9e:	01386833          	or	a6,a6,s3
   20fa2:	83b1                	srli	a5,a5,0xc
   20fa4:	7ff77713          	andi	a4,a4,2047
   20fa8:	00c79693          	slli	a3,a5,0xc
   20fac:	0752                	slli	a4,a4,0x14
   20fae:	82b1                	srli	a3,a3,0xc
   20fb0:	047e                	slli	s0,s0,0x1f
   20fb2:	8ed9                	or	a3,a3,a4
   20fb4:	8ec1                	or	a3,a3,s0
   20fb6:	40f2                	lw	ra,28(sp)
   20fb8:	4462                	lw	s0,24(sp)
   20fba:	44d2                	lw	s1,20(sp)
   20fbc:	4942                	lw	s2,16(sp)
   20fbe:	49b2                	lw	s3,12(sp)
   20fc0:	8542                	mv	a0,a6
   20fc2:	85b6                	mv	a1,a3
   20fc4:	6105                	addi	sp,sp,32
   20fc6:	8082                	ret
   20fc8:	0ab05663          	blez	a1,21074 <__subdf3+0x22e>
   20fcc:	12088a63          	beqz	a7,21100 <__subdf3+0x2ba>
   20fd0:	008007b7          	lui	a5,0x800
   20fd4:	8f5d                	or	a4,a4,a5
   20fd6:	2dc48663          	beq	s1,t3,212a2 <__subdf3+0x45c>
   20fda:	03800793          	li	a5,56
   20fde:	18b7c763          	blt	a5,a1,2116c <__subdf3+0x326>
   20fe2:	47fd                	li	a5,31
   20fe4:	3cb7d163          	bge	a5,a1,213a6 <__subdf3+0x560>
   20fe8:	fe058813          	addi	a6,a1,-32
   20fec:	02000793          	li	a5,32
   20ff0:	010759b3          	srl	s3,a4,a6
   20ff4:	00f58a63          	beq	a1,a5,21008 <__subdf3+0x1c2>
   20ff8:	04000793          	li	a5,64
   20ffc:	40b785b3          	sub	a1,a5,a1
   21000:	00b71733          	sll	a4,a4,a1
   21004:	00eeeeb3          	or	t4,t4,a4
   21008:	01d03833          	snez	a6,t4
   2100c:	01386833          	or	a6,a6,s3
   21010:	a295                	j	21174 <__subdf3+0x32e>
   21012:	01d767b3          	or	a5,a4,t4
   21016:	80148593          	addi	a1,s1,-2047
   2101a:	e399                	bnez	a5,21020 <__subdf3+0x1da>
   2101c:	0016c693          	xori	a3,a3,1
   21020:	04d40a63          	beq	s0,a3,21074 <__subdf3+0x22e>
   21024:	e1d1                	bnez	a1,210a8 <__subdf3+0x262>
   21026:	00148793          	addi	a5,s1,1
   2102a:	7fe7f793          	andi	a5,a5,2046
   2102e:	1e079863          	bnez	a5,2121e <__subdf3+0x3d8>
   21032:	01e367b3          	or	a5,t1,t5
   21036:	01d76833          	or	a6,a4,t4
   2103a:	16049263          	bnez	s1,2119e <__subdf3+0x358>
   2103e:	3c078163          	beqz	a5,21400 <__subdf3+0x5ba>
   21042:	42081563          	bnez	a6,2146c <__subdf3+0x626>
   21046:	00351813          	slli	a6,a0,0x3
   2104a:	01d31693          	slli	a3,t1,0x1d
   2104e:	00385813          	srli	a6,a6,0x3
   21052:	0106e833          	or	a6,a3,a6
   21056:	00335793          	srli	a5,t1,0x3
   2105a:	a219                	j	21160 <__subdf3+0x31a>
   2105c:	01d767b3          	or	a5,a4,t4
   21060:	1a078463          	beqz	a5,21208 <__subdf3+0x3c2>
   21064:	fff58793          	addi	a5,a1,-1
   21068:	3a078a63          	beqz	a5,2141c <__subdf3+0x5d6>
   2106c:	23c58b63          	beq	a1,t3,212a2 <__subdf3+0x45c>
   21070:	85be                	mv	a1,a5
   21072:	b591                	j	20eb6 <__subdf3+0x70>
   21074:	1c059863          	bnez	a1,21244 <__subdf3+0x3fe>
   21078:	00148693          	addi	a3,s1,1
   2107c:	7fe6f793          	andi	a5,a3,2046
   21080:	efc1                	bnez	a5,21118 <__subdf3+0x2d2>
   21082:	01e367b3          	or	a5,t1,t5
   21086:	34049f63          	bnez	s1,213e4 <__subdf3+0x59e>
   2108a:	44078c63          	beqz	a5,214e2 <__subdf3+0x69c>
   2108e:	01d767b3          	or	a5,a4,t4
   21092:	46079363          	bnez	a5,214f8 <__subdf3+0x6b2>
   21096:	050e                	slli	a0,a0,0x3
   21098:	01d31813          	slli	a6,t1,0x1d
   2109c:	810d                	srli	a0,a0,0x3
   2109e:	00a86833          	or	a6,a6,a0
   210a2:	00335793          	srli	a5,t1,0x3
   210a6:	a86d                	j	21160 <__subdf3+0x31a>
   210a8:	409885b3          	sub	a1,a7,s1
   210ac:	20049663          	bnez	s1,212b8 <__subdf3+0x472>
   210b0:	01e367b3          	or	a5,t1,t5
   210b4:	30078c63          	beqz	a5,213cc <__subdf3+0x586>
   210b8:	fff58793          	addi	a5,a1,-1
   210bc:	40078863          	beqz	a5,214cc <__subdf3+0x686>
   210c0:	7ff00513          	li	a0,2047
   210c4:	20a58263          	beq	a1,a0,212c8 <__subdf3+0x482>
   210c8:	85be                	mv	a1,a5
   210ca:	03800793          	li	a5,56
   210ce:	2ab7c163          	blt	a5,a1,21370 <__subdf3+0x52a>
   210d2:	47fd                	li	a5,31
   210d4:	3cb7c763          	blt	a5,a1,214a2 <__subdf3+0x65c>
   210d8:	02000793          	li	a5,32
   210dc:	8f8d                	sub	a5,a5,a1
   210de:	00f31833          	sll	a6,t1,a5
   210e2:	00bf5633          	srl	a2,t5,a1
   210e6:	00ff17b3          	sll	a5,t5,a5
   210ea:	00c86833          	or	a6,a6,a2
   210ee:	00f039b3          	snez	s3,a5
   210f2:	00b35333          	srl	t1,t1,a1
   210f6:	01386833          	or	a6,a6,s3
   210fa:	40670733          	sub	a4,a4,t1
   210fe:	acad                	j	21378 <__subdf3+0x532>
   21100:	01d767b3          	or	a5,a4,t4
   21104:	10078263          	beqz	a5,21208 <__subdf3+0x3c2>
   21108:	fff58793          	addi	a5,a1,-1
   2110c:	1e078e63          	beqz	a5,21308 <__subdf3+0x4c2>
   21110:	2dc58f63          	beq	a1,t3,213ee <__subdf3+0x5a8>
   21114:	85be                	mv	a1,a5
   21116:	b5d1                	j	20fda <__subdf3+0x194>
   21118:	7ff00793          	li	a5,2047
   2111c:	06f68b63          	beq	a3,a5,21192 <__subdf3+0x34c>
   21120:	9efa                	add	t4,t4,t5
   21122:	01eeb633          	sltu	a2,t4,t5
   21126:	00e307b3          	add	a5,t1,a4
   2112a:	97b2                	add	a5,a5,a2
   2112c:	01f79813          	slli	a6,a5,0x1f
   21130:	001ede93          	srli	t4,t4,0x1
   21134:	01d869b3          	or	s3,a6,t4
   21138:	0017d613          	srli	a2,a5,0x1
   2113c:	84b6                	mv	s1,a3
   2113e:	0079f793          	andi	a5,s3,7
   21142:	e0079fe3          	bnez	a5,20f60 <__subdf3+0x11a>
   21146:	01d61793          	slli	a5,a2,0x1d
   2114a:	0039d813          	srli	a6,s3,0x3
   2114e:	00f86833          	or	a6,a6,a5
   21152:	85a6                	mv	a1,s1
   21154:	00365793          	srli	a5,a2,0x3
   21158:	7ff00713          	li	a4,2047
   2115c:	06e58063          	beq	a1,a4,211bc <__subdf3+0x376>
   21160:	07b2                	slli	a5,a5,0xc
   21162:	83b1                	srli	a5,a5,0xc
   21164:	7ff5f713          	andi	a4,a1,2047
   21168:	8805                	andi	s0,s0,1
   2116a:	bd3d                	j	20fa8 <__subdf3+0x162>
   2116c:	01d76733          	or	a4,a4,t4
   21170:	00e03833          	snez	a6,a4
   21174:	01e809b3          	add	s3,a6,t5
   21178:	01e9b7b3          	sltu	a5,s3,t5
   2117c:	00678633          	add	a2,a5,t1
   21180:	00861793          	slli	a5,a2,0x8
   21184:	fa07dde3          	bgez	a5,2113e <__subdf3+0x2f8>
   21188:	0485                	addi	s1,s1,1
   2118a:	7ff00793          	li	a5,2047
   2118e:	18f49b63          	bne	s1,a5,21324 <__subdf3+0x4de>
   21192:	8805                	andi	s0,s0,1
   21194:	7ff00713          	li	a4,2047
   21198:	4781                	li	a5,0
   2119a:	4801                	li	a6,0
   2119c:	b531                	j	20fa8 <__subdf3+0x162>
   2119e:	10079063          	bnez	a5,2129e <__subdf3+0x458>
   211a2:	3c080063          	beqz	a6,21562 <__subdf3+0x71c>
   211a6:	00361813          	slli	a6,a2,0x3
   211aa:	01d71793          	slli	a5,a4,0x1d
   211ae:	00385813          	srli	a6,a6,0x3
   211b2:	00f86833          	or	a6,a6,a5
   211b6:	8436                	mv	s0,a3
   211b8:	00375793          	srli	a5,a4,0x3
   211bc:	00f867b3          	or	a5,a6,a5
   211c0:	dbe9                	beqz	a5,21192 <__subdf3+0x34c>
   211c2:	4401                	li	s0,0
   211c4:	7ff00713          	li	a4,2047
   211c8:	000807b7          	lui	a5,0x80
   211cc:	4801                	li	a6,0
   211ce:	bbe9                	j	20fa8 <__subdf3+0x162>
   211d0:	ff800637          	lui	a2,0xff800
   211d4:	167d                	addi	a2,a2,-1
   211d6:	8e7d                	and	a2,a2,a5
   211d8:	0079f793          	andi	a5,s3,7
   211dc:	8c99                	sub	s1,s1,a4
   211de:	d80791e3          	bnez	a5,20f60 <__subdf3+0x11a>
   211e2:	b795                	j	21146 <__subdf3+0x300>
   211e4:	854e                	mv	a0,s3
   211e6:	29ed                	jal	216e0 <__clzsi2>
   211e8:	01850713          	addi	a4,a0,24
   211ec:	47fd                	li	a5,31
   211ee:	d2e7d3e3          	bge	a5,a4,20f14 <__subdf3+0xce>
   211f2:	ff850613          	addi	a2,a0,-8
   211f6:	00c997b3          	sll	a5,s3,a2
   211fa:	4981                	li	s3,0
   211fc:	b335                	j	20f28 <__subdf3+0xe2>
   211fe:	01d76833          	or	a6,a4,t4
   21202:	01003833          	snez	a6,a6
   21206:	b1d5                	j	20eea <__subdf3+0xa4>
   21208:	00351813          	slli	a6,a0,0x3
   2120c:	01d31793          	slli	a5,t1,0x1d
   21210:	00385813          	srli	a6,a6,0x3
   21214:	00f86833          	or	a6,a6,a5
   21218:	00335793          	srli	a5,t1,0x3
   2121c:	bf35                	j	21158 <__subdf3+0x312>
   2121e:	41df09b3          	sub	s3,t5,t4
   21222:	40e30933          	sub	s2,t1,a4
   21226:	013f3633          	sltu	a2,t5,s3
   2122a:	40c90933          	sub	s2,s2,a2
   2122e:	00891793          	slli	a5,s2,0x8
   21232:	2007ca63          	bltz	a5,21446 <__subdf3+0x600>
   21236:	0129e833          	or	a6,s3,s2
   2123a:	cc0817e3          	bnez	a6,20f08 <__subdf3+0xc2>
   2123e:	4781                	li	a5,0
   21240:	4401                	li	s0,0
   21242:	bf39                	j	21160 <__subdf3+0x31a>
   21244:	409885b3          	sub	a1,a7,s1
   21248:	14048163          	beqz	s1,2138a <__subdf3+0x544>
   2124c:	008006b7          	lui	a3,0x800
   21250:	7ff00793          	li	a5,2047
   21254:	00d36333          	or	t1,t1,a3
   21258:	20f88163          	beq	a7,a5,2145a <__subdf3+0x614>
   2125c:	03800793          	li	a5,56
   21260:	22b7cc63          	blt	a5,a1,21498 <__subdf3+0x652>
   21264:	47fd                	li	a5,31
   21266:	2cb7c963          	blt	a5,a1,21538 <__subdf3+0x6f2>
   2126a:	02000793          	li	a5,32
   2126e:	8f8d                	sub	a5,a5,a1
   21270:	00f31833          	sll	a6,t1,a5
   21274:	00bf56b3          	srl	a3,t5,a1
   21278:	00ff17b3          	sll	a5,t5,a5
   2127c:	00d86833          	or	a6,a6,a3
   21280:	00f039b3          	snez	s3,a5
   21284:	00b35333          	srl	t1,t1,a1
   21288:	01386833          	or	a6,a6,s3
   2128c:	971a                	add	a4,a4,t1
   2128e:	01d809b3          	add	s3,a6,t4
   21292:	01d9b7b3          	sltu	a5,s3,t4
   21296:	00e78633          	add	a2,a5,a4
   2129a:	84c6                	mv	s1,a7
   2129c:	b5d5                	j	21180 <__subdf3+0x33a>
   2129e:	f20812e3          	bnez	a6,211c2 <__subdf3+0x37c>
   212a2:	00351813          	slli	a6,a0,0x3
   212a6:	01d31793          	slli	a5,t1,0x1d
   212aa:	00385813          	srli	a6,a6,0x3
   212ae:	00f86833          	or	a6,a6,a5
   212b2:	00335793          	srli	a5,t1,0x3
   212b6:	b719                	j	211bc <__subdf3+0x376>
   212b8:	00800537          	lui	a0,0x800
   212bc:	7ff00793          	li	a5,2047
   212c0:	00a36333          	or	t1,t1,a0
   212c4:	e0f893e3          	bne	a7,a5,210ca <__subdf3+0x284>
   212c8:	060e                	slli	a2,a2,0x3
   212ca:	01d71813          	slli	a6,a4,0x1d
   212ce:	820d                	srli	a2,a2,0x3
   212d0:	00c86833          	or	a6,a6,a2
   212d4:	00375793          	srli	a5,a4,0x3
   212d8:	8436                	mv	s0,a3
   212da:	b5cd                	j	211bc <__subdf3+0x376>
   212dc:	1705                	addi	a4,a4,-31
   212de:	02000693          	li	a3,32
   212e2:	00e7d733          	srl	a4,a5,a4
   212e6:	00d60a63          	beq	a2,a3,212fa <__subdf3+0x4b4>
   212ea:	04000693          	li	a3,64
   212ee:	40c68633          	sub	a2,a3,a2
   212f2:	00c79633          	sll	a2,a5,a2
   212f6:	00c9e9b3          	or	s3,s3,a2
   212fa:	01303833          	snez	a6,s3
   212fe:	00e869b3          	or	s3,a6,a4
   21302:	4601                	li	a2,0
   21304:	4481                	li	s1,0
   21306:	bd25                	j	2113e <__subdf3+0x2f8>
   21308:	01df09b3          	add	s3,t5,t4
   2130c:	00e307b3          	add	a5,t1,a4
   21310:	01e9bf33          	sltu	t5,s3,t5
   21314:	01e78633          	add	a2,a5,t5
   21318:	00861793          	slli	a5,a2,0x8
   2131c:	4485                	li	s1,1
   2131e:	e207d0e3          	bgez	a5,2113e <__subdf3+0x2f8>
   21322:	4489                	li	s1,2
   21324:	ff8007b7          	lui	a5,0xff800
   21328:	17fd                	addi	a5,a5,-1
   2132a:	8ff1                	and	a5,a5,a2
   2132c:	0019d713          	srli	a4,s3,0x1
   21330:	0019f813          	andi	a6,s3,1
   21334:	01076833          	or	a6,a4,a6
   21338:	01f79993          	slli	s3,a5,0x1f
   2133c:	0109e9b3          	or	s3,s3,a6
   21340:	0017d613          	srli	a2,a5,0x1
   21344:	b919                	j	20f5a <__subdf3+0x114>
   21346:	fe058813          	addi	a6,a1,-32
   2134a:	02000793          	li	a5,32
   2134e:	010759b3          	srl	s3,a4,a6
   21352:	00f58a63          	beq	a1,a5,21366 <__subdf3+0x520>
   21356:	04000793          	li	a5,64
   2135a:	40b785b3          	sub	a1,a5,a1
   2135e:	00b71733          	sll	a4,a4,a1
   21362:	00eeeeb3          	or	t4,t4,a4
   21366:	01d03833          	snez	a6,t4
   2136a:	01386833          	or	a6,a6,s3
   2136e:	beb5                	j	20eea <__subdf3+0xa4>
   21370:	01e36333          	or	t1,t1,t5
   21374:	00603833          	snez	a6,t1
   21378:	410e89b3          	sub	s3,t4,a6
   2137c:	013eb7b3          	sltu	a5,t4,s3
   21380:	40f70633          	sub	a2,a4,a5
   21384:	84c6                	mv	s1,a7
   21386:	8436                	mv	s0,a3
   21388:	b6bd                	j	20ef6 <__subdf3+0xb0>
   2138a:	01e367b3          	or	a5,t1,t5
   2138e:	18078763          	beqz	a5,2151c <__subdf3+0x6d6>
   21392:	fff58793          	addi	a5,a1,-1
   21396:	1c078c63          	beqz	a5,2156e <__subdf3+0x728>
   2139a:	7ff00693          	li	a3,2047
   2139e:	0ad58e63          	beq	a1,a3,2145a <__subdf3+0x614>
   213a2:	85be                	mv	a1,a5
   213a4:	bd65                	j	2125c <__subdf3+0x416>
   213a6:	02000793          	li	a5,32
   213aa:	8f8d                	sub	a5,a5,a1
   213ac:	00bed9b3          	srl	s3,t4,a1
   213b0:	00f71833          	sll	a6,a4,a5
   213b4:	00fe9eb3          	sll	t4,t4,a5
   213b8:	01386833          	or	a6,a6,s3
   213bc:	00b75733          	srl	a4,a4,a1
   213c0:	01d039b3          	snez	s3,t4
   213c4:	01386833          	or	a6,a6,s3
   213c8:	933a                	add	t1,t1,a4
   213ca:	b36d                	j	21174 <__subdf3+0x32e>
   213cc:	00361813          	slli	a6,a2,0x3
   213d0:	01d71793          	slli	a5,a4,0x1d
   213d4:	00385813          	srli	a6,a6,0x3
   213d8:	0107e833          	or	a6,a5,a6
   213dc:	8436                	mv	s0,a3
   213de:	00375793          	srli	a5,a4,0x3
   213e2:	bb9d                	j	21158 <__subdf3+0x312>
   213e4:	cbbd                	beqz	a5,2145a <__subdf3+0x614>
   213e6:	01d76733          	or	a4,a4,t4
   213ea:	dc071ce3          	bnez	a4,211c2 <__subdf3+0x37c>
   213ee:	050e                	slli	a0,a0,0x3
   213f0:	01d31813          	slli	a6,t1,0x1d
   213f4:	810d                	srli	a0,a0,0x3
   213f6:	00a86833          	or	a6,a6,a0
   213fa:	00335793          	srli	a5,t1,0x3
   213fe:	bb7d                	j	211bc <__subdf3+0x376>
   21400:	e2080fe3          	beqz	a6,2123e <__subdf3+0x3f8>
   21404:	00361813          	slli	a6,a2,0x3
   21408:	01d71793          	slli	a5,a4,0x1d
   2140c:	00385813          	srli	a6,a6,0x3
   21410:	00f86833          	or	a6,a6,a5
   21414:	8436                	mv	s0,a3
   21416:	00375793          	srli	a5,a4,0x3
   2141a:	b399                	j	21160 <__subdf3+0x31a>
   2141c:	41df09b3          	sub	s3,t5,t4
   21420:	40e307b3          	sub	a5,t1,a4
   21424:	013f3f33          	sltu	t5,t5,s3
   21428:	41e78633          	sub	a2,a5,t5
   2142c:	4485                	li	s1,1
   2142e:	b4e1                	j	20ef6 <__subdf3+0xb0>
   21430:	00351813          	slli	a6,a0,0x3
   21434:	01d31693          	slli	a3,t1,0x1d
   21438:	00385813          	srli	a6,a6,0x3
   2143c:	0106e833          	or	a6,a3,a6
   21440:	00335793          	srli	a5,t1,0x3
   21444:	bba5                	j	211bc <__subdf3+0x376>
   21446:	41ee89b3          	sub	s3,t4,t5
   2144a:	40670633          	sub	a2,a4,t1
   2144e:	013eb933          	sltu	s2,t4,s3
   21452:	41260933          	sub	s2,a2,s2
   21456:	8436                	mv	s0,a3
   21458:	bc45                	j	20f08 <__subdf3+0xc2>
   2145a:	060e                	slli	a2,a2,0x3
   2145c:	01d71813          	slli	a6,a4,0x1d
   21460:	820d                	srli	a2,a2,0x3
   21462:	00c86833          	or	a6,a6,a2
   21466:	00375793          	srli	a5,a4,0x3
   2146a:	bb89                	j	211bc <__subdf3+0x376>
   2146c:	41df09b3          	sub	s3,t5,t4
   21470:	40e307b3          	sub	a5,t1,a4
   21474:	013f3633          	sltu	a2,t5,s3
   21478:	40c78633          	sub	a2,a5,a2
   2147c:	00861793          	slli	a5,a2,0x8
   21480:	0a07d763          	bgez	a5,2152e <__subdf3+0x6e8>
   21484:	41ee89b3          	sub	s3,t4,t5
   21488:	406707b3          	sub	a5,a4,t1
   2148c:	013ebeb3          	sltu	t4,t4,s3
   21490:	41d78633          	sub	a2,a5,t4
   21494:	8436                	mv	s0,a3
   21496:	b4d1                	j	20f5a <__subdf3+0x114>
   21498:	01e36333          	or	t1,t1,t5
   2149c:	00603833          	snez	a6,t1
   214a0:	b3fd                	j	2128e <__subdf3+0x448>
   214a2:	fe058813          	addi	a6,a1,-32
   214a6:	02000793          	li	a5,32
   214aa:	010359b3          	srl	s3,t1,a6
   214ae:	00f58a63          	beq	a1,a5,214c2 <__subdf3+0x67c>
   214b2:	04000793          	li	a5,64
   214b6:	40b785b3          	sub	a1,a5,a1
   214ba:	00b31333          	sll	t1,t1,a1
   214be:	006f6f33          	or	t5,t5,t1
   214c2:	01e03833          	snez	a6,t5
   214c6:	01386833          	or	a6,a6,s3
   214ca:	b57d                	j	21378 <__subdf3+0x532>
   214cc:	41ee89b3          	sub	s3,t4,t5
   214d0:	406707b3          	sub	a5,a4,t1
   214d4:	013ebeb3          	sltu	t4,t4,s3
   214d8:	41d78633          	sub	a2,a5,t4
   214dc:	8436                	mv	s0,a3
   214de:	4485                	li	s1,1
   214e0:	bc19                	j	20ef6 <__subdf3+0xb0>
   214e2:	00361813          	slli	a6,a2,0x3
   214e6:	01d71793          	slli	a5,a4,0x1d
   214ea:	00385813          	srli	a6,a6,0x3
   214ee:	00f86833          	or	a6,a6,a5
   214f2:	00375793          	srli	a5,a4,0x3
   214f6:	b1ad                	j	21160 <__subdf3+0x31a>
   214f8:	01df09b3          	add	s3,t5,t4
   214fc:	00e307b3          	add	a5,t1,a4
   21500:	01e9bf33          	sltu	t5,s3,t5
   21504:	01e78633          	add	a2,a5,t5
   21508:	00861793          	slli	a5,a2,0x8
   2150c:	c207d9e3          	bgez	a5,2113e <__subdf3+0x2f8>
   21510:	ff8007b7          	lui	a5,0xff800
   21514:	17fd                	addi	a5,a5,-1
   21516:	8e7d                	and	a2,a2,a5
   21518:	4485                	li	s1,1
   2151a:	b115                	j	2113e <__subdf3+0x2f8>
   2151c:	060e                	slli	a2,a2,0x3
   2151e:	01d71813          	slli	a6,a4,0x1d
   21522:	820d                	srli	a2,a2,0x3
   21524:	00c86833          	or	a6,a6,a2
   21528:	00375793          	srli	a5,a4,0x3
   2152c:	b135                	j	21158 <__subdf3+0x312>
   2152e:	00c9e833          	or	a6,s3,a2
   21532:	d00806e3          	beqz	a6,2123e <__subdf3+0x3f8>
   21536:	b121                	j	2113e <__subdf3+0x2f8>
   21538:	fe058813          	addi	a6,a1,-32
   2153c:	02000793          	li	a5,32
   21540:	010359b3          	srl	s3,t1,a6
   21544:	00f58a63          	beq	a1,a5,21558 <__subdf3+0x712>
   21548:	04000793          	li	a5,64
   2154c:	40b785b3          	sub	a1,a5,a1
   21550:	00b31333          	sll	t1,t1,a1
   21554:	006f6f33          	or	t5,t5,t1
   21558:	01e03833          	snez	a6,t5
   2155c:	01386833          	or	a6,a6,s3
   21560:	b33d                	j	2128e <__subdf3+0x448>
   21562:	4401                	li	s0,0
   21564:	7ff00713          	li	a4,2047
   21568:	000807b7          	lui	a5,0x80
   2156c:	bc35                	j	20fa8 <__subdf3+0x162>
   2156e:	01df09b3          	add	s3,t5,t4
   21572:	00e307b3          	add	a5,t1,a4
   21576:	01d9beb3          	sltu	t4,s3,t4
   2157a:	01d78633          	add	a2,a5,t4
   2157e:	bb69                	j	21318 <__subdf3+0x4d2>

00021580 <__fixunsdfsi>:
__fixunsdfsi():
   21580:	0145d793          	srli	a5,a1,0x14
   21584:	001006b7          	lui	a3,0x100
   21588:	fff68713          	addi	a4,a3,-1 # fffff <_data_lma+0xddaa7>
   2158c:	7ff7f793          	andi	a5,a5,2047
   21590:	3fe00613          	li	a2,1022
   21594:	882a                	mv	a6,a0
   21596:	8f6d                	and	a4,a4,a1
   21598:	4501                	li	a0,0
   2159a:	81fd                	srli	a1,a1,0x1f
   2159c:	00f65463          	bge	a2,a5,215a4 <__fixunsdfsi+0x24>
   215a0:	c199                	beqz	a1,215a6 <__fixunsdfsi+0x26>
   215a2:	8082                	ret
   215a4:	8082                	ret
   215a6:	41e00613          	li	a2,1054
   215aa:	557d                	li	a0,-1
   215ac:	fef64be3          	blt	a2,a5,215a2 <__fixunsdfsi+0x22>
   215b0:	43300513          	li	a0,1075
   215b4:	8d1d                	sub	a0,a0,a5
   215b6:	467d                	li	a2,31
   215b8:	8f55                	or	a4,a4,a3
   215ba:	00a64a63          	blt	a2,a0,215ce <__fixunsdfsi+0x4e>
   215be:	bed78793          	addi	a5,a5,-1043 # 7fbed <_data_lma+0x5d695>
   215c2:	00f71733          	sll	a4,a4,a5
   215c6:	00a85533          	srl	a0,a6,a0
   215ca:	8d59                	or	a0,a0,a4
   215cc:	8082                	ret
   215ce:	41300513          	li	a0,1043
   215d2:	40f507b3          	sub	a5,a0,a5
   215d6:	00f75533          	srl	a0,a4,a5
   215da:	8082                	ret

000215dc <__floatunsidf>:
__floatunsidf():
   215dc:	cd15                	beqz	a0,21618 <__floatunsidf+0x3c>
   215de:	1141                	addi	sp,sp,-16
   215e0:	c422                	sw	s0,8(sp)
   215e2:	c606                	sw	ra,12(sp)
   215e4:	842a                	mv	s0,a0
   215e6:	28ed                	jal	216e0 <__clzsi2>
   215e8:	41e00693          	li	a3,1054
   215ec:	8e89                	sub	a3,a3,a0
   215ee:	47a9                	li	a5,10
   215f0:	7ff6f693          	andi	a3,a3,2047
   215f4:	02a7dc63          	bge	a5,a0,2162c <__floatunsidf+0x50>
   215f8:	1555                	addi	a0,a0,-11
   215fa:	00a417b3          	sll	a5,s0,a0
   215fe:	07b2                	slli	a5,a5,0xc
   21600:	83b1                	srli	a5,a5,0xc
   21602:	4701                	li	a4,0
   21604:	40b2                	lw	ra,12(sp)
   21606:	4422                	lw	s0,8(sp)
   21608:	07b2                	slli	a5,a5,0xc
   2160a:	06d2                	slli	a3,a3,0x14
   2160c:	83b1                	srli	a5,a5,0xc
   2160e:	8fd5                	or	a5,a5,a3
   21610:	853a                	mv	a0,a4
   21612:	85be                	mv	a1,a5
   21614:	0141                	addi	sp,sp,16
   21616:	8082                	ret
   21618:	4781                	li	a5,0
   2161a:	4681                	li	a3,0
   2161c:	07b2                	slli	a5,a5,0xc
   2161e:	06d2                	slli	a3,a3,0x14
   21620:	83b1                	srli	a5,a5,0xc
   21622:	4701                	li	a4,0
   21624:	8fd5                	or	a5,a5,a3
   21626:	853a                	mv	a0,a4
   21628:	85be                	mv	a1,a5
   2162a:	8082                	ret
   2162c:	472d                	li	a4,11
   2162e:	8f09                	sub	a4,a4,a0
   21630:	00e457b3          	srl	a5,s0,a4
   21634:	07b2                	slli	a5,a5,0xc
   21636:	01550713          	addi	a4,a0,21 # 800015 <_data_lma+0x7ddabd>
   2163a:	00e41733          	sll	a4,s0,a4
   2163e:	83b1                	srli	a5,a5,0xc
   21640:	b7d1                	j	21604 <__floatunsidf+0x28>

00021642 <__fixunsdfdi>:
__fixunsdfdi():
   21642:	0145d793          	srli	a5,a1,0x14
   21646:	001006b7          	lui	a3,0x100
   2164a:	fff68713          	addi	a4,a3,-1 # fffff <_data_lma+0xddaa7>
   2164e:	7ff7f793          	andi	a5,a5,2047
   21652:	3fe00613          	li	a2,1022
   21656:	8f6d                	and	a4,a4,a1
   21658:	81fd                	srli	a1,a1,0x1f
   2165a:	00f65363          	bge	a2,a5,21660 <__fixunsdfdi+0x1e>
   2165e:	c581                	beqz	a1,21666 <__fixunsdfdi+0x24>
   21660:	4501                	li	a0,0
   21662:	4581                	li	a1,0
   21664:	8082                	ret
   21666:	43e00613          	li	a2,1086
   2166a:	00f65563          	bge	a2,a5,21674 <__fixunsdfdi+0x32>
   2166e:	557d                	li	a0,-1
   21670:	55fd                	li	a1,-1
   21672:	8082                	ret
   21674:	43200613          	li	a2,1074
   21678:	00d765b3          	or	a1,a4,a3
   2167c:	00f65c63          	bge	a2,a5,21694 <__fixunsdfdi+0x52>
   21680:	bad78713          	addi	a4,a5,-1107
   21684:	bcd78793          	addi	a5,a5,-1075
   21688:	04074063          	bltz	a4,216c8 <__fixunsdfdi+0x86>
   2168c:	00e515b3          	sll	a1,a0,a4
   21690:	4501                	li	a0,0
   21692:	8082                	ret
   21694:	43300693          	li	a3,1075
   21698:	8e9d                	sub	a3,a3,a5
   2169a:	477d                	li	a4,31
   2169c:	00d75b63          	bge	a4,a3,216b2 <__fixunsdfdi+0x70>
   216a0:	41300713          	li	a4,1043
   216a4:	40f707b3          	sub	a5,a4,a5
   216a8:	00f5d7b3          	srl	a5,a1,a5
   216ac:	4581                	li	a1,0
   216ae:	853e                	mv	a0,a5
   216b0:	8082                	ret
   216b2:	bed78713          	addi	a4,a5,-1043
   216b6:	00e59733          	sll	a4,a1,a4
   216ba:	00d55533          	srl	a0,a0,a3
   216be:	00a767b3          	or	a5,a4,a0
   216c2:	00d5d5b3          	srl	a1,a1,a3
   216c6:	b7e5                	j	216ae <__fixunsdfdi+0x6c>
   216c8:	46fd                	li	a3,31
   216ca:	00155713          	srli	a4,a0,0x1
   216ce:	8e9d                	sub	a3,a3,a5
   216d0:	00d75733          	srl	a4,a4,a3
   216d4:	00f595b3          	sll	a1,a1,a5
   216d8:	8dd9                	or	a1,a1,a4
   216da:	00f51533          	sll	a0,a0,a5
   216de:	8082                	ret

000216e0 <__clzsi2>:
__clzsi2():
   216e0:	67c1                	lui	a5,0x10
   216e2:	02f57e63          	bgeu	a0,a5,2171e <__clzsi2+0x3e>
   216e6:	0ff00793          	li	a5,255
   216ea:	02000713          	li	a4,32
   216ee:	00a7ec63          	bltu	a5,a0,21706 <__clzsi2+0x26>
   216f2:	00001797          	auipc	a5,0x1
   216f6:	d6678793          	addi	a5,a5,-666 # 22458 <__clz_tab>
   216fa:	97aa                	add	a5,a5,a0
   216fc:	0007c503          	lbu	a0,0(a5)
   21700:	40a70533          	sub	a0,a4,a0
   21704:	8082                	ret
   21706:	8121                	srli	a0,a0,0x8
   21708:	00001797          	auipc	a5,0x1
   2170c:	d5078793          	addi	a5,a5,-688 # 22458 <__clz_tab>
   21710:	97aa                	add	a5,a5,a0
   21712:	0007c503          	lbu	a0,0(a5)
   21716:	4761                	li	a4,24
   21718:	40a70533          	sub	a0,a4,a0
   2171c:	8082                	ret
   2171e:	010007b7          	lui	a5,0x1000
   21722:	00f56e63          	bltu	a0,a5,2173e <__clzsi2+0x5e>
   21726:	8161                	srli	a0,a0,0x18
   21728:	00001797          	auipc	a5,0x1
   2172c:	d3078793          	addi	a5,a5,-720 # 22458 <__clz_tab>
   21730:	97aa                	add	a5,a5,a0
   21732:	0007c503          	lbu	a0,0(a5)
   21736:	4721                	li	a4,8
   21738:	40a70533          	sub	a0,a4,a0
   2173c:	8082                	ret
   2173e:	8141                	srli	a0,a0,0x10
   21740:	00001797          	auipc	a5,0x1
   21744:	d1878793          	addi	a5,a5,-744 # 22458 <__clz_tab>
   21748:	97aa                	add	a5,a5,a0
   2174a:	0007c503          	lbu	a0,0(a5)
   2174e:	4741                	li	a4,16
   21750:	40a70533          	sub	a0,a4,a0
   21754:	8082                	ret

00021756 <memcpy>:
memcpy():
   21756:	00a5c7b3          	xor	a5,a1,a0
   2175a:	8b8d                	andi	a5,a5,3
   2175c:	00c50733          	add	a4,a0,a2
   21760:	e781                	bnez	a5,21768 <memcpy+0x12>
   21762:	478d                	li	a5,3
   21764:	00c7ee63          	bltu	a5,a2,21780 <memcpy+0x2a>
   21768:	87aa                	mv	a5,a0
   2176a:	0ae57063          	bgeu	a0,a4,2180a <memcpy+0xb4>
   2176e:	0005c683          	lbu	a3,0(a1)
   21772:	0785                	addi	a5,a5,1
   21774:	0585                	addi	a1,a1,1
   21776:	fed78fa3          	sb	a3,-1(a5)
   2177a:	fee7eae3          	bltu	a5,a4,2176e <memcpy+0x18>
   2177e:	8082                	ret
   21780:	00357693          	andi	a3,a0,3
   21784:	87aa                	mv	a5,a0
   21786:	ca91                	beqz	a3,2179a <memcpy+0x44>
   21788:	0005c683          	lbu	a3,0(a1)
   2178c:	0785                	addi	a5,a5,1
   2178e:	0585                	addi	a1,a1,1
   21790:	fed78fa3          	sb	a3,-1(a5)
   21794:	0037f693          	andi	a3,a5,3
   21798:	b7fd                	j	21786 <memcpy+0x30>
   2179a:	ffc77693          	andi	a3,a4,-4
   2179e:	fe068613          	addi	a2,a3,-32
   217a2:	06c7f063          	bgeu	a5,a2,21802 <memcpy+0xac>
   217a6:	0005a383          	lw	t2,0(a1)
   217aa:	0045a283          	lw	t0,4(a1)
   217ae:	0085af83          	lw	t6,8(a1)
   217b2:	00c5af03          	lw	t5,12(a1)
   217b6:	0105ae83          	lw	t4,16(a1)
   217ba:	0145ae03          	lw	t3,20(a1)
   217be:	0185a303          	lw	t1,24(a1)
   217c2:	01c5a883          	lw	a7,28(a1)
   217c6:	02458593          	addi	a1,a1,36
   217ca:	0077a023          	sw	t2,0(a5)
   217ce:	ffc5a803          	lw	a6,-4(a1)
   217d2:	0057a223          	sw	t0,4(a5)
   217d6:	01f7a423          	sw	t6,8(a5)
   217da:	01e7a623          	sw	t5,12(a5)
   217de:	01d7a823          	sw	t4,16(a5)
   217e2:	01c7aa23          	sw	t3,20(a5)
   217e6:	0067ac23          	sw	t1,24(a5)
   217ea:	0117ae23          	sw	a7,28(a5)
   217ee:	02478793          	addi	a5,a5,36
   217f2:	ff07ae23          	sw	a6,-4(a5)
   217f6:	b775                	j	217a2 <memcpy+0x4c>
   217f8:	4190                	lw	a2,0(a1)
   217fa:	0791                	addi	a5,a5,4
   217fc:	0591                	addi	a1,a1,4
   217fe:	fec7ae23          	sw	a2,-4(a5)
   21802:	fed7ebe3          	bltu	a5,a3,217f8 <memcpy+0xa2>
   21806:	f6e7e4e3          	bltu	a5,a4,2176e <memcpy+0x18>
   2180a:	8082                	ret

0002180c <strlen>:
strlen():
   2180c:	87aa                	mv	a5,a0
   2180e:	0785                	addi	a5,a5,1
   21810:	fff7c703          	lbu	a4,-1(a5)
   21814:	ff6d                	bnez	a4,2180e <strlen+0x2>
   21816:	40a78533          	sub	a0,a5,a0
   2181a:	157d                	addi	a0,a0,-1
   2181c:	8082                	ret
   2181e:	0000                	unimp
   21820:	1ba0                	addi	s0,sp,504
   21822:	0002                	c.slli64	zero
   21824:	1bac                	addi	a1,sp,504
   21826:	0002                	c.slli64	zero
   21828:	1bb8                	addi	a4,sp,504
   2182a:	0002                	c.slli64	zero
   2182c:	1bc4                	addi	s1,sp,500
   2182e:	0002                	c.slli64	zero
   21830:	1bd0                	addi	a2,sp,500
   21832:	0002                	c.slli64	zero
   21834:	1bd8                	addi	a4,sp,500
   21836:	0002                	c.slli64	zero
   21838:	1be4                	addi	s1,sp,508
   2183a:	0002                	c.slli64	zero
   2183c:	1bf0                	addi	a2,sp,508
   2183e:	0002                	c.slli64	zero
   21840:	c86e                	sw	s11,16(sp)
   21842:	0001                	nop
   21844:	c6be                	sw	a5,76(sp)
   21846:	0001                	nop
   21848:	c762                	sw	s8,140(sp)
   2184a:	0001                	nop
   2184c:	c7b6                	sw	a3,204(sp)
   2184e:	0001                	nop
   21850:	c86e                	sw	s11,16(sp)
   21852:	0001                	nop
   21854:	c86e                	sw	s11,16(sp)
   21856:	0001                	nop
   21858:	c802                	sw	zero,16(sp)
   2185a:	0001                	nop
   2185c:	c83a                	sw	a4,16(sp)
   2185e:	0001                	nop
   21860:	c712                	sw	tp,140(sp)
   21862:	0001                	nop
   21864:	c9a4                	sw	s1,80(a1)
   21866:	0001                	nop
   21868:	c95c                	sw	a5,20(a0)
   2186a:	0001                	nop
   2186c:	c976                	sw	t4,144(sp)
   2186e:	0001                	nop
   21870:	c982                	sw	zero,208(sp)
   21872:	0001                	nop
   21874:	c9a4                	sw	s1,80(a1)
   21876:	0001                	nop
   21878:	c9a4                	sw	s1,80(a1)
   2187a:	0001                	nop
   2187c:	c98e                	sw	gp,208(sp)
   2187e:	0001                	nop
   21880:	c99a                	sw	t1,208(sp)
   21882:	0001                	nop
   21884:	c968                	sw	a0,84(a0)
   21886:	0001                	nop
   21888:	bccaf5b3          	0xbccaf5b3
   2188c:	fdd2afbb          	0xfdd2afbb
   21890:	c5bd                	beqz	a1,218fe <strlen+0xf2>
   21892:	0000                	unimp
   21894:	2a2a                	fld	fs4,136(sp)
   21896:	2a2a                	fld	fs4,136(sp)
   21898:	2a2a                	fld	fs4,136(sp)
   2189a:	2a2a                	fld	fs4,136(sp)
   2189c:	2a2a                	fld	fs4,136(sp)
   2189e:	2a2a                	fld	fs4,136(sp)
   218a0:	2a2a                	fld	fs4,136(sp)
   218a2:	2a2a                	fld	fs4,136(sp)
   218a4:	2a2a                	fld	fs4,136(sp)
   218a6:	2a2a                	fld	fs4,136(sp)
   218a8:	2a2a                	fld	fs4,136(sp)
   218aa:	2a2a                	fld	fs4,136(sp)
   218ac:	2a2a                	fld	fs4,136(sp)
   218ae:	2a2a                	fld	fs4,136(sp)
   218b0:	2a2a                	fld	fs4,136(sp)
   218b2:	2a2a                	fld	fs4,136(sp)
   218b4:	2a2a                	fld	fs4,136(sp)
   218b6:	2a2a                	fld	fs4,136(sp)
   218b8:	2a2a                	fld	fs4,136(sp)
   218ba:	2a2a                	fld	fs4,136(sp)
   218bc:	2a2a                	fld	fs4,136(sp)
   218be:	2a2a                	fld	fs4,136(sp)
   218c0:	2a2a                	fld	fs4,136(sp)
   218c2:	2a2a                	fld	fs4,136(sp)
   218c4:	2a2a                	fld	fs4,136(sp)
   218c6:	2a2a                	fld	fs4,136(sp)
   218c8:	2a2a                	fld	fs4,136(sp)
   218ca:	0a0d                	addi	s4,s4,3
   218cc:	0000                	unimp
   218ce:	0000                	unimp
   218d0:	2020                	fld	fs0,64(s0)
   218d2:	2020                	fld	fs0,64(s0)
   218d4:	2020                	fld	fs0,64(s0)
   218d6:	2020                	fld	fs0,64(s0)
   218d8:	2020                	fld	fs0,64(s0)
   218da:	2020                	fld	fs0,64(s0)
   218dc:	2020                	fld	fs0,64(s0)
   218de:	2020                	fld	fs0,64(s0)
   218e0:	2020                	fld	fs0,64(s0)
   218e2:	4f45                	li	t5,17
   218e4:	5352                	lw	t1,52(sp)
   218e6:	ca20                	sw	s0,80(a2)
   218e8:	befd                	j	214e6 <__subdf3+0x6a0>
   218ea:	bcdd                	j	213e0 <__subdf3+0x59a>
   218ec:	bcc9b2af          	0xbcc9b2af
   218f0:	b3a4b9af          	0xb3a4b9af
   218f4:	0dcc                	addi	a1,sp,724
   218f6:	0d0a                	slli	s10,s10,0x2
   218f8:	000a                	c.slli	zero,0x2
   218fa:	0000                	unimp
   218fc:	b9ca                	fsd	fs2,240(sp)
   218fe:	b5cbc3d3          	0xb5cbc3d3
   21902:	0d3af7c3          	0xd3af7c3
   21906:	000a                	c.slli	zero,0x2
   21908:	3128                	fld	fa0,96(a0)
   2190a:	c429                	beqz	s0,21954 <strlen+0x148>
   2190c:	c8ac                	sw	a1,80(s1)
   2190e:	cba2b7cf          	fnmadd.d	fa5,ft5,fs10,fs9,rup
   21912:	bbcd                	j	21704 <__clzsi2+0x24>
   21914:	b6d2                	fsd	fs4,360(sp)
   21916:	cac8                	sw	a0,20(a3)
   21918:	befd                	j	21516 <__subdf3+0x6d0>
   2191a:	bcdd                	j	21410 <__subdf3+0x5ca>
   2191c:	cdaca3af          	0xcdaca3af
   21920:	b9a8                	fsd	fa0,112(a1)
   21922:	b4fd                	j	21410 <__subdf3+0x5ca>
   21924:	c3a5                	beqz	a5,21984 <strlen+0x178>
   21926:	bffe                	fsd	ft11,504(sp)
   21928:	b7aa                	fsd	fa0,488(sp)
   2192a:	b0a2                	fsd	fs0,96(sp)
   2192c:	d3e5                	beqz	a5,2190c <strlen+0x100>
   2192e:	c9d2                	sw	s4,208(sp)
   21930:	c7c7bdcf          	fnmadd.q	fs11,fa5,ft8,fs8,rup
   21934:	d3f8                	sw	a4,100(a5)
   21936:	b8f2                	fsd	ft8,112(sp)
   21938:	b1c4                	fsd	fs1,160(a1)
   2193a:	b7e4                	fsd	fs1,232(a5)
   2193c:	cba2                	sw	s0,212(sp)
   2193e:	c4cd                	beqz	s1,219e8 <strlen+0x1dc>
   21940:	0dbdcaa3          	0xdbdcaa3
   21944:	000a                	c.slli	zero,0x2
   21946:	0000                	unimp
   21948:	3228                	fld	fa0,96(a2)
   2194a:	b429                	j	21354 <__subdf3+0x50e>
   2194c:	c3a5                	beqz	a5,219ac <strlen+0x1a0>
   2194e:	cafe                	sw	t6,84(sp)
   21950:	b4ae                	fsd	fa1,104(sp)
   21952:	bcce                	fsd	fs3,120(sp)
   21954:	54b4                	lw	a3,104(s1)
   21956:	43206973          	csrrsi	s2,0x432,0
   2195a:	746e756f          	jal	a0,1090a0 <_data_lma+0xe6b48>
   2195e:	efb4                	fsw	fa3,88(a5)
   21960:	bdb5                	j	217dc <memcpy+0x86>
   21962:	aeca                	fsd	fs2,344(sp)
   21964:	ceb4                	sw	a3,88(a3)
   21966:	f3ba                	fsw	fa4,228(sp)
   21968:	c720                	sw	s0,72(a4)
   2196a:	bbd0                	fsd	fa2,176(a5)
   2196c:	b3e4cabb          	0xb3e4cabb
   21970:	c4f6                	sw	t4,72(sp)
   21972:	20bdcaa3          	0x20bdcaa3
   21976:	b2b9                	j	212c4 <__subdf3+0x47e>
   21978:	d2bbd0d3          	0xd2bbd0d3
   2197c:	c8b6                	sw	a3,80(sp)
   2197e:	cab2ebd3          	0xcab2ebd3
   21982:	abc9                	j	21f54 <nAsciiDot+0x260>
   21984:	bdc1                	j	21854 <strlen+0x48>
   21986:	d6d6                	sw	s5,108(sp)
   21988:	a3c4                	fsd	fs1,128(a5)
   2198a:	bdca                	fsd	fs2,248(sp)
   2198c:	0a0d                	addi	s4,s4,3
   2198e:	0000                	unimp
   21990:	3328                	fld	fa0,96(a4)
   21992:	c829                	beqz	s0,219e4 <strlen+0x1d8>
   21994:	b4f4                	fsd	fa3,232(s1)
   21996:	c3a5                	beqz	a5,219f6 <strlen+0x1ea>
   21998:	bafe                	fsd	ft11,368(sp)
   2199a:	697354f3          	csrrwi	s1,0x697,6
   2199e:	4320                	lw	s0,64(a4)
   219a0:	746e756f          	jal	a0,1090e6 <_data_lma+0xe6b8e>
   219a4:	b5d6                	fsd	fs5,232(sp)
   219a6:	bbb2                	fsd	fa2,496(sp)
   219a8:	f6d4                	fsw	fa3,44(a3)
   219aa:	d3bc                	sw	a5,96(a5)
   219ac:	ebc7aca3          	sw	t3,-327(a5)
   219b0:	e9b2                	fsw	fa2,208(sp)
   219b2:	e5b0b4bf cfc9d3d7 	0xcfc9d3d7e5b0b4bf
   219ba:	c7ca                	sw	s2,204(sp)
   219bc:	d0d3f1b7          	lui	gp,0xd0d3f
   219c0:	ecd2                	fsw	fs4,88(sp)
   219c2:	efce                	fsw	fs3,220(sp)
   219c4:	c7caaca3          	sw	t3,-903(s5)
   219c8:	d0d3f1b7          	lui	gp,0xd0d3f
   219cc:	b8ba                	fsd	fa4,112(sp)
   219ce:	fcd4                	fsw	fa3,60(s1)
   219d0:	e7c8aca3          	sw	t3,-391(a7) # 7ffe79 <_data_lma+0x7dd921>
   219d4:	aca3d0d3          	0xaca3d0d3
   219d8:	e5c7ebc7          	0xe5c7ebc7
   219dc:	c9b8fdb3          	0xc9b8fdb3
   219e0:	bbbe                	fsd	fa5,496(sp)
   219e2:	0a0d                	addi	s4,s4,3
   219e4:	0000                	unimp
   219e6:	0000                	unimp
   219e8:	3428                	fld	fa0,104(s0)
   219ea:	bd29                	j	21804 <memcpy+0xae>
   219ec:	ccefceab          	0xccefceab
   219f0:	b5e5                	j	218d8 <strlen+0xcc>
   219f2:	cec4                	sw	s1,28(a3)
   219f4:	b7c3d6bb          	0xb7c3d6bb
   219f8:	d6c5                	beqz	a3,219a0 <strlen+0x194>
   219fa:	4cdad4c3          	0x4cdad4c3
   219fe:	f8b84443          	fmadd.s	fs0,fa6,fa1,ft11,rmm
   21a02:	c4b5f6b3          	0xc4b5f6b3
   21a06:	ecba                	fsw	fa4,88(sp)
   21a08:	d0d6f2bf 00000a0d 	0xa0dd0d6f2bf
   21a10:	3528                	fld	fa0,104(a0)
   21a12:	b429                	j	2141c <__subdf3+0x5d6>
   21a14:	bff2                	fsd	ft8,504(sp)
   21a16:	caaa                	sw	a0,84(sp)
   21a18:	befd                	j	21616 <__floatunsidf+0x3a>
   21a1a:	bddd                	j	21910 <strlen+0x104>
   21a1c:	b9d5cad3          	0xb9d5cad3
   21a20:	b3a4                	fsd	fs1,96(a5)
   21a22:	bdcc                	fsd	fa1,184(a1)
   21a24:	cad5cad3          	0xcad5cad3
   21a28:	befd                	j	21626 <__floatunsidf+0x4a>
   21a2a:	0ddd                	addi	s11,s11,23
   21a2c:	000a                	c.slli	zero,0x2
   21a2e:	0000                	unimp
   21a30:	2020                	fld	fs0,64(s0)
   21a32:	d720                	sw	s0,104(a4)
   21a34:	d2a2                	sw	s0,100(sp)
   21a36:	cae2                	sw	s8,84(sp)
   21a38:	cfc2                	sw	a6,220(sp)
   21a3a:	3aee                	fld	fs5,248(sp)
   21a3c:	0a0d                	addi	s4,s4,3
   21a3e:	0000                	unimp
   21a40:	2020                	fld	fs0,64(s0)
   21a42:	2020                	fld	fs0,64(s0)
   21a44:	2020                	fld	fs0,64(s0)
   21a46:	2020                	fld	fs0,64(s0)
   21a48:	2020                	fld	fs0,64(s0)
   21a4a:	2020                	fld	fs0,64(s0)
   21a4c:	3128                	fld	fa0,96(a0)
   21a4e:	4c29                	li	s8,10
   21a50:	ecba4443          	0xecba4443
   21a54:	d0d6f2bf e4c6dece 	0xe4c6deced0d6f2bf
   21a5c:	e0b6fbcb          	fnmsub.s	fs7,fa3,fa1,ft8
   21a60:	efcee0d3          	0xefcee0d3
   21a64:	e5cc                	fsw	fa1,12(a1)
   21a66:	0a0d                	addi	s4,s4,3
   21a68:	0000                	unimp
   21a6a:	0000                	unimp
   21a6c:	2020                	fld	fs0,64(s0)
   21a6e:	2020                	fld	fs0,64(s0)
   21a70:	2020                	fld	fs0,64(s0)
   21a72:	2020                	fld	fs0,64(s0)
   21a74:	2020                	fld	fs0,64(s0)
   21a76:	2020                	fld	fs0,64(s0)
   21a78:	3228                	fld	fa0,96(a2)
   21a7a:	b129                	j	21684 <__fixunsdfdi+0x42>
   21a7c:	cad6b3a3          	0xcad6b3a3
   21a80:	b1b6                	fsd	fa3,224(sp)
   21a82:	b3f0                	fsd	fa2,224(a5)
   21a84:	bea1                	j	215dc <__floatunsidf>
   21a86:	b9b0                	fsd	fa2,112(a1)
   21a88:	d5e2                	sw	s8,232(sp)
   21a8a:	c1d5                	beqz	a1,21b2e <strlen+0x322>
   21a8c:	babc                	fsd	fa5,112(a3)
   21a8e:	000a0dc3          	fmadd.s	fs11,fs4,ft0,ft0,rne
   21a92:	0000                	unimp
   21a94:	4941                	li	s2,16
   21a96:	452d                	li	a0,11
   21a98:	2053524f          	fnmadd.s	ft4,ft6,ft5,ft4,unknown
   21a9c:	6544                	flw	fs1,12(a0)
   21a9e:	6574                	flw	fa3,76(a0)
   21aa0:	44207463          	bgeu	zero,sp,21ee8 <nAsciiDot+0x1f4>
   21aa4:	7665                	lui	a2,0xffff9
   21aa6:	6369                	lui	t1,0x1a
   21aa8:	0065                	c.nop	25
   21aaa:	0000                	unimp
   21aac:	6144                	flw	fs1,4(a0)
   21aae:	6174                	flw	fa3,68(a0)
   21ab0:	4620                	lw	s0,72(a2)
   21ab2:	616d726f          	jal	tp,f90c8 <_data_lma+0xd6b70>
   21ab6:	3a74                	fld	fa3,240(a2)
   21ab8:	0000                	unimp
   21aba:	0000                	unimp
   21abc:	79617247          	fmsub.s	ft4,ft2,fs6,fa5
   21ac0:	0000                	unimp
   21ac2:	0000                	unimp
   21ac4:	7354                	flw	fa3,36(a4)
   21ac6:	2069                	jal	21b50 <strlen+0x344>
   21ac8:	6e756f43          	fmadd.q	ft10,fa0,ft7,fa3,unknown
   21acc:	3a74                	fld	fa3,240(a2)
   21ace:	0000                	unimp
   21ad0:	6544                	flw	fs1,12(a0)
   21ad2:	6976                	flw	fs2,92(sp)
   21ad4:	53206563          	bltu	zero,s2,21ffe <nAsciiDot+0x30a>
   21ad8:	6174                	flw	fa3,68(a0)
   21ada:	7574                	flw	fa3,108(a0)
   21adc:	00003a73          	csrrc	s4,ustatus,zero
   21ae0:	f0bd                	bnez	s1,21a46 <strlen+0x23a>
   21ae2:	f9ba                	fsw	fa4,240(sp)
   21ae4:	abc2                	fsd	fa6,464(sp)
   21ae6:	e1cc                	fsw	fa1,4(a1)
   21ae8:	beca                	fsd	fs2,376(sp)
   21aea:	d520baa3          	0xd520baa3
   21aee:	d4fd                	beqz	s1,21adc <strlen+0x2d0>
   21af0:	b3da                	fsd	fs6,480(sp)
   21af2:	caf5                	beqz	a3,21be6 <strlen+0x3da>
   21af4:	bbbc                	fsd	fa5,112(a5)
   21af6:	cfe3c9af          	0xcfe3c9af
   21afa:	cdf1                	beqz	a1,21bd6 <strlen+0x3ca>
   21afc:	2e2e2eb7          	lui	t4,0x2e2e2
   21b00:	2e2e                	fld	ft8,200(sp)
   21b02:	0a0d                	addi	s4,s4,3
   21b04:	0000                	unimp
   21b06:	0000                	unimp
   21b08:	f0bd                	bnez	s1,21a6e <strlen+0x262>
   21b0a:	f9ba                	fsw	fa4,240(sp)
   21b0c:	abc2                	fsd	fa6,464(sp)
   21b0e:	e1cc                	fsw	fa1,4(a1)
   21b10:	beca                	fsd	fs2,376(sp)
   21b12:	d520baa3          	0xd520baa3
   21b16:	d4fd                	beqz	s1,21b04 <strlen+0x2f8>
   21b18:	b3da                	fsd	fs6,480(sp)
   21b1a:	caf5                	beqz	a3,21c0e <strlen+0x402>
   21b1c:	bbbc                	fsd	fa5,112(a5)
   21b1e:	cfe3c9af          	0xcfe3c9af
   21b22:	cdf1                	beqz	a1,21bfe <strlen+0x3f2>
   21b24:	2e2e2eb7          	lui	t4,0x2e2e2
   21b28:	2e2e                	fld	ft8,200(sp)
   21b2a:	0000                	unimp
   21b2c:	a7ca                	fsd	fs2,456(sp)
   21b2e:	dcb0                	sw	a2,120(s1)
   21b30:	c9bfaca3          	sw	s11,-871(t6)
   21b34:	d8d6                	sw	s5,112(sp)
   21b36:	c2d0                	sw	a2,4(a3)
   21b38:	ceb0                	sw	a2,88(a3)
   21b3a:	e5b2                	fsw	fa2,200(sp)
   21b3c:	e3c9                	bnez	a5,21bbe <strlen+0x3b2>
   21b3e:	b7cdf1cf          	fnmadd.q	ft3,fs11,ft8,fs6
   21b42:	0a0da1a3          	sw	zero,163(s11)
   21b46:	0000                	unimp
   21b48:	f0bd                	bnez	s1,21aae <strlen+0x2a2>
   21b4a:	f9ba                	fsw	fa4,240(sp)
   21b4c:	abc2                	fsd	fa6,464(sp)
   21b4e:	e1cc                	fsw	fa1,4(a1)
   21b50:	beca                	fsd	fs2,376(sp)
   21b52:	cf20baa3          	0xcf20baa3
   21b56:	cdb5                	beqz	a1,21bd2 <strlen+0x3c6>
   21b58:	d6abbdb3          	0xd6abbdb3
   21b5c:	d0d8                	sw	a4,36(s1)
   21b5e:	b3c2                	fsd	fa6,480(sp)
   21b60:	caf5                	beqz	a3,21c54 <strlen+0x448>
   21b62:	bbbc                	fsd	fa5,112(a5)
   21b64:	cfe3c9af          	0xcfe3c9af
   21b68:	cdf1                	beqz	a1,21c44 <strlen+0x438>
   21b6a:	2e2e2eb7          	lui	t4,0x2e2e2
   21b6e:	0d2e                	slli	s10,s10,0xb
   21b70:	000a                	c.slli	zero,0x2
   21b72:	0000                	unimp
   21b74:	f0bd                	bnez	s1,21ada <strlen+0x2ce>
   21b76:	f9ba                	fsw	fa4,240(sp)
   21b78:	abc2                	fsd	fa6,464(sp)
   21b7a:	e1cc                	fsw	fa1,4(a1)
   21b7c:	beca                	fsd	fs2,376(sp)
   21b7e:	d520baa3          	0xd520baa3
   21b82:	d4fd                	beqz	s1,21b70 <strlen+0x364>
   21b84:	b3da                	fsd	fs6,480(sp)
   21b86:	caf5                	beqz	a3,21c7a <strlen+0x46e>
   21b88:	bbbc                	fsd	fa5,112(a5)
   21b8a:	cfe3c9af          	0xcfe3c9af
   21b8e:	cdf1                	beqz	a1,21c6a <strlen+0x45e>
   21b90:	2e2e2eb7          	lui	t4,0x2e2e2
   21b94:	2e2e                	fld	ft8,200(sp)
   21b96:	a6b9c9b3          	0xa6b9c9b3
   21b9a:	0a0d                	addi	s4,s4,3
   21b9c:	0000                	unimp
   21b9e:	0000                	unimp
   21ba0:	6e49                	lui	t3,0x12
   21ba2:	7469                	lui	s0,0xffffa
   21ba4:	4420                	lw	s0,72(s0)
   21ba6:	7665                	lui	a2,0xffff9
   21ba8:	6369                	lui	t1,0x1a
   21baa:	0065                	c.nop	25
   21bac:	204d4143          	fmadd.s	ft2,fs10,ft4,ft4,rmm
   21bb0:	7245                	lui	tp,0xffff1
   21bb2:	6f72                	flw	ft10,28(sp)
   21bb4:	0072                	c.slli	zero,0x1c
   21bb6:	0000                	unimp
   21bb8:	74746547          	0x74746547
   21bbc:	6e69                	lui	t3,0x1a
   21bbe:	6d492067          	0x6d492067
   21bc2:	72500067          	jr	1829(zero) # 0 <MCU_FLASH_ADDR_START>
   21bc6:	6465                	lui	s0,0x19
   21bc8:	6369                	lui	t1,0x1a
   21bca:	6974                	flw	fa3,84(a0)
   21bcc:	676e                	flw	fa4,216(sp)
   21bce:	0000                	unimp
   21bd0:	7552                	flw	fa0,52(sp)
   21bd2:	6e6e                	flw	ft8,216(sp)
   21bd4:	6e69                	lui	t3,0x1a
   21bd6:	6e490067          	jr	1764(s2) # 8006e4 <_data_lma+0x7de18c>
   21bda:	7469                	lui	s0,0xffffa
   21bdc:	63637553          	0x63637553
   21be0:	7365                	lui	t1,0xffff9
   21be2:	65530073          	0x65530073
   21be6:	646e                	flw	fs0,216(sp)
   21be8:	6e69                	lui	t3,0x1a
   21bea:	74614467          	0x74614467
   21bee:	0061                	c.nop	24
   21bf0:	6946                	flw	fs2,80(sp)
   21bf2:	746c                	flw	fa1,108(s0)
   21bf4:	7265                	lui	tp,0xffff9
   21bf6:	6e69                	lui	t3,0x1a
   21bf8:	72724567          	0x72724567
   21bfc:	0000726f          	jal	tp,28bfc <_data_lma+0x66a4>
   21c00:	3130                	fld	fa2,96(a0)
   21c02:	3332                	fld	ft6,296(sp)
   21c04:	3534                	fld	fa3,104(a0)
   21c06:	3736                	fld	fa4,360(sp)
   21c08:	3938                	fld	fa4,112(a0)
   21c0a:	4241                	li	tp,16
   21c0c:	46454443          	fmadd.q	fs0,fa0,ft4,fs0,rmm
   21c10:	3032                	fld	ft0,296(sp)
   21c12:	3032                	fld	ft0,296(sp)
   21c14:	3730                	fld	fa2,104(a4)
   21c16:	3631                	jal	21722 <__clzsi2+0x42>
   21c18:	0000                	unimp
   21c1a:	0000                	unimp
   21c1c:	2020                	fld	fs0,64(s0)
   21c1e:	bea1                	j	21776 <memcpy+0x20>
   21c20:	7355                	lui	t1,0xffff5
   21c22:	7265                	lui	tp,0xffff9
   21c24:	e1cc                	fsw	fa1,4(a1)
   21c26:	beca                	fsd	fs2,376(sp)
   21c28:	bfa1                	j	21b80 <strlen+0x374>
   21c2a:	d0d6baa3          	0xd0d6baa3
   21c2e:	cfb6                	sw	a3,220(sp)
   21c30:	ccbc                	sw	a5,88(s1)
   21c32:	0a0dd0b3          	0xa0dd0b3
   21c36:	0000                	unimp
   21c38:	2020                	fld	fs0,64(s0)
   21c3a:	bea1                	j	21792 <memcpy+0x3c>
   21c3c:	7355                	lui	t1,0xffff5
   21c3e:	7265                	lui	tp,0xffff9
   21c40:	e1cc                	fsw	fa1,4(a1)
   21c42:	beca                	fsd	fs2,376(sp)
   21c44:	bfa1                	j	21b9c <strlen+0x390>
   21c46:	abbdbaa3          	0xabbdbaa3
   21c4a:	f8bd                	bnez	s1,21bc0 <strlen+0x3b4>
   21c4c:	ebc8                	fsw	fa0,20(a5)
   21c4e:	7355                	lui	t1,0xffff5
   21c50:	7265                	lui	tp,0xffff9
   21c52:	c4b5                	beqz	s1,21cbe <GB_16+0x32>
   21c54:	616d                	addi	sp,sp,240
   21c56:	6e69                	lui	t3,0x1a
   21c58:	afba                	fsd	fa4,472(sp)
   21c5a:	fdca                	fsw	fs2,248(sp)
   21c5c:	b4d6                	fsd	fs5,104(sp)
   21c5e:	d0d0                	sw	a2,36(s1)
   21c60:	2e2e                	fld	ft8,200(sp)
   21c62:	0d2e                	slli	s10,s10,0xb
   21c64:	0a0a                	slli	s4,s4,0x2
   21c66:	0000                	unimp
   21c68:	eadc                	fsw	fa5,20(a3)
   21c6a:	0001                	nop
   21c6c:	ea96                	fsw	ft5,84(sp)
   21c6e:	0001                	nop
   21c70:	ebc4                	fsw	fs1,20(a5)
   21c72:	0001                	nop
   21c74:	ec00                	fsw	fs0,24(s0)
   21c76:	0001                	nop
   21c78:	ec3c                	fsw	fa5,88(s0)
   21c7a:	0001                	nop
   21c7c:	ec70                	fsw	fa2,92(s0)
   21c7e:	0001                	nop
   21c80:	ecca                	fsw	fs2,88(sp)
   21c82:	0001                	nop
   21c84:	ecf4                	fsw	fa3,92(s1)
   21c86:	0001                	nop
   21c88:	ed26                	fsw	fs1,152(sp)
   21c8a:	0001                	nop

00021c8c <GB_16>:
   21c8c:	f0bd 0080 0080 0140 0220 0410 0a08 77f4     ......@. ......w
   21c9c:	2083 0080 0ff8 0080 0888 0490 12a0 3ffe     . .............?
   21cac:	0000 f9ba 0220 2220 7fff 0220 3e10 2290     .... . ".. ..>."
   21cbc:	23fe 3e10 2250 22fc 3e44 2244 2244 227c     .#.>P"."D>D"D"|"
   21ccc:	2944 1080 abc2 0410 2410 7fff 0410 1080     D).......$......
   21cdc:	3ffc 1004 1004 1ffc 1004 0004 0004 0004     .?..............
   21cec:	0002 0002 0001 0000                         ........

00021cf4 <nAsciiDot>:
	...
   21d04:	0000 3c18 3c3c 1818 0018 1818 0000 0000     ...<<<..........
   21d14:	6600 6666 0024 0000 0000 0000 0000 0000     .fff$...........
   21d24:	0000 3600 7f36 3636 7f36 3636 0000 0000     ...66.666.66....
   21d34:	1818 633e 0343 603e 6361 183e 0018 0000     ..>cC.>`ac>.....
   21d44:	0000 0000 6343 1830 060c 6163 0000 0000     ....Cc0...ca....
   21d54:	0000 361c 1c36 3b6e 3333 6e33 0000 0000     ...66.n;333n....
   21d64:	0c00 0c0c 0006 0000 0000 0000 0000 0000     ................
   21d74:	0000 1830 0c0c 0c0c 0c0c 3018 0000 0000     ..0........0....
   21d84:	0000 180c 3030 3030 3030 0c18 0000 0000     ....000000......
   21d94:	0000 0000 6600 ff3c 663c 0000 0000 0000     .....f<.<f......
   21da4:	0000 0000 1800 7e18 1818 0000 0000 0000     .......~........
	...
   21dbc:	1800 1818 000c 0000 0000 0000 0000 7f00     ................
	...
   21ddc:	0000 1818 0000 0000 0000 0000 6040 1830     ............@`0.
   21dec:	060c 0103 0000 0000 0000 633e 7363 6b6b     ..........>ccskk
   21dfc:	6367 3e63 0000 0000 0000 1c18 181e 1818     gcc>............
   21e0c:	1818 7e18 0000 0000 0000 633e 3060 0c18     ...~......>c`0..
   21e1c:	0306 7f63 0000 0000 0000 633e 6060 603c     ..c.......>c``<`
   21e2c:	6060 3e63 0000 0000 0000 3830 363c 7f33     ``c>......08<63.
   21e3c:	3030 7830 0000 0000 0000 037f 0303 703f     000x..........?p
   21e4c:	6060 3e63 0000 0000 0000 061c 0303 633f     ``c>..........?c
   21e5c:	6363 3e63 0000 0000 0000 637f 6060 1830     ccc>.......c``0.
   21e6c:	0c0c 0c0c 0000 0000 0000 633e 6363 633e     ..........>ccc>c
   21e7c:	6363 3e63 0000 0000 0000 633e 6363 607e     ccc>......>ccc~`
   21e8c:	6060 1e30 0000 0000 0000 0000 1818 0000     ``0.............
   21e9c:	1800 0018 0000 0000 0000 0000 1818 0000     ................
   21eac:	1800 0c18 0000 0000 0000 6000 1830 060c     ...........`0...
   21ebc:	180c 6030 0000 0000 0000 0000 0000 007f     ..0`............
   21ecc:	7f00 0000 0000 0000 0000 0600 180c 6030     ..............0`
   21edc:	1830 060c 0000 0000 0000 633e 3063 1818     0.........>cc0..
   21eec:	0018 1818 0000 0000 0000 3e00 6363 7b7b     ...........>cc{{
   21efc:	3b7b 3e03 0000 0000 0000 1c08 6336 7f63     {;.>........6cc.
   21f0c:	6363 6363 0000 0000 0000 663f 6666 663e     cccc......?fff>f
   21f1c:	6666 3f66 0000 0000 0000 663c 0343 0303     fff?......<fC...
   21f2c:	4303 3c66 0000 0000 0000 361f 6666 6666     .Cf<.......6ffff
   21f3c:	6666 1f36 0000 0000 0000 667f 1646 161e     ff6........fF...
   21f4c:	4606 7f66 0000 0000 0000 667f 1646 161e     .Ff........fF...
   21f5c:	0606 0f06 0000 0000 0000 663c 0343 7b03     ..........<fC..{
   21f6c:	6363 5c66 0000 0000 0000 6363 6363 637f     ccf\......cccc.c
   21f7c:	6363 6363 0000 0000 0000 183c 1818 1818     cccc......<.....
   21f8c:	1818 3c18 0000 0000 0000 3078 3030 3030     ...<......x00000
   21f9c:	3333 1e33 0000 0000 0000 6667 3636 1e1e     333.......gf66..
   21fac:	6636 6766 0000 0000 0000 060f 0606 0606     6ffg............
   21fbc:	4606 7f66 0000 0000 0000 7763 7f7f 636b     .Ff.......cw..kc
   21fcc:	6363 6363 0000 0000 0000 6763 7f6f 737b     cccc......cgo.{s
   21fdc:	6363 6363 0000 0000 0000 361c 6363 6363     cccc.......6cccc
   21fec:	6363 1c36 0000 0000 0000 663f 6666 063e     cc6.......?fff>.
   21ffc:	0606 0f06 0000 0000 0000 633e 6363 6363     ..........>ccccc
   2200c:	6b63 3e7b 7030 0000 0000 663f 6666 363e     ck{>0p....?fff>6
   2201c:	6666 6766 0000 0000 0000 633e 0663 301c     fffg......>cc..0
   2202c:	6360 3e63 0000 0000 0000 7e7e 185a 1818     `cc>......~~Z...
   2203c:	1818 3c18 0000 0000 0000 6363 6363 6363     ...<......cccccc
   2204c:	6363 3e63 0000 0000 0000 6363 6363 6363     ccc>......cccccc
   2205c:	3663 081c 0000 0000 0000 6363 6363 6b63     c6........ccccck
   2206c:	7f6b 3636 0000 0000 0000 6363 3636 1c1c     k.66......cc66..
   2207c:	3636 6363 0000 0000 0000 6666 6666 183c     66cc......ffff<.
   2208c:	1818 3c18 0000 0000 0000 637f 3061 0c18     ...<.......ca0..
   2209c:	4306 7f63 0000 0000 0000 0c3c 0c0c 0c0c     .Cc.......<.....
   220ac:	0c0c 3c0c 0000 0000 0000 0100 0703 1c0e     ...<............
   220bc:	7038 4060 0000 0000 0000 303c 3030 3030     8p`@......<00000
   220cc:	3030 3c30 0000 0000 1c08 6336 0000 0000     000<......6c....
	...
   220f0:	ff00 0000 0c0c 0018 0000 0000 0000 0000     ................
	...
   22108:	1e00 3e30 3333 6e33 0000 0000 0000 0607     ..0>333n........
   22118:	1e06 6636 6666 3b66 0000 0000 0000 0000     ..6ffff;........
   22128:	3e00 0363 0303 3e63 0000 0000 0000 3038     .>c...c>......80
   22138:	3c30 3336 3333 6e33 0000 0000 0000 0000     0<63333n........
   22148:	3e00 7f63 0303 3e63 0000 0000 0000 361c     .>c...c>.......6
   22158:	0626 060f 0606 0f06 0000 0000 0000 0000     &...............
   22168:	6e00 3333 3333 3e33 3330 001e 0000 0607     .n33333>03......
   22178:	3606 666e 6666 6766 0000 0000 0000 1818     .6nffffg........
   22188:	1c00 1818 1818 3c18 0000 0000 0000 6060     .......<......``
   22198:	7000 6060 6060 6060 6666 003c 0000 0607     .p``````ff<.....
   221a8:	6606 1e36 361e 6766 0000 0000 0000 181c     .f6..6fg........
   221b8:	1818 1818 1818 3c18 0000 0000 0000 0000     .......<........
   221c8:	3700 6b7f 6b6b 6b6b 0000 0000 0000 0000     .7.kkkkk........
   221d8:	3b00 6666 6666 6666 0000 0000 0000 0000     .;ffffff........
   221e8:	3e00 6363 6363 3e63 0000 0000 0000 0000     .>ccccc>........
   221f8:	3b00 6666 6666 3e66 0606 000f 0000 0000     .;fffff>........
   22208:	6e00 3333 3333 3e33 3030 0078 0000 0000     .n33333>00x.....
   22218:	3b00 466e 0606 0f06 0000 0000 0000 0000     .;nF............
   22228:	3e00 0663 301c 3e63 0000 0000 0000 0c08     .>c..0c>........
   22238:	3f0c 0c0c 0c0c 386c 0000 0000 0000 0000     .?....l8........
   22248:	3300 3333 3333 6e33 0000 0000 0000 0000     .333333n........
   22258:	6600 6666 6666 183c 0000 0000 0000 0000     .fffff<.........
   22268:	6300 6363 6b6b 367f 0000 0000 0000 0000     .ccckk.6........
   22278:	6300 1c36 1c1c 6336 0000 0000 0000 0000     .c6...6c........
   22288:	6300 6363 6363 7e63 3060 001f 0000 0000     .cccccc~`0......
   22298:	7f00 1833 060c 7f63 0000 0000 0000 1870     ..3...c.......p.
   222a8:	1818 180e 1818 7018 0000 0000 0000 1818     .......p........
   222b8:	1818 1800 1818 1818 0000 0000 0000 180e     ................
   222c8:	1818 1870 1818 0e18 0000 0000 0000 3b6e     ..p...........n;
	...
   222e8:	1c08 6336 6363 007f 0000 0000 636d 7561     ..6ccc......mcau
   222f8:	6573 253a 3830 0d78 000a 0000 656d 6370     se:%08x.....mepc
   22308:	253a 3830 0d78 000a 746d 6176 3a6c 3025     :%08x...mtval:%0
   22318:	7838 0a0d 0000 0000 a5b4 a2b7 cbc1 6974     8x............ti
   22328:	656d d672 b6d0 0dcf 000a 0000 fc36 0001     mer.........6...
   22338:	fc4e 0001 fc4e 0001 fc42 0001 fc4e 0001     N...N...B...N...
   22348:	fc4e 0001 fc4e 0001 fc4e 0001 fc4e 0001     N...N...N...N...
   22358:	fc4e 0001 fc4e 0001 fc30 0001 fc4e 0001     N...N...0...N...
   22368:	fc02 0001 fc4e 0001 fc4e 0001 fc3c 0001     ....N...N...<...
   22378:	fec2 0001 00ca 0002 00ca 0002 00ca 0002     ................
   22388:	00ca 0002 00ca 0002 00ca 0002 00ca 0002     ................
   22398:	00ca 0002 00ca 0002 ffbc 0001 0044 0002     ............D...
   223a8:	fd1c 0001 00ca 0002 fdc4 0001 00ca 0002     ................
   223b8:	00ca 0002 fd1c 0001 00ca 0002 00ca 0002     ................
   223c8:	00ca 0002 00ca 0002 00be 0002 ff82 0001     ................
   223d8:	ffd8 0001 00ca 0002 00ca 0002 0058 0002     ............X...
   223e8:	00ca 0002 fff4 0001 00ca 0002 00ca 0002     ................
   223f8:	fec2 0001 0000 0000 a000 85d8 3457 4376     ............W4vC
   22408:	0000 0000 0000 4024 0000 0000 0000 3ff0     ......$@.......?
   22418:	e786 ffff e678 ffff e678 ffff e676 ffff     ....x...x...v...
   22428:	e67e ffff e67e ffff e644 ffff e676 ffff     ~...~...D...v...
   22438:	e67e ffff e644 ffff e67e ffff e676 ffff     ~...D...~...v...
   22448:	e772 ffff e772 ffff e772 ffff e644 ffff     r...r...r...D...

00022458 <__clz_tab>:
   22458:	0100 0202 0303 0303 0404 0404 0404 0404     ................
   22468:	0505 0505 0505 0505 0505 0505 0505 0505     ................
   22478:	0606 0606 0606 0606 0606 0606 0606 0606     ................
   22488:	0606 0606 0606 0606 0606 0606 0606 0606     ................
   22498:	0707 0707 0707 0707 0707 0707 0707 0707     ................
   224a8:	0707 0707 0707 0707 0707 0707 0707 0707     ................
   224b8:	0707 0707 0707 0707 0707 0707 0707 0707     ................
   224c8:	0707 0707 0707 0707 0707 0707 0707 0707     ................
   224d8:	0808 0808 0808 0808 0808 0808 0808 0808     ................
   224e8:	0808 0808 0808 0808 0808 0808 0808 0808     ................
   224f8:	0808 0808 0808 0808 0808 0808 0808 0808     ................
   22508:	0808 0808 0808 0808 0808 0808 0808 0808     ................
   22518:	0808 0808 0808 0808 0808 0808 0808 0808     ................
   22528:	0808 0808 0808 0808 0808 0808 0808 0808     ................
   22538:	0808 0808 0808 0808 0808 0808 0808 0808     ................
   22548:	0808 0808 0808 0808 0808 0808 0808 0808     ................
