
PocketMultimeter_CH32V307VCT6.elf:     file format elf32-littleriscv
PocketMultimeter_CH32V307VCT6.elf
architecture: riscv:rv32, flags 0x00000112:
EXEC_P, HAS_SYMS, D_PAGED
start address 0x00000000

Program Header:
    LOAD off    0x00001000 vaddr 0x00000000 paddr 0x00000000 align 2**12
         filesz 0x0000be84 memsz 0x0000be84 flags r-x
    LOAD off    0x0000d000 vaddr 0x20000000 paddr 0x0000be84 align 2**12
         filesz 0x00000220 memsz 0x000004a0 flags rw-
    LOAD off    0x0000d800 vaddr 0x20007800 paddr 0x20007800 align 2**12
         filesz 0x00000000 memsz 0x00000800 flags rw-

Sections:
Idx Name          Size      VMA       LMA       File off  Algn
  0 .init         00000038  00000000  00000000  00001000  2**1
                  CONTENTS, ALLOC, LOAD, READONLY, CODE
  1 .vector       000001c8  00000038  00000038  00001038  2**1
                  CONTENTS, ALLOC, LOAD, READONLY, CODE
  2 .text         0000bc84  00000200  00000200  00001200  2**3
                  CONTENTS, ALLOC, LOAD, READONLY, CODE
  3 .fini         00000000  0000be84  0000be84  0000d220  2**0
                  CONTENTS, ALLOC, LOAD, CODE
  4 .dalign       00000000  20000000  20000000  0000d220  2**0
                  CONTENTS
  5 .dlalign      00000000  0000be84  0000be84  0000d220  2**0
                  CONTENTS
  6 .data         00000220  20000000  0000be84  0000d000  2**2
                  CONTENTS, ALLOC, LOAD, DATA
  7 .bss          00000280  20000220  0000c0a4  0000d220  2**3
                  ALLOC
  8 .stack        00000800  20007800  20007800  0000d800  2**0
                  ALLOC
  9 .debug_info   00028f68  00000000  00000000  0000d220  2**0
                  CONTENTS, READONLY, DEBUGGING
 10 .debug_abbrev 00004d6a  00000000  00000000  00036188  2**0
                  CONTENTS, READONLY, DEBUGGING
 11 .debug_aranges 00000d28  00000000  00000000  0003aef8  2**3
                  CONTENTS, READONLY, DEBUGGING
 12 .debug_ranges 00000cc0  00000000  00000000  0003bc20  2**3
                  CONTENTS, READONLY, DEBUGGING
 13 .debug_line   00015fa6  00000000  00000000  0003c8e0  2**0
                  CONTENTS, READONLY, DEBUGGING
 14 .debug_str    00004184  00000000  00000000  00052886  2**0
                  CONTENTS, READONLY, DEBUGGING
 15 .comment      00000033  00000000  00000000  00056a0a  2**0
                  CONTENTS, READONLY
 16 .debug_frame  00002fec  00000000  00000000  00056a40  2**2
                  CONTENTS, READONLY, DEBUGGING
 17 .debug_loc    00006eda  00000000  00000000  00059a2c  2**0
                  CONTENTS, READONLY, DEBUGGING
 18 .stab         00000084  00000000  00000000  00060908  2**2
                  CONTENTS, READONLY, DEBUGGING
 19 .stabstr      00000117  00000000  00000000  0006098c  2**0
                  CONTENTS, READONLY, DEBUGGING
SYMBOL TABLE:
00000000 l    d  .init	00000000 .init
00000038 l    d  .vector	00000000 .vector
00000200 l    d  .text	00000000 .text
0000be84 l    d  .fini	00000000 .fini
20000000 l    d  .dalign	00000000 .dalign
0000be84 l    d  .dlalign	00000000 .dlalign
20000000 l    d  .data	00000000 .data
20000220 l    d  .bss	00000000 .bss
20007800 l    d  .stack	00000000 .stack
00000000 l    d  .debug_info	00000000 .debug_info
00000000 l    d  .debug_abbrev	00000000 .debug_abbrev
00000000 l    d  .debug_aranges	00000000 .debug_aranges
00000000 l    d  .debug_ranges	00000000 .debug_ranges
00000000 l    d  .debug_line	00000000 .debug_line
00000000 l    d  .debug_str	00000000 .debug_str
00000000 l    d  .comment	00000000 .comment
00000000 l    d  .debug_frame	00000000 .debug_frame
00000000 l    d  .debug_loc	00000000 .debug_loc
00000000 l    d  .stab	00000000 .stab
00000000 l    d  .stabstr	00000000 .stabstr
00000000 l    df *ABS*	00000000 ./Startup/startup_ch32v30x_D8C.o
00000038 l       .vector	00000000 _vector_base
00000000 l    df *ABS*	00000000 ch32v30x_it.c
00000000 l    df *ABS*	00000000 main.c
00000000 l    df *ABS*	00000000 system_ch32v30x.c
00000000 l    df *ABS*	00000000 ch32v30x_adc.c
00000000 l    df *ABS*	00000000 ch32v30x_dbgmcu.c
00000000 l    df *ABS*	00000000 ch32v30x_dma.c
00000000 l    df *ABS*	00000000 ch32v30x_exti.c
00000000 l    df *ABS*	00000000 ch32v30x_gpio.c
00000000 l    df *ABS*	00000000 ch32v30x_i2c.c
00000000 l    df *ABS*	00000000 ch32v30x_misc.c
00000000 l    df *ABS*	00000000 ch32v30x_rcc.c
20000010 l     O .data	00000010 APBAHBPrescTable
200001f4 l     O .data	00000004 ADCPrescTable
00000000 l    df *ABS*	00000000 ch32v30x_tim.c
00000000 l    df *ABS*	00000000 ch32v30x_usart.c
00000000 l    df *ABS*	00000000 pm_adc.c
00000000 l    df *ABS*	00000000 pm_bjt.c
00000000 l    df *ABS*	00000000 pm_capacitor.c
00000000 l    df *ABS*	00000000 pm_diode.c
00000000 l    df *ABS*	00000000 pm_measure.c
00000000 l    df *ABS*	00000000 pm_probe.c
00000000 l    df *ABS*	00000000 pm_resistance.c
00000000 l    df *ABS*	00000000 pm_timer.c
00000000 l    df *ABS*	00000000 ES8388.c
00000000 l    df *ABS*	00000000 keyboard.c
00005572 l     F .text	00000020 Keyboard_SetKeyPressed.part.0
00000000 l    df *ABS*	00000000 led.c
00000000 l    df *ABS*	00000000 debug.c
20000232 l     O .bss	00000002 p_ms
20000234 l     O .bss	00000001 p_us
20000210 l     O .data	00000004 curbrk.5359
00000000 l    df *ABS*	00000000 w_log.c
00000000 l    df *ABS*	00000000 e_log.c
00000000 l    df *ABS*	00000000 s_matherr.c
00000000 l    df *ABS*	00000000 s_nan.c
00000000 l    df *ABS*	00000000 adddf3.c
00000000 l    df *ABS*	00000000 divdf3.c
00000000 l    df *ABS*	00000000 eqdf2.c
00000000 l    df *ABS*	00000000 gedf2.c
00000000 l    df *ABS*	00000000 muldf3.c
00000000 l    df *ABS*	00000000 subdf3.c
00000000 l    df *ABS*	00000000 unorddf2.c
00000000 l    df *ABS*	00000000 fixunsdfsi.c
00000000 l    df *ABS*	00000000 floatsidf.c
00000000 l    df *ABS*	00000000 floatunsidf.c
00000000 l    df *ABS*	00000000 subsf3.c
00000000 l    df *ABS*	00000000 floatunsisf.c
00000000 l    df *ABS*	00000000 extendsfdf2.c
00000000 l    df *ABS*	00000000 libgcc2.c
00000000 l    df *ABS*	00000000 errno.c
00000000 l    df *ABS*	00000000 memcpy.c
00000000 l    df *ABS*	00000000 nano-vfprintf_float.c
00000000 l    df *ABS*	00000000 nano-vfprintf_i.c
00000000 l    df *ABS*	00000000 printf.c
00000000 l    df *ABS*	00000000 puts.c
00000000 l    df *ABS*	00000000 strlen.c
00000000 l    df *ABS*	00000000 wbuf.c
00000000 l    df *ABS*	00000000 wsetup.c
00000000 l    df *ABS*	00000000 dtoa.c
00008dc6 l     F .text	0000013a quorem
00000000 l    df *ABS*	00000000 fflush.c
00000000 l    df *ABS*	00000000 findfp.c
00009cac l     F .text	00000066 std
00000000 l    df *ABS*	00000000 fwalk.c
00000000 l    df *ABS*	00000000 localeconv.c
00000000 l    df *ABS*	00000000 makebuf.c
00000000 l    df *ABS*	00000000 malloc.c
00000000 l    df *ABS*	00000000 memchr.c
00000000 l    df *ABS*	00000000 mprec.c
0000bd50 l     O .text	0000000c p05.3319
00000000 l    df *ABS*	00000000 nano-mallocr.c
00000000 l    df *ABS*	00000000 nano-mallocr.c
00000000 l    df *ABS*	00000000 nano-mallocr.c
00000000 l    df *ABS*	00000000 nano-vfprintf.c
0000a892 l     F .text	00000028 __sfputc_r
00000000 l    df *ABS*	00000000 sbrkr.c
00000000 l    df *ABS*	00000000 stdio.c
00000000 l    df *ABS*	00000000 writer.c
00000000 l    df *ABS*	00000000 closer.c
00000000 l    df *ABS*	00000000 fstatr.c
00000000 l    df *ABS*	00000000 isattyr.c
00000000 l    df *ABS*	00000000 lseekr.c
00000000 l    df *ABS*	00000000 mbtowc_r.c
00000000 l    df *ABS*	00000000 mlock.c
00000000 l    df *ABS*	00000000 readr.c
00000000 l    df *ABS*	00000000 wctomb_r.c
00000000 l    df *ABS*	00000000 ledf2.c
00000000 l    df *ABS*	00000000 fixdfsi.c
00000000 l    df *ABS*	00000000 trunctfdf2.c
00000000 l    df *ABS*	00000000 close.c
00000000 l    df *ABS*	00000000 fstat.c
00000000 l    df *ABS*	00000000 isatty.c
00000000 l    df *ABS*	00000000 lseek.c
00000000 l    df *ABS*	00000000 read.c
00000000 l    df *ABS*	00000000 libgcc2.c
00000000 l    df *ABS*	00000000 locale.c
00000000 l    df *ABS*	00000000 ctype_.c
00000000 l    df *ABS*	00000000 impure.c
20000020 l     O .data	00000060 impure_data
00000000 l    df *ABS*	00000000 s_lib_ver.c
00000000 l    df *ABS*	00000000 reent.c
000080e8 g     F .text	000000ea __cvt
0000084e  w      .text	00000000 EXTI2_IRQHandler
00000898  w      .text	00000000 TIM8_TRG_COM_IRQHandler
0000089a  w      .text	00000000 TIM8_CC_IRQHandler
0000acdc g     F .text	00000028 _isatty_r
00002e90 g     F .text	00000784 PM_MeasureDiode
00008b0c g     F .text	000000d8 _puts_r
0000ad04 g     F .text	0000002c _lseek_r
00005a62 g     F .text	00000112 log
00000e3a g     F .text	00000014 DMA_Cmd
000008d0  w      .text	00000000 UART8_IRQHandler
00006c42 g     F .text	0000006a .hidden __eqdf2
00005532 g     F .text	00000040 ES8388_close
00004098 g     F .text	000001e8 PM_CheckIsResistance
00008aca g     F .text	00000042 printf
200009f0 g       .data	00000000 __global_pointer$
00000208 g     F .text	00000028 .hidden __riscv_save_8
00000874  w      .text	00000000 TIM1_CC_IRQHandler
0000ac26 g     F .text	00000030 __sseek
00009d64 g     F .text	0000006c __sinit
00008c02 g     F .text	000000c2 __swbuf_r
0000030c g     F .text	00000002 HardFault_Handler
20000440 g     O .bss	00000009 ComponentFeature
00009d1c g     F .text	00000048 __sfmoreglue
0000ad64 g     F .text	00000002 __malloc_unlock
00000a24 g     F .text	00000012 ADC_DMACmd
00000254 g     F .text	0000000c .hidden __riscv_restore_3
000008aa  w      .text	00000000 TIM6_IRQHandler
2000022b g     O .bss	00000001 MeasureStartFlg
00005228 g     F .text	00000022 PM_TimerCountTimeNS
0000083a  w      .text	00000000 SysTick_Handler
00000a48 g     F .text	0000000a ADC_StartCalibration
000012b8 g     F .text	000000a6 NVIC_Init
00000840  w      .text	00000000 PVD_IRQHandler
000008a0  w      .text	00000000 SDIO_IRQHandler
000008d2  w      .text	00000000 TIM9_BRK_IRQHandler
000053b2 g     F .text	00000180 ES8388_Init
00000240 g     F .text	00000020 .hidden __riscv_restore_10
2000022c g     O .bss	00000004 MeasureStep
000008e6  w      .text	00000000 DMA2_Channel8_IRQHandler
00000308 g     F .text	00000004 NMI_Handler
0000a002 g     F .text	00000088 _Balloc
000008c0  w      .text	00000000 CAN2_RX1_IRQHandler
00000850  w      .text	00000000 EXTI3_IRQHandler
00000208 g     F .text	00000028 .hidden __riscv_save_11
00000c8c g     F .text	0000000a DBGMCU_GetCHIPID
00006cac g     F .text	000000ae .hidden __gtdf2
0000802e g     F .text	00000008 __errno
000008c8  w      .text	00000000 USBHS_IRQHandler
00001734 g     F .text	0000000a USART_GetFlagStatus
000008e8  w      .text	00000000 DMA2_Channel9_IRQHandler
0000acb2 g     F .text	0000002a _fstat_r
000008e0  w      .text	00000000 TIM10_CC_IRQHandler
2000049c g     O .bss	00000004 errno
00001a40 g     F .text	00000ee4 PM_MeasureBJT
20000220 g       .bss	00000000 _sbss
00000800 g       *ABS*	00000000 __stack_size
00000b32 g     F .text	0000000a ADC_GetFlagStatus
000059a4 g     F .text	0000005a USART_Printf_Init
00000e02 g     F .text	00000038 DMA_Init
00007abe g     F .text	00000388 .hidden __subsf3
200001f8 g     O .data	00000003 BJT_FEA
00002c06 g     F .text	0000028a PM_MeasureCapacitor
00000254 g     F .text	0000000c .hidden __riscv_restore_2
00008036 g     F .text	000000b2 memcpy
00000a14 g     F .text	00000010 ADC_Cmd
00009d12 g     F .text	0000000a _cleanup_r
00001014 g     F .text	000000d6 GPIO_PinRemapConfig
000079e8 g     F .text	00000070 .hidden __floatsidf
0000adb0 g     F .text	000000b6 .hidden __ltdf2
0000084a  w      .text	00000000 EXTI0_IRQHandler
00000880  w      .text	00000000 I2C2_EV_IRQHandler
000008de  w      .text	00000000 TIM10_TRG_COM_IRQHandler
20000224 g     O .bss	00000002 Calibrattion_Val
00001608 g     F .text	00000018 TIM_Cmd
00008be4 g     F .text	0000000c puts
200001f0 g     O .data	00000004 SystemCoreClock
00001858 g     F .text	0000004a PM_GetADC
00009fde g     F .text	0000000c malloc
00001644 g     F .text	0000000c TIM_ClearFlag
0000b0f8 g     F .text	0000000c _fstat
0000bc88 g     O .text	000000c8 __mprec_tens
00000038 g       .init	00000000 _einit
00001650 g     F .text	0000000c TIM_ClearITPendingBit
00000e4e g     F .text	00000004 DMA_SetCurrDataCounter
00001636 g     F .text	00000004 TIM_GetCounter
00001504 g     F .text	0000001e RCC_APB2PeriphClockCmd
00000200 g     F .text	00000030 .hidden __riscv_save_12
0000798c g     F .text	0000005c .hidden __fixunsdfsi
000008c2  w      .text	00000000 CAN2_SCE_IRQHandler
00000862  w      .text	00000000 ADC1_2_IRQHandler
00000f42 g     F .text	000000c0 GPIO_Init
20000450 g     O .bss	00000020 ComponentMeasureResult
0000135e g     F .text	00000012 RCC_ADCCLKConfig
200001fc g     O .data	00000003 DIO_FEA
00000838  w      .text	00000000 Break_Point_Handler
00009eda g     F .text	00000018 _localeconv_r
0000a216 g     F .text	0000001c __i2b
00000240 g     F .text	00000020 .hidden __riscv_restore_11
20000220 g     O .bss	00000004 NVIC_Priority_Group
00000884  w      .text	00000000 SPI1_IRQHandler
00000a36 g     F .text	0000000a ADC_ResetCalibration
00001716 g     F .text	00000016 USART_Cmd
0000ab88 g     F .text	0000002a _sbrk_r
00000230 g     F .text	0000000c .hidden __riscv_save_1
00000842  w      .text	00000000 TAMPER_IRQHandler
000058c6 g     F .text	00000048 LED_Init
00000254 g     F .text	0000000c .hidden __riscv_restore_0
0000ad66 g     F .text	0000002c _read_r
00000216 g     F .text	0000001a .hidden __riscv_save_7
000008be  w      .text	00000000 CAN2_RX0_IRQHandler
00007f14 g     F .text	000000ac .hidden __extendsfdf2
00000896  w      .text	00000000 TIM8_UP_IRQHandler
00001522 g     F .text	0000001e RCC_APB1PeriphClockCmd
00005f5e g     F .text	00000730 .hidden __adddf3
00000834  w      .text	00000000 Ecall_M_Mode_Handler
00001a2a g     F .text	00000016 PM_ADCRealVol
20007800 g       .stack	00000000 _heap_end
0000b104 g     F .text	0000000c _isatty
20000214 g     O .data	00000004 __fdlib_version
00005938 g     F .text	00000036 Delay_Us
2000021c g     O .data	00000004 _global_impure_ptr
0000024a g     F .text	00000016 .hidden __riscv_restore_5
0000163a g     F .text	0000000a TIM_GetFlagStatus
000008b0  w      .text	00000000 DMA2_Channel2_IRQHandler
000014e6 g     F .text	0000001e RCC_AHBPeriphClockCmd
0000085a  w      .text	00000000 DMA1_Channel4_IRQHandler
00000a72 g     F .text	000000b8 ADC_RegularChannelConfig
0000bc60 g     O .text	00000028 __mprec_bigtens
00001254 g     F .text	00000004 I2C_SendData
00007a58 g     F .text	00000066 .hidden __floatunsidf
00005a3c g     F .text	00000026 _sbrk
00001968 g     F .text	000000c2 PM_DMA_GetADCAverage_ForCAP
0000a502 g     F .text	00000032 __mcmp
00000b2a g     F .text	00000008 ADC_GetConversionValue
00005260 g     F .text	0000002a ES8388_Contrl_Init
0000524a g     F .text	00000016 PM_TimerCountClear
00001116 g     F .text	000000f2 I2C_Init
000008d4  w      .text	00000000 TIM9_UP_IRQHandler
00000e52 g     F .text	00000032 DMA_GetFlagStatus
0000366e g     F .text	0000007a PM_ComponentFeatureCompare
0000024a g     F .text	00000016 .hidden __riscv_restore_6
0000088c  w      .text	00000000 USART3_IRQHandler
00000f38 g     F .text	0000000a EXTI_ClearITPendingBit
00000844  w      .text	00000000 RTC_IRQHandler
00000a52 g     F .text	00000008 ADC_GetCalibrationStatus
00005592 g     F .text	000000b4 Keyboard_Init
200004a0 g       .bss	00000000 _ebss
00000860  w      .text	00000000 DMA1_Channel7_IRQHandler
00000a5a g     F .text	00000018 ADC_SoftwareStartConvCmd
00000a40 g     F .text	00000008 ADC_GetResetCalibrationStatus
0000a166 g     F .text	00000046 __hi0bits
00000868  w      .text	00000000 CAN1_RX1_IRQHandler
0000ae66 g     F .text	00000068 .hidden __fixdfsi
0000590e g     F .text	0000002a Delay_Init
000008ca  w      .text	00000000 DVP_IRQHandler
000008a8  w      .text	00000000 UART5_IRQHandler
00001830 g     F .text	00000028 PM_ADCCalibrattion
0000100c g     F .text	00000004 GPIO_SetBits
0000087a  w      .text	00000000 TIM4_IRQHandler
0000adb0 g     F .text	000000b6 .hidden __ledf2
00000208 g     F .text	00000028 .hidden __riscv_save_9
000008ae  w      .text	00000000 DMA2_Channel1_IRQHandler
0000a376 g     F .text	000000be __pow5mult
00001220 g     F .text	0000001a I2C_GenerateSTART
0000b654 g     O .text	0000004c PortGroup_2
0000bc00 g     O .text	00000020 __sf_fake_stderr
00000216 g     F .text	0000001a .hidden __riscv_save_4
0000087c  w      .text	00000000 I2C1_EV_IRQHandler
00001370 g     F .text	00000176 RCC_GetClocksFreq
0000085e  w      .text	00000000 DMA1_Channel6_IRQHandler
00007fc0 g     F .text	0000006e .hidden __clzsi2
0000a8ba g     F .text	00000042 __sfputs_r
000008a6  w      .text	00000000 UART4_IRQHandler
000008b4  w      .text	00000000 DMA2_Channel4_IRQHandler
00009fea g     F .text	00000018 memchr
20000470 g     O .bss	0000002c gkeyboard_status
00008256  w    F .text	000004c4 _printf_float
0000165c g     F .text	000000ba USART_Init
0000a720 g     F .text	000000a4 _free_r
00000878  w      .text	00000000 TIM3_IRQHandler
00000848  w      .text	00000000 RCC_IRQHandler
00000230 g     F .text	0000000c .hidden __riscv_save_3
00000872  w      .text	00000000 TIM1_TRG_COM_IRQHandler
00000854  w      .text	00000000 DMA1_Channel1_IRQHandler
2000020c g     O .data	00000003 RES_FEA
00000000 g       .init	00000000 _start
000008e4  w      .text	00000000 DMA2_Channel7_IRQHandler
20000000 g     O .data	00000010 AHBPrescTable
00001280 g     F .text	00000032 I2C_GetFlagStatus
0000173e g     F .text	000000f2 PM_ADCInit
0000b110 g     F .text	0000000c _lseek
20000200 g     O .data	00000004 PM_Probe1Res
0000a434 g     F .text	000000ce __lshift
000056f4 g     F .text	000001b2 EXTI15_10_IRQHandler
00001620 g     F .text	00000012 TIM_ITConfig
20000208 g     O .data	00000004 PM_Probe3Res
00000eb0 g     F .text	0000006a EXTI_Init
0000a232 g     F .text	00000144 __multiply
0000a626 g     F .text	000000d4 __d2b
00001208 g     F .text	00000018 I2C_Cmd
00001010 g     F .text	00000004 GPIO_ResetBits
000008ac  w      .text	00000000 TIM7_IRQHandler
0000ac8a g     F .text	00000028 _close_r
000008bc  w      .text	00000000 CAN2_TX_IRQHandler
20000000 g       .dalign	00000000 _data_vma
000008a2  w      .text	00000000 TIM5_IRQHandler
0000569e g     F .text	00000056 Keyboard_ScanRow_Mode
00008cc4 g     F .text	00000102 __swsetup_r
0000086c  w      .text	00000000 EXTI9_5_IRQHandler
0000668e g     F .text	000005b4 .hidden __divdf3
00009dd0 g     F .text	000000a0 __sfp
000010ea g     F .text	0000002c GPIO_EXTILineConfig
00006d5a g     F .text	000004b8 .hidden __muldf3
00000208 g     F .text	00000028 .hidden __riscv_save_10
0000abb2 g     F .text	0000002c __sread
00001258 g     F .text	00000012 I2C_Send7bitAddress
20000228 g     O .bss	00000003 CAP_FEA
000008ba  w      .text	00000000 ETH_WKUP_IRQHandler
0000ad62 g     F .text	00000002 __malloc_lock
0000024a g     F .text	00000016 .hidden __riscv_restore_4
00000240 g     F .text	00000020 .hidden __riscv_restore_8
00009c46 g     F .text	00000066 _fflush_r
00000216 g     F .text	0000001a .hidden __riscv_save_6
0000a6fa g     F .text	00000026 _calloc_r
00000f1a g     F .text	0000001e EXTI_GetITStatus
00000886  w      .text	00000000 SPI2_IRQHandler
0000bc20 g     O .text	00000020 __sf_fake_stdin
00000260 g     F .text	000000a8 memset
00000240 g     F .text	00000020 .hidden __riscv_restore_9
0000024a g     F .text	00000016 .hidden __riscv_restore_7
00000378 g     F .text	00000300 main
000058a6 g     F .text	00000020 Keyboard_ClearAllStatus
000008da  w      .text	00000000 TIM10_BRK_IRQHandler
000008d8  w      .text	00000000 TIM9_CC_IRQHandler
00002924 g     F .text	000002e2 PM_CheckIsCapacitor
0000ac56 g     F .text	00000006 __sclose
00005f4c g     F .text	00000004 matherr
000008b6  w      .text	00000000 DMA2_Channel5_IRQHandler
00008f00 g     F .text	00000c14 _dtoa_r
0000a7c4 g     F .text	000000ce _malloc_r
0000ad92 g     F .text	0000001e __ascii_wctomb
00000b5c g     F .text	00000130 Get_CalibrationValue
0000085c  w      .text	00000000 DMA1_Channel5_IRQHandler
00001632 g     F .text	00000004 TIM_SetCounter
0000030e g     F .text	00000042 EXTI4_IRQHandler
0000596e g     F .text	00000036 Delay_Ms
00000866  w      .text	00000000 USB_LP_CAN1_RX0_IRQHandler
0000b6a0 g     O .text	0000004c PortGroup_3
00000b44 g     F .text	00000018 ADC_BufferCmd
00000678 g     F .text	000000fa SystemInit
0000089c  w      .text	00000000 RNG_IRQHandler
000051c4 g     F .text	00000064 PM_TimerInit
00006c42 g     F .text	0000006a .hidden __nedf2
00008aca g     F .text	00000042 iprintf
000018a2 g     F .text	000000c6 PM_DMA_GetADCAverage
00000864  w      .text	00000000 USB_HP_CAN1_TX_IRQHandler
0000ba70 g     O .text	00000100 .hidden __clz_tab
000081d2 g     F .text	00000084 __exponent
00000000 g       .init	00000000 _sinit
0000ac5c g     F .text	0000002e _write_r
00000858  w      .text	00000000 DMA1_Channel3_IRQHandler
00005646 g     F .text	00000058 Keyboard_ScanCol_Mode
0000089e  w      .text	00000000 FSMC_IRQHandler
000008b8  w      .text	00000000 ETH_IRQHandler
0000871a g     F .text	0000010c _printf_common
20000218 g     O .data	00000004 _impure_ptr
00000870  w      .text	00000000 TIM1_UP_IRQHandler
00009b14 g     F .text	00000132 __sflush_r
00005b74 g     F .text	000003d8 __ieee754_log
0000083e  w      .text	00000000 WWDG_IRQHandler
000008c6  w      .text	00000000 USBHSWakeup_IRQHandler
000008ec  w      .text	00000000 DMA2_Channel11_IRQHandler
0000ad30 g     F .text	00000032 __ascii_mbtowc
00000b3c g     F .text	00000008 ADC_ClearFlag
00000836  w      .text	00000000 Ecall_U_Mode_Handler
00004280 g     F .text	00000f44 PM_MeasureResistance
000008e2  w      .text	00000000 DMA2_Channel6_IRQHandler
00003f4c g     F .text	0000014c PM_MeasurePortInit
00000350 g     F .text	00000028 TIM2_IRQHandler
20008000 g       .stack	00000000 _eusrstack
000052b2 g     F .text	00000100 ES8388_Write_Reg
20000230 g     O .bss	00000002 TimerOverflowNum
00003f2a g     F .text	00000022 PM_GPIOModeCfg
00000230 g     F .text	0000000c .hidden __riscv_save_2
0000083c  w      .text	00000000 SW_Handler
00003614 g     F .text	0000005a PM_ComponentDischarge
00005f50 g     F .text	0000000e nan
20000204 g     O .data	00000004 PM_Probe2Res
00000978 g     F .text	00000046 ADC_DeInit
0000086e  w      .text	00000000 TIM1_BRK_IRQHandler
00009ef2 g     F .text	00000058 __swhatbuf_r
000009be g     F .text	00000056 ADC_Init
0000172c g     F .text	00000008 USART_SendData
000008ea  w      .text	00000000 DMA2_Channel10_IRQHandler
0000084c  w      .text	00000000 EXTI1_IRQHandler
00000216 g     F .text	0000001a .hidden __riscv_save_5
0000528a g     F .text	00000028 ES8388_WaitEvent
000059fe g     F .text	0000003e _write
20000220 g       .data	00000000 _edata
200004a0 g       .bss	00000000 _end
0000155e g     F .text	000000aa TIM_TimeBaseInit
00000890  w      .text	00000000 RTCAlarm_IRQHandler
0000be84 g       .dlalign	00000000 _data_lma
000008dc  w      .text	00000000 TIM10_UP_IRQHandler
000008d6  w      .text	00000000 TIM9_TRG_COM_IRQHandler
000008ce  w      .text	00000000 UART7_IRQHandler
0000088a  w      .text	00000000 USART2_IRQHandler
000008cc  w      .text	00000000 UART6_IRQHandler
0000abde g     F .text	00000048 __swrite
0000a8fc g     F .text	0000028c _vfiprintf_r
00009e70 g     F .text	0000006a _fwalk_reent
00000772 g     F .text	000000be SystemCoreClockUpdate
00007e46 g     F .text	000000ce .hidden __floatunsisf
0000a534 g     F .text	000000f2 __mdiff
00000882  w      .text	00000000 I2C2_ER_IRQHandler
00000856  w      .text	00000000 DMA1_Channel2_IRQHandler
0000bc40 g     O .text	00000020 __sf_fake_stdout
0000023c g     F .text	00000024 .hidden __riscv_restore_12
00000894  w      .text	00000000 TIM8_BRK_IRQHandler
0000bd80 g     O .text	00000101 _ctype_
00000e84 g     F .text	0000002c DMA_ClearFlag
0000b11c g     F .text	0000000c _read
20000240 g     O .bss	000001fe ADC_Buf
00007950 g     F .text	0000003c .hidden __unorddf2
000008ee  w      .text	00000000 handle_reset
0000086a  w      .text	00000000 CAN1_SCE_IRQHandler
00000230 g     F .text	0000000c .hidden __riscv_save_0
00000846  w      .text	00000000 FLASH_IRQHandler
00003ea6 g     F .text	00000084 PM_GPIOInit
00000888  w      .text	00000000 USART1_IRQHandler
00009f4a g     F .text	00000094 __smakebuf_r
00008bf0 g     F .text	00000012 strlen
000008c4  w      .text	00000000 OTG_FS_IRQHandler
00008826 g     F .text	000002a4 _printf_i
000008a4  w      .text	00000000 SPI3_IRQHandler
000036e8 g     F .text	000007be PM_ComponentQuickClassify
00006cac g     F .text	000000ae .hidden __gedf2
2000023c g     O .bss	00000004 __malloc_sbrk_start
0000126a g     F .text	00000016 I2C_CheckEvent
00001540 g     F .text	0000001e RCC_APB2PeriphResetCmd
0000123a g     F .text	0000001a I2C_GenerateSTOP
0000087e  w      .text	00000000 I2C1_ER_IRQHandler
000012b2 g     F .text	00000006 NVIC_PriorityGroupConfig
00000c96 g     F .text	0000016c DMA_DeInit
20000238 g     O .bss	00000004 __malloc_free_list
00000254 g     F .text	0000000c .hidden __riscv_restore_1
0000b608 g     O .text	0000004c PortGroup_1
00007212 g     F .text	0000073e .hidden __subdf3
0000a8fc g     F .text	0000028c _vfprintf_r
0000a1ac g     F .text	0000006a __lo0bits
00001002 g     F .text	0000000a GPIO_ReadInputDataBit
20000080 g     O .data	0000016c __global_locale
00000892  w      .text	00000000 USBWakeUp_IRQHandler
0000aece g     F .text	0000021e .hidden __trunctfdf2
0000b0ec g     F .text	0000000c _close
000008b2  w      .text	00000000 DMA2_Channel3_IRQHandler
0000a0ce g     F .text	00000098 __multadd
0000a08a g     F .text	00000044 _Bfree



Disassembly of section .init:

00000000 <_sinit>:
   0:	0ef0006f          	j	8ee <handle_reset>
   4:	00000013          	nop
   8:	00000013          	nop
   c:	00000013          	nop
  10:	00000013          	nop
  14:	00000013          	nop
  18:	00000013          	nop
  1c:	00000013          	nop
  20:	00000013          	nop
  24:	00000013          	nop
  28:	00000013          	nop
  2c:	00000013          	nop
  30:	00000013          	nop
  34:	00100073          	ebreak

Disassembly of section .vector:

00000038 <_vector_base>:
	...
  40:	0308                	addi	a0,sp,384
  42:	0000                	unimp
  44:	030c                	addi	a1,sp,384
  46:	0000                	unimp
  48:	0000                	unimp
  4a:	0000                	unimp
  4c:	0834                	addi	a3,sp,24
	...
  56:	0000                	unimp
  58:	0836                	slli	a6,a6,0xd
  5a:	0000                	unimp
  5c:	0838                	addi	a4,sp,24
	...
  66:	0000                	unimp
  68:	083a                	slli	a6,a6,0xe
  6a:	0000                	unimp
  6c:	0000                	unimp
  6e:	0000                	unimp
  70:	083c                	addi	a5,sp,24
  72:	0000                	unimp
  74:	0000                	unimp
  76:	0000                	unimp
  78:	083e                	slli	a6,a6,0xf
  7a:	0000                	unimp
  7c:	0840                	addi	s0,sp,20
  7e:	0000                	unimp
  80:	0842                	slli	a6,a6,0x10
  82:	0000                	unimp
  84:	0844                	addi	s1,sp,20
  86:	0000                	unimp
  88:	0846                	slli	a6,a6,0x11
  8a:	0000                	unimp
  8c:	0848                	addi	a0,sp,20
  8e:	0000                	unimp
  90:	084a                	slli	a6,a6,0x12
  92:	0000                	unimp
  94:	084c                	addi	a1,sp,20
  96:	0000                	unimp
  98:	084e                	slli	a6,a6,0x13
  9a:	0000                	unimp
  9c:	0850                	addi	a2,sp,20
  9e:	0000                	unimp
  a0:	030e                	slli	t1,t1,0x3
  a2:	0000                	unimp
  a4:	0854                	addi	a3,sp,20
  a6:	0000                	unimp
  a8:	0856                	slli	a6,a6,0x15
  aa:	0000                	unimp
  ac:	0858                	addi	a4,sp,20
  ae:	0000                	unimp
  b0:	085a                	slli	a6,a6,0x16
  b2:	0000                	unimp
  b4:	085c                	addi	a5,sp,20
  b6:	0000                	unimp
  b8:	085e                	slli	a6,a6,0x17
  ba:	0000                	unimp
  bc:	0860                	addi	s0,sp,28
  be:	0000                	unimp
  c0:	0862                	slli	a6,a6,0x18
  c2:	0000                	unimp
  c4:	0864                	addi	s1,sp,28
  c6:	0000                	unimp
  c8:	0866                	slli	a6,a6,0x19
  ca:	0000                	unimp
  cc:	0868                	addi	a0,sp,28
  ce:	0000                	unimp
  d0:	086a                	slli	a6,a6,0x1a
  d2:	0000                	unimp
  d4:	086c                	addi	a1,sp,28
  d6:	0000                	unimp
  d8:	086e                	slli	a6,a6,0x1b
  da:	0000                	unimp
  dc:	0870                	addi	a2,sp,28
  de:	0000                	unimp
  e0:	0872                	slli	a6,a6,0x1c
  e2:	0000                	unimp
  e4:	0874                	addi	a3,sp,28
  e6:	0000                	unimp
  e8:	0350                	addi	a2,sp,388
  ea:	0000                	unimp
  ec:	0878                	addi	a4,sp,28
  ee:	0000                	unimp
  f0:	087a                	slli	a6,a6,0x1e
  f2:	0000                	unimp
  f4:	087c                	addi	a5,sp,28
  f6:	0000                	unimp
  f8:	087e                	slli	a6,a6,0x1f
  fa:	0000                	unimp
  fc:	0880                	addi	s0,sp,80
  fe:	0000                	unimp
 100:	0882                	c.slli64	a7
 102:	0000                	unimp
 104:	0884                	addi	s1,sp,80
 106:	0000                	unimp
 108:	0886                	slli	a7,a7,0x1
 10a:	0000                	unimp
 10c:	0888                	addi	a0,sp,80
 10e:	0000                	unimp
 110:	088a                	slli	a7,a7,0x2
 112:	0000                	unimp
 114:	088c                	addi	a1,sp,80
 116:	0000                	unimp
 118:	56f4                	lw	a3,108(a3)
 11a:	0000                	unimp
 11c:	0890                	addi	a2,sp,80
 11e:	0000                	unimp
 120:	0892                	slli	a7,a7,0x4
 122:	0000                	unimp
 124:	0894                	addi	a3,sp,80
 126:	0000                	unimp
 128:	0896                	slli	a7,a7,0x5
 12a:	0000                	unimp
 12c:	0898                	addi	a4,sp,80
 12e:	0000                	unimp
 130:	089a                	slli	a7,a7,0x6
 132:	0000                	unimp
 134:	089c                	addi	a5,sp,80
 136:	0000                	unimp
 138:	089e                	slli	a7,a7,0x7
 13a:	0000                	unimp
 13c:	08a0                	addi	s0,sp,88
 13e:	0000                	unimp
 140:	08a2                	slli	a7,a7,0x8
 142:	0000                	unimp
 144:	08a4                	addi	s1,sp,88
 146:	0000                	unimp
 148:	08a6                	slli	a7,a7,0x9
 14a:	0000                	unimp
 14c:	08a8                	addi	a0,sp,88
 14e:	0000                	unimp
 150:	08aa                	slli	a7,a7,0xa
 152:	0000                	unimp
 154:	08ac                	addi	a1,sp,88
 156:	0000                	unimp
 158:	08ae                	slli	a7,a7,0xb
 15a:	0000                	unimp
 15c:	08b0                	addi	a2,sp,88
 15e:	0000                	unimp
 160:	08b2                	slli	a7,a7,0xc
 162:	0000                	unimp
 164:	08b4                	addi	a3,sp,88
 166:	0000                	unimp
 168:	08b6                	slli	a7,a7,0xd
 16a:	0000                	unimp
 16c:	08b8                	addi	a4,sp,88
 16e:	0000                	unimp
 170:	08ba                	slli	a7,a7,0xe
 172:	0000                	unimp
 174:	08bc                	addi	a5,sp,88
 176:	0000                	unimp
 178:	08be                	slli	a7,a7,0xf
 17a:	0000                	unimp
 17c:	08c0                	addi	s0,sp,84
 17e:	0000                	unimp
 180:	08c2                	slli	a7,a7,0x10
 182:	0000                	unimp
 184:	08c4                	addi	s1,sp,84
 186:	0000                	unimp
 188:	08c6                	slli	a7,a7,0x11
 18a:	0000                	unimp
 18c:	08c8                	addi	a0,sp,84
 18e:	0000                	unimp
 190:	08ca                	slli	a7,a7,0x12
 192:	0000                	unimp
 194:	08cc                	addi	a1,sp,84
 196:	0000                	unimp
 198:	08ce                	slli	a7,a7,0x13
 19a:	0000                	unimp
 19c:	08d0                	addi	a2,sp,84
 19e:	0000                	unimp
 1a0:	08d2                	slli	a7,a7,0x14
 1a2:	0000                	unimp
 1a4:	08d4                	addi	a3,sp,84
 1a6:	0000                	unimp
 1a8:	08d6                	slli	a7,a7,0x15
 1aa:	0000                	unimp
 1ac:	08d8                	addi	a4,sp,84
 1ae:	0000                	unimp
 1b0:	08da                	slli	a7,a7,0x16
 1b2:	0000                	unimp
 1b4:	08dc                	addi	a5,sp,84
 1b6:	0000                	unimp
 1b8:	08de                	slli	a7,a7,0x17
 1ba:	0000                	unimp
 1bc:	08e0                	addi	s0,sp,92
 1be:	0000                	unimp
 1c0:	08e2                	slli	a7,a7,0x18
 1c2:	0000                	unimp
 1c4:	08e4                	addi	s1,sp,92
 1c6:	0000                	unimp
 1c8:	08e6                	slli	a7,a7,0x19
 1ca:	0000                	unimp
 1cc:	08e8                	addi	a0,sp,92
 1ce:	0000                	unimp
 1d0:	08ea                	slli	a7,a7,0x1a
 1d2:	0000                	unimp
 1d4:	08ec                	addi	a1,sp,92
	...

Disassembly of section .text:

00000200 <__riscv_save_12>:
     200:	7139                	addi	sp,sp,-64
     202:	4301                	li	t1,0
     204:	c66e                	sw	s11,12(sp)
     206:	a019                	j	20c <__riscv_save_10+0x4>

00000208 <__riscv_save_10>:
     208:	7139                	addi	sp,sp,-64
     20a:	5341                	li	t1,-16
     20c:	c86a                	sw	s10,16(sp)
     20e:	ca66                	sw	s9,20(sp)
     210:	cc62                	sw	s8,24(sp)
     212:	ce5e                	sw	s7,28(sp)
     214:	a019                	j	21a <__riscv_save_4+0x4>

00000216 <__riscv_save_4>:
     216:	7139                	addi	sp,sp,-64
     218:	5301                	li	t1,-32
     21a:	d05a                	sw	s6,32(sp)
     21c:	d256                	sw	s5,36(sp)
     21e:	d452                	sw	s4,40(sp)
     220:	d64e                	sw	s3,44(sp)
     222:	d84a                	sw	s2,48(sp)
     224:	da26                	sw	s1,52(sp)
     226:	dc22                	sw	s0,56(sp)
     228:	de06                	sw	ra,60(sp)
     22a:	40610133          	sub	sp,sp,t1
     22e:	8282                	jr	t0

00000230 <__riscv_save_0>:
     230:	1141                	addi	sp,sp,-16
     232:	c04a                	sw	s2,0(sp)
     234:	c226                	sw	s1,4(sp)
     236:	c422                	sw	s0,8(sp)
     238:	c606                	sw	ra,12(sp)
     23a:	8282                	jr	t0

0000023c <__riscv_restore_12>:
     23c:	4db2                	lw	s11,12(sp)
     23e:	0141                	addi	sp,sp,16

00000240 <__riscv_restore_10>:
     240:	4d02                	lw	s10,0(sp)
     242:	4c92                	lw	s9,4(sp)
     244:	4c22                	lw	s8,8(sp)
     246:	4bb2                	lw	s7,12(sp)
     248:	0141                	addi	sp,sp,16

0000024a <__riscv_restore_4>:
     24a:	4b02                	lw	s6,0(sp)
     24c:	4a92                	lw	s5,4(sp)
     24e:	4a22                	lw	s4,8(sp)
     250:	49b2                	lw	s3,12(sp)
     252:	0141                	addi	sp,sp,16

00000254 <__riscv_restore_0>:
     254:	4902                	lw	s2,0(sp)
     256:	4492                	lw	s1,4(sp)
     258:	4422                	lw	s0,8(sp)
     25a:	40b2                	lw	ra,12(sp)
     25c:	0141                	addi	sp,sp,16
     25e:	8082                	ret

00000260 <memset>:
     260:	433d                	li	t1,15
     262:	872a                	mv	a4,a0
     264:	02c37363          	bgeu	t1,a2,28a <memset+0x2a>
     268:	00f77793          	andi	a5,a4,15
     26c:	efbd                	bnez	a5,2ea <memset+0x8a>
     26e:	e5ad                	bnez	a1,2d8 <memset+0x78>
     270:	ff067693          	andi	a3,a2,-16
     274:	8a3d                	andi	a2,a2,15
     276:	96ba                	add	a3,a3,a4
     278:	c30c                	sw	a1,0(a4)
     27a:	c34c                	sw	a1,4(a4)
     27c:	c70c                	sw	a1,8(a4)
     27e:	c74c                	sw	a1,12(a4)
     280:	0741                	addi	a4,a4,16
     282:	fed76be3          	bltu	a4,a3,278 <memset+0x18>
     286:	e211                	bnez	a2,28a <memset+0x2a>
     288:	8082                	ret
     28a:	40c306b3          	sub	a3,t1,a2
     28e:	068a                	slli	a3,a3,0x2
     290:	00000297          	auipc	t0,0x0
     294:	9696                	add	a3,a3,t0
     296:	00a68067          	jr	10(a3)
     29a:	00b70723          	sb	a1,14(a4)
     29e:	00b706a3          	sb	a1,13(a4)
     2a2:	00b70623          	sb	a1,12(a4)
     2a6:	00b705a3          	sb	a1,11(a4)
     2aa:	00b70523          	sb	a1,10(a4)
     2ae:	00b704a3          	sb	a1,9(a4)
     2b2:	00b70423          	sb	a1,8(a4)
     2b6:	00b703a3          	sb	a1,7(a4)
     2ba:	00b70323          	sb	a1,6(a4)
     2be:	00b702a3          	sb	a1,5(a4)
     2c2:	00b70223          	sb	a1,4(a4)
     2c6:	00b701a3          	sb	a1,3(a4)
     2ca:	00b70123          	sb	a1,2(a4)
     2ce:	00b700a3          	sb	a1,1(a4)
     2d2:	00b70023          	sb	a1,0(a4)
     2d6:	8082                	ret
     2d8:	0ff5f593          	andi	a1,a1,255
     2dc:	00859693          	slli	a3,a1,0x8
     2e0:	8dd5                	or	a1,a1,a3
     2e2:	01059693          	slli	a3,a1,0x10
     2e6:	8dd5                	or	a1,a1,a3
     2e8:	b761                	j	270 <memset+0x10>
     2ea:	00279693          	slli	a3,a5,0x2
     2ee:	00000297          	auipc	t0,0x0
     2f2:	9696                	add	a3,a3,t0
     2f4:	8286                	mv	t0,ra
     2f6:	fa8680e7          	jalr	-88(a3)
     2fa:	8096                	mv	ra,t0
     2fc:	17c1                	addi	a5,a5,-16
     2fe:	8f1d                	sub	a4,a4,a5
     300:	963e                	add	a2,a2,a5
     302:	f8c374e3          	bgeu	t1,a2,28a <memset+0x2a>
     306:	b7a5                	j	26e <memset+0xe>

00000308 <NMI_Handler>:
     308:	30200073          	mret

0000030c <HardFault_Handler>:
     30c:	a001                	j	30c <HardFault_Handler>

0000030e <EXTI4_IRQHandler>:
     30e:	40012537          	lui	a0,0x40012
     312:	45c1                	li	a1,16
     314:	80050513          	addi	a0,a0,-2048 # 40011800 <_eusrstack+0x20009800>
     318:	4eb000ef          	jal	ra,1002 <GPIO_ReadInputDataBit>
     31c:	e50d                	bnez	a0,346 <EXTI4_IRQHandler+0x38>
     31e:	4581                	li	a1,0
     320:	40000537          	lui	a0,0x40000
     324:	2e4010ef          	jal	ra,1608 <TIM_Cmd>
     328:	4581                	li	a1,0
     32a:	40000537          	lui	a0,0x40000
     32e:	304010ef          	jal	ra,1632 <TIM_SetCounter>
     332:	4585                	li	a1,1
     334:	40000537          	lui	a0,0x40000
     338:	84019023          	sh	zero,-1984(gp) # 20000230 <TimerOverflowNum>
     33c:	314010ef          	jal	ra,1650 <TIM_ClearITPendingBit>
     340:	4705                	li	a4,1
     342:	82e18da3          	sb	a4,-1989(gp) # 2000022b <MeasureStartFlg>
     346:	4541                	li	a0,16
     348:	3f1000ef          	jal	ra,f38 <EXTI_ClearITPendingBit>
     34c:	30200073          	mret

00000350 <TIM2_IRQHandler>:
     350:	4585                	li	a1,1
     352:	40000537          	lui	a0,0x40000
     356:	2e4010ef          	jal	ra,163a <TIM_GetFlagStatus>
     35a:	cd09                	beqz	a0,374 <TIM2_IRQHandler+0x24>
     35c:	8401d783          	lhu	a5,-1984(gp) # 20000230 <TimerOverflowNum>
     360:	4585                	li	a1,1
     362:	40000537          	lui	a0,0x40000
     366:	0785                	addi	a5,a5,1
     368:	07c2                	slli	a5,a5,0x10
     36a:	83c1                	srli	a5,a5,0x10
     36c:	84f19023          	sh	a5,-1984(gp) # 20000230 <TimerOverflowNum>
     370:	2e0010ef          	jal	ra,1650 <TIM_ClearITPendingBit>
     374:	30200073          	mret

00000378 <main>:
     378:	e91ff2ef          	jal	t0,208 <__riscv_save_10>
     37c:	4509                	li	a0,2
     37e:	735000ef          	jal	ra,12b2 <NVIC_PriorityGroupConfig>
     382:	2ec5                	jal	772 <SystemCoreClockUpdate>
     384:	58a050ef          	jal	ra,590e <Delay_Init>
     388:	6571                	lui	a0,0x1c
     38a:	20050513          	addi	a0,a0,512 # 1c200 <_data_lma+0x1037c>
     38e:	616050ef          	jal	ra,59a4 <USART_Printf_Init>
     392:	200050ef          	jal	ra,5592 <Keyboard_Init>
     396:	530050ef          	jal	ra,58c6 <LED_Init>
     39a:	198050ef          	jal	ra,5532 <ES8388_close>
     39e:	0000b4b7          	lui	s1,0xb
     3a2:	0000b6b7          	lui	a3,0xb
     3a6:	0000b537          	lui	a0,0xb
     3aa:	14868693          	addi	a3,a3,328 # b148 <_read+0x2c>
     3ae:	03800613          	li	a2,56
     3b2:	15448593          	addi	a1,s1,340 # b154 <_read+0x38>
     3b6:	16450513          	addi	a0,a0,356 # b164 <_read+0x48>
     3ba:	710080ef          	jal	ra,8aca <iprintf>
     3be:	200007b7          	lui	a5,0x20000
     3c2:	1f07a683          	lw	a3,496(a5) # 200001f0 <SystemCoreClock>
     3c6:	0000b537          	lui	a0,0xb
     3ca:	03900613          	li	a2,57
     3ce:	15448593          	addi	a1,s1,340
     3d2:	17450513          	addi	a0,a0,372 # b174 <_read+0x58>
     3d6:	6f4080ef          	jal	ra,8aca <iprintf>
     3da:	0b3000ef          	jal	ra,c8c <DBGMCU_GetCHIPID>
     3de:	86aa                	mv	a3,a0
     3e0:	0000b537          	lui	a0,0xb
     3e4:	03a00613          	li	a2,58
     3e8:	15448593          	addi	a1,s1,340
     3ec:	18c50513          	addi	a0,a0,396 # b18c <_read+0x70>
     3f0:	6da080ef          	jal	ra,8aca <iprintf>
     3f4:	4589                	li	a1,2
     3f6:	40011537          	lui	a0,0x40011
     3fa:	417000ef          	jal	ra,1010 <GPIO_ResetBits>
     3fe:	340010ef          	jal	ra,173e <PM_ADCInit>
     402:	6541                	lui	a0,0x10
     404:	4581                	li	a1,0
     406:	fbf50513          	addi	a0,a0,-65 # ffbf <_data_lma+0x413b>
     40a:	6bad                	lui	s7,0xb
     40c:	5b9040ef          	jal	ra,51c4 <PM_TimerInit>
     410:	128b8b93          	addi	s7,s7,296 # b128 <_read+0xc>
     414:	a5018a93          	addi	s5,gp,-1456 # 20000440 <ComponentFeature>
     418:	a6018913          	addi	s2,gp,-1440 # 20000450 <ComponentMeasureResult>
     41c:	a801d783          	lhu	a5,-1408(gp) # 20000470 <gkeyboard_status>
     420:	8b85                	andi	a5,a5,1
     422:	22078263          	beqz	a5,646 <main+0x2ce>
     426:	0000b537          	lui	a0,0xb
     42a:	1a450513          	addi	a0,a0,420 # b1a4 <_read+0x88>
     42e:	7b6080ef          	jal	ra,8be4 <puts>
     432:	4581                	li	a1,0
     434:	40000537          	lui	a0,0x40000
     438:	1d0010ef          	jal	ra,1608 <TIM_Cmd>
     43c:	4581                	li	a1,0
     43e:	40000537          	lui	a0,0x40000
     442:	1f0010ef          	jal	ra,1632 <TIM_SetCounter>
     446:	4585                	li	a1,1
     448:	40000537          	lui	a0,0x40000
     44c:	84019023          	sh	zero,-1984(gp) # 20000230 <TimerOverflowNum>
     450:	200010ef          	jal	ra,1650 <TIM_ClearITPendingBit>
     454:	a801d783          	lhu	a5,-1408(gp) # 20000470 <gkeyboard_status>
     458:	6b2d                	lui	s6,0xb
     45a:	9bf9                	andi	a5,a5,-2
     45c:	6c2d                	lui	s8,0xb
     45e:	a8f19023          	sh	a5,-1408(gp) # 20000470 <gkeyboard_status>
     462:	8201ae23          	sw	zero,-1988(gp) # 2000022c <MeasureStep>
     466:	a601a023          	sw	zero,-1440(gp) # 20000450 <ComponentMeasureResult>
     46a:	608b0b13          	addi	s6,s6,1544 # b608 <PortGroup_1>
     46e:	6a0c0c13          	addi	s8,s8,1696 # b6a0 <PortGroup_3>
     472:	a801d783          	lhu	a5,-1408(gp) # 20000470 <gkeyboard_status>
     476:	1c079863          	bnez	a5,646 <main+0x2ce>
     47a:	83c1a783          	lw	a5,-1988(gp) # 2000022c <MeasureStep>
     47e:	471d                	li	a4,7
     480:	16f76f63          	bltu	a4,a5,5fe <main+0x286>
     484:	078a                	slli	a5,a5,0x2
     486:	97de                	add	a5,a5,s7
     488:	439c                	lw	a5,0(a5)
     48a:	8782                	jr	a5
     48c:	0000b537          	lui	a0,0xb
     490:	05b00613          	li	a2,91
     494:	15448593          	addi	a1,s1,340
     498:	1c050513          	addi	a0,a0,448 # b1c0 <_read+0xa4>
     49c:	62e080ef          	jal	ra,8aca <iprintf>
     4a0:	248030ef          	jal	ra,36e8 <PM_ComponentQuickClassify>
     4a4:	82a1ae23          	sw	a0,-1988(gp) # 2000022c <MeasureStep>
     4a8:	83c1ac83          	lw	s9,-1988(gp) # 2000022c <MeasureStep>
     4ac:	4785                	li	a5,1
     4ae:	fcfc92e3          	bne	s9,a5,472 <main+0xfa>
     4b2:	0000b537          	lui	a0,0xb
     4b6:	15448593          	addi	a1,s1,340
     4ba:	0bc00613          	li	a2,188
     4be:	29850513          	addi	a0,a0,664 # b298 <_read+0x17c>
     4c2:	608080ef          	jal	ra,8aca <iprintf>
     4c6:	a601a583          	lw	a1,-1440(gp) # 20000450 <ComponentMeasureResult>
     4ca:	4789                	li	a5,2
     4cc:	18f58463          	beq	a1,a5,654 <main+0x2dc>
     4d0:	14b7e263          	bltu	a5,a1,614 <main+0x29c>
     4d4:	15958f63          	beq	a1,s9,632 <main+0x2ba>
     4d8:	0000b537          	lui	a0,0xb
     4dc:	32c50513          	addi	a0,a0,812 # b32c <_read+0x210>
     4e0:	a2b1                	j	62c <main+0x2b4>
     4e2:	0000b537          	lui	a0,0xb
     4e6:	06000613          	li	a2,96
     4ea:	15448593          	addi	a1,s1,340
     4ee:	1e050513          	addi	a0,a0,480 # b1e0 <_read+0xc4>
     4f2:	5d8080ef          	jal	ra,8aca <iprintf>
     4f6:	42e020ef          	jal	ra,2924 <PM_CheckIsCapacitor>
     4fa:	4785                	li	a5,1
     4fc:	00f51663          	bne	a0,a5,508 <main+0x190>
     500:	478d                	li	a5,3
     502:	82f1ae23          	sw	a5,-1988(gp) # 2000022c <MeasureStep>
     506:	b74d                	j	4a8 <main+0x130>
     508:	006ac683          	lbu	a3,6(s5)
     50c:	4709                	li	a4,2
     50e:	02e69063          	bne	a3,a4,52e <main+0x1b6>
     512:	a6f1a023          	sw	a5,-1440(gp) # 20000450 <ComponentMeasureResult>
     516:	049b4783          	lbu	a5,73(s6)
     51a:	82d1ae23          	sw	a3,-1988(gp) # 2000022c <MeasureStep>
     51e:	00f90423          	sb	a5,8(s2)
     522:	67ad                	lui	a5,0xb
     524:	69d7c783          	lbu	a5,1693(a5) # b69d <PortGroup_2+0x49>
     528:	00f904a3          	sb	a5,9(s2)
     52c:	bfb5                	j	4a8 <main+0x130>
     52e:	007ac683          	lbu	a3,7(s5)
     532:	00e69e63          	bne	a3,a4,54e <main+0x1d6>
     536:	a6f1a023          	sw	a5,-1440(gp) # 20000450 <ComponentMeasureResult>
     53a:	67ad                	lui	a5,0xb
     53c:	69d7c783          	lbu	a5,1693(a5) # b69d <PortGroup_2+0x49>
     540:	82d1ae23          	sw	a3,-1988(gp) # 2000022c <MeasureStep>
     544:	00f90423          	sb	a5,8(s2)
     548:	049c4783          	lbu	a5,73(s8)
     54c:	bff1                	j	528 <main+0x1b0>
     54e:	008ac683          	lbu	a3,8(s5)
     552:	00e69963          	bne	a3,a4,564 <main+0x1ec>
     556:	a6f1a023          	sw	a5,-1440(gp) # 20000450 <ComponentMeasureResult>
     55a:	82d1ae23          	sw	a3,-1988(gp) # 2000022c <MeasureStep>
     55e:	049b4783          	lbu	a5,73(s6)
     562:	b7cd                	j	544 <main+0x1cc>
     564:	479d                	li	a5,7
     566:	bf71                	j	502 <main+0x18a>
     568:	0000b537          	lui	a0,0xb
     56c:	08400613          	li	a2,132
     570:	15448593          	addi	a1,s1,340
     574:	1fc50513          	addi	a0,a0,508 # b1fc <_read+0xe0>
     578:	552080ef          	jal	ra,8aca <iprintf>
     57c:	68a020ef          	jal	ra,2c06 <PM_MeasureCapacitor>
     580:	4785                	li	a5,1
     582:	00f50463          	beq	a0,a5,58a <main+0x212>
     586:	a601a023          	sw	zero,-1440(gp) # 20000450 <ComponentMeasureResult>
     58a:	4785                	li	a5,1
     58c:	bf9d                	j	502 <main+0x18a>
     58e:	0000b537          	lui	a0,0xb
     592:	08d00613          	li	a2,141
     596:	15448593          	addi	a1,s1,340
     59a:	21850513          	addi	a0,a0,536 # b218 <_read+0xfc>
     59e:	52c080ef          	jal	ra,8aca <iprintf>
     5a2:	2f7030ef          	jal	ra,4098 <PM_CheckIsResistance>
     5a6:	4785                	li	a5,1
     5a8:	f4f51de3          	bne	a0,a5,502 <main+0x18a>
     5ac:	4789                	li	a5,2
     5ae:	bf91                	j	502 <main+0x18a>
     5b0:	0000b537          	lui	a0,0xb
     5b4:	09900613          	li	a2,153
     5b8:	15448593          	addi	a1,s1,340
     5bc:	23450513          	addi	a0,a0,564 # b234 <_read+0x118>
     5c0:	50a080ef          	jal	ra,8aca <iprintf>
     5c4:	4bd030ef          	jal	ra,4280 <PM_MeasureResistance>
     5c8:	bf65                	j	580 <main+0x208>
     5ca:	0000b537          	lui	a0,0xb
     5ce:	0a200613          	li	a2,162
     5d2:	15448593          	addi	a1,s1,340
     5d6:	25050513          	addi	a0,a0,592 # b250 <_read+0x134>
     5da:	4f0080ef          	jal	ra,8aca <iprintf>
     5de:	0b3020ef          	jal	ra,2e90 <PM_MeasureDiode>
     5e2:	bf79                	j	580 <main+0x208>
     5e4:	0000b537          	lui	a0,0xb
     5e8:	0ab00613          	li	a2,171
     5ec:	15448593          	addi	a1,s1,340
     5f0:	26c50513          	addi	a0,a0,620 # b26c <_read+0x150>
     5f4:	4d6080ef          	jal	ra,8aca <iprintf>
     5f8:	448010ef          	jal	ra,1a40 <PM_MeasureBJT>
     5fc:	b751                	j	580 <main+0x208>
     5fe:	0000b537          	lui	a0,0xb
     602:	0b400613          	li	a2,180
     606:	15448593          	addi	a1,s1,340
     60a:	28850513          	addi	a0,a0,648 # b288 <_read+0x16c>
     60e:	4bc080ef          	jal	ra,8aca <iprintf>
     612:	bf95                	j	586 <main+0x20e>
     614:	478d                	li	a5,3
     616:	04f58863          	beq	a1,a5,666 <main+0x2ee>
     61a:	4791                	li	a5,4
     61c:	eaf59ee3          	bne	a1,a5,4d8 <main+0x160>
     620:	01092583          	lw	a1,16(s2)
     624:	0000b537          	lui	a0,0xb
     628:	31c50513          	addi	a0,a0,796 # b31c <_read+0x200>
     62c:	49e080ef          	jal	ra,8aca <iprintf>
     630:	a819                	j	646 <main+0x2ce>
     632:	00994603          	lbu	a2,9(s2)
     636:	00894583          	lbu	a1,8(s2)
     63a:	0000b537          	lui	a0,0xb
     63e:	2b450513          	addi	a0,a0,692 # b2b4 <_read+0x198>
     642:	488080ef          	jal	ra,8aca <iprintf>
     646:	260050ef          	jal	ra,58a6 <Keyboard_ClearAllStatus>
     64a:	06400513          	li	a0,100
     64e:	320050ef          	jal	ra,596e <Delay_Ms>
     652:	b3e9                	j	41c <main+0xa4>
     654:	0000b537          	lui	a0,0xb
     658:	00994603          	lbu	a2,9(s2)
     65c:	00894583          	lbu	a1,8(s2)
     660:	2d450513          	addi	a0,a0,724 # b2d4 <_read+0x1b8>
     664:	bff9                	j	642 <main+0x2ca>
     666:	0000b537          	lui	a0,0xb
     66a:	00994603          	lbu	a2,9(s2)
     66e:	00894583          	lbu	a1,8(s2)
     672:	2f850513          	addi	a0,a0,760 # b2f8 <_read+0x1dc>
     676:	b7f1                	j	642 <main+0x2ca>

00000678 <SystemInit>:
     678:	400217b7          	lui	a5,0x40021
     67c:	4398                	lw	a4,0(a5)
     67e:	f8ff06b7          	lui	a3,0xf8ff0
     682:	1141                	addi	sp,sp,-16
     684:	00176713          	ori	a4,a4,1
     688:	c398                	sw	a4,0(a5)
     68a:	43d8                	lw	a4,4(a5)
     68c:	00020637          	lui	a2,0x20
     690:	8f75                	and	a4,a4,a3
     692:	c3d8                	sw	a4,4(a5)
     694:	4398                	lw	a4,0(a5)
     696:	fef706b7          	lui	a3,0xfef70
     69a:	16fd                	addi	a3,a3,-1
     69c:	8f75                	and	a4,a4,a3
     69e:	c398                	sw	a4,0(a5)
     6a0:	4398                	lw	a4,0(a5)
     6a2:	fffc06b7          	lui	a3,0xfffc0
     6a6:	16fd                	addi	a3,a3,-1
     6a8:	8f75                	and	a4,a4,a3
     6aa:	c398                	sw	a4,0(a5)
     6ac:	43d8                	lw	a4,4(a5)
     6ae:	ff8106b7          	lui	a3,0xff810
     6b2:	16fd                	addi	a3,a3,-1
     6b4:	8f75                	and	a4,a4,a3
     6b6:	c3d8                	sw	a4,4(a5)
     6b8:	4398                	lw	a4,0(a5)
     6ba:	ec0006b7          	lui	a3,0xec000
     6be:	16fd                	addi	a3,a3,-1
     6c0:	8f75                	and	a4,a4,a3
     6c2:	c398                	sw	a4,0(a5)
     6c4:	00ff0737          	lui	a4,0xff0
     6c8:	c798                	sw	a4,8(a5)
     6ca:	0207a623          	sw	zero,44(a5) # 4002102c <_eusrstack+0x2001902c>
     6ce:	c402                	sw	zero,8(sp)
     6d0:	c602                	sw	zero,12(sp)
     6d2:	4398                	lw	a4,0(a5)
     6d4:	66c1                	lui	a3,0x10
     6d6:	8f55                	or	a4,a4,a3
     6d8:	c398                	sw	a4,0(a5)
     6da:	400216b7          	lui	a3,0x40021
     6de:	6705                	lui	a4,0x1
     6e0:	429c                	lw	a5,0(a3)
     6e2:	8ff1                	and	a5,a5,a2
     6e4:	c63e                	sw	a5,12(sp)
     6e6:	47a2                	lw	a5,8(sp)
     6e8:	0785                	addi	a5,a5,1
     6ea:	c43e                	sw	a5,8(sp)
     6ec:	47b2                	lw	a5,12(sp)
     6ee:	e781                	bnez	a5,6f6 <SystemInit+0x7e>
     6f0:	47a2                	lw	a5,8(sp)
     6f2:	fee797e3          	bne	a5,a4,6e0 <SystemInit+0x68>
     6f6:	400217b7          	lui	a5,0x40021
     6fa:	439c                	lw	a5,0(a5)
     6fc:	00e79713          	slli	a4,a5,0xe
     700:	06075763          	bgez	a4,76e <SystemInit+0xf6>
     704:	4785                	li	a5,1
     706:	c63e                	sw	a5,12(sp)
     708:	4732                	lw	a4,12(sp)
     70a:	4785                	li	a5,1
     70c:	04f71f63          	bne	a4,a5,76a <SystemInit+0xf2>
     710:	400217b7          	lui	a5,0x40021
     714:	43d8                	lw	a4,4(a5)
     716:	ffc106b7          	lui	a3,0xffc10
     71a:	16fd                	addi	a3,a3,-1
     71c:	c3d8                	sw	a4,4(a5)
     71e:	43d8                	lw	a4,4(a5)
     720:	c3d8                	sw	a4,4(a5)
     722:	43d8                	lw	a4,4(a5)
     724:	40076713          	ori	a4,a4,1024
     728:	c3d8                	sw	a4,4(a5)
     72a:	43d8                	lw	a4,4(a5)
     72c:	8f75                	and	a4,a4,a3
     72e:	c3d8                	sw	a4,4(a5)
     730:	43d8                	lw	a4,4(a5)
     732:	002906b7          	lui	a3,0x290
     736:	8f55                	or	a4,a4,a3
     738:	c3d8                	sw	a4,4(a5)
     73a:	4398                	lw	a4,0(a5)
     73c:	010006b7          	lui	a3,0x1000
     740:	8f55                	or	a4,a4,a3
     742:	c398                	sw	a4,0(a5)
     744:	4398                	lw	a4,0(a5)
     746:	00671693          	slli	a3,a4,0x6
     74a:	fe06dde3          	bgez	a3,744 <SystemInit+0xcc>
     74e:	43d8                	lw	a4,4(a5)
     750:	400216b7          	lui	a3,0x40021
     754:	9b71                	andi	a4,a4,-4
     756:	c3d8                	sw	a4,4(a5)
     758:	43d8                	lw	a4,4(a5)
     75a:	00276713          	ori	a4,a4,2
     75e:	c3d8                	sw	a4,4(a5)
     760:	4721                	li	a4,8
     762:	42dc                	lw	a5,4(a3)
     764:	8bb1                	andi	a5,a5,12
     766:	fee79ee3          	bne	a5,a4,762 <SystemInit+0xea>
     76a:	0141                	addi	sp,sp,16
     76c:	8082                	ret
     76e:	c602                	sw	zero,12(sp)
     770:	bf61                	j	708 <SystemInit+0x90>

00000772 <SystemCoreClockUpdate>:
     772:	40021637          	lui	a2,0x40021
     776:	425c                	lw	a5,4(a2)
     778:	20000737          	lui	a4,0x20000
     77c:	4691                	li	a3,4
     77e:	8bb1                	andi	a5,a5,12
     780:	1f070713          	addi	a4,a4,496 # 200001f0 <SystemCoreClock>
     784:	00d78563          	beq	a5,a3,78e <SystemCoreClockUpdate+0x1c>
     788:	46a1                	li	a3,8
     78a:	02d78863          	beq	a5,a3,7ba <SystemCoreClockUpdate+0x48>
     78e:	007a17b7          	lui	a5,0x7a1
     792:	20078793          	addi	a5,a5,512 # 7a1200 <_data_lma+0x79537c>
     796:	c31c                	sw	a5,0(a4)
     798:	400217b7          	lui	a5,0x40021
     79c:	43dc                	lw	a5,4(a5)
     79e:	8391                	srli	a5,a5,0x4
     7a0:	00f7f693          	andi	a3,a5,15
     7a4:	200007b7          	lui	a5,0x20000
     7a8:	00078793          	mv	a5,a5
     7ac:	97b6                	add	a5,a5,a3
     7ae:	2394                	lbu	a3,0(a5)
     7b0:	431c                	lw	a5,0(a4)
     7b2:	00d7d7b3          	srl	a5,a5,a3
     7b6:	c31c                	sw	a5,0(a4)
     7b8:	8082                	ret
     7ba:	4254                	lw	a3,4(a2)
     7bc:	4250                	lw	a2,4(a2)
     7be:	67c1                	lui	a5,0x10
     7c0:	82c9                	srli	a3,a3,0x12
     7c2:	8abd                	andi	a3,a3,15
     7c4:	8e7d                	and	a2,a2,a5
     7c6:	00268793          	addi	a5,a3,2 # 40021002 <_eusrstack+0x20019002>
     7ca:	ca85                	beqz	a3,7fa <SystemCoreClockUpdate+0x88>
     7cc:	46bd                	li	a3,15
     7ce:	02d78963          	beq	a5,a3,800 <__stack_size>
     7d2:	46c1                	li	a3,16
     7d4:	02d78963          	beq	a5,a3,806 <__stack_size+0x6>
     7d8:	45c5                	li	a1,17
     7da:	4681                	li	a3,0
     7dc:	00b79363          	bne	a5,a1,7e2 <SystemCoreClockUpdate+0x70>
     7e0:	47c1                	li	a5,16
     7e2:	e60d                	bnez	a2,80c <__stack_size+0xc>
     7e4:	40024637          	lui	a2,0x40024
     7e8:	80062603          	lw	a2,-2048(a2) # 40023800 <_eusrstack+0x2001b800>
     7ec:	8a41                	andi	a2,a2,16
     7ee:	c615                	beqz	a2,81a <__stack_size+0x1a>
     7f0:	007a1637          	lui	a2,0x7a1
     7f4:	20060613          	addi	a2,a2,512 # 7a1200 <_data_lma+0x79537c>
     7f8:	a02d                	j	822 <__stack_size+0x22>
     7fa:	4681                	li	a3,0
     7fc:	47c9                	li	a5,18
     7fe:	b7d5                	j	7e2 <SystemCoreClockUpdate+0x70>
     800:	4685                	li	a3,1
     802:	47b5                	li	a5,13
     804:	bff9                	j	7e2 <SystemCoreClockUpdate+0x70>
     806:	4681                	li	a3,0
     808:	47bd                	li	a5,15
     80a:	bfe1                	j	7e2 <SystemCoreClockUpdate+0x70>
     80c:	40021637          	lui	a2,0x40021
     810:	4250                	lw	a2,4(a2)
     812:	00e61593          	slli	a1,a2,0xe
     816:	fc05dde3          	bgez	a1,7f0 <SystemCoreClockUpdate+0x7e>
     81a:	003d1637          	lui	a2,0x3d1
     81e:	90060613          	addi	a2,a2,-1792 # 3d0900 <_data_lma+0x3c4a7c>
     822:	02c787b3          	mul	a5,a5,a2
     826:	c31c                	sw	a5,0(a4)
     828:	daa5                	beqz	a3,798 <SystemCoreClockUpdate+0x26>
     82a:	431c                	lw	a5,0(a4)
     82c:	8385                	srli	a5,a5,0x1
     82e:	b7a5                	j	796 <SystemCoreClockUpdate+0x24>
     830:	a001                	j	830 <__stack_size+0x30>
     832:	a001                	j	832 <__stack_size+0x32>

00000834 <Ecall_M_Mode_Handler>:
     834:	a001                	j	834 <Ecall_M_Mode_Handler>

00000836 <Ecall_U_Mode_Handler>:
     836:	a001                	j	836 <Ecall_U_Mode_Handler>

00000838 <Break_Point_Handler>:
     838:	a001                	j	838 <Break_Point_Handler>

0000083a <SysTick_Handler>:
     83a:	a001                	j	83a <SysTick_Handler>

0000083c <SW_Handler>:
     83c:	a001                	j	83c <SW_Handler>

0000083e <WWDG_IRQHandler>:
     83e:	a001                	j	83e <WWDG_IRQHandler>

00000840 <PVD_IRQHandler>:
     840:	a001                	j	840 <PVD_IRQHandler>

00000842 <TAMPER_IRQHandler>:
     842:	a001                	j	842 <TAMPER_IRQHandler>

00000844 <RTC_IRQHandler>:
     844:	a001                	j	844 <RTC_IRQHandler>

00000846 <FLASH_IRQHandler>:
     846:	a001                	j	846 <FLASH_IRQHandler>

00000848 <RCC_IRQHandler>:
     848:	a001                	j	848 <RCC_IRQHandler>

0000084a <EXTI0_IRQHandler>:
     84a:	a001                	j	84a <EXTI0_IRQHandler>

0000084c <EXTI1_IRQHandler>:
     84c:	a001                	j	84c <EXTI1_IRQHandler>

0000084e <EXTI2_IRQHandler>:
     84e:	a001                	j	84e <EXTI2_IRQHandler>

00000850 <EXTI3_IRQHandler>:
     850:	a001                	j	850 <EXTI3_IRQHandler>
     852:	a001                	j	852 <EXTI3_IRQHandler+0x2>

00000854 <DMA1_Channel1_IRQHandler>:
     854:	a001                	j	854 <DMA1_Channel1_IRQHandler>

00000856 <DMA1_Channel2_IRQHandler>:
     856:	a001                	j	856 <DMA1_Channel2_IRQHandler>

00000858 <DMA1_Channel3_IRQHandler>:
     858:	a001                	j	858 <DMA1_Channel3_IRQHandler>

0000085a <DMA1_Channel4_IRQHandler>:
     85a:	a001                	j	85a <DMA1_Channel4_IRQHandler>

0000085c <DMA1_Channel5_IRQHandler>:
     85c:	a001                	j	85c <DMA1_Channel5_IRQHandler>

0000085e <DMA1_Channel6_IRQHandler>:
     85e:	a001                	j	85e <DMA1_Channel6_IRQHandler>

00000860 <DMA1_Channel7_IRQHandler>:
     860:	a001                	j	860 <DMA1_Channel7_IRQHandler>

00000862 <ADC1_2_IRQHandler>:
     862:	a001                	j	862 <ADC1_2_IRQHandler>

00000864 <USB_HP_CAN1_TX_IRQHandler>:
     864:	a001                	j	864 <USB_HP_CAN1_TX_IRQHandler>

00000866 <USB_LP_CAN1_RX0_IRQHandler>:
     866:	a001                	j	866 <USB_LP_CAN1_RX0_IRQHandler>

00000868 <CAN1_RX1_IRQHandler>:
     868:	a001                	j	868 <CAN1_RX1_IRQHandler>

0000086a <CAN1_SCE_IRQHandler>:
     86a:	a001                	j	86a <CAN1_SCE_IRQHandler>

0000086c <EXTI9_5_IRQHandler>:
     86c:	a001                	j	86c <EXTI9_5_IRQHandler>

0000086e <TIM1_BRK_IRQHandler>:
     86e:	a001                	j	86e <TIM1_BRK_IRQHandler>

00000870 <TIM1_UP_IRQHandler>:
     870:	a001                	j	870 <TIM1_UP_IRQHandler>

00000872 <TIM1_TRG_COM_IRQHandler>:
     872:	a001                	j	872 <TIM1_TRG_COM_IRQHandler>

00000874 <TIM1_CC_IRQHandler>:
     874:	a001                	j	874 <TIM1_CC_IRQHandler>
     876:	a001                	j	876 <TIM1_CC_IRQHandler+0x2>

00000878 <TIM3_IRQHandler>:
     878:	a001                	j	878 <TIM3_IRQHandler>

0000087a <TIM4_IRQHandler>:
     87a:	a001                	j	87a <TIM4_IRQHandler>

0000087c <I2C1_EV_IRQHandler>:
     87c:	a001                	j	87c <I2C1_EV_IRQHandler>

0000087e <I2C1_ER_IRQHandler>:
     87e:	a001                	j	87e <I2C1_ER_IRQHandler>

00000880 <I2C2_EV_IRQHandler>:
     880:	a001                	j	880 <I2C2_EV_IRQHandler>

00000882 <I2C2_ER_IRQHandler>:
     882:	a001                	j	882 <I2C2_ER_IRQHandler>

00000884 <SPI1_IRQHandler>:
     884:	a001                	j	884 <SPI1_IRQHandler>

00000886 <SPI2_IRQHandler>:
     886:	a001                	j	886 <SPI2_IRQHandler>

00000888 <USART1_IRQHandler>:
     888:	a001                	j	888 <USART1_IRQHandler>

0000088a <USART2_IRQHandler>:
     88a:	a001                	j	88a <USART2_IRQHandler>

0000088c <USART3_IRQHandler>:
     88c:	a001                	j	88c <USART3_IRQHandler>
     88e:	a001                	j	88e <USART3_IRQHandler+0x2>

00000890 <RTCAlarm_IRQHandler>:
     890:	a001                	j	890 <RTCAlarm_IRQHandler>

00000892 <USBWakeUp_IRQHandler>:
     892:	a001                	j	892 <USBWakeUp_IRQHandler>

00000894 <TIM8_BRK_IRQHandler>:
     894:	a001                	j	894 <TIM8_BRK_IRQHandler>

00000896 <TIM8_UP_IRQHandler>:
     896:	a001                	j	896 <TIM8_UP_IRQHandler>

00000898 <TIM8_TRG_COM_IRQHandler>:
     898:	a001                	j	898 <TIM8_TRG_COM_IRQHandler>

0000089a <TIM8_CC_IRQHandler>:
     89a:	a001                	j	89a <TIM8_CC_IRQHandler>

0000089c <RNG_IRQHandler>:
     89c:	a001                	j	89c <RNG_IRQHandler>

0000089e <FSMC_IRQHandler>:
     89e:	a001                	j	89e <FSMC_IRQHandler>

000008a0 <SDIO_IRQHandler>:
     8a0:	a001                	j	8a0 <SDIO_IRQHandler>

000008a2 <TIM5_IRQHandler>:
     8a2:	a001                	j	8a2 <TIM5_IRQHandler>

000008a4 <SPI3_IRQHandler>:
     8a4:	a001                	j	8a4 <SPI3_IRQHandler>

000008a6 <UART4_IRQHandler>:
     8a6:	a001                	j	8a6 <UART4_IRQHandler>

000008a8 <UART5_IRQHandler>:
     8a8:	a001                	j	8a8 <UART5_IRQHandler>

000008aa <TIM6_IRQHandler>:
     8aa:	a001                	j	8aa <TIM6_IRQHandler>

000008ac <TIM7_IRQHandler>:
     8ac:	a001                	j	8ac <TIM7_IRQHandler>

000008ae <DMA2_Channel1_IRQHandler>:
     8ae:	a001                	j	8ae <DMA2_Channel1_IRQHandler>

000008b0 <DMA2_Channel2_IRQHandler>:
     8b0:	a001                	j	8b0 <DMA2_Channel2_IRQHandler>

000008b2 <DMA2_Channel3_IRQHandler>:
     8b2:	a001                	j	8b2 <DMA2_Channel3_IRQHandler>

000008b4 <DMA2_Channel4_IRQHandler>:
     8b4:	a001                	j	8b4 <DMA2_Channel4_IRQHandler>

000008b6 <DMA2_Channel5_IRQHandler>:
     8b6:	a001                	j	8b6 <DMA2_Channel5_IRQHandler>

000008b8 <ETH_IRQHandler>:
     8b8:	a001                	j	8b8 <ETH_IRQHandler>

000008ba <ETH_WKUP_IRQHandler>:
     8ba:	a001                	j	8ba <ETH_WKUP_IRQHandler>

000008bc <CAN2_TX_IRQHandler>:
     8bc:	a001                	j	8bc <CAN2_TX_IRQHandler>

000008be <CAN2_RX0_IRQHandler>:
     8be:	a001                	j	8be <CAN2_RX0_IRQHandler>

000008c0 <CAN2_RX1_IRQHandler>:
     8c0:	a001                	j	8c0 <CAN2_RX1_IRQHandler>

000008c2 <CAN2_SCE_IRQHandler>:
     8c2:	a001                	j	8c2 <CAN2_SCE_IRQHandler>

000008c4 <OTG_FS_IRQHandler>:
     8c4:	a001                	j	8c4 <OTG_FS_IRQHandler>

000008c6 <USBHSWakeup_IRQHandler>:
     8c6:	a001                	j	8c6 <USBHSWakeup_IRQHandler>

000008c8 <USBHS_IRQHandler>:
     8c8:	a001                	j	8c8 <USBHS_IRQHandler>

000008ca <DVP_IRQHandler>:
     8ca:	a001                	j	8ca <DVP_IRQHandler>

000008cc <UART6_IRQHandler>:
     8cc:	a001                	j	8cc <UART6_IRQHandler>

000008ce <UART7_IRQHandler>:
     8ce:	a001                	j	8ce <UART7_IRQHandler>

000008d0 <UART8_IRQHandler>:
     8d0:	a001                	j	8d0 <UART8_IRQHandler>

000008d2 <TIM9_BRK_IRQHandler>:
     8d2:	a001                	j	8d2 <TIM9_BRK_IRQHandler>

000008d4 <TIM9_UP_IRQHandler>:
     8d4:	a001                	j	8d4 <TIM9_UP_IRQHandler>

000008d6 <TIM9_TRG_COM_IRQHandler>:
     8d6:	a001                	j	8d6 <TIM9_TRG_COM_IRQHandler>

000008d8 <TIM9_CC_IRQHandler>:
     8d8:	a001                	j	8d8 <TIM9_CC_IRQHandler>

000008da <TIM10_BRK_IRQHandler>:
     8da:	a001                	j	8da <TIM10_BRK_IRQHandler>

000008dc <TIM10_UP_IRQHandler>:
     8dc:	a001                	j	8dc <TIM10_UP_IRQHandler>

000008de <TIM10_TRG_COM_IRQHandler>:
     8de:	a001                	j	8de <TIM10_TRG_COM_IRQHandler>

000008e0 <TIM10_CC_IRQHandler>:
     8e0:	a001                	j	8e0 <TIM10_CC_IRQHandler>

000008e2 <DMA2_Channel6_IRQHandler>:
     8e2:	a001                	j	8e2 <DMA2_Channel6_IRQHandler>

000008e4 <DMA2_Channel7_IRQHandler>:
     8e4:	a001                	j	8e4 <DMA2_Channel7_IRQHandler>

000008e6 <DMA2_Channel8_IRQHandler>:
     8e6:	a001                	j	8e6 <DMA2_Channel8_IRQHandler>

000008e8 <DMA2_Channel9_IRQHandler>:
     8e8:	a001                	j	8e8 <DMA2_Channel9_IRQHandler>

000008ea <DMA2_Channel10_IRQHandler>:
     8ea:	a001                	j	8ea <DMA2_Channel10_IRQHandler>

000008ec <DMA2_Channel11_IRQHandler>:
     8ec:	a001                	j	8ec <DMA2_Channel11_IRQHandler>

000008ee <handle_reset>:
     8ee:	20000197          	auipc	gp,0x20000
     8f2:	10218193          	addi	gp,gp,258 # 200009f0 <__global_pointer$>
     8f6:	20007117          	auipc	sp,0x20007
     8fa:	70a10113          	addi	sp,sp,1802 # 20008000 <_eusrstack>
     8fe:	0000b517          	auipc	a0,0xb
     902:	58650513          	addi	a0,a0,1414 # be84 <_data_lma>
     906:	1ffff597          	auipc	a1,0x1ffff
     90a:	6fa58593          	addi	a1,a1,1786 # 20000000 <_data_vma>
     90e:	83018613          	addi	a2,gp,-2000 # 20000220 <_edata>
     912:	00c5fa63          	bgeu	a1,a2,926 <handle_reset+0x38>
     916:	00052283          	lw	t0,0(a0)
     91a:	0055a023          	sw	t0,0(a1)
     91e:	0511                	addi	a0,a0,4
     920:	0591                	addi	a1,a1,4
     922:	fec5eae3          	bltu	a1,a2,916 <handle_reset+0x28>
     926:	83018513          	addi	a0,gp,-2000 # 20000220 <_edata>
     92a:	ab018593          	addi	a1,gp,-1360 # 200004a0 <_ebss>
     92e:	00b57763          	bgeu	a0,a1,93c <handle_reset+0x4e>
     932:	00052023          	sw	zero,0(a0)
     936:	0511                	addi	a0,a0,4
     938:	feb56de3          	bltu	a0,a1,932 <handle_reset+0x44>
     93c:	42fd                	li	t0,31
     93e:	bc029073          	csrw	0xbc0,t0
     942:	42ad                	li	t0,11
     944:	80429073          	csrw	0x804,t0
     948:	000062b7          	lui	t0,0x6
     94c:	08828293          	addi	t0,t0,136 # 6088 <__adddf3+0x12a>
     950:	3002a073          	csrs	mstatus,t0
     954:	fffff297          	auipc	t0,0xfffff
     958:	6e428293          	addi	t0,t0,1764 # 38 <_einit>
     95c:	0032e293          	ori	t0,t0,3
     960:	30529073          	csrw	mtvec,t0
     964:	d15ff0ef          	jal	ra,678 <SystemInit>
     968:	00000297          	auipc	t0,0x0
     96c:	a1028293          	addi	t0,t0,-1520 # 378 <main>
     970:	34129073          	csrw	mepc,t0
     974:	30200073          	mret

00000978 <ADC_DeInit>:
     978:	8b9ff2ef          	jal	t0,230 <__riscv_save_0>
     97c:	400127b7          	lui	a5,0x40012
     980:	40078793          	addi	a5,a5,1024 # 40012400 <_eusrstack+0x2000a400>
     984:	00f51e63          	bne	a0,a5,9a0 <ADC_DeInit+0x28>
     988:	4585                	li	a1,1
     98a:	20000513          	li	a0,512
     98e:	3b3000ef          	jal	ra,1540 <RCC_APB2PeriphResetCmd>
     992:	4581                	li	a1,0
     994:	20000513          	li	a0,512
     998:	3a9000ef          	jal	ra,1540 <RCC_APB2PeriphResetCmd>
     99c:	8b9ff06f          	j	254 <__riscv_restore_0>
     9a0:	400137b7          	lui	a5,0x40013
     9a4:	80078793          	addi	a5,a5,-2048 # 40012800 <_eusrstack+0x2000a800>
     9a8:	fef51ae3          	bne	a0,a5,99c <ADC_DeInit+0x24>
     9ac:	4585                	li	a1,1
     9ae:	40000513          	li	a0,1024
     9b2:	38f000ef          	jal	ra,1540 <RCC_APB2PeriphResetCmd>
     9b6:	4581                	li	a1,0
     9b8:	40000513          	li	a0,1024
     9bc:	bff1                	j	998 <ADC_DeInit+0x20>

000009be <ADC_Init>:
     9be:	415c                	lw	a5,4(a0)
     9c0:	e0f10737          	lui	a4,0xe0f10
     9c4:	eff70713          	addi	a4,a4,-257 # e0f0feff <_eusrstack+0xc0f07eff>
     9c8:	4d94                	lw	a3,24(a1)
     9ca:	8f7d                	and	a4,a4,a5
     9cc:	419c                	lw	a5,0(a1)
     9ce:	8fd5                	or	a5,a5,a3
     9d0:	4dd4                	lw	a3,28(a1)
     9d2:	8fd5                	or	a5,a5,a3
     9d4:	41d4                	lw	a3,4(a1)
     9d6:	06a2                	slli	a3,a3,0x8
     9d8:	8fd5                	or	a5,a5,a3
     9da:	8fd9                	or	a5,a5,a4
     9dc:	c15c                	sw	a5,4(a0)
     9de:	451c                	lw	a5,8(a0)
     9e0:	fff1f737          	lui	a4,0xfff1f
     9e4:	7fd70713          	addi	a4,a4,2045 # fff1f7fd <_eusrstack+0xdff177fd>
     9e8:	45d4                	lw	a3,12(a1)
     9ea:	8f7d                	and	a4,a4,a5
     9ec:	499c                	lw	a5,16(a1)
     9ee:	8fd5                	or	a5,a5,a3
     9f0:	4594                	lw	a3,8(a1)
     9f2:	0686                	slli	a3,a3,0x1
     9f4:	8fd5                	or	a5,a5,a3
     9f6:	8fd9                	or	a5,a5,a4
     9f8:	c51c                	sw	a5,8(a0)
     9fa:	555c                	lw	a5,44(a0)
     9fc:	ff100737          	lui	a4,0xff100
     a00:	177d                	addi	a4,a4,-1
     a02:	8f7d                	and	a4,a4,a5
     a04:	29dc                	lbu	a5,20(a1)
     a06:	17fd                	addi	a5,a5,-1
     a08:	0ff7f793          	andi	a5,a5,255
     a0c:	07d2                	slli	a5,a5,0x14
     a0e:	8fd9                	or	a5,a5,a4
     a10:	d55c                	sw	a5,44(a0)
     a12:	8082                	ret

00000a14 <ADC_Cmd>:
     a14:	451c                	lw	a5,8(a0)
     a16:	c589                	beqz	a1,a20 <ADC_Cmd+0xc>
     a18:	0017e793          	ori	a5,a5,1
     a1c:	c51c                	sw	a5,8(a0)
     a1e:	8082                	ret
     a20:	9bf9                	andi	a5,a5,-2
     a22:	bfed                	j	a1c <ADC_Cmd+0x8>

00000a24 <ADC_DMACmd>:
     a24:	451c                	lw	a5,8(a0)
     a26:	c589                	beqz	a1,a30 <ADC_DMACmd+0xc>
     a28:	1007e793          	ori	a5,a5,256
     a2c:	c51c                	sw	a5,8(a0)
     a2e:	8082                	ret
     a30:	eff7f793          	andi	a5,a5,-257
     a34:	bfe5                	j	a2c <ADC_DMACmd+0x8>

00000a36 <ADC_ResetCalibration>:
     a36:	451c                	lw	a5,8(a0)
     a38:	0087e793          	ori	a5,a5,8
     a3c:	c51c                	sw	a5,8(a0)
     a3e:	8082                	ret

00000a40 <ADC_GetResetCalibrationStatus>:
     a40:	4508                	lw	a0,8(a0)
     a42:	810d                	srli	a0,a0,0x3
     a44:	8905                	andi	a0,a0,1
     a46:	8082                	ret

00000a48 <ADC_StartCalibration>:
     a48:	451c                	lw	a5,8(a0)
     a4a:	0047e793          	ori	a5,a5,4
     a4e:	c51c                	sw	a5,8(a0)
     a50:	8082                	ret

00000a52 <ADC_GetCalibrationStatus>:
     a52:	4508                	lw	a0,8(a0)
     a54:	8109                	srli	a0,a0,0x2
     a56:	8905                	andi	a0,a0,1
     a58:	8082                	ret

00000a5a <ADC_SoftwareStartConvCmd>:
     a5a:	451c                	lw	a5,8(a0)
     a5c:	c591                	beqz	a1,a68 <ADC_SoftwareStartConvCmd+0xe>
     a5e:	00500737          	lui	a4,0x500
     a62:	8fd9                	or	a5,a5,a4
     a64:	c51c                	sw	a5,8(a0)
     a66:	8082                	ret
     a68:	ffb00737          	lui	a4,0xffb00
     a6c:	177d                	addi	a4,a4,-1
     a6e:	8ff9                	and	a5,a5,a4
     a70:	bfd5                	j	a64 <ADC_SoftwareStartConvCmd+0xa>

00000a72 <ADC_RegularChannelConfig>:
     a72:	47a5                	li	a5,9
     a74:	04b7f763          	bgeu	a5,a1,ac2 <ADC_RegularChannelConfig+0x50>
     a78:	478d                	li	a5,3
     a7a:	ff658713          	addi	a4,a1,-10
     a7e:	02f70733          	mul	a4,a4,a5
     a82:	00c52803          	lw	a6,12(a0)
     a86:	479d                	li	a5,7
     a88:	00e797b3          	sll	a5,a5,a4
     a8c:	fff7c793          	not	a5,a5
     a90:	0107f7b3          	and	a5,a5,a6
     a94:	00e696b3          	sll	a3,a3,a4
     a98:	8edd                	or	a3,a3,a5
     a9a:	c554                	sw	a3,12(a0)
     a9c:	4799                	li	a5,6
     a9e:	04c7e363          	bltu	a5,a2,ae4 <ADC_RegularChannelConfig+0x72>
     aa2:	4795                	li	a5,5
     aa4:	167d                	addi	a2,a2,-1
     aa6:	02f60633          	mul	a2,a2,a5
     aaa:	5958                	lw	a4,52(a0)
     aac:	47fd                	li	a5,31
     aae:	00c797b3          	sll	a5,a5,a2
     ab2:	fff7c793          	not	a5,a5
     ab6:	8ff9                	and	a5,a5,a4
     ab8:	00c59633          	sll	a2,a1,a2
     abc:	8e5d                	or	a2,a2,a5
     abe:	d950                	sw	a2,52(a0)
     ac0:	8082                	ret
     ac2:	470d                	li	a4,3
     ac4:	02e58733          	mul	a4,a1,a4
     ac8:	01052803          	lw	a6,16(a0)
     acc:	479d                	li	a5,7
     ace:	00e797b3          	sll	a5,a5,a4
     ad2:	fff7c793          	not	a5,a5
     ad6:	0107f7b3          	and	a5,a5,a6
     ada:	00e696b3          	sll	a3,a3,a4
     ade:	8edd                	or	a3,a3,a5
     ae0:	c914                	sw	a3,16(a0)
     ae2:	bf6d                	j	a9c <ADC_RegularChannelConfig+0x2a>
     ae4:	47b1                	li	a5,12
     ae6:	02c7e263          	bltu	a5,a2,b0a <ADC_RegularChannelConfig+0x98>
     aea:	4795                	li	a5,5
     aec:	1665                	addi	a2,a2,-7
     aee:	02f60633          	mul	a2,a2,a5
     af2:	5918                	lw	a4,48(a0)
     af4:	47fd                	li	a5,31
     af6:	00c797b3          	sll	a5,a5,a2
     afa:	fff7c793          	not	a5,a5
     afe:	8ff9                	and	a5,a5,a4
     b00:	00c59633          	sll	a2,a1,a2
     b04:	8e5d                	or	a2,a2,a5
     b06:	d910                	sw	a2,48(a0)
     b08:	8082                	ret
     b0a:	4795                	li	a5,5
     b0c:	164d                	addi	a2,a2,-13
     b0e:	02f60633          	mul	a2,a2,a5
     b12:	5558                	lw	a4,44(a0)
     b14:	47fd                	li	a5,31
     b16:	00c797b3          	sll	a5,a5,a2
     b1a:	fff7c793          	not	a5,a5
     b1e:	8ff9                	and	a5,a5,a4
     b20:	00c595b3          	sll	a1,a1,a2
     b24:	8ddd                	or	a1,a1,a5
     b26:	d54c                	sw	a1,44(a0)
     b28:	8082                	ret

00000b2a <ADC_GetConversionValue>:
     b2a:	4568                	lw	a0,76(a0)
     b2c:	0542                	slli	a0,a0,0x10
     b2e:	8141                	srli	a0,a0,0x10
     b30:	8082                	ret

00000b32 <ADC_GetFlagStatus>:
     b32:	4108                	lw	a0,0(a0)
     b34:	8d6d                	and	a0,a0,a1
     b36:	00a03533          	snez	a0,a0
     b3a:	8082                	ret

00000b3c <ADC_ClearFlag>:
     b3c:	fff5c593          	not	a1,a1
     b40:	c10c                	sw	a1,0(a0)
     b42:	8082                	ret

00000b44 <ADC_BufferCmd>:
     b44:	415c                	lw	a5,4(a0)
     b46:	c591                	beqz	a1,b52 <ADC_BufferCmd+0xe>
     b48:	04000737          	lui	a4,0x4000
     b4c:	8fd9                	or	a5,a5,a4
     b4e:	c15c                	sw	a5,4(a0)
     b50:	8082                	ret
     b52:	fc000737          	lui	a4,0xfc000
     b56:	177d                	addi	a4,a4,-1
     b58:	8ff9                	and	a5,a5,a4
     b5a:	bfd5                	j	b4e <ADC_BufferCmd+0xa>

00000b5c <Get_CalibrationValue>:
     b5c:	ed4ff2ef          	jal	t0,230 <__riscv_save_0>
     b60:	1101                	addi	sp,sp,-32
     b62:	842a                	mv	s0,a0
     b64:	00010423          	sb	zero,8(sp)
     b68:	44a5                	li	s1,9
     b6a:	841c                	lbu	a5,8(sp)
     b6c:	04f4f963          	bgeu	s1,a5,bbe <Get_CalibrationValue+0x62>
     b70:	00010423          	sb	zero,8(sp)
     b74:	46a5                	li	a3,9
     b76:	4621                	li	a2,8
     b78:	841c                	lbu	a5,8(sp)
     b7a:	06f6fd63          	bgeu	a3,a5,bf4 <Get_CalibrationValue+0x98>
     b7e:	00011523          	sh	zero,10(sp)
     b82:	00010423          	sb	zero,8(sp)
     b86:	4695                	li	a3,5
     b88:	841c                	lbu	a5,8(sp)
     b8a:	0cf6ff63          	bgeu	a3,a5,c68 <Get_CalibrationValue+0x10c>
     b8e:	8538                	lhu	a4,10(sp)
     b90:	853c                	lhu	a5,10(sp)
     b92:	4699                	li	a3,6
     b94:	460d                	li	a2,3
     b96:	02d7f7b3          	remu	a5,a5,a3
     b9a:	6505                	lui	a0,0x1
     b9c:	80050513          	addi	a0,a0,-2048 # 800 <__stack_size>
     ba0:	02c7d7b3          	divu	a5,a5,a2
     ba4:	02d75733          	divu	a4,a4,a3
     ba8:	97ba                	add	a5,a5,a4
     baa:	07c2                	slli	a5,a5,0x10
     bac:	83c1                	srli	a5,a5,0x10
     bae:	857c                	sh	a5,10(sp)
     bb0:	853c                	lhu	a5,10(sp)
     bb2:	6105                	addi	sp,sp,32
     bb4:	8d1d                	sub	a0,a0,a5
     bb6:	0542                	slli	a0,a0,0x10
     bb8:	8541                	srai	a0,a0,0x10
     bba:	e9aff06f          	j	254 <__riscv_restore_0>
     bbe:	441c                	lw	a5,8(s0)
     bc0:	0087e793          	ori	a5,a5,8
     bc4:	c41c                	sw	a5,8(s0)
     bc6:	8522                	mv	a0,s0
     bc8:	3da5                	jal	a40 <ADC_GetResetCalibrationStatus>
     bca:	fd75                	bnez	a0,bc6 <Get_CalibrationValue+0x6a>
     bcc:	441c                	lw	a5,8(s0)
     bce:	0047e793          	ori	a5,a5,4
     bd2:	c41c                	sw	a5,8(s0)
     bd4:	8522                	mv	a0,s0
     bd6:	3db5                	jal	a52 <ADC_GetCalibrationStatus>
     bd8:	fd75                	bnez	a0,bd4 <Get_CalibrationValue+0x78>
     bda:	4478                	lw	a4,76(s0)
     bdc:	841c                	lbu	a5,8(sp)
     bde:	1014                	addi	a3,sp,32
     be0:	0786                	slli	a5,a5,0x1
     be2:	97b6                	add	a5,a5,a3
     be4:	fee79623          	sh	a4,-20(a5)
     be8:	841c                	lbu	a5,8(sp)
     bea:	0785                	addi	a5,a5,1
     bec:	0ff7f793          	andi	a5,a5,255
     bf0:	845c                	sb	a5,8(sp)
     bf2:	bfa5                	j	b6a <Get_CalibrationValue+0xe>
     bf4:	000104a3          	sb	zero,9(sp)
     bf8:	849c                	lbu	a5,9(sp)
     bfa:	00f67863          	bgeu	a2,a5,c0a <Get_CalibrationValue+0xae>
     bfe:	841c                	lbu	a5,8(sp)
     c00:	0785                	addi	a5,a5,1
     c02:	0ff7f793          	andi	a5,a5,255
     c06:	845c                	sb	a5,8(sp)
     c08:	bf85                	j	b78 <Get_CalibrationValue+0x1c>
     c0a:	8498                	lbu	a4,9(sp)
     c0c:	849c                	lbu	a5,9(sp)
     c0e:	100c                	addi	a1,sp,32
     c10:	0706                	slli	a4,a4,0x1
     c12:	0785                	addi	a5,a5,1
     c14:	0786                	slli	a5,a5,0x1
     c16:	972e                	add	a4,a4,a1
     c18:	97ae                	add	a5,a5,a1
     c1a:	fec75703          	lhu	a4,-20(a4) # fbffffec <_eusrstack+0xdbff7fec>
     c1e:	fec7d783          	lhu	a5,-20(a5)
     c22:	02e7fd63          	bgeu	a5,a4,c5c <Get_CalibrationValue+0x100>
     c26:	849c                	lbu	a5,9(sp)
     c28:	0786                	slli	a5,a5,0x1
     c2a:	97ae                	add	a5,a5,a1
     c2c:	fec7d783          	lhu	a5,-20(a5)
     c30:	857c                	sh	a5,10(sp)
     c32:	849c                	lbu	a5,9(sp)
     c34:	8498                	lbu	a4,9(sp)
     c36:	0785                	addi	a5,a5,1
     c38:	0786                	slli	a5,a5,0x1
     c3a:	97ae                	add	a5,a5,a1
     c3c:	fec7d583          	lhu	a1,-20(a5)
     c40:	00171793          	slli	a5,a4,0x1
     c44:	1018                	addi	a4,sp,32
     c46:	97ba                	add	a5,a5,a4
     c48:	feb79623          	sh	a1,-20(a5)
     c4c:	849c                	lbu	a5,9(sp)
     c4e:	8538                	lhu	a4,10(sp)
     c50:	100c                	addi	a1,sp,32
     c52:	0785                	addi	a5,a5,1
     c54:	0786                	slli	a5,a5,0x1
     c56:	97ae                	add	a5,a5,a1
     c58:	fee79623          	sh	a4,-20(a5)
     c5c:	849c                	lbu	a5,9(sp)
     c5e:	0785                	addi	a5,a5,1
     c60:	0ff7f793          	andi	a5,a5,255
     c64:	84dc                	sb	a5,9(sp)
     c66:	bf49                	j	bf8 <Get_CalibrationValue+0x9c>
     c68:	841c                	lbu	a5,8(sp)
     c6a:	1010                	addi	a2,sp,32
     c6c:	8538                	lhu	a4,10(sp)
     c6e:	0789                	addi	a5,a5,2
     c70:	0786                	slli	a5,a5,0x1
     c72:	97b2                	add	a5,a5,a2
     c74:	fec7d783          	lhu	a5,-20(a5)
     c78:	97ba                	add	a5,a5,a4
     c7a:	07c2                	slli	a5,a5,0x10
     c7c:	83c1                	srli	a5,a5,0x10
     c7e:	857c                	sh	a5,10(sp)
     c80:	841c                	lbu	a5,8(sp)
     c82:	0785                	addi	a5,a5,1
     c84:	0ff7f793          	andi	a5,a5,255
     c88:	845c                	sb	a5,8(sp)
     c8a:	bdfd                	j	b88 <Get_CalibrationValue+0x2c>

00000c8c <DBGMCU_GetCHIPID>:
     c8c:	1ffff7b7          	lui	a5,0x1ffff
     c90:	7047a503          	lw	a0,1796(a5) # 1ffff704 <_data_lma+0x1fff3880>
     c94:	8082                	ret

00000c96 <DMA_DeInit>:
     c96:	411c                	lw	a5,0(a0)
     c98:	6741                	lui	a4,0x10
     c9a:	1779                	addi	a4,a4,-2
     c9c:	8ff9                	and	a5,a5,a4
     c9e:	c11c                	sw	a5,0(a0)
     ca0:	00052023          	sw	zero,0(a0)
     ca4:	00052223          	sw	zero,4(a0)
     ca8:	00052423          	sw	zero,8(a0)
     cac:	400207b7          	lui	a5,0x40020
     cb0:	00052623          	sw	zero,12(a0)
     cb4:	00878713          	addi	a4,a5,8 # 40020008 <_eusrstack+0x20018008>
     cb8:	00e51763          	bne	a0,a4,cc6 <DMA_DeInit+0x30>
     cbc:	43d8                	lw	a4,4(a5)
     cbe:	00f76713          	ori	a4,a4,15
     cc2:	c3d8                	sw	a4,4(a5)
     cc4:	8082                	ret
     cc6:	01c78713          	addi	a4,a5,28
     cca:	00e51663          	bne	a0,a4,cd6 <DMA_DeInit+0x40>
     cce:	43d8                	lw	a4,4(a5)
     cd0:	0f076713          	ori	a4,a4,240
     cd4:	b7fd                	j	cc2 <DMA_DeInit+0x2c>
     cd6:	03078713          	addi	a4,a5,48
     cda:	00e51863          	bne	a0,a4,cea <DMA_DeInit+0x54>
     cde:	43d8                	lw	a4,4(a5)
     ce0:	6685                	lui	a3,0x1
     ce2:	f0068693          	addi	a3,a3,-256 # f00 <EXTI_Init+0x50>
     ce6:	8f55                	or	a4,a4,a3
     ce8:	bfe9                	j	cc2 <DMA_DeInit+0x2c>
     cea:	04478713          	addi	a4,a5,68
     cee:	00e51563          	bne	a0,a4,cf8 <DMA_DeInit+0x62>
     cf2:	43d8                	lw	a4,4(a5)
     cf4:	66bd                	lui	a3,0xf
     cf6:	bfc5                	j	ce6 <DMA_DeInit+0x50>
     cf8:	05878713          	addi	a4,a5,88
     cfc:	00e51663          	bne	a0,a4,d08 <DMA_DeInit+0x72>
     d00:	43d8                	lw	a4,4(a5)
     d02:	000f06b7          	lui	a3,0xf0
     d06:	b7c5                	j	ce6 <DMA_DeInit+0x50>
     d08:	06c78713          	addi	a4,a5,108
     d0c:	00e51663          	bne	a0,a4,d18 <DMA_DeInit+0x82>
     d10:	43d8                	lw	a4,4(a5)
     d12:	00f006b7          	lui	a3,0xf00
     d16:	bfc1                	j	ce6 <DMA_DeInit+0x50>
     d18:	08078713          	addi	a4,a5,128
     d1c:	00e51663          	bne	a0,a4,d28 <DMA_DeInit+0x92>
     d20:	43d8                	lw	a4,4(a5)
     d22:	0f0006b7          	lui	a3,0xf000
     d26:	b7c1                	j	ce6 <DMA_DeInit+0x50>
     d28:	40878713          	addi	a4,a5,1032
     d2c:	00e51963          	bne	a0,a4,d3e <DMA_DeInit+0xa8>
     d30:	4047a703          	lw	a4,1028(a5)
     d34:	00f76713          	ori	a4,a4,15
     d38:	40e7a223          	sw	a4,1028(a5)
     d3c:	8082                	ret
     d3e:	41c78713          	addi	a4,a5,1052
     d42:	00e51763          	bne	a0,a4,d50 <DMA_DeInit+0xba>
     d46:	4047a703          	lw	a4,1028(a5)
     d4a:	0f076713          	ori	a4,a4,240
     d4e:	b7ed                	j	d38 <DMA_DeInit+0xa2>
     d50:	43078793          	addi	a5,a5,1072
     d54:	00f51b63          	bne	a0,a5,d6a <DMA_DeInit+0xd4>
     d58:	400207b7          	lui	a5,0x40020
     d5c:	4047a703          	lw	a4,1028(a5) # 40020404 <_eusrstack+0x20018404>
     d60:	6685                	lui	a3,0x1
     d62:	f0068693          	addi	a3,a3,-256 # f00 <EXTI_Init+0x50>
     d66:	8f55                	or	a4,a4,a3
     d68:	bfc1                	j	d38 <DMA_DeInit+0xa2>
     d6a:	400207b7          	lui	a5,0x40020
     d6e:	44478713          	addi	a4,a5,1092 # 40020444 <_eusrstack+0x20018444>
     d72:	00e51663          	bne	a0,a4,d7e <DMA_DeInit+0xe8>
     d76:	4047a703          	lw	a4,1028(a5)
     d7a:	66bd                	lui	a3,0xf
     d7c:	b7ed                	j	d66 <DMA_DeInit+0xd0>
     d7e:	45878713          	addi	a4,a5,1112
     d82:	00e51763          	bne	a0,a4,d90 <DMA_DeInit+0xfa>
     d86:	4047a703          	lw	a4,1028(a5)
     d8a:	000f06b7          	lui	a3,0xf0
     d8e:	bfe1                	j	d66 <DMA_DeInit+0xd0>
     d90:	46c78713          	addi	a4,a5,1132
     d94:	00e51763          	bne	a0,a4,da2 <DMA_DeInit+0x10c>
     d98:	4047a703          	lw	a4,1028(a5)
     d9c:	00f006b7          	lui	a3,0xf00
     da0:	b7d9                	j	d66 <DMA_DeInit+0xd0>
     da2:	48078713          	addi	a4,a5,1152
     da6:	00e51763          	bne	a0,a4,db4 <DMA_DeInit+0x11e>
     daa:	4047a703          	lw	a4,1028(a5)
     dae:	0f0006b7          	lui	a3,0xf000
     db2:	bf55                	j	d66 <DMA_DeInit+0xd0>
     db4:	49078713          	addi	a4,a5,1168
     db8:	00e51963          	bne	a0,a4,dca <DMA_DeInit+0x134>
     dbc:	4d47a703          	lw	a4,1236(a5)
     dc0:	00f76713          	ori	a4,a4,15
     dc4:	4ce7aa23          	sw	a4,1236(a5)
     dc8:	8082                	ret
     dca:	4a078713          	addi	a4,a5,1184
     dce:	00e51763          	bne	a0,a4,ddc <DMA_DeInit+0x146>
     dd2:	4d47a703          	lw	a4,1236(a5)
     dd6:	0f076713          	ori	a4,a4,240
     dda:	b7ed                	j	dc4 <DMA_DeInit+0x12e>
     ddc:	4b078713          	addi	a4,a5,1200
     de0:	00e51963          	bne	a0,a4,df2 <DMA_DeInit+0x15c>
     de4:	4d47a703          	lw	a4,1236(a5)
     de8:	6685                	lui	a3,0x1
     dea:	f0068693          	addi	a3,a3,-256 # f00 <EXTI_Init+0x50>
     dee:	8f55                	or	a4,a4,a3
     df0:	bfd1                	j	dc4 <DMA_DeInit+0x12e>
     df2:	4c078713          	addi	a4,a5,1216
     df6:	fce519e3          	bne	a0,a4,dc8 <DMA_DeInit+0x132>
     dfa:	4d47a703          	lw	a4,1236(a5)
     dfe:	66bd                	lui	a3,0xf
     e00:	b7fd                	j	dee <DMA_DeInit+0x158>

00000e02 <DMA_Init>:
     e02:	411c                	lw	a5,0(a0)
     e04:	7761                	lui	a4,0xffff8
     e06:	073d                	addi	a4,a4,15
     e08:	5194                	lw	a3,32(a1)
     e0a:	8f7d                	and	a4,a4,a5
     e0c:	459c                	lw	a5,8(a1)
     e0e:	8fd5                	or	a5,a5,a3
     e10:	4994                	lw	a3,16(a1)
     e12:	8fd5                	or	a5,a5,a3
     e14:	49d4                	lw	a3,20(a1)
     e16:	8fd5                	or	a5,a5,a3
     e18:	4d94                	lw	a3,24(a1)
     e1a:	8fd5                	or	a5,a5,a3
     e1c:	4dd4                	lw	a3,28(a1)
     e1e:	8fd5                	or	a5,a5,a3
     e20:	51d4                	lw	a3,36(a1)
     e22:	8fd5                	or	a5,a5,a3
     e24:	5594                	lw	a3,40(a1)
     e26:	8fd5                	or	a5,a5,a3
     e28:	8fd9                	or	a5,a5,a4
     e2a:	c11c                	sw	a5,0(a0)
     e2c:	45dc                	lw	a5,12(a1)
     e2e:	c15c                	sw	a5,4(a0)
     e30:	419c                	lw	a5,0(a1)
     e32:	c51c                	sw	a5,8(a0)
     e34:	41dc                	lw	a5,4(a1)
     e36:	c55c                	sw	a5,12(a0)
     e38:	8082                	ret

00000e3a <DMA_Cmd>:
     e3a:	411c                	lw	a5,0(a0)
     e3c:	c589                	beqz	a1,e46 <DMA_Cmd+0xc>
     e3e:	0017e793          	ori	a5,a5,1
     e42:	c11c                	sw	a5,0(a0)
     e44:	8082                	ret
     e46:	6741                	lui	a4,0x10
     e48:	1779                	addi	a4,a4,-2
     e4a:	8ff9                	and	a5,a5,a4
     e4c:	bfdd                	j	e42 <DMA_Cmd+0x8>

00000e4e <DMA_SetCurrDataCounter>:
     e4e:	c14c                	sw	a1,4(a0)
     e50:	8082                	ret

00000e52 <DMA_GetFlagStatus>:
     e52:	00351793          	slli	a5,a0,0x3
     e56:	0007da63          	bgez	a5,e6a <DMA_GetFlagStatus+0x18>
     e5a:	400207b7          	lui	a5,0x40020
     e5e:	4007a783          	lw	a5,1024(a5) # 40020400 <_eusrstack+0x20018400>
     e62:	8d7d                	and	a0,a0,a5
     e64:	00a03533          	snez	a0,a0
     e68:	8082                	ret
     e6a:	00251793          	slli	a5,a0,0x2
     e6e:	0007d763          	bgez	a5,e7c <DMA_GetFlagStatus+0x2a>
     e72:	400207b7          	lui	a5,0x40020
     e76:	4d07a783          	lw	a5,1232(a5) # 400204d0 <_eusrstack+0x200184d0>
     e7a:	b7e5                	j	e62 <DMA_GetFlagStatus+0x10>
     e7c:	400207b7          	lui	a5,0x40020
     e80:	439c                	lw	a5,0(a5)
     e82:	b7c5                	j	e62 <DMA_GetFlagStatus+0x10>

00000e84 <DMA_ClearFlag>:
     e84:	00351793          	slli	a5,a0,0x3
     e88:	0007d763          	bgez	a5,e96 <DMA_ClearFlag+0x12>
     e8c:	400207b7          	lui	a5,0x40020
     e90:	40a7a223          	sw	a0,1028(a5) # 40020404 <_eusrstack+0x20018404>
     e94:	8082                	ret
     e96:	00251793          	slli	a5,a0,0x2
     e9a:	0007d763          	bgez	a5,ea8 <DMA_ClearFlag+0x24>
     e9e:	400207b7          	lui	a5,0x40020
     ea2:	4ca7aa23          	sw	a0,1236(a5) # 400204d4 <_eusrstack+0x200184d4>
     ea6:	8082                	ret
     ea8:	400207b7          	lui	a5,0x40020
     eac:	c3c8                	sw	a0,4(a5)
     eae:	8082                	ret

00000eb0 <EXTI_Init>:
     eb0:	4158                	lw	a4,4(a0)
     eb2:	00052803          	lw	a6,0(a0)
     eb6:	454c                	lw	a1,12(a0)
     eb8:	40010637          	lui	a2,0x40010
     ebc:	40060793          	addi	a5,a2,1024 # 40010400 <_eusrstack+0x20008400>
     ec0:	973e                	add	a4,a4,a5
     ec2:	fff84693          	not	a3,a6
     ec6:	c5b1                	beqz	a1,f12 <EXTI_Init+0x62>
     ec8:	40062583          	lw	a1,1024(a2)
     ecc:	8df5                	and	a1,a1,a3
     ece:	40b62023          	sw	a1,1024(a2)
     ed2:	43d0                	lw	a2,4(a5)
     ed4:	8ef1                	and	a3,a3,a2
     ed6:	c3d4                	sw	a3,4(a5)
     ed8:	4314                	lw	a3,0(a4)
     eda:	0106e6b3          	or	a3,a3,a6
     ede:	c314                	sw	a3,0(a4)
     ee0:	4118                	lw	a4,0(a0)
     ee2:	4790                	lw	a2,8(a5)
     ee4:	fff74693          	not	a3,a4
     ee8:	8e75                	and	a2,a2,a3
     eea:	c790                	sw	a2,8(a5)
     eec:	47d0                	lw	a2,12(a5)
     eee:	8ef1                	and	a3,a3,a2
     ef0:	c7d4                	sw	a3,12(a5)
     ef2:	4514                	lw	a3,8(a0)
     ef4:	4641                	li	a2,16
     ef6:	00c69963          	bne	a3,a2,f08 <EXTI_Init+0x58>
     efa:	4794                	lw	a3,8(a5)
     efc:	8ed9                	or	a3,a3,a4
     efe:	c794                	sw	a3,8(a5)
     f00:	47d4                	lw	a3,12(a5)
     f02:	8f55                	or	a4,a4,a3
     f04:	c7d8                	sw	a4,12(a5)
     f06:	8082                	ret
     f08:	97b6                	add	a5,a5,a3
     f0a:	4394                	lw	a3,0(a5)
     f0c:	8f55                	or	a4,a4,a3
     f0e:	c398                	sw	a4,0(a5)
     f10:	8082                	ret
     f12:	431c                	lw	a5,0(a4)
     f14:	8ff5                	and	a5,a5,a3
     f16:	c31c                	sw	a5,0(a4)
     f18:	8082                	ret

00000f1a <EXTI_GetITStatus>:
     f1a:	400107b7          	lui	a5,0x40010
     f1e:	40078713          	addi	a4,a5,1024 # 40010400 <_eusrstack+0x20008400>
     f22:	4007a783          	lw	a5,1024(a5)
     f26:	4b58                	lw	a4,20(a4)
     f28:	8f69                	and	a4,a4,a0
     f2a:	c709                	beqz	a4,f34 <EXTI_GetITStatus+0x1a>
     f2c:	8d7d                	and	a0,a0,a5
     f2e:	00a03533          	snez	a0,a0
     f32:	8082                	ret
     f34:	4501                	li	a0,0
     f36:	8082                	ret

00000f38 <EXTI_ClearITPendingBit>:
     f38:	400107b7          	lui	a5,0x40010
     f3c:	40a7aa23          	sw	a0,1044(a5) # 40010414 <_eusrstack+0x20008414>
     f40:	8082                	ret

00000f42 <GPIO_Init>:
     f42:	459c                	lw	a5,8(a1)
     f44:	0107f713          	andi	a4,a5,16
     f48:	00f7f813          	andi	a6,a5,15
     f4c:	c701                	beqz	a4,f54 <GPIO_Init+0x12>
     f4e:	41d8                	lw	a4,4(a1)
     f50:	00e86833          	or	a6,a6,a4
     f54:	218e                	lhu	a1,0(a1)
     f56:	0ff5f713          	andi	a4,a1,255
     f5a:	c339                	beqz	a4,fa0 <GPIO_Init+0x5e>
     f5c:	4118                	lw	a4,0(a0)
     f5e:	4681                	li	a3,0
     f60:	4e85                	li	t4,1
     f62:	4f3d                	li	t5,15
     f64:	02800f93          	li	t6,40
     f68:	04800293          	li	t0,72
     f6c:	4e21                	li	t3,8
     f6e:	00de9633          	sll	a2,t4,a3
     f72:	00c5f8b3          	and	a7,a1,a2
     f76:	03161163          	bne	a2,a7,f98 <GPIO_Init+0x56>
     f7a:	00269893          	slli	a7,a3,0x2
     f7e:	011f1333          	sll	t1,t5,a7
     f82:	fff34313          	not	t1,t1
     f86:	00e37733          	and	a4,t1,a4
     f8a:	011818b3          	sll	a7,a6,a7
     f8e:	00e8e733          	or	a4,a7,a4
     f92:	05f79f63          	bne	a5,t6,ff0 <GPIO_Init+0xae>
     f96:	c950                	sw	a2,20(a0)
     f98:	0685                	addi	a3,a3,1
     f9a:	fdc69ae3          	bne	a3,t3,f6e <GPIO_Init+0x2c>
     f9e:	c118                	sw	a4,0(a0)
     fa0:	0ff00713          	li	a4,255
     fa4:	04b77563          	bgeu	a4,a1,fee <GPIO_Init+0xac>
     fa8:	4154                	lw	a3,4(a0)
     faa:	4621                	li	a2,8
     fac:	4e85                	li	t4,1
     fae:	4f3d                	li	t5,15
     fb0:	02800f93          	li	t6,40
     fb4:	04800293          	li	t0,72
     fb8:	4e41                	li	t3,16
     fba:	00ce98b3          	sll	a7,t4,a2
     fbe:	0115f733          	and	a4,a1,a7
     fc2:	02e89263          	bne	a7,a4,fe6 <GPIO_Init+0xa4>
     fc6:	00261713          	slli	a4,a2,0x2
     fca:	1701                	addi	a4,a4,-32
     fcc:	00ef1333          	sll	t1,t5,a4
     fd0:	fff34313          	not	t1,t1
     fd4:	00d376b3          	and	a3,t1,a3
     fd8:	00e81733          	sll	a4,a6,a4
     fdc:	8ed9                	or	a3,a3,a4
     fde:	01f79d63          	bne	a5,t6,ff8 <GPIO_Init+0xb6>
     fe2:	01152a23          	sw	a7,20(a0)
     fe6:	0605                	addi	a2,a2,1
     fe8:	fdc619e3          	bne	a2,t3,fba <GPIO_Init+0x78>
     fec:	c154                	sw	a3,4(a0)
     fee:	8082                	ret
     ff0:	fa5794e3          	bne	a5,t0,f98 <GPIO_Init+0x56>
     ff4:	c910                	sw	a2,16(a0)
     ff6:	b74d                	j	f98 <GPIO_Init+0x56>
     ff8:	fe5797e3          	bne	a5,t0,fe6 <GPIO_Init+0xa4>
     ffc:	01152823          	sw	a7,16(a0)
    1000:	b7dd                	j	fe6 <GPIO_Init+0xa4>

00001002 <GPIO_ReadInputDataBit>:
    1002:	4508                	lw	a0,8(a0)
    1004:	8d6d                	and	a0,a0,a1
    1006:	00a03533          	snez	a0,a0
    100a:	8082                	ret

0000100c <GPIO_SetBits>:
    100c:	c90c                	sw	a1,16(a0)
    100e:	8082                	ret

00001010 <GPIO_ResetBits>:
    1010:	c94c                	sw	a1,20(a0)
    1012:	8082                	ret

00001014 <GPIO_PinRemapConfig>:
    1014:	400107b7          	lui	a5,0x40010
    1018:	04055a63          	bgez	a0,106c <GPIO_PinRemapConfig+0x58>
    101c:	4fdc                	lw	a5,28(a5)
    101e:	01055693          	srli	a3,a0,0x10
    1022:	01051813          	slli	a6,a0,0x10
    1026:	00300737          	lui	a4,0x300
    102a:	00f6f613          	andi	a2,a3,15
    102e:	01085813          	srli	a6,a6,0x10
    1032:	00e576b3          	and	a3,a0,a4
    1036:	06055063          	bgez	a0,1096 <GPIO_PinRemapConfig+0x82>
    103a:	02e69b63          	bne	a3,a4,1070 <GPIO_PinRemapConfig+0x5c>
    103e:	01060693          	addi	a3,a2,16
    1042:	460d                	li	a2,3
    1044:	00d616b3          	sll	a3,a2,a3
    1048:	fff6c693          	not	a3,a3
    104c:	8ff5                	and	a5,a5,a3
    104e:	c999                	beqz	a1,1064 <GPIO_PinRemapConfig+0x50>
    1050:	01555713          	srli	a4,a0,0x15
    1054:	3ff77713          	andi	a4,a4,1023
    1058:	0712                	slli	a4,a4,0x4
    105a:	00e81733          	sll	a4,a6,a4
    105e:	8fd9                	or	a5,a5,a4
    1060:	04055763          	bgez	a0,10ae <GPIO_PinRemapConfig+0x9a>
    1064:	40010737          	lui	a4,0x40010
    1068:	cf5c                	sw	a5,28(a4)
    106a:	8082                	ret
    106c:	43dc                	lw	a5,4(a5)
    106e:	bf45                	j	101e <GPIO_PinRemapConfig+0xa>
    1070:	00b51713          	slli	a4,a0,0xb
    1074:	00075663          	bgez	a4,1080 <GPIO_PinRemapConfig+0x6c>
    1078:	468d                	li	a3,3
    107a:	00c696b3          	sll	a3,a3,a2
    107e:	b7e9                	j	1048 <GPIO_PinRemapConfig+0x34>
    1080:	01555713          	srli	a4,a0,0x15
    1084:	3ff77713          	andi	a4,a4,1023
    1088:	0712                	slli	a4,a4,0x4
    108a:	00e81733          	sll	a4,a6,a4
    108e:	fff74713          	not	a4,a4
    1092:	8ff9                	and	a5,a5,a4
    1094:	bf6d                	j	104e <GPIO_PinRemapConfig+0x3a>
    1096:	02e69063          	bne	a3,a4,10b6 <GPIO_PinRemapConfig+0xa2>
    109a:	40010637          	lui	a2,0x40010
    109e:	4254                	lw	a3,4(a2)
    10a0:	f1000737          	lui	a4,0xf1000
    10a4:	177d                	addi	a4,a4,-1
    10a6:	8ff9                	and	a5,a5,a4
    10a8:	8f75                	and	a4,a4,a3
    10aa:	c258                	sw	a4,4(a2)
    10ac:	f1d5                	bnez	a1,1050 <GPIO_PinRemapConfig+0x3c>
    10ae:	40010737          	lui	a4,0x40010
    10b2:	c35c                	sw	a5,4(a4)
    10b4:	8082                	ret
    10b6:	00b51713          	slli	a4,a0,0xb
    10ba:	00075c63          	bgez	a4,10d2 <GPIO_PinRemapConfig+0xbe>
    10be:	468d                	li	a3,3
    10c0:	00c696b3          	sll	a3,a3,a2
    10c4:	fff6c693          	not	a3,a3
    10c8:	8efd                	and	a3,a3,a5
    10ca:	0f0007b7          	lui	a5,0xf000
    10ce:	8fd5                	or	a5,a5,a3
    10d0:	bff1                	j	10ac <GPIO_PinRemapConfig+0x98>
    10d2:	01555713          	srli	a4,a0,0x15
    10d6:	0712                	slli	a4,a4,0x4
    10d8:	00e81733          	sll	a4,a6,a4
    10dc:	fff74713          	not	a4,a4
    10e0:	8f7d                	and	a4,a4,a5
    10e2:	0f0007b7          	lui	a5,0xf000
    10e6:	8fd9                	or	a5,a5,a4
    10e8:	b7d1                	j	10ac <GPIO_PinRemapConfig+0x98>

000010ea <GPIO_EXTILineConfig>:
    10ea:	0fc5f713          	andi	a4,a1,252
    10ee:	0035f793          	andi	a5,a1,3
    10f2:	400105b7          	lui	a1,0x40010
    10f6:	95ba                	add	a1,a1,a4
    10f8:	4594                	lw	a3,8(a1)
    10fa:	078a                	slli	a5,a5,0x2
    10fc:	473d                	li	a4,15
    10fe:	00f71733          	sll	a4,a4,a5
    1102:	fff74713          	not	a4,a4
    1106:	8f75                	and	a4,a4,a3
    1108:	c598                	sw	a4,8(a1)
    110a:	4598                	lw	a4,8(a1)
    110c:	00f51533          	sll	a0,a0,a5
    1110:	8d59                	or	a0,a0,a4
    1112:	c588                	sw	a0,8(a1)
    1114:	8082                	ret

00001116 <I2C_Init>:
    1116:	91aff2ef          	jal	t0,230 <__riscv_save_0>
    111a:	7179                	addi	sp,sp,-48
    111c:	842a                	mv	s0,a0
    111e:	2146                	lhu	s1,4(a0)
    1120:	0868                	addi	a0,sp,28
    1122:	c62e                	sw	a1,12(sp)
    1124:	24b1                	jal	1370 <RCC_GetClocksFreq>
    1126:	5792                	lw	a5,36(sp)
    1128:	000f4737          	lui	a4,0xf4
    112c:	24070713          	addi	a4,a4,576 # f4240 <_data_lma+0xe83bc>
    1130:	02e7d733          	divu	a4,a5,a4
    1134:	04c2                	slli	s1,s1,0x10
    1136:	80c1                	srli	s1,s1,0x10
    1138:	fc04f493          	andi	s1,s1,-64
    113c:	04c2                	slli	s1,s1,0x10
    113e:	80c1                	srli	s1,s1,0x10
    1140:	45b2                	lw	a1,12(sp)
    1142:	6561                	lui	a0,0x18
    1144:	6a050513          	addi	a0,a0,1696 # 186a0 <_data_lma+0xc81c>
    1148:	01071613          	slli	a2,a4,0x10
    114c:	8241                	srli	a2,a2,0x10
    114e:	8cd1                	or	s1,s1,a2
    1150:	a046                	sh	s1,4(s0)
    1152:	2016                	lhu	a3,0(s0)
    1154:	06c2                	slli	a3,a3,0x10
    1156:	82c1                	srli	a3,a3,0x10
    1158:	9af9                	andi	a3,a3,-2
    115a:	06c2                	slli	a3,a3,0x10
    115c:	82c1                	srli	a3,a3,0x10
    115e:	a016                	sh	a3,0(s0)
    1160:	4194                	lw	a3,0(a1)
    1162:	04d56963          	bltu	a0,a3,11b4 <I2C_Init+0x9e>
    1166:	0686                	slli	a3,a3,0x1
    1168:	02d7d7b3          	divu	a5,a5,a3
    116c:	4691                	li	a3,4
    116e:	01079713          	slli	a4,a5,0x10
    1172:	8341                	srli	a4,a4,0x10
    1174:	87ba                	mv	a5,a4
    1176:	00d77363          	bgeu	a4,a3,117c <I2C_Init+0x66>
    117a:	4791                	li	a5,4
    117c:	0605                	addi	a2,a2,1
    117e:	0642                	slli	a2,a2,0x10
    1180:	07c2                	slli	a5,a5,0x10
    1182:	8241                	srli	a2,a2,0x10
    1184:	83c1                	srli	a5,a5,0x10
    1186:	b012                	sh	a2,32(s0)
    1188:	ac5e                	sh	a5,28(s0)
    118a:	201e                	lhu	a5,0(s0)
    118c:	21da                	lhu	a4,4(a1)
    118e:	25b6                	lhu	a3,10(a1)
    1190:	0017e793          	ori	a5,a5,1
    1194:	a01e                	sh	a5,0(s0)
    1196:	201e                	lhu	a5,0(s0)
    1198:	8f55                	or	a4,a4,a3
    119a:	07c2                	slli	a5,a5,0x10
    119c:	83c1                	srli	a5,a5,0x10
    119e:	bf57f793          	andi	a5,a5,-1035
    11a2:	8fd9                	or	a5,a5,a4
    11a4:	a01e                	sh	a5,0(s0)
    11a6:	259a                	lhu	a4,8(a1)
    11a8:	25de                	lhu	a5,12(a1)
    11aa:	8fd9                	or	a5,a5,a4
    11ac:	a41e                	sh	a5,8(s0)
    11ae:	6145                	addi	sp,sp,48
    11b0:	8a4ff06f          	j	254 <__riscv_restore_0>
    11b4:	21ea                	lhu	a0,6(a1)
    11b6:	6631                	lui	a2,0xc
    11b8:	167d                	addi	a2,a2,-1
    11ba:	02c51d63          	bne	a0,a2,11f4 <I2C_Init+0xde>
    11be:	460d                	li	a2,3
    11c0:	02c686b3          	mul	a3,a3,a2
    11c4:	02d7d7b3          	divu	a5,a5,a3
    11c8:	07c2                	slli	a5,a5,0x10
    11ca:	83c1                	srli	a5,a5,0x10
    11cc:	01479693          	slli	a3,a5,0x14
    11d0:	e299                	bnez	a3,11d6 <I2C_Init+0xc0>
    11d2:	0017e793          	ori	a5,a5,1
    11d6:	66a1                	lui	a3,0x8
    11d8:	8fd5                	or	a5,a5,a3
    11da:	12c00693          	li	a3,300
    11de:	02d70733          	mul	a4,a4,a3
    11e2:	3e800693          	li	a3,1000
    11e6:	02d74733          	div	a4,a4,a3
    11ea:	0705                	addi	a4,a4,1
    11ec:	0742                	slli	a4,a4,0x10
    11ee:	8341                	srli	a4,a4,0x10
    11f0:	b01a                	sh	a4,32(s0)
    11f2:	bf59                	j	1188 <I2C_Init+0x72>
    11f4:	4665                	li	a2,25
    11f6:	02c686b3          	mul	a3,a3,a2
    11fa:	02d7d7b3          	divu	a5,a5,a3
    11fe:	6691                	lui	a3,0x4
    1200:	07c2                	slli	a5,a5,0x10
    1202:	83c1                	srli	a5,a5,0x10
    1204:	8fd5                	or	a5,a5,a3
    1206:	b7d9                	j	11cc <I2C_Init+0xb6>

00001208 <I2C_Cmd>:
    1208:	211e                	lhu	a5,0(a0)
    120a:	c589                	beqz	a1,1214 <I2C_Cmd+0xc>
    120c:	0017e793          	ori	a5,a5,1
    1210:	a11e                	sh	a5,0(a0)
    1212:	8082                	ret
    1214:	07c2                	slli	a5,a5,0x10
    1216:	83c1                	srli	a5,a5,0x10
    1218:	9bf9                	andi	a5,a5,-2
    121a:	07c2                	slli	a5,a5,0x10
    121c:	83c1                	srli	a5,a5,0x10
    121e:	bfcd                	j	1210 <I2C_Cmd+0x8>

00001220 <I2C_GenerateSTART>:
    1220:	211e                	lhu	a5,0(a0)
    1222:	c589                	beqz	a1,122c <I2C_GenerateSTART+0xc>
    1224:	1007e793          	ori	a5,a5,256
    1228:	a11e                	sh	a5,0(a0)
    122a:	8082                	ret
    122c:	07c2                	slli	a5,a5,0x10
    122e:	83c1                	srli	a5,a5,0x10
    1230:	eff7f793          	andi	a5,a5,-257
    1234:	07c2                	slli	a5,a5,0x10
    1236:	83c1                	srli	a5,a5,0x10
    1238:	bfc5                	j	1228 <I2C_GenerateSTART+0x8>

0000123a <I2C_GenerateSTOP>:
    123a:	211e                	lhu	a5,0(a0)
    123c:	c589                	beqz	a1,1246 <I2C_GenerateSTOP+0xc>
    123e:	2007e793          	ori	a5,a5,512
    1242:	a11e                	sh	a5,0(a0)
    1244:	8082                	ret
    1246:	07c2                	slli	a5,a5,0x10
    1248:	83c1                	srli	a5,a5,0x10
    124a:	dff7f793          	andi	a5,a5,-513
    124e:	07c2                	slli	a5,a5,0x10
    1250:	83c1                	srli	a5,a5,0x10
    1252:	bfc5                	j	1242 <I2C_GenerateSTOP+0x8>

00001254 <I2C_SendData>:
    1254:	a90e                	sh	a1,16(a0)
    1256:	8082                	ret

00001258 <I2C_Send7bitAddress>:
    1258:	0fe5f793          	andi	a5,a1,254
    125c:	c219                	beqz	a2,1262 <I2C_Send7bitAddress+0xa>
    125e:	0015e793          	ori	a5,a1,1
    1262:	07c2                	slli	a5,a5,0x10
    1264:	83c1                	srli	a5,a5,0x10
    1266:	a91e                	sh	a5,16(a0)
    1268:	8082                	ret

0000126a <I2C_CheckEvent>:
    126a:	295e                	lhu	a5,20(a0)
    126c:	2d0a                	lhu	a0,24(a0)
    126e:	0542                	slli	a0,a0,0x10
    1270:	8d5d                	or	a0,a0,a5
    1272:	8d6d                	and	a0,a0,a1
    1274:	0522                	slli	a0,a0,0x8
    1276:	8121                	srli	a0,a0,0x8
    1278:	8d0d                	sub	a0,a0,a1
    127a:	00153513          	seqz	a0,a0
    127e:	8082                	ret

00001280 <I2C_GetFlagStatus>:
    1280:	1141                	addi	sp,sp,-16
    1282:	c402                	sw	zero,8(sp)
    1284:	c602                	sw	zero,12(sp)
    1286:	01c5d793          	srli	a5,a1,0x1c
    128a:	c62a                	sw	a0,12(sp)
    128c:	c43e                	sw	a5,8(sp)
    128e:	47a2                	lw	a5,8(sp)
    1290:	05a2                	slli	a1,a1,0x8
    1292:	81a1                	srli	a1,a1,0x8
    1294:	cb99                	beqz	a5,12aa <I2C_GetFlagStatus+0x2a>
    1296:	47b2                	lw	a5,12(sp)
    1298:	07d1                	addi	a5,a5,20
    129a:	c63e                	sw	a5,12(sp)
    129c:	47b2                	lw	a5,12(sp)
    129e:	4388                	lw	a0,0(a5)
    12a0:	0141                	addi	sp,sp,16
    12a2:	8d6d                	and	a0,a0,a1
    12a4:	00a03533          	snez	a0,a0
    12a8:	8082                	ret
    12aa:	47b2                	lw	a5,12(sp)
    12ac:	81c1                	srli	a1,a1,0x10
    12ae:	07e1                	addi	a5,a5,24
    12b0:	b7ed                	j	129a <I2C_GetFlagStatus+0x1a>

000012b2 <NVIC_PriorityGroupConfig>:
    12b2:	82a1a823          	sw	a0,-2000(gp) # 20000220 <_edata>
    12b6:	8082                	ret

000012b8 <NVIC_Init>:
    12b8:	83018793          	addi	a5,gp,-2000 # 20000220 <_edata>
    12bc:	4394                	lw	a3,0(a5)
    12be:	2118                	lbu	a4,0(a0)
    12c0:	e681                	bnez	a3,12c8 <NVIC_Init+0x10>
    12c2:	213c                	lbu	a5,2(a0)
    12c4:	0792                	slli	a5,a5,0x4
    12c6:	a821                	j	12de <NVIC_Init+0x26>
    12c8:	4394                	lw	a3,0(a5)
    12ca:	4605                	li	a2,1
    12cc:	02c69f63          	bne	a3,a2,130a <NVIC_Init+0x52>
    12d0:	213c                	lbu	a5,2(a0)
    12d2:	3110                	lbu	a2,1(a0)
    12d4:	0792                	slli	a5,a5,0x4
    12d6:	00d61463          	bne	a2,a3,12de <NVIC_Init+0x26>
    12da:	f807e793          	ori	a5,a5,-128
    12de:	e000e6b7          	lui	a3,0xe000e
    12e2:	0ff7f793          	andi	a5,a5,255
    12e6:	96ba                	add	a3,a3,a4
    12e8:	40f68023          	sb	a5,1024(a3) # e000e400 <_eusrstack+0xc0006400>
    12ec:	4685                	li	a3,1
    12ee:	00575793          	srli	a5,a4,0x5
    12f2:	00e69733          	sll	a4,a3,a4
    12f6:	4154                	lw	a3,4(a0)
    12f8:	c2a5                	beqz	a3,1358 <NVIC_Init+0xa0>
    12fa:	04078793          	addi	a5,a5,64 # f000040 <_data_lma+0xeff41bc>
    12fe:	078a                	slli	a5,a5,0x2
    1300:	e000e6b7          	lui	a3,0xe000e
    1304:	97b6                	add	a5,a5,a3
    1306:	c398                	sw	a4,0(a5)
    1308:	8082                	ret
    130a:	438c                	lw	a1,0(a5)
    130c:	4689                	li	a3,2
    130e:	02d59163          	bne	a1,a3,1330 <NVIC_Init+0x78>
    1312:	3114                	lbu	a3,1(a0)
    1314:	213c                	lbu	a5,2(a0)
    1316:	00d66563          	bltu	a2,a3,1320 <NVIC_Init+0x68>
    131a:	068a                	slli	a3,a3,0x2
    131c:	97b6                	add	a5,a5,a3
    131e:	b75d                	j	12c4 <NVIC_Init+0xc>
    1320:	03e68693          	addi	a3,a3,62 # e000e03e <_eusrstack+0xc000603e>
    1324:	068a                	slli	a3,a3,0x2
    1326:	97b6                	add	a5,a5,a3
    1328:	0ff7f793          	andi	a5,a5,255
    132c:	0792                	slli	a5,a5,0x4
    132e:	b775                	j	12da <NVIC_Init+0x22>
    1330:	4390                	lw	a2,0(a5)
    1332:	468d                	li	a3,3
    1334:	00d61c63          	bne	a2,a3,134c <NVIC_Init+0x94>
    1338:	3114                	lbu	a3,1(a0)
    133a:	213c                	lbu	a5,2(a0)
    133c:	00d66463          	bltu	a2,a3,1344 <NVIC_Init+0x8c>
    1340:	0686                	slli	a3,a3,0x1
    1342:	bfe9                	j	131c <NVIC_Init+0x64>
    1344:	07c68693          	addi	a3,a3,124
    1348:	0686                	slli	a3,a3,0x1
    134a:	bff1                	j	1326 <NVIC_Init+0x6e>
    134c:	4394                	lw	a3,0(a5)
    134e:	4791                	li	a5,4
    1350:	f8f69ee3          	bne	a3,a5,12ec <NVIC_Init+0x34>
    1354:	311c                	lbu	a5,1(a0)
    1356:	b7bd                	j	12c4 <NVIC_Init+0xc>
    1358:	06078793          	addi	a5,a5,96
    135c:	b74d                	j	12fe <NVIC_Init+0x46>

0000135e <RCC_ADCCLKConfig>:
    135e:	400216b7          	lui	a3,0x40021
    1362:	42dc                	lw	a5,4(a3)
    1364:	7751                	lui	a4,0xffff4
    1366:	177d                	addi	a4,a4,-1
    1368:	8ff9                	and	a5,a5,a4
    136a:	8d5d                	or	a0,a0,a5
    136c:	c2c8                	sw	a0,4(a3)
    136e:	8082                	ret

00001370 <RCC_GetClocksFreq>:
    1370:	40021737          	lui	a4,0x40021
    1374:	435c                	lw	a5,4(a4)
    1376:	4691                	li	a3,4
    1378:	8bb1                	andi	a5,a5,12
    137a:	00d78563          	beq	a5,a3,1384 <RCC_GetClocksFreq+0x14>
    137e:	46a1                	li	a3,8
    1380:	06d78263          	beq	a5,a3,13e4 <RCC_GetClocksFreq+0x74>
    1384:	007a17b7          	lui	a5,0x7a1
    1388:	20078793          	addi	a5,a5,512 # 7a1200 <_data_lma+0x79537c>
    138c:	c11c                	sw	a5,0(a0)
    138e:	40021637          	lui	a2,0x40021
    1392:	425c                	lw	a5,4(a2)
    1394:	20000737          	lui	a4,0x20000
    1398:	01070713          	addi	a4,a4,16 # 20000010 <APBAHBPrescTable>
    139c:	8391                	srli	a5,a5,0x4
    139e:	8bbd                	andi	a5,a5,15
    13a0:	97ba                	add	a5,a5,a4
    13a2:	2394                	lbu	a3,0(a5)
    13a4:	411c                	lw	a5,0(a0)
    13a6:	00d7d7b3          	srl	a5,a5,a3
    13aa:	c15c                	sw	a5,4(a0)
    13ac:	4254                	lw	a3,4(a2)
    13ae:	82a1                	srli	a3,a3,0x8
    13b0:	8a9d                	andi	a3,a3,7
    13b2:	96ba                	add	a3,a3,a4
    13b4:	2294                	lbu	a3,0(a3)
    13b6:	00d7d6b3          	srl	a3,a5,a3
    13ba:	c514                	sw	a3,8(a0)
    13bc:	4254                	lw	a3,4(a2)
    13be:	82ad                	srli	a3,a3,0xb
    13c0:	8a9d                	andi	a3,a3,7
    13c2:	9736                	add	a4,a4,a3
    13c4:	2318                	lbu	a4,0(a4)
    13c6:	00e7d7b3          	srl	a5,a5,a4
    13ca:	c55c                	sw	a5,12(a0)
    13cc:	4258                	lw	a4,4(a2)
    13ce:	8339                	srli	a4,a4,0xe
    13d0:	00377693          	andi	a3,a4,3
    13d4:	80418713          	addi	a4,gp,-2044 # 200001f4 <ADCPrescTable>
    13d8:	9736                	add	a4,a4,a3
    13da:	2318                	lbu	a4,0(a4)
    13dc:	02e7d7b3          	divu	a5,a5,a4
    13e0:	c91c                	sw	a5,16(a0)
    13e2:	8082                	ret
    13e4:	435c                	lw	a5,4(a4)
    13e6:	4358                	lw	a4,4(a4)
    13e8:	66c1                	lui	a3,0x10
    13ea:	83c9                	srli	a5,a5,0x12
    13ec:	8f75                	and	a4,a4,a3
    13ee:	1ffff6b7          	lui	a3,0x1ffff
    13f2:	70c6a683          	lw	a3,1804(a3) # 1ffff70c <_data_lma+0x1fff3888>
    13f6:	8bbd                	andi	a5,a5,15
    13f8:	0789                	addi	a5,a5,2
    13fa:	01169613          	slli	a2,a3,0x11
    13fe:	00064863          	bltz	a2,140e <RCC_GetClocksFreq+0x9e>
    1402:	46c5                	li	a3,17
    1404:	4601                	li	a2,0
    1406:	02d79263          	bne	a5,a3,142a <RCC_GetClocksFreq+0xba>
    140a:	47c9                	li	a5,18
    140c:	a839                	j	142a <RCC_GetClocksFreq+0xba>
    140e:	4689                	li	a3,2
    1410:	02d78f63          	beq	a5,a3,144e <RCC_GetClocksFreq+0xde>
    1414:	46bd                	li	a3,15
    1416:	02d78e63          	beq	a5,a3,1452 <RCC_GetClocksFreq+0xe2>
    141a:	46c1                	li	a3,16
    141c:	02d78e63          	beq	a5,a3,1458 <RCC_GetClocksFreq+0xe8>
    1420:	46c5                	li	a3,17
    1422:	4601                	li	a2,0
    1424:	00d79363          	bne	a5,a3,142a <RCC_GetClocksFreq+0xba>
    1428:	47c1                	li	a5,16
    142a:	ef1d                	bnez	a4,1468 <RCC_GetClocksFreq+0xf8>
    142c:	40024737          	lui	a4,0x40024
    1430:	80072703          	lw	a4,-2048(a4) # 40023800 <_eusrstack+0x2001b800>
    1434:	8b41                	andi	a4,a4,16
    1436:	c705                	beqz	a4,145e <RCC_GetClocksFreq+0xee>
    1438:	007a1737          	lui	a4,0x7a1
    143c:	20070713          	addi	a4,a4,512 # 7a1200 <_data_lma+0x79537c>
    1440:	02f707b3          	mul	a5,a4,a5
    1444:	c11c                	sw	a5,0(a0)
    1446:	d621                	beqz	a2,138e <RCC_GetClocksFreq+0x1e>
    1448:	411c                	lw	a5,0(a0)
    144a:	8385                	srli	a5,a5,0x1
    144c:	b781                	j	138c <RCC_GetClocksFreq+0x1c>
    144e:	4601                	li	a2,0
    1450:	bf6d                	j	140a <RCC_GetClocksFreq+0x9a>
    1452:	4605                	li	a2,1
    1454:	47b5                	li	a5,13
    1456:	bfd1                	j	142a <RCC_GetClocksFreq+0xba>
    1458:	4601                	li	a2,0
    145a:	47bd                	li	a5,15
    145c:	b7f9                	j	142a <RCC_GetClocksFreq+0xba>
    145e:	003d1737          	lui	a4,0x3d1
    1462:	90070713          	addi	a4,a4,-1792 # 3d0900 <_data_lma+0x3c4a7c>
    1466:	bfe9                	j	1440 <RCC_GetClocksFreq+0xd0>
    1468:	400215b7          	lui	a1,0x40021
    146c:	55d8                	lw	a4,44(a1)
    146e:	00f71693          	slli	a3,a4,0xf
    1472:	55d8                	lw	a4,44(a1)
    1474:	0406df63          	bgez	a3,14d2 <RCC_GetClocksFreq+0x162>
    1478:	8311                	srli	a4,a4,0x4
    147a:	8b3d                	andi	a4,a4,15
    147c:	00170693          	addi	a3,a4,1
    1480:	007a1737          	lui	a4,0x7a1
    1484:	20070713          	addi	a4,a4,512 # 7a1200 <_data_lma+0x79537c>
    1488:	02d75733          	divu	a4,a4,a3
    148c:	c118                	sw	a4,0(a0)
    148e:	55d4                	lw	a3,44(a1)
    1490:	82a1                	srli	a3,a3,0x8
    1492:	8abd                	andi	a3,a3,15
    1494:	e28d                	bnez	a3,14b6 <RCC_GetClocksFreq+0x146>
    1496:	4695                	li	a3,5
    1498:	02d70733          	mul	a4,a4,a3
    149c:	8305                	srli	a4,a4,0x1
    149e:	c118                	sw	a4,0(a0)
    14a0:	40021737          	lui	a4,0x40021
    14a4:	5758                	lw	a4,44(a4)
    14a6:	4114                	lw	a3,0(a0)
    14a8:	8b3d                	andi	a4,a4,15
    14aa:	0705                	addi	a4,a4,1
    14ac:	02e6d733          	divu	a4,a3,a4
    14b0:	c118                	sw	a4,0(a0)
    14b2:	4118                	lw	a4,0(a0)
    14b4:	b771                	j	1440 <RCC_GetClocksFreq+0xd0>
    14b6:	4585                	li	a1,1
    14b8:	00b69463          	bne	a3,a1,14c0 <RCC_GetClocksFreq+0x150>
    14bc:	46e5                	li	a3,25
    14be:	bfe9                	j	1498 <RCC_GetClocksFreq+0x128>
    14c0:	45bd                	li	a1,15
    14c2:	00b69663          	bne	a3,a1,14ce <RCC_GetClocksFreq+0x15e>
    14c6:	46d1                	li	a3,20
    14c8:	02e68733          	mul	a4,a3,a4
    14cc:	bfc9                	j	149e <RCC_GetClocksFreq+0x12e>
    14ce:	0689                	addi	a3,a3,2
    14d0:	bfe5                	j	14c8 <RCC_GetClocksFreq+0x158>
    14d2:	8b3d                	andi	a4,a4,15
    14d4:	00170693          	addi	a3,a4,1 # 40021001 <_eusrstack+0x20019001>
    14d8:	007a1737          	lui	a4,0x7a1
    14dc:	20070713          	addi	a4,a4,512 # 7a1200 <_data_lma+0x79537c>
    14e0:	02d75733          	divu	a4,a4,a3
    14e4:	b7f1                	j	14b0 <RCC_GetClocksFreq+0x140>

000014e6 <RCC_AHBPeriphClockCmd>:
    14e6:	c599                	beqz	a1,14f4 <RCC_AHBPeriphClockCmd+0xe>
    14e8:	40021737          	lui	a4,0x40021
    14ec:	4b5c                	lw	a5,20(a4)
    14ee:	8d5d                	or	a0,a0,a5
    14f0:	cb48                	sw	a0,20(a4)
    14f2:	8082                	ret
    14f4:	400217b7          	lui	a5,0x40021
    14f8:	4bd8                	lw	a4,20(a5)
    14fa:	fff54513          	not	a0,a0
    14fe:	8d79                	and	a0,a0,a4
    1500:	cbc8                	sw	a0,20(a5)
    1502:	8082                	ret

00001504 <RCC_APB2PeriphClockCmd>:
    1504:	c599                	beqz	a1,1512 <RCC_APB2PeriphClockCmd+0xe>
    1506:	40021737          	lui	a4,0x40021
    150a:	4f1c                	lw	a5,24(a4)
    150c:	8d5d                	or	a0,a0,a5
    150e:	cf08                	sw	a0,24(a4)
    1510:	8082                	ret
    1512:	400217b7          	lui	a5,0x40021
    1516:	4f98                	lw	a4,24(a5)
    1518:	fff54513          	not	a0,a0
    151c:	8d79                	and	a0,a0,a4
    151e:	cf88                	sw	a0,24(a5)
    1520:	8082                	ret

00001522 <RCC_APB1PeriphClockCmd>:
    1522:	c599                	beqz	a1,1530 <RCC_APB1PeriphClockCmd+0xe>
    1524:	40021737          	lui	a4,0x40021
    1528:	4f5c                	lw	a5,28(a4)
    152a:	8d5d                	or	a0,a0,a5
    152c:	cf48                	sw	a0,28(a4)
    152e:	8082                	ret
    1530:	400217b7          	lui	a5,0x40021
    1534:	4fd8                	lw	a4,28(a5)
    1536:	fff54513          	not	a0,a0
    153a:	8d79                	and	a0,a0,a4
    153c:	cfc8                	sw	a0,28(a5)
    153e:	8082                	ret

00001540 <RCC_APB2PeriphResetCmd>:
    1540:	c599                	beqz	a1,154e <RCC_APB2PeriphResetCmd+0xe>
    1542:	40021737          	lui	a4,0x40021
    1546:	475c                	lw	a5,12(a4)
    1548:	8d5d                	or	a0,a0,a5
    154a:	c748                	sw	a0,12(a4)
    154c:	8082                	ret
    154e:	400217b7          	lui	a5,0x40021
    1552:	47d8                	lw	a4,12(a5)
    1554:	fff54513          	not	a0,a0
    1558:	8d79                	and	a0,a0,a4
    155a:	c7c8                	sw	a0,12(a5)
    155c:	8082                	ret

0000155e <TIM_TimeBaseInit>:
    155e:	211e                	lhu	a5,0(a0)
    1560:	40013737          	lui	a4,0x40013
    1564:	c0070693          	addi	a3,a4,-1024 # 40012c00 <_eusrstack+0x2000ac00>
    1568:	07c2                	slli	a5,a5,0x10
    156a:	83c1                	srli	a5,a5,0x10
    156c:	04d50063          	beq	a0,a3,15ac <TIM_TimeBaseInit+0x4e>
    1570:	400006b7          	lui	a3,0x40000
    1574:	02d50c63          	beq	a0,a3,15ac <TIM_TimeBaseInit+0x4e>
    1578:	40068693          	addi	a3,a3,1024 # 40000400 <_eusrstack+0x1fff8400>
    157c:	02d50863          	beq	a0,a3,15ac <TIM_TimeBaseInit+0x4e>
    1580:	400016b7          	lui	a3,0x40001
    1584:	80068613          	addi	a2,a3,-2048 # 40000800 <_eusrstack+0x1fff8800>
    1588:	02c50263          	beq	a0,a2,15ac <TIM_TimeBaseInit+0x4e>
    158c:	c0068693          	addi	a3,a3,-1024
    1590:	00d50e63          	beq	a0,a3,15ac <TIM_TimeBaseInit+0x4e>
    1594:	40070713          	addi	a4,a4,1024
    1598:	00e50a63          	beq	a0,a4,15ac <TIM_TimeBaseInit+0x4e>
    159c:	40015737          	lui	a4,0x40015
    15a0:	c0070693          	addi	a3,a4,-1024 # 40014c00 <_eusrstack+0x2000cc00>
    15a4:	00d50463          	beq	a0,a3,15ac <TIM_TimeBaseInit+0x4e>
    15a8:	00e51663          	bne	a0,a4,15b4 <TIM_TimeBaseInit+0x56>
    15ac:	21ba                	lhu	a4,2(a1)
    15ae:	f8f7f793          	andi	a5,a5,-113
    15b2:	8fd9                	or	a5,a5,a4
    15b4:	40001737          	lui	a4,0x40001
    15b8:	00e50c63          	beq	a0,a4,15d0 <TIM_TimeBaseInit+0x72>
    15bc:	40070713          	addi	a4,a4,1024 # 40001400 <_eusrstack+0x1fff9400>
    15c0:	00e50863          	beq	a0,a4,15d0 <TIM_TimeBaseInit+0x72>
    15c4:	cff7f793          	andi	a5,a5,-769
    15c8:	21fa                	lhu	a4,6(a1)
    15ca:	07c2                	slli	a5,a5,0x10
    15cc:	83c1                	srli	a5,a5,0x10
    15ce:	8fd9                	or	a5,a5,a4
    15d0:	a11e                	sh	a5,0(a0)
    15d2:	21de                	lhu	a5,4(a1)
    15d4:	b55e                	sh	a5,44(a0)
    15d6:	219e                	lhu	a5,0(a1)
    15d8:	b51e                	sh	a5,40(a0)
    15da:	400137b7          	lui	a5,0x40013
    15de:	c0078713          	addi	a4,a5,-1024 # 40012c00 <_eusrstack+0x2000ac00>
    15e2:	00e50e63          	beq	a0,a4,15fe <TIM_TimeBaseInit+0xa0>
    15e6:	40078793          	addi	a5,a5,1024
    15ea:	00f50a63          	beq	a0,a5,15fe <TIM_TimeBaseInit+0xa0>
    15ee:	400157b7          	lui	a5,0x40015
    15f2:	c0078713          	addi	a4,a5,-1024 # 40014c00 <_eusrstack+0x2000cc00>
    15f6:	00e50463          	beq	a0,a4,15fe <TIM_TimeBaseInit+0xa0>
    15fa:	00f51463          	bne	a0,a5,1602 <TIM_TimeBaseInit+0xa4>
    15fe:	259c                	lbu	a5,8(a1)
    1600:	b91e                	sh	a5,48(a0)
    1602:	4785                	li	a5,1
    1604:	a95e                	sh	a5,20(a0)
    1606:	8082                	ret

00001608 <TIM_Cmd>:
    1608:	211e                	lhu	a5,0(a0)
    160a:	c589                	beqz	a1,1614 <TIM_Cmd+0xc>
    160c:	0017e793          	ori	a5,a5,1
    1610:	a11e                	sh	a5,0(a0)
    1612:	8082                	ret
    1614:	07c2                	slli	a5,a5,0x10
    1616:	83c1                	srli	a5,a5,0x10
    1618:	9bf9                	andi	a5,a5,-2
    161a:	07c2                	slli	a5,a5,0x10
    161c:	83c1                	srli	a5,a5,0x10
    161e:	bfcd                	j	1610 <TIM_Cmd+0x8>

00001620 <TIM_ITConfig>:
    1620:	255e                	lhu	a5,12(a0)
    1622:	c601                	beqz	a2,162a <TIM_ITConfig+0xa>
    1624:	8ddd                	or	a1,a1,a5
    1626:	a54e                	sh	a1,12(a0)
    1628:	8082                	ret
    162a:	fff5c593          	not	a1,a1
    162e:	8dfd                	and	a1,a1,a5
    1630:	bfdd                	j	1626 <TIM_ITConfig+0x6>

00001632 <TIM_SetCounter>:
    1632:	b14e                	sh	a1,36(a0)
    1634:	8082                	ret

00001636 <TIM_GetCounter>:
    1636:	314a                	lhu	a0,36(a0)
    1638:	8082                	ret

0000163a <TIM_GetFlagStatus>:
    163a:	290a                	lhu	a0,16(a0)
    163c:	8d6d                	and	a0,a0,a1
    163e:	00a03533          	snez	a0,a0
    1642:	8082                	ret

00001644 <TIM_ClearFlag>:
    1644:	fff5c593          	not	a1,a1
    1648:	05c2                	slli	a1,a1,0x10
    164a:	81c1                	srli	a1,a1,0x10
    164c:	a90e                	sh	a1,16(a0)
    164e:	8082                	ret

00001650 <TIM_ClearITPendingBit>:
    1650:	fff5c593          	not	a1,a1
    1654:	05c2                	slli	a1,a1,0x10
    1656:	81c1                	srli	a1,a1,0x10
    1658:	a90e                	sh	a1,16(a0)
    165a:	8082                	ret

0000165c <USART_Init>:
    165c:	bd5fe2ef          	jal	t0,230 <__riscv_save_0>
    1660:	2916                	lhu	a3,16(a0)
    1662:	77f5                	lui	a5,0xffffd
    1664:	17fd                	addi	a5,a5,-1
    1666:	8ff5                	and	a5,a5,a3
    1668:	21f6                	lhu	a3,6(a1)
    166a:	25da                	lhu	a4,12(a1)
    166c:	7179                	addi	sp,sp,-48
    166e:	8fd5                	or	a5,a5,a3
    1670:	a91e                	sh	a5,16(a0)
    1672:	2556                	lhu	a3,12(a0)
    1674:	77fd                	lui	a5,0xfffff
    1676:	9f378793          	addi	a5,a5,-1549 # ffffe9f3 <_eusrstack+0xdfff69f3>
    167a:	8ff5                	and	a5,a5,a3
    167c:	21d6                	lhu	a3,4(a1)
    167e:	842a                	mv	s0,a0
    1680:	c62e                	sw	a1,12(sp)
    1682:	8fd5                	or	a5,a5,a3
    1684:	2596                	lhu	a3,8(a1)
    1686:	8fd5                	or	a5,a5,a3
    1688:	25b6                	lhu	a3,10(a1)
    168a:	8fd5                	or	a5,a5,a3
    168c:	a55e                	sh	a5,12(a0)
    168e:	295e                	lhu	a5,20(a0)
    1690:	07c2                	slli	a5,a5,0x10
    1692:	83c1                	srli	a5,a5,0x10
    1694:	cff7f793          	andi	a5,a5,-769
    1698:	8fd9                	or	a5,a5,a4
    169a:	a95e                	sh	a5,20(a0)
    169c:	0868                	addi	a0,sp,28
    169e:	39c9                	jal	1370 <RCC_GetClocksFreq>
    16a0:	400147b7          	lui	a5,0x40014
    16a4:	80078793          	addi	a5,a5,-2048 # 40013800 <_eusrstack+0x2000b800>
    16a8:	45b2                	lw	a1,12(sp)
    16aa:	04f41a63          	bne	s0,a5,16fe <USART_Init+0xa2>
    16ae:	57a2                	lw	a5,40(sp)
    16b0:	2456                	lhu	a3,12(s0)
    16b2:	4765                	li	a4,25
    16b4:	02e787b3          	mul	a5,a5,a4
    16b8:	06c2                	slli	a3,a3,0x10
    16ba:	86c1                	srai	a3,a3,0x10
    16bc:	4198                	lw	a4,0(a1)
    16be:	0406d263          	bgez	a3,1702 <USART_Init+0xa6>
    16c2:	0706                	slli	a4,a4,0x1
    16c4:	2452                	lhu	a2,12(s0)
    16c6:	0642                	slli	a2,a2,0x10
    16c8:	02e7d7b3          	divu	a5,a5,a4
    16cc:	06400713          	li	a4,100
    16d0:	8641                	srai	a2,a2,0x10
    16d2:	02e7d6b3          	divu	a3,a5,a4
    16d6:	02e7f7b3          	remu	a5,a5,a4
    16da:	0692                	slli	a3,a3,0x4
    16dc:	02065563          	bgez	a2,1706 <USART_Init+0xaa>
    16e0:	078e                	slli	a5,a5,0x3
    16e2:	03278793          	addi	a5,a5,50
    16e6:	02e7d7b3          	divu	a5,a5,a4
    16ea:	0077f713          	andi	a4,a5,7
    16ee:	00d767b3          	or	a5,a4,a3
    16f2:	07c2                	slli	a5,a5,0x10
    16f4:	83c1                	srli	a5,a5,0x10
    16f6:	a41e                	sh	a5,8(s0)
    16f8:	6145                	addi	sp,sp,48
    16fa:	b5bfe06f          	j	254 <__riscv_restore_0>
    16fe:	5792                	lw	a5,36(sp)
    1700:	bf45                	j	16b0 <USART_Init+0x54>
    1702:	070a                	slli	a4,a4,0x2
    1704:	b7c1                	j	16c4 <USART_Init+0x68>
    1706:	0792                	slli	a5,a5,0x4
    1708:	03278793          	addi	a5,a5,50
    170c:	02e7d7b3          	divu	a5,a5,a4
    1710:	8bbd                	andi	a5,a5,15
    1712:	8fd5                	or	a5,a5,a3
    1714:	bff9                	j	16f2 <USART_Init+0x96>

00001716 <USART_Cmd>:
    1716:	c591                	beqz	a1,1722 <USART_Cmd+0xc>
    1718:	255e                	lhu	a5,12(a0)
    171a:	6709                	lui	a4,0x2
    171c:	8fd9                	or	a5,a5,a4
    171e:	a55e                	sh	a5,12(a0)
    1720:	8082                	ret
    1722:	255a                	lhu	a4,12(a0)
    1724:	77f9                	lui	a5,0xffffe
    1726:	17fd                	addi	a5,a5,-1
    1728:	8ff9                	and	a5,a5,a4
    172a:	bfd5                	j	171e <USART_Cmd+0x8>

0000172c <USART_SendData>:
    172c:	1ff5f593          	andi	a1,a1,511
    1730:	a14e                	sh	a1,4(a0)
    1732:	8082                	ret

00001734 <USART_GetFlagStatus>:
    1734:	210a                	lhu	a0,0(a0)
    1736:	8d6d                	and	a0,a0,a1
    1738:	00a03533          	snez	a0,a0
    173c:	8082                	ret

0000173e <PM_ADCInit>:
    173e:	af3fe2ef          	jal	t0,230 <__riscv_save_0>
    1742:	715d                	addi	sp,sp,-80
    1744:	02000613          	li	a2,32
    1748:	4581                	li	a1,0
    174a:	0048                	addi	a0,sp,4
    174c:	b15fe0ef          	jal	ra,260 <memset>
    1750:	02c00613          	li	a2,44
    1754:	4581                	li	a1,0
    1756:	1048                	addi	a0,sp,36
    1758:	b09fe0ef          	jal	ra,260 <memset>
    175c:	4585                	li	a1,1
    175e:	4505                	li	a0,1
    1760:	3359                	jal	14e6 <RCC_AHBPeriphClockCmd>
    1762:	4585                	li	a1,1
    1764:	20400513          	li	a0,516
    1768:	3b71                	jal	1504 <RCC_APB2PeriphClockCmd>
    176a:	6531                	lui	a0,0xc
    176c:	40012437          	lui	s0,0x40012
    1770:	36fd                	jal	135e <RCC_ADCCLKConfig>
    1772:	40040513          	addi	a0,s0,1024 # 40012400 <_eusrstack+0x2000a400>
    1776:	a02ff0ef          	jal	ra,978 <ADC_DeInit>
    177a:	000e07b7          	lui	a5,0xe0
    177e:	c83e                	sw	a5,16(sp)
    1780:	004c                	addi	a1,sp,4
    1782:	4785                	li	a5,1
    1784:	40040513          	addi	a0,s0,1024
    1788:	00f10c23          	sb	a5,24(sp)
    178c:	c202                	sw	zero,4(sp)
    178e:	c402                	sw	zero,8(sp)
    1790:	c602                	sw	zero,12(sp)
    1792:	ca02                	sw	zero,20(sp)
    1794:	a2aff0ef          	jal	ra,9be <ADC_Init>
    1798:	4585                	li	a1,1
    179a:	40040513          	addi	a0,s0,1024
    179e:	a76ff0ef          	jal	ra,a14 <ADC_Cmd>
    17a2:	4581                	li	a1,0
    17a4:	40040513          	addi	a0,s0,1024
    17a8:	b9cff0ef          	jal	ra,b44 <ADC_BufferCmd>
    17ac:	40040513          	addi	a0,s0,1024
    17b0:	a86ff0ef          	jal	ra,a36 <ADC_ResetCalibration>
    17b4:	40040493          	addi	s1,s0,1024
    17b8:	8526                	mv	a0,s1
    17ba:	a86ff0ef          	jal	ra,a40 <ADC_GetResetCalibrationStatus>
    17be:	fd6d                	bnez	a0,17b8 <PM_ADCInit+0x7a>
    17c0:	40040513          	addi	a0,s0,1024
    17c4:	40012437          	lui	s0,0x40012
    17c8:	a80ff0ef          	jal	ra,a48 <ADC_StartCalibration>
    17cc:	40040493          	addi	s1,s0,1024 # 40012400 <_eusrstack+0x2000a400>
    17d0:	8526                	mv	a0,s1
    17d2:	a80ff0ef          	jal	ra,a52 <ADC_GetCalibrationStatus>
    17d6:	fd6d                	bnez	a0,17d0 <PM_ADCInit+0x92>
    17d8:	40040513          	addi	a0,s0,1024
    17dc:	b80ff0ef          	jal	ra,b5c <Get_CalibrationValue>
    17e0:	400204b7          	lui	s1,0x40020
    17e4:	82a19a23          	sh	a0,-1996(gp) # 20000224 <Calibrattion_Val>
    17e8:	00848513          	addi	a0,s1,8 # 40020008 <_eusrstack+0x20018008>
    17ec:	caaff0ef          	jal	ra,c96 <DMA_DeInit>
    17f0:	85018793          	addi	a5,gp,-1968 # 20000240 <ADC_Buf>
    17f4:	d43e                	sw	a5,40(sp)
    17f6:	0ff00793          	li	a5,255
    17fa:	d83e                	sw	a5,48(sp)
    17fc:	08000793          	li	a5,128
    1800:	dc3e                	sw	a5,56(sp)
    1802:	10000793          	li	a5,256
    1806:	de3e                	sw	a5,60(sp)
    1808:	40000793          	li	a5,1024
    180c:	44c40413          	addi	s0,s0,1100
    1810:	c0be                	sw	a5,64(sp)
    1812:	104c                	addi	a1,sp,36
    1814:	678d                	lui	a5,0x3
    1816:	00848513          	addi	a0,s1,8
    181a:	d222                	sw	s0,36(sp)
    181c:	c4be                	sw	a5,72(sp)
    181e:	d602                	sw	zero,44(sp)
    1820:	da02                	sw	zero,52(sp)
    1822:	c282                	sw	zero,68(sp)
    1824:	c682                	sw	zero,76(sp)
    1826:	ddcff0ef          	jal	ra,e02 <DMA_Init>
    182a:	6161                	addi	sp,sp,80
    182c:	a29fe06f          	j	254 <__riscv_restore_0>

00001830 <PM_ADCCalibrattion>:
    1830:	83419783          	lh	a5,-1996(gp) # 20000224 <Calibrattion_Val>
    1834:	4701                	li	a4,0
    1836:	97aa                	add	a5,a5,a0
    1838:	0007ce63          	bltz	a5,1854 <PM_ADCCalibrattion+0x24>
    183c:	6605                	lui	a2,0x1
    183e:	fff60693          	addi	a3,a2,-1 # fff <GPIO_Init+0xbd>
    1842:	8736                	mv	a4,a3
    1844:	00c7d863          	bge	a5,a2,1854 <PM_ADCCalibrattion+0x24>
    1848:	872a                	mv	a4,a0
    184a:	00d50563          	beq	a0,a3,1854 <PM_ADCCalibrattion+0x24>
    184e:	01079713          	slli	a4,a5,0x10
    1852:	8341                	srli	a4,a4,0x10
    1854:	853a                	mv	a0,a4
    1856:	8082                	ret

00001858 <PM_GetADC>:
    1858:	9d9fe2ef          	jal	t0,230 <__riscv_save_0>
    185c:	40012437          	lui	s0,0x40012
    1860:	86ae                	mv	a3,a1
    1862:	4605                	li	a2,1
    1864:	85aa                	mv	a1,a0
    1866:	40040513          	addi	a0,s0,1024 # 40012400 <_eusrstack+0x2000a400>
    186a:	a08ff0ef          	jal	ra,a72 <ADC_RegularChannelConfig>
    186e:	4589                	li	a1,2
    1870:	40040513          	addi	a0,s0,1024
    1874:	ac8ff0ef          	jal	ra,b3c <ADC_ClearFlag>
    1878:	4585                	li	a1,1
    187a:	40040513          	addi	a0,s0,1024
    187e:	9dcff0ef          	jal	ra,a5a <ADC_SoftwareStartConvCmd>
    1882:	40040493          	addi	s1,s0,1024
    1886:	4589                	li	a1,2
    1888:	8526                	mv	a0,s1
    188a:	aa8ff0ef          	jal	ra,b32 <ADC_GetFlagStatus>
    188e:	dd65                	beqz	a0,1886 <PM_GetADC+0x2e>
    1890:	40040513          	addi	a0,s0,1024
    1894:	a96ff0ef          	jal	ra,b2a <ADC_GetConversionValue>
    1898:	0542                	slli	a0,a0,0x10
    189a:	8541                	srai	a0,a0,0x10
    189c:	3f51                	jal	1830 <PM_ADCCalibrattion>
    189e:	9b7fe06f          	j	254 <__riscv_restore_0>

000018a2 <PM_DMA_GetADCAverage>:
    18a2:	98ffe2ef          	jal	t0,230 <__riscv_save_0>
    18a6:	1141                	addi	sp,sp,-16
    18a8:	84ae                	mv	s1,a1
    18aa:	459d                	li	a1,7
    18ac:	c632                	sw	a2,12(sp)
    18ae:	892a                	mv	s2,a0
    18b0:	3765                	jal	1858 <PM_GetADC>
    18b2:	03200513          	li	a0,50
    18b6:	082040ef          	jal	ra,5938 <Delay_Us>
    18ba:	40020437          	lui	s0,0x40020
    18be:	00840513          	addi	a0,s0,8 # 40020008 <_eusrstack+0x20018008>
    18c2:	85a6                	mv	a1,s1
    18c4:	d8aff0ef          	jal	ra,e4e <DMA_SetCurrDataCounter>
    18c8:	00840513          	addi	a0,s0,8
    18cc:	4585                	li	a1,1
    18ce:	d6cff0ef          	jal	ra,e3a <DMA_Cmd>
    18d2:	46b2                	lw	a3,12(sp)
    18d4:	40012437          	lui	s0,0x40012
    18d8:	40040513          	addi	a0,s0,1024 # 40012400 <_eusrstack+0x2000a400>
    18dc:	4605                	li	a2,1
    18de:	85ca                	mv	a1,s2
    18e0:	992ff0ef          	jal	ra,a72 <ADC_RegularChannelConfig>
    18e4:	40842783          	lw	a5,1032(s0)
    18e8:	40040413          	addi	s0,s0,1024
    18ec:	4585                	li	a1,1
    18ee:	0027e793          	ori	a5,a5,2
    18f2:	c41c                	sw	a5,8(s0)
    18f4:	8522                	mv	a0,s0
    18f6:	92eff0ef          	jal	ra,a24 <ADC_DMACmd>
    18fa:	4585                	li	a1,1
    18fc:	8522                	mv	a0,s0
    18fe:	95cff0ef          	jal	ra,a5a <ADC_SoftwareStartConvCmd>
    1902:	4509                	li	a0,2
    1904:	d4eff0ef          	jal	ra,e52 <DMA_GetFlagStatus>
    1908:	dd6d                	beqz	a0,1902 <PM_DMA_GetADCAverage+0x60>
    190a:	40020537          	lui	a0,0x40020
    190e:	4581                	li	a1,0
    1910:	0521                	addi	a0,a0,8
    1912:	d28ff0ef          	jal	ra,e3a <DMA_Cmd>
    1916:	4509                	li	a0,2
    1918:	d6cff0ef          	jal	ra,e84 <DMA_ClearFlag>
    191c:	40012537          	lui	a0,0x40012
    1920:	40050513          	addi	a0,a0,1024 # 40012400 <_eusrstack+0x2000a400>
    1924:	451c                	lw	a5,8(a0)
    1926:	4581                	li	a1,0
    1928:	9bf5                	andi	a5,a5,-3
    192a:	c51c                	sw	a5,8(a0)
    192c:	8f8ff0ef          	jal	ra,a24 <ADC_DMACmd>
    1930:	85018693          	addi	a3,gp,-1968 # 20000240 <ADC_Buf>
    1934:	4701                	li	a4,0
    1936:	4781                	li	a5,0
    1938:	02971063          	bne	a4,s1,1958 <PM_DMA_GetADCAverage+0xb6>
    193c:	46a9                	li	a3,10
    193e:	02d78533          	mul	a0,a5,a3
    1942:	02e55533          	divu	a0,a0,a4
    1946:	0515                	addi	a0,a0,5
    1948:	02d55533          	divu	a0,a0,a3
    194c:	0542                	slli	a0,a0,0x10
    194e:	8541                	srai	a0,a0,0x10
    1950:	35c5                	jal	1830 <PM_ADCCalibrattion>
    1952:	0141                	addi	sp,sp,16
    1954:	901fe06f          	j	254 <__riscv_restore_0>
    1958:	2292                	lhu	a2,0(a3)
    195a:	00170513          	addi	a0,a4,1 # 2001 <PM_MeasureBJT+0x5c1>
    195e:	0ff57713          	andi	a4,a0,255
    1962:	97b2                	add	a5,a5,a2
    1964:	0689                	addi	a3,a3,2
    1966:	bfc9                	j	1938 <PM_DMA_GetADCAverage+0x96>

00001968 <PM_DMA_GetADCAverage_ForCAP>:
    1968:	8affe2ef          	jal	t0,216 <__riscv_save_4>
    196c:	8a2e                	mv	s4,a1
    196e:	459d                	li	a1,7
    1970:	8932                	mv	s2,a2
    1972:	84b6                	mv	s1,a3
    1974:	89aa                	mv	s3,a0
    1976:	35cd                	jal	1858 <PM_GetADC>
    1978:	03200513          	li	a0,50
    197c:	7bd030ef          	jal	ra,5938 <Delay_Us>
    1980:	40020437          	lui	s0,0x40020
    1984:	00840513          	addi	a0,s0,8 # 40020008 <_eusrstack+0x20018008>
    1988:	4585                	li	a1,1
    198a:	cc4ff0ef          	jal	ra,e4e <DMA_SetCurrDataCounter>
    198e:	00840513          	addi	a0,s0,8
    1992:	4585                	li	a1,1
    1994:	ca6ff0ef          	jal	ra,e3a <DMA_Cmd>
    1998:	40012437          	lui	s0,0x40012
    199c:	40040513          	addi	a0,s0,1024 # 40012400 <_eusrstack+0x2000a400>
    19a0:	86d2                	mv	a3,s4
    19a2:	4605                	li	a2,1
    19a4:	85ce                	mv	a1,s3
    19a6:	8ccff0ef          	jal	ra,a72 <ADC_RegularChannelConfig>
    19aa:	40842783          	lw	a5,1032(s0)
    19ae:	40040413          	addi	s0,s0,1024
    19b2:	4585                	li	a1,1
    19b4:	0027e793          	ori	a5,a5,2
    19b8:	c41c                	sw	a5,8(s0)
    19ba:	8522                	mv	a0,s0
    19bc:	868ff0ef          	jal	ra,a24 <ADC_DMACmd>
    19c0:	4585                	li	a1,1
    19c2:	8522                	mv	a0,s0
    19c4:	896ff0ef          	jal	ra,a5a <ADC_SoftwareStartConvCmd>
    19c8:	4509                	li	a0,2
    19ca:	c88ff0ef          	jal	ra,e52 <DMA_GetFlagStatus>
    19ce:	dd6d                	beqz	a0,19c8 <PM_DMA_GetADCAverage_ForCAP+0x60>
    19d0:	8401d783          	lhu	a5,-1984(gp) # 20000230 <TimerOverflowNum>
    19d4:	40000537          	lui	a0,0x40000
    19d8:	c09c                	sw	a5,0(s1)
    19da:	39b1                	jal	1636 <TIM_GetCounter>
    19dc:	00a91023          	sh	a0,0(s2)
    19e0:	8401d783          	lhu	a5,-1984(gp) # 20000230 <TimerOverflowNum>
    19e4:	4098                	lw	a4,0(s1)
    19e6:	00f70a63          	beq	a4,a5,19fa <PM_DMA_GetADCAverage_ForCAP+0x92>
    19ea:	40000537          	lui	a0,0x40000
    19ee:	31a1                	jal	1636 <TIM_GetCounter>
    19f0:	00a91023          	sh	a0,0(s2)
    19f4:	8401d783          	lhu	a5,-1984(gp) # 20000230 <TimerOverflowNum>
    19f8:	c09c                	sw	a5,0(s1)
    19fa:	40020537          	lui	a0,0x40020
    19fe:	4581                	li	a1,0
    1a00:	0521                	addi	a0,a0,8
    1a02:	c38ff0ef          	jal	ra,e3a <DMA_Cmd>
    1a06:	4509                	li	a0,2
    1a08:	c7cff0ef          	jal	ra,e84 <DMA_ClearFlag>
    1a0c:	40012537          	lui	a0,0x40012
    1a10:	40050513          	addi	a0,a0,1024 # 40012400 <_eusrstack+0x2000a400>
    1a14:	451c                	lw	a5,8(a0)
    1a16:	4581                	li	a1,0
    1a18:	9bf5                	andi	a5,a5,-3
    1a1a:	c51c                	sw	a5,8(a0)
    1a1c:	808ff0ef          	jal	ra,a24 <ADC_DMACmd>
    1a20:	85019503          	lh	a0,-1968(gp) # 20000240 <ADC_Buf>
    1a24:	3531                	jal	1830 <PM_ADCCalibrattion>
    1a26:	825fe06f          	j	24a <__riscv_restore_4>

00001a2a <PM_ADCRealVol>:
    1a2a:	6789                	lui	a5,0x2
    1a2c:	03a78793          	addi	a5,a5,58 # 203a <PM_MeasureBJT+0x5fa>
    1a30:	02f50533          	mul	a0,a0,a5
    1a34:	47a9                	li	a5,10
    1a36:	8129                	srli	a0,a0,0xa
    1a38:	0515                	addi	a0,a0,5
    1a3a:	02f55533          	divu	a0,a0,a5
    1a3e:	8082                	ret

00001a40 <PM_MeasureBJT>:
    1a40:	fc0fe2ef          	jal	t0,200 <__riscv_save_12>
    1a44:	a6018713          	addi	a4,gp,-1440 # 20000450 <ComponentMeasureResult>
    1a48:	00874903          	lbu	s2,8(a4)
    1a4c:	4705                	li	a4,1
    1a4e:	7119                	addi	sp,sp,-128
    1a50:	a6018793          	addi	a5,gp,-1440 # 20000450 <ComponentMeasureResult>
    1a54:	72e91c63          	bne	s2,a4,218c <PM_MeasureBJT+0x74c>
    1a58:	69ad                	lui	s3,0xb
    1a5a:	6a098d93          	addi	s11,s3,1696 # b6a0 <PortGroup_3>
    1a5e:	27b4                	lbu	a3,10(a5)
    1a60:	049dc703          	lbu	a4,73(s11)
    1a64:	6aad                	lui	s5,0xb
    1a66:	6a2d                	lui	s4,0xb
    1a68:	608a8493          	addi	s1,s5,1544 # b608 <PortGroup_1>
    1a6c:	654a0413          	addi	s0,s4,1620 # b654 <PortGroup_2>
    1a70:	0494c803          	lbu	a6,73(s1)
    1a74:	04844c03          	lbu	s8,72(s0)
    1a78:	048dcc83          	lbu	s9,72(s11)
    1a7c:	0484cb03          	lbu	s6,72(s1)
    1a80:	0000bd37          	lui	s10,0xb
    1a84:	26e69463          	bne	a3,a4,1cec <PM_MeasureBJT+0x2ac>
    1a88:	cc42                	sw	a6,24(sp)
    1a8a:	38b010ef          	jal	ra,3614 <PM_ComponentDischarge>
    1a8e:	03200513          	li	a0,50
    1a92:	6dd030ef          	jal	ra,596e <Delay_Ms>
    1a96:	608a8593          	addi	a1,s5,1544
    1a9a:	04c00613          	li	a2,76
    1a9e:	1808                	addi	a0,sp,48
    1aa0:	596060ef          	jal	ra,8036 <memcpy>
    1aa4:	4601                	li	a2,0
    1aa6:	4585                	li	a1,1
    1aa8:	1808                	addi	a0,sp,48
    1aaa:	4a2020ef          	jal	ra,3f4c <PM_MeasurePortInit>
    1aae:	6a098593          	addi	a1,s3,1696
    1ab2:	04c00613          	li	a2,76
    1ab6:	1808                	addi	a0,sp,48
    1ab8:	57e060ef          	jal	ra,8036 <memcpy>
    1abc:	4605                	li	a2,1
    1abe:	4589                	li	a1,2
    1ac0:	1808                	addi	a0,sp,48
    1ac2:	48a020ef          	jal	ra,3f4c <PM_MeasurePortInit>
    1ac6:	654a0593          	addi	a1,s4,1620
    1aca:	04c00613          	li	a2,76
    1ace:	1808                	addi	a0,sp,48
    1ad0:	566060ef          	jal	ra,8036 <memcpy>
    1ad4:	4605                	li	a2,1
    1ad6:	4581                	li	a1,0
    1ad8:	1808                	addi	a0,sp,48
    1ada:	472020ef          	jal	ra,3f4c <PM_MeasurePortInit>
    1ade:	03200513          	li	a0,50
    1ae2:	68d030ef          	jal	ra,596e <Delay_Ms>
    1ae6:	461d                	li	a2,7
    1ae8:	45c1                	li	a1,16
    1aea:	8566                	mv	a0,s9
    1aec:	3b5d                	jal	18a2 <PM_DMA_GetADCAverage>
    1aee:	3f35                	jal	1a2a <PM_ADCRealVol>
    1af0:	461d                	li	a2,7
    1af2:	45c1                	li	a1,16
    1af4:	c42a                	sw	a0,8(sp)
    1af6:	855a                	mv	a0,s6
    1af8:	336d                	jal	18a2 <PM_DMA_GetADCAverage>
    1afa:	3f05                	jal	1a2a <PM_ADCRealVol>
    1afc:	c82a                	sw	a0,16(sp)
    1afe:	038da503          	lw	a0,56(s11)
    1b02:	412060ef          	jal	ra,7f14 <__extendsfdf2>
    1b06:	358d2603          	lw	a2,856(s10) # b358 <_read+0x23c>
    1b0a:	35cd2683          	lw	a3,860(s10)
    1b0e:	450040ef          	jal	ra,5f5e <__adddf3>
    1b12:	8b2a                	mv	s6,a0
    1b14:	03cda503          	lw	a0,60(s11)
    1b18:	8bae                	mv	s7,a1
    1b1a:	3fa060ef          	jal	ra,7f14 <__extendsfdf2>
    1b1e:	c02a                	sw	a0,0(sp)
    1b20:	4542                	lw	a0,16(sp)
    1b22:	c22e                	sw	a1,4(sp)
    1b24:	322060ef          	jal	ra,7e46 <__floatunsisf>
    1b28:	54cc                	lw	a1,44(s1)
    1b2a:	795050ef          	jal	ra,7abe <__subsf3>
    1b2e:	3e6060ef          	jal	ra,7f14 <__extendsfdf2>
    1b32:	865a                	mv	a2,s6
    1b34:	86de                	mv	a3,s7
    1b36:	224050ef          	jal	ra,6d5a <__muldf3>
    1b3a:	8d2a                	mv	s10,a0
    1b3c:	4522                	lw	a0,8(sp)
    1b3e:	8dae                	mv	s11,a1
    1b40:	719050ef          	jal	ra,7a58 <__floatunsidf>
    1b44:	0000b737          	lui	a4,0xb
    1b48:	862a                	mv	a2,a0
    1b4a:	86ae                	mv	a3,a1
    1b4c:	36072503          	lw	a0,864(a4) # b360 <_read+0x244>
    1b50:	36472583          	lw	a1,868(a4)
    1b54:	6be050ef          	jal	ra,7212 <__subdf3>
    1b58:	4602                	lw	a2,0(sp)
    1b5a:	4692                	lw	a3,4(sp)
    1b5c:	6b6050ef          	jal	ra,7212 <__subdf3>
    1b60:	862a                	mv	a2,a0
    1b62:	86ae                	mv	a3,a1
    1b64:	856a                	mv	a0,s10
    1b66:	85ee                	mv	a1,s11
    1b68:	327040ef          	jal	ra,668e <__divdf3>
    1b6c:	8d2a                	mv	s10,a0
    1b6e:	5488                	lw	a0,40(s1)
    1b70:	8dae                	mv	s11,a1
    1b72:	3a2060ef          	jal	ra,7f14 <__extendsfdf2>
    1b76:	862a                	mv	a2,a0
    1b78:	86ae                	mv	a3,a1
    1b7a:	856a                	mv	a0,s10
    1b7c:	85ee                	mv	a1,s11
    1b7e:	694050ef          	jal	ra,7212 <__subdf3>
    1b82:	0000bdb7          	lui	s11,0xb
    1b86:	368da603          	lw	a2,872(s11) # b368 <_read+0x24c>
    1b8a:	36cda683          	lw	a3,876(s11)
    1b8e:	301040ef          	jal	ra,668e <__divdf3>
    1b92:	0000b8b7          	lui	a7,0xb
    1b96:	3708a603          	lw	a2,880(a7) # b370 <_read+0x254>
    1b9a:	3748a683          	lw	a3,884(a7)
    1b9e:	674050ef          	jal	ra,7212 <__subdf3>
    1ba2:	5eb050ef          	jal	ra,798c <__fixunsdfsi>
    1ba6:	01051d13          	slli	s10,a0,0x10
    1baa:	26b010ef          	jal	ra,3614 <PM_ComponentDischarge>
    1bae:	03200513          	li	a0,50
    1bb2:	5bd030ef          	jal	ra,596e <Delay_Ms>
    1bb6:	654a0593          	addi	a1,s4,1620
    1bba:	04c00613          	li	a2,76
    1bbe:	1808                	addi	a0,sp,48
    1bc0:	476060ef          	jal	ra,8036 <memcpy>
    1bc4:	4601                	li	a2,0
    1bc6:	4585                	li	a1,1
    1bc8:	1808                	addi	a0,sp,48
    1bca:	382020ef          	jal	ra,3f4c <PM_MeasurePortInit>
    1bce:	6a098593          	addi	a1,s3,1696
    1bd2:	04c00613          	li	a2,76
    1bd6:	1808                	addi	a0,sp,48
    1bd8:	45e060ef          	jal	ra,8036 <memcpy>
    1bdc:	4605                	li	a2,1
    1bde:	4589                	li	a1,2
    1be0:	1808                	addi	a0,sp,48
    1be2:	36a020ef          	jal	ra,3f4c <PM_MeasurePortInit>
    1be6:	608a8593          	addi	a1,s5,1544
    1bea:	04c00613          	li	a2,76
    1bee:	1808                	addi	a0,sp,48
    1bf0:	446060ef          	jal	ra,8036 <memcpy>
    1bf4:	4605                	li	a2,1
    1bf6:	4581                	li	a1,0
    1bf8:	1808                	addi	a0,sp,48
    1bfa:	352020ef          	jal	ra,3f4c <PM_MeasurePortInit>
    1bfe:	03200513          	li	a0,50
    1c02:	56d030ef          	jal	ra,596e <Delay_Ms>
    1c06:	461d                	li	a2,7
    1c08:	45c1                	li	a1,16
    1c0a:	8566                	mv	a0,s9
    1c0c:	3959                	jal	18a2 <PM_DMA_GetADCAverage>
    1c0e:	3d31                	jal	1a2a <PM_ADCRealVol>
    1c10:	461d                	li	a2,7
    1c12:	45c1                	li	a1,16
    1c14:	84aa                	mv	s1,a0
    1c16:	8562                	mv	a0,s8
    1c18:	3169                	jal	18a2 <PM_DMA_GetADCAverage>
    1c1a:	3d01                	jal	1a2a <PM_ADCRealVol>
    1c1c:	89aa                	mv	s3,a0
    1c1e:	228060ef          	jal	ra,7e46 <__floatunsisf>
    1c22:	544c                	lw	a1,44(s0)
    1c24:	010d5d13          	srli	s10,s10,0x10
    1c28:	697050ef          	jal	ra,7abe <__subsf3>
    1c2c:	2e8060ef          	jal	ra,7f14 <__extendsfdf2>
    1c30:	865a                	mv	a2,s6
    1c32:	86de                	mv	a3,s7
    1c34:	126050ef          	jal	ra,6d5a <__muldf3>
    1c38:	8a2a                	mv	s4,a0
    1c3a:	8526                	mv	a0,s1
    1c3c:	8aae                	mv	s5,a1
    1c3e:	61b050ef          	jal	ra,7a58 <__floatunsidf>
    1c42:	0000b737          	lui	a4,0xb
    1c46:	862a                	mv	a2,a0
    1c48:	86ae                	mv	a3,a1
    1c4a:	36072503          	lw	a0,864(a4) # b360 <_read+0x244>
    1c4e:	36472583          	lw	a1,868(a4)
    1c52:	5c0050ef          	jal	ra,7212 <__subdf3>
    1c56:	4602                	lw	a2,0(sp)
    1c58:	4692                	lw	a3,4(sp)
    1c5a:	5b8050ef          	jal	ra,7212 <__subdf3>
    1c5e:	862a                	mv	a2,a0
    1c60:	86ae                	mv	a3,a1
    1c62:	8552                	mv	a0,s4
    1c64:	85d6                	mv	a1,s5
    1c66:	229040ef          	jal	ra,668e <__divdf3>
    1c6a:	8a2a                	mv	s4,a0
    1c6c:	5408                	lw	a0,40(s0)
    1c6e:	8aae                	mv	s5,a1
    1c70:	2a4060ef          	jal	ra,7f14 <__extendsfdf2>
    1c74:	862a                	mv	a2,a0
    1c76:	86ae                	mv	a3,a1
    1c78:	8552                	mv	a0,s4
    1c7a:	85d6                	mv	a1,s5
    1c7c:	596050ef          	jal	ra,7212 <__subdf3>
    1c80:	368da603          	lw	a2,872(s11)
    1c84:	36cda683          	lw	a3,876(s11)
    1c88:	207040ef          	jal	ra,668e <__divdf3>
    1c8c:	0000b8b7          	lui	a7,0xb
    1c90:	3708a603          	lw	a2,880(a7) # b370 <_read+0x254>
    1c94:	3748a683          	lw	a3,884(a7)
    1c98:	57a050ef          	jal	ra,7212 <__subdf3>
    1c9c:	4f1050ef          	jal	ra,798c <__fixunsdfsi>
    1ca0:	0542                	slli	a0,a0,0x10
    1ca2:	8141                	srli	a0,a0,0x10
    1ca4:	04944703          	lbu	a4,73(s0)
    1ca8:	4862                	lw	a6,24(sp)
    1caa:	a6018793          	addi	a5,gp,-1440 # 20000450 <ComponentMeasureResult>
    1cae:	03a57763          	bgeu	a0,s10,1cdc <PM_MeasureBJT+0x29c>
    1cb2:	b798                	sb	a4,9(a5)
    1cb4:	46c2                	lw	a3,16(sp)
    1cb6:	4722                	lw	a4,8(sp)
    1cb8:	010785a3          	sb	a6,11(a5)
    1cbc:	01a79623          	sh	s10,12(a5)
    1cc0:	8f15                	sub	a4,a4,a3
    1cc2:	cb98                	sw	a4,16(a5)
    1cc4:	4b90                	lw	a2,16(a5)
    1cc6:	27ce                	lhu	a1,12(a5)
    1cc8:	0000b537          	lui	a0,0xb
    1ccc:	37850513          	addi	a0,a0,888 # b378 <_read+0x25c>
    1cd0:	5fb060ef          	jal	ra,8aca <iprintf>
    1cd4:	854a                	mv	a0,s2
    1cd6:	6109                	addi	sp,sp,128
    1cd8:	d64fe06f          	j	23c <__riscv_restore_12>
    1cdc:	010784a3          	sb	a6,9(a5)
    1ce0:	413484b3          	sub	s1,s1,s3
    1ce4:	b7b8                	sb	a4,11(a5)
    1ce6:	a7ca                	sh	a0,12(a5)
    1ce8:	cb84                	sw	s1,16(a5)
    1cea:	bfe9                	j	1cc4 <PM_MeasureBJT+0x284>
    1cec:	02cda603          	lw	a2,44(s11)
    1cf0:	c832                	sw	a2,16(sp)
    1cf2:	028da603          	lw	a2,40(s11)
    1cf6:	cc32                	sw	a2,24(sp)
    1cf8:	23069f63          	bne	a3,a6,1f36 <PM_MeasureBJT+0x4f6>
    1cfc:	d43a                	sw	a4,40(sp)
    1cfe:	117010ef          	jal	ra,3614 <PM_ComponentDischarge>
    1d02:	03200513          	li	a0,50
    1d06:	469030ef          	jal	ra,596e <Delay_Ms>
    1d0a:	654a0593          	addi	a1,s4,1620
    1d0e:	04c00613          	li	a2,76
    1d12:	1808                	addi	a0,sp,48
    1d14:	322060ef          	jal	ra,8036 <memcpy>
    1d18:	4601                	li	a2,0
    1d1a:	4585                	li	a1,1
    1d1c:	1808                	addi	a0,sp,48
    1d1e:	22e020ef          	jal	ra,3f4c <PM_MeasurePortInit>
    1d22:	608a8593          	addi	a1,s5,1544
    1d26:	04c00613          	li	a2,76
    1d2a:	1808                	addi	a0,sp,48
    1d2c:	30a060ef          	jal	ra,8036 <memcpy>
    1d30:	4605                	li	a2,1
    1d32:	4589                	li	a1,2
    1d34:	1808                	addi	a0,sp,48
    1d36:	216020ef          	jal	ra,3f4c <PM_MeasurePortInit>
    1d3a:	6a098593          	addi	a1,s3,1696
    1d3e:	04c00613          	li	a2,76
    1d42:	1808                	addi	a0,sp,48
    1d44:	2f2060ef          	jal	ra,8036 <memcpy>
    1d48:	4605                	li	a2,1
    1d4a:	4581                	li	a1,0
    1d4c:	1808                	addi	a0,sp,48
    1d4e:	1fe020ef          	jal	ra,3f4c <PM_MeasurePortInit>
    1d52:	03200513          	li	a0,50
    1d56:	419030ef          	jal	ra,596e <Delay_Ms>
    1d5a:	461d                	li	a2,7
    1d5c:	45c1                	li	a1,16
    1d5e:	855a                	mv	a0,s6
    1d60:	3689                	jal	18a2 <PM_DMA_GetADCAverage>
    1d62:	31e1                	jal	1a2a <PM_ADCRealVol>
    1d64:	461d                	li	a2,7
    1d66:	45c1                	li	a1,16
    1d68:	c42a                	sw	a0,8(sp)
    1d6a:	8562                	mv	a0,s8
    1d6c:	3e1d                	jal	18a2 <PM_DMA_GetADCAverage>
    1d6e:	3975                	jal	1a2a <PM_ADCRealVol>
    1d70:	8baa                	mv	s7,a0
    1d72:	5c88                	lw	a0,56(s1)
    1d74:	0000bc37          	lui	s8,0xb
    1d78:	19c060ef          	jal	ra,7f14 <__extendsfdf2>
    1d7c:	358d2603          	lw	a2,856(s10)
    1d80:	35cd2683          	lw	a3,860(s10)
    1d84:	1da040ef          	jal	ra,5f5e <__adddf3>
    1d88:	d02a                	sw	a0,32(sp)
    1d8a:	5cc8                	lw	a0,60(s1)
    1d8c:	d22e                	sw	a1,36(sp)
    1d8e:	186060ef          	jal	ra,7f14 <__extendsfdf2>
    1d92:	c02a                	sw	a0,0(sp)
    1d94:	855e                	mv	a0,s7
    1d96:	c22e                	sw	a1,4(sp)
    1d98:	0ae060ef          	jal	ra,7e46 <__floatunsisf>
    1d9c:	544c                	lw	a1,44(s0)
    1d9e:	521050ef          	jal	ra,7abe <__subsf3>
    1da2:	172060ef          	jal	ra,7f14 <__extendsfdf2>
    1da6:	5602                	lw	a2,32(sp)
    1da8:	5692                	lw	a3,36(sp)
    1daa:	7b1040ef          	jal	ra,6d5a <__muldf3>
    1dae:	8d2a                	mv	s10,a0
    1db0:	4522                	lw	a0,8(sp)
    1db2:	8dae                	mv	s11,a1
    1db4:	4a5050ef          	jal	ra,7a58 <__floatunsidf>
    1db8:	0000b837          	lui	a6,0xb
    1dbc:	862a                	mv	a2,a0
    1dbe:	86ae                	mv	a3,a1
    1dc0:	36082503          	lw	a0,864(a6) # b360 <_read+0x244>
    1dc4:	36482583          	lw	a1,868(a6)
    1dc8:	44a050ef          	jal	ra,7212 <__subdf3>
    1dcc:	4602                	lw	a2,0(sp)
    1dce:	4692                	lw	a3,4(sp)
    1dd0:	442050ef          	jal	ra,7212 <__subdf3>
    1dd4:	862a                	mv	a2,a0
    1dd6:	86ae                	mv	a3,a1
    1dd8:	856a                	mv	a0,s10
    1dda:	85ee                	mv	a1,s11
    1ddc:	0b3040ef          	jal	ra,668e <__divdf3>
    1de0:	8d2a                	mv	s10,a0
    1de2:	5408                	lw	a0,40(s0)
    1de4:	8dae                	mv	s11,a1
    1de6:	12e060ef          	jal	ra,7f14 <__extendsfdf2>
    1dea:	862a                	mv	a2,a0
    1dec:	86ae                	mv	a3,a1
    1dee:	856a                	mv	a0,s10
    1df0:	85ee                	mv	a1,s11
    1df2:	420050ef          	jal	ra,7212 <__subdf3>
    1df6:	0000bdb7          	lui	s11,0xb
    1dfa:	368da603          	lw	a2,872(s11) # b368 <_read+0x24c>
    1dfe:	36cda683          	lw	a3,876(s11)
    1e02:	08d040ef          	jal	ra,668e <__divdf3>
    1e06:	374c2683          	lw	a3,884(s8) # b374 <_read+0x258>
    1e0a:	370c2603          	lw	a2,880(s8)
    1e0e:	404050ef          	jal	ra,7212 <__subdf3>
    1e12:	37b050ef          	jal	ra,798c <__fixunsdfsi>
    1e16:	01051d13          	slli	s10,a0,0x10
    1e1a:	7fa010ef          	jal	ra,3614 <PM_ComponentDischarge>
    1e1e:	03200513          	li	a0,50
    1e22:	34d030ef          	jal	ra,596e <Delay_Ms>
    1e26:	6a098593          	addi	a1,s3,1696
    1e2a:	04c00613          	li	a2,76
    1e2e:	1808                	addi	a0,sp,48
    1e30:	206060ef          	jal	ra,8036 <memcpy>
    1e34:	4601                	li	a2,0
    1e36:	4585                	li	a1,1
    1e38:	1808                	addi	a0,sp,48
    1e3a:	112020ef          	jal	ra,3f4c <PM_MeasurePortInit>
    1e3e:	608a8593          	addi	a1,s5,1544
    1e42:	04c00613          	li	a2,76
    1e46:	1808                	addi	a0,sp,48
    1e48:	1ee060ef          	jal	ra,8036 <memcpy>
    1e4c:	4605                	li	a2,1
    1e4e:	4589                	li	a1,2
    1e50:	1808                	addi	a0,sp,48
    1e52:	0fa020ef          	jal	ra,3f4c <PM_MeasurePortInit>
    1e56:	654a0593          	addi	a1,s4,1620
    1e5a:	04c00613          	li	a2,76
    1e5e:	1808                	addi	a0,sp,48
    1e60:	1d6060ef          	jal	ra,8036 <memcpy>
    1e64:	4605                	li	a2,1
    1e66:	4581                	li	a1,0
    1e68:	1808                	addi	a0,sp,48
    1e6a:	0e2020ef          	jal	ra,3f4c <PM_MeasurePortInit>
    1e6e:	03200513          	li	a0,50
    1e72:	2fd030ef          	jal	ra,596e <Delay_Ms>
    1e76:	461d                	li	a2,7
    1e78:	45c1                	li	a1,16
    1e7a:	855a                	mv	a0,s6
    1e7c:	a27ff0ef          	jal	ra,18a2 <PM_DMA_GetADCAverage>
    1e80:	366d                	jal	1a2a <PM_ADCRealVol>
    1e82:	461d                	li	a2,7
    1e84:	45c1                	li	a1,16
    1e86:	84aa                	mv	s1,a0
    1e88:	8566                	mv	a0,s9
    1e8a:	a19ff0ef          	jal	ra,18a2 <PM_DMA_GetADCAverage>
    1e8e:	3e71                	jal	1a2a <PM_ADCRealVol>
    1e90:	89aa                	mv	s3,a0
    1e92:	7b5050ef          	jal	ra,7e46 <__floatunsisf>
    1e96:	45c2                	lw	a1,16(sp)
    1e98:	010d5d13          	srli	s10,s10,0x10
    1e9c:	423050ef          	jal	ra,7abe <__subsf3>
    1ea0:	074060ef          	jal	ra,7f14 <__extendsfdf2>
    1ea4:	5602                	lw	a2,32(sp)
    1ea6:	5692                	lw	a3,36(sp)
    1ea8:	6b3040ef          	jal	ra,6d5a <__muldf3>
    1eac:	8a2a                	mv	s4,a0
    1eae:	8526                	mv	a0,s1
    1eb0:	8aae                	mv	s5,a1
    1eb2:	3a7050ef          	jal	ra,7a58 <__floatunsidf>
    1eb6:	0000b837          	lui	a6,0xb
    1eba:	862a                	mv	a2,a0
    1ebc:	86ae                	mv	a3,a1
    1ebe:	36082503          	lw	a0,864(a6) # b360 <_read+0x244>
    1ec2:	36482583          	lw	a1,868(a6)
    1ec6:	34c050ef          	jal	ra,7212 <__subdf3>
    1eca:	4602                	lw	a2,0(sp)
    1ecc:	4692                	lw	a3,4(sp)
    1ece:	344050ef          	jal	ra,7212 <__subdf3>
    1ed2:	862a                	mv	a2,a0
    1ed4:	86ae                	mv	a3,a1
    1ed6:	8552                	mv	a0,s4
    1ed8:	85d6                	mv	a1,s5
    1eda:	7b4040ef          	jal	ra,668e <__divdf3>
    1ede:	8a2a                	mv	s4,a0
    1ee0:	4562                	lw	a0,24(sp)
    1ee2:	8aae                	mv	s5,a1
    1ee4:	030060ef          	jal	ra,7f14 <__extendsfdf2>
    1ee8:	862a                	mv	a2,a0
    1eea:	86ae                	mv	a3,a1
    1eec:	8552                	mv	a0,s4
    1eee:	85d6                	mv	a1,s5
    1ef0:	322050ef          	jal	ra,7212 <__subdf3>
    1ef4:	368da603          	lw	a2,872(s11)
    1ef8:	36cda683          	lw	a3,876(s11)
    1efc:	792040ef          	jal	ra,668e <__divdf3>
    1f00:	374c2683          	lw	a3,884(s8)
    1f04:	370c2603          	lw	a2,880(s8)
    1f08:	30a050ef          	jal	ra,7212 <__subdf3>
    1f0c:	281050ef          	jal	ra,798c <__fixunsdfsi>
    1f10:	0542                	slli	a0,a0,0x10
    1f12:	8141                	srli	a0,a0,0x10
    1f14:	04944683          	lbu	a3,73(s0)
    1f18:	5722                	lw	a4,40(sp)
    1f1a:	a6018793          	addi	a5,gp,-1440 # 20000450 <ComponentMeasureResult>
    1f1e:	01a57a63          	bgeu	a0,s10,1f32 <PM_MeasureBJT+0x4f2>
    1f22:	b798                	sb	a4,9(a5)
    1f24:	4722                	lw	a4,8(sp)
    1f26:	b7b4                	sb	a3,11(a5)
    1f28:	01a79623          	sh	s10,12(a5)
    1f2c:	41770733          	sub	a4,a4,s7
    1f30:	bb49                	j	1cc2 <PM_MeasureBJT+0x282>
    1f32:	b794                	sb	a3,9(a5)
    1f34:	b375                	j	1ce0 <PM_MeasureBJT+0x2a0>
    1f36:	d442                	sw	a6,40(sp)
    1f38:	d03a                	sw	a4,32(sp)
    1f3a:	6da010ef          	jal	ra,3614 <PM_ComponentDischarge>
    1f3e:	03200513          	li	a0,50
    1f42:	22d030ef          	jal	ra,596e <Delay_Ms>
    1f46:	6a098593          	addi	a1,s3,1696
    1f4a:	04c00613          	li	a2,76
    1f4e:	1808                	addi	a0,sp,48
    1f50:	0e6060ef          	jal	ra,8036 <memcpy>
    1f54:	4601                	li	a2,0
    1f56:	4585                	li	a1,1
    1f58:	1808                	addi	a0,sp,48
    1f5a:	7f3010ef          	jal	ra,3f4c <PM_MeasurePortInit>
    1f5e:	654a0593          	addi	a1,s4,1620
    1f62:	04c00613          	li	a2,76
    1f66:	1808                	addi	a0,sp,48
    1f68:	0ce060ef          	jal	ra,8036 <memcpy>
    1f6c:	4605                	li	a2,1
    1f6e:	4589                	li	a1,2
    1f70:	1808                	addi	a0,sp,48
    1f72:	7db010ef          	jal	ra,3f4c <PM_MeasurePortInit>
    1f76:	608a8593          	addi	a1,s5,1544
    1f7a:	04c00613          	li	a2,76
    1f7e:	1808                	addi	a0,sp,48
    1f80:	0b6060ef          	jal	ra,8036 <memcpy>
    1f84:	4605                	li	a2,1
    1f86:	4581                	li	a1,0
    1f88:	1808                	addi	a0,sp,48
    1f8a:	7c3010ef          	jal	ra,3f4c <PM_MeasurePortInit>
    1f8e:	03200513          	li	a0,50
    1f92:	1dd030ef          	jal	ra,596e <Delay_Ms>
    1f96:	461d                	li	a2,7
    1f98:	45c1                	li	a1,16
    1f9a:	8562                	mv	a0,s8
    1f9c:	907ff0ef          	jal	ra,18a2 <PM_DMA_GetADCAverage>
    1fa0:	3469                	jal	1a2a <PM_ADCRealVol>
    1fa2:	461d                	li	a2,7
    1fa4:	45c1                	li	a1,16
    1fa6:	8baa                	mv	s7,a0
    1fa8:	8566                	mv	a0,s9
    1faa:	8f9ff0ef          	jal	ra,18a2 <PM_DMA_GetADCAverage>
    1fae:	3cb5                	jal	1a2a <PM_ADCRealVol>
    1fb0:	8caa                	mv	s9,a0
    1fb2:	5c08                	lw	a0,56(s0)
    1fb4:	761050ef          	jal	ra,7f14 <__extendsfdf2>
    1fb8:	358d2603          	lw	a2,856(s10)
    1fbc:	35cd2683          	lw	a3,860(s10)
    1fc0:	79f030ef          	jal	ra,5f5e <__adddf3>
    1fc4:	c42a                	sw	a0,8(sp)
    1fc6:	5c48                	lw	a0,60(s0)
    1fc8:	c62e                	sw	a1,12(sp)
    1fca:	74b050ef          	jal	ra,7f14 <__extendsfdf2>
    1fce:	c02a                	sw	a0,0(sp)
    1fd0:	8566                	mv	a0,s9
    1fd2:	c22e                	sw	a1,4(sp)
    1fd4:	673050ef          	jal	ra,7e46 <__floatunsisf>
    1fd8:	45c2                	lw	a1,16(sp)
    1fda:	2e5050ef          	jal	ra,7abe <__subsf3>
    1fde:	737050ef          	jal	ra,7f14 <__extendsfdf2>
    1fe2:	4622                	lw	a2,8(sp)
    1fe4:	46b2                	lw	a3,12(sp)
    1fe6:	575040ef          	jal	ra,6d5a <__muldf3>
    1fea:	8d2a                	mv	s10,a0
    1fec:	855e                	mv	a0,s7
    1fee:	8dae                	mv	s11,a1
    1ff0:	269050ef          	jal	ra,7a58 <__floatunsidf>
    1ff4:	0000b8b7          	lui	a7,0xb
    1ff8:	862a                	mv	a2,a0
    1ffa:	86ae                	mv	a3,a1
    1ffc:	3608a503          	lw	a0,864(a7) # b360 <_read+0x244>
    2000:	3648a583          	lw	a1,868(a7)
    2004:	20e050ef          	jal	ra,7212 <__subdf3>
    2008:	4602                	lw	a2,0(sp)
    200a:	4692                	lw	a3,4(sp)
    200c:	206050ef          	jal	ra,7212 <__subdf3>
    2010:	862a                	mv	a2,a0
    2012:	86ae                	mv	a3,a1
    2014:	856a                	mv	a0,s10
    2016:	85ee                	mv	a1,s11
    2018:	676040ef          	jal	ra,668e <__divdf3>
    201c:	8d2a                	mv	s10,a0
    201e:	4562                	lw	a0,24(sp)
    2020:	8dae                	mv	s11,a1
    2022:	6f3050ef          	jal	ra,7f14 <__extendsfdf2>
    2026:	862a                	mv	a2,a0
    2028:	86ae                	mv	a3,a1
    202a:	856a                	mv	a0,s10
    202c:	85ee                	mv	a1,s11
    202e:	1e4050ef          	jal	ra,7212 <__subdf3>
    2032:	0000bdb7          	lui	s11,0xb
    2036:	368da603          	lw	a2,872(s11) # b368 <_read+0x24c>
    203a:	36cda683          	lw	a3,876(s11)
    203e:	650040ef          	jal	ra,668e <__divdf3>
    2042:	0000b337          	lui	t1,0xb
    2046:	37032603          	lw	a2,880(t1) # b370 <_read+0x254>
    204a:	37432683          	lw	a3,884(t1)
    204e:	1c4050ef          	jal	ra,7212 <__subdf3>
    2052:	13b050ef          	jal	ra,798c <__fixunsdfsi>
    2056:	01051d13          	slli	s10,a0,0x10
    205a:	5ba010ef          	jal	ra,3614 <PM_ComponentDischarge>
    205e:	03200513          	li	a0,50
    2062:	10d030ef          	jal	ra,596e <Delay_Ms>
    2066:	608a8593          	addi	a1,s5,1544
    206a:	04c00613          	li	a2,76
    206e:	1808                	addi	a0,sp,48
    2070:	7c7050ef          	jal	ra,8036 <memcpy>
    2074:	4601                	li	a2,0
    2076:	4585                	li	a1,1
    2078:	1808                	addi	a0,sp,48
    207a:	6d3010ef          	jal	ra,3f4c <PM_MeasurePortInit>
    207e:	654a0593          	addi	a1,s4,1620
    2082:	04c00613          	li	a2,76
    2086:	1808                	addi	a0,sp,48
    2088:	7af050ef          	jal	ra,8036 <memcpy>
    208c:	4605                	li	a2,1
    208e:	4589                	li	a1,2
    2090:	1808                	addi	a0,sp,48
    2092:	6bb010ef          	jal	ra,3f4c <PM_MeasurePortInit>
    2096:	6a098593          	addi	a1,s3,1696
    209a:	04c00613          	li	a2,76
    209e:	1808                	addi	a0,sp,48
    20a0:	797050ef          	jal	ra,8036 <memcpy>
    20a4:	4605                	li	a2,1
    20a6:	4581                	li	a1,0
    20a8:	1808                	addi	a0,sp,48
    20aa:	6a3010ef          	jal	ra,3f4c <PM_MeasurePortInit>
    20ae:	03200513          	li	a0,50
    20b2:	0bd030ef          	jal	ra,596e <Delay_Ms>
    20b6:	461d                	li	a2,7
    20b8:	45c1                	li	a1,16
    20ba:	8562                	mv	a0,s8
    20bc:	fe6ff0ef          	jal	ra,18a2 <PM_DMA_GetADCAverage>
    20c0:	96bff0ef          	jal	ra,1a2a <PM_ADCRealVol>
    20c4:	461d                	li	a2,7
    20c6:	45c1                	li	a1,16
    20c8:	842a                	mv	s0,a0
    20ca:	855a                	mv	a0,s6
    20cc:	fd6ff0ef          	jal	ra,18a2 <PM_DMA_GetADCAverage>
    20d0:	95bff0ef          	jal	ra,1a2a <PM_ADCRealVol>
    20d4:	89aa                	mv	s3,a0
    20d6:	571050ef          	jal	ra,7e46 <__floatunsisf>
    20da:	54cc                	lw	a1,44(s1)
    20dc:	010d5d13          	srli	s10,s10,0x10
    20e0:	1df050ef          	jal	ra,7abe <__subsf3>
    20e4:	631050ef          	jal	ra,7f14 <__extendsfdf2>
    20e8:	4622                	lw	a2,8(sp)
    20ea:	46b2                	lw	a3,12(sp)
    20ec:	46f040ef          	jal	ra,6d5a <__muldf3>
    20f0:	8a2a                	mv	s4,a0
    20f2:	8522                	mv	a0,s0
    20f4:	8aae                	mv	s5,a1
    20f6:	163050ef          	jal	ra,7a58 <__floatunsidf>
    20fa:	0000b8b7          	lui	a7,0xb
    20fe:	862a                	mv	a2,a0
    2100:	86ae                	mv	a3,a1
    2102:	3608a503          	lw	a0,864(a7) # b360 <_read+0x244>
    2106:	3648a583          	lw	a1,868(a7)
    210a:	108050ef          	jal	ra,7212 <__subdf3>
    210e:	4602                	lw	a2,0(sp)
    2110:	4692                	lw	a3,4(sp)
    2112:	100050ef          	jal	ra,7212 <__subdf3>
    2116:	862a                	mv	a2,a0
    2118:	86ae                	mv	a3,a1
    211a:	8552                	mv	a0,s4
    211c:	85d6                	mv	a1,s5
    211e:	570040ef          	jal	ra,668e <__divdf3>
    2122:	8a2a                	mv	s4,a0
    2124:	5488                	lw	a0,40(s1)
    2126:	8aae                	mv	s5,a1
    2128:	5ed050ef          	jal	ra,7f14 <__extendsfdf2>
    212c:	862a                	mv	a2,a0
    212e:	86ae                	mv	a3,a1
    2130:	8552                	mv	a0,s4
    2132:	85d6                	mv	a1,s5
    2134:	0de050ef          	jal	ra,7212 <__subdf3>
    2138:	368da603          	lw	a2,872(s11)
    213c:	36cda683          	lw	a3,876(s11)
    2140:	54e040ef          	jal	ra,668e <__divdf3>
    2144:	0000b337          	lui	t1,0xb
    2148:	37032603          	lw	a2,880(t1) # b370 <_read+0x254>
    214c:	37432683          	lw	a3,884(t1)
    2150:	0c2050ef          	jal	ra,7212 <__subdf3>
    2154:	039050ef          	jal	ra,798c <__fixunsdfsi>
    2158:	0542                	slli	a0,a0,0x10
    215a:	8141                	srli	a0,a0,0x10
    215c:	5702                	lw	a4,32(sp)
    215e:	5822                	lw	a6,40(sp)
    2160:	a6018793          	addi	a5,gp,-1440 # 20000450 <ComponentMeasureResult>
    2164:	01a57c63          	bgeu	a0,s10,217c <PM_MeasureBJT+0x73c>
    2168:	419b8bb3          	sub	s7,s7,s9
    216c:	010784a3          	sb	a6,9(a5)
    2170:	b7b8                	sb	a4,11(a5)
    2172:	01a79623          	sh	s10,12(a5)
    2176:	0177a823          	sw	s7,16(a5)
    217a:	b6a9                	j	1cc4 <PM_MeasureBJT+0x284>
    217c:	41340433          	sub	s0,s0,s3
    2180:	b798                	sb	a4,9(a5)
    2182:	010785a3          	sb	a6,11(a5)
    2186:	a7ca                	sh	a0,12(a5)
    2188:	cb80                	sw	s0,16(a5)
    218a:	be2d                	j	1cc4 <PM_MeasureBJT+0x284>
    218c:	78091963          	bnez	s2,291e <PM_MeasureBJT+0xede>
    2190:	6a2d                	lui	s4,0xb
    2192:	6a0a0d93          	addi	s11,s4,1696 # b6a0 <PortGroup_3>
    2196:	27b4                	lbu	a3,10(a5)
    2198:	049dc703          	lbu	a4,73(s11)
    219c:	692d                	lui	s2,0xb
    219e:	69ad                	lui	s3,0xb
    21a0:	60890493          	addi	s1,s2,1544 # b608 <PortGroup_1>
    21a4:	65498413          	addi	s0,s3,1620 # b654 <PortGroup_2>
    21a8:	0494c303          	lbu	t1,73(s1)
    21ac:	04844c03          	lbu	s8,72(s0)
    21b0:	048dcc83          	lbu	s9,72(s11)
    21b4:	0484cd03          	lbu	s10,72(s1)
    21b8:	0000bbb7          	lui	s7,0xb
    21bc:	0000bb37          	lui	s6,0xb
    21c0:	0000bab7          	lui	s5,0xb
    21c4:	26e69e63          	bne	a3,a4,2440 <PM_MeasureBJT+0xa00>
    21c8:	d01a                	sw	t1,32(sp)
    21ca:	44a010ef          	jal	ra,3614 <PM_ComponentDischarge>
    21ce:	03200513          	li	a0,50
    21d2:	79c030ef          	jal	ra,596e <Delay_Ms>
    21d6:	65498593          	addi	a1,s3,1620
    21da:	04c00613          	li	a2,76
    21de:	1808                	addi	a0,sp,48
    21e0:	657050ef          	jal	ra,8036 <memcpy>
    21e4:	4601                	li	a2,0
    21e6:	4581                	li	a1,0
    21e8:	1808                	addi	a0,sp,48
    21ea:	563010ef          	jal	ra,3f4c <PM_MeasurePortInit>
    21ee:	6a0a0593          	addi	a1,s4,1696
    21f2:	04c00613          	li	a2,76
    21f6:	1808                	addi	a0,sp,48
    21f8:	63f050ef          	jal	ra,8036 <memcpy>
    21fc:	4601                	li	a2,0
    21fe:	4589                	li	a1,2
    2200:	1808                	addi	a0,sp,48
    2202:	54b010ef          	jal	ra,3f4c <PM_MeasurePortInit>
    2206:	60890593          	addi	a1,s2,1544
    220a:	04c00613          	li	a2,76
    220e:	1808                	addi	a0,sp,48
    2210:	627050ef          	jal	ra,8036 <memcpy>
    2214:	4605                	li	a2,1
    2216:	4585                	li	a1,1
    2218:	1808                	addi	a0,sp,48
    221a:	533010ef          	jal	ra,3f4c <PM_MeasurePortInit>
    221e:	03200513          	li	a0,50
    2222:	74c030ef          	jal	ra,596e <Delay_Ms>
    2226:	461d                	li	a2,7
    2228:	45c1                	li	a1,16
    222a:	8566                	mv	a0,s9
    222c:	e76ff0ef          	jal	ra,18a2 <PM_DMA_GetADCAverage>
    2230:	ffaff0ef          	jal	ra,1a2a <PM_ADCRealVol>
    2234:	461d                	li	a2,7
    2236:	45c1                	li	a1,16
    2238:	c42a                	sw	a0,8(sp)
    223a:	856a                	mv	a0,s10
    223c:	e66ff0ef          	jal	ra,18a2 <PM_DMA_GetADCAverage>
    2240:	feaff0ef          	jal	ra,1a2a <PM_ADCRealVol>
    2244:	c82a                	sw	a0,16(sp)
    2246:	040da503          	lw	a0,64(s11)
    224a:	4cb050ef          	jal	ra,7f14 <__extendsfdf2>
    224e:	0000b7b7          	lui	a5,0xb
    2252:	3587a603          	lw	a2,856(a5) # b358 <_read+0x23c>
    2256:	35c7a683          	lw	a3,860(a5)
    225a:	505030ef          	jal	ra,5f5e <__adddf3>
    225e:	044da783          	lw	a5,68(s11)
    2262:	cc2a                	sw	a0,24(sp)
    2264:	4542                	lw	a0,16(sp)
    2266:	c03e                	sw	a5,0(sp)
    2268:	ce2e                	sw	a1,28(sp)
    226a:	7ee050ef          	jal	ra,7a58 <__floatunsidf>
    226e:	862a                	mv	a2,a0
    2270:	86ae                	mv	a3,a1
    2272:	360ba503          	lw	a0,864(s7) # b360 <_read+0x244>
    2276:	364ba583          	lw	a1,868(s7)
    227a:	799040ef          	jal	ra,7212 <__subdf3>
    227e:	8d2a                	mv	s10,a0
    2280:	50c8                	lw	a0,36(s1)
    2282:	8dae                	mv	s11,a1
    2284:	491050ef          	jal	ra,7f14 <__extendsfdf2>
    2288:	862a                	mv	a2,a0
    228a:	86ae                	mv	a3,a1
    228c:	856a                	mv	a0,s10
    228e:	85ee                	mv	a1,s11
    2290:	783040ef          	jal	ra,7212 <__subdf3>
    2294:	4662                	lw	a2,24(sp)
    2296:	46f2                	lw	a3,28(sp)
    2298:	2c3040ef          	jal	ra,6d5a <__muldf3>
    229c:	8d2a                	mv	s10,a0
    229e:	4522                	lw	a0,8(sp)
    22a0:	8dae                	mv	s11,a1
    22a2:	3a5050ef          	jal	ra,7e46 <__floatunsisf>
    22a6:	4582                	lw	a1,0(sp)
    22a8:	017050ef          	jal	ra,7abe <__subsf3>
    22ac:	469050ef          	jal	ra,7f14 <__extendsfdf2>
    22b0:	862a                	mv	a2,a0
    22b2:	86ae                	mv	a3,a1
    22b4:	856a                	mv	a0,s10
    22b6:	85ee                	mv	a1,s11
    22b8:	3d6040ef          	jal	ra,668e <__divdf3>
    22bc:	8d2a                	mv	s10,a0
    22be:	5088                	lw	a0,32(s1)
    22c0:	8dae                	mv	s11,a1
    22c2:	453050ef          	jal	ra,7f14 <__extendsfdf2>
    22c6:	862a                	mv	a2,a0
    22c8:	86ae                	mv	a3,a1
    22ca:	856a                	mv	a0,s10
    22cc:	85ee                	mv	a1,s11
    22ce:	745040ef          	jal	ra,7212 <__subdf3>
    22d2:	368b2603          	lw	a2,872(s6) # b368 <_read+0x24c>
    22d6:	36cb2683          	lw	a3,876(s6)
    22da:	3b4040ef          	jal	ra,668e <__divdf3>
    22de:	374aa683          	lw	a3,884(s5) # b374 <_read+0x258>
    22e2:	370aa603          	lw	a2,880(s5)
    22e6:	72d040ef          	jal	ra,7212 <__subdf3>
    22ea:	6a2050ef          	jal	ra,798c <__fixunsdfsi>
    22ee:	01051d13          	slli	s10,a0,0x10
    22f2:	322010ef          	jal	ra,3614 <PM_ComponentDischarge>
    22f6:	03200513          	li	a0,50
    22fa:	674030ef          	jal	ra,596e <Delay_Ms>
    22fe:	60890593          	addi	a1,s2,1544
    2302:	04c00613          	li	a2,76
    2306:	1808                	addi	a0,sp,48
    2308:	52f050ef          	jal	ra,8036 <memcpy>
    230c:	4601                	li	a2,0
    230e:	4581                	li	a1,0
    2310:	1808                	addi	a0,sp,48
    2312:	43b010ef          	jal	ra,3f4c <PM_MeasurePortInit>
    2316:	6a0a0593          	addi	a1,s4,1696
    231a:	04c00613          	li	a2,76
    231e:	1808                	addi	a0,sp,48
    2320:	517050ef          	jal	ra,8036 <memcpy>
    2324:	4601                	li	a2,0
    2326:	4589                	li	a1,2
    2328:	1808                	addi	a0,sp,48
    232a:	423010ef          	jal	ra,3f4c <PM_MeasurePortInit>
    232e:	65498593          	addi	a1,s3,1620
    2332:	04c00613          	li	a2,76
    2336:	1808                	addi	a0,sp,48
    2338:	4ff050ef          	jal	ra,8036 <memcpy>
    233c:	4605                	li	a2,1
    233e:	4585                	li	a1,1
    2340:	1808                	addi	a0,sp,48
    2342:	40b010ef          	jal	ra,3f4c <PM_MeasurePortInit>
    2346:	03200513          	li	a0,50
    234a:	624030ef          	jal	ra,596e <Delay_Ms>
    234e:	461d                	li	a2,7
    2350:	45c1                	li	a1,16
    2352:	8566                	mv	a0,s9
    2354:	d4eff0ef          	jal	ra,18a2 <PM_DMA_GetADCAverage>
    2358:	ed2ff0ef          	jal	ra,1a2a <PM_ADCRealVol>
    235c:	461d                	li	a2,7
    235e:	45c1                	li	a1,16
    2360:	84aa                	mv	s1,a0
    2362:	8562                	mv	a0,s8
    2364:	d3eff0ef          	jal	ra,18a2 <PM_DMA_GetADCAverage>
    2368:	ec2ff0ef          	jal	ra,1a2a <PM_ADCRealVol>
    236c:	8a2a                	mv	s4,a0
    236e:	6ea050ef          	jal	ra,7a58 <__floatunsidf>
    2372:	862a                	mv	a2,a0
    2374:	86ae                	mv	a3,a1
    2376:	360ba503          	lw	a0,864(s7)
    237a:	364ba583          	lw	a1,868(s7)
    237e:	010d5d13          	srli	s10,s10,0x10
    2382:	691040ef          	jal	ra,7212 <__subdf3>
    2386:	892a                	mv	s2,a0
    2388:	5048                	lw	a0,36(s0)
    238a:	89ae                	mv	s3,a1
    238c:	389050ef          	jal	ra,7f14 <__extendsfdf2>
    2390:	862a                	mv	a2,a0
    2392:	86ae                	mv	a3,a1
    2394:	854a                	mv	a0,s2
    2396:	85ce                	mv	a1,s3
    2398:	67b040ef          	jal	ra,7212 <__subdf3>
    239c:	4662                	lw	a2,24(sp)
    239e:	46f2                	lw	a3,28(sp)
    23a0:	1bb040ef          	jal	ra,6d5a <__muldf3>
    23a4:	892a                	mv	s2,a0
    23a6:	8526                	mv	a0,s1
    23a8:	89ae                	mv	s3,a1
    23aa:	29d050ef          	jal	ra,7e46 <__floatunsisf>
    23ae:	4582                	lw	a1,0(sp)
    23b0:	70e050ef          	jal	ra,7abe <__subsf3>
    23b4:	361050ef          	jal	ra,7f14 <__extendsfdf2>
    23b8:	862a                	mv	a2,a0
    23ba:	86ae                	mv	a3,a1
    23bc:	854a                	mv	a0,s2
    23be:	85ce                	mv	a1,s3
    23c0:	2ce040ef          	jal	ra,668e <__divdf3>
    23c4:	892a                	mv	s2,a0
    23c6:	5008                	lw	a0,32(s0)
    23c8:	89ae                	mv	s3,a1
    23ca:	34b050ef          	jal	ra,7f14 <__extendsfdf2>
    23ce:	862a                	mv	a2,a0
    23d0:	86ae                	mv	a3,a1
    23d2:	854a                	mv	a0,s2
    23d4:	85ce                	mv	a1,s3
    23d6:	63d040ef          	jal	ra,7212 <__subdf3>
    23da:	368b2603          	lw	a2,872(s6)
    23de:	36cb2683          	lw	a3,876(s6)
    23e2:	2ac040ef          	jal	ra,668e <__divdf3>
    23e6:	370aa603          	lw	a2,880(s5)
    23ea:	374aa683          	lw	a3,884(s5)
    23ee:	625040ef          	jal	ra,7212 <__subdf3>
    23f2:	59a050ef          	jal	ra,798c <__fixunsdfsi>
    23f6:	0542                	slli	a0,a0,0x10
    23f8:	8141                	srli	a0,a0,0x10
    23fa:	04944703          	lbu	a4,73(s0)
    23fe:	5302                	lw	t1,32(sp)
    2400:	a6018793          	addi	a5,gp,-1440 # 20000450 <ComponentMeasureResult>
    2404:	03a57663          	bgeu	a0,s10,2430 <PM_MeasureBJT+0x9f0>
    2408:	b798                	sb	a4,9(a5)
    240a:	46c2                	lw	a3,16(sp)
    240c:	4722                	lw	a4,8(sp)
    240e:	006785a3          	sb	t1,11(a5)
    2412:	01a79623          	sh	s10,12(a5)
    2416:	8f15                	sub	a4,a4,a3
    2418:	cb98                	sw	a4,16(a5)
    241a:	4b90                	lw	a2,16(a5)
    241c:	27ce                	lhu	a1,12(a5)
    241e:	0000b537          	lui	a0,0xb
    2422:	37850513          	addi	a0,a0,888 # b378 <_read+0x25c>
    2426:	6a4060ef          	jal	ra,8aca <iprintf>
    242a:	4905                	li	s2,1
    242c:	8a9ff06f          	j	1cd4 <PM_MeasureBJT+0x294>
    2430:	006784a3          	sb	t1,9(a5)
    2434:	414484b3          	sub	s1,s1,s4
    2438:	b7b8                	sb	a4,11(a5)
    243a:	a7ca                	sh	a0,12(a5)
    243c:	cb84                	sw	s1,16(a5)
    243e:	bff1                	j	241a <PM_MeasureBJT+0x9da>
    2440:	024da603          	lw	a2,36(s11)
    2444:	c832                	sw	a2,16(sp)
    2446:	020da603          	lw	a2,32(s11)
    244a:	c432                	sw	a2,8(sp)
    244c:	26669363          	bne	a3,t1,26b2 <PM_MeasureBJT+0xc72>
    2450:	d43a                	sw	a4,40(sp)
    2452:	1c2010ef          	jal	ra,3614 <PM_ComponentDischarge>
    2456:	03200513          	li	a0,50
    245a:	514030ef          	jal	ra,596e <Delay_Ms>
    245e:	6a0a0593          	addi	a1,s4,1696
    2462:	04c00613          	li	a2,76
    2466:	1808                	addi	a0,sp,48
    2468:	3cf050ef          	jal	ra,8036 <memcpy>
    246c:	4601                	li	a2,0
    246e:	4581                	li	a1,0
    2470:	1808                	addi	a0,sp,48
    2472:	2db010ef          	jal	ra,3f4c <PM_MeasurePortInit>
    2476:	60890593          	addi	a1,s2,1544
    247a:	04c00613          	li	a2,76
    247e:	1808                	addi	a0,sp,48
    2480:	3b7050ef          	jal	ra,8036 <memcpy>
    2484:	4601                	li	a2,0
    2486:	4589                	li	a1,2
    2488:	1808                	addi	a0,sp,48
    248a:	2c3010ef          	jal	ra,3f4c <PM_MeasurePortInit>
    248e:	65498593          	addi	a1,s3,1620
    2492:	04c00613          	li	a2,76
    2496:	1808                	addi	a0,sp,48
    2498:	39f050ef          	jal	ra,8036 <memcpy>
    249c:	4605                	li	a2,1
    249e:	4585                	li	a1,1
    24a0:	1808                	addi	a0,sp,48
    24a2:	2ab010ef          	jal	ra,3f4c <PM_MeasurePortInit>
    24a6:	03200513          	li	a0,50
    24aa:	4c4030ef          	jal	ra,596e <Delay_Ms>
    24ae:	461d                	li	a2,7
    24b0:	45c1                	li	a1,16
    24b2:	856a                	mv	a0,s10
    24b4:	beeff0ef          	jal	ra,18a2 <PM_DMA_GetADCAverage>
    24b8:	d72ff0ef          	jal	ra,1a2a <PM_ADCRealVol>
    24bc:	461d                	li	a2,7
    24be:	45c1                	li	a1,16
    24c0:	8daa                	mv	s11,a0
    24c2:	8562                	mv	a0,s8
    24c4:	bdeff0ef          	jal	ra,18a2 <PM_DMA_GetADCAverage>
    24c8:	d62ff0ef          	jal	ra,1a2a <PM_ADCRealVol>
    24cc:	8c2a                	mv	s8,a0
    24ce:	40a8                	lw	a0,64(s1)
    24d0:	245050ef          	jal	ra,7f14 <__extendsfdf2>
    24d4:	0000b7b7          	lui	a5,0xb
    24d8:	3587a603          	lw	a2,856(a5) # b358 <_read+0x23c>
    24dc:	35c7a683          	lw	a3,860(a5)
    24e0:	27f030ef          	jal	ra,5f5e <__adddf3>
    24e4:	40fc                	lw	a5,68(s1)
    24e6:	cc2a                	sw	a0,24(sp)
    24e8:	8562                	mv	a0,s8
    24ea:	c03e                	sw	a5,0(sp)
    24ec:	ce2e                	sw	a1,28(sp)
    24ee:	56a050ef          	jal	ra,7a58 <__floatunsidf>
    24f2:	862a                	mv	a2,a0
    24f4:	86ae                	mv	a3,a1
    24f6:	360ba503          	lw	a0,864(s7)
    24fa:	364ba583          	lw	a1,868(s7)
    24fe:	515040ef          	jal	ra,7212 <__subdf3>
    2502:	d02a                	sw	a0,32(sp)
    2504:	5048                	lw	a0,36(s0)
    2506:	d22e                	sw	a1,36(sp)
    2508:	20d050ef          	jal	ra,7f14 <__extendsfdf2>
    250c:	5802                	lw	a6,32(sp)
    250e:	5892                	lw	a7,36(sp)
    2510:	862a                	mv	a2,a0
    2512:	86ae                	mv	a3,a1
    2514:	8542                	mv	a0,a6
    2516:	85c6                	mv	a1,a7
    2518:	4fb040ef          	jal	ra,7212 <__subdf3>
    251c:	4662                	lw	a2,24(sp)
    251e:	46f2                	lw	a3,28(sp)
    2520:	03b040ef          	jal	ra,6d5a <__muldf3>
    2524:	d02a                	sw	a0,32(sp)
    2526:	856e                	mv	a0,s11
    2528:	d22e                	sw	a1,36(sp)
    252a:	11d050ef          	jal	ra,7e46 <__floatunsisf>
    252e:	4582                	lw	a1,0(sp)
    2530:	58e050ef          	jal	ra,7abe <__subsf3>
    2534:	1e1050ef          	jal	ra,7f14 <__extendsfdf2>
    2538:	5802                	lw	a6,32(sp)
    253a:	5892                	lw	a7,36(sp)
    253c:	862a                	mv	a2,a0
    253e:	86ae                	mv	a3,a1
    2540:	8542                	mv	a0,a6
    2542:	85c6                	mv	a1,a7
    2544:	14a040ef          	jal	ra,668e <__divdf3>
    2548:	d02a                	sw	a0,32(sp)
    254a:	5008                	lw	a0,32(s0)
    254c:	d22e                	sw	a1,36(sp)
    254e:	1c7050ef          	jal	ra,7f14 <__extendsfdf2>
    2552:	5892                	lw	a7,36(sp)
    2554:	5802                	lw	a6,32(sp)
    2556:	862a                	mv	a2,a0
    2558:	86ae                	mv	a3,a1
    255a:	8542                	mv	a0,a6
    255c:	85c6                	mv	a1,a7
    255e:	4b5040ef          	jal	ra,7212 <__subdf3>
    2562:	368b2603          	lw	a2,872(s6)
    2566:	36cb2683          	lw	a3,876(s6)
    256a:	124040ef          	jal	ra,668e <__divdf3>
    256e:	374aa683          	lw	a3,884(s5)
    2572:	370aa603          	lw	a2,880(s5)
    2576:	49d040ef          	jal	ra,7212 <__subdf3>
    257a:	412050ef          	jal	ra,798c <__fixunsdfsi>
    257e:	01051813          	slli	a6,a0,0x10
    2582:	01085813          	srli	a6,a6,0x10
    2586:	d042                	sw	a6,32(sp)
    2588:	08c010ef          	jal	ra,3614 <PM_ComponentDischarge>
    258c:	03200513          	li	a0,50
    2590:	3de030ef          	jal	ra,596e <Delay_Ms>
    2594:	65498593          	addi	a1,s3,1620
    2598:	04c00613          	li	a2,76
    259c:	1808                	addi	a0,sp,48
    259e:	299050ef          	jal	ra,8036 <memcpy>
    25a2:	4601                	li	a2,0
    25a4:	4581                	li	a1,0
    25a6:	1808                	addi	a0,sp,48
    25a8:	1a5010ef          	jal	ra,3f4c <PM_MeasurePortInit>
    25ac:	60890593          	addi	a1,s2,1544
    25b0:	04c00613          	li	a2,76
    25b4:	1808                	addi	a0,sp,48
    25b6:	281050ef          	jal	ra,8036 <memcpy>
    25ba:	4601                	li	a2,0
    25bc:	4589                	li	a1,2
    25be:	1808                	addi	a0,sp,48
    25c0:	18d010ef          	jal	ra,3f4c <PM_MeasurePortInit>
    25c4:	6a0a0593          	addi	a1,s4,1696
    25c8:	04c00613          	li	a2,76
    25cc:	1808                	addi	a0,sp,48
    25ce:	269050ef          	jal	ra,8036 <memcpy>
    25d2:	4605                	li	a2,1
    25d4:	4585                	li	a1,1
    25d6:	1808                	addi	a0,sp,48
    25d8:	175010ef          	jal	ra,3f4c <PM_MeasurePortInit>
    25dc:	03200513          	li	a0,50
    25e0:	38e030ef          	jal	ra,596e <Delay_Ms>
    25e4:	461d                	li	a2,7
    25e6:	45c1                	li	a1,16
    25e8:	856a                	mv	a0,s10
    25ea:	ab8ff0ef          	jal	ra,18a2 <PM_DMA_GetADCAverage>
    25ee:	c3cff0ef          	jal	ra,1a2a <PM_ADCRealVol>
    25f2:	461d                	li	a2,7
    25f4:	45c1                	li	a1,16
    25f6:	84aa                	mv	s1,a0
    25f8:	8566                	mv	a0,s9
    25fa:	aa8ff0ef          	jal	ra,18a2 <PM_DMA_GetADCAverage>
    25fe:	c2cff0ef          	jal	ra,1a2a <PM_ADCRealVol>
    2602:	8a2a                	mv	s4,a0
    2604:	454050ef          	jal	ra,7a58 <__floatunsidf>
    2608:	862a                	mv	a2,a0
    260a:	86ae                	mv	a3,a1
    260c:	360ba503          	lw	a0,864(s7)
    2610:	364ba583          	lw	a1,868(s7)
    2614:	3ff040ef          	jal	ra,7212 <__subdf3>
    2618:	892a                	mv	s2,a0
    261a:	4542                	lw	a0,16(sp)
    261c:	89ae                	mv	s3,a1
    261e:	0f7050ef          	jal	ra,7f14 <__extendsfdf2>
    2622:	862a                	mv	a2,a0
    2624:	86ae                	mv	a3,a1
    2626:	854a                	mv	a0,s2
    2628:	85ce                	mv	a1,s3
    262a:	3e9040ef          	jal	ra,7212 <__subdf3>
    262e:	4662                	lw	a2,24(sp)
    2630:	46f2                	lw	a3,28(sp)
    2632:	728040ef          	jal	ra,6d5a <__muldf3>
    2636:	892a                	mv	s2,a0
    2638:	8526                	mv	a0,s1
    263a:	89ae                	mv	s3,a1
    263c:	00b050ef          	jal	ra,7e46 <__floatunsisf>
    2640:	4582                	lw	a1,0(sp)
    2642:	47c050ef          	jal	ra,7abe <__subsf3>
    2646:	0cf050ef          	jal	ra,7f14 <__extendsfdf2>
    264a:	862a                	mv	a2,a0
    264c:	86ae                	mv	a3,a1
    264e:	854a                	mv	a0,s2
    2650:	85ce                	mv	a1,s3
    2652:	03c040ef          	jal	ra,668e <__divdf3>
    2656:	892a                	mv	s2,a0
    2658:	4522                	lw	a0,8(sp)
    265a:	89ae                	mv	s3,a1
    265c:	0b9050ef          	jal	ra,7f14 <__extendsfdf2>
    2660:	862a                	mv	a2,a0
    2662:	86ae                	mv	a3,a1
    2664:	854a                	mv	a0,s2
    2666:	85ce                	mv	a1,s3
    2668:	3ab040ef          	jal	ra,7212 <__subdf3>
    266c:	368b2603          	lw	a2,872(s6)
    2670:	36cb2683          	lw	a3,876(s6)
    2674:	01a040ef          	jal	ra,668e <__divdf3>
    2678:	374aa683          	lw	a3,884(s5)
    267c:	370aa603          	lw	a2,880(s5)
    2680:	393040ef          	jal	ra,7212 <__subdf3>
    2684:	308050ef          	jal	ra,798c <__fixunsdfsi>
    2688:	5802                	lw	a6,32(sp)
    268a:	0542                	slli	a0,a0,0x10
    268c:	8141                	srli	a0,a0,0x10
    268e:	04944683          	lbu	a3,73(s0)
    2692:	5722                	lw	a4,40(sp)
    2694:	a6018793          	addi	a5,gp,-1440 # 20000450 <ComponentMeasureResult>
    2698:	01057b63          	bgeu	a0,a6,26ae <PM_MeasureBJT+0xc6e>
    269c:	b798                	sb	a4,9(a5)
    269e:	b7b4                	sb	a3,11(a5)
    26a0:	01079623          	sh	a6,12(a5)
    26a4:	418d8db3          	sub	s11,s11,s8
    26a8:	01b7a823          	sw	s11,16(a5)
    26ac:	b3bd                	j	241a <PM_MeasureBJT+0x9da>
    26ae:	b794                	sb	a3,9(a5)
    26b0:	b351                	j	2434 <PM_MeasureBJT+0x9f4>
    26b2:	d61a                	sw	t1,44(sp)
    26b4:	d43a                	sw	a4,40(sp)
    26b6:	75f000ef          	jal	ra,3614 <PM_ComponentDischarge>
    26ba:	03200513          	li	a0,50
    26be:	2b0030ef          	jal	ra,596e <Delay_Ms>
    26c2:	60890593          	addi	a1,s2,1544
    26c6:	04c00613          	li	a2,76
    26ca:	1808                	addi	a0,sp,48
    26cc:	16b050ef          	jal	ra,8036 <memcpy>
    26d0:	4601                	li	a2,0
    26d2:	4581                	li	a1,0
    26d4:	1808                	addi	a0,sp,48
    26d6:	077010ef          	jal	ra,3f4c <PM_MeasurePortInit>
    26da:	65498593          	addi	a1,s3,1620
    26de:	04c00613          	li	a2,76
    26e2:	1808                	addi	a0,sp,48
    26e4:	153050ef          	jal	ra,8036 <memcpy>
    26e8:	4601                	li	a2,0
    26ea:	4589                	li	a1,2
    26ec:	1808                	addi	a0,sp,48
    26ee:	05f010ef          	jal	ra,3f4c <PM_MeasurePortInit>
    26f2:	6a0a0593          	addi	a1,s4,1696
    26f6:	04c00613          	li	a2,76
    26fa:	1808                	addi	a0,sp,48
    26fc:	13b050ef          	jal	ra,8036 <memcpy>
    2700:	4605                	li	a2,1
    2702:	4585                	li	a1,1
    2704:	1808                	addi	a0,sp,48
    2706:	047010ef          	jal	ra,3f4c <PM_MeasurePortInit>
    270a:	03200513          	li	a0,50
    270e:	260030ef          	jal	ra,596e <Delay_Ms>
    2712:	461d                	li	a2,7
    2714:	45c1                	li	a1,16
    2716:	8562                	mv	a0,s8
    2718:	98aff0ef          	jal	ra,18a2 <PM_DMA_GetADCAverage>
    271c:	b0eff0ef          	jal	ra,1a2a <PM_ADCRealVol>
    2720:	461d                	li	a2,7
    2722:	45c1                	li	a1,16
    2724:	8daa                	mv	s11,a0
    2726:	8566                	mv	a0,s9
    2728:	97aff0ef          	jal	ra,18a2 <PM_DMA_GetADCAverage>
    272c:	afeff0ef          	jal	ra,1a2a <PM_ADCRealVol>
    2730:	8caa                	mv	s9,a0
    2732:	4028                	lw	a0,64(s0)
    2734:	7e0050ef          	jal	ra,7f14 <__extendsfdf2>
    2738:	0000b7b7          	lui	a5,0xb
    273c:	3587a603          	lw	a2,856(a5) # b358 <_read+0x23c>
    2740:	35c7a683          	lw	a3,860(a5)
    2744:	01b030ef          	jal	ra,5f5e <__adddf3>
    2748:	407c                	lw	a5,68(s0)
    274a:	cc2a                	sw	a0,24(sp)
    274c:	8566                	mv	a0,s9
    274e:	c03e                	sw	a5,0(sp)
    2750:	ce2e                	sw	a1,28(sp)
    2752:	306050ef          	jal	ra,7a58 <__floatunsidf>
    2756:	862a                	mv	a2,a0
    2758:	86ae                	mv	a3,a1
    275a:	360ba503          	lw	a0,864(s7)
    275e:	364ba583          	lw	a1,868(s7)
    2762:	2b1040ef          	jal	ra,7212 <__subdf3>
    2766:	d02a                	sw	a0,32(sp)
    2768:	4542                	lw	a0,16(sp)
    276a:	d22e                	sw	a1,36(sp)
    276c:	7a8050ef          	jal	ra,7f14 <__extendsfdf2>
    2770:	5802                	lw	a6,32(sp)
    2772:	5892                	lw	a7,36(sp)
    2774:	862a                	mv	a2,a0
    2776:	86ae                	mv	a3,a1
    2778:	8542                	mv	a0,a6
    277a:	85c6                	mv	a1,a7
    277c:	297040ef          	jal	ra,7212 <__subdf3>
    2780:	4662                	lw	a2,24(sp)
    2782:	46f2                	lw	a3,28(sp)
    2784:	5d6040ef          	jal	ra,6d5a <__muldf3>
    2788:	c82a                	sw	a0,16(sp)
    278a:	856e                	mv	a0,s11
    278c:	ca2e                	sw	a1,20(sp)
    278e:	6b8050ef          	jal	ra,7e46 <__floatunsisf>
    2792:	4582                	lw	a1,0(sp)
    2794:	32a050ef          	jal	ra,7abe <__subsf3>
    2798:	77c050ef          	jal	ra,7f14 <__extendsfdf2>
    279c:	4842                	lw	a6,16(sp)
    279e:	48d2                	lw	a7,20(sp)
    27a0:	862a                	mv	a2,a0
    27a2:	86ae                	mv	a3,a1
    27a4:	8542                	mv	a0,a6
    27a6:	85c6                	mv	a1,a7
    27a8:	6e7030ef          	jal	ra,668e <__divdf3>
    27ac:	c82a                	sw	a0,16(sp)
    27ae:	4522                	lw	a0,8(sp)
    27b0:	ca2e                	sw	a1,20(sp)
    27b2:	762050ef          	jal	ra,7f14 <__extendsfdf2>
    27b6:	48d2                	lw	a7,20(sp)
    27b8:	4842                	lw	a6,16(sp)
    27ba:	862a                	mv	a2,a0
    27bc:	86ae                	mv	a3,a1
    27be:	8542                	mv	a0,a6
    27c0:	85c6                	mv	a1,a7
    27c2:	251040ef          	jal	ra,7212 <__subdf3>
    27c6:	368b2603          	lw	a2,872(s6)
    27ca:	36cb2683          	lw	a3,876(s6)
    27ce:	6c1030ef          	jal	ra,668e <__divdf3>
    27d2:	374aa683          	lw	a3,884(s5)
    27d6:	370aa603          	lw	a2,880(s5)
    27da:	239040ef          	jal	ra,7212 <__subdf3>
    27de:	1ae050ef          	jal	ra,798c <__fixunsdfsi>
    27e2:	01051813          	slli	a6,a0,0x10
    27e6:	01085813          	srli	a6,a6,0x10
    27ea:	c442                	sw	a6,8(sp)
    27ec:	629000ef          	jal	ra,3614 <PM_ComponentDischarge>
    27f0:	03200513          	li	a0,50
    27f4:	17a030ef          	jal	ra,596e <Delay_Ms>
    27f8:	6a0a0593          	addi	a1,s4,1696
    27fc:	04c00613          	li	a2,76
    2800:	1808                	addi	a0,sp,48
    2802:	035050ef          	jal	ra,8036 <memcpy>
    2806:	4601                	li	a2,0
    2808:	4581                	li	a1,0
    280a:	1808                	addi	a0,sp,48
    280c:	740010ef          	jal	ra,3f4c <PM_MeasurePortInit>
    2810:	65498593          	addi	a1,s3,1620
    2814:	04c00613          	li	a2,76
    2818:	1808                	addi	a0,sp,48
    281a:	01d050ef          	jal	ra,8036 <memcpy>
    281e:	4601                	li	a2,0
    2820:	4589                	li	a1,2
    2822:	1808                	addi	a0,sp,48
    2824:	728010ef          	jal	ra,3f4c <PM_MeasurePortInit>
    2828:	60890593          	addi	a1,s2,1544
    282c:	04c00613          	li	a2,76
    2830:	1808                	addi	a0,sp,48
    2832:	005050ef          	jal	ra,8036 <memcpy>
    2836:	4605                	li	a2,1
    2838:	4585                	li	a1,1
    283a:	1808                	addi	a0,sp,48
    283c:	710010ef          	jal	ra,3f4c <PM_MeasurePortInit>
    2840:	03200513          	li	a0,50
    2844:	12a030ef          	jal	ra,596e <Delay_Ms>
    2848:	461d                	li	a2,7
    284a:	45c1                	li	a1,16
    284c:	8562                	mv	a0,s8
    284e:	854ff0ef          	jal	ra,18a2 <PM_DMA_GetADCAverage>
    2852:	9d8ff0ef          	jal	ra,1a2a <PM_ADCRealVol>
    2856:	461d                	li	a2,7
    2858:	45c1                	li	a1,16
    285a:	842a                	mv	s0,a0
    285c:	856a                	mv	a0,s10
    285e:	844ff0ef          	jal	ra,18a2 <PM_DMA_GetADCAverage>
    2862:	9c8ff0ef          	jal	ra,1a2a <PM_ADCRealVol>
    2866:	8a2a                	mv	s4,a0
    2868:	1f0050ef          	jal	ra,7a58 <__floatunsidf>
    286c:	862a                	mv	a2,a0
    286e:	86ae                	mv	a3,a1
    2870:	360ba503          	lw	a0,864(s7)
    2874:	364ba583          	lw	a1,868(s7)
    2878:	19b040ef          	jal	ra,7212 <__subdf3>
    287c:	892a                	mv	s2,a0
    287e:	50c8                	lw	a0,36(s1)
    2880:	89ae                	mv	s3,a1
    2882:	692050ef          	jal	ra,7f14 <__extendsfdf2>
    2886:	862a                	mv	a2,a0
    2888:	86ae                	mv	a3,a1
    288a:	854a                	mv	a0,s2
    288c:	85ce                	mv	a1,s3
    288e:	185040ef          	jal	ra,7212 <__subdf3>
    2892:	4662                	lw	a2,24(sp)
    2894:	46f2                	lw	a3,28(sp)
    2896:	4c4040ef          	jal	ra,6d5a <__muldf3>
    289a:	892a                	mv	s2,a0
    289c:	8522                	mv	a0,s0
    289e:	89ae                	mv	s3,a1
    28a0:	5a6050ef          	jal	ra,7e46 <__floatunsisf>
    28a4:	4582                	lw	a1,0(sp)
    28a6:	218050ef          	jal	ra,7abe <__subsf3>
    28aa:	66a050ef          	jal	ra,7f14 <__extendsfdf2>
    28ae:	862a                	mv	a2,a0
    28b0:	86ae                	mv	a3,a1
    28b2:	854a                	mv	a0,s2
    28b4:	85ce                	mv	a1,s3
    28b6:	5d9030ef          	jal	ra,668e <__divdf3>
    28ba:	892a                	mv	s2,a0
    28bc:	5088                	lw	a0,32(s1)
    28be:	89ae                	mv	s3,a1
    28c0:	654050ef          	jal	ra,7f14 <__extendsfdf2>
    28c4:	862a                	mv	a2,a0
    28c6:	86ae                	mv	a3,a1
    28c8:	854a                	mv	a0,s2
    28ca:	85ce                	mv	a1,s3
    28cc:	147040ef          	jal	ra,7212 <__subdf3>
    28d0:	368b2603          	lw	a2,872(s6)
    28d4:	36cb2683          	lw	a3,876(s6)
    28d8:	5b7030ef          	jal	ra,668e <__divdf3>
    28dc:	370aa603          	lw	a2,880(s5)
    28e0:	374aa683          	lw	a3,884(s5)
    28e4:	12f040ef          	jal	ra,7212 <__subdf3>
    28e8:	0a4050ef          	jal	ra,798c <__fixunsdfsi>
    28ec:	4822                	lw	a6,8(sp)
    28ee:	0542                	slli	a0,a0,0x10
    28f0:	8141                	srli	a0,a0,0x10
    28f2:	5722                	lw	a4,40(sp)
    28f4:	5332                	lw	t1,44(sp)
    28f6:	a6018793          	addi	a5,gp,-1440 # 20000450 <ComponentMeasureResult>
    28fa:	01057a63          	bgeu	a0,a6,290e <PM_MeasureBJT+0xece>
    28fe:	006784a3          	sb	t1,9(a5)
    2902:	b7b8                	sb	a4,11(a5)
    2904:	01079623          	sh	a6,12(a5)
    2908:	419d8db3          	sub	s11,s11,s9
    290c:	bb71                	j	26a8 <PM_MeasureBJT+0xc68>
    290e:	41440433          	sub	s0,s0,s4
    2912:	b798                	sb	a4,9(a5)
    2914:	006785a3          	sb	t1,11(a5)
    2918:	a7ca                	sh	a0,12(a5)
    291a:	cb80                	sw	s0,16(a5)
    291c:	bcfd                	j	241a <PM_MeasureBJT+0x9da>
    291e:	4901                	li	s2,0
    2920:	bb4ff06f          	j	1cd4 <PM_MeasureBJT+0x294>

00002924 <PM_CheckIsCapacitor>:
    2924:	8e5fd2ef          	jal	t0,208 <__riscv_save_10>
    2928:	715d                	addi	sp,sp,-80
    292a:	4eb000ef          	jal	ra,3614 <PM_ComponentDischarge>
    292e:	03200513          	li	a0,50
    2932:	03c030ef          	jal	ra,596e <Delay_Ms>
    2936:	692d                	lui	s2,0xb
    2938:	04c00613          	li	a2,76
    293c:	6a090593          	addi	a1,s2,1696 # b6a0 <PortGroup_3>
    2940:	850a                	mv	a0,sp
    2942:	6f4050ef          	jal	ra,8036 <memcpy>
    2946:	4601                	li	a2,0
    2948:	458d                	li	a1,3
    294a:	850a                	mv	a0,sp
    294c:	600010ef          	jal	ra,3f4c <PM_MeasurePortInit>
    2950:	64ad                	lui	s1,0xb
    2952:	04c00613          	li	a2,76
    2956:	65448593          	addi	a1,s1,1620 # b654 <PortGroup_2>
    295a:	850a                	mv	a0,sp
    295c:	6da050ef          	jal	ra,8036 <memcpy>
    2960:	4601                	li	a2,0
    2962:	4589                	li	a1,2
    2964:	850a                	mv	a0,sp
    2966:	5e6010ef          	jal	ra,3f4c <PM_MeasurePortInit>
    296a:	642d                	lui	s0,0xb
    296c:	04c00613          	li	a2,76
    2970:	60840593          	addi	a1,s0,1544 # b608 <PortGroup_1>
    2974:	850a                	mv	a0,sp
    2976:	6c0050ef          	jal	ra,8036 <memcpy>
    297a:	4605                	li	a2,1
    297c:	4581                	li	a1,0
    297e:	850a                	mv	a0,sp
    2980:	65448a13          	addi	s4,s1,1620
    2984:	5c8010ef          	jal	ra,3f4c <PM_MeasurePortInit>
    2988:	048a4b83          	lbu	s7,72(s4)
    298c:	459d                	li	a1,7
    298e:	60840b13          	addi	s6,s0,1544
    2992:	855e                	mv	a0,s7
    2994:	ec5fe0ef          	jal	ra,1858 <PM_GetADC>
    2998:	892ff0ef          	jal	ra,1a2a <PM_ADCRealVol>
    299c:	8c2a                	mv	s8,a0
    299e:	04c00613          	li	a2,76
    29a2:	65448593          	addi	a1,s1,1620
    29a6:	850a                	mv	a0,sp
    29a8:	68e050ef          	jal	ra,8036 <memcpy>
    29ac:	4601                	li	a2,0
    29ae:	4581                	li	a1,0
    29b0:	850a                	mv	a0,sp
    29b2:	59a010ef          	jal	ra,3f4c <PM_MeasurePortInit>
    29b6:	03200513          	li	a0,50
    29ba:	7b5020ef          	jal	ra,596e <Delay_Ms>
    29be:	04c00613          	li	a2,76
    29c2:	60840593          	addi	a1,s0,1544
    29c6:	850a                	mv	a0,sp
    29c8:	66e050ef          	jal	ra,8036 <memcpy>
    29cc:	4601                	li	a2,0
    29ce:	4589                	li	a1,2
    29d0:	850a                	mv	a0,sp
    29d2:	57a010ef          	jal	ra,3f4c <PM_MeasurePortInit>
    29d6:	03c00513          	li	a0,60
    29da:	75f020ef          	jal	ra,5938 <Delay_Us>
    29de:	048b4983          	lbu	s3,72(s6)
    29e2:	459d                	li	a1,7
    29e4:	65448d13          	addi	s10,s1,1620
    29e8:	854e                	mv	a0,s3
    29ea:	e6ffe0ef          	jal	ra,1858 <PM_GetADC>
    29ee:	83cff0ef          	jal	ra,1a2a <PM_ADCRealVol>
    29f2:	862a                	mv	a2,a0
    29f4:	8caa                	mv	s9,a0
    29f6:	0000b537          	lui	a0,0xb
    29fa:	85e2                	mv	a1,s8
    29fc:	39050513          	addi	a0,a0,912 # b390 <_read+0x274>
    2a00:	0ca060ef          	jal	ra,8aca <iprintf>
    2a04:	1f400793          	li	a5,500
    2a08:	60840a93          	addi	s5,s0,1544
    2a0c:	0387f363          	bgeu	a5,s8,2a32 <PM_CheckIsCapacitor+0x10e>
    2a10:	0397f163          	bgeu	a5,s9,2a32 <PM_CheckIsCapacitor+0x10e>
    2a14:	4709                	li	a4,2
    2a16:	a6e1a023          	sw	a4,-1440(gp) # 20000450 <ComponentMeasureResult>
    2a1a:	049b4703          	lbu	a4,73(s6)
    2a1e:	a6018793          	addi	a5,gp,-1440 # 20000450 <ComponentMeasureResult>
    2a22:	a798                	sb	a4,8(a5)
    2a24:	049a4703          	lbu	a4,73(s4)
    2a28:	b798                	sb	a4,9(a5)
    2a2a:	4505                	li	a0,1
    2a2c:	6161                	addi	sp,sp,80
    2a2e:	813fd06f          	j	240 <__riscv_restore_10>
    2a32:	3e3000ef          	jal	ra,3614 <PM_ComponentDischarge>
    2a36:	03200513          	li	a0,50
    2a3a:	735020ef          	jal	ra,596e <Delay_Ms>
    2a3e:	04c00613          	li	a2,76
    2a42:	60840593          	addi	a1,s0,1544
    2a46:	850a                	mv	a0,sp
    2a48:	5ee050ef          	jal	ra,8036 <memcpy>
    2a4c:	4601                	li	a2,0
    2a4e:	458d                	li	a1,3
    2a50:	850a                	mv	a0,sp
    2a52:	4fa010ef          	jal	ra,3f4c <PM_MeasurePortInit>
    2a56:	04c00613          	li	a2,76
    2a5a:	6a090593          	addi	a1,s2,1696
    2a5e:	850a                	mv	a0,sp
    2a60:	5d6050ef          	jal	ra,8036 <memcpy>
    2a64:	4601                	li	a2,0
    2a66:	4589                	li	a1,2
    2a68:	850a                	mv	a0,sp
    2a6a:	4e2010ef          	jal	ra,3f4c <PM_MeasurePortInit>
    2a6e:	04c00613          	li	a2,76
    2a72:	65448593          	addi	a1,s1,1620
    2a76:	850a                	mv	a0,sp
    2a78:	5be050ef          	jal	ra,8036 <memcpy>
    2a7c:	4605                	li	a2,1
    2a7e:	4581                	li	a1,0
    2a80:	850a                	mv	a0,sp
    2a82:	6a090b13          	addi	s6,s2,1696
    2a86:	4c6010ef          	jal	ra,3f4c <PM_MeasurePortInit>
    2a8a:	048b4a03          	lbu	s4,72(s6)
    2a8e:	459d                	li	a1,7
    2a90:	8552                	mv	a0,s4
    2a92:	dc7fe0ef          	jal	ra,1858 <PM_GetADC>
    2a96:	f95fe0ef          	jal	ra,1a2a <PM_ADCRealVol>
    2a9a:	8c2a                	mv	s8,a0
    2a9c:	04c00613          	li	a2,76
    2aa0:	6a090593          	addi	a1,s2,1696
    2aa4:	850a                	mv	a0,sp
    2aa6:	590050ef          	jal	ra,8036 <memcpy>
    2aaa:	4601                	li	a2,0
    2aac:	4581                	li	a1,0
    2aae:	850a                	mv	a0,sp
    2ab0:	49c010ef          	jal	ra,3f4c <PM_MeasurePortInit>
    2ab4:	03200513          	li	a0,50
    2ab8:	6b7020ef          	jal	ra,596e <Delay_Ms>
    2abc:	04c00613          	li	a2,76
    2ac0:	65448593          	addi	a1,s1,1620
    2ac4:	850a                	mv	a0,sp
    2ac6:	570050ef          	jal	ra,8036 <memcpy>
    2aca:	4601                	li	a2,0
    2acc:	4589                	li	a1,2
    2ace:	850a                	mv	a0,sp
    2ad0:	47c010ef          	jal	ra,3f4c <PM_MeasurePortInit>
    2ad4:	03c00513          	li	a0,60
    2ad8:	661020ef          	jal	ra,5938 <Delay_Us>
    2adc:	459d                	li	a1,7
    2ade:	855e                	mv	a0,s7
    2ae0:	d79fe0ef          	jal	ra,1858 <PM_GetADC>
    2ae4:	f47fe0ef          	jal	ra,1a2a <PM_ADCRealVol>
    2ae8:	862a                	mv	a2,a0
    2aea:	8baa                	mv	s7,a0
    2aec:	0000b537          	lui	a0,0xb
    2af0:	85e2                	mv	a1,s8
    2af2:	3a050513          	addi	a0,a0,928 # b3a0 <_read+0x284>
    2af6:	7d5050ef          	jal	ra,8aca <iprintf>
    2afa:	1f400793          	li	a5,500
    2afe:	0187ff63          	bgeu	a5,s8,2b1c <PM_CheckIsCapacitor+0x1f8>
    2b02:	0177fd63          	bgeu	a5,s7,2b1c <PM_CheckIsCapacitor+0x1f8>
    2b06:	4709                	li	a4,2
    2b08:	a6e1a023          	sw	a4,-1440(gp) # 20000450 <ComponentMeasureResult>
    2b0c:	049d4703          	lbu	a4,73(s10)
    2b10:	a6018793          	addi	a5,gp,-1440 # 20000450 <ComponentMeasureResult>
    2b14:	a798                	sb	a4,8(a5)
    2b16:	049b4703          	lbu	a4,73(s6)
    2b1a:	b739                	j	2a28 <PM_CheckIsCapacitor+0x104>
    2b1c:	2f9000ef          	jal	ra,3614 <PM_ComponentDischarge>
    2b20:	03200513          	li	a0,50
    2b24:	64b020ef          	jal	ra,596e <Delay_Ms>
    2b28:	65448593          	addi	a1,s1,1620
    2b2c:	04c00613          	li	a2,76
    2b30:	850a                	mv	a0,sp
    2b32:	504050ef          	jal	ra,8036 <memcpy>
    2b36:	4601                	li	a2,0
    2b38:	458d                	li	a1,3
    2b3a:	850a                	mv	a0,sp
    2b3c:	410010ef          	jal	ra,3f4c <PM_MeasurePortInit>
    2b40:	04c00613          	li	a2,76
    2b44:	6a090593          	addi	a1,s2,1696
    2b48:	850a                	mv	a0,sp
    2b4a:	4ec050ef          	jal	ra,8036 <memcpy>
    2b4e:	4601                	li	a2,0
    2b50:	4589                	li	a1,2
    2b52:	850a                	mv	a0,sp
    2b54:	3f8010ef          	jal	ra,3f4c <PM_MeasurePortInit>
    2b58:	60840593          	addi	a1,s0,1544
    2b5c:	04c00613          	li	a2,76
    2b60:	850a                	mv	a0,sp
    2b62:	4d4050ef          	jal	ra,8036 <memcpy>
    2b66:	4605                	li	a2,1
    2b68:	4581                	li	a1,0
    2b6a:	850a                	mv	a0,sp
    2b6c:	3e0010ef          	jal	ra,3f4c <PM_MeasurePortInit>
    2b70:	459d                	li	a1,7
    2b72:	8552                	mv	a0,s4
    2b74:	ce5fe0ef          	jal	ra,1858 <PM_GetADC>
    2b78:	eb3fe0ef          	jal	ra,1a2a <PM_ADCRealVol>
    2b7c:	84aa                	mv	s1,a0
    2b7e:	04c00613          	li	a2,76
    2b82:	6a090593          	addi	a1,s2,1696
    2b86:	850a                	mv	a0,sp
    2b88:	4ae050ef          	jal	ra,8036 <memcpy>
    2b8c:	4601                	li	a2,0
    2b8e:	4581                	li	a1,0
    2b90:	850a                	mv	a0,sp
    2b92:	3ba010ef          	jal	ra,3f4c <PM_MeasurePortInit>
    2b96:	03200513          	li	a0,50
    2b9a:	5d5020ef          	jal	ra,596e <Delay_Ms>
    2b9e:	60840593          	addi	a1,s0,1544
    2ba2:	04c00613          	li	a2,76
    2ba6:	850a                	mv	a0,sp
    2ba8:	48e050ef          	jal	ra,8036 <memcpy>
    2bac:	4601                	li	a2,0
    2bae:	4589                	li	a1,2
    2bb0:	850a                	mv	a0,sp
    2bb2:	39a010ef          	jal	ra,3f4c <PM_MeasurePortInit>
    2bb6:	03c00513          	li	a0,60
    2bba:	57f020ef          	jal	ra,5938 <Delay_Us>
    2bbe:	459d                	li	a1,7
    2bc0:	854e                	mv	a0,s3
    2bc2:	c97fe0ef          	jal	ra,1858 <PM_GetADC>
    2bc6:	e65fe0ef          	jal	ra,1a2a <PM_ADCRealVol>
    2bca:	862a                	mv	a2,a0
    2bcc:	842a                	mv	s0,a0
    2bce:	0000b537          	lui	a0,0xb
    2bd2:	85a6                	mv	a1,s1
    2bd4:	3b050513          	addi	a0,a0,944 # b3b0 <_read+0x294>
    2bd8:	6f3050ef          	jal	ra,8aca <iprintf>
    2bdc:	1f400793          	li	a5,500
    2be0:	4501                	li	a0,0
    2be2:	e497f5e3          	bgeu	a5,s1,2a2c <PM_CheckIsCapacitor+0x108>
    2be6:	e487f3e3          	bgeu	a5,s0,2a2c <PM_CheckIsCapacitor+0x108>
    2bea:	4709                	li	a4,2
    2bec:	a6e1a023          	sw	a4,-1440(gp) # 20000450 <ComponentMeasureResult>
    2bf0:	049ac703          	lbu	a4,73(s5)
    2bf4:	a6018793          	addi	a5,gp,-1440 # 20000450 <ComponentMeasureResult>
    2bf8:	a798                	sb	a4,8(a5)
    2bfa:	672d                	lui	a4,0xb
    2bfc:	6a070713          	addi	a4,a4,1696 # b6a0 <PortGroup_3>
    2c00:	04974703          	lbu	a4,73(a4)
    2c04:	b515                	j	2a28 <PM_CheckIsCapacitor+0x104>

00002c06 <PM_MeasureCapacitor>:
    2c06:	e10fd2ef          	jal	t0,216 <__riscv_save_4>
    2c0a:	a6018793          	addi	a5,gp,-1440 # 20000450 <ComponentMeasureResult>
    2c0e:	279e                	lhu	a5,8(a5)
    2c10:	30100713          	li	a4,769
    2c14:	711d                	addi	sp,sp,-96
    2c16:	a6018413          	addi	s0,gp,-1440 # 20000450 <ComponentMeasureResult>
    2c1a:	0ae79963          	bne	a5,a4,2ccc <PM_MeasureCapacitor+0xc6>
    2c1e:	1f7000ef          	jal	ra,3614 <PM_ComponentDischarge>
    2c22:	03200513          	li	a0,50
    2c26:	549020ef          	jal	ra,596e <Delay_Ms>
    2c2a:	65ad                	lui	a1,0xb
    2c2c:	04c00613          	li	a2,76
    2c30:	65458593          	addi	a1,a1,1620 # b654 <PortGroup_2>
    2c34:	850a                	mv	a0,sp
    2c36:	400050ef          	jal	ra,8036 <memcpy>
    2c3a:	4601                	li	a2,0
    2c3c:	458d                	li	a1,3
    2c3e:	850a                	mv	a0,sp
    2c40:	30c010ef          	jal	ra,3f4c <PM_MeasurePortInit>
    2c44:	65ad                	lui	a1,0xb
    2c46:	04c00613          	li	a2,76
    2c4a:	6a058593          	addi	a1,a1,1696 # b6a0 <PortGroup_3>
    2c4e:	850a                	mv	a0,sp
    2c50:	3e6050ef          	jal	ra,8036 <memcpy>
    2c54:	4601                	li	a2,0
    2c56:	4581                	li	a1,0
    2c58:	850a                	mv	a0,sp
    2c5a:	2f2010ef          	jal	ra,3f4c <PM_MeasurePortInit>
    2c5e:	692d                	lui	s2,0xb
    2c60:	60890593          	addi	a1,s2,1544 # b608 <PortGroup_1>
    2c64:	04c00613          	li	a2,76
    2c68:	850a                	mv	a0,sp
    2c6a:	3cc050ef          	jal	ra,8036 <memcpy>
    2c6e:	4605                	li	a2,1
    2c70:	4589                	li	a1,2
    2c72:	850a                	mv	a0,sp
    2c74:	2d8010ef          	jal	ra,3f4c <PM_MeasurePortInit>
    2c78:	60890913          	addi	s2,s2,1544
    2c7c:	4585                	li	a1,1
    2c7e:	40000537          	lui	a0,0x40000
    2c82:	987fe0ef          	jal	ra,1608 <TIM_Cmd>
    2c86:	6985                	lui	s3,0x1
    2c88:	04894a83          	lbu	s5,72(s2)
    2c8c:	690d                	lui	s2,0x3
    2c8e:	4481                	li	s1,0
    2c90:	ed898993          	addi	s3,s3,-296 # ed8 <EXTI_Init+0x28>
    2c94:	2c890913          	addi	s2,s2,712 # 32c8 <PM_MeasureDiode+0x438>
    2c98:	08f4                	addi	a3,sp,92
    2c9a:	05a10613          	addi	a2,sp,90
    2c9e:	4585                	li	a1,1
    2ca0:	8556                	mv	a0,s5
    2ca2:	cc7fe0ef          	jal	ra,1968 <PM_DMA_GetADCAverage_ForCAP>
    2ca6:	8a2a                	mv	s4,a0
    2ca8:	00a9e563          	bltu	s3,a0,2cb2 <PM_MeasureCapacitor+0xac>
    2cac:	0485                	addi	s1,s1,1
    2cae:	ff2495e3          	bne	s1,s2,2c98 <PM_MeasureCapacitor+0x92>
    2cb2:	4581                	li	a1,0
    2cb4:	40000537          	lui	a0,0x40000
    2cb8:	951fe0ef          	jal	ra,1608 <TIM_Cmd>
    2cbc:	58e020ef          	jal	ra,524a <PM_TimerCountClear>
    2cc0:	14049463          	bnez	s1,2e08 <PM_MeasureCapacitor+0x202>
    2cc4:	4501                	li	a0,0
    2cc6:	6125                	addi	sp,sp,96
    2cc8:	d82fd06f          	j	24a <__riscv_restore_4>
    2ccc:	20100713          	li	a4,513
    2cd0:	08e79d63          	bne	a5,a4,2d6a <PM_MeasureCapacitor+0x164>
    2cd4:	141000ef          	jal	ra,3614 <PM_ComponentDischarge>
    2cd8:	03200513          	li	a0,50
    2cdc:	493020ef          	jal	ra,596e <Delay_Ms>
    2ce0:	65ad                	lui	a1,0xb
    2ce2:	04c00613          	li	a2,76
    2ce6:	6a058593          	addi	a1,a1,1696 # b6a0 <PortGroup_3>
    2cea:	850a                	mv	a0,sp
    2cec:	34a050ef          	jal	ra,8036 <memcpy>
    2cf0:	4601                	li	a2,0
    2cf2:	458d                	li	a1,3
    2cf4:	850a                	mv	a0,sp
    2cf6:	256010ef          	jal	ra,3f4c <PM_MeasurePortInit>
    2cfa:	65ad                	lui	a1,0xb
    2cfc:	04c00613          	li	a2,76
    2d00:	65458593          	addi	a1,a1,1620 # b654 <PortGroup_2>
    2d04:	850a                	mv	a0,sp
    2d06:	330050ef          	jal	ra,8036 <memcpy>
    2d0a:	4601                	li	a2,0
    2d0c:	4581                	li	a1,0
    2d0e:	850a                	mv	a0,sp
    2d10:	23c010ef          	jal	ra,3f4c <PM_MeasurePortInit>
    2d14:	692d                	lui	s2,0xb
    2d16:	60890593          	addi	a1,s2,1544 # b608 <PortGroup_1>
    2d1a:	04c00613          	li	a2,76
    2d1e:	850a                	mv	a0,sp
    2d20:	316050ef          	jal	ra,8036 <memcpy>
    2d24:	4605                	li	a2,1
    2d26:	4589                	li	a1,2
    2d28:	850a                	mv	a0,sp
    2d2a:	222010ef          	jal	ra,3f4c <PM_MeasurePortInit>
    2d2e:	60890913          	addi	s2,s2,1544
    2d32:	4585                	li	a1,1
    2d34:	40000537          	lui	a0,0x40000
    2d38:	8d1fe0ef          	jal	ra,1608 <TIM_Cmd>
    2d3c:	6985                	lui	s3,0x1
    2d3e:	04894a83          	lbu	s5,72(s2)
    2d42:	690d                	lui	s2,0x3
    2d44:	4481                	li	s1,0
    2d46:	ed898993          	addi	s3,s3,-296 # ed8 <EXTI_Init+0x28>
    2d4a:	2c890913          	addi	s2,s2,712 # 32c8 <PM_MeasureDiode+0x438>
    2d4e:	08f4                	addi	a3,sp,92
    2d50:	05a10613          	addi	a2,sp,90
    2d54:	4585                	li	a1,1
    2d56:	8556                	mv	a0,s5
    2d58:	c11fe0ef          	jal	ra,1968 <PM_DMA_GetADCAverage_ForCAP>
    2d5c:	8a2a                	mv	s4,a0
    2d5e:	f4a9eae3          	bltu	s3,a0,2cb2 <PM_MeasureCapacitor+0xac>
    2d62:	0485                	addi	s1,s1,1
    2d64:	ff2495e3          	bne	s1,s2,2d4e <PM_MeasureCapacitor+0x148>
    2d68:	b7a9                	j	2cb2 <PM_MeasureCapacitor+0xac>
    2d6a:	30200713          	li	a4,770
    2d6e:	f4e79be3          	bne	a5,a4,2cc4 <PM_MeasureCapacitor+0xbe>
    2d72:	0a3000ef          	jal	ra,3614 <PM_ComponentDischarge>
    2d76:	03200513          	li	a0,50
    2d7a:	3f5020ef          	jal	ra,596e <Delay_Ms>
    2d7e:	65ad                	lui	a1,0xb
    2d80:	04c00613          	li	a2,76
    2d84:	60858593          	addi	a1,a1,1544 # b608 <PortGroup_1>
    2d88:	850a                	mv	a0,sp
    2d8a:	2ac050ef          	jal	ra,8036 <memcpy>
    2d8e:	4601                	li	a2,0
    2d90:	458d                	li	a1,3
    2d92:	850a                	mv	a0,sp
    2d94:	1b8010ef          	jal	ra,3f4c <PM_MeasurePortInit>
    2d98:	65ad                	lui	a1,0xb
    2d9a:	04c00613          	li	a2,76
    2d9e:	6a058593          	addi	a1,a1,1696 # b6a0 <PortGroup_3>
    2da2:	850a                	mv	a0,sp
    2da4:	292050ef          	jal	ra,8036 <memcpy>
    2da8:	4601                	li	a2,0
    2daa:	4581                	li	a1,0
    2dac:	850a                	mv	a0,sp
    2dae:	19e010ef          	jal	ra,3f4c <PM_MeasurePortInit>
    2db2:	692d                	lui	s2,0xb
    2db4:	65490593          	addi	a1,s2,1620 # b654 <PortGroup_2>
    2db8:	04c00613          	li	a2,76
    2dbc:	850a                	mv	a0,sp
    2dbe:	278050ef          	jal	ra,8036 <memcpy>
    2dc2:	4605                	li	a2,1
    2dc4:	4589                	li	a1,2
    2dc6:	850a                	mv	a0,sp
    2dc8:	184010ef          	jal	ra,3f4c <PM_MeasurePortInit>
    2dcc:	65490913          	addi	s2,s2,1620
    2dd0:	4585                	li	a1,1
    2dd2:	40000537          	lui	a0,0x40000
    2dd6:	833fe0ef          	jal	ra,1608 <TIM_Cmd>
    2dda:	6985                	lui	s3,0x1
    2ddc:	04894a83          	lbu	s5,72(s2)
    2de0:	690d                	lui	s2,0x3
    2de2:	4481                	li	s1,0
    2de4:	ed898993          	addi	s3,s3,-296 # ed8 <EXTI_Init+0x28>
    2de8:	2c890913          	addi	s2,s2,712 # 32c8 <PM_MeasureDiode+0x438>
    2dec:	08f4                	addi	a3,sp,92
    2dee:	05a10613          	addi	a2,sp,90
    2df2:	4585                	li	a1,1
    2df4:	8556                	mv	a0,s5
    2df6:	b73fe0ef          	jal	ra,1968 <PM_DMA_GetADCAverage_ForCAP>
    2dfa:	8a2a                	mv	s4,a0
    2dfc:	eaa9ebe3          	bltu	s3,a0,2cb2 <PM_MeasureCapacitor+0xac>
    2e00:	0485                	addi	s1,s1,1
    2e02:	ff2495e3          	bne	s1,s2,2dec <PM_MeasureCapacitor+0x1e6>
    2e06:	b575                	j	2cb2 <PM_MeasureCapacitor+0xac>
    2e08:	8552                	mv	a0,s4
    2e0a:	c21fe0ef          	jal	ra,1a2a <PM_ADCRealVol>
    2e0e:	84aa                	mv	s1,a0
    2e10:	45f6                	lw	a1,92(sp)
    2e12:	05a15503          	lhu	a0,90(sp)
    2e16:	412020ef          	jal	ra,5228 <PM_TimerCountTimeNS>
    2e1a:	892a                	mv	s2,a0
    2e1c:	8526                	mv	a0,s1
    2e1e:	43b040ef          	jal	ra,7a58 <__floatunsidf>
    2e22:	0000b4b7          	lui	s1,0xb
    2e26:	862a                	mv	a2,a0
    2e28:	86ae                	mv	a3,a1
    2e2a:	3604a503          	lw	a0,864(s1) # b360 <_read+0x244>
    2e2e:	3644a583          	lw	a1,868(s1)
    2e32:	3e0040ef          	jal	ra,7212 <__subdf3>
    2e36:	862a                	mv	a2,a0
    2e38:	86ae                	mv	a3,a1
    2e3a:	3604a503          	lw	a0,864(s1)
    2e3e:	3644a583          	lw	a1,868(s1)
    2e42:	04d030ef          	jal	ra,668e <__divdf3>
    2e46:	41d020ef          	jal	ra,5a62 <log>
    2e4a:	8a2a                	mv	s4,a0
    2e4c:	854a                	mv	a0,s2
    2e4e:	8aae                	mv	s5,a1
    2e50:	409040ef          	jal	ra,7a58 <__floatunsidf>
    2e54:	0000b7b7          	lui	a5,0xb
    2e58:	3587a603          	lw	a2,856(a5) # b358 <_read+0x23c>
    2e5c:	35c7a683          	lw	a3,860(a5)
    2e60:	892a                	mv	s2,a0
    2e62:	89ae                	mv	s3,a1
    2e64:	8552                	mv	a0,s4
    2e66:	85d6                	mv	a1,s5
    2e68:	6f3030ef          	jal	ra,6d5a <__muldf3>
    2e6c:	862a                	mv	a2,a0
    2e6e:	86ae                	mv	a3,a1
    2e70:	854a                	mv	a0,s2
    2e72:	85ce                	mv	a1,s3
    2e74:	01b030ef          	jal	ra,668e <__divdf3>
    2e78:	862a                	mv	a2,a0
    2e7a:	c808                	sw	a0,16(s0)
    2e7c:	0000b537          	lui	a0,0xb
    2e80:	86ae                	mv	a3,a1
    2e82:	3c050513          	addi	a0,a0,960 # b3c0 <_read+0x2a4>
    2e86:	c84c                	sw	a1,20(s0)
    2e88:	443050ef          	jal	ra,8aca <iprintf>
    2e8c:	4505                	li	a0,1
    2e8e:	bd25                	j	2cc6 <PM_MeasureCapacitor+0xc0>

00002e90 <PM_MeasureDiode>:
    2e90:	b86fd2ef          	jal	t0,216 <__riscv_save_4>
    2e94:	a6018793          	addi	a5,gp,-1440 # 20000450 <ComponentMeasureResult>
    2e98:	279e                	lhu	a5,8(a5)
    2e9a:	30100713          	li	a4,769
    2e9e:	711d                	addi	sp,sp,-96
    2ea0:	a6018413          	addi	s0,gp,-1440 # 20000450 <ComponentMeasureResult>
    2ea4:	1ce79163          	bne	a5,a4,3066 <PM_MeasureDiode+0x1d6>
    2ea8:	6a2d                	lui	s4,0xb
    2eaa:	04c00613          	li	a2,76
    2eae:	654a0593          	addi	a1,s4,1620 # b654 <PortGroup_2>
    2eb2:	850a                	mv	a0,sp
    2eb4:	182050ef          	jal	ra,8036 <memcpy>
    2eb8:	4601                	li	a2,0
    2eba:	458d                	li	a1,3
    2ebc:	850a                	mv	a0,sp
    2ebe:	08e010ef          	jal	ra,3f4c <PM_MeasurePortInit>
    2ec2:	692d                	lui	s2,0xb
    2ec4:	6a090593          	addi	a1,s2,1696 # b6a0 <PortGroup_3>
    2ec8:	04c00613          	li	a2,76
    2ecc:	850a                	mv	a0,sp
    2ece:	168050ef          	jal	ra,8036 <memcpy>
    2ed2:	4601                	li	a2,0
    2ed4:	4585                	li	a1,1
    2ed6:	850a                	mv	a0,sp
    2ed8:	074010ef          	jal	ra,3f4c <PM_MeasurePortInit>
    2edc:	69ad                	lui	s3,0xb
    2ede:	60898593          	addi	a1,s3,1544 # b608 <PortGroup_1>
    2ee2:	04c00613          	li	a2,76
    2ee6:	850a                	mv	a0,sp
    2ee8:	14e050ef          	jal	ra,8036 <memcpy>
    2eec:	4605                	li	a2,1
    2eee:	4585                	li	a1,1
    2ef0:	850a                	mv	a0,sp
    2ef2:	05a010ef          	jal	ra,3f4c <PM_MeasurePortInit>
    2ef6:	03200513          	li	a0,50
    2efa:	275020ef          	jal	ra,596e <Delay_Ms>
    2efe:	60898493          	addi	s1,s3,1544
    2f02:	0484c503          	lbu	a0,72(s1)
    2f06:	461d                	li	a2,7
    2f08:	45c1                	li	a1,16
    2f0a:	999fe0ef          	jal	ra,18a2 <PM_DMA_GetADCAverage>
    2f0e:	6a090a93          	addi	s5,s2,1696
    2f12:	b19fe0ef          	jal	ra,1a2a <PM_ADCRealVol>
    2f16:	048aca83          	lbu	s5,72(s5)
    2f1a:	461d                	li	a2,7
    2f1c:	84aa                	mv	s1,a0
    2f1e:	45c1                	li	a1,16
    2f20:	8556                	mv	a0,s5
    2f22:	981fe0ef          	jal	ra,18a2 <PM_DMA_GetADCAverage>
    2f26:	b05fe0ef          	jal	ra,1a2a <PM_ADCRealVol>
    2f2a:	40a485b3          	sub	a1,s1,a0
    2f2e:	0000b537          	lui	a0,0xb
    2f32:	3d850513          	addi	a0,a0,984 # b3d8 <_read+0x2bc>
    2f36:	c44c                	sw	a1,12(s0)
    2f38:	393050ef          	jal	ra,8aca <iprintf>
    2f3c:	6d8000ef          	jal	ra,3614 <PM_ComponentDischarge>
    2f40:	03200513          	li	a0,50
    2f44:	22b020ef          	jal	ra,596e <Delay_Ms>
    2f48:	04c00613          	li	a2,76
    2f4c:	654a0593          	addi	a1,s4,1620
    2f50:	850a                	mv	a0,sp
    2f52:	0e4050ef          	jal	ra,8036 <memcpy>
    2f56:	4601                	li	a2,0
    2f58:	458d                	li	a1,3
    2f5a:	850a                	mv	a0,sp
    2f5c:	7f1000ef          	jal	ra,3f4c <PM_MeasurePortInit>
    2f60:	60898593          	addi	a1,s3,1544
    2f64:	04c00613          	li	a2,76
    2f68:	850a                	mv	a0,sp
    2f6a:	0cc050ef          	jal	ra,8036 <memcpy>
    2f6e:	4601                	li	a2,0
    2f70:	4581                	li	a1,0
    2f72:	850a                	mv	a0,sp
    2f74:	7d9000ef          	jal	ra,3f4c <PM_MeasurePortInit>
    2f78:	6a090593          	addi	a1,s2,1696
    2f7c:	04c00613          	li	a2,76
    2f80:	850a                	mv	a0,sp
    2f82:	0b4050ef          	jal	ra,8036 <memcpy>
    2f86:	4605                	li	a2,1
    2f88:	4589                	li	a1,2
    2f8a:	850a                	mv	a0,sp
    2f8c:	7c1000ef          	jal	ra,3f4c <PM_MeasurePortInit>
    2f90:	4585                	li	a1,1
    2f92:	40000537          	lui	a0,0x40000
    2f96:	6985                	lui	s3,0x1
    2f98:	690d                	lui	s2,0x3
    2f9a:	e6efe0ef          	jal	ra,1608 <TIM_Cmd>
    2f9e:	4481                	li	s1,0
    2fa0:	ed898993          	addi	s3,s3,-296 # ed8 <EXTI_Init+0x28>
    2fa4:	2c890913          	addi	s2,s2,712 # 32c8 <PM_MeasureDiode+0x438>
    2fa8:	08f4                	addi	a3,sp,92
    2faa:	05a10613          	addi	a2,sp,90
    2fae:	4585                	li	a1,1
    2fb0:	8556                	mv	a0,s5
    2fb2:	9b7fe0ef          	jal	ra,1968 <PM_DMA_GetADCAverage_ForCAP>
    2fb6:	8a2a                	mv	s4,a0
    2fb8:	00a9e563          	bltu	s3,a0,2fc2 <PM_MeasureDiode+0x132>
    2fbc:	0485                	addi	s1,s1,1
    2fbe:	ff2495e3          	bne	s1,s2,2fa8 <PM_MeasureDiode+0x118>
    2fc2:	4581                	li	a1,0
    2fc4:	40000537          	lui	a0,0x40000
    2fc8:	e40fe0ef          	jal	ra,1608 <TIM_Cmd>
    2fcc:	27e020ef          	jal	ra,524a <PM_TimerCountClear>
    2fd0:	c0d9                	beqz	s1,3056 <PM_MeasureDiode+0x1c6>
    2fd2:	8552                	mv	a0,s4
    2fd4:	a57fe0ef          	jal	ra,1a2a <PM_ADCRealVol>
    2fd8:	84aa                	mv	s1,a0
    2fda:	45f6                	lw	a1,92(sp)
    2fdc:	05a15503          	lhu	a0,90(sp)
    2fe0:	248020ef          	jal	ra,5228 <PM_TimerCountTimeNS>
    2fe4:	892a                	mv	s2,a0
    2fe6:	8526                	mv	a0,s1
    2fe8:	271040ef          	jal	ra,7a58 <__floatunsidf>
    2fec:	0000b4b7          	lui	s1,0xb
    2ff0:	862a                	mv	a2,a0
    2ff2:	86ae                	mv	a3,a1
    2ff4:	3604a503          	lw	a0,864(s1) # b360 <_read+0x244>
    2ff8:	3644a583          	lw	a1,868(s1)
    2ffc:	216040ef          	jal	ra,7212 <__subdf3>
    3000:	862a                	mv	a2,a0
    3002:	86ae                	mv	a3,a1
    3004:	3604a503          	lw	a0,864(s1)
    3008:	3644a583          	lw	a1,868(s1)
    300c:	682030ef          	jal	ra,668e <__divdf3>
    3010:	253020ef          	jal	ra,5a62 <log>
    3014:	8a2a                	mv	s4,a0
    3016:	854a                	mv	a0,s2
    3018:	8aae                	mv	s5,a1
    301a:	23f040ef          	jal	ra,7a58 <__floatunsidf>
    301e:	0000b7b7          	lui	a5,0xb
    3022:	3587a603          	lw	a2,856(a5) # b358 <_read+0x23c>
    3026:	35c7a683          	lw	a3,860(a5)
    302a:	892a                	mv	s2,a0
    302c:	89ae                	mv	s3,a1
    302e:	8552                	mv	a0,s4
    3030:	85d6                	mv	a1,s5
    3032:	529030ef          	jal	ra,6d5a <__muldf3>
    3036:	862a                	mv	a2,a0
    3038:	86ae                	mv	a3,a1
    303a:	854a                	mv	a0,s2
    303c:	85ce                	mv	a1,s3
    303e:	650030ef          	jal	ra,668e <__divdf3>
    3042:	862a                	mv	a2,a0
    3044:	c808                	sw	a0,16(s0)
    3046:	0000b537          	lui	a0,0xb
    304a:	86ae                	mv	a3,a1
    304c:	3e450513          	addi	a0,a0,996 # b3e4 <_read+0x2c8>
    3050:	c84c                	sw	a1,20(s0)
    3052:	279050ef          	jal	ra,8aca <iprintf>
    3056:	4505                	li	a0,1
    3058:	00042823          	sw	zero,16(s0)
    305c:	00042a23          	sw	zero,20(s0)
    3060:	6125                	addi	sp,sp,96
    3062:	9e8fd06f          	j	24a <__riscv_restore_4>
    3066:	10300713          	li	a4,259
    306a:	10e79f63          	bne	a5,a4,3188 <PM_MeasureDiode+0x2f8>
    306e:	6a2d                	lui	s4,0xb
    3070:	04c00613          	li	a2,76
    3074:	654a0593          	addi	a1,s4,1620 # b654 <PortGroup_2>
    3078:	850a                	mv	a0,sp
    307a:	7bd040ef          	jal	ra,8036 <memcpy>
    307e:	4601                	li	a2,0
    3080:	458d                	li	a1,3
    3082:	850a                	mv	a0,sp
    3084:	6c9000ef          	jal	ra,3f4c <PM_MeasurePortInit>
    3088:	692d                	lui	s2,0xb
    308a:	60890593          	addi	a1,s2,1544 # b608 <PortGroup_1>
    308e:	04c00613          	li	a2,76
    3092:	850a                	mv	a0,sp
    3094:	7a3040ef          	jal	ra,8036 <memcpy>
    3098:	4601                	li	a2,0
    309a:	4585                	li	a1,1
    309c:	850a                	mv	a0,sp
    309e:	6af000ef          	jal	ra,3f4c <PM_MeasurePortInit>
    30a2:	69ad                	lui	s3,0xb
    30a4:	6a098593          	addi	a1,s3,1696 # b6a0 <PortGroup_3>
    30a8:	04c00613          	li	a2,76
    30ac:	850a                	mv	a0,sp
    30ae:	789040ef          	jal	ra,8036 <memcpy>
    30b2:	4605                	li	a2,1
    30b4:	4585                	li	a1,1
    30b6:	850a                	mv	a0,sp
    30b8:	695000ef          	jal	ra,3f4c <PM_MeasurePortInit>
    30bc:	03200513          	li	a0,50
    30c0:	0af020ef          	jal	ra,596e <Delay_Ms>
    30c4:	6a098493          	addi	s1,s3,1696
    30c8:	0484c503          	lbu	a0,72(s1)
    30cc:	461d                	li	a2,7
    30ce:	45c1                	li	a1,16
    30d0:	fd2fe0ef          	jal	ra,18a2 <PM_DMA_GetADCAverage>
    30d4:	60890a93          	addi	s5,s2,1544
    30d8:	953fe0ef          	jal	ra,1a2a <PM_ADCRealVol>
    30dc:	048aca83          	lbu	s5,72(s5)
    30e0:	461d                	li	a2,7
    30e2:	84aa                	mv	s1,a0
    30e4:	45c1                	li	a1,16
    30e6:	8556                	mv	a0,s5
    30e8:	fbafe0ef          	jal	ra,18a2 <PM_DMA_GetADCAverage>
    30ec:	93ffe0ef          	jal	ra,1a2a <PM_ADCRealVol>
    30f0:	40a485b3          	sub	a1,s1,a0
    30f4:	0000b537          	lui	a0,0xb
    30f8:	3d850513          	addi	a0,a0,984 # b3d8 <_read+0x2bc>
    30fc:	c44c                	sw	a1,12(s0)
    30fe:	1cd050ef          	jal	ra,8aca <iprintf>
    3102:	2b09                	jal	3614 <PM_ComponentDischarge>
    3104:	03200513          	li	a0,50
    3108:	067020ef          	jal	ra,596e <Delay_Ms>
    310c:	04c00613          	li	a2,76
    3110:	654a0593          	addi	a1,s4,1620
    3114:	850a                	mv	a0,sp
    3116:	721040ef          	jal	ra,8036 <memcpy>
    311a:	4601                	li	a2,0
    311c:	458d                	li	a1,3
    311e:	850a                	mv	a0,sp
    3120:	62d000ef          	jal	ra,3f4c <PM_MeasurePortInit>
    3124:	6a098593          	addi	a1,s3,1696
    3128:	04c00613          	li	a2,76
    312c:	850a                	mv	a0,sp
    312e:	709040ef          	jal	ra,8036 <memcpy>
    3132:	4601                	li	a2,0
    3134:	4581                	li	a1,0
    3136:	850a                	mv	a0,sp
    3138:	615000ef          	jal	ra,3f4c <PM_MeasurePortInit>
    313c:	60890593          	addi	a1,s2,1544
    3140:	04c00613          	li	a2,76
    3144:	850a                	mv	a0,sp
    3146:	6f1040ef          	jal	ra,8036 <memcpy>
    314a:	4605                	li	a2,1
    314c:	4589                	li	a1,2
    314e:	850a                	mv	a0,sp
    3150:	5fd000ef          	jal	ra,3f4c <PM_MeasurePortInit>
    3154:	4585                	li	a1,1
    3156:	40000537          	lui	a0,0x40000
    315a:	6985                	lui	s3,0x1
    315c:	690d                	lui	s2,0x3
    315e:	caafe0ef          	jal	ra,1608 <TIM_Cmd>
    3162:	4481                	li	s1,0
    3164:	ed898993          	addi	s3,s3,-296 # ed8 <EXTI_Init+0x28>
    3168:	2c890913          	addi	s2,s2,712 # 32c8 <PM_MeasureDiode+0x438>
    316c:	08f4                	addi	a3,sp,92
    316e:	05a10613          	addi	a2,sp,90
    3172:	4585                	li	a1,1
    3174:	8556                	mv	a0,s5
    3176:	ff2fe0ef          	jal	ra,1968 <PM_DMA_GetADCAverage_ForCAP>
    317a:	8a2a                	mv	s4,a0
    317c:	e4a9e3e3          	bltu	s3,a0,2fc2 <PM_MeasureDiode+0x132>
    3180:	0485                	addi	s1,s1,1
    3182:	ff2495e3          	bne	s1,s2,316c <PM_MeasureDiode+0x2dc>
    3186:	bd35                	j	2fc2 <PM_MeasureDiode+0x132>
    3188:	20100713          	li	a4,513
    318c:	10e79f63          	bne	a5,a4,32aa <PM_MeasureDiode+0x41a>
    3190:	6a2d                	lui	s4,0xb
    3192:	04c00613          	li	a2,76
    3196:	6a0a0593          	addi	a1,s4,1696 # b6a0 <PortGroup_3>
    319a:	850a                	mv	a0,sp
    319c:	69b040ef          	jal	ra,8036 <memcpy>
    31a0:	4601                	li	a2,0
    31a2:	458d                	li	a1,3
    31a4:	850a                	mv	a0,sp
    31a6:	5a7000ef          	jal	ra,3f4c <PM_MeasurePortInit>
    31aa:	692d                	lui	s2,0xb
    31ac:	65490593          	addi	a1,s2,1620 # b654 <PortGroup_2>
    31b0:	04c00613          	li	a2,76
    31b4:	850a                	mv	a0,sp
    31b6:	681040ef          	jal	ra,8036 <memcpy>
    31ba:	4601                	li	a2,0
    31bc:	4585                	li	a1,1
    31be:	850a                	mv	a0,sp
    31c0:	58d000ef          	jal	ra,3f4c <PM_MeasurePortInit>
    31c4:	69ad                	lui	s3,0xb
    31c6:	60898593          	addi	a1,s3,1544 # b608 <PortGroup_1>
    31ca:	04c00613          	li	a2,76
    31ce:	850a                	mv	a0,sp
    31d0:	667040ef          	jal	ra,8036 <memcpy>
    31d4:	4605                	li	a2,1
    31d6:	4585                	li	a1,1
    31d8:	850a                	mv	a0,sp
    31da:	573000ef          	jal	ra,3f4c <PM_MeasurePortInit>
    31de:	03200513          	li	a0,50
    31e2:	78c020ef          	jal	ra,596e <Delay_Ms>
    31e6:	60898493          	addi	s1,s3,1544
    31ea:	0484c503          	lbu	a0,72(s1)
    31ee:	461d                	li	a2,7
    31f0:	45c1                	li	a1,16
    31f2:	eb0fe0ef          	jal	ra,18a2 <PM_DMA_GetADCAverage>
    31f6:	65490a93          	addi	s5,s2,1620
    31fa:	831fe0ef          	jal	ra,1a2a <PM_ADCRealVol>
    31fe:	048aca83          	lbu	s5,72(s5)
    3202:	461d                	li	a2,7
    3204:	84aa                	mv	s1,a0
    3206:	45c1                	li	a1,16
    3208:	8556                	mv	a0,s5
    320a:	e98fe0ef          	jal	ra,18a2 <PM_DMA_GetADCAverage>
    320e:	81dfe0ef          	jal	ra,1a2a <PM_ADCRealVol>
    3212:	40a485b3          	sub	a1,s1,a0
    3216:	0000b537          	lui	a0,0xb
    321a:	3d850513          	addi	a0,a0,984 # b3d8 <_read+0x2bc>
    321e:	c44c                	sw	a1,12(s0)
    3220:	0ab050ef          	jal	ra,8aca <iprintf>
    3224:	2ec5                	jal	3614 <PM_ComponentDischarge>
    3226:	03200513          	li	a0,50
    322a:	744020ef          	jal	ra,596e <Delay_Ms>
    322e:	04c00613          	li	a2,76
    3232:	6a0a0593          	addi	a1,s4,1696
    3236:	850a                	mv	a0,sp
    3238:	5ff040ef          	jal	ra,8036 <memcpy>
    323c:	4601                	li	a2,0
    323e:	458d                	li	a1,3
    3240:	850a                	mv	a0,sp
    3242:	50b000ef          	jal	ra,3f4c <PM_MeasurePortInit>
    3246:	60898593          	addi	a1,s3,1544
    324a:	04c00613          	li	a2,76
    324e:	850a                	mv	a0,sp
    3250:	5e7040ef          	jal	ra,8036 <memcpy>
    3254:	4601                	li	a2,0
    3256:	4581                	li	a1,0
    3258:	850a                	mv	a0,sp
    325a:	4f3000ef          	jal	ra,3f4c <PM_MeasurePortInit>
    325e:	65490593          	addi	a1,s2,1620
    3262:	04c00613          	li	a2,76
    3266:	850a                	mv	a0,sp
    3268:	5cf040ef          	jal	ra,8036 <memcpy>
    326c:	4605                	li	a2,1
    326e:	4589                	li	a1,2
    3270:	850a                	mv	a0,sp
    3272:	4db000ef          	jal	ra,3f4c <PM_MeasurePortInit>
    3276:	4585                	li	a1,1
    3278:	40000537          	lui	a0,0x40000
    327c:	6985                	lui	s3,0x1
    327e:	690d                	lui	s2,0x3
    3280:	b88fe0ef          	jal	ra,1608 <TIM_Cmd>
    3284:	4481                	li	s1,0
    3286:	ed898993          	addi	s3,s3,-296 # ed8 <EXTI_Init+0x28>
    328a:	2c890913          	addi	s2,s2,712 # 32c8 <PM_MeasureDiode+0x438>
    328e:	08f4                	addi	a3,sp,92
    3290:	05a10613          	addi	a2,sp,90
    3294:	4585                	li	a1,1
    3296:	8556                	mv	a0,s5
    3298:	ed0fe0ef          	jal	ra,1968 <PM_DMA_GetADCAverage_ForCAP>
    329c:	8a2a                	mv	s4,a0
    329e:	d2a9e2e3          	bltu	s3,a0,2fc2 <PM_MeasureDiode+0x132>
    32a2:	0485                	addi	s1,s1,1
    32a4:	ff2495e3          	bne	s1,s2,328e <PM_MeasureDiode+0x3fe>
    32a8:	bb29                	j	2fc2 <PM_MeasureDiode+0x132>
    32aa:	10200713          	li	a4,258
    32ae:	10e79f63          	bne	a5,a4,33cc <PM_MeasureDiode+0x53c>
    32b2:	6a2d                	lui	s4,0xb
    32b4:	04c00613          	li	a2,76
    32b8:	6a0a0593          	addi	a1,s4,1696 # b6a0 <PortGroup_3>
    32bc:	850a                	mv	a0,sp
    32be:	579040ef          	jal	ra,8036 <memcpy>
    32c2:	4601                	li	a2,0
    32c4:	458d                	li	a1,3
    32c6:	850a                	mv	a0,sp
    32c8:	485000ef          	jal	ra,3f4c <PM_MeasurePortInit>
    32cc:	692d                	lui	s2,0xb
    32ce:	60890593          	addi	a1,s2,1544 # b608 <PortGroup_1>
    32d2:	04c00613          	li	a2,76
    32d6:	850a                	mv	a0,sp
    32d8:	55f040ef          	jal	ra,8036 <memcpy>
    32dc:	4601                	li	a2,0
    32de:	4585                	li	a1,1
    32e0:	850a                	mv	a0,sp
    32e2:	46b000ef          	jal	ra,3f4c <PM_MeasurePortInit>
    32e6:	69ad                	lui	s3,0xb
    32e8:	65498593          	addi	a1,s3,1620 # b654 <PortGroup_2>
    32ec:	04c00613          	li	a2,76
    32f0:	850a                	mv	a0,sp
    32f2:	545040ef          	jal	ra,8036 <memcpy>
    32f6:	4605                	li	a2,1
    32f8:	4585                	li	a1,1
    32fa:	850a                	mv	a0,sp
    32fc:	451000ef          	jal	ra,3f4c <PM_MeasurePortInit>
    3300:	03200513          	li	a0,50
    3304:	66a020ef          	jal	ra,596e <Delay_Ms>
    3308:	65498493          	addi	s1,s3,1620
    330c:	0484c503          	lbu	a0,72(s1)
    3310:	461d                	li	a2,7
    3312:	45c1                	li	a1,16
    3314:	d8efe0ef          	jal	ra,18a2 <PM_DMA_GetADCAverage>
    3318:	60890a93          	addi	s5,s2,1544
    331c:	f0efe0ef          	jal	ra,1a2a <PM_ADCRealVol>
    3320:	048aca83          	lbu	s5,72(s5)
    3324:	461d                	li	a2,7
    3326:	84aa                	mv	s1,a0
    3328:	45c1                	li	a1,16
    332a:	8556                	mv	a0,s5
    332c:	d76fe0ef          	jal	ra,18a2 <PM_DMA_GetADCAverage>
    3330:	efafe0ef          	jal	ra,1a2a <PM_ADCRealVol>
    3334:	40a485b3          	sub	a1,s1,a0
    3338:	0000b537          	lui	a0,0xb
    333c:	3d850513          	addi	a0,a0,984 # b3d8 <_read+0x2bc>
    3340:	c44c                	sw	a1,12(s0)
    3342:	788050ef          	jal	ra,8aca <iprintf>
    3346:	24f9                	jal	3614 <PM_ComponentDischarge>
    3348:	03200513          	li	a0,50
    334c:	622020ef          	jal	ra,596e <Delay_Ms>
    3350:	04c00613          	li	a2,76
    3354:	6a0a0593          	addi	a1,s4,1696
    3358:	850a                	mv	a0,sp
    335a:	4dd040ef          	jal	ra,8036 <memcpy>
    335e:	4601                	li	a2,0
    3360:	458d                	li	a1,3
    3362:	850a                	mv	a0,sp
    3364:	3e9000ef          	jal	ra,3f4c <PM_MeasurePortInit>
    3368:	65498593          	addi	a1,s3,1620
    336c:	04c00613          	li	a2,76
    3370:	850a                	mv	a0,sp
    3372:	4c5040ef          	jal	ra,8036 <memcpy>
    3376:	4601                	li	a2,0
    3378:	4581                	li	a1,0
    337a:	850a                	mv	a0,sp
    337c:	3d1000ef          	jal	ra,3f4c <PM_MeasurePortInit>
    3380:	60890593          	addi	a1,s2,1544
    3384:	04c00613          	li	a2,76
    3388:	850a                	mv	a0,sp
    338a:	4ad040ef          	jal	ra,8036 <memcpy>
    338e:	4605                	li	a2,1
    3390:	4589                	li	a1,2
    3392:	850a                	mv	a0,sp
    3394:	3b9000ef          	jal	ra,3f4c <PM_MeasurePortInit>
    3398:	4585                	li	a1,1
    339a:	40000537          	lui	a0,0x40000
    339e:	6985                	lui	s3,0x1
    33a0:	690d                	lui	s2,0x3
    33a2:	a66fe0ef          	jal	ra,1608 <TIM_Cmd>
    33a6:	4481                	li	s1,0
    33a8:	ed898993          	addi	s3,s3,-296 # ed8 <EXTI_Init+0x28>
    33ac:	2c890913          	addi	s2,s2,712 # 32c8 <PM_MeasureDiode+0x438>
    33b0:	08f4                	addi	a3,sp,92
    33b2:	05a10613          	addi	a2,sp,90
    33b6:	4585                	li	a1,1
    33b8:	8556                	mv	a0,s5
    33ba:	daefe0ef          	jal	ra,1968 <PM_DMA_GetADCAverage_ForCAP>
    33be:	8a2a                	mv	s4,a0
    33c0:	c0a9e1e3          	bltu	s3,a0,2fc2 <PM_MeasureDiode+0x132>
    33c4:	0485                	addi	s1,s1,1
    33c6:	ff2495e3          	bne	s1,s2,33b0 <PM_MeasureDiode+0x520>
    33ca:	bee5                	j	2fc2 <PM_MeasureDiode+0x132>
    33cc:	30200713          	li	a4,770
    33d0:	10e79f63          	bne	a5,a4,34ee <PM_MeasureDiode+0x65e>
    33d4:	6a2d                	lui	s4,0xb
    33d6:	04c00613          	li	a2,76
    33da:	608a0593          	addi	a1,s4,1544 # b608 <PortGroup_1>
    33de:	850a                	mv	a0,sp
    33e0:	457040ef          	jal	ra,8036 <memcpy>
    33e4:	4601                	li	a2,0
    33e6:	458d                	li	a1,3
    33e8:	850a                	mv	a0,sp
    33ea:	363000ef          	jal	ra,3f4c <PM_MeasurePortInit>
    33ee:	692d                	lui	s2,0xb
    33f0:	6a090593          	addi	a1,s2,1696 # b6a0 <PortGroup_3>
    33f4:	04c00613          	li	a2,76
    33f8:	850a                	mv	a0,sp
    33fa:	43d040ef          	jal	ra,8036 <memcpy>
    33fe:	4601                	li	a2,0
    3400:	4585                	li	a1,1
    3402:	850a                	mv	a0,sp
    3404:	349000ef          	jal	ra,3f4c <PM_MeasurePortInit>
    3408:	69ad                	lui	s3,0xb
    340a:	65498593          	addi	a1,s3,1620 # b654 <PortGroup_2>
    340e:	04c00613          	li	a2,76
    3412:	850a                	mv	a0,sp
    3414:	423040ef          	jal	ra,8036 <memcpy>
    3418:	4605                	li	a2,1
    341a:	4585                	li	a1,1
    341c:	850a                	mv	a0,sp
    341e:	32f000ef          	jal	ra,3f4c <PM_MeasurePortInit>
    3422:	03200513          	li	a0,50
    3426:	548020ef          	jal	ra,596e <Delay_Ms>
    342a:	65498493          	addi	s1,s3,1620
    342e:	0484c503          	lbu	a0,72(s1)
    3432:	461d                	li	a2,7
    3434:	45c1                	li	a1,16
    3436:	c6cfe0ef          	jal	ra,18a2 <PM_DMA_GetADCAverage>
    343a:	6a090a93          	addi	s5,s2,1696
    343e:	decfe0ef          	jal	ra,1a2a <PM_ADCRealVol>
    3442:	048aca83          	lbu	s5,72(s5)
    3446:	461d                	li	a2,7
    3448:	84aa                	mv	s1,a0
    344a:	45c1                	li	a1,16
    344c:	8556                	mv	a0,s5
    344e:	c54fe0ef          	jal	ra,18a2 <PM_DMA_GetADCAverage>
    3452:	dd8fe0ef          	jal	ra,1a2a <PM_ADCRealVol>
    3456:	40a485b3          	sub	a1,s1,a0
    345a:	0000b537          	lui	a0,0xb
    345e:	3d850513          	addi	a0,a0,984 # b3d8 <_read+0x2bc>
    3462:	c44c                	sw	a1,12(s0)
    3464:	666050ef          	jal	ra,8aca <iprintf>
    3468:	2275                	jal	3614 <PM_ComponentDischarge>
    346a:	03200513          	li	a0,50
    346e:	500020ef          	jal	ra,596e <Delay_Ms>
    3472:	04c00613          	li	a2,76
    3476:	608a0593          	addi	a1,s4,1544
    347a:	850a                	mv	a0,sp
    347c:	3bb040ef          	jal	ra,8036 <memcpy>
    3480:	4601                	li	a2,0
    3482:	458d                	li	a1,3
    3484:	850a                	mv	a0,sp
    3486:	2c7000ef          	jal	ra,3f4c <PM_MeasurePortInit>
    348a:	65498593          	addi	a1,s3,1620
    348e:	04c00613          	li	a2,76
    3492:	850a                	mv	a0,sp
    3494:	3a3040ef          	jal	ra,8036 <memcpy>
    3498:	4601                	li	a2,0
    349a:	4581                	li	a1,0
    349c:	850a                	mv	a0,sp
    349e:	2af000ef          	jal	ra,3f4c <PM_MeasurePortInit>
    34a2:	6a090593          	addi	a1,s2,1696
    34a6:	04c00613          	li	a2,76
    34aa:	850a                	mv	a0,sp
    34ac:	38b040ef          	jal	ra,8036 <memcpy>
    34b0:	4605                	li	a2,1
    34b2:	4589                	li	a1,2
    34b4:	850a                	mv	a0,sp
    34b6:	297000ef          	jal	ra,3f4c <PM_MeasurePortInit>
    34ba:	4585                	li	a1,1
    34bc:	40000537          	lui	a0,0x40000
    34c0:	6985                	lui	s3,0x1
    34c2:	690d                	lui	s2,0x3
    34c4:	944fe0ef          	jal	ra,1608 <TIM_Cmd>
    34c8:	4481                	li	s1,0
    34ca:	ed898993          	addi	s3,s3,-296 # ed8 <EXTI_Init+0x28>
    34ce:	2c890913          	addi	s2,s2,712 # 32c8 <PM_MeasureDiode+0x438>
    34d2:	08f4                	addi	a3,sp,92
    34d4:	05a10613          	addi	a2,sp,90
    34d8:	4585                	li	a1,1
    34da:	8556                	mv	a0,s5
    34dc:	c8cfe0ef          	jal	ra,1968 <PM_DMA_GetADCAverage_ForCAP>
    34e0:	8a2a                	mv	s4,a0
    34e2:	aea9e0e3          	bltu	s3,a0,2fc2 <PM_MeasureDiode+0x132>
    34e6:	0485                	addi	s1,s1,1
    34e8:	ff2495e3          	bne	s1,s2,34d2 <PM_MeasureDiode+0x642>
    34ec:	bcd9                	j	2fc2 <PM_MeasureDiode+0x132>
    34ee:	20300713          	li	a4,515
    34f2:	4501                	li	a0,0
    34f4:	b6e792e3          	bne	a5,a4,3058 <PM_MeasureDiode+0x1c8>
    34f8:	6a2d                	lui	s4,0xb
    34fa:	04c00613          	li	a2,76
    34fe:	608a0593          	addi	a1,s4,1544 # b608 <PortGroup_1>
    3502:	850a                	mv	a0,sp
    3504:	333040ef          	jal	ra,8036 <memcpy>
    3508:	4601                	li	a2,0
    350a:	458d                	li	a1,3
    350c:	850a                	mv	a0,sp
    350e:	23f000ef          	jal	ra,3f4c <PM_MeasurePortInit>
    3512:	692d                	lui	s2,0xb
    3514:	65490593          	addi	a1,s2,1620 # b654 <PortGroup_2>
    3518:	04c00613          	li	a2,76
    351c:	850a                	mv	a0,sp
    351e:	319040ef          	jal	ra,8036 <memcpy>
    3522:	4601                	li	a2,0
    3524:	4585                	li	a1,1
    3526:	850a                	mv	a0,sp
    3528:	225000ef          	jal	ra,3f4c <PM_MeasurePortInit>
    352c:	69ad                	lui	s3,0xb
    352e:	6a098593          	addi	a1,s3,1696 # b6a0 <PortGroup_3>
    3532:	04c00613          	li	a2,76
    3536:	850a                	mv	a0,sp
    3538:	2ff040ef          	jal	ra,8036 <memcpy>
    353c:	4605                	li	a2,1
    353e:	4585                	li	a1,1
    3540:	850a                	mv	a0,sp
    3542:	20b000ef          	jal	ra,3f4c <PM_MeasurePortInit>
    3546:	03200513          	li	a0,50
    354a:	424020ef          	jal	ra,596e <Delay_Ms>
    354e:	6a098493          	addi	s1,s3,1696
    3552:	0484c503          	lbu	a0,72(s1)
    3556:	461d                	li	a2,7
    3558:	45c1                	li	a1,16
    355a:	b48fe0ef          	jal	ra,18a2 <PM_DMA_GetADCAverage>
    355e:	65490a93          	addi	s5,s2,1620
    3562:	cc8fe0ef          	jal	ra,1a2a <PM_ADCRealVol>
    3566:	048aca83          	lbu	s5,72(s5)
    356a:	461d                	li	a2,7
    356c:	84aa                	mv	s1,a0
    356e:	45c1                	li	a1,16
    3570:	8556                	mv	a0,s5
    3572:	b30fe0ef          	jal	ra,18a2 <PM_DMA_GetADCAverage>
    3576:	cb4fe0ef          	jal	ra,1a2a <PM_ADCRealVol>
    357a:	40a485b3          	sub	a1,s1,a0
    357e:	0000b537          	lui	a0,0xb
    3582:	3d850513          	addi	a0,a0,984 # b3d8 <_read+0x2bc>
    3586:	c44c                	sw	a1,12(s0)
    3588:	542050ef          	jal	ra,8aca <iprintf>
    358c:	2061                	jal	3614 <PM_ComponentDischarge>
    358e:	03200513          	li	a0,50
    3592:	3dc020ef          	jal	ra,596e <Delay_Ms>
    3596:	04c00613          	li	a2,76
    359a:	608a0593          	addi	a1,s4,1544
    359e:	850a                	mv	a0,sp
    35a0:	297040ef          	jal	ra,8036 <memcpy>
    35a4:	4601                	li	a2,0
    35a6:	458d                	li	a1,3
    35a8:	850a                	mv	a0,sp
    35aa:	1a3000ef          	jal	ra,3f4c <PM_MeasurePortInit>
    35ae:	6a098593          	addi	a1,s3,1696
    35b2:	04c00613          	li	a2,76
    35b6:	850a                	mv	a0,sp
    35b8:	27f040ef          	jal	ra,8036 <memcpy>
    35bc:	4601                	li	a2,0
    35be:	4581                	li	a1,0
    35c0:	850a                	mv	a0,sp
    35c2:	18b000ef          	jal	ra,3f4c <PM_MeasurePortInit>
    35c6:	65490593          	addi	a1,s2,1620
    35ca:	04c00613          	li	a2,76
    35ce:	850a                	mv	a0,sp
    35d0:	267040ef          	jal	ra,8036 <memcpy>
    35d4:	4605                	li	a2,1
    35d6:	4589                	li	a1,2
    35d8:	850a                	mv	a0,sp
    35da:	173000ef          	jal	ra,3f4c <PM_MeasurePortInit>
    35de:	4585                	li	a1,1
    35e0:	40000537          	lui	a0,0x40000
    35e4:	6985                	lui	s3,0x1
    35e6:	690d                	lui	s2,0x3
    35e8:	820fe0ef          	jal	ra,1608 <TIM_Cmd>
    35ec:	4481                	li	s1,0
    35ee:	ed898993          	addi	s3,s3,-296 # ed8 <EXTI_Init+0x28>
    35f2:	2c890913          	addi	s2,s2,712 # 32c8 <PM_MeasureDiode+0x438>
    35f6:	08f4                	addi	a3,sp,92
    35f8:	05a10613          	addi	a2,sp,90
    35fc:	4585                	li	a1,1
    35fe:	8556                	mv	a0,s5
    3600:	b68fe0ef          	jal	ra,1968 <PM_DMA_GetADCAverage_ForCAP>
    3604:	8a2a                	mv	s4,a0
    3606:	9aa9eee3          	bltu	s3,a0,2fc2 <PM_MeasureDiode+0x132>
    360a:	0485                	addi	s1,s1,1
    360c:	ff2495e3          	bne	s1,s2,35f6 <PM_MeasureDiode+0x766>
    3610:	9b3ff06f          	j	2fc2 <PM_MeasureDiode+0x132>

00003614 <PM_ComponentDischarge>:
    3614:	c1dfc2ef          	jal	t0,230 <__riscv_save_0>
    3618:	715d                	addi	sp,sp,-80
    361a:	65ad                	lui	a1,0xb
    361c:	04c00613          	li	a2,76
    3620:	60858593          	addi	a1,a1,1544 # b608 <PortGroup_1>
    3624:	850a                	mv	a0,sp
    3626:	211040ef          	jal	ra,8036 <memcpy>
    362a:	850a                	mv	a0,sp
    362c:	4601                	li	a2,0
    362e:	4581                	li	a1,0
    3630:	11d000ef          	jal	ra,3f4c <PM_MeasurePortInit>
    3634:	65ad                	lui	a1,0xb
    3636:	04c00613          	li	a2,76
    363a:	65458593          	addi	a1,a1,1620 # b654 <PortGroup_2>
    363e:	850a                	mv	a0,sp
    3640:	1f7040ef          	jal	ra,8036 <memcpy>
    3644:	850a                	mv	a0,sp
    3646:	4601                	li	a2,0
    3648:	4581                	li	a1,0
    364a:	103000ef          	jal	ra,3f4c <PM_MeasurePortInit>
    364e:	65ad                	lui	a1,0xb
    3650:	04c00613          	li	a2,76
    3654:	6a058593          	addi	a1,a1,1696 # b6a0 <PortGroup_3>
    3658:	850a                	mv	a0,sp
    365a:	1dd040ef          	jal	ra,8036 <memcpy>
    365e:	850a                	mv	a0,sp
    3660:	4601                	li	a2,0
    3662:	4581                	li	a1,0
    3664:	0e9000ef          	jal	ra,3f4c <PM_MeasurePortInit>
    3668:	6161                	addi	sp,sp,80
    366a:	bebfc06f          	j	254 <__riscv_restore_0>

0000366e <PM_ComponentFeatureCompare>:
    366e:	7111                	addi	sp,sp,-256
    3670:	4781                	li	a5,0
    3672:	01079713          	slli	a4,a5,0x10
    3676:	8341                	srli	a4,a4,0x10
    3678:	02c76963          	bltu	a4,a2,36aa <PM_ComponentFeatureCompare+0x3c>
    367c:	fff60793          	addi	a5,a2,-1
    3680:	07c2                	slli	a5,a5,0x10
    3682:	83c1                	srli	a5,a5,0x10
    3684:	c7b9                	beqz	a5,36d2 <PM_ComponentFeatureCompare+0x64>
    3686:	870a                	mv	a4,sp
    3688:	4681                	li	a3,0
    368a:	2308                	lbu	a0,0(a4)
    368c:	00174803          	lbu	a6,1(a4)
    3690:	00a87563          	bgeu	a6,a0,369a <PM_ComponentFeatureCompare+0x2c>
    3694:	01070023          	sb	a6,0(a4)
    3698:	b308                	sb	a0,1(a4)
    369a:	0685                	addi	a3,a3,1
    369c:	06c2                	slli	a3,a3,0x10
    369e:	82c1                	srli	a3,a3,0x10
    36a0:	0705                	addi	a4,a4,1
    36a2:	fed794e3          	bne	a5,a3,368a <PM_ComponentFeatureCompare+0x1c>
    36a6:	17fd                	addi	a5,a5,-1
    36a8:	bfe1                	j	3680 <PM_ComponentFeatureCompare+0x12>
    36aa:	00f506b3          	add	a3,a0,a5
    36ae:	2294                	lbu	a3,0(a3)
    36b0:	00f10733          	add	a4,sp,a5
    36b4:	0785                	addi	a5,a5,1
    36b6:	a314                	sb	a3,0(a4)
    36b8:	bf6d                	j	3672 <PM_ComponentFeatureCompare+0x4>
    36ba:	00f10733          	add	a4,sp,a5
    36be:	0785                	addi	a5,a5,1
    36c0:	00f586b3          	add	a3,a1,a5
    36c4:	2318                	lbu	a4,0(a4)
    36c6:	fff6c683          	lbu	a3,-1(a3)
    36ca:	00e68563          	beq	a3,a4,36d4 <PM_ComponentFeatureCompare+0x66>
    36ce:	4501                	li	a0,0
    36d0:	a811                	j	36e4 <PM_ComponentFeatureCompare+0x76>
    36d2:	4781                	li	a5,0
    36d4:	01079513          	slli	a0,a5,0x10
    36d8:	8141                	srli	a0,a0,0x10
    36da:	fec560e3          	bltu	a0,a2,36ba <PM_ComponentFeatureCompare+0x4c>
    36de:	8e09                	sub	a2,a2,a0
    36e0:	00163513          	seqz	a0,a2
    36e4:	6111                	addi	sp,sp,256
    36e6:	8082                	ret

000036e8 <PM_ComponentQuickClassify>:
    36e8:	b19fc2ef          	jal	t0,200 <__riscv_save_12>
    36ec:	7159                	addi	sp,sp,-112
    36ee:	f27ff0ef          	jal	ra,3614 <PM_ComponentDischarge>
    36f2:	03200513          	li	a0,50
    36f6:	64ad                	lui	s1,0xb
    36f8:	276020ef          	jal	ra,596e <Delay_Ms>
    36fc:	65448593          	addi	a1,s1,1620 # b654 <PortGroup_2>
    3700:	04c00613          	li	a2,76
    3704:	1008                	addi	a0,sp,32
    3706:	131040ef          	jal	ra,8036 <memcpy>
    370a:	4601                	li	a2,0
    370c:	4585                	li	a1,1
    370e:	1008                	addi	a0,sp,32
    3710:	642d                	lui	s0,0xb
    3712:	03b000ef          	jal	ra,3f4c <PM_MeasurePortInit>
    3716:	6a040593          	addi	a1,s0,1696 # b6a0 <PortGroup_3>
    371a:	04c00613          	li	a2,76
    371e:	1008                	addi	a0,sp,32
    3720:	117040ef          	jal	ra,8036 <memcpy>
    3724:	4601                	li	a2,0
    3726:	4585                	li	a1,1
    3728:	1008                	addi	a0,sp,32
    372a:	692d                	lui	s2,0xb
    372c:	021000ef          	jal	ra,3f4c <PM_MeasurePortInit>
    3730:	60890593          	addi	a1,s2,1544 # b608 <PortGroup_1>
    3734:	04c00613          	li	a2,76
    3738:	1008                	addi	a0,sp,32
    373a:	0fd040ef          	jal	ra,8036 <memcpy>
    373e:	4605                	li	a2,1
    3740:	4581                	li	a1,0
    3742:	1008                	addi	a0,sp,32
    3744:	009000ef          	jal	ra,3f4c <PM_MeasurePortInit>
    3748:	03200513          	li	a0,50
    374c:	222020ef          	jal	ra,596e <Delay_Ms>
    3750:	461d                	li	a2,7
    3752:	45c1                	li	a1,16
    3754:	4521                	li	a0,8
    3756:	94cfe0ef          	jal	ra,18a2 <PM_DMA_GetADCAverage>
    375a:	ad0fe0ef          	jal	ra,1a2a <PM_ADCRealVol>
    375e:	85aa                	mv	a1,a0
    3760:	8daa                	mv	s11,a0
    3762:	0000b537          	lui	a0,0xb
    3766:	3f850513          	addi	a0,a0,1016 # b3f8 <_read+0x2dc>
    376a:	360050ef          	jal	ra,8aca <iprintf>
    376e:	ea7ff0ef          	jal	ra,3614 <PM_ComponentDischarge>
    3772:	03200513          	li	a0,50
    3776:	1f8020ef          	jal	ra,596e <Delay_Ms>
    377a:	60890593          	addi	a1,s2,1544
    377e:	04c00613          	li	a2,76
    3782:	1008                	addi	a0,sp,32
    3784:	0b3040ef          	jal	ra,8036 <memcpy>
    3788:	4601                	li	a2,0
    378a:	4585                	li	a1,1
    378c:	1008                	addi	a0,sp,32
    378e:	7be000ef          	jal	ra,3f4c <PM_MeasurePortInit>
    3792:	6a040593          	addi	a1,s0,1696
    3796:	04c00613          	li	a2,76
    379a:	1008                	addi	a0,sp,32
    379c:	09b040ef          	jal	ra,8036 <memcpy>
    37a0:	4601                	li	a2,0
    37a2:	4585                	li	a1,1
    37a4:	1008                	addi	a0,sp,32
    37a6:	7a6000ef          	jal	ra,3f4c <PM_MeasurePortInit>
    37aa:	65448593          	addi	a1,s1,1620
    37ae:	04c00613          	li	a2,76
    37b2:	1008                	addi	a0,sp,32
    37b4:	083040ef          	jal	ra,8036 <memcpy>
    37b8:	4605                	li	a2,1
    37ba:	4581                	li	a1,0
    37bc:	1008                	addi	a0,sp,32
    37be:	78e000ef          	jal	ra,3f4c <PM_MeasurePortInit>
    37c2:	03200513          	li	a0,50
    37c6:	1a8020ef          	jal	ra,596e <Delay_Ms>
    37ca:	461d                	li	a2,7
    37cc:	45c1                	li	a1,16
    37ce:	4501                	li	a0,0
    37d0:	8d2fe0ef          	jal	ra,18a2 <PM_DMA_GetADCAverage>
    37d4:	a56fe0ef          	jal	ra,1a2a <PM_ADCRealVol>
    37d8:	85aa                	mv	a1,a0
    37da:	8d2a                	mv	s10,a0
    37dc:	0000b537          	lui	a0,0xb
    37e0:	41050513          	addi	a0,a0,1040 # b410 <_read+0x2f4>
    37e4:	2e6050ef          	jal	ra,8aca <iprintf>
    37e8:	e2dff0ef          	jal	ra,3614 <PM_ComponentDischarge>
    37ec:	03200513          	li	a0,50
    37f0:	17e020ef          	jal	ra,596e <Delay_Ms>
    37f4:	6a040593          	addi	a1,s0,1696
    37f8:	04c00613          	li	a2,76
    37fc:	1008                	addi	a0,sp,32
    37fe:	039040ef          	jal	ra,8036 <memcpy>
    3802:	4601                	li	a2,0
    3804:	4585                	li	a1,1
    3806:	1008                	addi	a0,sp,32
    3808:	744000ef          	jal	ra,3f4c <PM_MeasurePortInit>
    380c:	60890593          	addi	a1,s2,1544
    3810:	04c00613          	li	a2,76
    3814:	1008                	addi	a0,sp,32
    3816:	021040ef          	jal	ra,8036 <memcpy>
    381a:	4601                	li	a2,0
    381c:	4585                	li	a1,1
    381e:	1008                	addi	a0,sp,32
    3820:	72c000ef          	jal	ra,3f4c <PM_MeasurePortInit>
    3824:	65448593          	addi	a1,s1,1620
    3828:	04c00613          	li	a2,76
    382c:	1008                	addi	a0,sp,32
    382e:	009040ef          	jal	ra,8036 <memcpy>
    3832:	4605                	li	a2,1
    3834:	4581                	li	a1,0
    3836:	1008                	addi	a0,sp,32
    3838:	714000ef          	jal	ra,3f4c <PM_MeasurePortInit>
    383c:	03200513          	li	a0,50
    3840:	12e020ef          	jal	ra,596e <Delay_Ms>
    3844:	461d                	li	a2,7
    3846:	45c1                	li	a1,16
    3848:	4525                	li	a0,9
    384a:	858fe0ef          	jal	ra,18a2 <PM_DMA_GetADCAverage>
    384e:	9dcfe0ef          	jal	ra,1a2a <PM_ADCRealVol>
    3852:	85aa                	mv	a1,a0
    3854:	8baa                	mv	s7,a0
    3856:	0000b537          	lui	a0,0xb
    385a:	42850513          	addi	a0,a0,1064 # b428 <_read+0x30c>
    385e:	26c050ef          	jal	ra,8aca <iprintf>
    3862:	db3ff0ef          	jal	ra,3614 <PM_ComponentDischarge>
    3866:	03200513          	li	a0,50
    386a:	104020ef          	jal	ra,596e <Delay_Ms>
    386e:	65448593          	addi	a1,s1,1620
    3872:	04c00613          	li	a2,76
    3876:	1008                	addi	a0,sp,32
    3878:	7be040ef          	jal	ra,8036 <memcpy>
    387c:	4601                	li	a2,0
    387e:	4585                	li	a1,1
    3880:	1008                	addi	a0,sp,32
    3882:	6ca000ef          	jal	ra,3f4c <PM_MeasurePortInit>
    3886:	60890593          	addi	a1,s2,1544
    388a:	04c00613          	li	a2,76
    388e:	1008                	addi	a0,sp,32
    3890:	7a6040ef          	jal	ra,8036 <memcpy>
    3894:	4601                	li	a2,0
    3896:	4585                	li	a1,1
    3898:	1008                	addi	a0,sp,32
    389a:	6b2000ef          	jal	ra,3f4c <PM_MeasurePortInit>
    389e:	6a040593          	addi	a1,s0,1696
    38a2:	04c00613          	li	a2,76
    38a6:	1008                	addi	a0,sp,32
    38a8:	78e040ef          	jal	ra,8036 <memcpy>
    38ac:	4605                	li	a2,1
    38ae:	4581                	li	a1,0
    38b0:	1008                	addi	a0,sp,32
    38b2:	69a000ef          	jal	ra,3f4c <PM_MeasurePortInit>
    38b6:	03200513          	li	a0,50
    38ba:	0b4020ef          	jal	ra,596e <Delay_Ms>
    38be:	461d                	li	a2,7
    38c0:	45c1                	li	a1,16
    38c2:	4521                	li	a0,8
    38c4:	fdffd0ef          	jal	ra,18a2 <PM_DMA_GetADCAverage>
    38c8:	962fe0ef          	jal	ra,1a2a <PM_ADCRealVol>
    38cc:	85aa                	mv	a1,a0
    38ce:	8b2a                	mv	s6,a0
    38d0:	0000b537          	lui	a0,0xb
    38d4:	44050513          	addi	a0,a0,1088 # b440 <_read+0x324>
    38d8:	1f2050ef          	jal	ra,8aca <iprintf>
    38dc:	d39ff0ef          	jal	ra,3614 <PM_ComponentDischarge>
    38e0:	03200513          	li	a0,50
    38e4:	08a020ef          	jal	ra,596e <Delay_Ms>
    38e8:	6a040593          	addi	a1,s0,1696
    38ec:	04c00613          	li	a2,76
    38f0:	1008                	addi	a0,sp,32
    38f2:	744040ef          	jal	ra,8036 <memcpy>
    38f6:	4601                	li	a2,0
    38f8:	4585                	li	a1,1
    38fa:	1008                	addi	a0,sp,32
    38fc:	650000ef          	jal	ra,3f4c <PM_MeasurePortInit>
    3900:	65448593          	addi	a1,s1,1620
    3904:	04c00613          	li	a2,76
    3908:	1008                	addi	a0,sp,32
    390a:	72c040ef          	jal	ra,8036 <memcpy>
    390e:	4601                	li	a2,0
    3910:	4585                	li	a1,1
    3912:	1008                	addi	a0,sp,32
    3914:	638000ef          	jal	ra,3f4c <PM_MeasurePortInit>
    3918:	60890593          	addi	a1,s2,1544
    391c:	04c00613          	li	a2,76
    3920:	1008                	addi	a0,sp,32
    3922:	714040ef          	jal	ra,8036 <memcpy>
    3926:	4605                	li	a2,1
    3928:	4581                	li	a1,0
    392a:	1008                	addi	a0,sp,32
    392c:	620000ef          	jal	ra,3f4c <PM_MeasurePortInit>
    3930:	03200513          	li	a0,50
    3934:	03a020ef          	jal	ra,596e <Delay_Ms>
    3938:	461d                	li	a2,7
    393a:	45c1                	li	a1,16
    393c:	4525                	li	a0,9
    393e:	f65fd0ef          	jal	ra,18a2 <PM_DMA_GetADCAverage>
    3942:	8e8fe0ef          	jal	ra,1a2a <PM_ADCRealVol>
    3946:	85aa                	mv	a1,a0
    3948:	89aa                	mv	s3,a0
    394a:	0000b537          	lui	a0,0xb
    394e:	45850513          	addi	a0,a0,1112 # b458 <_read+0x33c>
    3952:	178050ef          	jal	ra,8aca <iprintf>
    3956:	0659b993          	sltiu	s3,s3,101
    395a:	0019c793          	xori	a5,s3,1
    395e:	c23e                	sw	a5,4(sp)
    3960:	cb5ff0ef          	jal	ra,3614 <PM_ComponentDischarge>
    3964:	03200513          	li	a0,50
    3968:	006020ef          	jal	ra,596e <Delay_Ms>
    396c:	60890593          	addi	a1,s2,1544
    3970:	04c00613          	li	a2,76
    3974:	1008                	addi	a0,sp,32
    3976:	6c0040ef          	jal	ra,8036 <memcpy>
    397a:	4601                	li	a2,0
    397c:	4585                	li	a1,1
    397e:	1008                	addi	a0,sp,32
    3980:	5cc000ef          	jal	ra,3f4c <PM_MeasurePortInit>
    3984:	65448593          	addi	a1,s1,1620
    3988:	04c00613          	li	a2,76
    398c:	1008                	addi	a0,sp,32
    398e:	6a8040ef          	jal	ra,8036 <memcpy>
    3992:	4601                	li	a2,0
    3994:	4585                	li	a1,1
    3996:	1008                	addi	a0,sp,32
    3998:	5b4000ef          	jal	ra,3f4c <PM_MeasurePortInit>
    399c:	6a040593          	addi	a1,s0,1696
    39a0:	04c00613          	li	a2,76
    39a4:	1008                	addi	a0,sp,32
    39a6:	690040ef          	jal	ra,8036 <memcpy>
    39aa:	4605                	li	a2,1
    39ac:	4581                	li	a1,0
    39ae:	1008                	addi	a0,sp,32
    39b0:	59c000ef          	jal	ra,3f4c <PM_MeasurePortInit>
    39b4:	03200513          	li	a0,50
    39b8:	7b7010ef          	jal	ra,596e <Delay_Ms>
    39bc:	461d                	li	a2,7
    39be:	45c1                	li	a1,16
    39c0:	4501                	li	a0,0
    39c2:	ee1fd0ef          	jal	ra,18a2 <PM_DMA_GetADCAverage>
    39c6:	864fe0ef          	jal	ra,1a2a <PM_ADCRealVol>
    39ca:	85aa                	mv	a1,a0
    39cc:	8a2a                	mv	s4,a0
    39ce:	0000b537          	lui	a0,0xb
    39d2:	47050513          	addi	a0,a0,1136 # b470 <_read+0x354>
    39d6:	0f4050ef          	jal	ra,8aca <iprintf>
    39da:	065a3a13          	sltiu	s4,s4,101
    39de:	001a4793          	xori	a5,s4,1
    39e2:	c43e                	sw	a5,8(sp)
    39e4:	c31ff0ef          	jal	ra,3614 <PM_ComponentDischarge>
    39e8:	03200513          	li	a0,50
    39ec:	783010ef          	jal	ra,596e <Delay_Ms>
    39f0:	65448593          	addi	a1,s1,1620
    39f4:	04c00613          	li	a2,76
    39f8:	1008                	addi	a0,sp,32
    39fa:	63c040ef          	jal	ra,8036 <memcpy>
    39fe:	4601                	li	a2,0
    3a00:	4585                	li	a1,1
    3a02:	1008                	addi	a0,sp,32
    3a04:	548000ef          	jal	ra,3f4c <PM_MeasurePortInit>
    3a08:	6a040593          	addi	a1,s0,1696
    3a0c:	04c00613          	li	a2,76
    3a10:	1008                	addi	a0,sp,32
    3a12:	624040ef          	jal	ra,8036 <memcpy>
    3a16:	4605                	li	a2,1
    3a18:	4585                	li	a1,1
    3a1a:	1008                	addi	a0,sp,32
    3a1c:	2b05                	jal	3f4c <PM_MeasurePortInit>
    3a1e:	60890593          	addi	a1,s2,1544
    3a22:	04c00613          	li	a2,76
    3a26:	1008                	addi	a0,sp,32
    3a28:	60e040ef          	jal	ra,8036 <memcpy>
    3a2c:	4605                	li	a2,1
    3a2e:	4581                	li	a1,0
    3a30:	1008                	addi	a0,sp,32
    3a32:	2b29                	jal	3f4c <PM_MeasurePortInit>
    3a34:	03200513          	li	a0,50
    3a38:	737010ef          	jal	ra,596e <Delay_Ms>
    3a3c:	461d                	li	a2,7
    3a3e:	45c1                	li	a1,16
    3a40:	4521                	li	a0,8
    3a42:	e61fd0ef          	jal	ra,18a2 <PM_DMA_GetADCAverage>
    3a46:	fe5fd0ef          	jal	ra,1a2a <PM_ADCRealVol>
    3a4a:	85aa                	mv	a1,a0
    3a4c:	8caa                	mv	s9,a0
    3a4e:	0000b537          	lui	a0,0xb
    3a52:	48850513          	addi	a0,a0,1160 # b488 <_read+0x36c>
    3a56:	074050ef          	jal	ra,8aca <iprintf>
    3a5a:	bbbff0ef          	jal	ra,3614 <PM_ComponentDischarge>
    3a5e:	03200513          	li	a0,50
    3a62:	70d010ef          	jal	ra,596e <Delay_Ms>
    3a66:	60890593          	addi	a1,s2,1544
    3a6a:	04c00613          	li	a2,76
    3a6e:	1008                	addi	a0,sp,32
    3a70:	5c6040ef          	jal	ra,8036 <memcpy>
    3a74:	4601                	li	a2,0
    3a76:	4585                	li	a1,1
    3a78:	1008                	addi	a0,sp,32
    3a7a:	29c9                	jal	3f4c <PM_MeasurePortInit>
    3a7c:	6a040593          	addi	a1,s0,1696
    3a80:	04c00613          	li	a2,76
    3a84:	1008                	addi	a0,sp,32
    3a86:	5b0040ef          	jal	ra,8036 <memcpy>
    3a8a:	4605                	li	a2,1
    3a8c:	4585                	li	a1,1
    3a8e:	1008                	addi	a0,sp,32
    3a90:	2975                	jal	3f4c <PM_MeasurePortInit>
    3a92:	65448593          	addi	a1,s1,1620
    3a96:	04c00613          	li	a2,76
    3a9a:	1008                	addi	a0,sp,32
    3a9c:	59a040ef          	jal	ra,8036 <memcpy>
    3aa0:	4605                	li	a2,1
    3aa2:	4581                	li	a1,0
    3aa4:	1008                	addi	a0,sp,32
    3aa6:	215d                	jal	3f4c <PM_MeasurePortInit>
    3aa8:	03200513          	li	a0,50
    3aac:	6c3010ef          	jal	ra,596e <Delay_Ms>
    3ab0:	461d                	li	a2,7
    3ab2:	45c1                	li	a1,16
    3ab4:	4501                	li	a0,0
    3ab6:	dedfd0ef          	jal	ra,18a2 <PM_DMA_GetADCAverage>
    3aba:	f71fd0ef          	jal	ra,1a2a <PM_ADCRealVol>
    3abe:	85aa                	mv	a1,a0
    3ac0:	8c2a                	mv	s8,a0
    3ac2:	0000b537          	lui	a0,0xb
    3ac6:	4a050513          	addi	a0,a0,1184 # b4a0 <_read+0x384>
    3aca:	000050ef          	jal	ra,8aca <iprintf>
    3ace:	b47ff0ef          	jal	ra,3614 <PM_ComponentDischarge>
    3ad2:	03200513          	li	a0,50
    3ad6:	699010ef          	jal	ra,596e <Delay_Ms>
    3ada:	6a040593          	addi	a1,s0,1696
    3ade:	04c00613          	li	a2,76
    3ae2:	1008                	addi	a0,sp,32
    3ae4:	552040ef          	jal	ra,8036 <memcpy>
    3ae8:	4601                	li	a2,0
    3aea:	4585                	li	a1,1
    3aec:	1008                	addi	a0,sp,32
    3aee:	29b9                	jal	3f4c <PM_MeasurePortInit>
    3af0:	60890593          	addi	a1,s2,1544
    3af4:	04c00613          	li	a2,76
    3af8:	1008                	addi	a0,sp,32
    3afa:	53c040ef          	jal	ra,8036 <memcpy>
    3afe:	4605                	li	a2,1
    3b00:	4585                	li	a1,1
    3b02:	1008                	addi	a0,sp,32
    3b04:	21a1                	jal	3f4c <PM_MeasurePortInit>
    3b06:	65448593          	addi	a1,s1,1620
    3b0a:	04c00613          	li	a2,76
    3b0e:	1008                	addi	a0,sp,32
    3b10:	526040ef          	jal	ra,8036 <memcpy>
    3b14:	4605                	li	a2,1
    3b16:	4581                	li	a1,0
    3b18:	1008                	addi	a0,sp,32
    3b1a:	290d                	jal	3f4c <PM_MeasurePortInit>
    3b1c:	03200513          	li	a0,50
    3b20:	64f010ef          	jal	ra,596e <Delay_Ms>
    3b24:	461d                	li	a2,7
    3b26:	45c1                	li	a1,16
    3b28:	4525                	li	a0,9
    3b2a:	d79fd0ef          	jal	ra,18a2 <PM_DMA_GetADCAverage>
    3b2e:	efdfd0ef          	jal	ra,1a2a <PM_ADCRealVol>
    3b32:	85aa                	mv	a1,a0
    3b34:	8aaa                	mv	s5,a0
    3b36:	0000b537          	lui	a0,0xb
    3b3a:	4b850513          	addi	a0,a0,1208 # b4b8 <_read+0x39c>
    3b3e:	78d040ef          	jal	ra,8aca <iprintf>
    3b42:	ad3ff0ef          	jal	ra,3614 <PM_ComponentDischarge>
    3b46:	03200513          	li	a0,50
    3b4a:	625010ef          	jal	ra,596e <Delay_Ms>
    3b4e:	65448593          	addi	a1,s1,1620
    3b52:	04c00613          	li	a2,76
    3b56:	1008                	addi	a0,sp,32
    3b58:	4de040ef          	jal	ra,8036 <memcpy>
    3b5c:	4601                	li	a2,0
    3b5e:	4585                	li	a1,1
    3b60:	1008                	addi	a0,sp,32
    3b62:	26ed                	jal	3f4c <PM_MeasurePortInit>
    3b64:	60890593          	addi	a1,s2,1544
    3b68:	04c00613          	li	a2,76
    3b6c:	1008                	addi	a0,sp,32
    3b6e:	4c8040ef          	jal	ra,8036 <memcpy>
    3b72:	4605                	li	a2,1
    3b74:	4585                	li	a1,1
    3b76:	1008                	addi	a0,sp,32
    3b78:	2ed1                	jal	3f4c <PM_MeasurePortInit>
    3b7a:	6a040593          	addi	a1,s0,1696
    3b7e:	04c00613          	li	a2,76
    3b82:	1008                	addi	a0,sp,32
    3b84:	4b2040ef          	jal	ra,8036 <memcpy>
    3b88:	4605                	li	a2,1
    3b8a:	4581                	li	a1,0
    3b8c:	1008                	addi	a0,sp,32
    3b8e:	2e7d                	jal	3f4c <PM_MeasurePortInit>
    3b90:	03200513          	li	a0,50
    3b94:	5db010ef          	jal	ra,596e <Delay_Ms>
    3b98:	461d                	li	a2,7
    3b9a:	45c1                	li	a1,16
    3b9c:	4521                	li	a0,8
    3b9e:	d05fd0ef          	jal	ra,18a2 <PM_DMA_GetADCAverage>
    3ba2:	e89fd0ef          	jal	ra,1a2a <PM_ADCRealVol>
    3ba6:	85aa                	mv	a1,a0
    3ba8:	8a2a                	mv	s4,a0
    3baa:	0000b537          	lui	a0,0xb
    3bae:	4d050513          	addi	a0,a0,1232 # b4d0 <_read+0x3b4>
    3bb2:	719040ef          	jal	ra,8aca <iprintf>
    3bb6:	a5fff0ef          	jal	ra,3614 <PM_ComponentDischarge>
    3bba:	03200513          	li	a0,50
    3bbe:	5b1010ef          	jal	ra,596e <Delay_Ms>
    3bc2:	6a040593          	addi	a1,s0,1696
    3bc6:	04c00613          	li	a2,76
    3bca:	1008                	addi	a0,sp,32
    3bcc:	46a040ef          	jal	ra,8036 <memcpy>
    3bd0:	4601                	li	a2,0
    3bd2:	4585                	li	a1,1
    3bd4:	1008                	addi	a0,sp,32
    3bd6:	2e9d                	jal	3f4c <PM_MeasurePortInit>
    3bd8:	65448593          	addi	a1,s1,1620
    3bdc:	04c00613          	li	a2,76
    3be0:	1008                	addi	a0,sp,32
    3be2:	454040ef          	jal	ra,8036 <memcpy>
    3be6:	4605                	li	a2,1
    3be8:	4585                	li	a1,1
    3bea:	1008                	addi	a0,sp,32
    3bec:	2685                	jal	3f4c <PM_MeasurePortInit>
    3bee:	60890593          	addi	a1,s2,1544
    3bf2:	04c00613          	li	a2,76
    3bf6:	1008                	addi	a0,sp,32
    3bf8:	43e040ef          	jal	ra,8036 <memcpy>
    3bfc:	4605                	li	a2,1
    3bfe:	4581                	li	a1,0
    3c00:	1008                	addi	a0,sp,32
    3c02:	26a9                	jal	3f4c <PM_MeasurePortInit>
    3c04:	03200513          	li	a0,50
    3c08:	567010ef          	jal	ra,596e <Delay_Ms>
    3c0c:	461d                	li	a2,7
    3c0e:	45c1                	li	a1,16
    3c10:	4525                	li	a0,9
    3c12:	c91fd0ef          	jal	ra,18a2 <PM_DMA_GetADCAverage>
    3c16:	e15fd0ef          	jal	ra,1a2a <PM_ADCRealVol>
    3c1a:	85aa                	mv	a1,a0
    3c1c:	89aa                	mv	s3,a0
    3c1e:	0000b537          	lui	a0,0xb
    3c22:	4e850513          	addi	a0,a0,1256 # b4e8 <_read+0x3cc>
    3c26:	6a5040ef          	jal	ra,8aca <iprintf>
    3c2a:	0659b793          	sltiu	a5,s3,101
    3c2e:	0017c793          	xori	a5,a5,1
    3c32:	c63e                	sw	a5,12(sp)
    3c34:	9e1ff0ef          	jal	ra,3614 <PM_ComponentDischarge>
    3c38:	03200513          	li	a0,50
    3c3c:	533010ef          	jal	ra,596e <Delay_Ms>
    3c40:	60890593          	addi	a1,s2,1544
    3c44:	04c00613          	li	a2,76
    3c48:	1008                	addi	a0,sp,32
    3c4a:	3ec040ef          	jal	ra,8036 <memcpy>
    3c4e:	4601                	li	a2,0
    3c50:	4585                	li	a1,1
    3c52:	1008                	addi	a0,sp,32
    3c54:	2ce5                	jal	3f4c <PM_MeasurePortInit>
    3c56:	65448593          	addi	a1,s1,1620
    3c5a:	04c00613          	li	a2,76
    3c5e:	1008                	addi	a0,sp,32
    3c60:	3d6040ef          	jal	ra,8036 <memcpy>
    3c64:	4605                	li	a2,1
    3c66:	4585                	li	a1,1
    3c68:	1008                	addi	a0,sp,32
    3c6a:	24cd                	jal	3f4c <PM_MeasurePortInit>
    3c6c:	6a040593          	addi	a1,s0,1696
    3c70:	04c00613          	li	a2,76
    3c74:	1008                	addi	a0,sp,32
    3c76:	3c0040ef          	jal	ra,8036 <memcpy>
    3c7a:	4605                	li	a2,1
    3c7c:	4581                	li	a1,0
    3c7e:	1008                	addi	a0,sp,32
    3c80:	24f1                	jal	3f4c <PM_MeasurePortInit>
    3c82:	03200513          	li	a0,50
    3c86:	4e9010ef          	jal	ra,596e <Delay_Ms>
    3c8a:	461d                	li	a2,7
    3c8c:	45c1                	li	a1,16
    3c8e:	4501                	li	a0,0
    3c90:	c13fd0ef          	jal	ra,18a2 <PM_DMA_GetADCAverage>
    3c94:	d97fd0ef          	jal	ra,1a2a <PM_ADCRealVol>
    3c98:	85aa                	mv	a1,a0
    3c9a:	84aa                	mv	s1,a0
    3c9c:	0000b537          	lui	a0,0xb
    3ca0:	50050513          	addi	a0,a0,1280 # b500 <_read+0x3e4>
    3ca4:	627040ef          	jal	ra,8aca <iprintf>
    3ca8:	46a2                	lw	a3,8(sp)
    3caa:	4792                	lw	a5,4(sp)
    3cac:	065dbd93          	sltiu	s11,s11,101
    3cb0:	065d3d13          	sltiu	s10,s10,101
    3cb4:	97b6                	add	a5,a5,a3
    3cb6:	065bbb93          	sltiu	s7,s7,101
    3cba:	46b2                	lw	a3,12(sp)
    3cbc:	065b3b13          	sltiu	s6,s6,101
    3cc0:	0654b493          	sltiu	s1,s1,101
    3cc4:	001dcd93          	xori	s11,s11,1
    3cc8:	001d4d13          	xori	s10,s10,1
    3ccc:	001bcb93          	xori	s7,s7,1
    3cd0:	001b4b13          	xori	s6,s6,1
    3cd4:	0014c713          	xori	a4,s1,1
    3cd8:	01ad8333          	add	t1,s11,s10
    3cdc:	016b8833          	add	a6,s7,s6
    3ce0:	0000b437          	lui	s0,0xb
    3ce4:	065cbc93          	sltiu	s9,s9,101
    3ce8:	065c3c13          	sltiu	s8,s8,101
    3cec:	065aba93          	sltiu	s5,s5,101
    3cf0:	065a3a13          	sltiu	s4,s4,101
    3cf4:	00e68933          	add	s2,a3,a4
    3cf8:	8642                	mv	a2,a6
    3cfa:	86be                	mv	a3,a5
    3cfc:	859a                	mv	a1,t1
    3cfe:	51840513          	addi	a0,s0,1304 # b518 <_read+0x3fc>
    3d02:	001ccc93          	xori	s9,s9,1
    3d06:	001c4c13          	xori	s8,s8,1
    3d0a:	001aca93          	xori	s5,s5,1
    3d0e:	001a4a13          	xori	s4,s4,1
    3d12:	ce3a                	sw	a4,28(sp)
    3d14:	cc3e                	sw	a5,24(sp)
    3d16:	ca42                	sw	a6,20(sp)
    3d18:	c81a                	sw	t1,16(sp)
    3d1a:	018c89b3          	add	s3,s9,s8
    3d1e:	5ad040ef          	jal	ra,8aca <iprintf>
    3d22:	014a84b3          	add	s1,s5,s4
    3d26:	51840513          	addi	a0,s0,1304
    3d2a:	86ca                	mv	a3,s2
    3d2c:	8626                	mv	a2,s1
    3d2e:	85ce                	mv	a1,s3
    3d30:	59b040ef          	jal	ra,8aca <iprintf>
    3d34:	4342                	lw	t1,16(sp)
    3d36:	a5018413          	addi	s0,gp,-1456 # 20000440 <ComponentFeature>
    3d3a:	4852                	lw	a6,20(sp)
    3d3c:	47e2                	lw	a5,24(sp)
    3d3e:	4772                	lw	a4,28(sp)
    3d40:	0c69e463          	bltu	s3,t1,3e08 <PM_ComponentQuickClassify+0x720>
    3d44:	01b40023          	sb	s11,0(s0)
    3d48:	01a400a3          	sb	s10,1(s0)
    3d4c:	00640323          	sb	t1,6(s0)
    3d50:	0d04e363          	bltu	s1,a6,3e16 <PM_ComponentQuickClassify+0x72e>
    3d54:	01740123          	sb	s7,2(s0)
    3d58:	016401a3          	sb	s6,3(s0)
    3d5c:	010403a3          	sb	a6,7(s0)
    3d60:	0cf96163          	bltu	s2,a5,3e22 <PM_ComponentQuickClassify+0x73a>
    3d64:	4712                	lw	a4,4(sp)
    3d66:	a41c                	sb	a5,8(s0)
    3d68:	a058                	sb	a4,4(s0)
    3d6a:	4722                	lw	a4,8(sp)
    3d6c:	b058                	sb	a4,5(s0)
    3d6e:	3010                	lbu	a2,1(s0)
    3d70:	200c                	lbu	a1,0(s0)
    3d72:	0000b537          	lui	a0,0xb
    3d76:	52c50513          	addi	a0,a0,1324 # b52c <_read+0x410>
    3d7a:	551040ef          	jal	ra,8aca <iprintf>
    3d7e:	3030                	lbu	a2,3(s0)
    3d80:	202c                	lbu	a1,2(s0)
    3d82:	0000b537          	lui	a0,0xb
    3d86:	56c50513          	addi	a0,a0,1388 # b56c <_read+0x450>
    3d8a:	541040ef          	jal	ra,8aca <iprintf>
    3d8e:	3050                	lbu	a2,5(s0)
    3d90:	204c                	lbu	a1,4(s0)
    3d92:	0000b537          	lui	a0,0xb
    3d96:	5ac50513          	addi	a0,a0,1452 # b5ac <_read+0x490>
    3d9a:	531040ef          	jal	ra,8aca <iprintf>
    3d9e:	2414                	lbu	a3,8(s0)
    3da0:	3070                	lbu	a2,7(s0)
    3da2:	206c                	lbu	a1,6(s0)
    3da4:	0000b537          	lui	a0,0xb
    3da8:	5ec50513          	addi	a0,a0,1516 # b5ec <_read+0x4d0>
    3dac:	51f040ef          	jal	ra,8aca <iprintf>
    3db0:	00640493          	addi	s1,s0,6
    3db4:	460d                	li	a2,3
    3db6:	81c18593          	addi	a1,gp,-2020 # 2000020c <RES_FEA>
    3dba:	8526                	mv	a0,s1
    3dbc:	8b3ff0ef          	jal	ra,366e <PM_ComponentFeatureCompare>
    3dc0:	4799                	li	a5,6
    3dc2:	ed1d                	bnez	a0,3e00 <PM_ComponentQuickClassify+0x718>
    3dc4:	460d                	li	a2,3
    3dc6:	83818593          	addi	a1,gp,-1992 # 20000228 <CAP_FEA>
    3dca:	8526                	mv	a0,s1
    3dcc:	8a3ff0ef          	jal	ra,366e <PM_ComponentFeatureCompare>
    3dd0:	4799                	li	a5,6
    3dd2:	e51d                	bnez	a0,3e00 <PM_ComponentQuickClassify+0x718>
    3dd4:	460d                	li	a2,3
    3dd6:	80c18593          	addi	a1,gp,-2036 # 200001fc <DIO_FEA>
    3dda:	8526                	mv	a0,s1
    3ddc:	893ff0ef          	jal	ra,366e <PM_ComponentFeatureCompare>
    3de0:	cd3d                	beqz	a0,3e5e <PM_ComponentQuickClassify+0x776>
    3de2:	2074                	lbu	a3,6(s0)
    3de4:	470d                	li	a4,3
    3de6:	a6018793          	addi	a5,gp,-1440 # 20000450 <ComponentMeasureResult>
    3dea:	c398                	sw	a4,0(a5)
    3dec:	4705                	li	a4,1
    3dee:	04e69363          	bne	a3,a4,3e34 <PM_ComponentQuickClassify+0x74c>
    3df2:	3018                	lbu	a4,1(s0)
    3df4:	02d71d63          	bne	a4,a3,3e2e <PM_ComponentQuickClassify+0x746>
    3df8:	10200713          	li	a4,258
    3dfc:	a79a                	sh	a4,8(a5)
    3dfe:	4791                	li	a5,4
    3e00:	853e                	mv	a0,a5
    3e02:	6165                	addi	sp,sp,112
    3e04:	c38fc06f          	j	23c <__riscv_restore_12>
    3e08:	01940023          	sb	s9,0(s0)
    3e0c:	018400a3          	sb	s8,1(s0)
    3e10:	01340323          	sb	s3,6(s0)
    3e14:	bf35                	j	3d50 <PM_ComponentQuickClassify+0x668>
    3e16:	01540123          	sb	s5,2(s0)
    3e1a:	014401a3          	sb	s4,3(s0)
    3e1e:	b064                	sb	s1,7(s0)
    3e20:	b781                	j	3d60 <PM_ComponentQuickClassify+0x678>
    3e22:	47b2                	lw	a5,12(sp)
    3e24:	b058                	sb	a4,5(s0)
    3e26:	01240423          	sb	s2,8(s0)
    3e2a:	a05c                	sb	a5,4(s0)
    3e2c:	b789                	j	3d6e <PM_ComponentQuickClassify+0x686>
    3e2e:	20100713          	li	a4,513
    3e32:	b7e9                	j	3dfc <PM_ComponentQuickClassify+0x714>
    3e34:	3074                	lbu	a3,7(s0)
    3e36:	00e69b63          	bne	a3,a4,3e4c <PM_ComponentQuickClassify+0x764>
    3e3a:	2038                	lbu	a4,2(s0)
    3e3c:	00d71563          	bne	a4,a3,3e46 <PM_ComponentQuickClassify+0x75e>
    3e40:	30200713          	li	a4,770
    3e44:	bf65                	j	3dfc <PM_ComponentQuickClassify+0x714>
    3e46:	20300713          	li	a4,515
    3e4a:	bf4d                	j	3dfc <PM_ComponentQuickClassify+0x714>
    3e4c:	2054                	lbu	a3,4(s0)
    3e4e:	00e69563          	bne	a3,a4,3e58 <PM_ComponentQuickClassify+0x770>
    3e52:	30100713          	li	a4,769
    3e56:	b75d                	j	3dfc <PM_ComponentQuickClassify+0x714>
    3e58:	10300713          	li	a4,259
    3e5c:	b745                	j	3dfc <PM_ComponentQuickClassify+0x714>
    3e5e:	460d                	li	a2,3
    3e60:	80818593          	addi	a1,gp,-2040 # 200001f8 <BJT_FEA>
    3e64:	8526                	mv	a0,s1
    3e66:	809ff0ef          	jal	ra,366e <PM_ComponentFeatureCompare>
    3e6a:	4785                	li	a5,1
    3e6c:	d951                	beqz	a0,3e00 <PM_ComponentQuickClassify+0x718>
    3e6e:	4691                	li	a3,4
    3e70:	a6d1a023          	sw	a3,-1440(gp) # 20000450 <ComponentMeasureResult>
    3e74:	2074                	lbu	a3,6(s0)
    3e76:	a6018713          	addi	a4,gp,-1440 # 20000450 <ComponentMeasureResult>
    3e7a:	ee89                	bnez	a3,3e94 <PM_ComponentQuickClassify+0x7ac>
    3e7c:	468d                	li	a3,3
    3e7e:	a734                	sb	a3,10(a4)
    3e80:	3034                	lbu	a3,3(s0)
    3e82:	00f69663          	bne	a3,a5,3e8e <PM_ComponentQuickClassify+0x7a6>
    3e86:	4785                	li	a5,1
    3e88:	a71c                	sb	a5,8(a4)
    3e8a:	4795                	li	a5,5
    3e8c:	bf95                	j	3e00 <PM_ComponentQuickClassify+0x718>
    3e8e:	00070423          	sb	zero,8(a4)
    3e92:	bfe5                	j	3e8a <PM_ComponentQuickClassify+0x7a2>
    3e94:	3074                	lbu	a3,7(s0)
    3e96:	e681                	bnez	a3,3e9e <PM_ComponentQuickClassify+0x7b6>
    3e98:	a73c                	sb	a5,10(a4)
    3e9a:	2054                	lbu	a3,4(s0)
    3e9c:	b7dd                	j	3e82 <PM_ComponentQuickClassify+0x79a>
    3e9e:	4689                	li	a3,2
    3ea0:	a734                	sb	a3,10(a4)
    3ea2:	3014                	lbu	a3,1(s0)
    3ea4:	bff9                	j	3e82 <PM_ComponentQuickClassify+0x79a>

00003ea6 <PM_GPIOInit>:
    3ea6:	459c                	lw	a5,8(a1)
    3ea8:	00f7f813          	andi	a6,a5,15
    3eac:	8bc1                	andi	a5,a5,16
    3eae:	c781                	beqz	a5,3eb6 <PM_GPIOInit+0x10>
    3eb0:	41dc                	lw	a5,4(a1)
    3eb2:	00f86833          	or	a6,a6,a5
    3eb6:	2192                	lhu	a2,0(a1)
    3eb8:	0ff67793          	andi	a5,a2,255
    3ebc:	cb9d                	beqz	a5,3ef2 <PM_GPIOInit+0x4c>
    3ebe:	4114                	lw	a3,0(a0)
    3ec0:	4701                	li	a4,0
    3ec2:	4885                	li	a7,1
    3ec4:	45a1                	li	a1,8
    3ec6:	00e897b3          	sll	a5,a7,a4
    3eca:	00f67333          	and	t1,a2,a5
    3ece:	00679e63          	bne	a5,t1,3eea <PM_GPIOInit+0x44>
    3ed2:	070a                	slli	a4,a4,0x2
    3ed4:	463d                	li	a2,15
    3ed6:	00e61633          	sll	a2,a2,a4
    3eda:	fff64613          	not	a2,a2
    3ede:	8ef1                	and	a3,a3,a2
    3ee0:	00e81733          	sll	a4,a6,a4
    3ee4:	8ed9                	or	a3,a3,a4
    3ee6:	c114                	sw	a3,0(a0)
    3ee8:	8082                	ret
    3eea:	0705                	addi	a4,a4,1
    3eec:	fcb71de3          	bne	a4,a1,3ec6 <PM_GPIOInit+0x20>
    3ef0:	bfdd                	j	3ee6 <PM_GPIOInit+0x40>
    3ef2:	4154                	lw	a3,4(a0)
    3ef4:	4781                	li	a5,0
    3ef6:	4885                	li	a7,1
    3ef8:	45a1                	li	a1,8
    3efa:	00878713          	addi	a4,a5,8
    3efe:	00e89733          	sll	a4,a7,a4
    3f02:	00e67333          	and	t1,a2,a4
    3f06:	00671e63          	bne	a4,t1,3f22 <PM_GPIOInit+0x7c>
    3f0a:	078a                	slli	a5,a5,0x2
    3f0c:	463d                	li	a2,15
    3f0e:	00f61633          	sll	a2,a2,a5
    3f12:	fff64613          	not	a2,a2
    3f16:	8ef1                	and	a3,a3,a2
    3f18:	00f817b3          	sll	a5,a6,a5
    3f1c:	8edd                	or	a3,a3,a5
    3f1e:	c154                	sw	a3,4(a0)
    3f20:	8082                	ret
    3f22:	0785                	addi	a5,a5,1
    3f24:	fcb79be3          	bne	a5,a1,3efa <PM_GPIOInit+0x54>
    3f28:	bfdd                	j	3f1e <PM_GPIOInit+0x78>

00003f2a <PM_GPIOModeCfg>:
    3f2a:	b06fc2ef          	jal	t0,230 <__riscv_save_0>
    3f2e:	215e                	lhu	a5,4(a0)
    3f30:	4108                	lw	a0,0(a0)
    3f32:	1141                	addi	sp,sp,-16
    3f34:	827c                	sh	a5,4(sp)
    3f36:	c62e                	sw	a1,12(sp)
    3f38:	478d                	li	a5,3
    3f3a:	004c                	addi	a1,sp,4
    3f3c:	c43e                	sw	a5,8(sp)
    3f3e:	00011323          	sh	zero,6(sp)
    3f42:	f65ff0ef          	jal	ra,3ea6 <PM_GPIOInit>
    3f46:	0141                	addi	sp,sp,16
    3f48:	b0cfc06f          	j	254 <__riscv_restore_0>

00003f4c <PM_MeasurePortInit>:
    3f4c:	abcfc2ef          	jal	t0,208 <__riscv_save_10>
    3f50:	00052b83          	lw	s7,0(a0)
    3f54:	00455c03          	lhu	s8,4(a0)
    3f58:	01852a83          	lw	s5,24(a0)
    3f5c:	01c55b03          	lhu	s6,28(a0)
    3f60:	03052983          	lw	s3,48(a0)
    3f64:	03455a03          	lhu	s4,52(a0)
    3f68:	1101                	addi	sp,sp,-32
    3f6a:	842a                	mv	s0,a0
    3f6c:	84ae                	mv	s1,a1
    3f6e:	06c00513          	li	a0,108
    3f72:	4585                	li	a1,1
    3f74:	8932                	mv	s2,a2
    3f76:	d8efd0ef          	jal	ra,1504 <RCC_APB2PeriphClockCmd>
    3f7a:	4785                	li	a5,1
    3f7c:	06f48363          	beq	s1,a5,3fe2 <PM_MeasurePortInit+0x96>
    3f80:	c891                	beqz	s1,3f94 <PM_MeasurePortInit+0x48>
    3f82:	4789                	li	a5,2
    3f84:	08f48f63          	beq	s1,a5,4022 <PM_MeasurePortInit+0xd6>
    3f88:	478d                	li	a5,3
    3f8a:	0cf48c63          	beq	s1,a5,4062 <PM_MeasurePortInit+0x116>
    3f8e:	6105                	addi	sp,sp,32
    3f90:	ab0fc06f          	j	240 <__riscv_restore_10>
    3f94:	4661                	li	a2,24
    3f96:	01840593          	addi	a1,s0,24
    3f9a:	850a                	mv	a0,sp
    3f9c:	09a040ef          	jal	ra,8036 <memcpy>
    3fa0:	4581                	li	a1,0
    3fa2:	850a                	mv	a0,sp
    3fa4:	f87ff0ef          	jal	ra,3f2a <PM_GPIOModeCfg>
    3fa8:	4661                	li	a2,24
    3faa:	03040593          	addi	a1,s0,48
    3fae:	850a                	mv	a0,sp
    3fb0:	086040ef          	jal	ra,8036 <memcpy>
    3fb4:	4581                	li	a1,0
    3fb6:	850a                	mv	a0,sp
    3fb8:	f73ff0ef          	jal	ra,3f2a <PM_GPIOModeCfg>
    3fbc:	85e2                	mv	a1,s8
    3fbe:	855e                	mv	a0,s7
    3fc0:	00090e63          	beqz	s2,3fdc <PM_MeasurePortInit+0x90>
    3fc4:	848fd0ef          	jal	ra,100c <GPIO_SetBits>
    3fc8:	4661                	li	a2,24
    3fca:	85a2                	mv	a1,s0
    3fcc:	850a                	mv	a0,sp
    3fce:	068040ef          	jal	ra,8036 <memcpy>
    3fd2:	45c1                	li	a1,16
    3fd4:	850a                	mv	a0,sp
    3fd6:	f55ff0ef          	jal	ra,3f2a <PM_GPIOModeCfg>
    3fda:	bf55                	j	3f8e <PM_MeasurePortInit+0x42>
    3fdc:	834fd0ef          	jal	ra,1010 <GPIO_ResetBits>
    3fe0:	b7e5                	j	3fc8 <PM_MeasurePortInit+0x7c>
    3fe2:	4661                	li	a2,24
    3fe4:	85a2                	mv	a1,s0
    3fe6:	850a                	mv	a0,sp
    3fe8:	04e040ef          	jal	ra,8036 <memcpy>
    3fec:	4581                	li	a1,0
    3fee:	850a                	mv	a0,sp
    3ff0:	f3bff0ef          	jal	ra,3f2a <PM_GPIOModeCfg>
    3ff4:	4661                	li	a2,24
    3ff6:	03040593          	addi	a1,s0,48
    3ffa:	850a                	mv	a0,sp
    3ffc:	03a040ef          	jal	ra,8036 <memcpy>
    4000:	4581                	li	a1,0
    4002:	850a                	mv	a0,sp
    4004:	f27ff0ef          	jal	ra,3f2a <PM_GPIOModeCfg>
    4008:	85da                	mv	a1,s6
    400a:	8556                	mv	a0,s5
    400c:	00090863          	beqz	s2,401c <PM_MeasurePortInit+0xd0>
    4010:	ffdfc0ef          	jal	ra,100c <GPIO_SetBits>
    4014:	4661                	li	a2,24
    4016:	01840593          	addi	a1,s0,24
    401a:	bf4d                	j	3fcc <PM_MeasurePortInit+0x80>
    401c:	ff5fc0ef          	jal	ra,1010 <GPIO_ResetBits>
    4020:	bfd5                	j	4014 <PM_MeasurePortInit+0xc8>
    4022:	4661                	li	a2,24
    4024:	85a2                	mv	a1,s0
    4026:	850a                	mv	a0,sp
    4028:	00e040ef          	jal	ra,8036 <memcpy>
    402c:	4581                	li	a1,0
    402e:	850a                	mv	a0,sp
    4030:	efbff0ef          	jal	ra,3f2a <PM_GPIOModeCfg>
    4034:	4661                	li	a2,24
    4036:	01840593          	addi	a1,s0,24
    403a:	850a                	mv	a0,sp
    403c:	7fb030ef          	jal	ra,8036 <memcpy>
    4040:	4581                	li	a1,0
    4042:	850a                	mv	a0,sp
    4044:	ee7ff0ef          	jal	ra,3f2a <PM_GPIOModeCfg>
    4048:	85d2                	mv	a1,s4
    404a:	854e                	mv	a0,s3
    404c:	00090863          	beqz	s2,405c <PM_MeasurePortInit+0x110>
    4050:	fbdfc0ef          	jal	ra,100c <GPIO_SetBits>
    4054:	4661                	li	a2,24
    4056:	03040593          	addi	a1,s0,48
    405a:	bf8d                	j	3fcc <PM_MeasurePortInit+0x80>
    405c:	fb5fc0ef          	jal	ra,1010 <GPIO_ResetBits>
    4060:	bfd5                	j	4054 <PM_MeasurePortInit+0x108>
    4062:	4661                	li	a2,24
    4064:	85a2                	mv	a1,s0
    4066:	850a                	mv	a0,sp
    4068:	7cf030ef          	jal	ra,8036 <memcpy>
    406c:	4581                	li	a1,0
    406e:	850a                	mv	a0,sp
    4070:	ebbff0ef          	jal	ra,3f2a <PM_GPIOModeCfg>
    4074:	4661                	li	a2,24
    4076:	01840593          	addi	a1,s0,24
    407a:	850a                	mv	a0,sp
    407c:	7bb030ef          	jal	ra,8036 <memcpy>
    4080:	4581                	li	a1,0
    4082:	850a                	mv	a0,sp
    4084:	ea7ff0ef          	jal	ra,3f2a <PM_GPIOModeCfg>
    4088:	03040593          	addi	a1,s0,48
    408c:	4661                	li	a2,24
    408e:	850a                	mv	a0,sp
    4090:	7a7030ef          	jal	ra,8036 <memcpy>
    4094:	4581                	li	a1,0
    4096:	bf3d                	j	3fd4 <PM_MeasurePortInit+0x88>

00004098 <PM_CheckIsResistance>:
    4098:	970fc2ef          	jal	t0,208 <__riscv_save_10>
    409c:	715d                	addi	sp,sp,-80
    409e:	d76ff0ef          	jal	ra,3614 <PM_ComponentDischarge>
    40a2:	03200513          	li	a0,50
    40a6:	0c9010ef          	jal	ra,596e <Delay_Ms>
    40aa:	64ad                	lui	s1,0xb
    40ac:	04c00613          	li	a2,76
    40b0:	6a048593          	addi	a1,s1,1696 # b6a0 <PortGroup_3>
    40b4:	850a                	mv	a0,sp
    40b6:	781030ef          	jal	ra,8036 <memcpy>
    40ba:	4601                	li	a2,0
    40bc:	458d                	li	a1,3
    40be:	850a                	mv	a0,sp
    40c0:	e8dff0ef          	jal	ra,3f4c <PM_MeasurePortInit>
    40c4:	692d                	lui	s2,0xb
    40c6:	04c00613          	li	a2,76
    40ca:	65490593          	addi	a1,s2,1620 # b654 <PortGroup_2>
    40ce:	850a                	mv	a0,sp
    40d0:	767030ef          	jal	ra,8036 <memcpy>
    40d4:	4601                	li	a2,0
    40d6:	4589                	li	a1,2
    40d8:	850a                	mv	a0,sp
    40da:	e73ff0ef          	jal	ra,3f4c <PM_MeasurePortInit>
    40de:	642d                	lui	s0,0xb
    40e0:	04c00613          	li	a2,76
    40e4:	60840593          	addi	a1,s0,1544 # b608 <PortGroup_1>
    40e8:	850a                	mv	a0,sp
    40ea:	74d030ef          	jal	ra,8036 <memcpy>
    40ee:	4605                	li	a2,1
    40f0:	4581                	li	a1,0
    40f2:	850a                	mv	a0,sp
    40f4:	e59ff0ef          	jal	ra,3f4c <PM_MeasurePortInit>
    40f8:	03200513          	li	a0,50
    40fc:	073010ef          	jal	ra,596e <Delay_Ms>
    4100:	65490b13          	addi	s6,s2,1620
    4104:	048b4503          	lbu	a0,72(s6)
    4108:	461d                	li	a2,7
    410a:	45c1                	li	a1,16
    410c:	f96fd0ef          	jal	ra,18a2 <PM_DMA_GetADCAverage>
    4110:	91bfd0ef          	jal	ra,1a2a <PM_ADCRealVol>
    4114:	862a                	mv	a2,a0
    4116:	85aa                	mv	a1,a0
    4118:	8baa                	mv	s7,a0
    411a:	0000b537          	lui	a0,0xb
    411e:	39050513          	addi	a0,a0,912 # b390 <_read+0x274>
    4122:	03200a13          	li	s4,50
    4126:	60840a93          	addi	s5,s0,1544
    412a:	1a1040ef          	jal	ra,8aca <iprintf>
    412e:	037a7163          	bgeu	s4,s7,4150 <PM_CheckIsResistance+0xb8>
    4132:	4705                	li	a4,1
    4134:	a6e1a023          	sw	a4,-1440(gp) # 20000450 <ComponentMeasureResult>
    4138:	049ac703          	lbu	a4,73(s5)
    413c:	a6018793          	addi	a5,gp,-1440 # 20000450 <ComponentMeasureResult>
    4140:	a798                	sb	a4,8(a5)
    4142:	049b4703          	lbu	a4,73(s6)
    4146:	b798                	sb	a4,9(a5)
    4148:	4505                	li	a0,1
    414a:	6161                	addi	sp,sp,80
    414c:	8f4fc06f          	j	240 <__riscv_restore_10>
    4150:	cc4ff0ef          	jal	ra,3614 <PM_ComponentDischarge>
    4154:	03200513          	li	a0,50
    4158:	017010ef          	jal	ra,596e <Delay_Ms>
    415c:	04c00613          	li	a2,76
    4160:	60840593          	addi	a1,s0,1544
    4164:	850a                	mv	a0,sp
    4166:	6d1030ef          	jal	ra,8036 <memcpy>
    416a:	4601                	li	a2,0
    416c:	458d                	li	a1,3
    416e:	850a                	mv	a0,sp
    4170:	dddff0ef          	jal	ra,3f4c <PM_MeasurePortInit>
    4174:	04c00613          	li	a2,76
    4178:	6a048593          	addi	a1,s1,1696
    417c:	850a                	mv	a0,sp
    417e:	6b9030ef          	jal	ra,8036 <memcpy>
    4182:	4601                	li	a2,0
    4184:	4589                	li	a1,2
    4186:	850a                	mv	a0,sp
    4188:	dc5ff0ef          	jal	ra,3f4c <PM_MeasurePortInit>
    418c:	04c00613          	li	a2,76
    4190:	65490593          	addi	a1,s2,1620
    4194:	850a                	mv	a0,sp
    4196:	6a1030ef          	jal	ra,8036 <memcpy>
    419a:	4605                	li	a2,1
    419c:	4581                	li	a1,0
    419e:	850a                	mv	a0,sp
    41a0:	dadff0ef          	jal	ra,3f4c <PM_MeasurePortInit>
    41a4:	03200513          	li	a0,50
    41a8:	6a048993          	addi	s3,s1,1696
    41ac:	7c2010ef          	jal	ra,596e <Delay_Ms>
    41b0:	0489cc03          	lbu	s8,72(s3)
    41b4:	461d                	li	a2,7
    41b6:	45c1                	li	a1,16
    41b8:	8562                	mv	a0,s8
    41ba:	ee8fd0ef          	jal	ra,18a2 <PM_DMA_GetADCAverage>
    41be:	86dfd0ef          	jal	ra,1a2a <PM_ADCRealVol>
    41c2:	8baa                	mv	s7,a0
    41c4:	862a                	mv	a2,a0
    41c6:	85aa                	mv	a1,a0
    41c8:	0000b537          	lui	a0,0xb
    41cc:	3a050513          	addi	a0,a0,928 # b3a0 <_read+0x284>
    41d0:	0fb040ef          	jal	ra,8aca <iprintf>
    41d4:	017a7d63          	bgeu	s4,s7,41ee <PM_CheckIsResistance+0x156>
    41d8:	4705                	li	a4,1
    41da:	a6e1a023          	sw	a4,-1440(gp) # 20000450 <ComponentMeasureResult>
    41de:	049b4703          	lbu	a4,73(s6)
    41e2:	a6018793          	addi	a5,gp,-1440 # 20000450 <ComponentMeasureResult>
    41e6:	a798                	sb	a4,8(a5)
    41e8:	0499c703          	lbu	a4,73(s3)
    41ec:	bfa9                	j	4146 <PM_CheckIsResistance+0xae>
    41ee:	c26ff0ef          	jal	ra,3614 <PM_ComponentDischarge>
    41f2:	03200513          	li	a0,50
    41f6:	778010ef          	jal	ra,596e <Delay_Ms>
    41fa:	04c00613          	li	a2,76
    41fe:	65490593          	addi	a1,s2,1620
    4202:	850a                	mv	a0,sp
    4204:	633030ef          	jal	ra,8036 <memcpy>
    4208:	4601                	li	a2,0
    420a:	458d                	li	a1,3
    420c:	850a                	mv	a0,sp
    420e:	d3fff0ef          	jal	ra,3f4c <PM_MeasurePortInit>
    4212:	04c00613          	li	a2,76
    4216:	6a048593          	addi	a1,s1,1696
    421a:	850a                	mv	a0,sp
    421c:	61b030ef          	jal	ra,8036 <memcpy>
    4220:	4601                	li	a2,0
    4222:	4589                	li	a1,2
    4224:	850a                	mv	a0,sp
    4226:	d27ff0ef          	jal	ra,3f4c <PM_MeasurePortInit>
    422a:	60840593          	addi	a1,s0,1544
    422e:	04c00613          	li	a2,76
    4232:	850a                	mv	a0,sp
    4234:	603030ef          	jal	ra,8036 <memcpy>
    4238:	4605                	li	a2,1
    423a:	4581                	li	a1,0
    423c:	850a                	mv	a0,sp
    423e:	d0fff0ef          	jal	ra,3f4c <PM_MeasurePortInit>
    4242:	03200513          	li	a0,50
    4246:	728010ef          	jal	ra,596e <Delay_Ms>
    424a:	461d                	li	a2,7
    424c:	45c1                	li	a1,16
    424e:	8562                	mv	a0,s8
    4250:	e52fd0ef          	jal	ra,18a2 <PM_DMA_GetADCAverage>
    4254:	fd6fd0ef          	jal	ra,1a2a <PM_ADCRealVol>
    4258:	862a                	mv	a2,a0
    425a:	85aa                	mv	a1,a0
    425c:	842a                	mv	s0,a0
    425e:	0000b537          	lui	a0,0xb
    4262:	3b050513          	addi	a0,a0,944 # b3b0 <_read+0x294>
    4266:	065040ef          	jal	ra,8aca <iprintf>
    426a:	4501                	li	a0,0
    426c:	ec8a7fe3          	bgeu	s4,s0,414a <PM_CheckIsResistance+0xb2>
    4270:	4705                	li	a4,1
    4272:	a6e1a023          	sw	a4,-1440(gp) # 20000450 <ComponentMeasureResult>
    4276:	a6018793          	addi	a5,gp,-1440 # 20000450 <ComponentMeasureResult>
    427a:	049ac703          	lbu	a4,73(s5)
    427e:	b7a5                	j	41e6 <PM_CheckIsResistance+0x14e>

00004280 <PM_MeasureResistance>:
    4280:	f81fb2ef          	jal	t0,200 <__riscv_save_12>
    4284:	a6018793          	addi	a5,gp,-1440 # 20000450 <ComponentMeasureResult>
    4288:	279e                	lhu	a5,8(a5)
    428a:	7119                	addi	sp,sp,-128
    428c:	a6018713          	addi	a4,gp,-1440 # 20000450 <ComponentMeasureResult>
    4290:	30100693          	li	a3,769
    4294:	ce3a                	sw	a4,28(sp)
    4296:	4ed79263          	bne	a5,a3,477a <PM_MeasureResistance+0x4fa>
    429a:	69ad                	lui	s3,0xb
    429c:	04c00613          	li	a2,76
    42a0:	65498593          	addi	a1,s3,1620 # b654 <PortGroup_2>
    42a4:	1808                	addi	a0,sp,48
    42a6:	591030ef          	jal	ra,8036 <memcpy>
    42aa:	4601                	li	a2,0
    42ac:	458d                	li	a1,3
    42ae:	1808                	addi	a0,sp,48
    42b0:	c9dff0ef          	jal	ra,3f4c <PM_MeasurePortInit>
    42b4:	64ad                	lui	s1,0xb
    42b6:	60848593          	addi	a1,s1,1544 # b608 <PortGroup_1>
    42ba:	04c00613          	li	a2,76
    42be:	1808                	addi	a0,sp,48
    42c0:	577030ef          	jal	ra,8036 <memcpy>
    42c4:	4601                	li	a2,0
    42c6:	4581                	li	a1,0
    42c8:	1808                	addi	a0,sp,48
    42ca:	c83ff0ef          	jal	ra,3f4c <PM_MeasurePortInit>
    42ce:	6cad                	lui	s9,0xb
    42d0:	04c00613          	li	a2,76
    42d4:	6a0c8593          	addi	a1,s9,1696 # b6a0 <PortGroup_3>
    42d8:	1808                	addi	a0,sp,48
    42da:	55d030ef          	jal	ra,8036 <memcpy>
    42de:	4605                	li	a2,1
    42e0:	4585                	li	a1,1
    42e2:	1808                	addi	a0,sp,48
    42e4:	c69ff0ef          	jal	ra,3f4c <PM_MeasurePortInit>
    42e8:	6a0c8413          	addi	s0,s9,1696
    42ec:	03200513          	li	a0,50
    42f0:	67e010ef          	jal	ra,596e <Delay_Ms>
    42f4:	04844b03          	lbu	s6,72(s0)
    42f8:	461d                	li	a2,7
    42fa:	45c1                	li	a1,16
    42fc:	855a                	mv	a0,s6
    42fe:	da4fd0ef          	jal	ra,18a2 <PM_DMA_GetADCAverage>
    4302:	cc2a                	sw	a0,24(sp)
    4304:	f26fd0ef          	jal	ra,1a2a <PM_ADCRealVol>
    4308:	45e2                	lw	a1,24(sp)
    430a:	862a                	mv	a2,a0
    430c:	842a                	mv	s0,a0
    430e:	0000b537          	lui	a0,0xb
    4312:	70050513          	addi	a0,a0,1792 # b700 <PortGroup_3+0x60>
    4316:	7b4040ef          	jal	ra,8aca <iprintf>
    431a:	6785                	lui	a5,0x1
    431c:	cc26                	sw	s1,24(sp)
    431e:	cb278793          	addi	a5,a5,-846 # cb2 <DMA_DeInit+0x1c>
    4322:	d04e                	sw	s3,32(sp)
    4324:	60848493          	addi	s1,s1,1544
    4328:	6a0c8c13          	addi	s8,s9,1696
    432c:	3887e663          	bltu	a5,s0,46b8 <PM_MeasureResistance+0x438>
    4330:	8522                	mv	a0,s0
    4332:	315030ef          	jal	ra,7e46 <__floatunsisf>
    4336:	48cc                	lw	a1,20(s1)
    4338:	786030ef          	jal	ra,7abe <__subsf3>
    433c:	3d9030ef          	jal	ra,7f14 <__extendsfdf2>
    4340:	892a                	mv	s2,a0
    4342:	020c2503          	lw	a0,32(s8)
    4346:	89ae                	mv	s3,a1
    4348:	3cd030ef          	jal	ra,7f14 <__extendsfdf2>
    434c:	0000b7b7          	lui	a5,0xb
    4350:	3687a603          	lw	a2,872(a5) # b368 <_read+0x24c>
    4354:	36c7a683          	lw	a3,876(a5)
    4358:	407010ef          	jal	ra,5f5e <__adddf3>
    435c:	862a                	mv	a2,a0
    435e:	86ae                	mv	a3,a1
    4360:	854a                	mv	a0,s2
    4362:	85ce                	mv	a1,s3
    4364:	1f7020ef          	jal	ra,6d5a <__muldf3>
    4368:	892a                	mv	s2,a0
    436a:	024c2503          	lw	a0,36(s8)
    436e:	89ae                	mv	s3,a1
    4370:	3a5030ef          	jal	ra,7f14 <__extendsfdf2>
    4374:	0000b7b7          	lui	a5,0xb
    4378:	862a                	mv	a2,a0
    437a:	86ae                	mv	a3,a1
    437c:	3607a503          	lw	a0,864(a5) # b360 <_read+0x244>
    4380:	3647a583          	lw	a1,868(a5)
    4384:	68f020ef          	jal	ra,7212 <__subdf3>
    4388:	8a2a                	mv	s4,a0
    438a:	8522                	mv	a0,s0
    438c:	8aae                	mv	s5,a1
    438e:	6ca030ef          	jal	ra,7a58 <__floatunsidf>
    4392:	862a                	mv	a2,a0
    4394:	86ae                	mv	a3,a1
    4396:	8552                	mv	a0,s4
    4398:	85d6                	mv	a1,s5
    439a:	679020ef          	jal	ra,7212 <__subdf3>
    439e:	862a                	mv	a2,a0
    43a0:	86ae                	mv	a3,a1
    43a2:	854a                	mv	a0,s2
    43a4:	85ce                	mv	a1,s3
    43a6:	2e8020ef          	jal	ra,668e <__divdf3>
    43aa:	892a                	mv	s2,a0
    43ac:	4888                	lw	a0,16(s1)
    43ae:	89ae                	mv	s3,a1
    43b0:	4401                	li	s0,0
    43b2:	363030ef          	jal	ra,7f14 <__extendsfdf2>
    43b6:	862a                	mv	a2,a0
    43b8:	86ae                	mv	a3,a1
    43ba:	854a                	mv	a0,s2
    43bc:	85ce                	mv	a1,s3
    43be:	655020ef          	jal	ra,7212 <__subdf3>
    43c2:	892a                	mv	s2,a0
    43c4:	8101a503          	lw	a0,-2032(gp) # 20000200 <PM_Probe1Res>
    43c8:	89ae                	mv	s3,a1
    43ca:	34b030ef          	jal	ra,7f14 <__extendsfdf2>
    43ce:	862a                	mv	a2,a0
    43d0:	86ae                	mv	a3,a1
    43d2:	854a                	mv	a0,s2
    43d4:	85ce                	mv	a1,s3
    43d6:	63d020ef          	jal	ra,7212 <__subdf3>
    43da:	892a                	mv	s2,a0
    43dc:	89ae                	mv	s3,a1
    43de:	5782                	lw	a5,32(sp)
    43e0:	04c00613          	li	a2,76
    43e4:	1808                	addi	a0,sp,48
    43e6:	65478593          	addi	a1,a5,1620
    43ea:	44d030ef          	jal	ra,8036 <memcpy>
    43ee:	4601                	li	a2,0
    43f0:	458d                	li	a1,3
    43f2:	1808                	addi	a0,sp,48
    43f4:	b59ff0ef          	jal	ra,3f4c <PM_MeasurePortInit>
    43f8:	47e2                	lw	a5,24(sp)
    43fa:	04c00613          	li	a2,76
    43fe:	1808                	addi	a0,sp,48
    4400:	60878593          	addi	a1,a5,1544
    4404:	433030ef          	jal	ra,8036 <memcpy>
    4408:	4601                	li	a2,0
    440a:	4585                	li	a1,1
    440c:	1808                	addi	a0,sp,48
    440e:	b3fff0ef          	jal	ra,3f4c <PM_MeasurePortInit>
    4412:	04c00613          	li	a2,76
    4416:	6a0c8593          	addi	a1,s9,1696
    441a:	1808                	addi	a0,sp,48
    441c:	41b030ef          	jal	ra,8036 <memcpy>
    4420:	4605                	li	a2,1
    4422:	4581                	li	a1,0
    4424:	1808                	addi	a0,sp,48
    4426:	b27ff0ef          	jal	ra,3f4c <PM_MeasurePortInit>
    442a:	03200513          	li	a0,50
    442e:	540010ef          	jal	ra,596e <Delay_Ms>
    4432:	0484c783          	lbu	a5,72(s1)
    4436:	461d                	li	a2,7
    4438:	45c1                	li	a1,16
    443a:	853e                	mv	a0,a5
    443c:	d23e                	sw	a5,36(sp)
    443e:	c64fd0ef          	jal	ra,18a2 <PM_DMA_GetADCAverage>
    4442:	d42a                	sw	a0,40(sp)
    4444:	de6fd0ef          	jal	ra,1a2a <PM_ADCRealVol>
    4448:	55a2                	lw	a1,40(sp)
    444a:	862a                	mv	a2,a0
    444c:	8a2a                	mv	s4,a0
    444e:	0000b537          	lui	a0,0xb
    4452:	72450513          	addi	a0,a0,1828 # b724 <PortGroup_3+0x84>
    4456:	674040ef          	jal	ra,8aca <iprintf>
    445a:	03100793          	li	a5,49
    445e:	2747f163          	bgeu	a5,s4,46c0 <PM_MeasureResistance+0x440>
    4462:	00cc2503          	lw	a0,12(s8)
    4466:	2af030ef          	jal	ra,7f14 <__extendsfdf2>
    446a:	0000b7b7          	lui	a5,0xb
    446e:	862a                	mv	a2,a0
    4470:	86ae                	mv	a3,a1
    4472:	3607a503          	lw	a0,864(a5) # b360 <_read+0x244>
    4476:	3647a583          	lw	a1,868(a5)
    447a:	599020ef          	jal	ra,7212 <__subdf3>
    447e:	8d2a                	mv	s10,a0
    4480:	8552                	mv	a0,s4
    4482:	8dae                	mv	s11,a1
    4484:	5d4030ef          	jal	ra,7a58 <__floatunsidf>
    4488:	862a                	mv	a2,a0
    448a:	86ae                	mv	a3,a1
    448c:	856a                	mv	a0,s10
    448e:	85ee                	mv	a1,s11
    4490:	583020ef          	jal	ra,7212 <__subdf3>
    4494:	8d2a                	mv	s10,a0
    4496:	5488                	lw	a0,40(s1)
    4498:	8dae                	mv	s11,a1
    449a:	27b030ef          	jal	ra,7f14 <__extendsfdf2>
    449e:	0000b7b7          	lui	a5,0xb
    44a2:	3687a603          	lw	a2,872(a5) # b368 <_read+0x24c>
    44a6:	36c7a683          	lw	a3,876(a5)
    44aa:	2b5010ef          	jal	ra,5f5e <__adddf3>
    44ae:	862a                	mv	a2,a0
    44b0:	86ae                	mv	a3,a1
    44b2:	856a                	mv	a0,s10
    44b4:	85ee                	mv	a1,s11
    44b6:	0a5020ef          	jal	ra,6d5a <__muldf3>
    44ba:	8d2a                	mv	s10,a0
    44bc:	8552                	mv	a0,s4
    44be:	8dae                	mv	s11,a1
    44c0:	187030ef          	jal	ra,7e46 <__floatunsisf>
    44c4:	54cc                	lw	a1,44(s1)
    44c6:	5f8030ef          	jal	ra,7abe <__subsf3>
    44ca:	24b030ef          	jal	ra,7f14 <__extendsfdf2>
    44ce:	862a                	mv	a2,a0
    44d0:	86ae                	mv	a3,a1
    44d2:	856a                	mv	a0,s10
    44d4:	85ee                	mv	a1,s11
    44d6:	1b8020ef          	jal	ra,668e <__divdf3>
    44da:	8a2a                	mv	s4,a0
    44dc:	008c2503          	lw	a0,8(s8)
    44e0:	8aae                	mv	s5,a1
    44e2:	233030ef          	jal	ra,7f14 <__extendsfdf2>
    44e6:	862a                	mv	a2,a0
    44e8:	86ae                	mv	a3,a1
    44ea:	8552                	mv	a0,s4
    44ec:	85d6                	mv	a1,s5
    44ee:	525020ef          	jal	ra,7212 <__subdf3>
    44f2:	8a2a                	mv	s4,a0
    44f4:	8181a503          	lw	a0,-2024(gp) # 20000208 <PM_Probe3Res>
    44f8:	8aae                	mv	s5,a1
    44fa:	21b030ef          	jal	ra,7f14 <__extendsfdf2>
    44fe:	862a                	mv	a2,a0
    4500:	86ae                	mv	a3,a1
    4502:	8552                	mv	a0,s4
    4504:	85d6                	mv	a1,s5
    4506:	50d020ef          	jal	ra,7212 <__subdf3>
    450a:	8a2a                	mv	s4,a0
    450c:	8aae                	mv	s5,a1
    450e:	5782                	lw	a5,32(sp)
    4510:	04c00613          	li	a2,76
    4514:	1808                	addi	a0,sp,48
    4516:	65478593          	addi	a1,a5,1620
    451a:	31d030ef          	jal	ra,8036 <memcpy>
    451e:	4601                	li	a2,0
    4520:	458d                	li	a1,3
    4522:	1808                	addi	a0,sp,48
    4524:	a29ff0ef          	jal	ra,3f4c <PM_MeasurePortInit>
    4528:	47e2                	lw	a5,24(sp)
    452a:	04c00613          	li	a2,76
    452e:	1808                	addi	a0,sp,48
    4530:	60878593          	addi	a1,a5,1544
    4534:	303030ef          	jal	ra,8036 <memcpy>
    4538:	4601                	li	a2,0
    453a:	4581                	li	a1,0
    453c:	1808                	addi	a0,sp,48
    453e:	a0fff0ef          	jal	ra,3f4c <PM_MeasurePortInit>
    4542:	04c00613          	li	a2,76
    4546:	6a0c8593          	addi	a1,s9,1696
    454a:	1808                	addi	a0,sp,48
    454c:	2eb030ef          	jal	ra,8036 <memcpy>
    4550:	4605                	li	a2,1
    4552:	4589                	li	a1,2
    4554:	1808                	addi	a0,sp,48
    4556:	9f7ff0ef          	jal	ra,3f4c <PM_MeasurePortInit>
    455a:	03200513          	li	a0,50
    455e:	410010ef          	jal	ra,596e <Delay_Ms>
    4562:	461d                	li	a2,7
    4564:	45c1                	li	a1,16
    4566:	855a                	mv	a0,s6
    4568:	b3afd0ef          	jal	ra,18a2 <PM_DMA_GetADCAverage>
    456c:	d42a                	sw	a0,40(sp)
    456e:	cbcfd0ef          	jal	ra,1a2a <PM_ADCRealVol>
    4572:	55a2                	lw	a1,40(sp)
    4574:	8d2a                	mv	s10,a0
    4576:	862a                	mv	a2,a0
    4578:	0000b537          	lui	a0,0xb
    457c:	74850513          	addi	a0,a0,1864 # b748 <PortGroup_3+0xa8>
    4580:	54a040ef          	jal	ra,8aca <iprintf>
    4584:	6705                	lui	a4,0x1
    4586:	fced0693          	addi	a3,s10,-50
    458a:	c8070713          	addi	a4,a4,-896 # c80 <Get_CalibrationValue+0x124>
    458e:	12d77d63          	bgeu	a4,a3,46c8 <PM_MeasureResistance+0x448>
    4592:	00246413          	ori	s0,s0,2
    4596:	4b01                	li	s6,0
    4598:	4b81                	li	s7,0
    459a:	5782                	lw	a5,32(sp)
    459c:	04c00613          	li	a2,76
    45a0:	1808                	addi	a0,sp,48
    45a2:	65478593          	addi	a1,a5,1620
    45a6:	291030ef          	jal	ra,8036 <memcpy>
    45aa:	4601                	li	a2,0
    45ac:	458d                	li	a1,3
    45ae:	1808                	addi	a0,sp,48
    45b0:	99dff0ef          	jal	ra,3f4c <PM_MeasurePortInit>
    45b4:	47e2                	lw	a5,24(sp)
    45b6:	04c00613          	li	a2,76
    45ba:	1808                	addi	a0,sp,48
    45bc:	60878593          	addi	a1,a5,1544
    45c0:	277030ef          	jal	ra,8036 <memcpy>
    45c4:	4601                	li	a2,0
    45c6:	4589                	li	a1,2
    45c8:	1808                	addi	a0,sp,48
    45ca:	983ff0ef          	jal	ra,3f4c <PM_MeasurePortInit>
    45ce:	6a0c8593          	addi	a1,s9,1696
    45d2:	04c00613          	li	a2,76
    45d6:	1808                	addi	a0,sp,48
    45d8:	25f030ef          	jal	ra,8036 <memcpy>
    45dc:	4605                	li	a2,1
    45de:	4581                	li	a1,0
    45e0:	1808                	addi	a0,sp,48
    45e2:	96bff0ef          	jal	ra,3f4c <PM_MeasurePortInit>
    45e6:	03200513          	li	a0,50
    45ea:	384010ef          	jal	ra,596e <Delay_Ms>
    45ee:	5512                	lw	a0,36(sp)
    45f0:	461d                	li	a2,7
    45f2:	45c1                	li	a1,16
    45f4:	aaefd0ef          	jal	ra,18a2 <PM_DMA_GetADCAverage>
    45f8:	cc2a                	sw	a0,24(sp)
    45fa:	c30fd0ef          	jal	ra,1a2a <PM_ADCRealVol>
    45fe:	45e2                	lw	a1,24(sp)
    4600:	8caa                	mv	s9,a0
    4602:	862a                	mv	a2,a0
    4604:	0000b537          	lui	a0,0xb
    4608:	76c50513          	addi	a0,a0,1900 # b76c <PortGroup_3+0xcc>
    460c:	4be040ef          	jal	ra,8aca <iprintf>
    4610:	6785                	lui	a5,0x1
    4612:	fcec8713          	addi	a4,s9,-50
    4616:	c8078793          	addi	a5,a5,-896 # c80 <Get_CalibrationValue+0x124>
    461a:	4ee7e663          	bltu	a5,a4,4b06 <PM_MeasureResistance+0x886>
    461e:	00cc2503          	lw	a0,12(s8)
    4622:	0f3030ef          	jal	ra,7f14 <__extendsfdf2>
    4626:	0000b7b7          	lui	a5,0xb
    462a:	862a                	mv	a2,a0
    462c:	86ae                	mv	a3,a1
    462e:	3607a503          	lw	a0,864(a5) # b360 <_read+0x244>
    4632:	3647a583          	lw	a1,868(a5)
    4636:	3dd020ef          	jal	ra,7212 <__subdf3>
    463a:	8d2a                	mv	s10,a0
    463c:	8566                	mv	a0,s9
    463e:	8dae                	mv	s11,a1
    4640:	418030ef          	jal	ra,7a58 <__floatunsidf>
    4644:	862a                	mv	a2,a0
    4646:	86ae                	mv	a3,a1
    4648:	856a                	mv	a0,s10
    464a:	85ee                	mv	a1,s11
    464c:	3c7020ef          	jal	ra,7212 <__subdf3>
    4650:	8d2a                	mv	s10,a0
    4652:	40a8                	lw	a0,64(s1)
    4654:	8dae                	mv	s11,a1
    4656:	0bf030ef          	jal	ra,7f14 <__extendsfdf2>
    465a:	0000b7b7          	lui	a5,0xb
    465e:	3587a603          	lw	a2,856(a5) # b358 <_read+0x23c>
    4662:	35c7a683          	lw	a3,860(a5)
    4666:	0f9010ef          	jal	ra,5f5e <__adddf3>
    466a:	862a                	mv	a2,a0
    466c:	86ae                	mv	a3,a1
    466e:	856a                	mv	a0,s10
    4670:	85ee                	mv	a1,s11
    4672:	6e8020ef          	jal	ra,6d5a <__muldf3>
    4676:	8d2a                	mv	s10,a0
    4678:	8566                	mv	a0,s9
    467a:	8dae                	mv	s11,a1
    467c:	7ca030ef          	jal	ra,7e46 <__floatunsisf>
    4680:	40ec                	lw	a1,68(s1)
    4682:	43c030ef          	jal	ra,7abe <__subsf3>
    4686:	08f030ef          	jal	ra,7f14 <__extendsfdf2>
    468a:	862a                	mv	a2,a0
    468c:	86ae                	mv	a3,a1
    468e:	856a                	mv	a0,s10
    4690:	85ee                	mv	a1,s11
    4692:	7fd010ef          	jal	ra,668e <__divdf3>
    4696:	8d2a                	mv	s10,a0
    4698:	008c2503          	lw	a0,8(s8)
    469c:	8dae                	mv	s11,a1
    469e:	077030ef          	jal	ra,7f14 <__extendsfdf2>
    46a2:	862a                	mv	a2,a0
    46a4:	86ae                	mv	a3,a1
    46a6:	856a                	mv	a0,s10
    46a8:	85ee                	mv	a1,s11
    46aa:	369020ef          	jal	ra,7212 <__subdf3>
    46ae:	8c2a                	mv	s8,a0
    46b0:	8cae                	mv	s9,a1
    46b2:	8181a503          	lw	a0,-2024(gp) # 20000208 <PM_Probe3Res>
    46b6:	a3f1                	j	4c82 <PM_MeasureResistance+0xa02>
    46b8:	4405                	li	s0,1
    46ba:	4901                	li	s2,0
    46bc:	4981                	li	s3,0
    46be:	b305                	j	43de <PM_MeasureResistance+0x15e>
    46c0:	4405                	li	s0,1
    46c2:	4a01                	li	s4,0
    46c4:	4a81                	li	s5,0
    46c6:	b5a1                	j	450e <PM_MeasureResistance+0x28e>
    46c8:	856a                	mv	a0,s10
    46ca:	77c030ef          	jal	ra,7e46 <__floatunsisf>
    46ce:	48cc                	lw	a1,20(s1)
    46d0:	3ee030ef          	jal	ra,7abe <__subsf3>
    46d4:	041030ef          	jal	ra,7f14 <__extendsfdf2>
    46d8:	8b2a                	mv	s6,a0
    46da:	038c2503          	lw	a0,56(s8)
    46de:	8bae                	mv	s7,a1
    46e0:	035030ef          	jal	ra,7f14 <__extendsfdf2>
    46e4:	0000b737          	lui	a4,0xb
    46e8:	35872603          	lw	a2,856(a4) # b358 <_read+0x23c>
    46ec:	35c72683          	lw	a3,860(a4)
    46f0:	06f010ef          	jal	ra,5f5e <__adddf3>
    46f4:	862a                	mv	a2,a0
    46f6:	86ae                	mv	a3,a1
    46f8:	855a                	mv	a0,s6
    46fa:	85de                	mv	a1,s7
    46fc:	65e020ef          	jal	ra,6d5a <__muldf3>
    4700:	8b2a                	mv	s6,a0
    4702:	03cc2503          	lw	a0,60(s8)
    4706:	8bae                	mv	s7,a1
    4708:	00d030ef          	jal	ra,7f14 <__extendsfdf2>
    470c:	0000b737          	lui	a4,0xb
    4710:	862a                	mv	a2,a0
    4712:	86ae                	mv	a3,a1
    4714:	36072503          	lw	a0,864(a4) # b360 <_read+0x244>
    4718:	36472583          	lw	a1,868(a4)
    471c:	2f7020ef          	jal	ra,7212 <__subdf3>
    4720:	d42a                	sw	a0,40(sp)
    4722:	856a                	mv	a0,s10
    4724:	d62e                	sw	a1,44(sp)
    4726:	332030ef          	jal	ra,7a58 <__floatunsidf>
    472a:	5722                	lw	a4,40(sp)
    472c:	57b2                	lw	a5,44(sp)
    472e:	862a                	mv	a2,a0
    4730:	86ae                	mv	a3,a1
    4732:	853a                	mv	a0,a4
    4734:	85be                	mv	a1,a5
    4736:	2dd020ef          	jal	ra,7212 <__subdf3>
    473a:	862a                	mv	a2,a0
    473c:	86ae                	mv	a3,a1
    473e:	855a                	mv	a0,s6
    4740:	85de                	mv	a1,s7
    4742:	74d010ef          	jal	ra,668e <__divdf3>
    4746:	8b2a                	mv	s6,a0
    4748:	4888                	lw	a0,16(s1)
    474a:	8bae                	mv	s7,a1
    474c:	7c8030ef          	jal	ra,7f14 <__extendsfdf2>
    4750:	862a                	mv	a2,a0
    4752:	86ae                	mv	a3,a1
    4754:	855a                	mv	a0,s6
    4756:	85de                	mv	a1,s7
    4758:	2bb020ef          	jal	ra,7212 <__subdf3>
    475c:	8b2a                	mv	s6,a0
    475e:	8101a503          	lw	a0,-2032(gp) # 20000200 <PM_Probe1Res>
    4762:	8bae                	mv	s7,a1
    4764:	7b0030ef          	jal	ra,7f14 <__extendsfdf2>
    4768:	862a                	mv	a2,a0
    476a:	86ae                	mv	a3,a1
    476c:	855a                	mv	a0,s6
    476e:	85de                	mv	a1,s7
    4770:	2a3020ef          	jal	ra,7212 <__subdf3>
    4774:	8b2a                	mv	s6,a0
    4776:	8bae                	mv	s7,a1
    4778:	b50d                	j	459a <PM_MeasureResistance+0x31a>
    477a:	20100713          	li	a4,513
    477e:	50e79d63          	bne	a5,a4,4c98 <PM_MeasureResistance+0xa18>
    4782:	692d                	lui	s2,0xb
    4784:	04c00613          	li	a2,76
    4788:	6a090593          	addi	a1,s2,1696 # b6a0 <PortGroup_3>
    478c:	1808                	addi	a0,sp,48
    478e:	0a9030ef          	jal	ra,8036 <memcpy>
    4792:	4601                	li	a2,0
    4794:	458d                	li	a1,3
    4796:	1808                	addi	a0,sp,48
    4798:	fb4ff0ef          	jal	ra,3f4c <PM_MeasurePortInit>
    479c:	69ad                	lui	s3,0xb
    479e:	04c00613          	li	a2,76
    47a2:	60898593          	addi	a1,s3,1544 # b608 <PortGroup_1>
    47a6:	1808                	addi	a0,sp,48
    47a8:	08f030ef          	jal	ra,8036 <memcpy>
    47ac:	4601                	li	a2,0
    47ae:	4581                	li	a1,0
    47b0:	1808                	addi	a0,sp,48
    47b2:	f9aff0ef          	jal	ra,3f4c <PM_MeasurePortInit>
    47b6:	6cad                	lui	s9,0xb
    47b8:	04c00613          	li	a2,76
    47bc:	654c8593          	addi	a1,s9,1620 # b654 <PortGroup_2>
    47c0:	1808                	addi	a0,sp,48
    47c2:	075030ef          	jal	ra,8036 <memcpy>
    47c6:	4605                	li	a2,1
    47c8:	4585                	li	a1,1
    47ca:	1808                	addi	a0,sp,48
    47cc:	f80ff0ef          	jal	ra,3f4c <PM_MeasurePortInit>
    47d0:	654c8413          	addi	s0,s9,1620
    47d4:	03200513          	li	a0,50
    47d8:	196010ef          	jal	ra,596e <Delay_Ms>
    47dc:	04844b03          	lbu	s6,72(s0)
    47e0:	461d                	li	a2,7
    47e2:	45c1                	li	a1,16
    47e4:	855a                	mv	a0,s6
    47e6:	8bcfd0ef          	jal	ra,18a2 <PM_DMA_GetADCAverage>
    47ea:	cc2a                	sw	a0,24(sp)
    47ec:	a3efd0ef          	jal	ra,1a2a <PM_ADCRealVol>
    47f0:	45e2                	lw	a1,24(sp)
    47f2:	862a                	mv	a2,a0
    47f4:	842a                	mv	s0,a0
    47f6:	0000b537          	lui	a0,0xb
    47fa:	79050513          	addi	a0,a0,1936 # b790 <PortGroup_3+0xf0>
    47fe:	2cc040ef          	jal	ra,8aca <iprintf>
    4802:	6785                	lui	a5,0x1
    4804:	cb278793          	addi	a5,a5,-846 # cb2 <DMA_DeInit+0x1c>
    4808:	cc4e                	sw	s3,24(sp)
    480a:	d04a                	sw	s2,32(sp)
    480c:	60898493          	addi	s1,s3,1544
    4810:	654c8c13          	addi	s8,s9,1620
    4814:	3087ea63          	bltu	a5,s0,4b28 <PM_MeasureResistance+0x8a8>
    4818:	8522                	mv	a0,s0
    481a:	62c030ef          	jal	ra,7e46 <__floatunsisf>
    481e:	48cc                	lw	a1,20(s1)
    4820:	29e030ef          	jal	ra,7abe <__subsf3>
    4824:	6f0030ef          	jal	ra,7f14 <__extendsfdf2>
    4828:	892a                	mv	s2,a0
    482a:	020c2503          	lw	a0,32(s8)
    482e:	89ae                	mv	s3,a1
    4830:	6e4030ef          	jal	ra,7f14 <__extendsfdf2>
    4834:	0000b7b7          	lui	a5,0xb
    4838:	3687a603          	lw	a2,872(a5) # b368 <_read+0x24c>
    483c:	36c7a683          	lw	a3,876(a5)
    4840:	71e010ef          	jal	ra,5f5e <__adddf3>
    4844:	862a                	mv	a2,a0
    4846:	86ae                	mv	a3,a1
    4848:	854a                	mv	a0,s2
    484a:	85ce                	mv	a1,s3
    484c:	50e020ef          	jal	ra,6d5a <__muldf3>
    4850:	892a                	mv	s2,a0
    4852:	024c2503          	lw	a0,36(s8)
    4856:	89ae                	mv	s3,a1
    4858:	6bc030ef          	jal	ra,7f14 <__extendsfdf2>
    485c:	0000b7b7          	lui	a5,0xb
    4860:	862a                	mv	a2,a0
    4862:	86ae                	mv	a3,a1
    4864:	3607a503          	lw	a0,864(a5) # b360 <_read+0x244>
    4868:	3647a583          	lw	a1,868(a5)
    486c:	1a7020ef          	jal	ra,7212 <__subdf3>
    4870:	8a2a                	mv	s4,a0
    4872:	8522                	mv	a0,s0
    4874:	8aae                	mv	s5,a1
    4876:	1e2030ef          	jal	ra,7a58 <__floatunsidf>
    487a:	862a                	mv	a2,a0
    487c:	86ae                	mv	a3,a1
    487e:	8552                	mv	a0,s4
    4880:	85d6                	mv	a1,s5
    4882:	191020ef          	jal	ra,7212 <__subdf3>
    4886:	862a                	mv	a2,a0
    4888:	86ae                	mv	a3,a1
    488a:	854a                	mv	a0,s2
    488c:	85ce                	mv	a1,s3
    488e:	601010ef          	jal	ra,668e <__divdf3>
    4892:	892a                	mv	s2,a0
    4894:	4888                	lw	a0,16(s1)
    4896:	89ae                	mv	s3,a1
    4898:	4401                	li	s0,0
    489a:	67a030ef          	jal	ra,7f14 <__extendsfdf2>
    489e:	862a                	mv	a2,a0
    48a0:	86ae                	mv	a3,a1
    48a2:	854a                	mv	a0,s2
    48a4:	85ce                	mv	a1,s3
    48a6:	16d020ef          	jal	ra,7212 <__subdf3>
    48aa:	892a                	mv	s2,a0
    48ac:	8101a503          	lw	a0,-2032(gp) # 20000200 <PM_Probe1Res>
    48b0:	89ae                	mv	s3,a1
    48b2:	662030ef          	jal	ra,7f14 <__extendsfdf2>
    48b6:	862a                	mv	a2,a0
    48b8:	86ae                	mv	a3,a1
    48ba:	854a                	mv	a0,s2
    48bc:	85ce                	mv	a1,s3
    48be:	155020ef          	jal	ra,7212 <__subdf3>
    48c2:	892a                	mv	s2,a0
    48c4:	89ae                	mv	s3,a1
    48c6:	5782                	lw	a5,32(sp)
    48c8:	04c00613          	li	a2,76
    48cc:	1808                	addi	a0,sp,48
    48ce:	6a078593          	addi	a1,a5,1696
    48d2:	764030ef          	jal	ra,8036 <memcpy>
    48d6:	4601                	li	a2,0
    48d8:	458d                	li	a1,3
    48da:	1808                	addi	a0,sp,48
    48dc:	e70ff0ef          	jal	ra,3f4c <PM_MeasurePortInit>
    48e0:	47e2                	lw	a5,24(sp)
    48e2:	04c00613          	li	a2,76
    48e6:	1808                	addi	a0,sp,48
    48e8:	60878593          	addi	a1,a5,1544
    48ec:	74a030ef          	jal	ra,8036 <memcpy>
    48f0:	4601                	li	a2,0
    48f2:	4585                	li	a1,1
    48f4:	1808                	addi	a0,sp,48
    48f6:	e56ff0ef          	jal	ra,3f4c <PM_MeasurePortInit>
    48fa:	04c00613          	li	a2,76
    48fe:	654c8593          	addi	a1,s9,1620
    4902:	1808                	addi	a0,sp,48
    4904:	732030ef          	jal	ra,8036 <memcpy>
    4908:	4605                	li	a2,1
    490a:	4581                	li	a1,0
    490c:	1808                	addi	a0,sp,48
    490e:	e3eff0ef          	jal	ra,3f4c <PM_MeasurePortInit>
    4912:	03200513          	li	a0,50
    4916:	058010ef          	jal	ra,596e <Delay_Ms>
    491a:	0484c783          	lbu	a5,72(s1)
    491e:	461d                	li	a2,7
    4920:	45c1                	li	a1,16
    4922:	853e                	mv	a0,a5
    4924:	d23e                	sw	a5,36(sp)
    4926:	f7dfc0ef          	jal	ra,18a2 <PM_DMA_GetADCAverage>
    492a:	d42a                	sw	a0,40(sp)
    492c:	8fefd0ef          	jal	ra,1a2a <PM_ADCRealVol>
    4930:	55a2                	lw	a1,40(sp)
    4932:	862a                	mv	a2,a0
    4934:	8a2a                	mv	s4,a0
    4936:	0000b537          	lui	a0,0xb
    493a:	7b450513          	addi	a0,a0,1972 # b7b4 <PortGroup_3+0x114>
    493e:	18c040ef          	jal	ra,8aca <iprintf>
    4942:	03100793          	li	a5,49
    4946:	1f47f563          	bgeu	a5,s4,4b30 <PM_MeasureResistance+0x8b0>
    494a:	00cc2503          	lw	a0,12(s8)
    494e:	5c6030ef          	jal	ra,7f14 <__extendsfdf2>
    4952:	0000b7b7          	lui	a5,0xb
    4956:	862a                	mv	a2,a0
    4958:	86ae                	mv	a3,a1
    495a:	3607a503          	lw	a0,864(a5) # b360 <_read+0x244>
    495e:	3647a583          	lw	a1,868(a5)
    4962:	0b1020ef          	jal	ra,7212 <__subdf3>
    4966:	8d2a                	mv	s10,a0
    4968:	8552                	mv	a0,s4
    496a:	8dae                	mv	s11,a1
    496c:	0ec030ef          	jal	ra,7a58 <__floatunsidf>
    4970:	862a                	mv	a2,a0
    4972:	86ae                	mv	a3,a1
    4974:	856a                	mv	a0,s10
    4976:	85ee                	mv	a1,s11
    4978:	09b020ef          	jal	ra,7212 <__subdf3>
    497c:	8d2a                	mv	s10,a0
    497e:	5488                	lw	a0,40(s1)
    4980:	8dae                	mv	s11,a1
    4982:	592030ef          	jal	ra,7f14 <__extendsfdf2>
    4986:	0000b7b7          	lui	a5,0xb
    498a:	3687a603          	lw	a2,872(a5) # b368 <_read+0x24c>
    498e:	36c7a683          	lw	a3,876(a5)
    4992:	5cc010ef          	jal	ra,5f5e <__adddf3>
    4996:	862a                	mv	a2,a0
    4998:	86ae                	mv	a3,a1
    499a:	856a                	mv	a0,s10
    499c:	85ee                	mv	a1,s11
    499e:	3bc020ef          	jal	ra,6d5a <__muldf3>
    49a2:	8d2a                	mv	s10,a0
    49a4:	8552                	mv	a0,s4
    49a6:	8dae                	mv	s11,a1
    49a8:	49e030ef          	jal	ra,7e46 <__floatunsisf>
    49ac:	54cc                	lw	a1,44(s1)
    49ae:	110030ef          	jal	ra,7abe <__subsf3>
    49b2:	562030ef          	jal	ra,7f14 <__extendsfdf2>
    49b6:	862a                	mv	a2,a0
    49b8:	86ae                	mv	a3,a1
    49ba:	856a                	mv	a0,s10
    49bc:	85ee                	mv	a1,s11
    49be:	4d1010ef          	jal	ra,668e <__divdf3>
    49c2:	8a2a                	mv	s4,a0
    49c4:	008c2503          	lw	a0,8(s8)
    49c8:	8aae                	mv	s5,a1
    49ca:	54a030ef          	jal	ra,7f14 <__extendsfdf2>
    49ce:	862a                	mv	a2,a0
    49d0:	86ae                	mv	a3,a1
    49d2:	8552                	mv	a0,s4
    49d4:	85d6                	mv	a1,s5
    49d6:	03d020ef          	jal	ra,7212 <__subdf3>
    49da:	8a2a                	mv	s4,a0
    49dc:	8141a503          	lw	a0,-2028(gp) # 20000204 <PM_Probe2Res>
    49e0:	8aae                	mv	s5,a1
    49e2:	532030ef          	jal	ra,7f14 <__extendsfdf2>
    49e6:	862a                	mv	a2,a0
    49e8:	86ae                	mv	a3,a1
    49ea:	8552                	mv	a0,s4
    49ec:	85d6                	mv	a1,s5
    49ee:	025020ef          	jal	ra,7212 <__subdf3>
    49f2:	8a2a                	mv	s4,a0
    49f4:	8aae                	mv	s5,a1
    49f6:	5782                	lw	a5,32(sp)
    49f8:	04c00613          	li	a2,76
    49fc:	1808                	addi	a0,sp,48
    49fe:	6a078593          	addi	a1,a5,1696
    4a02:	634030ef          	jal	ra,8036 <memcpy>
    4a06:	4601                	li	a2,0
    4a08:	458d                	li	a1,3
    4a0a:	1808                	addi	a0,sp,48
    4a0c:	d40ff0ef          	jal	ra,3f4c <PM_MeasurePortInit>
    4a10:	47e2                	lw	a5,24(sp)
    4a12:	04c00613          	li	a2,76
    4a16:	1808                	addi	a0,sp,48
    4a18:	60878593          	addi	a1,a5,1544
    4a1c:	61a030ef          	jal	ra,8036 <memcpy>
    4a20:	4601                	li	a2,0
    4a22:	4581                	li	a1,0
    4a24:	1808                	addi	a0,sp,48
    4a26:	d26ff0ef          	jal	ra,3f4c <PM_MeasurePortInit>
    4a2a:	04c00613          	li	a2,76
    4a2e:	654c8593          	addi	a1,s9,1620
    4a32:	1808                	addi	a0,sp,48
    4a34:	602030ef          	jal	ra,8036 <memcpy>
    4a38:	4605                	li	a2,1
    4a3a:	4589                	li	a1,2
    4a3c:	1808                	addi	a0,sp,48
    4a3e:	d0eff0ef          	jal	ra,3f4c <PM_MeasurePortInit>
    4a42:	03200513          	li	a0,50
    4a46:	729000ef          	jal	ra,596e <Delay_Ms>
    4a4a:	461d                	li	a2,7
    4a4c:	45c1                	li	a1,16
    4a4e:	855a                	mv	a0,s6
    4a50:	e53fc0ef          	jal	ra,18a2 <PM_DMA_GetADCAverage>
    4a54:	d42a                	sw	a0,40(sp)
    4a56:	fd5fc0ef          	jal	ra,1a2a <PM_ADCRealVol>
    4a5a:	55a2                	lw	a1,40(sp)
    4a5c:	8d2a                	mv	s10,a0
    4a5e:	862a                	mv	a2,a0
    4a60:	0000b537          	lui	a0,0xb
    4a64:	7d850513          	addi	a0,a0,2008 # b7d8 <PortGroup_3+0x138>
    4a68:	062040ef          	jal	ra,8aca <iprintf>
    4a6c:	6705                	lui	a4,0x1
    4a6e:	fced0693          	addi	a3,s10,-50
    4a72:	c8070713          	addi	a4,a4,-896 # c80 <Get_CalibrationValue+0x124>
    4a76:	0cd77163          	bgeu	a4,a3,4b38 <PM_MeasureResistance+0x8b8>
    4a7a:	00246413          	ori	s0,s0,2
    4a7e:	4b01                	li	s6,0
    4a80:	4b81                	li	s7,0
    4a82:	5782                	lw	a5,32(sp)
    4a84:	04c00613          	li	a2,76
    4a88:	1808                	addi	a0,sp,48
    4a8a:	6a078593          	addi	a1,a5,1696
    4a8e:	5a8030ef          	jal	ra,8036 <memcpy>
    4a92:	4601                	li	a2,0
    4a94:	458d                	li	a1,3
    4a96:	1808                	addi	a0,sp,48
    4a98:	cb4ff0ef          	jal	ra,3f4c <PM_MeasurePortInit>
    4a9c:	47e2                	lw	a5,24(sp)
    4a9e:	04c00613          	li	a2,76
    4aa2:	1808                	addi	a0,sp,48
    4aa4:	60878593          	addi	a1,a5,1544
    4aa8:	58e030ef          	jal	ra,8036 <memcpy>
    4aac:	4601                	li	a2,0
    4aae:	4589                	li	a1,2
    4ab0:	1808                	addi	a0,sp,48
    4ab2:	c9aff0ef          	jal	ra,3f4c <PM_MeasurePortInit>
    4ab6:	654c8593          	addi	a1,s9,1620
    4aba:	04c00613          	li	a2,76
    4abe:	1808                	addi	a0,sp,48
    4ac0:	576030ef          	jal	ra,8036 <memcpy>
    4ac4:	4605                	li	a2,1
    4ac6:	4581                	li	a1,0
    4ac8:	1808                	addi	a0,sp,48
    4aca:	c82ff0ef          	jal	ra,3f4c <PM_MeasurePortInit>
    4ace:	03200513          	li	a0,50
    4ad2:	69d000ef          	jal	ra,596e <Delay_Ms>
    4ad6:	5512                	lw	a0,36(sp)
    4ad8:	461d                	li	a2,7
    4ada:	45c1                	li	a1,16
    4adc:	dc7fc0ef          	jal	ra,18a2 <PM_DMA_GetADCAverage>
    4ae0:	cc2a                	sw	a0,24(sp)
    4ae2:	f49fc0ef          	jal	ra,1a2a <PM_ADCRealVol>
    4ae6:	45e2                	lw	a1,24(sp)
    4ae8:	8caa                	mv	s9,a0
    4aea:	862a                	mv	a2,a0
    4aec:	0000b537          	lui	a0,0xb
    4af0:	7fc50513          	addi	a0,a0,2044 # b7fc <PortGroup_3+0x15c>
    4af4:	7d7030ef          	jal	ra,8aca <iprintf>
    4af8:	6785                	lui	a5,0x1
    4afa:	fcec8713          	addi	a4,s9,-50
    4afe:	c8078793          	addi	a5,a5,-896 # c80 <Get_CalibrationValue+0x124>
    4b02:	0ee7f463          	bgeu	a5,a4,4bea <PM_MeasureResistance+0x96a>
    4b06:	00246413          	ori	s0,s0,2
    4b0a:	4c01                	li	s8,0
    4b0c:	4c81                	li	s9,0
    4b0e:	4785                	li	a5,1
    4b10:	62f40e63          	beq	s0,a5,514c <PM_MeasureResistance+0xecc>
    4b14:	5c040a63          	beqz	s0,50e8 <PM_MeasureResistance+0xe68>
    4b18:	4789                	li	a5,2
    4b1a:	66f40e63          	beq	s0,a5,5196 <PM_MeasureResistance+0xf16>
    4b1e:	4401                	li	s0,0
    4b20:	8522                	mv	a0,s0
    4b22:	6109                	addi	sp,sp,128
    4b24:	f18fb06f          	j	23c <__riscv_restore_12>
    4b28:	4405                	li	s0,1
    4b2a:	4901                	li	s2,0
    4b2c:	4981                	li	s3,0
    4b2e:	bb61                	j	48c6 <PM_MeasureResistance+0x646>
    4b30:	4405                	li	s0,1
    4b32:	4a01                	li	s4,0
    4b34:	4a81                	li	s5,0
    4b36:	b5c1                	j	49f6 <PM_MeasureResistance+0x776>
    4b38:	856a                	mv	a0,s10
    4b3a:	30c030ef          	jal	ra,7e46 <__floatunsisf>
    4b3e:	48cc                	lw	a1,20(s1)
    4b40:	77f020ef          	jal	ra,7abe <__subsf3>
    4b44:	3d0030ef          	jal	ra,7f14 <__extendsfdf2>
    4b48:	8b2a                	mv	s6,a0
    4b4a:	038c2503          	lw	a0,56(s8)
    4b4e:	8bae                	mv	s7,a1
    4b50:	3c4030ef          	jal	ra,7f14 <__extendsfdf2>
    4b54:	0000b737          	lui	a4,0xb
    4b58:	35872603          	lw	a2,856(a4) # b358 <_read+0x23c>
    4b5c:	35c72683          	lw	a3,860(a4)
    4b60:	3fe010ef          	jal	ra,5f5e <__adddf3>
    4b64:	862a                	mv	a2,a0
    4b66:	86ae                	mv	a3,a1
    4b68:	855a                	mv	a0,s6
    4b6a:	85de                	mv	a1,s7
    4b6c:	1ee020ef          	jal	ra,6d5a <__muldf3>
    4b70:	8b2a                	mv	s6,a0
    4b72:	03cc2503          	lw	a0,60(s8)
    4b76:	8bae                	mv	s7,a1
    4b78:	39c030ef          	jal	ra,7f14 <__extendsfdf2>
    4b7c:	0000b737          	lui	a4,0xb
    4b80:	862a                	mv	a2,a0
    4b82:	86ae                	mv	a3,a1
    4b84:	36072503          	lw	a0,864(a4) # b360 <_read+0x244>
    4b88:	36472583          	lw	a1,868(a4)
    4b8c:	686020ef          	jal	ra,7212 <__subdf3>
    4b90:	d42a                	sw	a0,40(sp)
    4b92:	856a                	mv	a0,s10
    4b94:	d62e                	sw	a1,44(sp)
    4b96:	6c3020ef          	jal	ra,7a58 <__floatunsidf>
    4b9a:	5722                	lw	a4,40(sp)
    4b9c:	57b2                	lw	a5,44(sp)
    4b9e:	862a                	mv	a2,a0
    4ba0:	86ae                	mv	a3,a1
    4ba2:	853a                	mv	a0,a4
    4ba4:	85be                	mv	a1,a5
    4ba6:	66c020ef          	jal	ra,7212 <__subdf3>
    4baa:	862a                	mv	a2,a0
    4bac:	86ae                	mv	a3,a1
    4bae:	855a                	mv	a0,s6
    4bb0:	85de                	mv	a1,s7
    4bb2:	2dd010ef          	jal	ra,668e <__divdf3>
    4bb6:	8b2a                	mv	s6,a0
    4bb8:	4888                	lw	a0,16(s1)
    4bba:	8bae                	mv	s7,a1
    4bbc:	358030ef          	jal	ra,7f14 <__extendsfdf2>
    4bc0:	862a                	mv	a2,a0
    4bc2:	86ae                	mv	a3,a1
    4bc4:	855a                	mv	a0,s6
    4bc6:	85de                	mv	a1,s7
    4bc8:	64a020ef          	jal	ra,7212 <__subdf3>
    4bcc:	8b2a                	mv	s6,a0
    4bce:	8101a503          	lw	a0,-2032(gp) # 20000200 <PM_Probe1Res>
    4bd2:	8bae                	mv	s7,a1
    4bd4:	340030ef          	jal	ra,7f14 <__extendsfdf2>
    4bd8:	862a                	mv	a2,a0
    4bda:	86ae                	mv	a3,a1
    4bdc:	855a                	mv	a0,s6
    4bde:	85de                	mv	a1,s7
    4be0:	632020ef          	jal	ra,7212 <__subdf3>
    4be4:	8b2a                	mv	s6,a0
    4be6:	8bae                	mv	s7,a1
    4be8:	bd69                	j	4a82 <PM_MeasureResistance+0x802>
    4bea:	00cc2503          	lw	a0,12(s8)
    4bee:	326030ef          	jal	ra,7f14 <__extendsfdf2>
    4bf2:	0000b7b7          	lui	a5,0xb
    4bf6:	862a                	mv	a2,a0
    4bf8:	86ae                	mv	a3,a1
    4bfa:	3607a503          	lw	a0,864(a5) # b360 <_read+0x244>
    4bfe:	3647a583          	lw	a1,868(a5)
    4c02:	610020ef          	jal	ra,7212 <__subdf3>
    4c06:	8d2a                	mv	s10,a0
    4c08:	8566                	mv	a0,s9
    4c0a:	8dae                	mv	s11,a1
    4c0c:	64d020ef          	jal	ra,7a58 <__floatunsidf>
    4c10:	862a                	mv	a2,a0
    4c12:	86ae                	mv	a3,a1
    4c14:	856a                	mv	a0,s10
    4c16:	85ee                	mv	a1,s11
    4c18:	5fa020ef          	jal	ra,7212 <__subdf3>
    4c1c:	8d2a                	mv	s10,a0
    4c1e:	40a8                	lw	a0,64(s1)
    4c20:	8dae                	mv	s11,a1
    4c22:	2f2030ef          	jal	ra,7f14 <__extendsfdf2>
    4c26:	0000b7b7          	lui	a5,0xb
    4c2a:	3587a603          	lw	a2,856(a5) # b358 <_read+0x23c>
    4c2e:	35c7a683          	lw	a3,860(a5)
    4c32:	32c010ef          	jal	ra,5f5e <__adddf3>
    4c36:	862a                	mv	a2,a0
    4c38:	86ae                	mv	a3,a1
    4c3a:	856a                	mv	a0,s10
    4c3c:	85ee                	mv	a1,s11
    4c3e:	11c020ef          	jal	ra,6d5a <__muldf3>
    4c42:	8d2a                	mv	s10,a0
    4c44:	8566                	mv	a0,s9
    4c46:	8dae                	mv	s11,a1
    4c48:	1fe030ef          	jal	ra,7e46 <__floatunsisf>
    4c4c:	40ec                	lw	a1,68(s1)
    4c4e:	671020ef          	jal	ra,7abe <__subsf3>
    4c52:	2c2030ef          	jal	ra,7f14 <__extendsfdf2>
    4c56:	862a                	mv	a2,a0
    4c58:	86ae                	mv	a3,a1
    4c5a:	856a                	mv	a0,s10
    4c5c:	85ee                	mv	a1,s11
    4c5e:	231010ef          	jal	ra,668e <__divdf3>
    4c62:	8d2a                	mv	s10,a0
    4c64:	008c2503          	lw	a0,8(s8)
    4c68:	8dae                	mv	s11,a1
    4c6a:	2aa030ef          	jal	ra,7f14 <__extendsfdf2>
    4c6e:	862a                	mv	a2,a0
    4c70:	86ae                	mv	a3,a1
    4c72:	856a                	mv	a0,s10
    4c74:	85ee                	mv	a1,s11
    4c76:	59c020ef          	jal	ra,7212 <__subdf3>
    4c7a:	8c2a                	mv	s8,a0
    4c7c:	8141a503          	lw	a0,-2028(gp) # 20000204 <PM_Probe2Res>
    4c80:	8cae                	mv	s9,a1
    4c82:	292030ef          	jal	ra,7f14 <__extendsfdf2>
    4c86:	862a                	mv	a2,a0
    4c88:	86ae                	mv	a3,a1
    4c8a:	8562                	mv	a0,s8
    4c8c:	85e6                	mv	a1,s9
    4c8e:	584020ef          	jal	ra,7212 <__subdf3>
    4c92:	8c2a                	mv	s8,a0
    4c94:	8cae                	mv	s9,a1
    4c96:	bda5                	j	4b0e <PM_MeasureResistance+0x88e>
    4c98:	30200713          	li	a4,770
    4c9c:	42e79e63          	bne	a5,a4,50d8 <PM_MeasureResistance+0xe58>
    4ca0:	692d                	lui	s2,0xb
    4ca2:	04c00613          	li	a2,76
    4ca6:	60890593          	addi	a1,s2,1544 # b608 <PortGroup_1>
    4caa:	1808                	addi	a0,sp,48
    4cac:	38a030ef          	jal	ra,8036 <memcpy>
    4cb0:	4601                	li	a2,0
    4cb2:	458d                	li	a1,3
    4cb4:	1808                	addi	a0,sp,48
    4cb6:	a96ff0ef          	jal	ra,3f4c <PM_MeasurePortInit>
    4cba:	69ad                	lui	s3,0xb
    4cbc:	04c00613          	li	a2,76
    4cc0:	65498593          	addi	a1,s3,1620 # b654 <PortGroup_2>
    4cc4:	1808                	addi	a0,sp,48
    4cc6:	370030ef          	jal	ra,8036 <memcpy>
    4cca:	4601                	li	a2,0
    4ccc:	4581                	li	a1,0
    4cce:	1808                	addi	a0,sp,48
    4cd0:	a7cff0ef          	jal	ra,3f4c <PM_MeasurePortInit>
    4cd4:	6cad                	lui	s9,0xb
    4cd6:	04c00613          	li	a2,76
    4cda:	6a0c8593          	addi	a1,s9,1696 # b6a0 <PortGroup_3>
    4cde:	1808                	addi	a0,sp,48
    4ce0:	356030ef          	jal	ra,8036 <memcpy>
    4ce4:	4605                	li	a2,1
    4ce6:	4585                	li	a1,1
    4ce8:	1808                	addi	a0,sp,48
    4cea:	a62ff0ef          	jal	ra,3f4c <PM_MeasurePortInit>
    4cee:	6a0c8413          	addi	s0,s9,1696
    4cf2:	03200513          	li	a0,50
    4cf6:	479000ef          	jal	ra,596e <Delay_Ms>
    4cfa:	04844b03          	lbu	s6,72(s0)
    4cfe:	461d                	li	a2,7
    4d00:	45c1                	li	a1,16
    4d02:	855a                	mv	a0,s6
    4d04:	b9ffc0ef          	jal	ra,18a2 <PM_DMA_GetADCAverage>
    4d08:	cc2a                	sw	a0,24(sp)
    4d0a:	d21fc0ef          	jal	ra,1a2a <PM_ADCRealVol>
    4d0e:	45e2                	lw	a1,24(sp)
    4d10:	862a                	mv	a2,a0
    4d12:	842a                	mv	s0,a0
    4d14:	0000c537          	lui	a0,0xc
    4d18:	82050513          	addi	a0,a0,-2016 # b820 <PortGroup_3+0x180>
    4d1c:	5af030ef          	jal	ra,8aca <iprintf>
    4d20:	6785                	lui	a5,0x1
    4d22:	cb278793          	addi	a5,a5,-846 # cb2 <DMA_DeInit+0x1c>
    4d26:	cc4e                	sw	s3,24(sp)
    4d28:	d04a                	sw	s2,32(sp)
    4d2a:	6a0c8c13          	addi	s8,s9,1696
    4d2e:	65498493          	addi	s1,s3,1620
    4d32:	2e87e263          	bltu	a5,s0,5016 <PM_MeasureResistance+0xd96>
    4d36:	8522                	mv	a0,s0
    4d38:	10e030ef          	jal	ra,7e46 <__floatunsisf>
    4d3c:	48cc                	lw	a1,20(s1)
    4d3e:	581020ef          	jal	ra,7abe <__subsf3>
    4d42:	1d2030ef          	jal	ra,7f14 <__extendsfdf2>
    4d46:	892a                	mv	s2,a0
    4d48:	020c2503          	lw	a0,32(s8)
    4d4c:	89ae                	mv	s3,a1
    4d4e:	1c6030ef          	jal	ra,7f14 <__extendsfdf2>
    4d52:	0000b7b7          	lui	a5,0xb
    4d56:	3687a603          	lw	a2,872(a5) # b368 <_read+0x24c>
    4d5a:	36c7a683          	lw	a3,876(a5)
    4d5e:	200010ef          	jal	ra,5f5e <__adddf3>
    4d62:	862a                	mv	a2,a0
    4d64:	86ae                	mv	a3,a1
    4d66:	854a                	mv	a0,s2
    4d68:	85ce                	mv	a1,s3
    4d6a:	7f1010ef          	jal	ra,6d5a <__muldf3>
    4d6e:	892a                	mv	s2,a0
    4d70:	024c2503          	lw	a0,36(s8)
    4d74:	89ae                	mv	s3,a1
    4d76:	19e030ef          	jal	ra,7f14 <__extendsfdf2>
    4d7a:	0000b7b7          	lui	a5,0xb
    4d7e:	862a                	mv	a2,a0
    4d80:	86ae                	mv	a3,a1
    4d82:	3607a503          	lw	a0,864(a5) # b360 <_read+0x244>
    4d86:	3647a583          	lw	a1,868(a5)
    4d8a:	488020ef          	jal	ra,7212 <__subdf3>
    4d8e:	8a2a                	mv	s4,a0
    4d90:	8522                	mv	a0,s0
    4d92:	8aae                	mv	s5,a1
    4d94:	4c5020ef          	jal	ra,7a58 <__floatunsidf>
    4d98:	862a                	mv	a2,a0
    4d9a:	86ae                	mv	a3,a1
    4d9c:	8552                	mv	a0,s4
    4d9e:	85d6                	mv	a1,s5
    4da0:	472020ef          	jal	ra,7212 <__subdf3>
    4da4:	862a                	mv	a2,a0
    4da6:	86ae                	mv	a3,a1
    4da8:	854a                	mv	a0,s2
    4daa:	85ce                	mv	a1,s3
    4dac:	0e3010ef          	jal	ra,668e <__divdf3>
    4db0:	892a                	mv	s2,a0
    4db2:	4888                	lw	a0,16(s1)
    4db4:	89ae                	mv	s3,a1
    4db6:	4401                	li	s0,0
    4db8:	15c030ef          	jal	ra,7f14 <__extendsfdf2>
    4dbc:	862a                	mv	a2,a0
    4dbe:	86ae                	mv	a3,a1
    4dc0:	854a                	mv	a0,s2
    4dc2:	85ce                	mv	a1,s3
    4dc4:	44e020ef          	jal	ra,7212 <__subdf3>
    4dc8:	892a                	mv	s2,a0
    4dca:	8141a503          	lw	a0,-2028(gp) # 20000204 <PM_Probe2Res>
    4dce:	89ae                	mv	s3,a1
    4dd0:	144030ef          	jal	ra,7f14 <__extendsfdf2>
    4dd4:	862a                	mv	a2,a0
    4dd6:	86ae                	mv	a3,a1
    4dd8:	854a                	mv	a0,s2
    4dda:	85ce                	mv	a1,s3
    4ddc:	436020ef          	jal	ra,7212 <__subdf3>
    4de0:	892a                	mv	s2,a0
    4de2:	89ae                	mv	s3,a1
    4de4:	5782                	lw	a5,32(sp)
    4de6:	04c00613          	li	a2,76
    4dea:	1808                	addi	a0,sp,48
    4dec:	60878593          	addi	a1,a5,1544
    4df0:	246030ef          	jal	ra,8036 <memcpy>
    4df4:	4601                	li	a2,0
    4df6:	458d                	li	a1,3
    4df8:	1808                	addi	a0,sp,48
    4dfa:	952ff0ef          	jal	ra,3f4c <PM_MeasurePortInit>
    4dfe:	47e2                	lw	a5,24(sp)
    4e00:	04c00613          	li	a2,76
    4e04:	1808                	addi	a0,sp,48
    4e06:	65478593          	addi	a1,a5,1620
    4e0a:	22c030ef          	jal	ra,8036 <memcpy>
    4e0e:	4601                	li	a2,0
    4e10:	4585                	li	a1,1
    4e12:	1808                	addi	a0,sp,48
    4e14:	938ff0ef          	jal	ra,3f4c <PM_MeasurePortInit>
    4e18:	04c00613          	li	a2,76
    4e1c:	6a0c8593          	addi	a1,s9,1696
    4e20:	1808                	addi	a0,sp,48
    4e22:	214030ef          	jal	ra,8036 <memcpy>
    4e26:	4605                	li	a2,1
    4e28:	4581                	li	a1,0
    4e2a:	1808                	addi	a0,sp,48
    4e2c:	920ff0ef          	jal	ra,3f4c <PM_MeasurePortInit>
    4e30:	03200513          	li	a0,50
    4e34:	33b000ef          	jal	ra,596e <Delay_Ms>
    4e38:	0484c783          	lbu	a5,72(s1)
    4e3c:	461d                	li	a2,7
    4e3e:	45c1                	li	a1,16
    4e40:	853e                	mv	a0,a5
    4e42:	d23e                	sw	a5,36(sp)
    4e44:	a5ffc0ef          	jal	ra,18a2 <PM_DMA_GetADCAverage>
    4e48:	d42a                	sw	a0,40(sp)
    4e4a:	be1fc0ef          	jal	ra,1a2a <PM_ADCRealVol>
    4e4e:	55a2                	lw	a1,40(sp)
    4e50:	862a                	mv	a2,a0
    4e52:	8a2a                	mv	s4,a0
    4e54:	0000c537          	lui	a0,0xc
    4e58:	84450513          	addi	a0,a0,-1980 # b844 <PortGroup_3+0x1a4>
    4e5c:	46f030ef          	jal	ra,8aca <iprintf>
    4e60:	03100793          	li	a5,49
    4e64:	1b47fd63          	bgeu	a5,s4,501e <PM_MeasureResistance+0xd9e>
    4e68:	00cc2503          	lw	a0,12(s8)
    4e6c:	0a8030ef          	jal	ra,7f14 <__extendsfdf2>
    4e70:	0000b7b7          	lui	a5,0xb
    4e74:	862a                	mv	a2,a0
    4e76:	86ae                	mv	a3,a1
    4e78:	3607a503          	lw	a0,864(a5) # b360 <_read+0x244>
    4e7c:	3647a583          	lw	a1,868(a5)
    4e80:	392020ef          	jal	ra,7212 <__subdf3>
    4e84:	8d2a                	mv	s10,a0
    4e86:	8552                	mv	a0,s4
    4e88:	8dae                	mv	s11,a1
    4e8a:	3cf020ef          	jal	ra,7a58 <__floatunsidf>
    4e8e:	862a                	mv	a2,a0
    4e90:	86ae                	mv	a3,a1
    4e92:	856a                	mv	a0,s10
    4e94:	85ee                	mv	a1,s11
    4e96:	37c020ef          	jal	ra,7212 <__subdf3>
    4e9a:	8d2a                	mv	s10,a0
    4e9c:	5488                	lw	a0,40(s1)
    4e9e:	8dae                	mv	s11,a1
    4ea0:	074030ef          	jal	ra,7f14 <__extendsfdf2>
    4ea4:	0000b7b7          	lui	a5,0xb
    4ea8:	3687a603          	lw	a2,872(a5) # b368 <_read+0x24c>
    4eac:	36c7a683          	lw	a3,876(a5)
    4eb0:	0ae010ef          	jal	ra,5f5e <__adddf3>
    4eb4:	862a                	mv	a2,a0
    4eb6:	86ae                	mv	a3,a1
    4eb8:	856a                	mv	a0,s10
    4eba:	85ee                	mv	a1,s11
    4ebc:	69f010ef          	jal	ra,6d5a <__muldf3>
    4ec0:	8d2a                	mv	s10,a0
    4ec2:	8552                	mv	a0,s4
    4ec4:	8dae                	mv	s11,a1
    4ec6:	781020ef          	jal	ra,7e46 <__floatunsisf>
    4eca:	54cc                	lw	a1,44(s1)
    4ecc:	3f3020ef          	jal	ra,7abe <__subsf3>
    4ed0:	044030ef          	jal	ra,7f14 <__extendsfdf2>
    4ed4:	862a                	mv	a2,a0
    4ed6:	86ae                	mv	a3,a1
    4ed8:	856a                	mv	a0,s10
    4eda:	85ee                	mv	a1,s11
    4edc:	7b2010ef          	jal	ra,668e <__divdf3>
    4ee0:	8a2a                	mv	s4,a0
    4ee2:	008c2503          	lw	a0,8(s8)
    4ee6:	8aae                	mv	s5,a1
    4ee8:	02c030ef          	jal	ra,7f14 <__extendsfdf2>
    4eec:	862a                	mv	a2,a0
    4eee:	86ae                	mv	a3,a1
    4ef0:	8552                	mv	a0,s4
    4ef2:	85d6                	mv	a1,s5
    4ef4:	31e020ef          	jal	ra,7212 <__subdf3>
    4ef8:	8a2a                	mv	s4,a0
    4efa:	8181a503          	lw	a0,-2024(gp) # 20000208 <PM_Probe3Res>
    4efe:	8aae                	mv	s5,a1
    4f00:	014030ef          	jal	ra,7f14 <__extendsfdf2>
    4f04:	862a                	mv	a2,a0
    4f06:	86ae                	mv	a3,a1
    4f08:	8552                	mv	a0,s4
    4f0a:	85d6                	mv	a1,s5
    4f0c:	306020ef          	jal	ra,7212 <__subdf3>
    4f10:	8a2a                	mv	s4,a0
    4f12:	8aae                	mv	s5,a1
    4f14:	5782                	lw	a5,32(sp)
    4f16:	04c00613          	li	a2,76
    4f1a:	1808                	addi	a0,sp,48
    4f1c:	60878593          	addi	a1,a5,1544
    4f20:	116030ef          	jal	ra,8036 <memcpy>
    4f24:	4601                	li	a2,0
    4f26:	458d                	li	a1,3
    4f28:	1808                	addi	a0,sp,48
    4f2a:	822ff0ef          	jal	ra,3f4c <PM_MeasurePortInit>
    4f2e:	47e2                	lw	a5,24(sp)
    4f30:	04c00613          	li	a2,76
    4f34:	1808                	addi	a0,sp,48
    4f36:	65478593          	addi	a1,a5,1620
    4f3a:	0fc030ef          	jal	ra,8036 <memcpy>
    4f3e:	4601                	li	a2,0
    4f40:	4581                	li	a1,0
    4f42:	1808                	addi	a0,sp,48
    4f44:	808ff0ef          	jal	ra,3f4c <PM_MeasurePortInit>
    4f48:	04c00613          	li	a2,76
    4f4c:	6a0c8593          	addi	a1,s9,1696
    4f50:	1808                	addi	a0,sp,48
    4f52:	0e4030ef          	jal	ra,8036 <memcpy>
    4f56:	4605                	li	a2,1
    4f58:	4589                	li	a1,2
    4f5a:	1808                	addi	a0,sp,48
    4f5c:	ff1fe0ef          	jal	ra,3f4c <PM_MeasurePortInit>
    4f60:	03200513          	li	a0,50
    4f64:	20b000ef          	jal	ra,596e <Delay_Ms>
    4f68:	461d                	li	a2,7
    4f6a:	45c1                	li	a1,16
    4f6c:	855a                	mv	a0,s6
    4f6e:	935fc0ef          	jal	ra,18a2 <PM_DMA_GetADCAverage>
    4f72:	d42a                	sw	a0,40(sp)
    4f74:	ab7fc0ef          	jal	ra,1a2a <PM_ADCRealVol>
    4f78:	55a2                	lw	a1,40(sp)
    4f7a:	8d2a                	mv	s10,a0
    4f7c:	862a                	mv	a2,a0
    4f7e:	0000c537          	lui	a0,0xc
    4f82:	86850513          	addi	a0,a0,-1944 # b868 <PortGroup_3+0x1c8>
    4f86:	345030ef          	jal	ra,8aca <iprintf>
    4f8a:	6705                	lui	a4,0x1
    4f8c:	fced0693          	addi	a3,s10,-50
    4f90:	c8070713          	addi	a4,a4,-896 # c80 <Get_CalibrationValue+0x124>
    4f94:	08d77963          	bgeu	a4,a3,5026 <PM_MeasureResistance+0xda6>
    4f98:	00246413          	ori	s0,s0,2
    4f9c:	4b01                	li	s6,0
    4f9e:	4b81                	li	s7,0
    4fa0:	5782                	lw	a5,32(sp)
    4fa2:	04c00613          	li	a2,76
    4fa6:	1808                	addi	a0,sp,48
    4fa8:	60878593          	addi	a1,a5,1544
    4fac:	08a030ef          	jal	ra,8036 <memcpy>
    4fb0:	4601                	li	a2,0
    4fb2:	458d                	li	a1,3
    4fb4:	1808                	addi	a0,sp,48
    4fb6:	f97fe0ef          	jal	ra,3f4c <PM_MeasurePortInit>
    4fba:	47e2                	lw	a5,24(sp)
    4fbc:	04c00613          	li	a2,76
    4fc0:	1808                	addi	a0,sp,48
    4fc2:	65478593          	addi	a1,a5,1620
    4fc6:	070030ef          	jal	ra,8036 <memcpy>
    4fca:	4601                	li	a2,0
    4fcc:	4589                	li	a1,2
    4fce:	1808                	addi	a0,sp,48
    4fd0:	f7dfe0ef          	jal	ra,3f4c <PM_MeasurePortInit>
    4fd4:	6a0c8593          	addi	a1,s9,1696
    4fd8:	04c00613          	li	a2,76
    4fdc:	1808                	addi	a0,sp,48
    4fde:	058030ef          	jal	ra,8036 <memcpy>
    4fe2:	4605                	li	a2,1
    4fe4:	4581                	li	a1,0
    4fe6:	1808                	addi	a0,sp,48
    4fe8:	f65fe0ef          	jal	ra,3f4c <PM_MeasurePortInit>
    4fec:	03200513          	li	a0,50
    4ff0:	17f000ef          	jal	ra,596e <Delay_Ms>
    4ff4:	5512                	lw	a0,36(sp)
    4ff6:	461d                	li	a2,7
    4ff8:	45c1                	li	a1,16
    4ffa:	8a9fc0ef          	jal	ra,18a2 <PM_DMA_GetADCAverage>
    4ffe:	cc2a                	sw	a0,24(sp)
    5000:	a2bfc0ef          	jal	ra,1a2a <PM_ADCRealVol>
    5004:	8caa                	mv	s9,a0
    5006:	862a                	mv	a2,a0
    5008:	0000c537          	lui	a0,0xc
    500c:	45e2                	lw	a1,24(sp)
    500e:	88c50513          	addi	a0,a0,-1908 # b88c <PortGroup_3+0x1ec>
    5012:	dfaff06f          	j	460c <PM_MeasureResistance+0x38c>
    5016:	4405                	li	s0,1
    5018:	4901                	li	s2,0
    501a:	4981                	li	s3,0
    501c:	b3e1                	j	4de4 <PM_MeasureResistance+0xb64>
    501e:	4405                	li	s0,1
    5020:	4a01                	li	s4,0
    5022:	4a81                	li	s5,0
    5024:	bdc5                	j	4f14 <PM_MeasureResistance+0xc94>
    5026:	856a                	mv	a0,s10
    5028:	61f020ef          	jal	ra,7e46 <__floatunsisf>
    502c:	48cc                	lw	a1,20(s1)
    502e:	291020ef          	jal	ra,7abe <__subsf3>
    5032:	6e3020ef          	jal	ra,7f14 <__extendsfdf2>
    5036:	8b2a                	mv	s6,a0
    5038:	038c2503          	lw	a0,56(s8)
    503c:	8bae                	mv	s7,a1
    503e:	6d7020ef          	jal	ra,7f14 <__extendsfdf2>
    5042:	0000b737          	lui	a4,0xb
    5046:	35872603          	lw	a2,856(a4) # b358 <_read+0x23c>
    504a:	35c72683          	lw	a3,860(a4)
    504e:	711000ef          	jal	ra,5f5e <__adddf3>
    5052:	862a                	mv	a2,a0
    5054:	86ae                	mv	a3,a1
    5056:	855a                	mv	a0,s6
    5058:	85de                	mv	a1,s7
    505a:	501010ef          	jal	ra,6d5a <__muldf3>
    505e:	8b2a                	mv	s6,a0
    5060:	03cc2503          	lw	a0,60(s8)
    5064:	8bae                	mv	s7,a1
    5066:	6af020ef          	jal	ra,7f14 <__extendsfdf2>
    506a:	0000b737          	lui	a4,0xb
    506e:	862a                	mv	a2,a0
    5070:	86ae                	mv	a3,a1
    5072:	36072503          	lw	a0,864(a4) # b360 <_read+0x244>
    5076:	36472583          	lw	a1,868(a4)
    507a:	198020ef          	jal	ra,7212 <__subdf3>
    507e:	d42a                	sw	a0,40(sp)
    5080:	856a                	mv	a0,s10
    5082:	d62e                	sw	a1,44(sp)
    5084:	1d5020ef          	jal	ra,7a58 <__floatunsidf>
    5088:	5722                	lw	a4,40(sp)
    508a:	57b2                	lw	a5,44(sp)
    508c:	862a                	mv	a2,a0
    508e:	86ae                	mv	a3,a1
    5090:	853a                	mv	a0,a4
    5092:	85be                	mv	a1,a5
    5094:	17e020ef          	jal	ra,7212 <__subdf3>
    5098:	862a                	mv	a2,a0
    509a:	86ae                	mv	a3,a1
    509c:	855a                	mv	a0,s6
    509e:	85de                	mv	a1,s7
    50a0:	5ee010ef          	jal	ra,668e <__divdf3>
    50a4:	8b2a                	mv	s6,a0
    50a6:	4888                	lw	a0,16(s1)
    50a8:	8bae                	mv	s7,a1
    50aa:	66b020ef          	jal	ra,7f14 <__extendsfdf2>
    50ae:	862a                	mv	a2,a0
    50b0:	86ae                	mv	a3,a1
    50b2:	855a                	mv	a0,s6
    50b4:	85de                	mv	a1,s7
    50b6:	15c020ef          	jal	ra,7212 <__subdf3>
    50ba:	8b2a                	mv	s6,a0
    50bc:	8141a503          	lw	a0,-2028(gp) # 20000204 <PM_Probe2Res>
    50c0:	8bae                	mv	s7,a1
    50c2:	653020ef          	jal	ra,7f14 <__extendsfdf2>
    50c6:	862a                	mv	a2,a0
    50c8:	86ae                	mv	a3,a1
    50ca:	855a                	mv	a0,s6
    50cc:	85de                	mv	a1,s7
    50ce:	144020ef          	jal	ra,7212 <__subdf3>
    50d2:	8b2a                	mv	s6,a0
    50d4:	8bae                	mv	s7,a1
    50d6:	b5e9                	j	4fa0 <PM_MeasureResistance+0xd20>
    50d8:	4c01                	li	s8,0
    50da:	4c81                	li	s9,0
    50dc:	8b62                	mv	s6,s8
    50de:	8be6                	mv	s7,s9
    50e0:	8a62                	mv	s4,s8
    50e2:	8ae6                	mv	s5,s9
    50e4:	8962                	mv	s2,s8
    50e6:	89e6                	mv	s3,s9
    50e8:	0000c537          	lui	a0,0xc
    50ec:	87d6                	mv	a5,s5
    50ee:	885a                	mv	a6,s6
    50f0:	88de                	mv	a7,s7
    50f2:	8752                	mv	a4,s4
    50f4:	864a                	mv	a2,s2
    50f6:	86ce                	mv	a3,s3
    50f8:	c062                	sw	s8,0(sp)
    50fa:	c266                	sw	s9,4(sp)
    50fc:	8b050513          	addi	a0,a0,-1872 # b8b0 <PortGroup_3+0x210>
    5100:	1cb030ef          	jal	ra,8aca <iprintf>
    5104:	8652                	mv	a2,s4
    5106:	86d6                	mv	a3,s5
    5108:	854a                	mv	a0,s2
    510a:	85ce                	mv	a1,s3
    510c:	653000ef          	jal	ra,5f5e <__adddf3>
    5110:	865a                	mv	a2,s6
    5112:	86de                	mv	a3,s7
    5114:	64b000ef          	jal	ra,5f5e <__adddf3>
    5118:	8662                	mv	a2,s8
    511a:	86e6                	mv	a3,s9
    511c:	643000ef          	jal	ra,5f5e <__adddf3>
    5120:	0000b7b7          	lui	a5,0xb
    5124:	6f07a603          	lw	a2,1776(a5) # b6f0 <PortGroup_3+0x50>
    5128:	6f47a683          	lw	a3,1780(a5)
    512c:	42f010ef          	jal	ra,6d5a <__muldf3>
    5130:	47f2                	lw	a5,28(sp)
    5132:	862a                	mv	a2,a0
    5134:	86ae                	mv	a3,a1
    5136:	cb88                	sw	a0,16(a5)
    5138:	0000c537          	lui	a0,0xc
    513c:	8f850513          	addi	a0,a0,-1800 # b8f8 <PortGroup_3+0x258>
    5140:	cbcc                	sw	a1,20(a5)
    5142:	4405                	li	s0,1
    5144:	187030ef          	jal	ra,8aca <iprintf>
    5148:	9d9ff06f          	j	4b20 <PM_MeasureResistance+0x8a0>
    514c:	0000c537          	lui	a0,0xc
    5150:	8762                	mv	a4,s8
    5152:	87e6                	mv	a5,s9
    5154:	865a                	mv	a2,s6
    5156:	86de                	mv	a3,s7
    5158:	90850513          	addi	a0,a0,-1784 # b908 <PortGroup_3+0x268>
    515c:	16f030ef          	jal	ra,8aca <iprintf>
    5160:	8662                	mv	a2,s8
    5162:	86e6                	mv	a3,s9
    5164:	855a                	mv	a0,s6
    5166:	85de                	mv	a1,s7
    5168:	5f7000ef          	jal	ra,5f5e <__adddf3>
    516c:	0000b7b7          	lui	a5,0xb
    5170:	6f87a603          	lw	a2,1784(a5) # b6f8 <PortGroup_3+0x58>
    5174:	6fc7a683          	lw	a3,1788(a5)
    5178:	3e3010ef          	jal	ra,6d5a <__muldf3>
    517c:	47f2                	lw	a5,28(sp)
    517e:	862a                	mv	a2,a0
    5180:	86ae                	mv	a3,a1
    5182:	cb88                	sw	a0,16(a5)
    5184:	0000c537          	lui	a0,0xc
    5188:	8f850513          	addi	a0,a0,-1800 # b8f8 <PortGroup_3+0x258>
    518c:	cbcc                	sw	a1,20(a5)
    518e:	13d030ef          	jal	ra,8aca <iprintf>
    5192:	98fff06f          	j	4b20 <PM_MeasureResistance+0x8a0>
    5196:	0000c537          	lui	a0,0xc
    519a:	87d6                	mv	a5,s5
    519c:	8752                	mv	a4,s4
    519e:	864a                	mv	a2,s2
    51a0:	86ce                	mv	a3,s3
    51a2:	93050513          	addi	a0,a0,-1744 # b930 <PortGroup_3+0x290>
    51a6:	125030ef          	jal	ra,8aca <iprintf>
    51aa:	8652                	mv	a2,s4
    51ac:	86d6                	mv	a3,s5
    51ae:	854a                	mv	a0,s2
    51b0:	85ce                	mv	a1,s3
    51b2:	5ad000ef          	jal	ra,5f5e <__adddf3>
    51b6:	0000b7b7          	lui	a5,0xb
    51ba:	6f87a603          	lw	a2,1784(a5) # b6f8 <PortGroup_3+0x58>
    51be:	6fc7a683          	lw	a3,1788(a5)
    51c2:	b7ad                	j	512c <PM_MeasureResistance+0xeac>

000051c4 <PM_TimerInit>:
    51c4:	86cfb2ef          	jal	t0,230 <__riscv_save_0>
    51c8:	1101                	addi	sp,sp,-32
    51ca:	842e                	mv	s0,a1
    51cc:	84aa                	mv	s1,a0
    51ce:	4585                	li	a1,1
    51d0:	4505                	li	a0,1
    51d2:	ca02                	sw	zero,20(sp)
    51d4:	cc02                	sw	zero,24(sp)
    51d6:	00011e23          	sh	zero,28(sp)
    51da:	c602                	sw	zero,12(sp)
    51dc:	c802                	sw	zero,16(sp)
    51de:	b44fc0ef          	jal	ra,1522 <RCC_APB1PeriphClockCmd>
    51e2:	084c                	addi	a1,sp,20
    51e4:	40000537          	lui	a0,0x40000
    51e8:	84e4                	sh	s1,24(sp)
    51ea:	82e0                	sh	s0,20(sp)
    51ec:	00011d23          	sh	zero,26(sp)
    51f0:	00011b23          	sh	zero,22(sp)
    51f4:	b6afc0ef          	jal	ra,155e <TIM_TimeBaseInit>
    51f8:	4585                	li	a1,1
    51fa:	40000537          	lui	a0,0x40000
    51fe:	c46fc0ef          	jal	ra,1644 <TIM_ClearFlag>
    5202:	4605                	li	a2,1
    5204:	4585                	li	a1,1
    5206:	40000537          	lui	a0,0x40000
    520a:	c16fc0ef          	jal	ra,1620 <TIM_ITConfig>
    520e:	22c00793          	li	a5,556
    5212:	867c                	sh	a5,12(sp)
    5214:	478d                	li	a5,3
    5216:	875c                	sb	a5,14(sp)
    5218:	0068                	addi	a0,sp,12
    521a:	4785                	li	a5,1
    521c:	c83e                	sw	a5,16(sp)
    521e:	89afc0ef          	jal	ra,12b8 <NVIC_Init>
    5222:	6105                	addi	sp,sp,32
    5224:	830fb06f          	j	254 <__riscv_restore_0>

00005228 <PM_TimerCountTimeNS>:
    5228:	3e800793          	li	a5,1000
    522c:	0505                	addi	a0,a0,1
    522e:	02f50533          	mul	a0,a0,a5
    5232:	06000793          	li	a5,96
    5236:	02f55533          	divu	a0,a0,a5
    523a:	000a77b7          	lui	a5,0xa7
    523e:	81078793          	addi	a5,a5,-2032 # a6810 <_data_lma+0x9a98c>
    5242:	02f585b3          	mul	a1,a1,a5
    5246:	952e                	add	a0,a0,a1
    5248:	8082                	ret

0000524a <PM_TimerCountClear>:
    524a:	fe7fa2ef          	jal	t0,230 <__riscv_save_0>
    524e:	4581                	li	a1,0
    5250:	40000537          	lui	a0,0x40000
    5254:	bdefc0ef          	jal	ra,1632 <TIM_SetCounter>
    5258:	84019023          	sh	zero,-1984(gp) # 20000230 <TimerOverflowNum>
    525c:	ff9fa06f          	j	254 <__riscv_restore_0>

00005260 <ES8388_Contrl_Init>:
    5260:	fd1fa2ef          	jal	t0,230 <__riscv_save_0>
    5264:	1141                	addi	sp,sp,-16
    5266:	4585                	li	a1,1
    5268:	4541                	li	a0,16
    526a:	a9afc0ef          	jal	ra,1504 <RCC_APB2PeriphClockCmd>
    526e:	6789                	lui	a5,0x2
    5270:	827c                	sh	a5,4(sp)
    5272:	47c1                	li	a5,16
    5274:	c63e                	sw	a5,12(sp)
    5276:	004c                	addi	a1,sp,4
    5278:	478d                	li	a5,3
    527a:	40011537          	lui	a0,0x40011
    527e:	c43e                	sw	a5,8(sp)
    5280:	cc3fb0ef          	jal	ra,f42 <GPIO_Init>
    5284:	0141                	addi	sp,sp,16
    5286:	fcffa06f          	j	254 <__riscv_restore_0>

0000528a <ES8388_WaitEvent>:
    528a:	fa7fa2ef          	jal	t0,230 <__riscv_save_0>
    528e:	6441                	lui	s0,0x10
    5290:	84aa                	mv	s1,a0
    5292:	892e                	mv	s2,a1
    5294:	147d                	addi	s0,s0,-1
    5296:	85ca                	mv	a1,s2
    5298:	8526                	mv	a0,s1
    529a:	fd1fb0ef          	jal	ra,126a <I2C_CheckEvent>
    529e:	c501                	beqz	a0,52a6 <ES8388_WaitEvent+0x1c>
    52a0:	4501                	li	a0,0
    52a2:	fb3fa06f          	j	254 <__riscv_restore_0>
    52a6:	147d                	addi	s0,s0,-1
    52a8:	0442                	slli	s0,s0,0x10
    52aa:	8041                	srli	s0,s0,0x10
    52ac:	f46d                	bnez	s0,5296 <ES8388_WaitEvent+0xc>
    52ae:	4505                	li	a0,1
    52b0:	bfcd                	j	52a2 <ES8388_WaitEvent+0x18>

000052b2 <ES8388_Write_Reg>:
    52b2:	f65fa2ef          	jal	t0,216 <__riscv_save_4>
    52b6:	6441                	lui	s0,0x10
    52b8:	400054b7          	lui	s1,0x40005
    52bc:	8a2a                	mv	s4,a0
    52be:	892e                	mv	s2,a1
    52c0:	147d                	addi	s0,s0,-1
    52c2:	40048993          	addi	s3,s1,1024 # 40005400 <_eusrstack+0x1fffd400>
    52c6:	000205b7          	lui	a1,0x20
    52ca:	854e                	mv	a0,s3
    52cc:	fb5fb0ef          	jal	ra,1280 <I2C_GetFlagStatus>
    52d0:	ed5d                	bnez	a0,538e <ES8388_Write_Reg+0xdc>
    52d2:	4585                	li	a1,1
    52d4:	40048513          	addi	a0,s1,1024
    52d8:	f49fb0ef          	jal	ra,1220 <I2C_GenerateSTART>
    52dc:	000305b7          	lui	a1,0x30
    52e0:	0585                	addi	a1,a1,1
    52e2:	40048513          	addi	a0,s1,1024
    52e6:	fa5ff0ef          	jal	ra,528a <ES8388_WaitEvent>
    52ea:	e555                	bnez	a0,5396 <ES8388_Write_Reg+0xe4>
    52ec:	02000593          	li	a1,32
    52f0:	40048513          	addi	a0,s1,1024
    52f4:	4601                	li	a2,0
    52f6:	f63fb0ef          	jal	ra,1258 <I2C_Send7bitAddress>
    52fa:	000705b7          	lui	a1,0x70
    52fe:	08258593          	addi	a1,a1,130 # 70082 <_data_lma+0x641fe>
    5302:	40048513          	addi	a0,s1,1024
    5306:	f85ff0ef          	jal	ra,528a <ES8388_WaitEvent>
    530a:	e551                	bnez	a0,5396 <ES8388_Write_Reg+0xe4>
    530c:	6441                	lui	s0,0x10
    530e:	100009b7          	lui	s3,0x10000
    5312:	400054b7          	lui	s1,0x40005
    5316:	147d                	addi	s0,s0,-1
    5318:	08098993          	addi	s3,s3,128 # 10000080 <_data_lma+0xfff41fc>
    531c:	40048a93          	addi	s5,s1,1024 # 40005400 <_eusrstack+0x1fffd400>
    5320:	85ce                	mv	a1,s3
    5322:	8556                	mv	a0,s5
    5324:	f5dfb0ef          	jal	ra,1280 <I2C_GetFlagStatus>
    5328:	c93d                	beqz	a0,539e <ES8388_Write_Reg+0xec>
    532a:	85d2                	mv	a1,s4
    532c:	40048513          	addi	a0,s1,1024
    5330:	f25fb0ef          	jal	ra,1254 <I2C_SendData>
    5334:	000705b7          	lui	a1,0x70
    5338:	08458593          	addi	a1,a1,132 # 70084 <_data_lma+0x64200>
    533c:	40048513          	addi	a0,s1,1024
    5340:	f4bff0ef          	jal	ra,528a <ES8388_WaitEvent>
    5344:	e929                	bnez	a0,5396 <ES8388_Write_Reg+0xe4>
    5346:	6441                	lui	s0,0x10
    5348:	100009b7          	lui	s3,0x10000
    534c:	400054b7          	lui	s1,0x40005
    5350:	147d                	addi	s0,s0,-1
    5352:	08098993          	addi	s3,s3,128 # 10000080 <_data_lma+0xfff41fc>
    5356:	40048a13          	addi	s4,s1,1024 # 40005400 <_eusrstack+0x1fffd400>
    535a:	85ce                	mv	a1,s3
    535c:	8552                	mv	a0,s4
    535e:	f23fb0ef          	jal	ra,1280 <I2C_GetFlagStatus>
    5362:	c139                	beqz	a0,53a8 <ES8388_Write_Reg+0xf6>
    5364:	85ca                	mv	a1,s2
    5366:	40048513          	addi	a0,s1,1024
    536a:	eebfb0ef          	jal	ra,1254 <I2C_SendData>
    536e:	000705b7          	lui	a1,0x70
    5372:	08458593          	addi	a1,a1,132 # 70084 <_data_lma+0x64200>
    5376:	40048513          	addi	a0,s1,1024
    537a:	f11ff0ef          	jal	ra,528a <ES8388_WaitEvent>
    537e:	842a                	mv	s0,a0
    5380:	e919                	bnez	a0,5396 <ES8388_Write_Reg+0xe4>
    5382:	4585                	li	a1,1
    5384:	40048513          	addi	a0,s1,1024
    5388:	eb3fb0ef          	jal	ra,123a <I2C_GenerateSTOP>
    538c:	a031                	j	5398 <ES8388_Write_Reg+0xe6>
    538e:	147d                	addi	s0,s0,-1
    5390:	0442                	slli	s0,s0,0x10
    5392:	8041                	srli	s0,s0,0x10
    5394:	f80d                	bnez	s0,52c6 <ES8388_Write_Reg+0x14>
    5396:	4405                	li	s0,1
    5398:	8522                	mv	a0,s0
    539a:	eb1fa06f          	j	24a <__riscv_restore_4>
    539e:	147d                	addi	s0,s0,-1
    53a0:	0442                	slli	s0,s0,0x10
    53a2:	8041                	srli	s0,s0,0x10
    53a4:	fc35                	bnez	s0,5320 <ES8388_Write_Reg+0x6e>
    53a6:	bfc5                	j	5396 <ES8388_Write_Reg+0xe4>
    53a8:	147d                	addi	s0,s0,-1
    53aa:	0442                	slli	s0,s0,0x10
    53ac:	8041                	srli	s0,s0,0x10
    53ae:	f455                	bnez	s0,535a <ES8388_Write_Reg+0xa8>
    53b0:	b7dd                	j	5396 <ES8388_Write_Reg+0xe4>

000053b2 <ES8388_Init>:
    53b2:	e7ffa2ef          	jal	t0,230 <__riscv_save_0>
    53b6:	1101                	addi	sp,sp,-32
    53b8:	4585                	li	a1,1
    53ba:	4521                	li	a0,8
    53bc:	948fc0ef          	jal	ra,1504 <RCC_APB2PeriphClockCmd>
    53c0:	4585                	li	a1,1
    53c2:	4505                	li	a0,1
    53c4:	940fc0ef          	jal	ra,1504 <RCC_APB2PeriphClockCmd>
    53c8:	4585                	li	a1,1
    53ca:	4509                	li	a0,2
    53cc:	c49fb0ef          	jal	ra,1014 <GPIO_PinRemapConfig>
    53d0:	4585                	li	a1,1
    53d2:	00200537          	lui	a0,0x200
    53d6:	94cfc0ef          	jal	ra,1522 <RCC_APB1PeriphClockCmd>
    53da:	40011437          	lui	s0,0x40011
    53de:	c0040513          	addi	a0,s0,-1024 # 40010c00 <_eusrstack+0x20008c00>
    53e2:	30000593          	li	a1,768
    53e6:	c27fb0ef          	jal	ra,100c <GPIO_SetBits>
    53ea:	10000793          	li	a5,256
    53ee:	4971                	li	s2,28
    53f0:	448d                	li	s1,3
    53f2:	004c                	addi	a1,sp,4
    53f4:	c0040513          	addi	a0,s0,-1024
    53f8:	827c                	sh	a5,4(sp)
    53fa:	c64a                	sw	s2,12(sp)
    53fc:	c426                	sw	s1,8(sp)
    53fe:	b45fb0ef          	jal	ra,f42 <GPIO_Init>
    5402:	20000793          	li	a5,512
    5406:	004c                	addi	a1,sp,4
    5408:	c0040513          	addi	a0,s0,-1024
    540c:	827c                	sh	a5,4(sp)
    540e:	c64a                	sw	s2,12(sp)
    5410:	c426                	sw	s1,8(sp)
    5412:	b31fb0ef          	jal	ra,f42 <GPIO_Init>
    5416:	67e1                	lui	a5,0x18
    5418:	6a078793          	addi	a5,a5,1696 # 186a0 <_data_lma+0xc81c>
    541c:	c83e                	sw	a5,16(sp)
    541e:	400007b7          	lui	a5,0x40000
    5422:	ca3e                	sw	a5,20(sp)
    5424:	040007b7          	lui	a5,0x4000
    5428:	40005437          	lui	s0,0x40005
    542c:	0785                	addi	a5,a5,1
    542e:	cc3e                	sw	a5,24(sp)
    5430:	080c                	addi	a1,sp,16
    5432:	6791                	lui	a5,0x4
    5434:	40040513          	addi	a0,s0,1024 # 40005400 <_eusrstack+0x1fffd400>
    5438:	86fc                	sh	a5,28(sp)
    543a:	cddfb0ef          	jal	ra,1116 <I2C_Init>
    543e:	40040513          	addi	a0,s0,1024
    5442:	4585                	li	a1,1
    5444:	dc5fb0ef          	jal	ra,1208 <I2C_Cmd>
    5448:	e19ff0ef          	jal	ra,5260 <ES8388_Contrl_Init>
    544c:	08000593          	li	a1,128
    5450:	4501                	li	a0,0
    5452:	e61ff0ef          	jal	ra,52b2 <ES8388_Write_Reg>
    5456:	4581                	li	a1,0
    5458:	4501                	li	a0,0
    545a:	e59ff0ef          	jal	ra,52b2 <ES8388_Write_Reg>
    545e:	06400513          	li	a0,100
    5462:	2331                	jal	596e <Delay_Ms>
    5464:	05800593          	li	a1,88
    5468:	4505                	li	a0,1
    546a:	e49ff0ef          	jal	ra,52b2 <ES8388_Write_Reg>
    546e:	05000593          	li	a1,80
    5472:	4505                	li	a0,1
    5474:	e3fff0ef          	jal	ra,52b2 <ES8388_Write_Reg>
    5478:	0f300593          	li	a1,243
    547c:	4509                	li	a0,2
    547e:	e35ff0ef          	jal	ra,52b2 <ES8388_Write_Reg>
    5482:	0f000593          	li	a1,240
    5486:	4509                	li	a0,2
    5488:	e2bff0ef          	jal	ra,52b2 <ES8388_Write_Reg>
    548c:	45a5                	li	a1,9
    548e:	450d                	li	a0,3
    5490:	e23ff0ef          	jal	ra,52b2 <ES8388_Write_Reg>
    5494:	4599                	li	a1,6
    5496:	4501                	li	a0,0
    5498:	e1bff0ef          	jal	ra,52b2 <ES8388_Write_Reg>
    549c:	4581                	li	a1,0
    549e:	4511                	li	a0,4
    54a0:	e13ff0ef          	jal	ra,52b2 <ES8388_Write_Reg>
    54a4:	4581                	li	a1,0
    54a6:	4521                	li	a0,8
    54a8:	e0bff0ef          	jal	ra,52b2 <ES8388_Write_Reg>
    54ac:	08000593          	li	a1,128
    54b0:	02b00513          	li	a0,43
    54b4:	dffff0ef          	jal	ra,52b2 <ES8388_Write_Reg>
    54b8:	08800593          	li	a1,136
    54bc:	4525                	li	a0,9
    54be:	df5ff0ef          	jal	ra,52b2 <ES8388_Write_Reg>
    54c2:	04c00593          	li	a1,76
    54c6:	4531                	li	a0,12
    54c8:	debff0ef          	jal	ra,52b2 <ES8388_Write_Reg>
    54cc:	4589                	li	a1,2
    54ce:	4535                	li	a0,13
    54d0:	de3ff0ef          	jal	ra,52b2 <ES8388_Write_Reg>
    54d4:	4581                	li	a1,0
    54d6:	4541                	li	a0,16
    54d8:	ddbff0ef          	jal	ra,52b2 <ES8388_Write_Reg>
    54dc:	4581                	li	a1,0
    54de:	4545                	li	a0,17
    54e0:	dd3ff0ef          	jal	ra,52b2 <ES8388_Write_Reg>
    54e4:	4581                	li	a1,0
    54e6:	4549                	li	a0,18
    54e8:	dcbff0ef          	jal	ra,52b2 <ES8388_Write_Reg>
    54ec:	45e1                	li	a1,24
    54ee:	455d                	li	a0,23
    54f0:	dc3ff0ef          	jal	ra,52b2 <ES8388_Write_Reg>
    54f4:	4589                	li	a1,2
    54f6:	4561                	li	a0,24
    54f8:	dbbff0ef          	jal	ra,52b2 <ES8388_Write_Reg>
    54fc:	4581                	li	a1,0
    54fe:	4569                	li	a0,26
    5500:	db3ff0ef          	jal	ra,52b2 <ES8388_Write_Reg>
    5504:	4581                	li	a1,0
    5506:	456d                	li	a0,27
    5508:	dabff0ef          	jal	ra,52b2 <ES8388_Write_Reg>
    550c:	0b800593          	li	a1,184
    5510:	02700513          	li	a0,39
    5514:	d9fff0ef          	jal	ra,52b2 <ES8388_Write_Reg>
    5518:	0b800593          	li	a1,184
    551c:	02a00513          	li	a0,42
    5520:	d93ff0ef          	jal	ra,52b2 <ES8388_Write_Reg>
    5524:	06400513          	li	a0,100
    5528:	2199                	jal	596e <Delay_Ms>
    552a:	4501                	li	a0,0
    552c:	6105                	addi	sp,sp,32
    552e:	d27fa06f          	j	254 <__riscv_restore_0>

00005532 <ES8388_close>:
    5532:	cfffa2ef          	jal	t0,230 <__riscv_save_0>
    5536:	e7dff0ef          	jal	ra,53b2 <ES8388_Init>
    553a:	08000593          	li	a1,128
    553e:	4501                	li	a0,0
    5540:	d73ff0ef          	jal	ra,52b2 <ES8388_Write_Reg>
    5544:	4581                	li	a1,0
    5546:	4501                	li	a0,0
    5548:	d6bff0ef          	jal	ra,52b2 <ES8388_Write_Reg>
    554c:	06400513          	li	a0,100
    5550:	2939                	jal	596e <Delay_Ms>
    5552:	05d00593          	li	a1,93
    5556:	4505                	li	a0,1
    5558:	d5bff0ef          	jal	ra,52b2 <ES8388_Write_Reg>
    555c:	45fd                	li	a1,31
    555e:	4509                	li	a0,2
    5560:	d53ff0ef          	jal	ra,52b2 <ES8388_Write_Reg>
    5564:	0c000593          	li	a1,192
    5568:	4511                	li	a0,4
    556a:	d49ff0ef          	jal	ra,52b2 <ES8388_Write_Reg>
    556e:	ce7fa06f          	j	254 <__riscv_restore_0>

00005572 <Keyboard_SetKeyPressed.part.0>:
    5572:	4785                	li	a5,1
    5574:	00a79533          	sll	a0,a5,a0
    5578:	a8018793          	addi	a5,gp,-1408 # 20000470 <gkeyboard_status>
    557c:	239a                	lhu	a4,0(a5)
    557e:	0542                	slli	a0,a0,0x10
    5580:	8541                	srai	a0,a0,0x10
    5582:	8f49                	or	a4,a4,a0
    5584:	a39a                	sh	a4,0(a5)
    5586:	23ba                	lhu	a4,2(a5)
    5588:	fff54513          	not	a0,a0
    558c:	8d79                	and	a0,a0,a4
    558e:	a3aa                	sh	a0,2(a5)
    5590:	8082                	ret

00005592 <Keyboard_Init>:
    5592:	c9ffa2ef          	jal	t0,230 <__riscv_save_0>
    5596:	7179                	addi	sp,sp,-48
    5598:	4585                	li	a1,1
    559a:	02100513          	li	a0,33
    559e:	ca02                	sw	zero,20(sp)
    55a0:	cc02                	sw	zero,24(sp)
    55a2:	ce02                	sw	zero,28(sp)
    55a4:	d002                	sw	zero,32(sp)
    55a6:	d202                	sw	zero,36(sp)
    55a8:	d402                	sw	zero,40(sp)
    55aa:	d602                	sw	zero,44(sp)
    55ac:	f59fb0ef          	jal	ra,1504 <RCC_APB2PeriphClockCmd>
    55b0:	6789                	lui	a5,0x2
    55b2:	c0078793          	addi	a5,a5,-1024 # 1c00 <PM_MeasureBJT+0x1c0>
    55b6:	40011537          	lui	a0,0x40011
    55ba:	82fc                	sh	a5,20(sp)
    55bc:	440d                	li	s0,3
    55be:	04800793          	li	a5,72
    55c2:	084c                	addi	a1,sp,20
    55c4:	40050513          	addi	a0,a0,1024 # 40011400 <_eusrstack+0x20009400>
    55c8:	ce3e                	sw	a5,28(sp)
    55ca:	cc22                	sw	s0,24(sp)
    55cc:	977fb0ef          	jal	ra,f42 <GPIO_Init>
    55d0:	4585                	li	a1,1
    55d2:	04100513          	li	a0,65
    55d6:	f2ffb0ef          	jal	ra,1504 <RCC_APB2PeriphClockCmd>
    55da:	cc22                	sw	s0,24(sp)
    55dc:	40012437          	lui	s0,0x40012
    55e0:	47c1                	li	a5,16
    55e2:	03800493          	li	s1,56
    55e6:	084c                	addi	a1,sp,20
    55e8:	80040513          	addi	a0,s0,-2048 # 40011800 <_eusrstack+0x20009800>
    55ec:	ce3e                	sw	a5,28(sp)
    55ee:	82e4                	sh	s1,20(sp)
    55f0:	953fb0ef          	jal	ra,f42 <GPIO_Init>
    55f4:	80040513          	addi	a0,s0,-2048
    55f8:	03800593          	li	a1,56
    55fc:	a15fb0ef          	jal	ra,1010 <GPIO_ResetBits>
    5600:	45a9                	li	a1,10
    5602:	450d                	li	a0,3
    5604:	ae7fb0ef          	jal	ra,10ea <GPIO_EXTILineConfig>
    5608:	45ad                	li	a1,11
    560a:	450d                	li	a0,3
    560c:	adffb0ef          	jal	ra,10ea <GPIO_EXTILineConfig>
    5610:	45b1                	li	a1,12
    5612:	450d                	li	a0,3
    5614:	ad7fb0ef          	jal	ra,10ea <GPIO_EXTILineConfig>
    5618:	6789                	lui	a5,0x2
    561a:	c0078793          	addi	a5,a5,-1024 # 1c00 <PM_MeasureBJT+0x1c0>
    561e:	4405                	li	s0,1
    5620:	d03e                	sw	a5,32(sp)
    5622:	1008                	addi	a0,sp,32
    5624:	47b1                	li	a5,12
    5626:	d43e                	sw	a5,40(sp)
    5628:	d622                	sw	s0,44(sp)
    562a:	d202                	sw	zero,36(sp)
    562c:	885fb0ef          	jal	ra,eb0 <EXTI_Init>
    5630:	4789                	li	a5,2
    5632:	c602                	sw	zero,12(sp)
    5634:	0068                	addi	a0,sp,12
    5636:	8644                	sb	s1,12(sp)
    5638:	875c                	sb	a5,14(sp)
    563a:	c822                	sw	s0,16(sp)
    563c:	c7dfb0ef          	jal	ra,12b8 <NVIC_Init>
    5640:	6145                	addi	sp,sp,48
    5642:	c13fa06f          	j	254 <__riscv_restore_0>

00005646 <Keyboard_ScanCol_Mode>:
    5646:	bebfa2ef          	jal	t0,230 <__riscv_save_0>
    564a:	6789                	lui	a5,0x2
    564c:	1141                	addi	sp,sp,-16
    564e:	400114b7          	lui	s1,0x40011
    5652:	c0078793          	addi	a5,a5,-1024 # 1c00 <PM_MeasureBJT+0x1c0>
    5656:	440d                	li	s0,3
    5658:	827c                	sh	a5,4(sp)
    565a:	004c                	addi	a1,sp,4
    565c:	47c1                	li	a5,16
    565e:	40048513          	addi	a0,s1,1024 # 40011400 <_eusrstack+0x20009400>
    5662:	c63e                	sw	a5,12(sp)
    5664:	c422                	sw	s0,8(sp)
    5666:	00011323          	sh	zero,6(sp)
    566a:	8d9fb0ef          	jal	ra,f42 <GPIO_Init>
    566e:	6589                	lui	a1,0x2
    5670:	40048513          	addi	a0,s1,1024
    5674:	c0058593          	addi	a1,a1,-1024 # 1c00 <PM_MeasureBJT+0x1c0>
    5678:	999fb0ef          	jal	ra,1010 <GPIO_ResetBits>
    567c:	03800793          	li	a5,56
    5680:	40012537          	lui	a0,0x40012
    5684:	827c                	sh	a5,4(sp)
    5686:	004c                	addi	a1,sp,4
    5688:	04800793          	li	a5,72
    568c:	80050513          	addi	a0,a0,-2048 # 40011800 <_eusrstack+0x20009800>
    5690:	c422                	sw	s0,8(sp)
    5692:	c63e                	sw	a5,12(sp)
    5694:	8affb0ef          	jal	ra,f42 <GPIO_Init>
    5698:	0141                	addi	sp,sp,16
    569a:	bbbfa06f          	j	254 <__riscv_restore_0>

0000569e <Keyboard_ScanRow_Mode>:
    569e:	b93fa2ef          	jal	t0,230 <__riscv_save_0>
    56a2:	6789                	lui	a5,0x2
    56a4:	1141                	addi	sp,sp,-16
    56a6:	c0078793          	addi	a5,a5,-1024 # 1c00 <PM_MeasureBJT+0x1c0>
    56aa:	40011537          	lui	a0,0x40011
    56ae:	827c                	sh	a5,4(sp)
    56b0:	440d                	li	s0,3
    56b2:	04800793          	li	a5,72
    56b6:	004c                	addi	a1,sp,4
    56b8:	40050513          	addi	a0,a0,1024 # 40011400 <_eusrstack+0x20009400>
    56bc:	c422                	sw	s0,8(sp)
    56be:	c63e                	sw	a5,12(sp)
    56c0:	00011323          	sh	zero,6(sp)
    56c4:	87ffb0ef          	jal	ra,f42 <GPIO_Init>
    56c8:	03800793          	li	a5,56
    56cc:	c422                	sw	s0,8(sp)
    56ce:	40012437          	lui	s0,0x40012
    56d2:	827c                	sh	a5,4(sp)
    56d4:	004c                	addi	a1,sp,4
    56d6:	47c1                	li	a5,16
    56d8:	80040513          	addi	a0,s0,-2048 # 40011800 <_eusrstack+0x20009800>
    56dc:	c63e                	sw	a5,12(sp)
    56de:	865fb0ef          	jal	ra,f42 <GPIO_Init>
    56e2:	03800593          	li	a1,56
    56e6:	80040513          	addi	a0,s0,-2048
    56ea:	927fb0ef          	jal	ra,1010 <GPIO_ResetBits>
    56ee:	0141                	addi	sp,sp,16
    56f0:	b65fa06f          	j	254 <__riscv_restore_0>

000056f4 <EXTI15_10_IRQHandler>:
    56f4:	1141                	addi	sp,sp,-16
    56f6:	40000513          	li	a0,1024
    56fa:	c622                	sw	s0,12(sp)
    56fc:	81ffb0ef          	jal	ra,f1a <EXTI_GetITStatus>
    5700:	c94d                	beqz	a0,57b2 <EXTI15_10_IRQHandler+0xbe>
    5702:	40000513          	li	a0,1024
    5706:	833fb0ef          	jal	ra,f38 <EXTI_ClearITPendingBit>
    570a:	03200513          	li	a0,50
    570e:	2485                	jal	596e <Delay_Ms>
    5710:	40011537          	lui	a0,0x40011
    5714:	40000593          	li	a1,1024
    5718:	40050513          	addi	a0,a0,1024 # 40011400 <_eusrstack+0x20009400>
    571c:	8e7fb0ef          	jal	ra,1002 <GPIO_ReadInputDataBit>
    5720:	e549                	bnez	a0,57aa <EXTI15_10_IRQHandler+0xb6>
    5722:	f25ff0ef          	jal	ra,5646 <Keyboard_ScanCol_Mode>
    5726:	40012537          	lui	a0,0x40012
    572a:	45a1                	li	a1,8
    572c:	80050513          	addi	a0,a0,-2048 # 40011800 <_eusrstack+0x20009800>
    5730:	8d3fb0ef          	jal	ra,1002 <GPIO_ReadInputDataBit>
    5734:	ed15                	bnez	a0,5770 <EXTI15_10_IRQHandler+0x7c>
    5736:	0000c537          	lui	a0,0xc
    573a:	95450513          	addi	a0,a0,-1708 # b954 <PortGroup_3+0x2b4>
    573e:	4a6030ef          	jal	ra,8be4 <puts>
    5742:	4581                	li	a1,0
    5744:	40000537          	lui	a0,0x40000
    5748:	ec1fb0ef          	jal	ra,1608 <TIM_Cmd>
    574c:	4581                	li	a1,0
    574e:	40000537          	lui	a0,0x40000
    5752:	ee1fb0ef          	jal	ra,1632 <TIM_SetCounter>
    5756:	40000537          	lui	a0,0x40000
    575a:	4585                	li	a1,1
    575c:	84019023          	sh	zero,-1984(gp) # 20000230 <TimerOverflowNum>
    5760:	ef1fb0ef          	jal	ra,1650 <TIM_ClearITPendingBit>
    5764:	4705                	li	a4,1
    5766:	4501                	li	a0,0
    5768:	82e18da3          	sb	a4,-1989(gp) # 2000022b <MeasureStartFlg>
    576c:	e07ff0ef          	jal	ra,5572 <Keyboard_SetKeyPressed.part.0>
    5770:	40012537          	lui	a0,0x40012
    5774:	45c1                	li	a1,16
    5776:	80050513          	addi	a0,a0,-2048 # 40011800 <_eusrstack+0x20009800>
    577a:	889fb0ef          	jal	ra,1002 <GPIO_ReadInputDataBit>
    577e:	e501                	bnez	a0,5786 <EXTI15_10_IRQHandler+0x92>
    5780:	4505                	li	a0,1
    5782:	df1ff0ef          	jal	ra,5572 <Keyboard_SetKeyPressed.part.0>
    5786:	40012537          	lui	a0,0x40012
    578a:	02000593          	li	a1,32
    578e:	80050513          	addi	a0,a0,-2048 # 40011800 <_eusrstack+0x20009800>
    5792:	871fb0ef          	jal	ra,1002 <GPIO_ReadInputDataBit>
    5796:	e501                	bnez	a0,579e <EXTI15_10_IRQHandler+0xaa>
    5798:	4509                	li	a0,2
    579a:	dd9ff0ef          	jal	ra,5572 <Keyboard_SetKeyPressed.part.0>
    579e:	f01ff0ef          	jal	ra,569e <Keyboard_ScanRow_Mode>
    57a2:	40000513          	li	a0,1024
    57a6:	f92fb0ef          	jal	ra,f38 <EXTI_ClearITPendingBit>
    57aa:	4432                	lw	s0,12(sp)
    57ac:	0141                	addi	sp,sp,16
    57ae:	30200073          	mret
    57b2:	6405                	lui	s0,0x1
    57b4:	80040513          	addi	a0,s0,-2048 # 800 <__stack_size>
    57b8:	f62fb0ef          	jal	ra,f1a <EXTI_GetITStatus>
    57bc:	c93d                	beqz	a0,5832 <EXTI15_10_IRQHandler+0x13e>
    57be:	80040513          	addi	a0,s0,-2048
    57c2:	f76fb0ef          	jal	ra,f38 <EXTI_ClearITPendingBit>
    57c6:	03200513          	li	a0,50
    57ca:	2255                	jal	596e <Delay_Ms>
    57cc:	40011537          	lui	a0,0x40011
    57d0:	80040593          	addi	a1,s0,-2048
    57d4:	40050513          	addi	a0,a0,1024 # 40011400 <_eusrstack+0x20009400>
    57d8:	82bfb0ef          	jal	ra,1002 <GPIO_ReadInputDataBit>
    57dc:	f579                	bnez	a0,57aa <EXTI15_10_IRQHandler+0xb6>
    57de:	e69ff0ef          	jal	ra,5646 <Keyboard_ScanCol_Mode>
    57e2:	40012537          	lui	a0,0x40012
    57e6:	45a1                	li	a1,8
    57e8:	80050513          	addi	a0,a0,-2048 # 40011800 <_eusrstack+0x20009800>
    57ec:	817fb0ef          	jal	ra,1002 <GPIO_ReadInputDataBit>
    57f0:	e501                	bnez	a0,57f8 <EXTI15_10_IRQHandler+0x104>
    57f2:	450d                	li	a0,3
    57f4:	d7fff0ef          	jal	ra,5572 <Keyboard_SetKeyPressed.part.0>
    57f8:	40012537          	lui	a0,0x40012
    57fc:	45c1                	li	a1,16
    57fe:	80050513          	addi	a0,a0,-2048 # 40011800 <_eusrstack+0x20009800>
    5802:	801fb0ef          	jal	ra,1002 <GPIO_ReadInputDataBit>
    5806:	e501                	bnez	a0,580e <EXTI15_10_IRQHandler+0x11a>
    5808:	4511                	li	a0,4
    580a:	d69ff0ef          	jal	ra,5572 <Keyboard_SetKeyPressed.part.0>
    580e:	40012537          	lui	a0,0x40012
    5812:	02000593          	li	a1,32
    5816:	80050513          	addi	a0,a0,-2048 # 40011800 <_eusrstack+0x20009800>
    581a:	fe8fb0ef          	jal	ra,1002 <GPIO_ReadInputDataBit>
    581e:	e501                	bnez	a0,5826 <EXTI15_10_IRQHandler+0x132>
    5820:	4515                	li	a0,5
    5822:	d51ff0ef          	jal	ra,5572 <Keyboard_SetKeyPressed.part.0>
    5826:	e79ff0ef          	jal	ra,569e <Keyboard_ScanRow_Mode>
    582a:	6505                	lui	a0,0x1
    582c:	80050513          	addi	a0,a0,-2048 # 800 <__stack_size>
    5830:	bf9d                	j	57a6 <EXTI15_10_IRQHandler+0xb2>
    5832:	6505                	lui	a0,0x1
    5834:	ee6fb0ef          	jal	ra,f1a <EXTI_GetITStatus>
    5838:	d92d                	beqz	a0,57aa <EXTI15_10_IRQHandler+0xb6>
    583a:	6505                	lui	a0,0x1
    583c:	efcfb0ef          	jal	ra,f38 <EXTI_ClearITPendingBit>
    5840:	03200513          	li	a0,50
    5844:	222d                	jal	596e <Delay_Ms>
    5846:	40011537          	lui	a0,0x40011
    584a:	6585                	lui	a1,0x1
    584c:	40050513          	addi	a0,a0,1024 # 40011400 <_eusrstack+0x20009400>
    5850:	fb2fb0ef          	jal	ra,1002 <GPIO_ReadInputDataBit>
    5854:	f939                	bnez	a0,57aa <EXTI15_10_IRQHandler+0xb6>
    5856:	df1ff0ef          	jal	ra,5646 <Keyboard_ScanCol_Mode>
    585a:	40012537          	lui	a0,0x40012
    585e:	45a1                	li	a1,8
    5860:	80050513          	addi	a0,a0,-2048 # 40011800 <_eusrstack+0x20009800>
    5864:	f9efb0ef          	jal	ra,1002 <GPIO_ReadInputDataBit>
    5868:	e501                	bnez	a0,5870 <EXTI15_10_IRQHandler+0x17c>
    586a:	4519                	li	a0,6
    586c:	d07ff0ef          	jal	ra,5572 <Keyboard_SetKeyPressed.part.0>
    5870:	40012537          	lui	a0,0x40012
    5874:	45c1                	li	a1,16
    5876:	80050513          	addi	a0,a0,-2048 # 40011800 <_eusrstack+0x20009800>
    587a:	f88fb0ef          	jal	ra,1002 <GPIO_ReadInputDataBit>
    587e:	e501                	bnez	a0,5886 <EXTI15_10_IRQHandler+0x192>
    5880:	451d                	li	a0,7
    5882:	cf1ff0ef          	jal	ra,5572 <Keyboard_SetKeyPressed.part.0>
    5886:	40012537          	lui	a0,0x40012
    588a:	02000593          	li	a1,32
    588e:	80050513          	addi	a0,a0,-2048 # 40011800 <_eusrstack+0x20009800>
    5892:	f70fb0ef          	jal	ra,1002 <GPIO_ReadInputDataBit>
    5896:	e501                	bnez	a0,589e <EXTI15_10_IRQHandler+0x1aa>
    5898:	4521                	li	a0,8
    589a:	cd9ff0ef          	jal	ra,5572 <Keyboard_SetKeyPressed.part.0>
    589e:	e01ff0ef          	jal	ra,569e <Keyboard_ScanRow_Mode>
    58a2:	6505                	lui	a0,0x1
    58a4:	b709                	j	57a6 <EXTI15_10_IRQHandler+0xb2>

000058a6 <Keyboard_ClearAllStatus>:
    58a6:	a8018713          	addi	a4,gp,-1408 # 20000470 <gkeyboard_status>
    58aa:	a8018793          	addi	a5,gp,-1408 # 20000470 <gkeyboard_status>
    58ae:	00072023          	sw	zero,0(a4)
    58b2:	00071223          	sh	zero,4(a4)
    58b6:	02478713          	addi	a4,a5,36
    58ba:	0007a423          	sw	zero,8(a5)
    58be:	0791                	addi	a5,a5,4
    58c0:	fee79de3          	bne	a5,a4,58ba <Keyboard_ClearAllStatus+0x14>
    58c4:	8082                	ret

000058c6 <LED_Init>:
    58c6:	96bfa2ef          	jal	t0,230 <__riscv_save_0>
    58ca:	1141                	addi	sp,sp,-16
    58cc:	4585                	li	a1,1
    58ce:	4541                	li	a0,16
    58d0:	c35fb0ef          	jal	ra,1504 <RCC_APB2PeriphClockCmd>
    58d4:	479d                	li	a5,7
    58d6:	827c                	sh	a5,4(sp)
    58d8:	47c1                	li	a5,16
    58da:	c63e                	sw	a5,12(sp)
    58dc:	004c                	addi	a1,sp,4
    58de:	478d                	li	a5,3
    58e0:	40011537          	lui	a0,0x40011
    58e4:	c43e                	sw	a5,8(sp)
    58e6:	e5cfb0ef          	jal	ra,f42 <GPIO_Init>
    58ea:	4585                	li	a1,1
    58ec:	40011537          	lui	a0,0x40011
    58f0:	f1cfb0ef          	jal	ra,100c <GPIO_SetBits>
    58f4:	4589                	li	a1,2
    58f6:	40011537          	lui	a0,0x40011
    58fa:	f12fb0ef          	jal	ra,100c <GPIO_SetBits>
    58fe:	4591                	li	a1,4
    5900:	40011537          	lui	a0,0x40011
    5904:	f08fb0ef          	jal	ra,100c <GPIO_SetBits>
    5908:	0141                	addi	sp,sp,16
    590a:	94bfa06f          	j	254 <__riscv_restore_0>

0000590e <Delay_Init>:
    590e:	200007b7          	lui	a5,0x20000
    5912:	1f07a783          	lw	a5,496(a5) # 200001f0 <SystemCoreClock>
    5916:	007a1737          	lui	a4,0x7a1
    591a:	20070713          	addi	a4,a4,512 # 7a1200 <_data_lma+0x79537c>
    591e:	02e7d7b3          	divu	a5,a5,a4
    5922:	0ff7f793          	andi	a5,a5,255
    5926:	84f18223          	sb	a5,-1980(gp) # 20000234 <p_us>
    592a:	3e800713          	li	a4,1000
    592e:	02e787b3          	mul	a5,a5,a4
    5932:	84f19123          	sh	a5,-1982(gp) # 20000232 <p_ms>
    5936:	8082                	ret

00005938 <Delay_Us>:
    5938:	e000f7b7          	lui	a5,0xe000f
    593c:	43d8                	lw	a4,4(a5)
    593e:	4681                	li	a3,0
    5940:	9b79                	andi	a4,a4,-2
    5942:	c3d8                	sw	a4,4(a5)
    5944:	8441c703          	lbu	a4,-1980(gp) # 20000234 <p_us>
    5948:	02a70633          	mul	a2,a4,a0
    594c:	cb90                	sw	a2,16(a5)
    594e:	cbd4                	sw	a3,20(a5)
    5950:	4398                	lw	a4,0(a5)
    5952:	01076713          	ori	a4,a4,16
    5956:	c398                	sw	a4,0(a5)
    5958:	4398                	lw	a4,0(a5)
    595a:	02176713          	ori	a4,a4,33
    595e:	c398                	sw	a4,0(a5)
    5960:	43d8                	lw	a4,4(a5)
    5962:	8b05                	andi	a4,a4,1
    5964:	df75                	beqz	a4,5960 <Delay_Us+0x28>
    5966:	4398                	lw	a4,0(a5)
    5968:	9b79                	andi	a4,a4,-2
    596a:	c398                	sw	a4,0(a5)
    596c:	8082                	ret

0000596e <Delay_Ms>:
    596e:	e000f7b7          	lui	a5,0xe000f
    5972:	43d8                	lw	a4,4(a5)
    5974:	4681                	li	a3,0
    5976:	9b79                	andi	a4,a4,-2
    5978:	c3d8                	sw	a4,4(a5)
    597a:	8421d703          	lhu	a4,-1982(gp) # 20000232 <p_ms>
    597e:	02a70633          	mul	a2,a4,a0
    5982:	cb90                	sw	a2,16(a5)
    5984:	cbd4                	sw	a3,20(a5)
    5986:	4398                	lw	a4,0(a5)
    5988:	01076713          	ori	a4,a4,16
    598c:	c398                	sw	a4,0(a5)
    598e:	4398                	lw	a4,0(a5)
    5990:	02176713          	ori	a4,a4,33
    5994:	c398                	sw	a4,0(a5)
    5996:	43d8                	lw	a4,4(a5)
    5998:	8b05                	andi	a4,a4,1
    599a:	df75                	beqz	a4,5996 <Delay_Ms+0x28>
    599c:	4398                	lw	a4,0(a5)
    599e:	9b79                	andi	a4,a4,-2
    59a0:	c398                	sw	a4,0(a5)
    59a2:	8082                	ret

000059a4 <USART_Printf_Init>:
    59a4:	88dfa2ef          	jal	t0,230 <__riscv_save_0>
    59a8:	842a                	mv	s0,a0
    59aa:	6511                	lui	a0,0x4
    59ac:	1101                	addi	sp,sp,-32
    59ae:	4585                	li	a1,1
    59b0:	0511                	addi	a0,a0,4
    59b2:	b53fb0ef          	jal	ra,1504 <RCC_APB2PeriphClockCmd>
    59b6:	20000793          	li	a5,512
    59ba:	827c                	sh	a5,4(sp)
    59bc:	40011537          	lui	a0,0x40011
    59c0:	478d                	li	a5,3
    59c2:	c43e                	sw	a5,8(sp)
    59c4:	004c                	addi	a1,sp,4
    59c6:	47e1                	li	a5,24
    59c8:	80050513          	addi	a0,a0,-2048 # 40010800 <_eusrstack+0x20008800>
    59cc:	c63e                	sw	a5,12(sp)
    59ce:	d74fb0ef          	jal	ra,f42 <GPIO_Init>
    59d2:	c822                	sw	s0,16(sp)
    59d4:	40014437          	lui	s0,0x40014
    59d8:	000807b7          	lui	a5,0x80
    59dc:	080c                	addi	a1,sp,16
    59de:	80040513          	addi	a0,s0,-2048 # 40013800 <_eusrstack+0x2000b800>
    59e2:	cc3e                	sw	a5,24(sp)
    59e4:	ca02                	sw	zero,20(sp)
    59e6:	00011e23          	sh	zero,28(sp)
    59ea:	c73fb0ef          	jal	ra,165c <USART_Init>
    59ee:	4585                	li	a1,1
    59f0:	80040513          	addi	a0,s0,-2048
    59f4:	d23fb0ef          	jal	ra,1716 <USART_Cmd>
    59f8:	6105                	addi	sp,sp,32
    59fa:	85bfa06f          	j	254 <__riscv_restore_0>

000059fe <_write>:
    59fe:	819fa2ef          	jal	t0,216 <__riscv_save_4>
    5a02:	400144b7          	lui	s1,0x40014
    5a06:	89ae                	mv	s3,a1
    5a08:	8932                	mv	s2,a2
    5a0a:	4401                	li	s0,0
    5a0c:	80048493          	addi	s1,s1,-2048 # 40013800 <_eusrstack+0x2000b800>
    5a10:	01244563          	blt	s0,s2,5a1a <_write+0x1c>
    5a14:	854a                	mv	a0,s2
    5a16:	835fa06f          	j	24a <__riscv_restore_4>
    5a1a:	04000593          	li	a1,64
    5a1e:	8526                	mv	a0,s1
    5a20:	d15fb0ef          	jal	ra,1734 <USART_GetFlagStatus>
    5a24:	d97d                	beqz	a0,5a1a <_write+0x1c>
    5a26:	008987b3          	add	a5,s3,s0
    5a2a:	00078583          	lb	a1,0(a5) # 80000 <_data_lma+0x7417c>
    5a2e:	8526                	mv	a0,s1
    5a30:	0405                	addi	s0,s0,1
    5a32:	05c2                	slli	a1,a1,0x10
    5a34:	81c1                	srli	a1,a1,0x10
    5a36:	cf7fb0ef          	jal	ra,172c <USART_SendData>
    5a3a:	bfd9                	j	5a10 <_write+0x12>

00005a3c <_sbrk>:
    5a3c:	82018713          	addi	a4,gp,-2016 # 20000210 <curbrk.5359>
    5a40:	431c                	lw	a5,0(a4)
    5a42:	ab018693          	addi	a3,gp,-1360 # 200004a0 <_ebss>
    5a46:	953e                	add	a0,a0,a5
    5a48:	00d56b63          	bltu	a0,a3,5a5e <_sbrk+0x22>
    5a4c:	200086b7          	lui	a3,0x20008
    5a50:	80068693          	addi	a3,a3,-2048 # 20007800 <_heap_end>
    5a54:	00a6e563          	bltu	a3,a0,5a5e <_sbrk+0x22>
    5a58:	c308                	sw	a0,0(a4)
    5a5a:	853e                	mv	a0,a5
    5a5c:	8082                	ret
    5a5e:	57fd                	li	a5,-1
    5a60:	bfed                	j	5a5a <_sbrk+0x1e>

00005a62 <log>:
    5a62:	715d                	addi	sp,sp,-80
    5a64:	c4a2                	sw	s0,72(sp)
    5a66:	c2a6                	sw	s1,68(sp)
    5a68:	c0ca                	sw	s2,64(sp)
    5a6a:	de52                	sw	s4,60(sp)
    5a6c:	dc56                	sw	s5,56(sp)
    5a6e:	c686                	sw	ra,76(sp)
    5a70:	842a                	mv	s0,a0
    5a72:	84ae                	mv	s1,a1
    5a74:	2201                	jal	5b74 <__ieee754_log>
    5a76:	82418793          	addi	a5,gp,-2012 # 20000214 <__fdlib_version>
    5a7a:	0007a903          	lw	s2,0(a5)
    5a7e:	57fd                	li	a5,-1
    5a80:	8a2a                	mv	s4,a0
    5a82:	8aae                	mv	s5,a1
    5a84:	06f90d63          	beq	s2,a5,5afe <log+0x9c>
    5a88:	8622                	mv	a2,s0
    5a8a:	86a6                	mv	a3,s1
    5a8c:	8522                	mv	a0,s0
    5a8e:	85a6                	mv	a1,s1
    5a90:	6c1010ef          	jal	ra,7950 <__unorddf2>
    5a94:	e52d                	bnez	a0,5afe <log+0x9c>
    5a96:	4601                	li	a2,0
    5a98:	4681                	li	a3,0
    5a9a:	8522                	mv	a0,s0
    5a9c:	85a6                	mv	a1,s1
    5a9e:	20e010ef          	jal	ra,6cac <__gedf2>
    5aa2:	04a04e63          	bgtz	a0,5afe <log+0x9c>
    5aa6:	00006797          	auipc	a5,0x6
    5aaa:	ed278793          	addi	a5,a5,-302 # b978 <PortGroup_3+0x2d8>
    5aae:	c63e                	sw	a5,12(sp)
    5ab0:	d402                	sw	zero,40(sp)
    5ab2:	c822                	sw	s0,16(sp)
    5ab4:	ca26                	sw	s1,20(sp)
    5ab6:	cc22                	sw	s0,24(sp)
    5ab8:	ce26                	sw	s1,28(sp)
    5aba:	04090c63          	beqz	s2,5b12 <log+0xb0>
    5abe:	00006797          	auipc	a5,0x6
    5ac2:	eaa78793          	addi	a5,a5,-342 # b968 <PortGroup_3+0x2c8>
    5ac6:	4398                	lw	a4,0(a5)
    5ac8:	43dc                	lw	a5,4(a5)
    5aca:	4601                	li	a2,0
    5acc:	4681                	li	a3,0
    5ace:	8522                	mv	a0,s0
    5ad0:	85a6                	mv	a1,s1
    5ad2:	d03a                	sw	a4,32(sp)
    5ad4:	d23e                	sw	a5,36(sp)
    5ad6:	16c010ef          	jal	ra,6c42 <__eqdf2>
    5ada:	e151                	bnez	a0,5b5e <log+0xfc>
    5adc:	4789                	li	a5,2
    5ade:	c43e                	sw	a5,8(sp)
    5ae0:	06f91b63          	bne	s2,a5,5b56 <log+0xf4>
    5ae4:	54a020ef          	jal	ra,802e <__errno>
    5ae8:	02200793          	li	a5,34
    5aec:	c11c                	sw	a5,0(a0)
    5aee:	57a2                	lw	a5,40(sp)
    5af0:	cfb1                	beqz	a5,5b4c <log+0xea>
    5af2:	53c020ef          	jal	ra,802e <__errno>
    5af6:	57a2                	lw	a5,40(sp)
    5af8:	5a02                	lw	s4,32(sp)
    5afa:	5a92                	lw	s5,36(sp)
    5afc:	c11c                	sw	a5,0(a0)
    5afe:	40b6                	lw	ra,76(sp)
    5b00:	4426                	lw	s0,72(sp)
    5b02:	8552                	mv	a0,s4
    5b04:	85d6                	mv	a1,s5
    5b06:	4496                	lw	s1,68(sp)
    5b08:	4906                	lw	s2,64(sp)
    5b0a:	5a72                	lw	s4,60(sp)
    5b0c:	5ae2                	lw	s5,56(sp)
    5b0e:	6161                	addi	sp,sp,80
    5b10:	8082                	ret
    5b12:	00006797          	auipc	a5,0x6
    5b16:	e5e78793          	addi	a5,a5,-418 # b970 <PortGroup_3+0x2d0>
    5b1a:	4398                	lw	a4,0(a5)
    5b1c:	43dc                	lw	a5,4(a5)
    5b1e:	4601                	li	a2,0
    5b20:	4681                	li	a3,0
    5b22:	8522                	mv	a0,s0
    5b24:	85a6                	mv	a1,s1
    5b26:	d03a                	sw	a4,32(sp)
    5b28:	d23e                	sw	a5,36(sp)
    5b2a:	118010ef          	jal	ra,6c42 <__eqdf2>
    5b2e:	c115                	beqz	a0,5b52 <log+0xf0>
    5b30:	4785                	li	a5,1
    5b32:	c43e                	sw	a5,8(sp)
    5b34:	0028                	addi	a0,sp,8
    5b36:	2919                	jal	5f4c <matherr>
    5b38:	c905                	beqz	a0,5b68 <log+0x106>
    5b3a:	00005517          	auipc	a0,0x5
    5b3e:	6a250513          	addi	a0,a0,1698 # b1dc <_read+0xc0>
    5b42:	2139                	jal	5f50 <nan>
    5b44:	d02a                	sw	a0,32(sp)
    5b46:	d22e                	sw	a1,36(sp)
    5b48:	57a2                	lw	a5,40(sp)
    5b4a:	f7c5                	bnez	a5,5af2 <log+0x90>
    5b4c:	5a02                	lw	s4,32(sp)
    5b4e:	5a92                	lw	s5,36(sp)
    5b50:	b77d                	j	5afe <log+0x9c>
    5b52:	4789                	li	a5,2
    5b54:	c43e                	sw	a5,8(sp)
    5b56:	0028                	addi	a0,sp,8
    5b58:	2ed5                	jal	5f4c <matherr>
    5b5a:	f57d                	bnez	a0,5b48 <log+0xe6>
    5b5c:	b761                	j	5ae4 <log+0x82>
    5b5e:	4785                	li	a5,1
    5b60:	c43e                	sw	a5,8(sp)
    5b62:	4789                	li	a5,2
    5b64:	fcf918e3          	bne	s2,a5,5b34 <log+0xd2>
    5b68:	4c6020ef          	jal	ra,802e <__errno>
    5b6c:	02100793          	li	a5,33
    5b70:	c11c                	sw	a5,0(a0)
    5b72:	b7e1                	j	5b3a <log+0xd8>

00005b74 <__ieee754_log>:
    5b74:	715d                	addi	sp,sp,-80
    5b76:	c686                	sw	ra,76(sp)
    5b78:	c4a2                	sw	s0,72(sp)
    5b7a:	c2a6                	sw	s1,68(sp)
    5b7c:	c0ca                	sw	s2,64(sp)
    5b7e:	de4e                	sw	s3,60(sp)
    5b80:	dc52                	sw	s4,56(sp)
    5b82:	da56                	sw	s5,52(sp)
    5b84:	d85a                	sw	s6,48(sp)
    5b86:	d65e                	sw	s7,44(sp)
    5b88:	d462                	sw	s8,40(sp)
    5b8a:	d266                	sw	s9,36(sp)
    5b8c:	d06a                	sw	s10,32(sp)
    5b8e:	ce6e                	sw	s11,28(sp)
    5b90:	00100837          	lui	a6,0x100
    5b94:	872e                	mv	a4,a1
    5b96:	86aa                	mv	a3,a0
    5b98:	1305de63          	bge	a1,a6,5cd4 <__ieee754_log+0x160>
    5b9c:	00159793          	slli	a5,a1,0x1
    5ba0:	8385                	srli	a5,a5,0x1
    5ba2:	8fc9                	or	a5,a5,a0
    5ba4:	2c078163          	beqz	a5,5e66 <__ieee754_log+0x2f2>
    5ba8:	3405cb63          	bltz	a1,5efe <__ieee754_log+0x38a>
    5bac:	00006797          	auipc	a5,0x6
    5bb0:	ddc78793          	addi	a5,a5,-548 # b988 <PortGroup_3+0x2e8>
    5bb4:	4390                	lw	a2,0(a5)
    5bb6:	43d4                	lw	a3,4(a5)
    5bb8:	1a2010ef          	jal	ra,6d5a <__muldf3>
    5bbc:	87ae                	mv	a5,a1
    5bbe:	7ff00637          	lui	a2,0x7ff00
    5bc2:	86aa                	mv	a3,a0
    5bc4:	872e                	mv	a4,a1
    5bc6:	fca00513          	li	a0,-54
    5bca:	10c7db63          	bge	a5,a2,5ce0 <__ieee754_log+0x16c>
    5bce:	00100637          	lui	a2,0x100
    5bd2:	fff60913          	addi	s2,a2,-1 # fffff <_data_lma+0xf417b>
    5bd6:	00096737          	lui	a4,0x96
    5bda:	0127fcb3          	and	s9,a5,s2
    5bde:	f6470713          	addi	a4,a4,-156 # 95f64 <_data_lma+0x8a0e0>
    5be2:	9766                	add	a4,a4,s9
    5be4:	8f71                	and	a4,a4,a2
    5be6:	85b6                	mv	a1,a3
    5be8:	3ff00837          	lui	a6,0x3ff00
    5bec:	00005697          	auipc	a3,0x5
    5bf0:	78468693          	addi	a3,a3,1924 # b370 <_read+0x254>
    5bf4:	01074833          	xor	a6,a4,a6
    5bf8:	4290                	lw	a2,0(a3)
    5bfa:	87d1                	srai	a5,a5,0x14
    5bfc:	42d4                	lw	a3,4(a3)
    5bfe:	01986833          	or	a6,a6,s9
    5c02:	c0178793          	addi	a5,a5,-1023
    5c06:	97aa                	add	a5,a5,a0
    5c08:	8751                	srai	a4,a4,0x14
    5c0a:	852e                	mv	a0,a1
    5c0c:	85c2                	mv	a1,a6
    5c0e:	00f70c33          	add	s8,a4,a5
    5c12:	600010ef          	jal	ra,7212 <__subdf3>
    5c16:	002c8793          	addi	a5,s9,2
    5c1a:	0127f7b3          	and	a5,a5,s2
    5c1e:	4709                	li	a4,2
    5c20:	842a                	mv	s0,a0
    5c22:	84ae                	mv	s1,a1
    5c24:	0ef74263          	blt	a4,a5,5d08 <__ieee754_log+0x194>
    5c28:	4601                	li	a2,0
    5c2a:	4681                	li	a3,0
    5c2c:	016010ef          	jal	ra,6c42 <__eqdf2>
    5c30:	24050663          	beqz	a0,5e7c <__ieee754_log+0x308>
    5c34:	00006797          	auipc	a5,0x6
    5c38:	d6c78793          	addi	a5,a5,-660 # b9a0 <PortGroup_3+0x300>
    5c3c:	4390                	lw	a2,0(a5)
    5c3e:	43d4                	lw	a3,4(a5)
    5c40:	8522                	mv	a0,s0
    5c42:	85a6                	mv	a1,s1
    5c44:	116010ef          	jal	ra,6d5a <__muldf3>
    5c48:	00006797          	auipc	a5,0x6
    5c4c:	ab078793          	addi	a5,a5,-1360 # b6f8 <PortGroup_3+0x58>
    5c50:	862a                	mv	a2,a0
    5c52:	86ae                	mv	a3,a1
    5c54:	4388                	lw	a0,0(a5)
    5c56:	43cc                	lw	a1,4(a5)
    5c58:	5ba010ef          	jal	ra,7212 <__subdf3>
    5c5c:	892a                	mv	s2,a0
    5c5e:	89ae                	mv	s3,a1
    5c60:	8622                	mv	a2,s0
    5c62:	86a6                	mv	a3,s1
    5c64:	8522                	mv	a0,s0
    5c66:	85a6                	mv	a1,s1
    5c68:	0f2010ef          	jal	ra,6d5a <__muldf3>
    5c6c:	862a                	mv	a2,a0
    5c6e:	86ae                	mv	a3,a1
    5c70:	854a                	mv	a0,s2
    5c72:	85ce                	mv	a1,s3
    5c74:	0e6010ef          	jal	ra,6d5a <__muldf3>
    5c78:	892a                	mv	s2,a0
    5c7a:	89ae                	mv	s3,a1
    5c7c:	260c0a63          	beqz	s8,5ef0 <__ieee754_log+0x37c>
    5c80:	8562                	mv	a0,s8
    5c82:	567010ef          	jal	ra,79e8 <__floatsidf>
    5c86:	00006797          	auipc	a5,0x6
    5c8a:	d0a78793          	addi	a5,a5,-758 # b990 <PortGroup_3+0x2f0>
    5c8e:	4390                	lw	a2,0(a5)
    5c90:	43d4                	lw	a3,4(a5)
    5c92:	8b2a                	mv	s6,a0
    5c94:	8bae                	mv	s7,a1
    5c96:	0c4010ef          	jal	ra,6d5a <__muldf3>
    5c9a:	00006797          	auipc	a5,0x6
    5c9e:	cfe78793          	addi	a5,a5,-770 # b998 <PortGroup_3+0x2f8>
    5ca2:	4390                	lw	a2,0(a5)
    5ca4:	43d4                	lw	a3,4(a5)
    5ca6:	8a2a                	mv	s4,a0
    5ca8:	8aae                	mv	s5,a1
    5caa:	855a                	mv	a0,s6
    5cac:	85de                	mv	a1,s7
    5cae:	0ac010ef          	jal	ra,6d5a <__muldf3>
    5cb2:	862a                	mv	a2,a0
    5cb4:	86ae                	mv	a3,a1
    5cb6:	854a                	mv	a0,s2
    5cb8:	85ce                	mv	a1,s3
    5cba:	558010ef          	jal	ra,7212 <__subdf3>
    5cbe:	8622                	mv	a2,s0
    5cc0:	86a6                	mv	a3,s1
    5cc2:	550010ef          	jal	ra,7212 <__subdf3>
    5cc6:	862a                	mv	a2,a0
    5cc8:	86ae                	mv	a3,a1
    5cca:	8552                	mv	a0,s4
    5ccc:	85d6                	mv	a1,s5
    5cce:	544010ef          	jal	ra,7212 <__subdf3>
    5cd2:	a821                	j	5cea <__ieee754_log+0x176>
    5cd4:	87ae                	mv	a5,a1
    5cd6:	7ff00637          	lui	a2,0x7ff00
    5cda:	4501                	li	a0,0
    5cdc:	eec7c9e3          	blt	a5,a2,5bce <__ieee754_log+0x5a>
    5ce0:	8536                	mv	a0,a3
    5ce2:	8636                	mv	a2,a3
    5ce4:	85ba                	mv	a1,a4
    5ce6:	86ba                	mv	a3,a4
    5ce8:	2c9d                	jal	5f5e <__adddf3>
    5cea:	40b6                	lw	ra,76(sp)
    5cec:	4426                	lw	s0,72(sp)
    5cee:	4496                	lw	s1,68(sp)
    5cf0:	4906                	lw	s2,64(sp)
    5cf2:	59f2                	lw	s3,60(sp)
    5cf4:	5a62                	lw	s4,56(sp)
    5cf6:	5ad2                	lw	s5,52(sp)
    5cf8:	5b42                	lw	s6,48(sp)
    5cfa:	5bb2                	lw	s7,44(sp)
    5cfc:	5c22                	lw	s8,40(sp)
    5cfe:	5c92                	lw	s9,36(sp)
    5d00:	5d02                	lw	s10,32(sp)
    5d02:	4df2                	lw	s11,28(sp)
    5d04:	6161                	addi	sp,sp,80
    5d06:	8082                	ret
    5d08:	00006797          	auipc	a5,0x6
    5d0c:	ca078793          	addi	a5,a5,-864 # b9a8 <PortGroup_3+0x308>
    5d10:	4390                	lw	a2,0(a5)
    5d12:	43d4                	lw	a3,4(a5)
    5d14:	24a9                	jal	5f5e <__adddf3>
    5d16:	862a                	mv	a2,a0
    5d18:	86ae                	mv	a3,a1
    5d1a:	8522                	mv	a0,s0
    5d1c:	85a6                	mv	a1,s1
    5d1e:	171000ef          	jal	ra,668e <__divdf3>
    5d22:	8a2a                	mv	s4,a0
    5d24:	8562                	mv	a0,s8
    5d26:	8aae                	mv	s5,a1
    5d28:	4c1010ef          	jal	ra,79e8 <__floatsidf>
    5d2c:	8652                	mv	a2,s4
    5d2e:	86d6                	mv	a3,s5
    5d30:	8b2a                	mv	s6,a0
    5d32:	8bae                	mv	s7,a1
    5d34:	8552                	mv	a0,s4
    5d36:	85d6                	mv	a1,s5
    5d38:	022010ef          	jal	ra,6d5a <__muldf3>
    5d3c:	fff9f737          	lui	a4,0xfff9f
    5d40:	b8670713          	addi	a4,a4,-1146 # fff9eb86 <_eusrstack+0xdff96b86>
    5d44:	9766                	add	a4,a4,s9
    5d46:	862a                	mv	a2,a0
    5d48:	86ae                	mv	a3,a1
    5d4a:	c63a                	sw	a4,12(sp)
    5d4c:	8d2a                	mv	s10,a0
    5d4e:	8dae                	mv	s11,a1
    5d50:	00a010ef          	jal	ra,6d5a <__muldf3>
    5d54:	00006797          	auipc	a5,0x6
    5d58:	c5c78793          	addi	a5,a5,-932 # b9b0 <PortGroup_3+0x310>
    5d5c:	4390                	lw	a2,0(a5)
    5d5e:	43d4                	lw	a3,4(a5)
    5d60:	892a                	mv	s2,a0
    5d62:	89ae                	mv	s3,a1
    5d64:	7f7000ef          	jal	ra,6d5a <__muldf3>
    5d68:	00006797          	auipc	a5,0x6
    5d6c:	c5078793          	addi	a5,a5,-944 # b9b8 <PortGroup_3+0x318>
    5d70:	4390                	lw	a2,0(a5)
    5d72:	43d4                	lw	a3,4(a5)
    5d74:	22ed                	jal	5f5e <__adddf3>
    5d76:	864a                	mv	a2,s2
    5d78:	86ce                	mv	a3,s3
    5d7a:	7e1000ef          	jal	ra,6d5a <__muldf3>
    5d7e:	00006797          	auipc	a5,0x6
    5d82:	c4278793          	addi	a5,a5,-958 # b9c0 <PortGroup_3+0x320>
    5d86:	4390                	lw	a2,0(a5)
    5d88:	43d4                	lw	a3,4(a5)
    5d8a:	2ad1                	jal	5f5e <__adddf3>
    5d8c:	864a                	mv	a2,s2
    5d8e:	86ce                	mv	a3,s3
    5d90:	7cb000ef          	jal	ra,6d5a <__muldf3>
    5d94:	00006797          	auipc	a5,0x6
    5d98:	c3478793          	addi	a5,a5,-972 # b9c8 <PortGroup_3+0x328>
    5d9c:	4390                	lw	a2,0(a5)
    5d9e:	43d4                	lw	a3,4(a5)
    5da0:	2a7d                	jal	5f5e <__adddf3>
    5da2:	866a                	mv	a2,s10
    5da4:	86ee                	mv	a3,s11
    5da6:	7b5000ef          	jal	ra,6d5a <__muldf3>
    5daa:	00006797          	auipc	a5,0x6
    5dae:	c2678793          	addi	a5,a5,-986 # b9d0 <PortGroup_3+0x330>
    5db2:	4390                	lw	a2,0(a5)
    5db4:	43d4                	lw	a3,4(a5)
    5db6:	8d2a                	mv	s10,a0
    5db8:	8dae                	mv	s11,a1
    5dba:	854a                	mv	a0,s2
    5dbc:	85ce                	mv	a1,s3
    5dbe:	79d000ef          	jal	ra,6d5a <__muldf3>
    5dc2:	00006797          	auipc	a5,0x6
    5dc6:	c1678793          	addi	a5,a5,-1002 # b9d8 <PortGroup_3+0x338>
    5dca:	4390                	lw	a2,0(a5)
    5dcc:	43d4                	lw	a3,4(a5)
    5dce:	2a41                	jal	5f5e <__adddf3>
    5dd0:	864a                	mv	a2,s2
    5dd2:	86ce                	mv	a3,s3
    5dd4:	787000ef          	jal	ra,6d5a <__muldf3>
    5dd8:	00006797          	auipc	a5,0x6
    5ddc:	c0878793          	addi	a5,a5,-1016 # b9e0 <PortGroup_3+0x340>
    5de0:	4390                	lw	a2,0(a5)
    5de2:	43d4                	lw	a3,4(a5)
    5de4:	2aad                	jal	5f5e <__adddf3>
    5de6:	864a                	mv	a2,s2
    5de8:	86ce                	mv	a3,s3
    5dea:	771000ef          	jal	ra,6d5a <__muldf3>
    5dee:	862a                	mv	a2,a0
    5df0:	86ae                	mv	a3,a1
    5df2:	856a                	mv	a0,s10
    5df4:	85ee                	mv	a1,s11
    5df6:	22a5                	jal	5f5e <__adddf3>
    5df8:	0006c7b7          	lui	a5,0x6c
    5dfc:	4732                	lw	a4,12(sp)
    5dfe:	85178793          	addi	a5,a5,-1967 # 6b851 <_data_lma+0x5f9cd>
    5e02:	41978cb3          	sub	s9,a5,s9
    5e06:	00ececb3          	or	s9,s9,a4
    5e0a:	892a                	mv	s2,a0
    5e0c:	89ae                	mv	s3,a1
    5e0e:	0b905a63          	blez	s9,5ec2 <__ieee754_log+0x34e>
    5e12:	00006797          	auipc	a5,0x6
    5e16:	8e678793          	addi	a5,a5,-1818 # b6f8 <PortGroup_3+0x58>
    5e1a:	4390                	lw	a2,0(a5)
    5e1c:	43d4                	lw	a3,4(a5)
    5e1e:	8522                	mv	a0,s0
    5e20:	85a6                	mv	a1,s1
    5e22:	739000ef          	jal	ra,6d5a <__muldf3>
    5e26:	8622                	mv	a2,s0
    5e28:	86a6                	mv	a3,s1
    5e2a:	731000ef          	jal	ra,6d5a <__muldf3>
    5e2e:	862a                	mv	a2,a0
    5e30:	86ae                	mv	a3,a1
    5e32:	8d2a                	mv	s10,a0
    5e34:	8dae                	mv	s11,a1
    5e36:	854a                	mv	a0,s2
    5e38:	85ce                	mv	a1,s3
    5e3a:	2215                	jal	5f5e <__adddf3>
    5e3c:	8652                	mv	a2,s4
    5e3e:	86d6                	mv	a3,s5
    5e40:	71b000ef          	jal	ra,6d5a <__muldf3>
    5e44:	892a                	mv	s2,a0
    5e46:	89ae                	mv	s3,a1
    5e48:	0c0c1463          	bnez	s8,5f10 <__ieee754_log+0x39c>
    5e4c:	862a                	mv	a2,a0
    5e4e:	86ae                	mv	a3,a1
    5e50:	856a                	mv	a0,s10
    5e52:	85ee                	mv	a1,s11
    5e54:	3be010ef          	jal	ra,7212 <__subdf3>
    5e58:	862a                	mv	a2,a0
    5e5a:	86ae                	mv	a3,a1
    5e5c:	8522                	mv	a0,s0
    5e5e:	85a6                	mv	a1,s1
    5e60:	3b2010ef          	jal	ra,7212 <__subdf3>
    5e64:	b559                	j	5cea <__ieee754_log+0x176>
    5e66:	00006797          	auipc	a5,0x6
    5e6a:	b1a78793          	addi	a5,a5,-1254 # b980 <PortGroup_3+0x2e0>
    5e6e:	4388                	lw	a0,0(a5)
    5e70:	43cc                	lw	a1,4(a5)
    5e72:	4601                	li	a2,0
    5e74:	4681                	li	a3,0
    5e76:	019000ef          	jal	ra,668e <__divdf3>
    5e7a:	bd85                	j	5cea <__ieee754_log+0x176>
    5e7c:	4501                	li	a0,0
    5e7e:	4581                	li	a1,0
    5e80:	e60c05e3          	beqz	s8,5cea <__ieee754_log+0x176>
    5e84:	8562                	mv	a0,s8
    5e86:	363010ef          	jal	ra,79e8 <__floatsidf>
    5e8a:	00006797          	auipc	a5,0x6
    5e8e:	b0678793          	addi	a5,a5,-1274 # b990 <PortGroup_3+0x2f0>
    5e92:	4390                	lw	a2,0(a5)
    5e94:	43d4                	lw	a3,4(a5)
    5e96:	892a                	mv	s2,a0
    5e98:	89ae                	mv	s3,a1
    5e9a:	6c1000ef          	jal	ra,6d5a <__muldf3>
    5e9e:	00006797          	auipc	a5,0x6
    5ea2:	afa78793          	addi	a5,a5,-1286 # b998 <PortGroup_3+0x2f8>
    5ea6:	4390                	lw	a2,0(a5)
    5ea8:	43d4                	lw	a3,4(a5)
    5eaa:	842a                	mv	s0,a0
    5eac:	84ae                	mv	s1,a1
    5eae:	854a                	mv	a0,s2
    5eb0:	85ce                	mv	a1,s3
    5eb2:	6a9000ef          	jal	ra,6d5a <__muldf3>
    5eb6:	862a                	mv	a2,a0
    5eb8:	86ae                	mv	a3,a1
    5eba:	8522                	mv	a0,s0
    5ebc:	85a6                	mv	a1,s1
    5ebe:	2045                	jal	5f5e <__adddf3>
    5ec0:	b52d                	j	5cea <__ieee754_log+0x176>
    5ec2:	862a                	mv	a2,a0
    5ec4:	86ae                	mv	a3,a1
    5ec6:	8522                	mv	a0,s0
    5ec8:	85a6                	mv	a1,s1
    5eca:	348010ef          	jal	ra,7212 <__subdf3>
    5ece:	8652                	mv	a2,s4
    5ed0:	86d6                	mv	a3,s5
    5ed2:	689000ef          	jal	ra,6d5a <__muldf3>
    5ed6:	892a                	mv	s2,a0
    5ed8:	89ae                	mv	s3,a1
    5eda:	000c0b63          	beqz	s8,5ef0 <__ieee754_log+0x37c>
    5ede:	00006797          	auipc	a5,0x6
    5ee2:	ab278793          	addi	a5,a5,-1358 # b990 <PortGroup_3+0x2f0>
    5ee6:	4390                	lw	a2,0(a5)
    5ee8:	43d4                	lw	a3,4(a5)
    5eea:	855a                	mv	a0,s6
    5eec:	85de                	mv	a1,s7
    5eee:	b365                	j	5c96 <__ieee754_log+0x122>
    5ef0:	864a                	mv	a2,s2
    5ef2:	86ce                	mv	a3,s3
    5ef4:	8522                	mv	a0,s0
    5ef6:	85a6                	mv	a1,s1
    5ef8:	31a010ef          	jal	ra,7212 <__subdf3>
    5efc:	b3fd                	j	5cea <__ieee754_log+0x176>
    5efe:	862a                	mv	a2,a0
    5f00:	86ae                	mv	a3,a1
    5f02:	310010ef          	jal	ra,7212 <__subdf3>
    5f06:	4601                	li	a2,0
    5f08:	4681                	li	a3,0
    5f0a:	784000ef          	jal	ra,668e <__divdf3>
    5f0e:	bbf1                	j	5cea <__ieee754_log+0x176>
    5f10:	00006797          	auipc	a5,0x6
    5f14:	a8078793          	addi	a5,a5,-1408 # b990 <PortGroup_3+0x2f0>
    5f18:	4390                	lw	a2,0(a5)
    5f1a:	43d4                	lw	a3,4(a5)
    5f1c:	855a                	mv	a0,s6
    5f1e:	85de                	mv	a1,s7
    5f20:	63b000ef          	jal	ra,6d5a <__muldf3>
    5f24:	00006797          	auipc	a5,0x6
    5f28:	a7478793          	addi	a5,a5,-1420 # b998 <PortGroup_3+0x2f8>
    5f2c:	4390                	lw	a2,0(a5)
    5f2e:	43d4                	lw	a3,4(a5)
    5f30:	8a2a                	mv	s4,a0
    5f32:	8aae                	mv	s5,a1
    5f34:	855a                	mv	a0,s6
    5f36:	85de                	mv	a1,s7
    5f38:	623000ef          	jal	ra,6d5a <__muldf3>
    5f3c:	864a                	mv	a2,s2
    5f3e:	86ce                	mv	a3,s3
    5f40:	2839                	jal	5f5e <__adddf3>
    5f42:	862a                	mv	a2,a0
    5f44:	86ae                	mv	a3,a1
    5f46:	856a                	mv	a0,s10
    5f48:	85ee                	mv	a1,s11
    5f4a:	bb85                	j	5cba <__ieee754_log+0x146>

00005f4c <matherr>:
    5f4c:	4501                	li	a0,0
    5f4e:	8082                	ret

00005f50 <nan>:
    5f50:	00006797          	auipc	a5,0x6
    5f54:	a9878793          	addi	a5,a5,-1384 # b9e8 <PortGroup_3+0x348>
    5f58:	4388                	lw	a0,0(a5)
    5f5a:	43cc                	lw	a1,4(a5)
    5f5c:	8082                	ret

00005f5e <__adddf3>:
    5f5e:	00100837          	lui	a6,0x100
    5f62:	1101                	addi	sp,sp,-32
    5f64:	187d                	addi	a6,a6,-1
    5f66:	00b87733          	and	a4,a6,a1
    5f6a:	ca26                	sw	s1,20(sp)
    5f6c:	00d87833          	and	a6,a6,a3
    5f70:	0145d493          	srli	s1,a1,0x14
    5f74:	0146d313          	srli	t1,a3,0x14
    5f78:	00371e13          	slli	t3,a4,0x3
    5f7c:	c64e                	sw	s3,12(sp)
    5f7e:	01d55713          	srli	a4,a0,0x1d
    5f82:	080e                	slli	a6,a6,0x3
    5f84:	01d65793          	srli	a5,a2,0x1d
    5f88:	7ff4f493          	andi	s1,s1,2047
    5f8c:	7ff37313          	andi	t1,t1,2047
    5f90:	ce06                	sw	ra,28(sp)
    5f92:	cc22                	sw	s0,24(sp)
    5f94:	c84a                	sw	s2,16(sp)
    5f96:	01f5d993          	srli	s3,a1,0x1f
    5f9a:	01f6de93          	srli	t4,a3,0x1f
    5f9e:	01c76733          	or	a4,a4,t3
    5fa2:	00351f13          	slli	t5,a0,0x3
    5fa6:	0107e833          	or	a6,a5,a6
    5faa:	00361f93          	slli	t6,a2,0x3
    5fae:	40648e33          	sub	t3,s1,t1
    5fb2:	19d98063          	beq	s3,t4,6132 <__adddf3+0x1d4>
    5fb6:	13c05663          	blez	t3,60e2 <__adddf3+0x184>
    5fba:	1c030463          	beqz	t1,6182 <__adddf3+0x224>
    5fbe:	008006b7          	lui	a3,0x800
    5fc2:	7ff00793          	li	a5,2047
    5fc6:	00d86833          	or	a6,a6,a3
    5fca:	36f48f63          	beq	s1,a5,6348 <__adddf3+0x3ea>
    5fce:	03800793          	li	a5,56
    5fd2:	35c7c063          	blt	a5,t3,6312 <__adddf3+0x3b4>
    5fd6:	47fd                	li	a5,31
    5fd8:	47c7cd63          	blt	a5,t3,6452 <__adddf3+0x4f4>
    5fdc:	02000513          	li	a0,32
    5fe0:	41c50533          	sub	a0,a0,t3
    5fe4:	01cfd7b3          	srl	a5,t6,t3
    5fe8:	00a816b3          	sll	a3,a6,a0
    5fec:	00af9933          	sll	s2,t6,a0
    5ff0:	8edd                	or	a3,a3,a5
    5ff2:	01203933          	snez	s2,s2
    5ff6:	01c857b3          	srl	a5,a6,t3
    5ffa:	0126e933          	or	s2,a3,s2
    5ffe:	8f1d                	sub	a4,a4,a5
    6000:	412f0933          	sub	s2,t5,s2
    6004:	012f37b3          	sltu	a5,t5,s2
    6008:	40f70633          	sub	a2,a4,a5
    600c:	00861793          	slli	a5,a2,0x8
    6010:	2407d463          	bgez	a5,6258 <__adddf3+0x2fa>
    6014:	00800737          	lui	a4,0x800
    6018:	177d                	addi	a4,a4,-1
    601a:	00e67433          	and	s0,a2,a4
    601e:	2c040c63          	beqz	s0,62f6 <__adddf3+0x398>
    6022:	8522                	mv	a0,s0
    6024:	79d010ef          	jal	ra,7fc0 <__clzsi2>
    6028:	ff850713          	addi	a4,a0,-8
    602c:	02000793          	li	a5,32
    6030:	8f99                	sub	a5,a5,a4
    6032:	00f957b3          	srl	a5,s2,a5
    6036:	00e41633          	sll	a2,s0,a4
    603a:	8fd1                	or	a5,a5,a2
    603c:	00e91933          	sll	s2,s2,a4
    6040:	2a974163          	blt	a4,s1,62e2 <__adddf3+0x384>
    6044:	40970533          	sub	a0,a4,s1
    6048:	00150613          	addi	a2,a0,1
    604c:	477d                	li	a4,31
    604e:	38c74d63          	blt	a4,a2,63e8 <__adddf3+0x48a>
    6052:	02000713          	li	a4,32
    6056:	8f11                	sub	a4,a4,a2
    6058:	00c956b3          	srl	a3,s2,a2
    605c:	00e91933          	sll	s2,s2,a4
    6060:	00e79733          	sll	a4,a5,a4
    6064:	8f55                	or	a4,a4,a3
    6066:	01203933          	snez	s2,s2
    606a:	01276933          	or	s2,a4,s2
    606e:	00c7d633          	srl	a2,a5,a2
    6072:	4481                	li	s1,0
    6074:	00797793          	andi	a5,s2,7
    6078:	cf81                	beqz	a5,6090 <__adddf3+0x132>
    607a:	00f97713          	andi	a4,s2,15
    607e:	4791                	li	a5,4
    6080:	00f70863          	beq	a4,a5,6090 <__adddf3+0x132>
    6084:	00490713          	addi	a4,s2,4
    6088:	01273933          	sltu	s2,a4,s2
    608c:	964a                	add	a2,a2,s2
    608e:	893a                	mv	s2,a4
    6090:	00861793          	slli	a5,a2,0x8
    6094:	1c07d663          	bgez	a5,6260 <__adddf3+0x302>
    6098:	00148513          	addi	a0,s1,1
    609c:	7ff00793          	li	a5,2047
    60a0:	85ce                	mv	a1,s3
    60a2:	20f50463          	beq	a0,a5,62aa <__adddf3+0x34c>
    60a6:	ff8007b7          	lui	a5,0xff800
    60aa:	17fd                	addi	a5,a5,-1
    60ac:	8ff1                	and	a5,a5,a2
    60ae:	01d79893          	slli	a7,a5,0x1d
    60b2:	00395913          	srli	s2,s2,0x3
    60b6:	07a6                	slli	a5,a5,0x9
    60b8:	0128e8b3          	or	a7,a7,s2
    60bc:	83b1                	srli	a5,a5,0xc
    60be:	7ff57513          	andi	a0,a0,2047
    60c2:	00c79693          	slli	a3,a5,0xc
    60c6:	0552                	slli	a0,a0,0x14
    60c8:	40f2                	lw	ra,28(sp)
    60ca:	4462                	lw	s0,24(sp)
    60cc:	82b1                	srli	a3,a3,0xc
    60ce:	05fe                	slli	a1,a1,0x1f
    60d0:	8ec9                	or	a3,a3,a0
    60d2:	8ecd                	or	a3,a3,a1
    60d4:	44d2                	lw	s1,20(sp)
    60d6:	4942                	lw	s2,16(sp)
    60d8:	49b2                	lw	s3,12(sp)
    60da:	8546                	mv	a0,a7
    60dc:	85b6                	mv	a1,a3
    60de:	6105                	addi	sp,sp,32
    60e0:	8082                	ret
    60e2:	0a0e1e63          	bnez	t3,619e <__adddf3+0x240>
    60e6:	00148313          	addi	t1,s1,1
    60ea:	7fe37313          	andi	t1,t1,2046
    60ee:	22031763          	bnez	t1,631c <__adddf3+0x3be>
    60f2:	01e767b3          	or	a5,a4,t5
    60f6:	01f868b3          	or	a7,a6,t6
    60fa:	1a049d63          	bnez	s1,62b4 <__adddf3+0x356>
    60fe:	40078763          	beqz	a5,650c <__adddf3+0x5ae>
    6102:	44088663          	beqz	a7,654e <__adddf3+0x5f0>
    6106:	41ff0933          	sub	s2,t5,t6
    610a:	410707b3          	sub	a5,a4,a6
    610e:	012f3633          	sltu	a2,t5,s2
    6112:	40c78633          	sub	a2,a5,a2
    6116:	00861793          	slli	a5,a2,0x8
    611a:	4c07d663          	bgez	a5,65e6 <__adddf3+0x688>
    611e:	41ef8933          	sub	s2,t6,t5
    6122:	40e807b3          	sub	a5,a6,a4
    6126:	012fb633          	sltu	a2,t6,s2
    612a:	40c78633          	sub	a2,a5,a2
    612e:	89f6                	mv	s3,t4
    6130:	b791                	j	6074 <__adddf3+0x116>
    6132:	0fc05063          	blez	t3,6212 <__adddf3+0x2b4>
    6136:	0c030063          	beqz	t1,61f6 <__adddf3+0x298>
    613a:	008006b7          	lui	a3,0x800
    613e:	7ff00793          	li	a5,2047
    6142:	00d86833          	or	a6,a6,a3
    6146:	3af48a63          	beq	s1,a5,64fa <__adddf3+0x59c>
    614a:	03800793          	li	a5,56
    614e:	13c7cb63          	blt	a5,t3,6284 <__adddf3+0x326>
    6152:	47fd                	li	a5,31
    6154:	35c7df63          	bge	a5,t3,64b2 <__adddf3+0x554>
    6158:	fe0e0913          	addi	s2,t3,-32
    615c:	02000793          	li	a5,32
    6160:	012856b3          	srl	a3,a6,s2
    6164:	00fe0a63          	beq	t3,a5,6178 <__adddf3+0x21a>
    6168:	04000913          	li	s2,64
    616c:	41c90933          	sub	s2,s2,t3
    6170:	01281933          	sll	s2,a6,s2
    6174:	012fefb3          	or	t6,t6,s2
    6178:	01f03933          	snez	s2,t6
    617c:	00d96933          	or	s2,s2,a3
    6180:	a231                	j	628c <__adddf3+0x32e>
    6182:	01f867b3          	or	a5,a6,t6
    6186:	1c078a63          	beqz	a5,635a <__adddf3+0x3fc>
    618a:	fffe0793          	addi	a5,t3,-1
    618e:	38078c63          	beqz	a5,6526 <__adddf3+0x5c8>
    6192:	7ff00693          	li	a3,2047
    6196:	1ade0963          	beq	t3,a3,6348 <__adddf3+0x3ea>
    619a:	8e3e                	mv	t3,a5
    619c:	bd0d                	j	5fce <__adddf3+0x70>
    619e:	409305b3          	sub	a1,t1,s1
    61a2:	22049163          	bnez	s1,63c4 <__adddf3+0x466>
    61a6:	01e767b3          	or	a5,a4,t5
    61aa:	32078763          	beqz	a5,64d8 <__adddf3+0x57a>
    61ae:	fff58793          	addi	a5,a1,-1 # fff <GPIO_Init+0xbd>
    61b2:	44078163          	beqz	a5,65f4 <__adddf3+0x696>
    61b6:	7ff00693          	li	a3,2047
    61ba:	20d58c63          	beq	a1,a3,63d2 <__adddf3+0x474>
    61be:	85be                	mv	a1,a5
    61c0:	03800793          	li	a5,56
    61c4:	2ab7cc63          	blt	a5,a1,647c <__adddf3+0x51e>
    61c8:	47fd                	li	a5,31
    61ca:	3cb7cf63          	blt	a5,a1,65a8 <__adddf3+0x64a>
    61ce:	02000793          	li	a5,32
    61d2:	8f8d                	sub	a5,a5,a1
    61d4:	00f71933          	sll	s2,a4,a5
    61d8:	00bf56b3          	srl	a3,t5,a1
    61dc:	00ff17b3          	sll	a5,t5,a5
    61e0:	00d96933          	or	s2,s2,a3
    61e4:	00f037b3          	snez	a5,a5
    61e8:	00b75733          	srl	a4,a4,a1
    61ec:	00f96933          	or	s2,s2,a5
    61f0:	40e80833          	sub	a6,a6,a4
    61f4:	ac41                	j	6484 <__adddf3+0x526>
    61f6:	01f867b3          	or	a5,a6,t6
    61fa:	34078063          	beqz	a5,653a <__adddf3+0x5dc>
    61fe:	fffe0793          	addi	a5,t3,-1
    6202:	20078a63          	beqz	a5,6416 <__adddf3+0x4b8>
    6206:	7ff00693          	li	a3,2047
    620a:	2ede0863          	beq	t3,a3,64fa <__adddf3+0x59c>
    620e:	8e3e                	mv	t3,a5
    6210:	bf2d                	j	614a <__adddf3+0x1ec>
    6212:	140e1e63          	bnez	t3,636e <__adddf3+0x410>
    6216:	00148693          	addi	a3,s1,1
    621a:	7fe6f793          	andi	a5,a3,2046
    621e:	34079163          	bnez	a5,6560 <__adddf3+0x602>
    6222:	01e767b3          	or	a5,a4,t5
    6226:	2c049563          	bnez	s1,64f0 <__adddf3+0x592>
    622a:	3e078063          	beqz	a5,660a <__adddf3+0x6ac>
    622e:	01f867b3          	or	a5,a6,t6
    6232:	30078e63          	beqz	a5,654e <__adddf3+0x5f0>
    6236:	01ff0933          	add	s2,t5,t6
    623a:	010707b3          	add	a5,a4,a6
    623e:	01e93f33          	sltu	t5,s2,t5
    6242:	01e78633          	add	a2,a5,t5
    6246:	00861793          	slli	a5,a2,0x8
    624a:	0007d763          	bgez	a5,6258 <__adddf3+0x2fa>
    624e:	ff8007b7          	lui	a5,0xff800
    6252:	17fd                	addi	a5,a5,-1
    6254:	8e7d                	and	a2,a2,a5
    6256:	4485                	li	s1,1
    6258:	00797793          	andi	a5,s2,7
    625c:	e0079fe3          	bnez	a5,607a <__adddf3+0x11c>
    6260:	01d61793          	slli	a5,a2,0x1d
    6264:	00395893          	srli	a7,s2,0x3
    6268:	00f8e8b3          	or	a7,a7,a5
    626c:	00365793          	srli	a5,a2,0x3
    6270:	7ff00713          	li	a4,2047
    6274:	04e48d63          	beq	s1,a4,62ce <__adddf3+0x370>
    6278:	07b2                	slli	a5,a5,0xc
    627a:	83b1                	srli	a5,a5,0xc
    627c:	7ff4f513          	andi	a0,s1,2047
    6280:	85ce                	mv	a1,s3
    6282:	b581                	j	60c2 <__adddf3+0x164>
    6284:	01f86933          	or	s2,a6,t6
    6288:	01203933          	snez	s2,s2
    628c:	997a                	add	s2,s2,t5
    628e:	01e937b3          	sltu	a5,s2,t5
    6292:	00e78633          	add	a2,a5,a4
    6296:	00861793          	slli	a5,a2,0x8
    629a:	fa07dfe3          	bgez	a5,6258 <__adddf3+0x2fa>
    629e:	0485                	addi	s1,s1,1
    62a0:	7ff00793          	li	a5,2047
    62a4:	18f49663          	bne	s1,a5,6430 <__adddf3+0x4d2>
    62a8:	85ce                	mv	a1,s3
    62aa:	7ff00513          	li	a0,2047
    62ae:	4781                	li	a5,0
    62b0:	4881                	li	a7,0
    62b2:	bd01                	j	60c2 <__adddf3+0x164>
    62b4:	ebc1                	bnez	a5,6344 <__adddf3+0x3e6>
    62b6:	3a088463          	beqz	a7,665e <__adddf3+0x700>
    62ba:	00361693          	slli	a3,a2,0x3
    62be:	01d81793          	slli	a5,a6,0x1d
    62c2:	828d                	srli	a3,a3,0x3
    62c4:	00d7e8b3          	or	a7,a5,a3
    62c8:	89f6                	mv	s3,t4
    62ca:	00385793          	srli	a5,a6,0x3
    62ce:	00f8e7b3          	or	a5,a7,a5
    62d2:	dbf9                	beqz	a5,62a8 <__adddf3+0x34a>
    62d4:	4581                	li	a1,0
    62d6:	7ff00513          	li	a0,2047
    62da:	000807b7          	lui	a5,0x80
    62de:	4881                	li	a7,0
    62e0:	b3cd                	j	60c2 <__adddf3+0x164>
    62e2:	ff800637          	lui	a2,0xff800
    62e6:	167d                	addi	a2,a2,-1
    62e8:	8e7d                	and	a2,a2,a5
    62ea:	00797793          	andi	a5,s2,7
    62ee:	8c99                	sub	s1,s1,a4
    62f0:	d80795e3          	bnez	a5,607a <__adddf3+0x11c>
    62f4:	b7b5                	j	6260 <__adddf3+0x302>
    62f6:	854a                	mv	a0,s2
    62f8:	4c9010ef          	jal	ra,7fc0 <__clzsi2>
    62fc:	01850713          	addi	a4,a0,24
    6300:	47fd                	li	a5,31
    6302:	d2e7d5e3          	bge	a5,a4,602c <__adddf3+0xce>
    6306:	ff850613          	addi	a2,a0,-8
    630a:	00c917b3          	sll	a5,s2,a2
    630e:	4901                	li	s2,0
    6310:	bb05                	j	6040 <__adddf3+0xe2>
    6312:	01f86933          	or	s2,a6,t6
    6316:	01203933          	snez	s2,s2
    631a:	b1dd                	j	6000 <__adddf3+0xa2>
    631c:	41ff0933          	sub	s2,t5,t6
    6320:	41070633          	sub	a2,a4,a6
    6324:	012f3433          	sltu	s0,t5,s2
    6328:	40860433          	sub	s0,a2,s0
    632c:	00841793          	slli	a5,s0,0x8
    6330:	2407cd63          	bltz	a5,658a <__adddf3+0x62c>
    6334:	008968b3          	or	a7,s2,s0
    6338:	ce0893e3          	bnez	a7,601e <__adddf3+0xc0>
    633c:	4781                	li	a5,0
    633e:	4981                	li	s3,0
    6340:	4481                	li	s1,0
    6342:	bf1d                	j	6278 <__adddf3+0x31a>
    6344:	f80898e3          	bnez	a7,62d4 <__adddf3+0x376>
    6348:	050e                	slli	a0,a0,0x3
    634a:	01d71793          	slli	a5,a4,0x1d
    634e:	810d                	srli	a0,a0,0x3
    6350:	00a7e8b3          	or	a7,a5,a0
    6354:	00375793          	srli	a5,a4,0x3
    6358:	bf9d                	j	62ce <__adddf3+0x370>
    635a:	050e                	slli	a0,a0,0x3
    635c:	01d71793          	slli	a5,a4,0x1d
    6360:	810d                	srli	a0,a0,0x3
    6362:	00a7e8b3          	or	a7,a5,a0
    6366:	84f2                	mv	s1,t3
    6368:	00375793          	srli	a5,a4,0x3
    636c:	b711                	j	6270 <__adddf3+0x312>
    636e:	40930533          	sub	a0,t1,s1
    6372:	12048263          	beqz	s1,6496 <__adddf3+0x538>
    6376:	008006b7          	lui	a3,0x800
    637a:	7ff00793          	li	a5,2047
    637e:	8f55                	or	a4,a4,a3
    6380:	2ef30d63          	beq	t1,a5,667a <__adddf3+0x71c>
    6384:	03800793          	li	a5,56
    6388:	20a7cb63          	blt	a5,a0,659e <__adddf3+0x640>
    638c:	47fd                	li	a5,31
    638e:	2aa7c363          	blt	a5,a0,6634 <__adddf3+0x6d6>
    6392:	02000793          	li	a5,32
    6396:	8f89                	sub	a5,a5,a0
    6398:	00f71933          	sll	s2,a4,a5
    639c:	00af56b3          	srl	a3,t5,a0
    63a0:	00ff17b3          	sll	a5,t5,a5
    63a4:	00d96933          	or	s2,s2,a3
    63a8:	00f037b3          	snez	a5,a5
    63ac:	00a75733          	srl	a4,a4,a0
    63b0:	00f96933          	or	s2,s2,a5
    63b4:	983a                	add	a6,a6,a4
    63b6:	997e                	add	s2,s2,t6
    63b8:	01f937b3          	sltu	a5,s2,t6
    63bc:	01078633          	add	a2,a5,a6
    63c0:	849a                	mv	s1,t1
    63c2:	bdd1                	j	6296 <__adddf3+0x338>
    63c4:	008006b7          	lui	a3,0x800
    63c8:	7ff00793          	li	a5,2047
    63cc:	8f55                	or	a4,a4,a3
    63ce:	def319e3          	bne	t1,a5,61c0 <__adddf3+0x262>
    63d2:	00361793          	slli	a5,a2,0x3
    63d6:	838d                	srli	a5,a5,0x3
    63d8:	01d81893          	slli	a7,a6,0x1d
    63dc:	0117e8b3          	or	a7,a5,a7
    63e0:	89f6                	mv	s3,t4
    63e2:	00385793          	srli	a5,a6,0x3
    63e6:	b5e5                	j	62ce <__adddf3+0x370>
    63e8:	fe150713          	addi	a4,a0,-31
    63ec:	02000693          	li	a3,32
    63f0:	00e7d733          	srl	a4,a5,a4
    63f4:	00d60a63          	beq	a2,a3,6408 <__adddf3+0x4aa>
    63f8:	04000693          	li	a3,64
    63fc:	40c68633          	sub	a2,a3,a2
    6400:	00c79633          	sll	a2,a5,a2
    6404:	00c96933          	or	s2,s2,a2
    6408:	01203933          	snez	s2,s2
    640c:	00e96933          	or	s2,s2,a4
    6410:	4601                	li	a2,0
    6412:	4481                	li	s1,0
    6414:	b591                	j	6258 <__adddf3+0x2fa>
    6416:	01ff0933          	add	s2,t5,t6
    641a:	010707b3          	add	a5,a4,a6
    641e:	01e93633          	sltu	a2,s2,t5
    6422:	963e                	add	a2,a2,a5
    6424:	00861793          	slli	a5,a2,0x8
    6428:	4485                	li	s1,1
    642a:	e207d7e3          	bgez	a5,6258 <__adddf3+0x2fa>
    642e:	4489                	li	s1,2
    6430:	ff8007b7          	lui	a5,0xff800
    6434:	17fd                	addi	a5,a5,-1
    6436:	8ff1                	and	a5,a5,a2
    6438:	00195713          	srli	a4,s2,0x1
    643c:	00197913          	andi	s2,s2,1
    6440:	01276933          	or	s2,a4,s2
    6444:	01f79893          	slli	a7,a5,0x1f
    6448:	0128e933          	or	s2,a7,s2
    644c:	0017d613          	srli	a2,a5,0x1
    6450:	b115                	j	6074 <__adddf3+0x116>
    6452:	fe0e0913          	addi	s2,t3,-32
    6456:	02000793          	li	a5,32
    645a:	012856b3          	srl	a3,a6,s2
    645e:	00fe0a63          	beq	t3,a5,6472 <__adddf3+0x514>
    6462:	04000913          	li	s2,64
    6466:	41c90933          	sub	s2,s2,t3
    646a:	01281933          	sll	s2,a6,s2
    646e:	012fefb3          	or	t6,t6,s2
    6472:	01f03933          	snez	s2,t6
    6476:	00d96933          	or	s2,s2,a3
    647a:	b659                	j	6000 <__adddf3+0xa2>
    647c:	01e76933          	or	s2,a4,t5
    6480:	01203933          	snez	s2,s2
    6484:	412f8933          	sub	s2,t6,s2
    6488:	012fb7b3          	sltu	a5,t6,s2
    648c:	40f80633          	sub	a2,a6,a5
    6490:	849a                	mv	s1,t1
    6492:	89f6                	mv	s3,t4
    6494:	bea5                	j	600c <__adddf3+0xae>
    6496:	01e767b3          	or	a5,a4,t5
    649a:	18078263          	beqz	a5,661e <__adddf3+0x6c0>
    649e:	fff50793          	addi	a5,a0,-1
    64a2:	1c078463          	beqz	a5,666a <__adddf3+0x70c>
    64a6:	7ff00693          	li	a3,2047
    64aa:	12d50463          	beq	a0,a3,65d2 <__adddf3+0x674>
    64ae:	853e                	mv	a0,a5
    64b0:	bdd1                	j	6384 <__adddf3+0x426>
    64b2:	02000793          	li	a5,32
    64b6:	41c787b3          	sub	a5,a5,t3
    64ba:	00f816b3          	sll	a3,a6,a5
    64be:	00ff9933          	sll	s2,t6,a5
    64c2:	01cfd633          	srl	a2,t6,t3
    64c6:	8ed1                	or	a3,a3,a2
    64c8:	01203933          	snez	s2,s2
    64cc:	01c857b3          	srl	a5,a6,t3
    64d0:	0126e933          	or	s2,a3,s2
    64d4:	973e                	add	a4,a4,a5
    64d6:	bb5d                	j	628c <__adddf3+0x32e>
    64d8:	00361793          	slli	a5,a2,0x3
    64dc:	838d                	srli	a5,a5,0x3
    64de:	01d81893          	slli	a7,a6,0x1d
    64e2:	0117e8b3          	or	a7,a5,a7
    64e6:	84ae                	mv	s1,a1
    64e8:	00385793          	srli	a5,a6,0x3
    64ec:	89f6                	mv	s3,t4
    64ee:	b349                	j	6270 <__adddf3+0x312>
    64f0:	c3ed                	beqz	a5,65d2 <__adddf3+0x674>
    64f2:	01f86933          	or	s2,a6,t6
    64f6:	dc091fe3          	bnez	s2,62d4 <__adddf3+0x376>
    64fa:	050e                	slli	a0,a0,0x3
    64fc:	01d71793          	slli	a5,a4,0x1d
    6500:	810d                	srli	a0,a0,0x3
    6502:	00f568b3          	or	a7,a0,a5
    6506:	00375793          	srli	a5,a4,0x3
    650a:	b3d1                	j	62ce <__adddf3+0x370>
    650c:	0e088163          	beqz	a7,65ee <__adddf3+0x690>
    6510:	00361693          	slli	a3,a2,0x3
    6514:	01d81793          	slli	a5,a6,0x1d
    6518:	828d                	srli	a3,a3,0x3
    651a:	00d7e8b3          	or	a7,a5,a3
    651e:	89f6                	mv	s3,t4
    6520:	00385793          	srli	a5,a6,0x3
    6524:	bb91                	j	6278 <__adddf3+0x31a>
    6526:	41ff0933          	sub	s2,t5,t6
    652a:	410707b3          	sub	a5,a4,a6
    652e:	012f3f33          	sltu	t5,t5,s2
    6532:	41e78633          	sub	a2,a5,t5
    6536:	4485                	li	s1,1
    6538:	bcd1                	j	600c <__adddf3+0xae>
    653a:	050e                	slli	a0,a0,0x3
    653c:	01d71793          	slli	a5,a4,0x1d
    6540:	810d                	srli	a0,a0,0x3
    6542:	00f568b3          	or	a7,a0,a5
    6546:	84f2                	mv	s1,t3
    6548:	00375793          	srli	a5,a4,0x3
    654c:	b315                	j	6270 <__adddf3+0x312>
    654e:	050e                	slli	a0,a0,0x3
    6550:	01d71793          	slli	a5,a4,0x1d
    6554:	810d                	srli	a0,a0,0x3
    6556:	00a7e8b3          	or	a7,a5,a0
    655a:	00375793          	srli	a5,a4,0x3
    655e:	bb29                	j	6278 <__adddf3+0x31a>
    6560:	7ff00793          	li	a5,2047
    6564:	d4f682e3          	beq	a3,a5,62a8 <__adddf3+0x34a>
    6568:	01ff0933          	add	s2,t5,t6
    656c:	01e93633          	sltu	a2,s2,t5
    6570:	010707b3          	add	a5,a4,a6
    6574:	97b2                	add	a5,a5,a2
    6576:	01f79893          	slli	a7,a5,0x1f
    657a:	00195913          	srli	s2,s2,0x1
    657e:	0128e933          	or	s2,a7,s2
    6582:	0017d613          	srli	a2,a5,0x1
    6586:	84b6                	mv	s1,a3
    6588:	b9c1                	j	6258 <__adddf3+0x2fa>
    658a:	41ef8933          	sub	s2,t6,t5
    658e:	40e80733          	sub	a4,a6,a4
    6592:	012fb633          	sltu	a2,t6,s2
    6596:	40c70433          	sub	s0,a4,a2
    659a:	89f6                	mv	s3,t4
    659c:	b449                	j	601e <__adddf3+0xc0>
    659e:	01e76933          	or	s2,a4,t5
    65a2:	01203933          	snez	s2,s2
    65a6:	bd01                	j	63b6 <__adddf3+0x458>
    65a8:	fe058793          	addi	a5,a1,-32
    65ac:	02000693          	li	a3,32
    65b0:	00f757b3          	srl	a5,a4,a5
    65b4:	00d58a63          	beq	a1,a3,65c8 <__adddf3+0x66a>
    65b8:	04000693          	li	a3,64
    65bc:	40b685b3          	sub	a1,a3,a1
    65c0:	00b71733          	sll	a4,a4,a1
    65c4:	00ef6f33          	or	t5,t5,a4
    65c8:	01e03933          	snez	s2,t5
    65cc:	00f96933          	or	s2,s2,a5
    65d0:	bd55                	j	6484 <__adddf3+0x526>
    65d2:	00361793          	slli	a5,a2,0x3
    65d6:	838d                	srli	a5,a5,0x3
    65d8:	01d81893          	slli	a7,a6,0x1d
    65dc:	0117e8b3          	or	a7,a5,a7
    65e0:	00385793          	srli	a5,a6,0x3
    65e4:	b1ed                	j	62ce <__adddf3+0x370>
    65e6:	00c968b3          	or	a7,s2,a2
    65ea:	c60897e3          	bnez	a7,6258 <__adddf3+0x2fa>
    65ee:	4781                	li	a5,0
    65f0:	4981                	li	s3,0
    65f2:	b159                	j	6278 <__adddf3+0x31a>
    65f4:	41ef8933          	sub	s2,t6,t5
    65f8:	40e807b3          	sub	a5,a6,a4
    65fc:	012fb633          	sltu	a2,t6,s2
    6600:	40c78633          	sub	a2,a5,a2
    6604:	89f6                	mv	s3,t4
    6606:	4485                	li	s1,1
    6608:	b411                	j	600c <__adddf3+0xae>
    660a:	00361693          	slli	a3,a2,0x3
    660e:	01d81793          	slli	a5,a6,0x1d
    6612:	828d                	srli	a3,a3,0x3
    6614:	00d7e8b3          	or	a7,a5,a3
    6618:	00385793          	srli	a5,a6,0x3
    661c:	b9b1                	j	6278 <__adddf3+0x31a>
    661e:	00361693          	slli	a3,a2,0x3
    6622:	01d81793          	slli	a5,a6,0x1d
    6626:	828d                	srli	a3,a3,0x3
    6628:	00d7e8b3          	or	a7,a5,a3
    662c:	84aa                	mv	s1,a0
    662e:	00385793          	srli	a5,a6,0x3
    6632:	b93d                	j	6270 <__adddf3+0x312>
    6634:	fe050793          	addi	a5,a0,-32
    6638:	02000693          	li	a3,32
    663c:	00f757b3          	srl	a5,a4,a5
    6640:	00d50a63          	beq	a0,a3,6654 <__adddf3+0x6f6>
    6644:	04000693          	li	a3,64
    6648:	40a68533          	sub	a0,a3,a0
    664c:	00a71733          	sll	a4,a4,a0
    6650:	00ef6f33          	or	t5,t5,a4
    6654:	01e03933          	snez	s2,t5
    6658:	00f96933          	or	s2,s2,a5
    665c:	bba9                	j	63b6 <__adddf3+0x458>
    665e:	4581                	li	a1,0
    6660:	7ff00513          	li	a0,2047
    6664:	000807b7          	lui	a5,0x80
    6668:	bca9                	j	60c2 <__adddf3+0x164>
    666a:	01ff0933          	add	s2,t5,t6
    666e:	010707b3          	add	a5,a4,a6
    6672:	01f93633          	sltu	a2,s2,t6
    6676:	963e                	add	a2,a2,a5
    6678:	b375                	j	6424 <__adddf3+0x4c6>
    667a:	00361693          	slli	a3,a2,0x3
    667e:	01d81793          	slli	a5,a6,0x1d
    6682:	828d                	srli	a3,a3,0x3
    6684:	00d7e8b3          	or	a7,a5,a3
    6688:	00385793          	srli	a5,a6,0x3
    668c:	b189                	j	62ce <__adddf3+0x370>

0000668e <__divdf3>:
    668e:	7139                	addi	sp,sp,-64
    6690:	0145d793          	srli	a5,a1,0x14
    6694:	dc22                	sw	s0,56(sp)
    6696:	d84a                	sw	s2,48(sp)
    6698:	d256                	sw	s5,36(sp)
    669a:	892a                	mv	s2,a0
    669c:	00c59413          	slli	s0,a1,0xc
    66a0:	de06                	sw	ra,60(sp)
    66a2:	da26                	sw	s1,52(sp)
    66a4:	d64e                	sw	s3,44(sp)
    66a6:	d452                	sw	s4,40(sp)
    66a8:	d05a                	sw	s6,32(sp)
    66aa:	ce5e                	sw	s7,28(sp)
    66ac:	7ff7f513          	andi	a0,a5,2047
    66b0:	8031                	srli	s0,s0,0xc
    66b2:	01f5da93          	srli	s5,a1,0x1f
    66b6:	10050b63          	beqz	a0,67cc <__divdf3+0x13e>
    66ba:	7ff00793          	li	a5,2047
    66be:	14f50b63          	beq	a0,a5,6814 <__divdf3+0x186>
    66c2:	01d95a13          	srli	s4,s2,0x1d
    66c6:	040e                	slli	s0,s0,0x3
    66c8:	008a6433          	or	s0,s4,s0
    66cc:	00800a37          	lui	s4,0x800
    66d0:	01446a33          	or	s4,s0,s4
    66d4:	00391b13          	slli	s6,s2,0x3
    66d8:	c0150493          	addi	s1,a0,-1023
    66dc:	4401                	li	s0,0
    66de:	4b81                	li	s7,0
    66e0:	0146d813          	srli	a6,a3,0x14
    66e4:	00c69913          	slli	s2,a3,0xc
    66e8:	7ff87813          	andi	a6,a6,2047
    66ec:	88b2                	mv	a7,a2
    66ee:	00c95913          	srli	s2,s2,0xc
    66f2:	01f6d993          	srli	s3,a3,0x1f
    66f6:	08080e63          	beqz	a6,6792 <__divdf3+0x104>
    66fa:	7ff00793          	li	a5,2047
    66fe:	04f80063          	beq	a6,a5,673e <__divdf3+0xb0>
    6702:	01d65713          	srli	a4,a2,0x1d
    6706:	090e                	slli	s2,s2,0x3
    6708:	01276933          	or	s2,a4,s2
    670c:	c0180813          	addi	a6,a6,-1023 # ffc01 <_data_lma+0xf3d7d>
    6710:	008007b7          	lui	a5,0x800
    6714:	00f96733          	or	a4,s2,a5
    6718:	00361893          	slli	a7,a2,0x3
    671c:	410484b3          	sub	s1,s1,a6
    6720:	4581                	li	a1,0
    6722:	47bd                	li	a5,15
    6724:	013ac833          	xor	a6,s5,s3
    6728:	1a87e463          	bltu	a5,s0,68d0 <__divdf3+0x242>
    672c:	00005797          	auipc	a5,0x5
    6730:	2c478793          	addi	a5,a5,708 # b9f0 <PortGroup_3+0x350>
    6734:	040a                	slli	s0,s0,0x2
    6736:	943e                	add	s0,s0,a5
    6738:	4010                	lw	a2,0(s0)
    673a:	963e                	add	a2,a2,a5
    673c:	8602                	jr	a2
    673e:	00c96733          	or	a4,s2,a2
    6742:	80148493          	addi	s1,s1,-2047
    6746:	10071263          	bnez	a4,684a <__divdf3+0x1bc>
    674a:	00246413          	ori	s0,s0,2
    674e:	4881                	li	a7,0
    6750:	4589                	li	a1,2
    6752:	bfc1                	j	6722 <__divdf3+0x94>
    6754:	7ff00613          	li	a2,2047
    6758:	4781                	li	a5,0
    675a:	4701                	li	a4,0
    675c:	07b2                	slli	a5,a5,0xc
    675e:	50f2                	lw	ra,60(sp)
    6760:	5462                	lw	s0,56(sp)
    6762:	0652                	slli	a2,a2,0x14
    6764:	83b1                	srli	a5,a5,0xc
    6766:	087e                	slli	a6,a6,0x1f
    6768:	8fd1                	or	a5,a5,a2
    676a:	0107e7b3          	or	a5,a5,a6
    676e:	54d2                	lw	s1,52(sp)
    6770:	5942                	lw	s2,48(sp)
    6772:	59b2                	lw	s3,44(sp)
    6774:	5a22                	lw	s4,40(sp)
    6776:	5a92                	lw	s5,36(sp)
    6778:	5b02                	lw	s6,32(sp)
    677a:	4bf2                	lw	s7,28(sp)
    677c:	853a                	mv	a0,a4
    677e:	85be                	mv	a1,a5
    6780:	6121                	addi	sp,sp,64
    6782:	8082                	ret
    6784:	4801                	li	a6,0
    6786:	7ff00613          	li	a2,2047
    678a:	000807b7          	lui	a5,0x80
    678e:	4701                	li	a4,0
    6790:	b7f1                	j	675c <__divdf3+0xce>
    6792:	00c96733          	or	a4,s2,a2
    6796:	c74d                	beqz	a4,6840 <__divdf3+0x1b2>
    6798:	30090863          	beqz	s2,6aa8 <__divdf3+0x41a>
    679c:	854a                	mv	a0,s2
    679e:	c432                	sw	a2,8(sp)
    67a0:	021010ef          	jal	ra,7fc0 <__clzsi2>
    67a4:	4622                	lw	a2,8(sp)
    67a6:	ff550713          	addi	a4,a0,-11
    67aa:	47f5                	li	a5,29
    67ac:	ff850693          	addi	a3,a0,-8
    67b0:	8f99                	sub	a5,a5,a4
    67b2:	00d91933          	sll	s2,s2,a3
    67b6:	00f657b3          	srl	a5,a2,a5
    67ba:	0127e733          	or	a4,a5,s2
    67be:	00d618b3          	sll	a7,a2,a3
    67c2:	9526                	add	a0,a0,s1
    67c4:	3f350493          	addi	s1,a0,1011
    67c8:	4581                	li	a1,0
    67ca:	bfa1                	j	6722 <__divdf3+0x94>
    67cc:	01246a33          	or	s4,s0,s2
    67d0:	060a0363          	beqz	s4,6836 <__divdf3+0x1a8>
    67d4:	c636                	sw	a3,12(sp)
    67d6:	c432                	sw	a2,8(sp)
    67d8:	2a040663          	beqz	s0,6a84 <__divdf3+0x3f6>
    67dc:	8522                	mv	a0,s0
    67de:	7e2010ef          	jal	ra,7fc0 <__clzsi2>
    67e2:	4622                	lw	a2,8(sp)
    67e4:	46b2                	lw	a3,12(sp)
    67e6:	84aa                	mv	s1,a0
    67e8:	ff550713          	addi	a4,a0,-11
    67ec:	4a75                	li	s4,29
    67ee:	ff848b13          	addi	s6,s1,-8
    67f2:	40ea0a33          	sub	s4,s4,a4
    67f6:	01641433          	sll	s0,s0,s6
    67fa:	01495a33          	srl	s4,s2,s4
    67fe:	008a6a33          	or	s4,s4,s0
    6802:	01691b33          	sll	s6,s2,s6
    6806:	c0d00513          	li	a0,-1011
    680a:	409504b3          	sub	s1,a0,s1
    680e:	4401                	li	s0,0
    6810:	4b81                	li	s7,0
    6812:	b5f9                	j	66e0 <__divdf3+0x52>
    6814:	01246a33          	or	s4,s0,s2
    6818:	000a1863          	bnez	s4,6828 <__divdf3+0x19a>
    681c:	4421                	li	s0,8
    681e:	4b01                	li	s6,0
    6820:	7ff00493          	li	s1,2047
    6824:	4b89                	li	s7,2
    6826:	bd6d                	j	66e0 <__divdf3+0x52>
    6828:	8a22                	mv	s4,s0
    682a:	8b4a                	mv	s6,s2
    682c:	4431                	li	s0,12
    682e:	7ff00493          	li	s1,2047
    6832:	4b8d                	li	s7,3
    6834:	b575                	j	66e0 <__divdf3+0x52>
    6836:	4411                	li	s0,4
    6838:	4b01                	li	s6,0
    683a:	4481                	li	s1,0
    683c:	4b85                	li	s7,1
    683e:	b54d                	j	66e0 <__divdf3+0x52>
    6840:	00146413          	ori	s0,s0,1
    6844:	4881                	li	a7,0
    6846:	4585                	li	a1,1
    6848:	bde9                	j	6722 <__divdf3+0x94>
    684a:	00346413          	ori	s0,s0,3
    684e:	874a                	mv	a4,s2
    6850:	458d                	li	a1,3
    6852:	bdc1                	j	6722 <__divdf3+0x94>
    6854:	2e050a63          	beqz	a0,6b48 <__divdf3+0x4ba>
    6858:	4785                	li	a5,1
    685a:	8f89                	sub	a5,a5,a0
    685c:	03800693          	li	a3,56
    6860:	32f6dd63          	bge	a3,a5,6b9a <__divdf3+0x50c>
    6864:	4601                	li	a2,0
    6866:	4781                	li	a5,0
    6868:	4701                	li	a4,0
    686a:	bdcd                	j	675c <__divdf3+0xce>
    686c:	86ce                	mv	a3,s3
    686e:	4789                	li	a5,2
    6870:	3af58d63          	beq	a1,a5,6c2a <__divdf3+0x59c>
    6874:	478d                	li	a5,3
    6876:	f0f587e3          	beq	a1,a5,6784 <__divdf3+0xf6>
    687a:	4785                	li	a5,1
    687c:	8836                	mv	a6,a3
    687e:	fef583e3          	beq	a1,a5,6864 <__divdf3+0x1d6>
    6882:	3ff48513          	addi	a0,s1,1023
    6886:	fca057e3          	blez	a0,6854 <__divdf3+0x1c6>
    688a:	0078f793          	andi	a5,a7,7
    688e:	28079663          	bnez	a5,6b1a <__divdf3+0x48c>
    6892:	0038d693          	srli	a3,a7,0x3
    6896:	00771793          	slli	a5,a4,0x7
    689a:	0007d863          	bgez	a5,68aa <__divdf3+0x21c>
    689e:	ff0007b7          	lui	a5,0xff000
    68a2:	17fd                	addi	a5,a5,-1
    68a4:	8f7d                	and	a4,a4,a5
    68a6:	40048513          	addi	a0,s1,1024
    68aa:	7fe00793          	li	a5,2046
    68ae:	eaa7c3e3          	blt	a5,a0,6754 <__divdf3+0xc6>
    68b2:	01d71613          	slli	a2,a4,0x1d
    68b6:	00971793          	slli	a5,a4,0x9
    68ba:	83b1                	srli	a5,a5,0xc
    68bc:	00d66733          	or	a4,a2,a3
    68c0:	7ff57613          	andi	a2,a0,2047
    68c4:	bd61                	j	675c <__divdf3+0xce>
    68c6:	86d6                	mv	a3,s5
    68c8:	8752                	mv	a4,s4
    68ca:	88da                	mv	a7,s6
    68cc:	85de                	mv	a1,s7
    68ce:	b745                	j	686e <__divdf3+0x1e0>
    68d0:	23476163          	bltu	a4,s4,6af2 <__divdf3+0x464>
    68d4:	20ea0d63          	beq	s4,a4,6aee <__divdf3+0x460>
    68d8:	86da                	mv	a3,s6
    68da:	14fd                	addi	s1,s1,-1
    68dc:	8452                	mv	s0,s4
    68de:	4b01                	li	s6,0
    68e0:	00871793          	slli	a5,a4,0x8
    68e4:	0188d313          	srli	t1,a7,0x18
    68e8:	00f36333          	or	t1,t1,a5
    68ec:	01035e93          	srli	t4,t1,0x10
    68f0:	03d457b3          	divu	a5,s0,t4
    68f4:	01031f13          	slli	t5,t1,0x10
    68f8:	010f5f13          	srli	t5,t5,0x10
    68fc:	0106d593          	srli	a1,a3,0x10
    6900:	00889e13          	slli	t3,a7,0x8
    6904:	03d47433          	remu	s0,s0,t4
    6908:	02ff0733          	mul	a4,t5,a5
    690c:	0442                	slli	s0,s0,0x10
    690e:	8dc1                	or	a1,a1,s0
    6910:	00e5fb63          	bgeu	a1,a4,6926 <__divdf3+0x298>
    6914:	959a                	add	a1,a1,t1
    6916:	fff78613          	addi	a2,a5,-1 # feffffff <_eusrstack+0xdeff7fff>
    691a:	2665ee63          	bltu	a1,t1,6b96 <__divdf3+0x508>
    691e:	26e5fc63          	bgeu	a1,a4,6b96 <__divdf3+0x508>
    6922:	17f9                	addi	a5,a5,-2
    6924:	959a                	add	a1,a1,t1
    6926:	8d99                	sub	a1,a1,a4
    6928:	03d5d733          	divu	a4,a1,t4
    692c:	06c2                	slli	a3,a3,0x10
    692e:	82c1                	srli	a3,a3,0x10
    6930:	03d5f5b3          	remu	a1,a1,t4
    6934:	02ef0633          	mul	a2,t5,a4
    6938:	05c2                	slli	a1,a1,0x10
    693a:	8dd5                	or	a1,a1,a3
    693c:	00c5fb63          	bgeu	a1,a2,6952 <__divdf3+0x2c4>
    6940:	959a                	add	a1,a1,t1
    6942:	fff70693          	addi	a3,a4,-1 # 7fffff <_data_lma+0x7f417b>
    6946:	2465e663          	bltu	a1,t1,6b92 <__divdf3+0x504>
    694a:	24c5f463          	bgeu	a1,a2,6b92 <__divdf3+0x504>
    694e:	1779                	addi	a4,a4,-2
    6950:	959a                	add	a1,a1,t1
    6952:	07c2                	slli	a5,a5,0x10
    6954:	6441                	lui	s0,0x10
    6956:	8f5d                	or	a4,a4,a5
    6958:	fff40793          	addi	a5,s0,-1 # ffff <_data_lma+0x417b>
    695c:	00f77533          	and	a0,a4,a5
    6960:	01075893          	srli	a7,a4,0x10
    6964:	010e5f93          	srli	t6,t3,0x10
    6968:	00fe77b3          	and	a5,t3,a5
    696c:	02f502b3          	mul	t0,a0,a5
    6970:	40c586b3          	sub	a3,a1,a2
    6974:	02f883b3          	mul	t2,a7,a5
    6978:	0102d593          	srli	a1,t0,0x10
    697c:	02af8633          	mul	a2,t6,a0
    6980:	961e                	add	a2,a2,t2
    6982:	962e                	add	a2,a2,a1
    6984:	03f88533          	mul	a0,a7,t6
    6988:	00767363          	bgeu	a2,t2,698e <__divdf3+0x300>
    698c:	9522                	add	a0,a0,s0
    698e:	68c1                	lui	a7,0x10
    6990:	18fd                	addi	a7,a7,-1
    6992:	01065593          	srli	a1,a2,0x10
    6996:	01167633          	and	a2,a2,a7
    699a:	0642                	slli	a2,a2,0x10
    699c:	0112f8b3          	and	a7,t0,a7
    69a0:	95aa                	add	a1,a1,a0
    69a2:	9646                	add	a2,a2,a7
    69a4:	12b6e663          	bltu	a3,a1,6ad0 <__divdf3+0x442>
    69a8:	12b68263          	beq	a3,a1,6acc <__divdf3+0x43e>
    69ac:	40cb0633          	sub	a2,s6,a2
    69b0:	8e8d                	sub	a3,a3,a1
    69b2:	00cb3b33          	sltu	s6,s6,a2
    69b6:	41668b33          	sub	s6,a3,s6
    69ba:	3ff48513          	addi	a0,s1,1023
    69be:	17630c63          	beq	t1,s6,6b36 <__divdf3+0x4a8>
    69c2:	03db58b3          	divu	a7,s6,t4
    69c6:	01065593          	srli	a1,a2,0x10
    69ca:	03db7b33          	remu	s6,s6,t4
    69ce:	031f06b3          	mul	a3,t5,a7
    69d2:	0b42                	slli	s6,s6,0x10
    69d4:	0165eb33          	or	s6,a1,s6
    69d8:	00db7b63          	bgeu	s6,a3,69ee <__divdf3+0x360>
    69dc:	9b1a                	add	s6,s6,t1
    69de:	fff88593          	addi	a1,a7,-1 # ffff <_data_lma+0x417b>
    69e2:	206b6d63          	bltu	s6,t1,6bfc <__divdf3+0x56e>
    69e6:	20db7b63          	bgeu	s6,a3,6bfc <__divdf3+0x56e>
    69ea:	18f9                	addi	a7,a7,-2
    69ec:	9b1a                	add	s6,s6,t1
    69ee:	40db0b33          	sub	s6,s6,a3
    69f2:	03db56b3          	divu	a3,s6,t4
    69f6:	0642                	slli	a2,a2,0x10
    69f8:	8241                	srli	a2,a2,0x10
    69fa:	03db7b33          	remu	s6,s6,t4
    69fe:	02df0f33          	mul	t5,t5,a3
    6a02:	0b42                	slli	s6,s6,0x10
    6a04:	01666633          	or	a2,a2,s6
    6a08:	01e67b63          	bgeu	a2,t5,6a1e <__divdf3+0x390>
    6a0c:	961a                	add	a2,a2,t1
    6a0e:	fff68593          	addi	a1,a3,-1 # 7fffff <_data_lma+0x7f417b>
    6a12:	1e666763          	bltu	a2,t1,6c00 <__divdf3+0x572>
    6a16:	1fe67563          	bgeu	a2,t5,6c00 <__divdf3+0x572>
    6a1a:	16f9                	addi	a3,a3,-2
    6a1c:	961a                	add	a2,a2,t1
    6a1e:	08c2                	slli	a7,a7,0x10
    6a20:	00d8e8b3          	or	a7,a7,a3
    6a24:	01089593          	slli	a1,a7,0x10
    6a28:	0108d293          	srli	t0,a7,0x10
    6a2c:	81c1                	srli	a1,a1,0x10
    6a2e:	02f58eb3          	mul	t4,a1,a5
    6a32:	41e60633          	sub	a2,a2,t5
    6a36:	02bf85b3          	mul	a1,t6,a1
    6a3a:	010ed693          	srli	a3,t4,0x10
    6a3e:	02f287b3          	mul	a5,t0,a5
    6a42:	95be                	add	a1,a1,a5
    6a44:	96ae                	add	a3,a3,a1
    6a46:	025f8fb3          	mul	t6,t6,t0
    6a4a:	00f6f463          	bgeu	a3,a5,6a52 <__divdf3+0x3c4>
    6a4e:	67c1                	lui	a5,0x10
    6a50:	9fbe                	add	t6,t6,a5
    6a52:	65c1                	lui	a1,0x10
    6a54:	15fd                	addi	a1,a1,-1
    6a56:	0106d793          	srli	a5,a3,0x10
    6a5a:	8eed                	and	a3,a3,a1
    6a5c:	06c2                	slli	a3,a3,0x10
    6a5e:	00befeb3          	and	t4,t4,a1
    6a62:	9fbe                	add	t6,t6,a5
    6a64:	96f6                	add	a3,a3,t4
    6a66:	09f67f63          	bgeu	a2,t6,6b04 <__divdf3+0x476>
    6a6a:	961a                	add	a2,a2,t1
    6a6c:	fff88793          	addi	a5,a7,-1
    6a70:	1a666963          	bltu	a2,t1,6c22 <__divdf3+0x594>
    6a74:	19f66863          	bltu	a2,t6,6c04 <__divdf3+0x576>
    6a78:	1bf60f63          	beq	a2,t6,6c36 <__divdf3+0x5a8>
    6a7c:	88be                	mv	a7,a5
    6a7e:	0018e893          	ori	a7,a7,1
    6a82:	b511                	j	6886 <__divdf3+0x1f8>
    6a84:	854a                	mv	a0,s2
    6a86:	53a010ef          	jal	ra,7fc0 <__clzsi2>
    6a8a:	01550713          	addi	a4,a0,21
    6a8e:	45f1                	li	a1,28
    6a90:	02050493          	addi	s1,a0,32
    6a94:	4622                	lw	a2,8(sp)
    6a96:	46b2                	lw	a3,12(sp)
    6a98:	d4e5dae3          	bge	a1,a4,67ec <__divdf3+0x15e>
    6a9c:	ff850413          	addi	s0,a0,-8
    6aa0:	00891a33          	sll	s4,s2,s0
    6aa4:	4b01                	li	s6,0
    6aa6:	b385                	j	6806 <__divdf3+0x178>
    6aa8:	8532                	mv	a0,a2
    6aaa:	c432                	sw	a2,8(sp)
    6aac:	514010ef          	jal	ra,7fc0 <__clzsi2>
    6ab0:	01550713          	addi	a4,a0,21
    6ab4:	46f1                	li	a3,28
    6ab6:	87aa                	mv	a5,a0
    6ab8:	4622                	lw	a2,8(sp)
    6aba:	02050513          	addi	a0,a0,32
    6abe:	cee6d6e3          	bge	a3,a4,67aa <__divdf3+0x11c>
    6ac2:	17e1                	addi	a5,a5,-8
    6ac4:	00f61733          	sll	a4,a2,a5
    6ac8:	4881                	li	a7,0
    6aca:	b9e5                	j	67c2 <__divdf3+0x134>
    6acc:	eecb70e3          	bgeu	s6,a2,69ac <__divdf3+0x31e>
    6ad0:	9b72                	add	s6,s6,t3
    6ad2:	01cb3533          	sltu	a0,s6,t3
    6ad6:	951a                	add	a0,a0,t1
    6ad8:	96aa                	add	a3,a3,a0
    6ada:	fff70513          	addi	a0,a4,-1
    6ade:	02d37863          	bgeu	t1,a3,6b0e <__divdf3+0x480>
    6ae2:	10b6e663          	bltu	a3,a1,6bee <__divdf3+0x560>
    6ae6:	10d58263          	beq	a1,a3,6bea <__divdf3+0x55c>
    6aea:	872a                	mv	a4,a0
    6aec:	b5c1                	j	69ac <__divdf3+0x31e>
    6aee:	df1b65e3          	bltu	s6,a7,68d8 <__divdf3+0x24a>
    6af2:	001b5593          	srli	a1,s6,0x1
    6af6:	01fa1693          	slli	a3,s4,0x1f
    6afa:	001a5413          	srli	s0,s4,0x1
    6afe:	8ecd                	or	a3,a3,a1
    6b00:	0b7e                	slli	s6,s6,0x1f
    6b02:	bbf9                	j	68e0 <__divdf3+0x252>
    6b04:	f7f61de3          	bne	a2,t6,6a7e <__divdf3+0x3f0>
    6b08:	d6068fe3          	beqz	a3,6886 <__divdf3+0x1f8>
    6b0c:	bfb9                	j	6a6a <__divdf3+0x3dc>
    6b0e:	fcd31ee3          	bne	t1,a3,6aea <__divdf3+0x45c>
    6b12:	fdcb78e3          	bgeu	s6,t3,6ae2 <__divdf3+0x454>
    6b16:	872a                	mv	a4,a0
    6b18:	bd51                	j	69ac <__divdf3+0x31e>
    6b1a:	00f8f793          	andi	a5,a7,15
    6b1e:	4691                	li	a3,4
    6b20:	d6d789e3          	beq	a5,a3,6892 <__divdf3+0x204>
    6b24:	ffc8b793          	sltiu	a5,a7,-4
    6b28:	00488693          	addi	a3,a7,4
    6b2c:	0017c793          	xori	a5,a5,1
    6b30:	828d                	srli	a3,a3,0x3
    6b32:	973e                	add	a4,a4,a5
    6b34:	b38d                	j	6896 <__divdf3+0x208>
    6b36:	4681                	li	a3,0
    6b38:	4785                	li	a5,1
    6b3a:	fea04ce3          	bgtz	a0,6b32 <__divdf3+0x4a4>
    6b3e:	58fd                	li	a7,-1
    6b40:	d0051ce3          	bnez	a0,6858 <__divdf3+0x1ca>
    6b44:	c0100493          	li	s1,-1023
    6b48:	4785                	li	a5,1
    6b4a:	41e48513          	addi	a0,s1,1054
    6b4e:	00a716b3          	sll	a3,a4,a0
    6b52:	00f8d633          	srl	a2,a7,a5
    6b56:	00a89533          	sll	a0,a7,a0
    6b5a:	8ed1                	or	a3,a3,a2
    6b5c:	00a03533          	snez	a0,a0
    6b60:	8ec9                	or	a3,a3,a0
    6b62:	0076f613          	andi	a2,a3,7
    6b66:	00f75733          	srl	a4,a4,a5
    6b6a:	ce01                	beqz	a2,6b82 <__divdf3+0x4f4>
    6b6c:	00f6f793          	andi	a5,a3,15
    6b70:	4611                	li	a2,4
    6b72:	00c78863          	beq	a5,a2,6b82 <__divdf3+0x4f4>
    6b76:	00468793          	addi	a5,a3,4
    6b7a:	00d7b6b3          	sltu	a3,a5,a3
    6b7e:	9736                	add	a4,a4,a3
    6b80:	86be                	mv	a3,a5
    6b82:	00871793          	slli	a5,a4,0x8
    6b86:	0407d863          	bgez	a5,6bd6 <__divdf3+0x548>
    6b8a:	4605                	li	a2,1
    6b8c:	4781                	li	a5,0
    6b8e:	4701                	li	a4,0
    6b90:	b6f1                	j	675c <__divdf3+0xce>
    6b92:	8736                	mv	a4,a3
    6b94:	bb7d                	j	6952 <__divdf3+0x2c4>
    6b96:	87b2                	mv	a5,a2
    6b98:	b379                	j	6926 <__divdf3+0x298>
    6b9a:	46fd                	li	a3,31
    6b9c:	faf6d7e3          	bge	a3,a5,6b4a <__divdf3+0x4bc>
    6ba0:	5605                	li	a2,-31
    6ba2:	8e09                	sub	a2,a2,a0
    6ba4:	02000693          	li	a3,32
    6ba8:	00c75633          	srl	a2,a4,a2
    6bac:	00d78863          	beq	a5,a3,6bbc <__divdf3+0x52e>
    6bb0:	43e48793          	addi	a5,s1,1086
    6bb4:	00f717b3          	sll	a5,a4,a5
    6bb8:	00f8e8b3          	or	a7,a7,a5
    6bbc:	011036b3          	snez	a3,a7
    6bc0:	8ed1                	or	a3,a3,a2
    6bc2:	0076f613          	andi	a2,a3,7
    6bc6:	4781                	li	a5,0
    6bc8:	ce01                	beqz	a2,6be0 <__divdf3+0x552>
    6bca:	00f6f793          	andi	a5,a3,15
    6bce:	4611                	li	a2,4
    6bd0:	4701                	li	a4,0
    6bd2:	fac792e3          	bne	a5,a2,6b76 <__divdf3+0x4e8>
    6bd6:	00971793          	slli	a5,a4,0x9
    6bda:	01d71613          	slli	a2,a4,0x1d
    6bde:	83b1                	srli	a5,a5,0xc
    6be0:	0036d713          	srli	a4,a3,0x3
    6be4:	8f51                	or	a4,a4,a2
    6be6:	4601                	li	a2,0
    6be8:	be95                	j	675c <__divdf3+0xce>
    6bea:	f0cb70e3          	bgeu	s6,a2,6aea <__divdf3+0x45c>
    6bee:	9b72                	add	s6,s6,t3
    6bf0:	01cb3533          	sltu	a0,s6,t3
    6bf4:	951a                	add	a0,a0,t1
    6bf6:	1779                	addi	a4,a4,-2
    6bf8:	96aa                	add	a3,a3,a0
    6bfa:	bb4d                	j	69ac <__divdf3+0x31e>
    6bfc:	88ae                	mv	a7,a1
    6bfe:	bbc5                	j	69ee <__divdf3+0x360>
    6c00:	86ae                	mv	a3,a1
    6c02:	bd31                	j	6a1e <__divdf3+0x390>
    6c04:	001e1793          	slli	a5,t3,0x1
    6c08:	01c7be33          	sltu	t3,a5,t3
    6c0c:	9372                	add	t1,t1,t3
    6c0e:	961a                	add	a2,a2,t1
    6c10:	18f9                	addi	a7,a7,-2
    6c12:	8e3e                	mv	t3,a5
    6c14:	e7f615e3          	bne	a2,t6,6a7e <__divdf3+0x3f0>
    6c18:	c6de07e3          	beq	t3,a3,6886 <__divdf3+0x1f8>
    6c1c:	0018e893          	ori	a7,a7,1
    6c20:	b19d                	j	6886 <__divdf3+0x1f8>
    6c22:	88be                	mv	a7,a5
    6c24:	fff60ae3          	beq	a2,t6,6c18 <__divdf3+0x58a>
    6c28:	bd99                	j	6a7e <__divdf3+0x3f0>
    6c2a:	8836                	mv	a6,a3
    6c2c:	7ff00613          	li	a2,2047
    6c30:	4781                	li	a5,0
    6c32:	4701                	li	a4,0
    6c34:	b625                	j	675c <__divdf3+0xce>
    6c36:	fcde67e3          	bltu	t3,a3,6c04 <__divdf3+0x576>
    6c3a:	88be                	mv	a7,a5
    6c3c:	fede10e3          	bne	t3,a3,6c1c <__divdf3+0x58e>
    6c40:	b199                	j	6886 <__divdf3+0x1f8>

00006c42 <__eqdf2>:
    6c42:	0145d713          	srli	a4,a1,0x14
    6c46:	001007b7          	lui	a5,0x100
    6c4a:	17fd                	addi	a5,a5,-1
    6c4c:	0146d813          	srli	a6,a3,0x14
    6c50:	7ff77713          	andi	a4,a4,2047
    6c54:	7ff00893          	li	a7,2047
    6c58:	00b7fe33          	and	t3,a5,a1
    6c5c:	8eaa                	mv	t4,a0
    6c5e:	8ff5                	and	a5,a5,a3
    6c60:	81fd                	srli	a1,a1,0x1f
    6c62:	8f32                	mv	t5,a2
    6c64:	7ff87813          	andi	a6,a6,2047
    6c68:	82fd                	srli	a3,a3,0x1f
    6c6a:	01170b63          	beq	a4,a7,6c80 <__eqdf2+0x3e>
    6c6e:	4305                	li	t1,1
    6c70:	01180663          	beq	a6,a7,6c7c <__eqdf2+0x3a>
    6c74:	01071463          	bne	a4,a6,6c7c <__eqdf2+0x3a>
    6c78:	00fe0d63          	beq	t3,a5,6c92 <__eqdf2+0x50>
    6c7c:	851a                	mv	a0,t1
    6c7e:	8082                	ret
    6c80:	00ae68b3          	or	a7,t3,a0
    6c84:	4305                	li	t1,1
    6c86:	fe089be3          	bnez	a7,6c7c <__eqdf2+0x3a>
    6c8a:	fee819e3          	bne	a6,a4,6c7c <__eqdf2+0x3a>
    6c8e:	8fd1                	or	a5,a5,a2
    6c90:	f7f5                	bnez	a5,6c7c <__eqdf2+0x3a>
    6c92:	4305                	li	t1,1
    6c94:	ffee94e3          	bne	t4,t5,6c7c <__eqdf2+0x3a>
    6c98:	4301                	li	t1,0
    6c9a:	fed581e3          	beq	a1,a3,6c7c <__eqdf2+0x3a>
    6c9e:	4305                	li	t1,1
    6ca0:	ff71                	bnez	a4,6c7c <__eqdf2+0x3a>
    6ca2:	00ae6533          	or	a0,t3,a0
    6ca6:	00a03333          	snez	t1,a0
    6caa:	bfc9                	j	6c7c <__eqdf2+0x3a>

00006cac <__gedf2>:
    6cac:	0145d713          	srli	a4,a1,0x14
    6cb0:	001007b7          	lui	a5,0x100
    6cb4:	17fd                	addi	a5,a5,-1
    6cb6:	0146d813          	srli	a6,a3,0x14
    6cba:	7ff77713          	andi	a4,a4,2047
    6cbe:	7ff00893          	li	a7,2047
    6cc2:	00b7f333          	and	t1,a5,a1
    6cc6:	8e2a                	mv	t3,a0
    6cc8:	8ff5                	and	a5,a5,a3
    6cca:	81fd                	srli	a1,a1,0x1f
    6ccc:	8eb2                	mv	t4,a2
    6cce:	7ff87813          	andi	a6,a6,2047
    6cd2:	82fd                	srli	a3,a3,0x1f
    6cd4:	03170863          	beq	a4,a7,6d04 <__gedf2+0x58>
    6cd8:	03180063          	beq	a6,a7,6cf8 <__gedf2+0x4c>
    6cdc:	eb0d                	bnez	a4,6d0e <__gedf2+0x62>
    6cde:	00a368b3          	or	a7,t1,a0
    6ce2:	00081463          	bnez	a6,6cea <__gedf2+0x3e>
    6ce6:	8e5d                	or	a2,a2,a5
    6ce8:	ca29                	beqz	a2,6d3a <__gedf2+0x8e>
    6cea:	04088563          	beqz	a7,6d34 <__gedf2+0x88>
    6cee:	02d58863          	beq	a1,a3,6d1e <__gedf2+0x72>
    6cf2:	4505                	li	a0,1
    6cf4:	ed95                	bnez	a1,6d30 <__gedf2+0x84>
    6cf6:	8082                	ret
    6cf8:	00c7e8b3          	or	a7,a5,a2
    6cfc:	fe0880e3          	beqz	a7,6cdc <__gedf2+0x30>
    6d00:	5579                	li	a0,-2
    6d02:	8082                	ret
    6d04:	00a36533          	or	a0,t1,a0
    6d08:	fd65                	bnez	a0,6d00 <__gedf2+0x54>
    6d0a:	02e80c63          	beq	a6,a4,6d42 <__gedf2+0x96>
    6d0e:	00081463          	bnez	a6,6d16 <__gedf2+0x6a>
    6d12:	8e5d                	or	a2,a2,a5
    6d14:	de79                	beqz	a2,6cf2 <__gedf2+0x46>
    6d16:	fcd59ee3          	bne	a1,a3,6cf2 <__gedf2+0x46>
    6d1a:	fce84ce3          	blt	a6,a4,6cf2 <__gedf2+0x46>
    6d1e:	01074863          	blt	a4,a6,6d2e <__gedf2+0x82>
    6d22:	fc67e8e3          	bltu	a5,t1,6cf2 <__gedf2+0x46>
    6d26:	02f30363          	beq	t1,a5,6d4c <__gedf2+0xa0>
    6d2a:	00f37f63          	bgeu	t1,a5,6d48 <__gedf2+0x9c>
    6d2e:	e581                	bnez	a1,6d36 <__gedf2+0x8a>
    6d30:	557d                	li	a0,-1
    6d32:	8082                	ret
    6d34:	def5                	beqz	a3,6d30 <__gedf2+0x84>
    6d36:	4505                	li	a0,1
    6d38:	8082                	ret
    6d3a:	4501                	li	a0,0
    6d3c:	fa089be3          	bnez	a7,6cf2 <__gedf2+0x46>
    6d40:	8082                	ret
    6d42:	8e5d                	or	a2,a2,a5
    6d44:	da69                	beqz	a2,6d16 <__gedf2+0x6a>
    6d46:	bf6d                	j	6d00 <__gedf2+0x54>
    6d48:	4501                	li	a0,0
    6d4a:	8082                	ret
    6d4c:	fbcee3e3          	bltu	t4,t3,6cf2 <__gedf2+0x46>
    6d50:	4501                	li	a0,0
    6d52:	fbde72e3          	bgeu	t3,t4,6cf6 <__gedf2+0x4a>
    6d56:	f1e5                	bnez	a1,6d36 <__gedf2+0x8a>
    6d58:	bfe1                	j	6d30 <__gedf2+0x84>

00006d5a <__muldf3>:
    6d5a:	7139                	addi	sp,sp,-64
    6d5c:	d84a                	sw	s2,48(sp)
    6d5e:	0145d913          	srli	s2,a1,0x14
    6d62:	d64e                	sw	s3,44(sp)
    6d64:	d452                	sw	s4,40(sp)
    6d66:	d256                	sw	s5,36(sp)
    6d68:	00c59993          	slli	s3,a1,0xc
    6d6c:	de06                	sw	ra,60(sp)
    6d6e:	dc22                	sw	s0,56(sp)
    6d70:	da26                	sw	s1,52(sp)
    6d72:	d05a                	sw	s6,32(sp)
    6d74:	ce5e                	sw	s7,28(sp)
    6d76:	7ff97913          	andi	s2,s2,2047
    6d7a:	8a2a                	mv	s4,a0
    6d7c:	00c9d993          	srli	s3,s3,0xc
    6d80:	01f5da93          	srli	s5,a1,0x1f
    6d84:	0e090d63          	beqz	s2,6e7e <__muldf3+0x124>
    6d88:	7ff00793          	li	a5,2047
    6d8c:	18f90663          	beq	s2,a5,6f18 <__muldf3+0x1be>
    6d90:	01d55413          	srli	s0,a0,0x1d
    6d94:	098e                	slli	s3,s3,0x3
    6d96:	013469b3          	or	s3,s0,s3
    6d9a:	00800437          	lui	s0,0x800
    6d9e:	0089e433          	or	s0,s3,s0
    6da2:	00351493          	slli	s1,a0,0x3
    6da6:	c0190913          	addi	s2,s2,-1023
    6daa:	4981                	li	s3,0
    6dac:	4b81                	li	s7,0
    6dae:	0146d713          	srli	a4,a3,0x14
    6db2:	00c69a13          	slli	s4,a3,0xc
    6db6:	7ff77713          	andi	a4,a4,2047
    6dba:	85b2                	mv	a1,a2
    6dbc:	00ca5a13          	srli	s4,s4,0xc
    6dc0:	01f6db13          	srli	s6,a3,0x1f
    6dc4:	10070b63          	beqz	a4,6eda <__muldf3+0x180>
    6dc8:	7ff00793          	li	a5,2047
    6dcc:	04f70363          	beq	a4,a5,6e12 <__muldf3+0xb8>
    6dd0:	01d65793          	srli	a5,a2,0x1d
    6dd4:	0a0e                	slli	s4,s4,0x3
    6dd6:	0147ea33          	or	s4,a5,s4
    6dda:	c0170713          	addi	a4,a4,-1023
    6dde:	008007b7          	lui	a5,0x800
    6de2:	00fa67b3          	or	a5,s4,a5
    6de6:	00361593          	slli	a1,a2,0x3
    6dea:	993a                	add	s2,s2,a4
    6dec:	4881                	li	a7,0
    6dee:	016ac733          	xor	a4,s5,s6
    6df2:	46bd                	li	a3,15
    6df4:	853a                	mv	a0,a4
    6df6:	00190813          	addi	a6,s2,1
    6dfa:	1736e863          	bltu	a3,s3,6f6a <__muldf3+0x210>
    6dfe:	00005617          	auipc	a2,0x5
    6e02:	c3260613          	addi	a2,a2,-974 # ba30 <PortGroup_3+0x390>
    6e06:	098a                	slli	s3,s3,0x2
    6e08:	99b2                	add	s3,s3,a2
    6e0a:	0009a683          	lw	a3,0(s3)
    6e0e:	96b2                	add	a3,a3,a2
    6e10:	8682                	jr	a3
    6e12:	00ca67b3          	or	a5,s4,a2
    6e16:	7ff90913          	addi	s2,s2,2047
    6e1a:	12079963          	bnez	a5,6f4c <__muldf3+0x1f2>
    6e1e:	0029e993          	ori	s3,s3,2
    6e22:	4581                	li	a1,0
    6e24:	4889                	li	a7,2
    6e26:	b7e1                	j	6dee <__muldf3+0x94>
    6e28:	4701                	li	a4,0
    6e2a:	7ff00793          	li	a5,2047
    6e2e:	00080437          	lui	s0,0x80
    6e32:	4481                	li	s1,0
    6e34:	0432                	slli	s0,s0,0xc
    6e36:	07d2                	slli	a5,a5,0x14
    6e38:	8031                	srli	s0,s0,0xc
    6e3a:	077e                	slli	a4,a4,0x1f
    6e3c:	8c5d                	or	s0,s0,a5
    6e3e:	8c59                	or	s0,s0,a4
    6e40:	85a2                	mv	a1,s0
    6e42:	50f2                	lw	ra,60(sp)
    6e44:	5462                	lw	s0,56(sp)
    6e46:	8526                	mv	a0,s1
    6e48:	5942                	lw	s2,48(sp)
    6e4a:	54d2                	lw	s1,52(sp)
    6e4c:	59b2                	lw	s3,44(sp)
    6e4e:	5a22                	lw	s4,40(sp)
    6e50:	5a92                	lw	s5,36(sp)
    6e52:	5b02                	lw	s6,32(sp)
    6e54:	4bf2                	lw	s7,28(sp)
    6e56:	6121                	addi	sp,sp,64
    6e58:	8082                	ret
    6e5a:	855a                	mv	a0,s6
    6e5c:	843e                	mv	s0,a5
    6e5e:	84ae                	mv	s1,a1
    6e60:	8bc6                	mv	s7,a7
    6e62:	4789                	li	a5,2
    6e64:	0efb8d63          	beq	s7,a5,6f5e <__muldf3+0x204>
    6e68:	478d                	li	a5,3
    6e6a:	fafb8fe3          	beq	s7,a5,6e28 <__muldf3+0xce>
    6e6e:	4785                	li	a5,1
    6e70:	872a                	mv	a4,a0
    6e72:	38fb9e63          	bne	s7,a5,720e <__muldf3+0x4b4>
    6e76:	4781                	li	a5,0
    6e78:	4401                	li	s0,0
    6e7a:	4481                	li	s1,0
    6e7c:	bf65                	j	6e34 <__muldf3+0xda>
    6e7e:	00a9e433          	or	s0,s3,a0
    6e82:	c061                	beqz	s0,6f42 <__muldf3+0x1e8>
    6e84:	c636                	sw	a3,12(sp)
    6e86:	c432                	sw	a2,8(sp)
    6e88:	2a098c63          	beqz	s3,7140 <__muldf3+0x3e6>
    6e8c:	854e                	mv	a0,s3
    6e8e:	132010ef          	jal	ra,7fc0 <__clzsi2>
    6e92:	4622                	lw	a2,8(sp)
    6e94:	46b2                	lw	a3,12(sp)
    6e96:	87aa                	mv	a5,a0
    6e98:	ff550713          	addi	a4,a0,-11
    6e9c:	4475                	li	s0,29
    6e9e:	ff878493          	addi	s1,a5,-8 # 7ffff8 <_data_lma+0x7f4174>
    6ea2:	8c19                	sub	s0,s0,a4
    6ea4:	009999b3          	sll	s3,s3,s1
    6ea8:	008a5433          	srl	s0,s4,s0
    6eac:	01346433          	or	s0,s0,s3
    6eb0:	009a14b3          	sll	s1,s4,s1
    6eb4:	0146d713          	srli	a4,a3,0x14
    6eb8:	c0d00913          	li	s2,-1011
    6ebc:	00c69a13          	slli	s4,a3,0xc
    6ec0:	7ff77713          	andi	a4,a4,2047
    6ec4:	40f90933          	sub	s2,s2,a5
    6ec8:	4981                	li	s3,0
    6eca:	4b81                	li	s7,0
    6ecc:	85b2                	mv	a1,a2
    6ece:	00ca5a13          	srli	s4,s4,0xc
    6ed2:	01f6db13          	srli	s6,a3,0x1f
    6ed6:	ee0719e3          	bnez	a4,6dc8 <__muldf3+0x6e>
    6eda:	00ca67b3          	or	a5,s4,a2
    6ede:	c7b1                	beqz	a5,6f2a <__muldf3+0x1d0>
    6ee0:	220a0f63          	beqz	s4,711e <__muldf3+0x3c4>
    6ee4:	8552                	mv	a0,s4
    6ee6:	c432                	sw	a2,8(sp)
    6ee8:	0d8010ef          	jal	ra,7fc0 <__clzsi2>
    6eec:	4622                	lw	a2,8(sp)
    6eee:	872a                	mv	a4,a0
    6ef0:	ff550693          	addi	a3,a0,-11
    6ef4:	47f5                	li	a5,29
    6ef6:	ff870593          	addi	a1,a4,-8
    6efa:	8f95                	sub	a5,a5,a3
    6efc:	00ba1a33          	sll	s4,s4,a1
    6f00:	00f657b3          	srl	a5,a2,a5
    6f04:	0147e7b3          	or	a5,a5,s4
    6f08:	00b615b3          	sll	a1,a2,a1
    6f0c:	40e90933          	sub	s2,s2,a4
    6f10:	c0d90913          	addi	s2,s2,-1011
    6f14:	4881                	li	a7,0
    6f16:	bde1                	j	6dee <__muldf3+0x94>
    6f18:	00a9e433          	or	s0,s3,a0
    6f1c:	ec01                	bnez	s0,6f34 <__muldf3+0x1da>
    6f1e:	49a1                	li	s3,8
    6f20:	4481                	li	s1,0
    6f22:	7ff00913          	li	s2,2047
    6f26:	4b89                	li	s7,2
    6f28:	b559                	j	6dae <__muldf3+0x54>
    6f2a:	0019e993          	ori	s3,s3,1
    6f2e:	4581                	li	a1,0
    6f30:	4885                	li	a7,1
    6f32:	bd75                	j	6dee <__muldf3+0x94>
    6f34:	844e                	mv	s0,s3
    6f36:	84aa                	mv	s1,a0
    6f38:	49b1                	li	s3,12
    6f3a:	7ff00913          	li	s2,2047
    6f3e:	4b8d                	li	s7,3
    6f40:	b5bd                	j	6dae <__muldf3+0x54>
    6f42:	4991                	li	s3,4
    6f44:	4481                	li	s1,0
    6f46:	4901                	li	s2,0
    6f48:	4b85                	li	s7,1
    6f4a:	b595                	j	6dae <__muldf3+0x54>
    6f4c:	0039e993          	ori	s3,s3,3
    6f50:	87d2                	mv	a5,s4
    6f52:	488d                	li	a7,3
    6f54:	bd69                	j	6dee <__muldf3+0x94>
    6f56:	4789                	li	a5,2
    6f58:	8556                	mv	a0,s5
    6f5a:	f0fb97e3          	bne	s7,a5,6e68 <__muldf3+0x10e>
    6f5e:	872a                	mv	a4,a0
    6f60:	7ff00793          	li	a5,2047
    6f64:	4401                	li	s0,0
    6f66:	4481                	li	s1,0
    6f68:	b5f1                	j	6e34 <__muldf3+0xda>
    6f6a:	6ec1                	lui	t4,0x10
    6f6c:	fffe8613          	addi	a2,t4,-1 # ffff <_data_lma+0x417b>
    6f70:	0104d693          	srli	a3,s1,0x10
    6f74:	0105de13          	srli	t3,a1,0x10
    6f78:	8cf1                	and	s1,s1,a2
    6f7a:	8df1                	and	a1,a1,a2
    6f7c:	02958633          	mul	a2,a1,s1
    6f80:	02b68333          	mul	t1,a3,a1
    6f84:	01065893          	srli	a7,a2,0x10
    6f88:	029e0533          	mul	a0,t3,s1
    6f8c:	951a                	add	a0,a0,t1
    6f8e:	98aa                	add	a7,a7,a0
    6f90:	03c682b3          	mul	t0,a3,t3
    6f94:	0068f363          	bgeu	a7,t1,6f9a <__muldf3+0x240>
    6f98:	92f6                	add	t0,t0,t4
    6f9a:	6fc1                	lui	t6,0x10
    6f9c:	ffff8313          	addi	t1,t6,-1 # ffff <_data_lma+0x417b>
    6fa0:	0067f533          	and	a0,a5,t1
    6fa4:	0107d393          	srli	t2,a5,0x10
    6fa8:	0068f7b3          	and	a5,a7,t1
    6fac:	07c2                	slli	a5,a5,0x10
    6fae:	00667333          	and	t1,a2,t1
    6fb2:	933e                	add	t1,t1,a5
    6fb4:	02950633          	mul	a2,a0,s1
    6fb8:	0108d893          	srli	a7,a7,0x10
    6fbc:	02a687b3          	mul	a5,a3,a0
    6fc0:	01065f13          	srli	t5,a2,0x10
    6fc4:	029384b3          	mul	s1,t2,s1
    6fc8:	94be                	add	s1,s1,a5
    6fca:	94fa                	add	s1,s1,t5
    6fcc:	02768eb3          	mul	t4,a3,t2
    6fd0:	00f4f363          	bgeu	s1,a5,6fd6 <__muldf3+0x27c>
    6fd4:	9efe                	add	t4,t4,t6
    6fd6:	6a41                	lui	s4,0x10
    6fd8:	fffa0793          	addi	a5,s4,-1 # ffff <_data_lma+0x417b>
    6fdc:	01045f93          	srli	t6,s0,0x10
    6fe0:	00f476b3          	and	a3,s0,a5
    6fe4:	00f4f9b3          	and	s3,s1,a5
    6fe8:	8e7d                	and	a2,a2,a5
    6fea:	80c1                	srli	s1,s1,0x10
    6fec:	02d58433          	mul	s0,a1,a3
    6ff0:	09c2                	slli	s3,s3,0x10
    6ff2:	01d48f33          	add	t5,s1,t4
    6ff6:	99b2                	add	s3,s3,a2
    6ff8:	98ce                	add	a7,a7,s3
    6ffa:	02de07b3          	mul	a5,t3,a3
    6ffe:	01045e93          	srli	t4,s0,0x10
    7002:	02bf85b3          	mul	a1,t6,a1
    7006:	97ae                	add	a5,a5,a1
    7008:	9ebe                	add	t4,t4,a5
    700a:	03fe0e33          	mul	t3,t3,t6
    700e:	00bef363          	bgeu	t4,a1,7014 <__muldf3+0x2ba>
    7012:	9e52                	add	t3,t3,s4
    7014:	67c1                	lui	a5,0x10
    7016:	fff78593          	addi	a1,a5,-1 # ffff <_data_lma+0x417b>
    701a:	00bef633          	and	a2,t4,a1
    701e:	8c6d                	and	s0,s0,a1
    7020:	0642                	slli	a2,a2,0x10
    7022:	9622                	add	a2,a2,s0
    7024:	010ede93          	srli	t4,t4,0x10
    7028:	02d505b3          	mul	a1,a0,a3
    702c:	9e76                	add	t3,t3,t4
    702e:	02af8533          	mul	a0,t6,a0
    7032:	0105d413          	srli	s0,a1,0x10
    7036:	02d386b3          	mul	a3,t2,a3
    703a:	96aa                	add	a3,a3,a0
    703c:	96a2                	add	a3,a3,s0
    703e:	03f38fb3          	mul	t6,t2,t6
    7042:	00a6f363          	bgeu	a3,a0,7048 <__muldf3+0x2ee>
    7046:	9fbe                	add	t6,t6,a5
    7048:	6541                	lui	a0,0x10
    704a:	157d                	addi	a0,a0,-1
    704c:	00a6f7b3          	and	a5,a3,a0
    7050:	07c2                	slli	a5,a5,0x10
    7052:	8d6d                	and	a0,a0,a1
    7054:	97aa                	add	a5,a5,a0
    7056:	005885b3          	add	a1,a7,t0
    705a:	0135b9b3          	sltu	s3,a1,s3
    705e:	97fa                	add	a5,a5,t5
    7060:	95b2                	add	a1,a1,a2
    7062:	01378433          	add	s0,a5,s3
    7066:	00c5b633          	sltu	a2,a1,a2
    706a:	01c40eb3          	add	t4,s0,t3
    706e:	00ce8533          	add	a0,t4,a2
    7072:	01343433          	sltu	s0,s0,s3
    7076:	01e7b7b3          	sltu	a5,a5,t5
    707a:	8fc1                	or	a5,a5,s0
    707c:	01cebe33          	sltu	t3,t4,t3
    7080:	0106d413          	srli	s0,a3,0x10
    7084:	00c53633          	sltu	a2,a0,a2
    7088:	943e                	add	s0,s0,a5
    708a:	00ce6633          	or	a2,t3,a2
    708e:	00959493          	slli	s1,a1,0x9
    7092:	9432                	add	s0,s0,a2
    7094:	947e                	add	s0,s0,t6
    7096:	0064e4b3          	or	s1,s1,t1
    709a:	0426                	slli	s0,s0,0x9
    709c:	01755693          	srli	a3,a0,0x17
    70a0:	009034b3          	snez	s1,s1
    70a4:	81dd                	srli	a1,a1,0x17
    70a6:	00951793          	slli	a5,a0,0x9
    70aa:	8ccd                	or	s1,s1,a1
    70ac:	8c55                	or	s0,s0,a3
    70ae:	8cdd                	or	s1,s1,a5
    70b0:	00741793          	slli	a5,s0,0x7
    70b4:	0007db63          	bgez	a5,70ca <__muldf3+0x370>
    70b8:	0014d793          	srli	a5,s1,0x1
    70bc:	8885                	andi	s1,s1,1
    70be:	01f41693          	slli	a3,s0,0x1f
    70c2:	8cdd                	or	s1,s1,a5
    70c4:	8cd5                	or	s1,s1,a3
    70c6:	8005                	srli	s0,s0,0x1
    70c8:	8942                	mv	s2,a6
    70ca:	3ff90793          	addi	a5,s2,1023
    70ce:	08f05963          	blez	a5,7160 <__muldf3+0x406>
    70d2:	0074f693          	andi	a3,s1,7
    70d6:	ce81                	beqz	a3,70ee <__muldf3+0x394>
    70d8:	00f4f693          	andi	a3,s1,15
    70dc:	4611                	li	a2,4
    70de:	00c68863          	beq	a3,a2,70ee <__muldf3+0x394>
    70e2:	00448693          	addi	a3,s1,4
    70e6:	0096b4b3          	sltu	s1,a3,s1
    70ea:	9426                	add	s0,s0,s1
    70ec:	84b6                	mv	s1,a3
    70ee:	00741693          	slli	a3,s0,0x7
    70f2:	0006d863          	bgez	a3,7102 <__muldf3+0x3a8>
    70f6:	ff0007b7          	lui	a5,0xff000
    70fa:	17fd                	addi	a5,a5,-1
    70fc:	8c7d                	and	s0,s0,a5
    70fe:	40090793          	addi	a5,s2,1024
    7102:	7fe00693          	li	a3,2046
    7106:	0ef6cf63          	blt	a3,a5,7204 <__muldf3+0x4aa>
    710a:	0034d693          	srli	a3,s1,0x3
    710e:	01d41493          	slli	s1,s0,0x1d
    7112:	0426                	slli	s0,s0,0x9
    7114:	8cd5                	or	s1,s1,a3
    7116:	8031                	srli	s0,s0,0xc
    7118:	7ff7f793          	andi	a5,a5,2047
    711c:	bb21                	j	6e34 <__muldf3+0xda>
    711e:	8532                	mv	a0,a2
    7120:	c432                	sw	a2,8(sp)
    7122:	69f000ef          	jal	ra,7fc0 <__clzsi2>
    7126:	01550693          	addi	a3,a0,21 # 10015 <_data_lma+0x4191>
    712a:	47f1                	li	a5,28
    712c:	02050713          	addi	a4,a0,32
    7130:	4622                	lw	a2,8(sp)
    7132:	dcd7d1e3          	bge	a5,a3,6ef4 <__muldf3+0x19a>
    7136:	1561                	addi	a0,a0,-8
    7138:	00a617b3          	sll	a5,a2,a0
    713c:	4581                	li	a1,0
    713e:	b3f9                	j	6f0c <__muldf3+0x1b2>
    7140:	681000ef          	jal	ra,7fc0 <__clzsi2>
    7144:	01550713          	addi	a4,a0,21
    7148:	45f1                	li	a1,28
    714a:	02050793          	addi	a5,a0,32
    714e:	4622                	lw	a2,8(sp)
    7150:	46b2                	lw	a3,12(sp)
    7152:	d4e5d5e3          	bge	a1,a4,6e9c <__muldf3+0x142>
    7156:	1561                	addi	a0,a0,-8
    7158:	00aa1433          	sll	s0,s4,a0
    715c:	4481                	li	s1,0
    715e:	bb99                	j	6eb4 <__muldf3+0x15a>
    7160:	4685                	li	a3,1
    7162:	8e9d                	sub	a3,a3,a5
    7164:	e7b1                	bnez	a5,71b0 <__muldf3+0x456>
    7166:	41e90913          	addi	s2,s2,1054
    716a:	012497b3          	sll	a5,s1,s2
    716e:	00d4d4b3          	srl	s1,s1,a3
    7172:	01241933          	sll	s2,s0,s2
    7176:	00f037b3          	snez	a5,a5
    717a:	009964b3          	or	s1,s2,s1
    717e:	8cdd                	or	s1,s1,a5
    7180:	0074f793          	andi	a5,s1,7
    7184:	00d456b3          	srl	a3,s0,a3
    7188:	cf81                	beqz	a5,71a0 <__muldf3+0x446>
    718a:	00f4f793          	andi	a5,s1,15
    718e:	4611                	li	a2,4
    7190:	00c78863          	beq	a5,a2,71a0 <__muldf3+0x446>
    7194:	00448793          	addi	a5,s1,4
    7198:	0097b4b3          	sltu	s1,a5,s1
    719c:	96a6                	add	a3,a3,s1
    719e:	84be                	mv	s1,a5
    71a0:	00869793          	slli	a5,a3,0x8
    71a4:	0407d863          	bgez	a5,71f4 <__muldf3+0x49a>
    71a8:	4785                	li	a5,1
    71aa:	4401                	li	s0,0
    71ac:	4481                	li	s1,0
    71ae:	b159                	j	6e34 <__muldf3+0xda>
    71b0:	03800613          	li	a2,56
    71b4:	ccd641e3          	blt	a2,a3,6e76 <__muldf3+0x11c>
    71b8:	467d                	li	a2,31
    71ba:	fad656e3          	bge	a2,a3,7166 <__muldf3+0x40c>
    71be:	5605                	li	a2,-31
    71c0:	40f607b3          	sub	a5,a2,a5
    71c4:	02000593          	li	a1,32
    71c8:	00f45633          	srl	a2,s0,a5
    71cc:	00b68763          	beq	a3,a1,71da <__muldf3+0x480>
    71d0:	43e90913          	addi	s2,s2,1086
    71d4:	012417b3          	sll	a5,s0,s2
    71d8:	8cdd                	or	s1,s1,a5
    71da:	009034b3          	snez	s1,s1
    71de:	8cd1                	or	s1,s1,a2
    71e0:	0074f693          	andi	a3,s1,7
    71e4:	4401                	li	s0,0
    71e6:	ca99                	beqz	a3,71fc <__muldf3+0x4a2>
    71e8:	00f4f793          	andi	a5,s1,15
    71ec:	4611                	li	a2,4
    71ee:	4681                	li	a3,0
    71f0:	fac792e3          	bne	a5,a2,7194 <__muldf3+0x43a>
    71f4:	00969413          	slli	s0,a3,0x9
    71f8:	8031                	srli	s0,s0,0xc
    71fa:	06f6                	slli	a3,a3,0x1d
    71fc:	808d                	srli	s1,s1,0x3
    71fe:	8cd5                	or	s1,s1,a3
    7200:	4781                	li	a5,0
    7202:	b90d                	j	6e34 <__muldf3+0xda>
    7204:	7ff00793          	li	a5,2047
    7208:	4401                	li	s0,0
    720a:	4481                	li	s1,0
    720c:	b125                	j	6e34 <__muldf3+0xda>
    720e:	8942                	mv	s2,a6
    7210:	bd6d                	j	70ca <__muldf3+0x370>

00007212 <__subdf3>:
    7212:	00100737          	lui	a4,0x100
    7216:	177d                	addi	a4,a4,-1
    7218:	1101                	addi	sp,sp,-32
    721a:	00b77333          	and	t1,a4,a1
    721e:	0146d893          	srli	a7,a3,0x14
    7222:	8f75                	and	a4,a4,a3
    7224:	01d65e93          	srli	t4,a2,0x1d
    7228:	cc22                	sw	s0,24(sp)
    722a:	ca26                	sw	s1,20(sp)
    722c:	030e                	slli	t1,t1,0x3
    722e:	0145d493          	srli	s1,a1,0x14
    7232:	01d55793          	srli	a5,a0,0x1d
    7236:	070e                	slli	a4,a4,0x3
    7238:	ce06                	sw	ra,28(sp)
    723a:	c84a                	sw	s2,16(sp)
    723c:	c64e                	sw	s3,12(sp)
    723e:	7ff8f893          	andi	a7,a7,2047
    7242:	7ff00e13          	li	t3,2047
    7246:	00eee733          	or	a4,t4,a4
    724a:	7ff4f493          	andi	s1,s1,2047
    724e:	01f5d413          	srli	s0,a1,0x1f
    7252:	0067e333          	or	t1,a5,t1
    7256:	00351f13          	slli	t5,a0,0x3
    725a:	82fd                	srli	a3,a3,0x1f
    725c:	00361e93          	slli	t4,a2,0x3
    7260:	19c88063          	beq	a7,t3,73e0 <__subdf3+0x1ce>
    7264:	0016c693          	xori	a3,a3,1
    7268:	411485b3          	sub	a1,s1,a7
    726c:	12d40563          	beq	s0,a3,7396 <__subdf3+0x184>
    7270:	18b05163          	blez	a1,73f2 <__subdf3+0x1e0>
    7274:	1a088b63          	beqz	a7,742a <__subdf3+0x218>
    7278:	008007b7          	lui	a5,0x800
    727c:	8f5d                	or	a4,a4,a5
    727e:	59c48163          	beq	s1,t3,7800 <__subdf3+0x5ee>
    7282:	03800793          	li	a5,56
    7286:	34b7c463          	blt	a5,a1,75ce <__subdf3+0x3bc>
    728a:	47fd                	li	a5,31
    728c:	48b7c563          	blt	a5,a1,7716 <__subdf3+0x504>
    7290:	02000793          	li	a5,32
    7294:	8f8d                	sub	a5,a5,a1
    7296:	00bed9b3          	srl	s3,t4,a1
    729a:	00f71833          	sll	a6,a4,a5
    729e:	00fe9eb3          	sll	t4,t4,a5
    72a2:	01386833          	or	a6,a6,s3
    72a6:	00b75733          	srl	a4,a4,a1
    72aa:	01d039b3          	snez	s3,t4
    72ae:	01386833          	or	a6,a6,s3
    72b2:	40e30333          	sub	t1,t1,a4
    72b6:	410f09b3          	sub	s3,t5,a6
    72ba:	013f37b3          	sltu	a5,t5,s3
    72be:	40f30633          	sub	a2,t1,a5
    72c2:	00861793          	slli	a5,a2,0x8
    72c6:	2407d363          	bgez	a5,750c <__subdf3+0x2fa>
    72ca:	00800937          	lui	s2,0x800
    72ce:	197d                	addi	s2,s2,-1
    72d0:	01267933          	and	s2,a2,s2
    72d4:	2c090f63          	beqz	s2,75b2 <__subdf3+0x3a0>
    72d8:	854a                	mv	a0,s2
    72da:	4e7000ef          	jal	ra,7fc0 <__clzsi2>
    72de:	ff850713          	addi	a4,a0,-8
    72e2:	02000793          	li	a5,32
    72e6:	8f99                	sub	a5,a5,a4
    72e8:	00f9d7b3          	srl	a5,s3,a5
    72ec:	00e91633          	sll	a2,s2,a4
    72f0:	8fd1                	or	a5,a5,a2
    72f2:	00e999b3          	sll	s3,s3,a4
    72f6:	2a974463          	blt	a4,s1,759e <__subdf3+0x38c>
    72fa:	8f05                	sub	a4,a4,s1
    72fc:	00170613          	addi	a2,a4,1 # 100001 <_data_lma+0xf417d>
    7300:	46fd                	li	a3,31
    7302:	3ac6c563          	blt	a3,a2,76ac <__subdf3+0x49a>
    7306:	02000713          	li	a4,32
    730a:	8f11                	sub	a4,a4,a2
    730c:	00c9d6b3          	srl	a3,s3,a2
    7310:	00e99833          	sll	a6,s3,a4
    7314:	00e79733          	sll	a4,a5,a4
    7318:	8f55                	or	a4,a4,a3
    731a:	01003833          	snez	a6,a6
    731e:	010769b3          	or	s3,a4,a6
    7322:	00c7d633          	srl	a2,a5,a2
    7326:	4481                	li	s1,0
    7328:	0079f793          	andi	a5,s3,7
    732c:	cf81                	beqz	a5,7344 <__subdf3+0x132>
    732e:	00f9f693          	andi	a3,s3,15
    7332:	4791                	li	a5,4
    7334:	00f68863          	beq	a3,a5,7344 <__subdf3+0x132>
    7338:	00498693          	addi	a3,s3,4
    733c:	0136b833          	sltu	a6,a3,s3
    7340:	9642                	add	a2,a2,a6
    7342:	89b6                	mv	s3,a3
    7344:	00861793          	slli	a5,a2,0x8
    7348:	1c07d663          	bgez	a5,7514 <__subdf3+0x302>
    734c:	00148713          	addi	a4,s1,1
    7350:	7ff00793          	li	a5,2047
    7354:	8805                	andi	s0,s0,1
    7356:	20f70663          	beq	a4,a5,7562 <__subdf3+0x350>
    735a:	ff8007b7          	lui	a5,0xff800
    735e:	17fd                	addi	a5,a5,-1
    7360:	8ff1                	and	a5,a5,a2
    7362:	01d79813          	slli	a6,a5,0x1d
    7366:	0039d993          	srli	s3,s3,0x3
    736a:	07a6                	slli	a5,a5,0x9
    736c:	01386833          	or	a6,a6,s3
    7370:	83b1                	srli	a5,a5,0xc
    7372:	7ff77713          	andi	a4,a4,2047
    7376:	00c79693          	slli	a3,a5,0xc
    737a:	0752                	slli	a4,a4,0x14
    737c:	82b1                	srli	a3,a3,0xc
    737e:	047e                	slli	s0,s0,0x1f
    7380:	8ed9                	or	a3,a3,a4
    7382:	8ec1                	or	a3,a3,s0
    7384:	40f2                	lw	ra,28(sp)
    7386:	4462                	lw	s0,24(sp)
    7388:	44d2                	lw	s1,20(sp)
    738a:	4942                	lw	s2,16(sp)
    738c:	49b2                	lw	s3,12(sp)
    738e:	8542                	mv	a0,a6
    7390:	85b6                	mv	a1,a3
    7392:	6105                	addi	sp,sp,32
    7394:	8082                	ret
    7396:	0ab05663          	blez	a1,7442 <__subdf3+0x230>
    739a:	12088a63          	beqz	a7,74ce <__subdf3+0x2bc>
    739e:	008007b7          	lui	a5,0x800
    73a2:	8f5d                	or	a4,a4,a5
    73a4:	2dc48763          	beq	s1,t3,7672 <__subdf3+0x460>
    73a8:	03800793          	li	a5,56
    73ac:	18b7c763          	blt	a5,a1,753a <__subdf3+0x328>
    73b0:	47fd                	li	a5,31
    73b2:	3cb7d263          	bge	a5,a1,7776 <__subdf3+0x564>
    73b6:	fe058813          	addi	a6,a1,-32 # ffe0 <_data_lma+0x415c>
    73ba:	02000793          	li	a5,32
    73be:	010759b3          	srl	s3,a4,a6
    73c2:	00f58a63          	beq	a1,a5,73d6 <__subdf3+0x1c4>
    73c6:	04000793          	li	a5,64
    73ca:	40b785b3          	sub	a1,a5,a1
    73ce:	00b71733          	sll	a4,a4,a1
    73d2:	00eeeeb3          	or	t4,t4,a4
    73d6:	01d03833          	snez	a6,t4
    73da:	01386833          	or	a6,a6,s3
    73de:	a295                	j	7542 <__subdf3+0x330>
    73e0:	01d767b3          	or	a5,a4,t4
    73e4:	80148593          	addi	a1,s1,-2047
    73e8:	e399                	bnez	a5,73ee <__subdf3+0x1dc>
    73ea:	0016c693          	xori	a3,a3,1
    73ee:	04d40a63          	beq	s0,a3,7442 <__subdf3+0x230>
    73f2:	e1d1                	bnez	a1,7476 <__subdf3+0x264>
    73f4:	00148793          	addi	a5,s1,1
    73f8:	7fe7f793          	andi	a5,a5,2046
    73fc:	1e079963          	bnez	a5,75ee <__subdf3+0x3dc>
    7400:	01e367b3          	or	a5,t1,t5
    7404:	01d76833          	or	a6,a4,t4
    7408:	16049263          	bnez	s1,756c <__subdf3+0x35a>
    740c:	3c078263          	beqz	a5,77d0 <__subdf3+0x5be>
    7410:	42081663          	bnez	a6,783c <__subdf3+0x62a>
    7414:	00351813          	slli	a6,a0,0x3
    7418:	01d31693          	slli	a3,t1,0x1d
    741c:	00385813          	srli	a6,a6,0x3
    7420:	0106e833          	or	a6,a3,a6
    7424:	00335793          	srli	a5,t1,0x3
    7428:	a219                	j	752e <__subdf3+0x31c>
    742a:	01d767b3          	or	a5,a4,t4
    742e:	1a078563          	beqz	a5,75d8 <__subdf3+0x3c6>
    7432:	fff58793          	addi	a5,a1,-1
    7436:	3a078b63          	beqz	a5,77ec <__subdf3+0x5da>
    743a:	23c58c63          	beq	a1,t3,7672 <__subdf3+0x460>
    743e:	85be                	mv	a1,a5
    7440:	b589                	j	7282 <__subdf3+0x70>
    7442:	1c059963          	bnez	a1,7614 <__subdf3+0x402>
    7446:	00148693          	addi	a3,s1,1
    744a:	7fe6f793          	andi	a5,a3,2046
    744e:	efc1                	bnez	a5,74e6 <__subdf3+0x2d4>
    7450:	01e367b3          	or	a5,t1,t5
    7454:	36049063          	bnez	s1,77b4 <__subdf3+0x5a2>
    7458:	44078d63          	beqz	a5,78b2 <__subdf3+0x6a0>
    745c:	01d767b3          	or	a5,a4,t4
    7460:	46079463          	bnez	a5,78c8 <__subdf3+0x6b6>
    7464:	050e                	slli	a0,a0,0x3
    7466:	01d31813          	slli	a6,t1,0x1d
    746a:	810d                	srli	a0,a0,0x3
    746c:	00a86833          	or	a6,a6,a0
    7470:	00335793          	srli	a5,t1,0x3
    7474:	a86d                	j	752e <__subdf3+0x31c>
    7476:	409885b3          	sub	a1,a7,s1
    747a:	20049763          	bnez	s1,7688 <__subdf3+0x476>
    747e:	01e367b3          	or	a5,t1,t5
    7482:	30078d63          	beqz	a5,779c <__subdf3+0x58a>
    7486:	fff58793          	addi	a5,a1,-1
    748a:	40078963          	beqz	a5,789c <__subdf3+0x68a>
    748e:	7ff00513          	li	a0,2047
    7492:	20a58363          	beq	a1,a0,7698 <__subdf3+0x486>
    7496:	85be                	mv	a1,a5
    7498:	03800793          	li	a5,56
    749c:	2ab7c263          	blt	a5,a1,7740 <__subdf3+0x52e>
    74a0:	47fd                	li	a5,31
    74a2:	3cb7c863          	blt	a5,a1,7872 <__subdf3+0x660>
    74a6:	02000793          	li	a5,32
    74aa:	8f8d                	sub	a5,a5,a1
    74ac:	00f31833          	sll	a6,t1,a5
    74b0:	00bf5633          	srl	a2,t5,a1
    74b4:	00ff17b3          	sll	a5,t5,a5
    74b8:	00c86833          	or	a6,a6,a2
    74bc:	00f039b3          	snez	s3,a5
    74c0:	00b35333          	srl	t1,t1,a1
    74c4:	01386833          	or	a6,a6,s3
    74c8:	40670733          	sub	a4,a4,t1
    74cc:	acb5                	j	7748 <__subdf3+0x536>
    74ce:	01d767b3          	or	a5,a4,t4
    74d2:	10078363          	beqz	a5,75d8 <__subdf3+0x3c6>
    74d6:	fff58793          	addi	a5,a1,-1
    74da:	1e078f63          	beqz	a5,76d8 <__subdf3+0x4c6>
    74de:	2fc58063          	beq	a1,t3,77be <__subdf3+0x5ac>
    74e2:	85be                	mv	a1,a5
    74e4:	b5d1                	j	73a8 <__subdf3+0x196>
    74e6:	7ff00793          	li	a5,2047
    74ea:	06f68b63          	beq	a3,a5,7560 <__subdf3+0x34e>
    74ee:	9efa                	add	t4,t4,t5
    74f0:	01eeb633          	sltu	a2,t4,t5
    74f4:	00e307b3          	add	a5,t1,a4
    74f8:	97b2                	add	a5,a5,a2
    74fa:	01f79813          	slli	a6,a5,0x1f
    74fe:	001ede93          	srli	t4,t4,0x1
    7502:	01d869b3          	or	s3,a6,t4
    7506:	0017d613          	srli	a2,a5,0x1
    750a:	84b6                	mv	s1,a3
    750c:	0079f793          	andi	a5,s3,7
    7510:	e0079fe3          	bnez	a5,732e <__subdf3+0x11c>
    7514:	01d61793          	slli	a5,a2,0x1d
    7518:	0039d813          	srli	a6,s3,0x3
    751c:	00f86833          	or	a6,a6,a5
    7520:	85a6                	mv	a1,s1
    7522:	00365793          	srli	a5,a2,0x3
    7526:	7ff00713          	li	a4,2047
    752a:	06e58063          	beq	a1,a4,758a <__subdf3+0x378>
    752e:	07b2                	slli	a5,a5,0xc
    7530:	83b1                	srli	a5,a5,0xc
    7532:	7ff5f713          	andi	a4,a1,2047
    7536:	8805                	andi	s0,s0,1
    7538:	bd3d                	j	7376 <__subdf3+0x164>
    753a:	01d76733          	or	a4,a4,t4
    753e:	00e03833          	snez	a6,a4
    7542:	01e809b3          	add	s3,a6,t5
    7546:	01e9b7b3          	sltu	a5,s3,t5
    754a:	00678633          	add	a2,a5,t1
    754e:	00861793          	slli	a5,a2,0x8
    7552:	fa07dde3          	bgez	a5,750c <__subdf3+0x2fa>
    7556:	0485                	addi	s1,s1,1
    7558:	7ff00793          	li	a5,2047
    755c:	18f49c63          	bne	s1,a5,76f4 <__subdf3+0x4e2>
    7560:	8805                	andi	s0,s0,1
    7562:	7ff00713          	li	a4,2047
    7566:	4781                	li	a5,0
    7568:	4801                	li	a6,0
    756a:	b531                	j	7376 <__subdf3+0x164>
    756c:	10079163          	bnez	a5,766e <__subdf3+0x45c>
    7570:	3c080163          	beqz	a6,7932 <__subdf3+0x720>
    7574:	00361813          	slli	a6,a2,0x3
    7578:	01d71793          	slli	a5,a4,0x1d
    757c:	00385813          	srli	a6,a6,0x3
    7580:	00f86833          	or	a6,a6,a5
    7584:	8436                	mv	s0,a3
    7586:	00375793          	srli	a5,a4,0x3
    758a:	00f867b3          	or	a5,a6,a5
    758e:	dbe9                	beqz	a5,7560 <__subdf3+0x34e>
    7590:	4401                	li	s0,0
    7592:	7ff00713          	li	a4,2047
    7596:	000807b7          	lui	a5,0x80
    759a:	4801                	li	a6,0
    759c:	bbe9                	j	7376 <__subdf3+0x164>
    759e:	ff800637          	lui	a2,0xff800
    75a2:	167d                	addi	a2,a2,-1
    75a4:	8e7d                	and	a2,a2,a5
    75a6:	0079f793          	andi	a5,s3,7
    75aa:	8c99                	sub	s1,s1,a4
    75ac:	d80791e3          	bnez	a5,732e <__subdf3+0x11c>
    75b0:	b795                	j	7514 <__subdf3+0x302>
    75b2:	854e                	mv	a0,s3
    75b4:	20d000ef          	jal	ra,7fc0 <__clzsi2>
    75b8:	01850713          	addi	a4,a0,24
    75bc:	47fd                	li	a5,31
    75be:	d2e7d2e3          	bge	a5,a4,72e2 <__subdf3+0xd0>
    75c2:	ff850613          	addi	a2,a0,-8
    75c6:	00c997b3          	sll	a5,s3,a2
    75ca:	4981                	li	s3,0
    75cc:	b32d                	j	72f6 <__subdf3+0xe4>
    75ce:	01d76833          	or	a6,a4,t4
    75d2:	01003833          	snez	a6,a6
    75d6:	b1c5                	j	72b6 <__subdf3+0xa4>
    75d8:	00351813          	slli	a6,a0,0x3
    75dc:	01d31793          	slli	a5,t1,0x1d
    75e0:	00385813          	srli	a6,a6,0x3
    75e4:	00f86833          	or	a6,a6,a5
    75e8:	00335793          	srli	a5,t1,0x3
    75ec:	bf2d                	j	7526 <__subdf3+0x314>
    75ee:	41df09b3          	sub	s3,t5,t4
    75f2:	40e30933          	sub	s2,t1,a4
    75f6:	013f3633          	sltu	a2,t5,s3
    75fa:	40c90933          	sub	s2,s2,a2
    75fe:	00891793          	slli	a5,s2,0x8
    7602:	2007ca63          	bltz	a5,7816 <__subdf3+0x604>
    7606:	0129e833          	or	a6,s3,s2
    760a:	cc0815e3          	bnez	a6,72d4 <__subdf3+0xc2>
    760e:	4781                	li	a5,0
    7610:	4401                	li	s0,0
    7612:	bf31                	j	752e <__subdf3+0x31c>
    7614:	409885b3          	sub	a1,a7,s1
    7618:	14048163          	beqz	s1,775a <__subdf3+0x548>
    761c:	008006b7          	lui	a3,0x800
    7620:	7ff00793          	li	a5,2047
    7624:	00d36333          	or	t1,t1,a3
    7628:	20f88163          	beq	a7,a5,782a <__subdf3+0x618>
    762c:	03800793          	li	a5,56
    7630:	22b7cc63          	blt	a5,a1,7868 <__subdf3+0x656>
    7634:	47fd                	li	a5,31
    7636:	2cb7c963          	blt	a5,a1,7908 <__subdf3+0x6f6>
    763a:	02000793          	li	a5,32
    763e:	8f8d                	sub	a5,a5,a1
    7640:	00f31833          	sll	a6,t1,a5
    7644:	00bf56b3          	srl	a3,t5,a1
    7648:	00ff17b3          	sll	a5,t5,a5
    764c:	00d86833          	or	a6,a6,a3
    7650:	00f039b3          	snez	s3,a5
    7654:	00b35333          	srl	t1,t1,a1
    7658:	01386833          	or	a6,a6,s3
    765c:	971a                	add	a4,a4,t1
    765e:	01d809b3          	add	s3,a6,t4
    7662:	01d9b7b3          	sltu	a5,s3,t4
    7666:	00e78633          	add	a2,a5,a4
    766a:	84c6                	mv	s1,a7
    766c:	b5cd                	j	754e <__subdf3+0x33c>
    766e:	f20811e3          	bnez	a6,7590 <__subdf3+0x37e>
    7672:	00351813          	slli	a6,a0,0x3
    7676:	01d31793          	slli	a5,t1,0x1d
    767a:	00385813          	srli	a6,a6,0x3
    767e:	00f86833          	or	a6,a6,a5
    7682:	00335793          	srli	a5,t1,0x3
    7686:	b711                	j	758a <__subdf3+0x378>
    7688:	00800537          	lui	a0,0x800
    768c:	7ff00793          	li	a5,2047
    7690:	00a36333          	or	t1,t1,a0
    7694:	e0f892e3          	bne	a7,a5,7498 <__subdf3+0x286>
    7698:	060e                	slli	a2,a2,0x3
    769a:	01d71813          	slli	a6,a4,0x1d
    769e:	820d                	srli	a2,a2,0x3
    76a0:	00c86833          	or	a6,a6,a2
    76a4:	00375793          	srli	a5,a4,0x3
    76a8:	8436                	mv	s0,a3
    76aa:	b5c5                	j	758a <__subdf3+0x378>
    76ac:	1705                	addi	a4,a4,-31
    76ae:	02000693          	li	a3,32
    76b2:	00e7d733          	srl	a4,a5,a4
    76b6:	00d60a63          	beq	a2,a3,76ca <__subdf3+0x4b8>
    76ba:	04000693          	li	a3,64
    76be:	40c68633          	sub	a2,a3,a2
    76c2:	00c79633          	sll	a2,a5,a2
    76c6:	00c9e9b3          	or	s3,s3,a2
    76ca:	01303833          	snez	a6,s3
    76ce:	00e869b3          	or	s3,a6,a4
    76d2:	4601                	li	a2,0
    76d4:	4481                	li	s1,0
    76d6:	bd1d                	j	750c <__subdf3+0x2fa>
    76d8:	01df09b3          	add	s3,t5,t4
    76dc:	00e307b3          	add	a5,t1,a4
    76e0:	01e9bf33          	sltu	t5,s3,t5
    76e4:	01e78633          	add	a2,a5,t5
    76e8:	00861793          	slli	a5,a2,0x8
    76ec:	4485                	li	s1,1
    76ee:	e007dfe3          	bgez	a5,750c <__subdf3+0x2fa>
    76f2:	4489                	li	s1,2
    76f4:	ff8007b7          	lui	a5,0xff800
    76f8:	17fd                	addi	a5,a5,-1
    76fa:	8ff1                	and	a5,a5,a2
    76fc:	0019d713          	srli	a4,s3,0x1
    7700:	0019f813          	andi	a6,s3,1
    7704:	01076833          	or	a6,a4,a6
    7708:	01f79993          	slli	s3,a5,0x1f
    770c:	0109e9b3          	or	s3,s3,a6
    7710:	0017d613          	srli	a2,a5,0x1
    7714:	b911                	j	7328 <__subdf3+0x116>
    7716:	fe058813          	addi	a6,a1,-32
    771a:	02000793          	li	a5,32
    771e:	010759b3          	srl	s3,a4,a6
    7722:	00f58a63          	beq	a1,a5,7736 <__subdf3+0x524>
    7726:	04000793          	li	a5,64
    772a:	40b785b3          	sub	a1,a5,a1
    772e:	00b71733          	sll	a4,a4,a1
    7732:	00eeeeb3          	or	t4,t4,a4
    7736:	01d03833          	snez	a6,t4
    773a:	01386833          	or	a6,a6,s3
    773e:	bea5                	j	72b6 <__subdf3+0xa4>
    7740:	01e36333          	or	t1,t1,t5
    7744:	00603833          	snez	a6,t1
    7748:	410e89b3          	sub	s3,t4,a6
    774c:	013eb7b3          	sltu	a5,t4,s3
    7750:	40f70633          	sub	a2,a4,a5
    7754:	84c6                	mv	s1,a7
    7756:	8436                	mv	s0,a3
    7758:	b6ad                	j	72c2 <__subdf3+0xb0>
    775a:	01e367b3          	or	a5,t1,t5
    775e:	18078763          	beqz	a5,78ec <__subdf3+0x6da>
    7762:	fff58793          	addi	a5,a1,-1
    7766:	1c078c63          	beqz	a5,793e <__subdf3+0x72c>
    776a:	7ff00693          	li	a3,2047
    776e:	0ad58e63          	beq	a1,a3,782a <__subdf3+0x618>
    7772:	85be                	mv	a1,a5
    7774:	bd65                	j	762c <__subdf3+0x41a>
    7776:	02000793          	li	a5,32
    777a:	8f8d                	sub	a5,a5,a1
    777c:	00bed9b3          	srl	s3,t4,a1
    7780:	00f71833          	sll	a6,a4,a5
    7784:	00fe9eb3          	sll	t4,t4,a5
    7788:	01386833          	or	a6,a6,s3
    778c:	00b75733          	srl	a4,a4,a1
    7790:	01d039b3          	snez	s3,t4
    7794:	01386833          	or	a6,a6,s3
    7798:	933a                	add	t1,t1,a4
    779a:	b365                	j	7542 <__subdf3+0x330>
    779c:	00361813          	slli	a6,a2,0x3
    77a0:	01d71793          	slli	a5,a4,0x1d
    77a4:	00385813          	srli	a6,a6,0x3
    77a8:	0107e833          	or	a6,a5,a6
    77ac:	8436                	mv	s0,a3
    77ae:	00375793          	srli	a5,a4,0x3
    77b2:	bb95                	j	7526 <__subdf3+0x314>
    77b4:	cbbd                	beqz	a5,782a <__subdf3+0x618>
    77b6:	01d76733          	or	a4,a4,t4
    77ba:	dc071be3          	bnez	a4,7590 <__subdf3+0x37e>
    77be:	050e                	slli	a0,a0,0x3
    77c0:	01d31813          	slli	a6,t1,0x1d
    77c4:	810d                	srli	a0,a0,0x3
    77c6:	00a86833          	or	a6,a6,a0
    77ca:	00335793          	srli	a5,t1,0x3
    77ce:	bb75                	j	758a <__subdf3+0x378>
    77d0:	e2080fe3          	beqz	a6,760e <__subdf3+0x3fc>
    77d4:	00361813          	slli	a6,a2,0x3
    77d8:	01d71793          	slli	a5,a4,0x1d
    77dc:	00385813          	srli	a6,a6,0x3
    77e0:	00f86833          	or	a6,a6,a5
    77e4:	8436                	mv	s0,a3
    77e6:	00375793          	srli	a5,a4,0x3
    77ea:	b391                	j	752e <__subdf3+0x31c>
    77ec:	41df09b3          	sub	s3,t5,t4
    77f0:	40e307b3          	sub	a5,t1,a4
    77f4:	013f3f33          	sltu	t5,t5,s3
    77f8:	41e78633          	sub	a2,a5,t5
    77fc:	4485                	li	s1,1
    77fe:	b4d1                	j	72c2 <__subdf3+0xb0>
    7800:	00351813          	slli	a6,a0,0x3
    7804:	01d31693          	slli	a3,t1,0x1d
    7808:	00385813          	srli	a6,a6,0x3
    780c:	0106e833          	or	a6,a3,a6
    7810:	00335793          	srli	a5,t1,0x3
    7814:	bb9d                	j	758a <__subdf3+0x378>
    7816:	41ee89b3          	sub	s3,t4,t5
    781a:	40670633          	sub	a2,a4,t1
    781e:	013eb933          	sltu	s2,t4,s3
    7822:	41260933          	sub	s2,a2,s2
    7826:	8436                	mv	s0,a3
    7828:	b475                	j	72d4 <__subdf3+0xc2>
    782a:	060e                	slli	a2,a2,0x3
    782c:	01d71813          	slli	a6,a4,0x1d
    7830:	820d                	srli	a2,a2,0x3
    7832:	00c86833          	or	a6,a6,a2
    7836:	00375793          	srli	a5,a4,0x3
    783a:	bb81                	j	758a <__subdf3+0x378>
    783c:	41df09b3          	sub	s3,t5,t4
    7840:	40e307b3          	sub	a5,t1,a4
    7844:	013f3633          	sltu	a2,t5,s3
    7848:	40c78633          	sub	a2,a5,a2
    784c:	00861793          	slli	a5,a2,0x8
    7850:	0a07d763          	bgez	a5,78fe <__subdf3+0x6ec>
    7854:	41ee89b3          	sub	s3,t4,t5
    7858:	406707b3          	sub	a5,a4,t1
    785c:	013ebeb3          	sltu	t4,t4,s3
    7860:	41d78633          	sub	a2,a5,t4
    7864:	8436                	mv	s0,a3
    7866:	b4c9                	j	7328 <__subdf3+0x116>
    7868:	01e36333          	or	t1,t1,t5
    786c:	00603833          	snez	a6,t1
    7870:	b3fd                	j	765e <__subdf3+0x44c>
    7872:	fe058813          	addi	a6,a1,-32
    7876:	02000793          	li	a5,32
    787a:	010359b3          	srl	s3,t1,a6
    787e:	00f58a63          	beq	a1,a5,7892 <__subdf3+0x680>
    7882:	04000793          	li	a5,64
    7886:	40b785b3          	sub	a1,a5,a1
    788a:	00b31333          	sll	t1,t1,a1
    788e:	006f6f33          	or	t5,t5,t1
    7892:	01e03833          	snez	a6,t5
    7896:	01386833          	or	a6,a6,s3
    789a:	b57d                	j	7748 <__subdf3+0x536>
    789c:	41ee89b3          	sub	s3,t4,t5
    78a0:	406707b3          	sub	a5,a4,t1
    78a4:	013ebeb3          	sltu	t4,t4,s3
    78a8:	41d78633          	sub	a2,a5,t4
    78ac:	8436                	mv	s0,a3
    78ae:	4485                	li	s1,1
    78b0:	bc09                	j	72c2 <__subdf3+0xb0>
    78b2:	00361813          	slli	a6,a2,0x3
    78b6:	01d71793          	slli	a5,a4,0x1d
    78ba:	00385813          	srli	a6,a6,0x3
    78be:	00f86833          	or	a6,a6,a5
    78c2:	00375793          	srli	a5,a4,0x3
    78c6:	b1a5                	j	752e <__subdf3+0x31c>
    78c8:	01df09b3          	add	s3,t5,t4
    78cc:	00e307b3          	add	a5,t1,a4
    78d0:	01e9bf33          	sltu	t5,s3,t5
    78d4:	01e78633          	add	a2,a5,t5
    78d8:	00861793          	slli	a5,a2,0x8
    78dc:	c207d8e3          	bgez	a5,750c <__subdf3+0x2fa>
    78e0:	ff8007b7          	lui	a5,0xff800
    78e4:	17fd                	addi	a5,a5,-1
    78e6:	8e7d                	and	a2,a2,a5
    78e8:	4485                	li	s1,1
    78ea:	b10d                	j	750c <__subdf3+0x2fa>
    78ec:	060e                	slli	a2,a2,0x3
    78ee:	01d71813          	slli	a6,a4,0x1d
    78f2:	820d                	srli	a2,a2,0x3
    78f4:	00c86833          	or	a6,a6,a2
    78f8:	00375793          	srli	a5,a4,0x3
    78fc:	b12d                	j	7526 <__subdf3+0x314>
    78fe:	00c9e833          	or	a6,s3,a2
    7902:	d00806e3          	beqz	a6,760e <__subdf3+0x3fc>
    7906:	b119                	j	750c <__subdf3+0x2fa>
    7908:	fe058813          	addi	a6,a1,-32
    790c:	02000793          	li	a5,32
    7910:	010359b3          	srl	s3,t1,a6
    7914:	00f58a63          	beq	a1,a5,7928 <__subdf3+0x716>
    7918:	04000793          	li	a5,64
    791c:	40b785b3          	sub	a1,a5,a1
    7920:	00b31333          	sll	t1,t1,a1
    7924:	006f6f33          	or	t5,t5,t1
    7928:	01e03833          	snez	a6,t5
    792c:	01386833          	or	a6,a6,s3
    7930:	b33d                	j	765e <__subdf3+0x44c>
    7932:	4401                	li	s0,0
    7934:	7ff00713          	li	a4,2047
    7938:	000807b7          	lui	a5,0x80
    793c:	bc2d                	j	7376 <__subdf3+0x164>
    793e:	01df09b3          	add	s3,t5,t4
    7942:	00e307b3          	add	a5,t1,a4
    7946:	01d9beb3          	sltu	t4,s3,t4
    794a:	01d78633          	add	a2,a5,t4
    794e:	bb69                	j	76e8 <__subdf3+0x4d6>

00007950 <__unorddf2>:
    7950:	0145d713          	srli	a4,a1,0x14
    7954:	001007b7          	lui	a5,0x100
    7958:	17fd                	addi	a5,a5,-1
    795a:	fff74713          	not	a4,a4
    795e:	0146d813          	srli	a6,a3,0x14
    7962:	8dfd                	and	a1,a1,a5
    7964:	8ff5                	and	a5,a5,a3
    7966:	01571693          	slli	a3,a4,0x15
    796a:	7ff87813          	andi	a6,a6,2047
    796e:	ca99                	beqz	a3,7984 <__unorddf2+0x34>
    7970:	7ff00713          	li	a4,2047
    7974:	4501                	li	a0,0
    7976:	00e80363          	beq	a6,a4,797c <__unorddf2+0x2c>
    797a:	8082                	ret
    797c:	8fd1                	or	a5,a5,a2
    797e:	00f03533          	snez	a0,a5
    7982:	8082                	ret
    7984:	8dc9                	or	a1,a1,a0
    7986:	4505                	li	a0,1
    7988:	d5e5                	beqz	a1,7970 <__unorddf2+0x20>
    798a:	8082                	ret

0000798c <__fixunsdfsi>:
    798c:	0145d793          	srli	a5,a1,0x14
    7990:	001006b7          	lui	a3,0x100
    7994:	fff68713          	addi	a4,a3,-1 # fffff <_data_lma+0xf417b>
    7998:	7ff7f793          	andi	a5,a5,2047
    799c:	3fe00613          	li	a2,1022
    79a0:	882a                	mv	a6,a0
    79a2:	8f6d                	and	a4,a4,a1
    79a4:	4501                	li	a0,0
    79a6:	81fd                	srli	a1,a1,0x1f
    79a8:	00f65463          	bge	a2,a5,79b0 <__fixunsdfsi+0x24>
    79ac:	c199                	beqz	a1,79b2 <__fixunsdfsi+0x26>
    79ae:	8082                	ret
    79b0:	8082                	ret
    79b2:	41e00613          	li	a2,1054
    79b6:	557d                	li	a0,-1
    79b8:	fef64be3          	blt	a2,a5,79ae <__fixunsdfsi+0x22>
    79bc:	43300513          	li	a0,1075
    79c0:	8d1d                	sub	a0,a0,a5
    79c2:	467d                	li	a2,31
    79c4:	8f55                	or	a4,a4,a3
    79c6:	00a64a63          	blt	a2,a0,79da <__fixunsdfsi+0x4e>
    79ca:	bed78793          	addi	a5,a5,-1043 # ffbed <_data_lma+0xf3d69>
    79ce:	00f71733          	sll	a4,a4,a5
    79d2:	00a85533          	srl	a0,a6,a0
    79d6:	8d59                	or	a0,a0,a4
    79d8:	8082                	ret
    79da:	41300513          	li	a0,1043
    79de:	40f507b3          	sub	a5,a0,a5
    79e2:	00f75533          	srl	a0,a4,a5
    79e6:	8082                	ret

000079e8 <__floatsidf>:
    79e8:	1141                	addi	sp,sp,-16
    79ea:	c606                	sw	ra,12(sp)
    79ec:	c422                	sw	s0,8(sp)
    79ee:	c226                	sw	s1,4(sp)
    79f0:	cd05                	beqz	a0,7a28 <__floatsidf+0x40>
    79f2:	41f55793          	srai	a5,a0,0x1f
    79f6:	00a7c4b3          	xor	s1,a5,a0
    79fa:	8c9d                	sub	s1,s1,a5
    79fc:	842a                	mv	s0,a0
    79fe:	8526                	mv	a0,s1
    7a00:	23c1                	jal	7fc0 <__clzsi2>
    7a02:	41e00693          	li	a3,1054
    7a06:	8e89                	sub	a3,a3,a0
    7a08:	47a9                	li	a5,10
    7a0a:	807d                	srli	s0,s0,0x1f
    7a0c:	7ff6f693          	andi	a3,a3,2047
    7a10:	02a7cd63          	blt	a5,a0,7a4a <__floatsidf+0x62>
    7a14:	472d                	li	a4,11
    7a16:	8f09                	sub	a4,a4,a0
    7a18:	00e4d7b3          	srl	a5,s1,a4
    7a1c:	0555                	addi	a0,a0,21
    7a1e:	07b2                	slli	a5,a5,0xc
    7a20:	00a494b3          	sll	s1,s1,a0
    7a24:	83b1                	srli	a5,a5,0xc
    7a26:	a029                	j	7a30 <__floatsidf+0x48>
    7a28:	4401                	li	s0,0
    7a2a:	4681                	li	a3,0
    7a2c:	4781                	li	a5,0
    7a2e:	4481                	li	s1,0
    7a30:	07b2                	slli	a5,a5,0xc
    7a32:	06d2                	slli	a3,a3,0x14
    7a34:	83b1                	srli	a5,a5,0xc
    7a36:	047e                	slli	s0,s0,0x1f
    7a38:	8fd5                	or	a5,a5,a3
    7a3a:	8fc1                	or	a5,a5,s0
    7a3c:	40b2                	lw	ra,12(sp)
    7a3e:	4422                	lw	s0,8(sp)
    7a40:	8526                	mv	a0,s1
    7a42:	85be                	mv	a1,a5
    7a44:	4492                	lw	s1,4(sp)
    7a46:	0141                	addi	sp,sp,16
    7a48:	8082                	ret
    7a4a:	1555                	addi	a0,a0,-11
    7a4c:	00a497b3          	sll	a5,s1,a0
    7a50:	07b2                	slli	a5,a5,0xc
    7a52:	83b1                	srli	a5,a5,0xc
    7a54:	4481                	li	s1,0
    7a56:	bfe9                	j	7a30 <__floatsidf+0x48>

00007a58 <__floatunsidf>:
    7a58:	cd15                	beqz	a0,7a94 <__floatunsidf+0x3c>
    7a5a:	1141                	addi	sp,sp,-16
    7a5c:	c422                	sw	s0,8(sp)
    7a5e:	c606                	sw	ra,12(sp)
    7a60:	842a                	mv	s0,a0
    7a62:	2bb9                	jal	7fc0 <__clzsi2>
    7a64:	41e00693          	li	a3,1054
    7a68:	8e89                	sub	a3,a3,a0
    7a6a:	47a9                	li	a5,10
    7a6c:	7ff6f693          	andi	a3,a3,2047
    7a70:	02a7dc63          	bge	a5,a0,7aa8 <__floatunsidf+0x50>
    7a74:	1555                	addi	a0,a0,-11
    7a76:	00a417b3          	sll	a5,s0,a0
    7a7a:	07b2                	slli	a5,a5,0xc
    7a7c:	83b1                	srli	a5,a5,0xc
    7a7e:	4701                	li	a4,0
    7a80:	40b2                	lw	ra,12(sp)
    7a82:	4422                	lw	s0,8(sp)
    7a84:	07b2                	slli	a5,a5,0xc
    7a86:	06d2                	slli	a3,a3,0x14
    7a88:	83b1                	srli	a5,a5,0xc
    7a8a:	8fd5                	or	a5,a5,a3
    7a8c:	853a                	mv	a0,a4
    7a8e:	85be                	mv	a1,a5
    7a90:	0141                	addi	sp,sp,16
    7a92:	8082                	ret
    7a94:	4781                	li	a5,0
    7a96:	4681                	li	a3,0
    7a98:	07b2                	slli	a5,a5,0xc
    7a9a:	06d2                	slli	a3,a3,0x14
    7a9c:	83b1                	srli	a5,a5,0xc
    7a9e:	4701                	li	a4,0
    7aa0:	8fd5                	or	a5,a5,a3
    7aa2:	853a                	mv	a0,a4
    7aa4:	85be                	mv	a1,a5
    7aa6:	8082                	ret
    7aa8:	472d                	li	a4,11
    7aaa:	8f09                	sub	a4,a4,a0
    7aac:	00e457b3          	srl	a5,s0,a4
    7ab0:	07b2                	slli	a5,a5,0xc
    7ab2:	01550713          	addi	a4,a0,21 # 800015 <_data_lma+0x7f4191>
    7ab6:	00e41733          	sll	a4,s0,a4
    7aba:	83b1                	srli	a5,a5,0xc
    7abc:	b7d1                	j	7a80 <__floatunsidf+0x28>

00007abe <__subsf3>:
    7abe:	00800737          	lui	a4,0x800
    7ac2:	1141                	addi	sp,sp,-16
    7ac4:	177d                	addi	a4,a4,-1
    7ac6:	01755693          	srli	a3,a0,0x17
    7aca:	0175d813          	srli	a6,a1,0x17
    7ace:	00a777b3          	and	a5,a4,a0
    7ad2:	0ff6f693          	andi	a3,a3,255
    7ad6:	01f55e93          	srli	t4,a0,0x1f
    7ada:	00b77633          	and	a2,a4,a1
    7ade:	c226                	sw	s1,4(sp)
    7ae0:	c04a                	sw	s2,0(sp)
    7ae2:	0ff87813          	andi	a6,a6,255
    7ae6:	c606                	sw	ra,12(sp)
    7ae8:	c422                	sw	s0,8(sp)
    7aea:	0ff00313          	li	t1,255
    7aee:	8e3e                	mv	t3,a5
    7af0:	8936                	mv	s2,a3
    7af2:	84f6                	mv	s1,t4
    7af4:	00379f13          	slli	t5,a5,0x3
    7af8:	81fd                	srli	a1,a1,0x1f
    7afa:	00361513          	slli	a0,a2,0x3
    7afe:	410688b3          	sub	a7,a3,a6
    7b02:	10680263          	beq	a6,t1,7c06 <__subsf3+0x148>
    7b06:	0015c593          	xori	a1,a1,1
    7b0a:	10be8c63          	beq	t4,a1,7c22 <__subsf3+0x164>
    7b0e:	0d105463          	blez	a7,7bd6 <__subsf3+0x118>
    7b12:	10081063          	bnez	a6,7c12 <__subsf3+0x154>
    7b16:	1e050463          	beqz	a0,7cfe <__subsf3+0x240>
    7b1a:	18fd                	addi	a7,a7,-1
    7b1c:	40af07b3          	sub	a5,t5,a0
    7b20:	02088663          	beqz	a7,7b4c <__subsf3+0x8e>
    7b24:	0ff00793          	li	a5,255
    7b28:	16f68863          	beq	a3,a5,7c98 <__subsf3+0x1da>
    7b2c:	47ed                	li	a5,27
    7b2e:	2917c763          	blt	a5,a7,7dbc <__subsf3+0x2fe>
    7b32:	02000713          	li	a4,32
    7b36:	41170733          	sub	a4,a4,a7
    7b3a:	00e51733          	sll	a4,a0,a4
    7b3e:	011557b3          	srl	a5,a0,a7
    7b42:	00e03733          	snez	a4,a4
    7b46:	8fd9                	or	a5,a5,a4
    7b48:	40ff07b3          	sub	a5,t5,a5
    7b4c:	00579713          	slli	a4,a5,0x5
    7b50:	1a075163          	bgez	a4,7cf2 <__subsf3+0x234>
    7b54:	04000437          	lui	s0,0x4000
    7b58:	147d                	addi	s0,s0,-1
    7b5a:	8c7d                	and	s0,s0,a5
    7b5c:	8522                	mv	a0,s0
    7b5e:	218d                	jal	7fc0 <__clzsi2>
    7b60:	156d                	addi	a0,a0,-5
    7b62:	00a417b3          	sll	a5,s0,a0
    7b66:	1b254e63          	blt	a0,s2,7d22 <__subsf3+0x264>
    7b6a:	41250533          	sub	a0,a0,s2
    7b6e:	00150413          	addi	s0,a0,1
    7b72:	02000713          	li	a4,32
    7b76:	8f01                	sub	a4,a4,s0
    7b78:	00e79733          	sll	a4,a5,a4
    7b7c:	00e03733          	snez	a4,a4
    7b80:	0087d7b3          	srl	a5,a5,s0
    7b84:	8fd9                	or	a5,a5,a4
    7b86:	4901                	li	s2,0
    7b88:	0077f713          	andi	a4,a5,7
    7b8c:	c719                	beqz	a4,7b9a <__subsf3+0xdc>
    7b8e:	00f7f713          	andi	a4,a5,15
    7b92:	4691                	li	a3,4
    7b94:	00d70363          	beq	a4,a3,7b9a <__subsf3+0xdc>
    7b98:	0791                	addi	a5,a5,4
    7b9a:	00579713          	slli	a4,a5,0x5
    7b9e:	14075e63          	bgez	a4,7cfa <__subsf3+0x23c>
    7ba2:	00190693          	addi	a3,s2,1 # 800001 <_data_lma+0x7f417d>
    7ba6:	0ff00713          	li	a4,255
    7baa:	0014fe93          	andi	t4,s1,1
    7bae:	16e68663          	beq	a3,a4,7d1a <__subsf3+0x25c>
    7bb2:	079a                	slli	a5,a5,0x6
    7bb4:	83a5                	srli	a5,a5,0x9
    7bb6:	0ff6f693          	andi	a3,a3,255
    7bba:	07a6                	slli	a5,a5,0x9
    7bbc:	40b2                	lw	ra,12(sp)
    7bbe:	4422                	lw	s0,8(sp)
    7bc0:	0097d513          	srli	a0,a5,0x9
    7bc4:	06de                	slli	a3,a3,0x17
    7bc6:	01fe9793          	slli	a5,t4,0x1f
    7bca:	8d55                	or	a0,a0,a3
    7bcc:	4492                	lw	s1,4(sp)
    7bce:	4902                	lw	s2,0(sp)
    7bd0:	8d5d                	or	a0,a0,a5
    7bd2:	0141                	addi	sp,sp,16
    7bd4:	8082                	ret
    7bd6:	0a089263          	bnez	a7,7c7a <__subsf3+0x1bc>
    7bda:	00168713          	addi	a4,a3,1
    7bde:	0fe77713          	andi	a4,a4,254
    7be2:	14071b63          	bnez	a4,7d38 <__subsf3+0x27a>
    7be6:	22069463          	bnez	a3,7e0e <__subsf3+0x350>
    7bea:	200f0263          	beqz	t5,7dee <__subsf3+0x330>
    7bee:	d571                	beqz	a0,7bba <__subsf3+0xfc>
    7bf0:	40af07b3          	sub	a5,t5,a0
    7bf4:	00579713          	slli	a4,a5,0x5
    7bf8:	22075563          	bgez	a4,7e22 <__subsf3+0x364>
    7bfc:	41e507b3          	sub	a5,a0,t5
    7c00:	4901                	li	s2,0
    7c02:	84ae                	mv	s1,a1
    7c04:	b751                	j	7b88 <__subsf3+0xca>
    7c06:	f00500e3          	beqz	a0,7b06 <__subsf3+0x48>
    7c0a:	0abe8a63          	beq	t4,a1,7cbe <__subsf3+0x200>
    7c0e:	fd1054e3          	blez	a7,7bd6 <__subsf3+0x118>
    7c12:	0ff00793          	li	a5,255
    7c16:	08f68163          	beq	a3,a5,7c98 <__subsf3+0x1da>
    7c1a:	040007b7          	lui	a5,0x4000
    7c1e:	8d5d                	or	a0,a0,a5
    7c20:	b731                	j	7b2c <__subsf3+0x6e>
    7c22:	09105e63          	blez	a7,7cbe <__subsf3+0x200>
    7c26:	08080163          	beqz	a6,7ca8 <__subsf3+0x1ea>
    7c2a:	0ff00793          	li	a5,255
    7c2e:	06f68563          	beq	a3,a5,7c98 <__subsf3+0x1da>
    7c32:	040007b7          	lui	a5,0x4000
    7c36:	8d5d                	or	a0,a0,a5
    7c38:	47ed                	li	a5,27
    7c3a:	1f17c063          	blt	a5,a7,7e1a <__subsf3+0x35c>
    7c3e:	02000713          	li	a4,32
    7c42:	41170733          	sub	a4,a4,a7
    7c46:	00e51733          	sll	a4,a0,a4
    7c4a:	011557b3          	srl	a5,a0,a7
    7c4e:	00e03733          	snez	a4,a4
    7c52:	8fd9                	or	a5,a5,a4
    7c54:	97fa                	add	a5,a5,t5
    7c56:	00579713          	slli	a4,a5,0x5
    7c5a:	08075c63          	bgez	a4,7cf2 <__subsf3+0x234>
    7c5e:	0905                	addi	s2,s2,1
    7c60:	0ff00713          	li	a4,255
    7c64:	0ae90b63          	beq	s2,a4,7d1a <__subsf3+0x25c>
    7c68:	7e0006b7          	lui	a3,0x7e000
    7c6c:	0017d713          	srli	a4,a5,0x1
    7c70:	16fd                	addi	a3,a3,-1
    7c72:	8b85                	andi	a5,a5,1
    7c74:	8f75                	and	a4,a4,a3
    7c76:	8fd9                	or	a5,a5,a4
    7c78:	bf01                	j	7b88 <__subsf3+0xca>
    7c7a:	40d80733          	sub	a4,a6,a3
    7c7e:	10069563          	bnez	a3,7d88 <__subsf3+0x2ca>
    7c82:	140f0d63          	beqz	t5,7ddc <__subsf3+0x31e>
    7c86:	177d                	addi	a4,a4,-1
    7c88:	1a070363          	beqz	a4,7e2e <__subsf3+0x370>
    7c8c:	0ff00793          	li	a5,255
    7c90:	10f81463          	bne	a6,a5,7d98 <__subsf3+0x2da>
    7c94:	84ae                	mv	s1,a1
    7c96:	8e32                	mv	t3,a2
    7c98:	060e0f63          	beqz	t3,7d16 <__subsf3+0x258>
    7c9c:	4e81                	li	t4,0
    7c9e:	0ff00693          	li	a3,255
    7ca2:	004007b7          	lui	a5,0x400
    7ca6:	bf11                	j	7bba <__subsf3+0xfc>
    7ca8:	c939                	beqz	a0,7cfe <__subsf3+0x240>
    7caa:	18fd                	addi	a7,a7,-1
    7cac:	00af07b3          	add	a5,t5,a0
    7cb0:	fa0883e3          	beqz	a7,7c56 <__subsf3+0x198>
    7cb4:	0ff00793          	li	a5,255
    7cb8:	f8f690e3          	bne	a3,a5,7c38 <__subsf3+0x17a>
    7cbc:	bff1                	j	7c98 <__subsf3+0x1da>
    7cbe:	08089963          	bnez	a7,7d50 <__subsf3+0x292>
    7cc2:	00168913          	addi	s2,a3,1 # 7e000001 <_eusrstack+0x5dff8001>
    7cc6:	0fe97713          	andi	a4,s2,254
    7cca:	12071663          	bnez	a4,7df6 <__subsf3+0x338>
    7cce:	10069b63          	bnez	a3,7de4 <__subsf3+0x326>
    7cd2:	160f0363          	beqz	t5,7e38 <__subsf3+0x37a>
    7cd6:	ee0502e3          	beqz	a0,7bba <__subsf3+0xfc>
    7cda:	00af07b3          	add	a5,t5,a0
    7cde:	00579713          	slli	a4,a5,0x5
    7ce2:	4901                	li	s2,0
    7ce4:	00075763          	bgez	a4,7cf2 <__subsf3+0x234>
    7ce8:	fc000737          	lui	a4,0xfc000
    7cec:	177d                	addi	a4,a4,-1
    7cee:	8ff9                	and	a5,a5,a4
    7cf0:	4905                	li	s2,1
    7cf2:	0077f713          	andi	a4,a5,7
    7cf6:	e8071ce3          	bnez	a4,7b8e <__subsf3+0xd0>
    7cfa:	0037de13          	srli	t3,a5,0x3
    7cfe:	0ff00793          	li	a5,255
    7d02:	f8f90be3          	beq	s2,a5,7c98 <__subsf3+0x1da>
    7d06:	009e1793          	slli	a5,t3,0x9
    7d0a:	83a5                	srli	a5,a5,0x9
    7d0c:	0ff97693          	andi	a3,s2,255
    7d10:	0014fe93          	andi	t4,s1,1
    7d14:	b55d                	j	7bba <__subsf3+0xfc>
    7d16:	0014fe93          	andi	t4,s1,1
    7d1a:	0ff00693          	li	a3,255
    7d1e:	4781                	li	a5,0
    7d20:	bd69                	j	7bba <__subsf3+0xfc>
    7d22:	fc000737          	lui	a4,0xfc000
    7d26:	177d                	addi	a4,a4,-1
    7d28:	8ff9                	and	a5,a5,a4
    7d2a:	0077f713          	andi	a4,a5,7
    7d2e:	40a90933          	sub	s2,s2,a0
    7d32:	e4071ee3          	bnez	a4,7b8e <__subsf3+0xd0>
    7d36:	b7d1                	j	7cfa <__subsf3+0x23c>
    7d38:	40af0433          	sub	s0,t5,a0
    7d3c:	00541793          	slli	a5,s0,0x5
    7d40:	0c07c363          	bltz	a5,7e06 <__subsf3+0x348>
    7d44:	e0041ce3          	bnez	s0,7b5c <__subsf3+0x9e>
    7d48:	4e81                	li	t4,0
    7d4a:	4681                	li	a3,0
    7d4c:	4781                	li	a5,0
    7d4e:	b5b5                	j	7bba <__subsf3+0xfc>
    7d50:	40d80733          	sub	a4,a6,a3
    7d54:	c6b5                	beqz	a3,7dc0 <__subsf3+0x302>
    7d56:	0ff00793          	li	a5,255
    7d5a:	f2f80ee3          	beq	a6,a5,7c96 <__subsf3+0x1d8>
    7d5e:	040007b7          	lui	a5,0x4000
    7d62:	00ff6f33          	or	t5,t5,a5
    7d66:	47ed                	li	a5,27
    7d68:	0ce7cd63          	blt	a5,a4,7e42 <__subsf3+0x384>
    7d6c:	02000793          	li	a5,32
    7d70:	8f99                	sub	a5,a5,a4
    7d72:	00ff17b3          	sll	a5,t5,a5
    7d76:	00ef5733          	srl	a4,t5,a4
    7d7a:	00f037b3          	snez	a5,a5
    7d7e:	8f5d                	or	a4,a4,a5
    7d80:	00a707b3          	add	a5,a4,a0
    7d84:	8942                	mv	s2,a6
    7d86:	bdc1                	j	7c56 <__subsf3+0x198>
    7d88:	0ff00793          	li	a5,255
    7d8c:	f0f804e3          	beq	a6,a5,7c94 <__subsf3+0x1d6>
    7d90:	040007b7          	lui	a5,0x4000
    7d94:	00ff6f33          	or	t5,t5,a5
    7d98:	47ed                	li	a5,27
    7d9a:	08e7c263          	blt	a5,a4,7e1e <__subsf3+0x360>
    7d9e:	02000793          	li	a5,32
    7da2:	8f99                	sub	a5,a5,a4
    7da4:	00ff17b3          	sll	a5,t5,a5
    7da8:	00ef5733          	srl	a4,t5,a4
    7dac:	00f037b3          	snez	a5,a5
    7db0:	8fd9                	or	a5,a5,a4
    7db2:	40f507b3          	sub	a5,a0,a5
    7db6:	8942                	mv	s2,a6
    7db8:	84ae                	mv	s1,a1
    7dba:	bb49                	j	7b4c <__subsf3+0x8e>
    7dbc:	4785                	li	a5,1
    7dbe:	b369                	j	7b48 <__subsf3+0x8a>
    7dc0:	060f0e63          	beqz	t5,7e3c <__subsf3+0x37e>
    7dc4:	177d                	addi	a4,a4,-1
    7dc6:	00af07b3          	add	a5,t5,a0
    7dca:	8942                	mv	s2,a6
    7dcc:	e80705e3          	beqz	a4,7c56 <__subsf3+0x198>
    7dd0:	0ff00793          	li	a5,255
    7dd4:	f8f819e3          	bne	a6,a5,7d66 <__subsf3+0x2a8>
    7dd8:	8e32                	mv	t3,a2
    7dda:	bd7d                	j	7c98 <__subsf3+0x1da>
    7ddc:	8e32                	mv	t3,a2
    7dde:	8942                	mv	s2,a6
    7de0:	84ae                	mv	s1,a1
    7de2:	bf31                	j	7cfe <__subsf3+0x240>
    7de4:	ea0f09e3          	beqz	t5,7c96 <__subsf3+0x1d8>
    7de8:	ea0508e3          	beqz	a0,7c98 <__subsf3+0x1da>
    7dec:	bd45                	j	7c9c <__subsf3+0x1de>
    7dee:	cd0d                	beqz	a0,7e28 <__subsf3+0x36a>
    7df0:	8eae                	mv	t4,a1
    7df2:	87b2                	mv	a5,a2
    7df4:	b3d9                	j	7bba <__subsf3+0xfc>
    7df6:	0ff00793          	li	a5,255
    7dfa:	f2f900e3          	beq	s2,a5,7d1a <__subsf3+0x25c>
    7dfe:	00af07b3          	add	a5,t5,a0
    7e02:	8385                	srli	a5,a5,0x1
    7e04:	b5fd                	j	7cf2 <__subsf3+0x234>
    7e06:	41e50433          	sub	s0,a0,t5
    7e0a:	84ae                	mv	s1,a1
    7e0c:	bb81                	j	7b5c <__subsf3+0x9e>
    7e0e:	fc0f1de3          	bnez	t5,7de8 <__subsf3+0x32a>
    7e12:	e80505e3          	beqz	a0,7c9c <__subsf3+0x1de>
    7e16:	84ae                	mv	s1,a1
    7e18:	bdbd                	j	7c96 <__subsf3+0x1d8>
    7e1a:	4785                	li	a5,1
    7e1c:	bd25                	j	7c54 <__subsf3+0x196>
    7e1e:	4785                	li	a5,1
    7e20:	bf49                	j	7db2 <__subsf3+0x2f4>
    7e22:	4901                	li	s2,0
    7e24:	ec0797e3          	bnez	a5,7cf2 <__subsf3+0x234>
    7e28:	4e81                	li	t4,0
    7e2a:	4781                	li	a5,0
    7e2c:	b379                	j	7bba <__subsf3+0xfc>
    7e2e:	41e507b3          	sub	a5,a0,t5
    7e32:	8942                	mv	s2,a6
    7e34:	84ae                	mv	s1,a1
    7e36:	bb19                	j	7b4c <__subsf3+0x8e>
    7e38:	87b2                	mv	a5,a2
    7e3a:	b341                	j	7bba <__subsf3+0xfc>
    7e3c:	8e32                	mv	t3,a2
    7e3e:	8942                	mv	s2,a6
    7e40:	bd7d                	j	7cfe <__subsf3+0x240>
    7e42:	4705                	li	a4,1
    7e44:	bf35                	j	7d80 <__subsf3+0x2c2>

00007e46 <__floatunsisf>:
    7e46:	1141                	addi	sp,sp,-16
    7e48:	c606                	sw	ra,12(sp)
    7e4a:	c422                	sw	s0,8(sp)
    7e4c:	cd15                	beqz	a0,7e88 <__floatunsisf+0x42>
    7e4e:	842a                	mv	s0,a0
    7e50:	2a85                	jal	7fc0 <__clzsi2>
    7e52:	09e00793          	li	a5,158
    7e56:	40a78733          	sub	a4,a5,a0
    7e5a:	09600793          	li	a5,150
    7e5e:	04e7c063          	blt	a5,a4,7e9e <__floatunsisf+0x58>
    7e62:	46a1                	li	a3,8
    7e64:	0ff77793          	andi	a5,a4,255
    7e68:	00a6d563          	bge	a3,a0,7e72 <__floatunsisf+0x2c>
    7e6c:	1561                	addi	a0,a0,-8
    7e6e:	00a41433          	sll	s0,s0,a0
    7e72:	0426                	slli	s0,s0,0x9
    7e74:	8025                	srli	s0,s0,0x9
    7e76:	0426                	slli	s0,s0,0x9
    7e78:	00945513          	srli	a0,s0,0x9
    7e7c:	40b2                	lw	ra,12(sp)
    7e7e:	4422                	lw	s0,8(sp)
    7e80:	07de                	slli	a5,a5,0x17
    7e82:	8d5d                	or	a0,a0,a5
    7e84:	0141                	addi	sp,sp,16
    7e86:	8082                	ret
    7e88:	4401                	li	s0,0
    7e8a:	0426                	slli	s0,s0,0x9
    7e8c:	00945513          	srli	a0,s0,0x9
    7e90:	40b2                	lw	ra,12(sp)
    7e92:	4422                	lw	s0,8(sp)
    7e94:	4781                	li	a5,0
    7e96:	07de                	slli	a5,a5,0x17
    7e98:	8d5d                	or	a0,a0,a5
    7e9a:	0141                	addi	sp,sp,16
    7e9c:	8082                	ret
    7e9e:	09900793          	li	a5,153
    7ea2:	00e7dd63          	bge	a5,a4,7ebc <__floatunsisf+0x76>
    7ea6:	01b50793          	addi	a5,a0,27
    7eaa:	4695                	li	a3,5
    7eac:	00f417b3          	sll	a5,s0,a5
    7eb0:	8e89                	sub	a3,a3,a0
    7eb2:	00f037b3          	snez	a5,a5
    7eb6:	00d45433          	srl	s0,s0,a3
    7eba:	8c5d                	or	s0,s0,a5
    7ebc:	4795                	li	a5,5
    7ebe:	00a7d663          	bge	a5,a0,7eca <__floatunsisf+0x84>
    7ec2:	ffb50793          	addi	a5,a0,-5
    7ec6:	00f41433          	sll	s0,s0,a5
    7eca:	fc0006b7          	lui	a3,0xfc000
    7ece:	16fd                	addi	a3,a3,-1
    7ed0:	00747793          	andi	a5,s0,7
    7ed4:	00d47633          	and	a2,s0,a3
    7ed8:	c385                	beqz	a5,7ef8 <__floatunsisf+0xb2>
    7eda:	00f47793          	andi	a5,s0,15
    7ede:	4591                	li	a1,4
    7ee0:	00b78c63          	beq	a5,a1,7ef8 <__floatunsisf+0xb2>
    7ee4:	0611                	addi	a2,a2,4
    7ee6:	00561793          	slli	a5,a2,0x5
    7eea:	0007d763          	bgez	a5,7ef8 <__floatunsisf+0xb2>
    7eee:	09f00793          	li	a5,159
    7ef2:	8e75                	and	a2,a2,a3
    7ef4:	40a78733          	sub	a4,a5,a0
    7ef8:	00661413          	slli	s0,a2,0x6
    7efc:	8025                	srli	s0,s0,0x9
    7efe:	0426                	slli	s0,s0,0x9
    7f00:	00945513          	srli	a0,s0,0x9
    7f04:	40b2                	lw	ra,12(sp)
    7f06:	4422                	lw	s0,8(sp)
    7f08:	0ff77793          	andi	a5,a4,255
    7f0c:	07de                	slli	a5,a5,0x17
    7f0e:	8d5d                	or	a0,a0,a5
    7f10:	0141                	addi	sp,sp,16
    7f12:	8082                	ret

00007f14 <__extendsfdf2>:
    7f14:	01755713          	srli	a4,a0,0x17
    7f18:	0ff77713          	andi	a4,a4,255
    7f1c:	1141                	addi	sp,sp,-16
    7f1e:	00170793          	addi	a5,a4,1 # fc000001 <_eusrstack+0xdbff8001>
    7f22:	c422                	sw	s0,8(sp)
    7f24:	c226                	sw	s1,4(sp)
    7f26:	00951413          	slli	s0,a0,0x9
    7f2a:	c606                	sw	ra,12(sp)
    7f2c:	0fe7f793          	andi	a5,a5,254
    7f30:	8025                	srli	s0,s0,0x9
    7f32:	01f55493          	srli	s1,a0,0x1f
    7f36:	c785                	beqz	a5,7f5e <__extendsfdf2+0x4a>
    7f38:	00345793          	srli	a5,s0,0x3
    7f3c:	38070713          	addi	a4,a4,896
    7f40:	0476                	slli	s0,s0,0x1d
    7f42:	07b2                	slli	a5,a5,0xc
    7f44:	0752                	slli	a4,a4,0x14
    7f46:	83b1                	srli	a5,a5,0xc
    7f48:	01f49513          	slli	a0,s1,0x1f
    7f4c:	8fd9                	or	a5,a5,a4
    7f4e:	8fc9                	or	a5,a5,a0
    7f50:	40b2                	lw	ra,12(sp)
    7f52:	8522                	mv	a0,s0
    7f54:	4422                	lw	s0,8(sp)
    7f56:	4492                	lw	s1,4(sp)
    7f58:	85be                	mv	a1,a5
    7f5a:	0141                	addi	sp,sp,16
    7f5c:	8082                	ret
    7f5e:	eb05                	bnez	a4,7f8e <__extendsfdf2+0x7a>
    7f60:	c439                	beqz	s0,7fae <__extendsfdf2+0x9a>
    7f62:	8522                	mv	a0,s0
    7f64:	28b1                	jal	7fc0 <__clzsi2>
    7f66:	47a9                	li	a5,10
    7f68:	04a7c663          	blt	a5,a0,7fb4 <__extendsfdf2+0xa0>
    7f6c:	472d                	li	a4,11
    7f6e:	8f09                	sub	a4,a4,a0
    7f70:	01550793          	addi	a5,a0,21
    7f74:	00e45733          	srl	a4,s0,a4
    7f78:	00f41433          	sll	s0,s0,a5
    7f7c:	00c71793          	slli	a5,a4,0xc
    7f80:	38900713          	li	a4,905
    7f84:	8f09                	sub	a4,a4,a0
    7f86:	83b1                	srli	a5,a5,0xc
    7f88:	7ff77713          	andi	a4,a4,2047
    7f8c:	bf5d                	j	7f42 <__extendsfdf2+0x2e>
    7f8e:	cc01                	beqz	s0,7fa6 <__extendsfdf2+0x92>
    7f90:	00345713          	srli	a4,s0,0x3
    7f94:	000807b7          	lui	a5,0x80
    7f98:	8fd9                	or	a5,a5,a4
    7f9a:	07b2                	slli	a5,a5,0xc
    7f9c:	0476                	slli	s0,s0,0x1d
    7f9e:	83b1                	srli	a5,a5,0xc
    7fa0:	7ff00713          	li	a4,2047
    7fa4:	bf79                	j	7f42 <__extendsfdf2+0x2e>
    7fa6:	7ff00713          	li	a4,2047
    7faa:	4781                	li	a5,0
    7fac:	bf59                	j	7f42 <__extendsfdf2+0x2e>
    7fae:	4701                	li	a4,0
    7fb0:	4781                	li	a5,0
    7fb2:	bf41                	j	7f42 <__extendsfdf2+0x2e>
    7fb4:	ff550713          	addi	a4,a0,-11
    7fb8:	00e41733          	sll	a4,s0,a4
    7fbc:	4401                	li	s0,0
    7fbe:	bf7d                	j	7f7c <__extendsfdf2+0x68>

00007fc0 <__clzsi2>:
    7fc0:	67c1                	lui	a5,0x10
    7fc2:	02f57c63          	bgeu	a0,a5,7ffa <__clzsi2+0x3a>
    7fc6:	0ff00793          	li	a5,255
    7fca:	02000713          	li	a4,32
    7fce:	00a7eb63          	bltu	a5,a0,7fe4 <__clzsi2+0x24>
    7fd2:	00004797          	auipc	a5,0x4
    7fd6:	a9e78793          	addi	a5,a5,-1378 # ba70 <__clz_tab>
    7fda:	97aa                	add	a5,a5,a0
    7fdc:	2388                	lbu	a0,0(a5)
    7fde:	40a70533          	sub	a0,a4,a0
    7fe2:	8082                	ret
    7fe4:	8121                	srli	a0,a0,0x8
    7fe6:	00004797          	auipc	a5,0x4
    7fea:	a8a78793          	addi	a5,a5,-1398 # ba70 <__clz_tab>
    7fee:	97aa                	add	a5,a5,a0
    7ff0:	2388                	lbu	a0,0(a5)
    7ff2:	4761                	li	a4,24
    7ff4:	40a70533          	sub	a0,a4,a0
    7ff8:	8082                	ret
    7ffa:	010007b7          	lui	a5,0x1000
    7ffe:	00f56d63          	bltu	a0,a5,8018 <__clzsi2+0x58>
    8002:	8161                	srli	a0,a0,0x18
    8004:	00004797          	auipc	a5,0x4
    8008:	a6c78793          	addi	a5,a5,-1428 # ba70 <__clz_tab>
    800c:	97aa                	add	a5,a5,a0
    800e:	2388                	lbu	a0,0(a5)
    8010:	4721                	li	a4,8
    8012:	40a70533          	sub	a0,a4,a0
    8016:	8082                	ret
    8018:	8141                	srli	a0,a0,0x10
    801a:	00004797          	auipc	a5,0x4
    801e:	a5678793          	addi	a5,a5,-1450 # ba70 <__clz_tab>
    8022:	97aa                	add	a5,a5,a0
    8024:	2388                	lbu	a0,0(a5)
    8026:	4741                	li	a4,16
    8028:	40a70533          	sub	a0,a4,a0
    802c:	8082                	ret

0000802e <__errno>:
    802e:	82818793          	addi	a5,gp,-2008 # 20000218 <_impure_ptr>
    8032:	4388                	lw	a0,0(a5)
    8034:	8082                	ret

00008036 <memcpy>:
    8036:	00a5c7b3          	xor	a5,a1,a0
    803a:	8b8d                	andi	a5,a5,3
    803c:	00c50733          	add	a4,a0,a2
    8040:	e781                	bnez	a5,8048 <memcpy+0x12>
    8042:	478d                	li	a5,3
    8044:	00c7ed63          	bltu	a5,a2,805e <memcpy+0x28>
    8048:	87aa                	mv	a5,a0
    804a:	08e57e63          	bgeu	a0,a4,80e6 <memcpy+0xb0>
    804e:	2194                	lbu	a3,0(a1)
    8050:	0785                	addi	a5,a5,1
    8052:	0585                	addi	a1,a1,1
    8054:	fed78fa3          	sb	a3,-1(a5)
    8058:	fee7ebe3          	bltu	a5,a4,804e <memcpy+0x18>
    805c:	8082                	ret
    805e:	00357693          	andi	a3,a0,3
    8062:	87aa                	mv	a5,a0
    8064:	ca89                	beqz	a3,8076 <memcpy+0x40>
    8066:	2194                	lbu	a3,0(a1)
    8068:	0785                	addi	a5,a5,1
    806a:	0585                	addi	a1,a1,1
    806c:	fed78fa3          	sb	a3,-1(a5)
    8070:	0037f693          	andi	a3,a5,3
    8074:	bfc5                	j	8064 <memcpy+0x2e>
    8076:	ffc77693          	andi	a3,a4,-4
    807a:	fe068613          	addi	a2,a3,-32 # fbffffe0 <_eusrstack+0xdbff7fe0>
    807e:	06c7f063          	bgeu	a5,a2,80de <memcpy+0xa8>
    8082:	0005a383          	lw	t2,0(a1)
    8086:	0045a283          	lw	t0,4(a1)
    808a:	0085af83          	lw	t6,8(a1)
    808e:	00c5af03          	lw	t5,12(a1)
    8092:	0105ae83          	lw	t4,16(a1)
    8096:	0145ae03          	lw	t3,20(a1)
    809a:	0185a303          	lw	t1,24(a1)
    809e:	01c5a883          	lw	a7,28(a1)
    80a2:	02458593          	addi	a1,a1,36
    80a6:	0077a023          	sw	t2,0(a5)
    80aa:	ffc5a803          	lw	a6,-4(a1)
    80ae:	0057a223          	sw	t0,4(a5)
    80b2:	01f7a423          	sw	t6,8(a5)
    80b6:	01e7a623          	sw	t5,12(a5)
    80ba:	01d7a823          	sw	t4,16(a5)
    80be:	01c7aa23          	sw	t3,20(a5)
    80c2:	0067ac23          	sw	t1,24(a5)
    80c6:	0117ae23          	sw	a7,28(a5)
    80ca:	02478793          	addi	a5,a5,36
    80ce:	ff07ae23          	sw	a6,-4(a5)
    80d2:	b775                	j	807e <memcpy+0x48>
    80d4:	4190                	lw	a2,0(a1)
    80d6:	0791                	addi	a5,a5,4
    80d8:	0591                	addi	a1,a1,4
    80da:	fec7ae23          	sw	a2,-4(a5)
    80de:	fed7ebe3          	bltu	a5,a3,80d4 <memcpy+0x9e>
    80e2:	f6e7e6e3          	bltu	a5,a4,804e <memcpy+0x18>
    80e6:	8082                	ret

000080e8 <__cvt>:
    80e8:	7179                	addi	sp,sp,-48
    80ea:	d422                	sw	s0,40(sp)
    80ec:	d04a                	sw	s2,32(sp)
    80ee:	cc52                	sw	s4,24(sp)
    80f0:	ca56                	sw	s5,20(sp)
    80f2:	c85a                	sw	s6,16(sp)
    80f4:	d606                	sw	ra,44(sp)
    80f6:	d226                	sw	s1,36(sp)
    80f8:	ce4e                	sw	s3,28(sp)
    80fa:	8a3a                	mv	s4,a4
    80fc:	8aae                	mv	s5,a1
    80fe:	8432                	mv	s0,a2
    8100:	8936                	mv	s2,a3
    8102:	8b42                	mv	s6,a6
    8104:	4701                	li	a4,0
    8106:	00065863          	bgez	a2,8116 <__cvt+0x2e>
    810a:	80000737          	lui	a4,0x80000
    810e:	00c74433          	xor	s0,a4,a2
    8112:	02d00713          	li	a4,45
    8116:	a398                	sb	a4,0(a5)
    8118:	fdf8f493          	andi	s1,a7,-33
    811c:	04600793          	li	a5,70
    8120:	468d                	li	a3,3
    8122:	00f48863          	beq	s1,a5,8132 <__cvt+0x4a>
    8126:	04500793          	li	a5,69
    812a:	4689                	li	a3,2
    812c:	00f49363          	bne	s1,a5,8132 <__cvt+0x4a>
    8130:	0905                	addi	s2,s2,1
    8132:	87da                	mv	a5,s6
    8134:	00c10893          	addi	a7,sp,12
    8138:	00810813          	addi	a6,sp,8
    813c:	874a                	mv	a4,s2
    813e:	85d6                	mv	a1,s5
    8140:	8622                	mv	a2,s0
    8142:	5bf000ef          	jal	ra,8f00 <_dtoa_r>
    8146:	04700793          	li	a5,71
    814a:	89aa                	mv	s3,a0
    814c:	00f49663          	bne	s1,a5,8158 <__cvt+0x70>
    8150:	001a7a13          	andi	s4,s4,1
    8154:	040a0a63          	beqz	s4,81a8 <__cvt+0xc0>
    8158:	04600793          	li	a5,70
    815c:	01298a33          	add	s4,s3,s2
    8160:	02f49763          	bne	s1,a5,818e <__cvt+0xa6>
    8164:	0009c703          	lbu	a4,0(s3)
    8168:	03000793          	li	a5,48
    816c:	00f71e63          	bne	a4,a5,8188 <__cvt+0xa0>
    8170:	4601                	li	a2,0
    8172:	4681                	li	a3,0
    8174:	8556                	mv	a0,s5
    8176:	85a2                	mv	a1,s0
    8178:	acbfe0ef          	jal	ra,6c42 <__eqdf2>
    817c:	c511                	beqz	a0,8188 <__cvt+0xa0>
    817e:	4785                	li	a5,1
    8180:	41278933          	sub	s2,a5,s2
    8184:	012b2023          	sw	s2,0(s6)
    8188:	000b2783          	lw	a5,0(s6)
    818c:	9a3e                	add	s4,s4,a5
    818e:	4601                	li	a2,0
    8190:	4681                	li	a3,0
    8192:	8556                	mv	a0,s5
    8194:	85a2                	mv	a1,s0
    8196:	aadfe0ef          	jal	ra,6c42 <__eqdf2>
    819a:	e111                	bnez	a0,819e <__cvt+0xb6>
    819c:	c652                	sw	s4,12(sp)
    819e:	03000713          	li	a4,48
    81a2:	47b2                	lw	a5,12(sp)
    81a4:	0347e263          	bltu	a5,s4,81c8 <__cvt+0xe0>
    81a8:	47b2                	lw	a5,12(sp)
    81aa:	5742                	lw	a4,48(sp)
    81ac:	50b2                	lw	ra,44(sp)
    81ae:	5422                	lw	s0,40(sp)
    81b0:	413787b3          	sub	a5,a5,s3
    81b4:	c31c                	sw	a5,0(a4)
    81b6:	854e                	mv	a0,s3
    81b8:	5492                	lw	s1,36(sp)
    81ba:	5902                	lw	s2,32(sp)
    81bc:	49f2                	lw	s3,28(sp)
    81be:	4a62                	lw	s4,24(sp)
    81c0:	4ad2                	lw	s5,20(sp)
    81c2:	4b42                	lw	s6,16(sp)
    81c4:	6145                	addi	sp,sp,48
    81c6:	8082                	ret
    81c8:	00178693          	addi	a3,a5,1
    81cc:	c636                	sw	a3,12(sp)
    81ce:	a398                	sb	a4,0(a5)
    81d0:	bfc9                	j	81a2 <__cvt+0xba>

000081d2 <__exponent>:
    81d2:	a110                	sb	a2,0(a0)
    81d4:	00250713          	addi	a4,a0,2
    81d8:	02b00793          	li	a5,43
    81dc:	0005d663          	bgez	a1,81e8 <__exponent+0x16>
    81e0:	40b005b3          	neg	a1,a1
    81e4:	02d00793          	li	a5,45
    81e8:	b11c                	sb	a5,1(a0)
    81ea:	47a5                	li	a5,9
    81ec:	04b7da63          	bge	a5,a1,8240 <__exponent+0x6e>
    81f0:	1141                	addi	sp,sp,-16
    81f2:	00f10793          	addi	a5,sp,15
    81f6:	88be                	mv	a7,a5
    81f8:	4829                	li	a6,10
    81fa:	06300313          	li	t1,99
    81fe:	0305e6b3          	rem	a3,a1,a6
    8202:	fff78613          	addi	a2,a5,-1
    8206:	03068693          	addi	a3,a3,48
    820a:	fed78fa3          	sb	a3,-1(a5)
    820e:	0305c6b3          	div	a3,a1,a6
    8212:	00b34d63          	blt	t1,a1,822c <__exponent+0x5a>
    8216:	03068693          	addi	a3,a3,48
    821a:	17f9                	addi	a5,a5,-2
    821c:	fed60fa3          	sb	a3,-1(a2) # ff7fffff <_eusrstack+0xdf7f7fff>
    8220:	0117e963          	bltu	a5,a7,8232 <__exponent+0x60>
    8224:	40a70533          	sub	a0,a4,a0
    8228:	0141                	addi	sp,sp,16
    822a:	8082                	ret
    822c:	87b2                	mv	a5,a2
    822e:	85b6                	mv	a1,a3
    8230:	b7f9                	j	81fe <__exponent+0x2c>
    8232:	0785                	addi	a5,a5,1
    8234:	fff7c683          	lbu	a3,-1(a5)
    8238:	0705                	addi	a4,a4,1
    823a:	fed70fa3          	sb	a3,-1(a4) # 7fffffff <_eusrstack+0x5fff7fff>
    823e:	b7cd                	j	8220 <__exponent+0x4e>
    8240:	03000793          	li	a5,48
    8244:	00450713          	addi	a4,a0,4
    8248:	03058593          	addi	a1,a1,48
    824c:	a13c                	sb	a5,2(a0)
    824e:	b12c                	sb	a1,3(a0)
    8250:	40a70533          	sub	a0,a4,a0
    8254:	8082                	ret

00008256 <_printf_float>:
    8256:	7119                	addi	sp,sp,-128
    8258:	ce3a                	sw	a4,28(sp)
    825a:	de86                	sw	ra,124(sp)
    825c:	dca2                	sw	s0,120(sp)
    825e:	daa6                	sw	s1,116(sp)
    8260:	842e                	mv	s0,a1
    8262:	d8ca                	sw	s2,112(sp)
    8264:	d6ce                	sw	s3,108(sp)
    8266:	d4d2                	sw	s4,104(sp)
    8268:	89b6                	mv	s3,a3
    826a:	d0da                	sw	s6,96(sp)
    826c:	cede                	sw	s7,92(sp)
    826e:	cce2                	sw	s8,88(sp)
    8270:	8932                	mv	s2,a2
    8272:	d2d6                	sw	s5,100(sp)
    8274:	cae6                	sw	s9,84(sp)
    8276:	c8ea                	sw	s10,80(sp)
    8278:	c6ee                	sw	s11,76(sp)
    827a:	84aa                	mv	s1,a0
    827c:	45f010ef          	jal	ra,9eda <_localeconv_r>
    8280:	00052b83          	lw	s7,0(a0)
    8284:	855e                	mv	a0,s7
    8286:	16b000ef          	jal	ra,8bf0 <strlen>
    828a:	00042b03          	lw	s6,0(s0) # 4000000 <_data_lma+0x3ff417c>
    828e:	4772                	lw	a4,28(sp)
    8290:	dc02                	sw	zero,56(sp)
    8292:	100b7693          	andi	a3,s6,256
    8296:	8c2a                	mv	s8,a0
    8298:	01844a03          	lbu	s4,24(s0)
    829c:	431c                	lw	a5,0(a4)
    829e:	caf1                	beqz	a3,8372 <_printf_float+0x11c>
    82a0:	00478693          	addi	a3,a5,4
    82a4:	c314                	sw	a3,0(a4)
    82a6:	439c                	lw	a5,0(a5)
    82a8:	1008                	addi	a0,sp,32
    82aa:	4398                	lw	a4,0(a5)
    82ac:	d03a                	sw	a4,32(sp)
    82ae:	43d8                	lw	a4,4(a5)
    82b0:	d23a                	sw	a4,36(sp)
    82b2:	4798                	lw	a4,8(a5)
    82b4:	d43a                	sw	a4,40(sp)
    82b6:	47dc                	lw	a5,12(a5)
    82b8:	d63e                	sw	a5,44(sp)
    82ba:	415020ef          	jal	ra,aece <__trunctfdf2>
    82be:	c428                	sw	a0,72(s0)
    82c0:	c46c                	sw	a1,76(s0)
    82c2:	04c42c83          	lw	s9,76(s0)
    82c6:	00004717          	auipc	a4,0x4
    82ca:	8aa70713          	addi	a4,a4,-1878 # bb70 <__clz_tab+0x100>
    82ce:	04842a83          	lw	s5,72(s0)
    82d2:	00072d03          	lw	s10,0(a4)
    82d6:	00472d83          	lw	s11,4(a4)
    82da:	001c9793          	slli	a5,s9,0x1
    82de:	8385                	srli	a5,a5,0x1
    82e0:	866a                	mv	a2,s10
    82e2:	86ee                	mv	a3,s11
    82e4:	8556                	mv	a0,s5
    82e6:	85be                	mv	a1,a5
    82e8:	ce3e                	sw	a5,28(sp)
    82ea:	e66ff0ef          	jal	ra,7950 <__unorddf2>
    82ee:	ed41                	bnez	a0,8386 <_printf_float+0x130>
    82f0:	47f2                	lw	a5,28(sp)
    82f2:	866a                	mv	a2,s10
    82f4:	86ee                	mv	a3,s11
    82f6:	8556                	mv	a0,s5
    82f8:	85be                	mv	a1,a5
    82fa:	2b7020ef          	jal	ra,adb0 <__ledf2>
    82fe:	08a05463          	blez	a0,8386 <_printf_float+0x130>
    8302:	4601                	li	a2,0
    8304:	4681                	li	a3,0
    8306:	8556                	mv	a0,s5
    8308:	85e6                	mv	a1,s9
    830a:	2a7020ef          	jal	ra,adb0 <__ledf2>
    830e:	00055663          	bgez	a0,831a <_printf_float+0xc4>
    8312:	02d00793          	li	a5,45
    8316:	04f401a3          	sb	a5,67(s0)
    831a:	04700793          	li	a5,71
    831e:	00004a97          	auipc	s5,0x4
    8322:	85aa8a93          	addi	s5,s5,-1958 # bb78 <__clz_tab+0x108>
    8326:	0147f663          	bgeu	a5,s4,8332 <_printf_float+0xdc>
    832a:	00004a97          	auipc	s5,0x4
    832e:	852a8a93          	addi	s5,s5,-1966 # bb7c <__clz_tab+0x10c>
    8332:	ffbb7b13          	andi	s6,s6,-5
    8336:	478d                	li	a5,3
    8338:	01642023          	sw	s6,0(s0)
    833c:	c81c                	sw	a5,16(s0)
    833e:	4b01                	li	s6,0
    8340:	874e                	mv	a4,s3
    8342:	86ca                	mv	a3,s2
    8344:	1870                	addi	a2,sp,60
    8346:	85a2                	mv	a1,s0
    8348:	8526                	mv	a0,s1
    834a:	2ec1                	jal	871a <_printf_common>
    834c:	5cfd                	li	s9,-1
    834e:	15951e63          	bne	a0,s9,84aa <_printf_float+0x254>
    8352:	557d                	li	a0,-1
    8354:	50f6                	lw	ra,124(sp)
    8356:	5466                	lw	s0,120(sp)
    8358:	54d6                	lw	s1,116(sp)
    835a:	5946                	lw	s2,112(sp)
    835c:	59b6                	lw	s3,108(sp)
    835e:	5a26                	lw	s4,104(sp)
    8360:	5a96                	lw	s5,100(sp)
    8362:	5b06                	lw	s6,96(sp)
    8364:	4bf6                	lw	s7,92(sp)
    8366:	4c66                	lw	s8,88(sp)
    8368:	4cd6                	lw	s9,84(sp)
    836a:	4d46                	lw	s10,80(sp)
    836c:	4db6                	lw	s11,76(sp)
    836e:	6109                	addi	sp,sp,128
    8370:	8082                	ret
    8372:	079d                	addi	a5,a5,7
    8374:	9be1                	andi	a5,a5,-8
    8376:	00878693          	addi	a3,a5,8
    837a:	c314                	sw	a3,0(a4)
    837c:	4398                	lw	a4,0(a5)
    837e:	43dc                	lw	a5,4(a5)
    8380:	c438                	sw	a4,72(s0)
    8382:	c47c                	sw	a5,76(s0)
    8384:	bf3d                	j	82c2 <_printf_float+0x6c>
    8386:	8656                	mv	a2,s5
    8388:	86e6                	mv	a3,s9
    838a:	8556                	mv	a0,s5
    838c:	85e6                	mv	a1,s9
    838e:	dc2ff0ef          	jal	ra,7950 <__unorddf2>
    8392:	cd11                	beqz	a0,83ae <_printf_float+0x158>
    8394:	04700793          	li	a5,71
    8398:	00003a97          	auipc	s5,0x3
    839c:	7e8a8a93          	addi	s5,s5,2024 # bb80 <__clz_tab+0x110>
    83a0:	f947f9e3          	bgeu	a5,s4,8332 <_printf_float+0xdc>
    83a4:	00003a97          	auipc	s5,0x3
    83a8:	7e0a8a93          	addi	s5,s5,2016 # bb84 <__clz_tab+0x114>
    83ac:	b759                	j	8332 <_printf_float+0xdc>
    83ae:	405c                	lw	a5,4(s0)
    83b0:	577d                	li	a4,-1
    83b2:	0dfa7d13          	andi	s10,s4,223
    83b6:	08e79563          	bne	a5,a4,8440 <_printf_float+0x1ea>
    83ba:	4799                	li	a5,6
    83bc:	c05c                	sw	a5,4(s0)
    83be:	4054                	lw	a3,4(s0)
    83c0:	400b6713          	ori	a4,s6,1024
    83c4:	183c                	addi	a5,sp,56
    83c6:	85d6                	mv	a1,s5
    83c8:	c03e                	sw	a5,0(sp)
    83ca:	c018                	sw	a4,0(s0)
    83cc:	03310793          	addi	a5,sp,51
    83d0:	c202                	sw	zero,4(sp)
    83d2:	88d2                	mv	a7,s4
    83d4:	03410813          	addi	a6,sp,52
    83d8:	8666                	mv	a2,s9
    83da:	8526                	mv	a0,s1
    83dc:	d0dff0ef          	jal	ra,80e8 <__cvt>
    83e0:	04700793          	li	a5,71
    83e4:	8aaa                	mv	s5,a0
    83e6:	55d2                	lw	a1,52(sp)
    83e8:	00fd1b63          	bne	s10,a5,83fe <_printf_float+0x1a8>
    83ec:	57f5                	li	a5,-3
    83ee:	00f5c563          	blt	a1,a5,83f8 <_printf_float+0x1a2>
    83f2:	405c                	lw	a5,4(s0)
    83f4:	08b7d863          	bge	a5,a1,8484 <_printf_float+0x22e>
    83f8:	1a79                	addi	s4,s4,-2
    83fa:	0ffa7a13          	andi	s4,s4,255
    83fe:	06500793          	li	a5,101
    8402:	0547e663          	bltu	a5,s4,844e <_printf_float+0x1f8>
    8406:	15fd                	addi	a1,a1,-1
    8408:	8652                	mv	a2,s4
    840a:	05040513          	addi	a0,s0,80
    840e:	da2e                	sw	a1,52(sp)
    8410:	dc3ff0ef          	jal	ra,81d2 <__exponent>
    8414:	5762                	lw	a4,56(sp)
    8416:	4685                	li	a3,1
    8418:	8b2a                	mv	s6,a0
    841a:	00a707b3          	add	a5,a4,a0
    841e:	c81c                	sw	a5,16(s0)
    8420:	00e6c563          	blt	a3,a4,842a <_printf_float+0x1d4>
    8424:	4018                	lw	a4,0(s0)
    8426:	8b05                	andi	a4,a4,1
    8428:	c319                	beqz	a4,842e <_printf_float+0x1d8>
    842a:	0785                	addi	a5,a5,1
    842c:	c81c                	sw	a5,16(s0)
    842e:	03314783          	lbu	a5,51(sp)
    8432:	f00787e3          	beqz	a5,8340 <_printf_float+0xea>
    8436:	02d00793          	li	a5,45
    843a:	04f401a3          	sb	a5,67(s0)
    843e:	b709                	j	8340 <_printf_float+0xea>
    8440:	04700713          	li	a4,71
    8444:	f6ed1de3          	bne	s10,a4,83be <_printf_float+0x168>
    8448:	fbbd                	bnez	a5,83be <_printf_float+0x168>
    844a:	4785                	li	a5,1
    844c:	bf85                	j	83bc <_printf_float+0x166>
    844e:	06600793          	li	a5,102
    8452:	02fa1b63          	bne	s4,a5,8488 <_printf_float+0x232>
    8456:	405c                	lw	a5,4(s0)
    8458:	00b05b63          	blez	a1,846e <_printf_float+0x218>
    845c:	c80c                	sw	a1,16(s0)
    845e:	e781                	bnez	a5,8466 <_printf_float+0x210>
    8460:	4018                	lw	a4,0(s0)
    8462:	8b05                	andi	a4,a4,1
    8464:	cf09                	beqz	a4,847e <_printf_float+0x228>
    8466:	0785                	addi	a5,a5,1
    8468:	97ae                	add	a5,a5,a1
    846a:	c81c                	sw	a5,16(s0)
    846c:	a809                	j	847e <_printf_float+0x228>
    846e:	e789                	bnez	a5,8478 <_printf_float+0x222>
    8470:	4018                	lw	a4,0(s0)
    8472:	4685                	li	a3,1
    8474:	8b05                	andi	a4,a4,1
    8476:	c319                	beqz	a4,847c <_printf_float+0x226>
    8478:	00278693          	addi	a3,a5,2
    847c:	c814                	sw	a3,16(s0)
    847e:	cc2c                	sw	a1,88(s0)
    8480:	4b01                	li	s6,0
    8482:	b775                	j	842e <_printf_float+0x1d8>
    8484:	06700a13          	li	s4,103
    8488:	57e2                	lw	a5,56(sp)
    848a:	00f5c963          	blt	a1,a5,849c <_printf_float+0x246>
    848e:	401c                	lw	a5,0(s0)
    8490:	c80c                	sw	a1,16(s0)
    8492:	8b85                	andi	a5,a5,1
    8494:	d7ed                	beqz	a5,847e <_printf_float+0x228>
    8496:	00158793          	addi	a5,a1,1
    849a:	bfc1                	j	846a <_printf_float+0x214>
    849c:	4705                	li	a4,1
    849e:	00b04463          	bgtz	a1,84a6 <_printf_float+0x250>
    84a2:	4709                	li	a4,2
    84a4:	8f0d                	sub	a4,a4,a1
    84a6:	97ba                	add	a5,a5,a4
    84a8:	b7c9                	j	846a <_printf_float+0x214>
    84aa:	401c                	lw	a5,0(s0)
    84ac:	4007f713          	andi	a4,a5,1024
    84b0:	e315                	bnez	a4,84d4 <_printf_float+0x27e>
    84b2:	4814                	lw	a3,16(s0)
    84b4:	8656                	mv	a2,s5
    84b6:	85ca                	mv	a1,s2
    84b8:	8526                	mv	a0,s1
    84ba:	9982                	jalr	s3
    84bc:	e9950be3          	beq	a0,s9,8352 <_printf_float+0xfc>
    84c0:	401c                	lw	a5,0(s0)
    84c2:	8b89                	andi	a5,a5,2
    84c4:	24079663          	bnez	a5,8710 <_printf_float+0x4ba>
    84c8:	57f2                	lw	a5,60(sp)
    84ca:	4448                	lw	a0,12(s0)
    84cc:	e8f554e3          	bge	a0,a5,8354 <_printf_float+0xfe>
    84d0:	853e                	mv	a0,a5
    84d2:	b549                	j	8354 <_printf_float+0xfe>
    84d4:	06500713          	li	a4,101
    84d8:	19477b63          	bgeu	a4,s4,866e <_printf_float+0x418>
    84dc:	4428                	lw	a0,72(s0)
    84de:	446c                	lw	a1,76(s0)
    84e0:	4601                	li	a2,0
    84e2:	4681                	li	a3,0
    84e4:	f5efe0ef          	jal	ra,6c42 <__eqdf2>
    84e8:	e939                	bnez	a0,853e <_printf_float+0x2e8>
    84ea:	4685                	li	a3,1
    84ec:	00003617          	auipc	a2,0x3
    84f0:	69c60613          	addi	a2,a2,1692 # bb88 <__clz_tab+0x118>
    84f4:	85ca                	mv	a1,s2
    84f6:	8526                	mv	a0,s1
    84f8:	9982                	jalr	s3
    84fa:	e5950ce3          	beq	a0,s9,8352 <_printf_float+0xfc>
    84fe:	5752                	lw	a4,52(sp)
    8500:	57e2                	lw	a5,56(sp)
    8502:	00f74563          	blt	a4,a5,850c <_printf_float+0x2b6>
    8506:	401c                	lw	a5,0(s0)
    8508:	8b85                	andi	a5,a5,1
    850a:	dbdd                	beqz	a5,84c0 <_printf_float+0x26a>
    850c:	86e2                	mv	a3,s8
    850e:	865e                	mv	a2,s7
    8510:	85ca                	mv	a1,s2
    8512:	8526                	mv	a0,s1
    8514:	9982                	jalr	s3
    8516:	57fd                	li	a5,-1
    8518:	e2f50de3          	beq	a0,a5,8352 <_printf_float+0xfc>
    851c:	4a01                	li	s4,0
    851e:	01a40a93          	addi	s5,s0,26
    8522:	5b7d                	li	s6,-1
    8524:	57e2                	lw	a5,56(sp)
    8526:	17fd                	addi	a5,a5,-1
    8528:	f8fa5ce3          	bge	s4,a5,84c0 <_printf_float+0x26a>
    852c:	4685                	li	a3,1
    852e:	8656                	mv	a2,s5
    8530:	85ca                	mv	a1,s2
    8532:	8526                	mv	a0,s1
    8534:	9982                	jalr	s3
    8536:	e1650ee3          	beq	a0,s6,8352 <_printf_float+0xfc>
    853a:	0a05                	addi	s4,s4,1
    853c:	b7e5                	j	8524 <_printf_float+0x2ce>
    853e:	57d2                	lw	a5,52(sp)
    8540:	06f04663          	bgtz	a5,85ac <_printf_float+0x356>
    8544:	4685                	li	a3,1
    8546:	00003617          	auipc	a2,0x3
    854a:	64260613          	addi	a2,a2,1602 # bb88 <__clz_tab+0x118>
    854e:	85ca                	mv	a1,s2
    8550:	8526                	mv	a0,s1
    8552:	9982                	jalr	s3
    8554:	df950fe3          	beq	a0,s9,8352 <_printf_float+0xfc>
    8558:	57d2                	lw	a5,52(sp)
    855a:	5762                	lw	a4,56(sp)
    855c:	8fd9                	or	a5,a5,a4
    855e:	e781                	bnez	a5,8566 <_printf_float+0x310>
    8560:	401c                	lw	a5,0(s0)
    8562:	8b85                	andi	a5,a5,1
    8564:	dfb1                	beqz	a5,84c0 <_printf_float+0x26a>
    8566:	86e2                	mv	a3,s8
    8568:	865e                	mv	a2,s7
    856a:	85ca                	mv	a1,s2
    856c:	8526                	mv	a0,s1
    856e:	9982                	jalr	s3
    8570:	57fd                	li	a5,-1
    8572:	def500e3          	beq	a0,a5,8352 <_printf_float+0xfc>
    8576:	4a01                	li	s4,0
    8578:	01a40b13          	addi	s6,s0,26
    857c:	5bfd                	li	s7,-1
    857e:	57d2                	lw	a5,52(sp)
    8580:	40f007b3          	neg	a5,a5
    8584:	00fa4b63          	blt	s4,a5,859a <_printf_float+0x344>
    8588:	56e2                	lw	a3,56(sp)
    858a:	8656                	mv	a2,s5
    858c:	85ca                	mv	a1,s2
    858e:	8526                	mv	a0,s1
    8590:	9982                	jalr	s3
    8592:	57fd                	li	a5,-1
    8594:	f2f516e3          	bne	a0,a5,84c0 <_printf_float+0x26a>
    8598:	bb6d                	j	8352 <_printf_float+0xfc>
    859a:	4685                	li	a3,1
    859c:	865a                	mv	a2,s6
    859e:	85ca                	mv	a1,s2
    85a0:	8526                	mv	a0,s1
    85a2:	9982                	jalr	s3
    85a4:	db7507e3          	beq	a0,s7,8352 <_printf_float+0xfc>
    85a8:	0a05                	addi	s4,s4,1
    85aa:	bfd1                	j	857e <_printf_float+0x328>
    85ac:	4c3c                	lw	a5,88(s0)
    85ae:	5a62                	lw	s4,56(sp)
    85b0:	0147d363          	bge	a5,s4,85b6 <_printf_float+0x360>
    85b4:	8a3e                	mv	s4,a5
    85b6:	01405a63          	blez	s4,85ca <_printf_float+0x374>
    85ba:	86d2                	mv	a3,s4
    85bc:	8656                	mv	a2,s5
    85be:	85ca                	mv	a1,s2
    85c0:	8526                	mv	a0,s1
    85c2:	9982                	jalr	s3
    85c4:	57fd                	li	a5,-1
    85c6:	d8f506e3          	beq	a0,a5,8352 <_printf_float+0xfc>
    85ca:	4c81                	li	s9,0
    85cc:	01a40d13          	addi	s10,s0,26
    85d0:	5dfd                	li	s11,-1
    85d2:	a809                	j	85e4 <_printf_float+0x38e>
    85d4:	4685                	li	a3,1
    85d6:	866a                	mv	a2,s10
    85d8:	85ca                	mv	a1,s2
    85da:	8526                	mv	a0,s1
    85dc:	9982                	jalr	s3
    85de:	d7b50ae3          	beq	a0,s11,8352 <_printf_float+0xfc>
    85e2:	0c85                	addi	s9,s9,1
    85e4:	05842b03          	lw	s6,88(s0)
    85e8:	87d2                	mv	a5,s4
    85ea:	000a5363          	bgez	s4,85f0 <_printf_float+0x39a>
    85ee:	4781                	li	a5,0
    85f0:	40fb07b3          	sub	a5,s6,a5
    85f4:	fefcc0e3          	blt	s9,a5,85d4 <_printf_float+0x37e>
    85f8:	5752                	lw	a4,52(sp)
    85fa:	57e2                	lw	a5,56(sp)
    85fc:	02f74d63          	blt	a4,a5,8636 <_printf_float+0x3e0>
    8600:	401c                	lw	a5,0(s0)
    8602:	8b85                	andi	a5,a5,1
    8604:	eb8d                	bnez	a5,8636 <_printf_float+0x3e0>
    8606:	57e2                	lw	a5,56(sp)
    8608:	5752                	lw	a4,52(sp)
    860a:	40e78a33          	sub	s4,a5,a4
    860e:	00eb4463          	blt	s6,a4,8616 <_printf_float+0x3c0>
    8612:	41678a33          	sub	s4,a5,s6
    8616:	01405b63          	blez	s4,862c <_printf_float+0x3d6>
    861a:	86d2                	mv	a3,s4
    861c:	016a8633          	add	a2,s5,s6
    8620:	85ca                	mv	a1,s2
    8622:	8526                	mv	a0,s1
    8624:	9982                	jalr	s3
    8626:	57fd                	li	a5,-1
    8628:	d2f505e3          	beq	a0,a5,8352 <_printf_float+0xfc>
    862c:	4a81                	li	s5,0
    862e:	01a40b13          	addi	s6,s0,26
    8632:	5bfd                	li	s7,-1
    8634:	a015                	j	8658 <_printf_float+0x402>
    8636:	86e2                	mv	a3,s8
    8638:	865e                	mv	a2,s7
    863a:	85ca                	mv	a1,s2
    863c:	8526                	mv	a0,s1
    863e:	9982                	jalr	s3
    8640:	57fd                	li	a5,-1
    8642:	fcf512e3          	bne	a0,a5,8606 <_printf_float+0x3b0>
    8646:	b331                	j	8352 <_printf_float+0xfc>
    8648:	4685                	li	a3,1
    864a:	865a                	mv	a2,s6
    864c:	85ca                	mv	a1,s2
    864e:	8526                	mv	a0,s1
    8650:	9982                	jalr	s3
    8652:	d17500e3          	beq	a0,s7,8352 <_printf_float+0xfc>
    8656:	0a85                	addi	s5,s5,1
    8658:	5752                	lw	a4,52(sp)
    865a:	57e2                	lw	a5,56(sp)
    865c:	8f99                	sub	a5,a5,a4
    865e:	8752                	mv	a4,s4
    8660:	000a5363          	bgez	s4,8666 <_printf_float+0x410>
    8664:	4701                	li	a4,0
    8666:	8f99                	sub	a5,a5,a4
    8668:	fefac0e3          	blt	s5,a5,8648 <_printf_float+0x3f2>
    866c:	bd91                	j	84c0 <_printf_float+0x26a>
    866e:	56e2                	lw	a3,56(sp)
    8670:	4705                	li	a4,1
    8672:	00d74463          	blt	a4,a3,867a <_printf_float+0x424>
    8676:	8b85                	andi	a5,a5,1
    8678:	c7b5                	beqz	a5,86e4 <_printf_float+0x48e>
    867a:	4685                	li	a3,1
    867c:	8656                	mv	a2,s5
    867e:	85ca                	mv	a1,s2
    8680:	8526                	mv	a0,s1
    8682:	9982                	jalr	s3
    8684:	5a7d                	li	s4,-1
    8686:	cd4506e3          	beq	a0,s4,8352 <_printf_float+0xfc>
    868a:	86e2                	mv	a3,s8
    868c:	865e                	mv	a2,s7
    868e:	85ca                	mv	a1,s2
    8690:	8526                	mv	a0,s1
    8692:	9982                	jalr	s3
    8694:	cb450fe3          	beq	a0,s4,8352 <_printf_float+0xfc>
    8698:	4428                	lw	a0,72(s0)
    869a:	446c                	lw	a1,76(s0)
    869c:	4601                	li	a2,0
    869e:	4681                	li	a3,0
    86a0:	da2fe0ef          	jal	ra,6c42 <__eqdf2>
    86a4:	c91d                	beqz	a0,86da <_printf_float+0x484>
    86a6:	56e2                	lw	a3,56(sp)
    86a8:	001a8613          	addi	a2,s5,1
    86ac:	85ca                	mv	a1,s2
    86ae:	16fd                	addi	a3,a3,-1
    86b0:	8526                	mv	a0,s1
    86b2:	9982                	jalr	s3
    86b4:	c9450fe3          	beq	a0,s4,8352 <_printf_float+0xfc>
    86b8:	86da                	mv	a3,s6
    86ba:	05040613          	addi	a2,s0,80
    86be:	b5f9                	j	858c <_printf_float+0x336>
    86c0:	4685                	li	a3,1
    86c2:	8656                	mv	a2,s5
    86c4:	85ca                	mv	a1,s2
    86c6:	8526                	mv	a0,s1
    86c8:	9982                	jalr	s3
    86ca:	c97504e3          	beq	a0,s7,8352 <_printf_float+0xfc>
    86ce:	0a05                	addi	s4,s4,1
    86d0:	57e2                	lw	a5,56(sp)
    86d2:	17fd                	addi	a5,a5,-1
    86d4:	fefa46e3          	blt	s4,a5,86c0 <_printf_float+0x46a>
    86d8:	b7c5                	j	86b8 <_printf_float+0x462>
    86da:	4a01                	li	s4,0
    86dc:	01a40a93          	addi	s5,s0,26
    86e0:	5bfd                	li	s7,-1
    86e2:	b7fd                	j	86d0 <_printf_float+0x47a>
    86e4:	4685                	li	a3,1
    86e6:	8656                	mv	a2,s5
    86e8:	85ca                	mv	a1,s2
    86ea:	8526                	mv	a0,s1
    86ec:	9982                	jalr	s3
    86ee:	fd9515e3          	bne	a0,s9,86b8 <_printf_float+0x462>
    86f2:	b185                	j	8352 <_printf_float+0xfc>
    86f4:	4685                	li	a3,1
    86f6:	8656                	mv	a2,s5
    86f8:	85ca                	mv	a1,s2
    86fa:	8526                	mv	a0,s1
    86fc:	9982                	jalr	s3
    86fe:	c5650ae3          	beq	a0,s6,8352 <_printf_float+0xfc>
    8702:	0a05                	addi	s4,s4,1
    8704:	445c                	lw	a5,12(s0)
    8706:	5772                	lw	a4,60(sp)
    8708:	8f99                	sub	a5,a5,a4
    870a:	fefa45e3          	blt	s4,a5,86f4 <_printf_float+0x49e>
    870e:	bb6d                	j	84c8 <_printf_float+0x272>
    8710:	4a01                	li	s4,0
    8712:	01940a93          	addi	s5,s0,25
    8716:	5b7d                	li	s6,-1
    8718:	b7f5                	j	8704 <_printf_float+0x4ae>

0000871a <_printf_common>:
    871a:	7179                	addi	sp,sp,-48
    871c:	ca56                	sw	s5,20(sp)
    871e:	499c                	lw	a5,16(a1)
    8720:	8aba                	mv	s5,a4
    8722:	4598                	lw	a4,8(a1)
    8724:	d422                	sw	s0,40(sp)
    8726:	d226                	sw	s1,36(sp)
    8728:	ce4e                	sw	s3,28(sp)
    872a:	cc52                	sw	s4,24(sp)
    872c:	d606                	sw	ra,44(sp)
    872e:	d04a                	sw	s2,32(sp)
    8730:	c85a                	sw	s6,16(sp)
    8732:	c65e                	sw	s7,12(sp)
    8734:	89aa                	mv	s3,a0
    8736:	842e                	mv	s0,a1
    8738:	84b2                	mv	s1,a2
    873a:	8a36                	mv	s4,a3
    873c:	00e7d363          	bge	a5,a4,8742 <_printf_common+0x28>
    8740:	87ba                	mv	a5,a4
    8742:	c09c                	sw	a5,0(s1)
    8744:	04344703          	lbu	a4,67(s0)
    8748:	c319                	beqz	a4,874e <_printf_common+0x34>
    874a:	0785                	addi	a5,a5,1
    874c:	c09c                	sw	a5,0(s1)
    874e:	401c                	lw	a5,0(s0)
    8750:	0207f793          	andi	a5,a5,32
    8754:	c781                	beqz	a5,875c <_printf_common+0x42>
    8756:	409c                	lw	a5,0(s1)
    8758:	0789                	addi	a5,a5,2
    875a:	c09c                	sw	a5,0(s1)
    875c:	00042903          	lw	s2,0(s0)
    8760:	00697913          	andi	s2,s2,6
    8764:	00091a63          	bnez	s2,8778 <_printf_common+0x5e>
    8768:	01940b13          	addi	s6,s0,25
    876c:	5bfd                	li	s7,-1
    876e:	445c                	lw	a5,12(s0)
    8770:	4098                	lw	a4,0(s1)
    8772:	8f99                	sub	a5,a5,a4
    8774:	04f94c63          	blt	s2,a5,87cc <_printf_common+0xb2>
    8778:	401c                	lw	a5,0(s0)
    877a:	04344683          	lbu	a3,67(s0)
    877e:	0207f793          	andi	a5,a5,32
    8782:	00d036b3          	snez	a3,a3
    8786:	eba5                	bnez	a5,87f6 <_printf_common+0xdc>
    8788:	04340613          	addi	a2,s0,67
    878c:	85d2                	mv	a1,s4
    878e:	854e                	mv	a0,s3
    8790:	9a82                	jalr	s5
    8792:	57fd                	li	a5,-1
    8794:	04f50363          	beq	a0,a5,87da <_printf_common+0xc0>
    8798:	401c                	lw	a5,0(s0)
    879a:	4611                	li	a2,4
    879c:	4098                	lw	a4,0(s1)
    879e:	8b99                	andi	a5,a5,6
    87a0:	4454                	lw	a3,12(s0)
    87a2:	4481                	li	s1,0
    87a4:	00c79763          	bne	a5,a2,87b2 <_printf_common+0x98>
    87a8:	40e684b3          	sub	s1,a3,a4
    87ac:	0004d363          	bgez	s1,87b2 <_printf_common+0x98>
    87b0:	4481                	li	s1,0
    87b2:	441c                	lw	a5,8(s0)
    87b4:	4818                	lw	a4,16(s0)
    87b6:	00f75463          	bge	a4,a5,87be <_printf_common+0xa4>
    87ba:	8f99                	sub	a5,a5,a4
    87bc:	94be                	add	s1,s1,a5
    87be:	4901                	li	s2,0
    87c0:	0469                	addi	s0,s0,26
    87c2:	5b7d                	li	s6,-1
    87c4:	05249863          	bne	s1,s2,8814 <_printf_common+0xfa>
    87c8:	4501                	li	a0,0
    87ca:	a809                	j	87dc <_printf_common+0xc2>
    87cc:	4685                	li	a3,1
    87ce:	865a                	mv	a2,s6
    87d0:	85d2                	mv	a1,s4
    87d2:	854e                	mv	a0,s3
    87d4:	9a82                	jalr	s5
    87d6:	01751e63          	bne	a0,s7,87f2 <_printf_common+0xd8>
    87da:	557d                	li	a0,-1
    87dc:	50b2                	lw	ra,44(sp)
    87de:	5422                	lw	s0,40(sp)
    87e0:	5492                	lw	s1,36(sp)
    87e2:	5902                	lw	s2,32(sp)
    87e4:	49f2                	lw	s3,28(sp)
    87e6:	4a62                	lw	s4,24(sp)
    87e8:	4ad2                	lw	s5,20(sp)
    87ea:	4b42                	lw	s6,16(sp)
    87ec:	4bb2                	lw	s7,12(sp)
    87ee:	6145                	addi	sp,sp,48
    87f0:	8082                	ret
    87f2:	0905                	addi	s2,s2,1
    87f4:	bfad                	j	876e <_printf_common+0x54>
    87f6:	00d40733          	add	a4,s0,a3
    87fa:	03000613          	li	a2,48
    87fe:	04c701a3          	sb	a2,67(a4)
    8802:	04544703          	lbu	a4,69(s0)
    8806:	00168793          	addi	a5,a3,1
    880a:	97a2                	add	a5,a5,s0
    880c:	0689                	addi	a3,a3,2
    880e:	04e781a3          	sb	a4,67(a5)
    8812:	bf9d                	j	8788 <_printf_common+0x6e>
    8814:	4685                	li	a3,1
    8816:	8622                	mv	a2,s0
    8818:	85d2                	mv	a1,s4
    881a:	854e                	mv	a0,s3
    881c:	9a82                	jalr	s5
    881e:	fb650ee3          	beq	a0,s6,87da <_printf_common+0xc0>
    8822:	0905                	addi	s2,s2,1
    8824:	b745                	j	87c4 <_printf_common+0xaa>

00008826 <_printf_i>:
    8826:	7179                	addi	sp,sp,-48
    8828:	d422                	sw	s0,40(sp)
    882a:	d226                	sw	s1,36(sp)
    882c:	d04a                	sw	s2,32(sp)
    882e:	ce4e                	sw	s3,28(sp)
    8830:	d606                	sw	ra,44(sp)
    8832:	cc52                	sw	s4,24(sp)
    8834:	ca56                	sw	s5,20(sp)
    8836:	c85a                	sw	s6,16(sp)
    8838:	89b6                	mv	s3,a3
    883a:	2d94                	lbu	a3,24(a1)
    883c:	06900793          	li	a5,105
    8840:	8932                	mv	s2,a2
    8842:	84aa                	mv	s1,a0
    8844:	842e                	mv	s0,a1
    8846:	04358613          	addi	a2,a1,67
    884a:	02f68d63          	beq	a3,a5,8884 <_printf_i+0x5e>
    884e:	06d7e263          	bltu	a5,a3,88b2 <_printf_i+0x8c>
    8852:	05800793          	li	a5,88
    8856:	18f68763          	beq	a3,a5,89e4 <_printf_i+0x1be>
    885a:	00d7ed63          	bltu	a5,a3,8874 <_printf_i+0x4e>
    885e:	20068f63          	beqz	a3,8a7c <_printf_i+0x256>
    8862:	04300793          	li	a5,67
    8866:	0af68f63          	beq	a3,a5,8924 <_printf_i+0xfe>
    886a:	04240a93          	addi	s5,s0,66
    886e:	04d40123          	sb	a3,66(s0)
    8872:	a0d1                	j	8936 <_printf_i+0x110>
    8874:	06300793          	li	a5,99
    8878:	0af68663          	beq	a3,a5,8924 <_printf_i+0xfe>
    887c:	06400793          	li	a5,100
    8880:	fef695e3          	bne	a3,a5,886a <_printf_i+0x44>
    8884:	401c                	lw	a5,0(s0)
    8886:	4308                	lw	a0,0(a4)
    8888:	0807f693          	andi	a3,a5,128
    888c:	00450593          	addi	a1,a0,4
    8890:	c6cd                	beqz	a3,893a <_printf_i+0x114>
    8892:	411c                	lw	a5,0(a0)
    8894:	c30c                	sw	a1,0(a4)
    8896:	0007d863          	bgez	a5,88a6 <_printf_i+0x80>
    889a:	02d00713          	li	a4,45
    889e:	40f007b3          	neg	a5,a5
    88a2:	04e401a3          	sb	a4,67(s0)
    88a6:	00003697          	auipc	a3,0x3
    88aa:	2e668693          	addi	a3,a3,742 # bb8c <__clz_tab+0x11c>
    88ae:	4729                	li	a4,10
    88b0:	a86d                	j	896a <_printf_i+0x144>
    88b2:	07000793          	li	a5,112
    88b6:	16f68363          	beq	a3,a5,8a1c <_printf_i+0x1f6>
    88ba:	02d7e563          	bltu	a5,a3,88e4 <_printf_i+0xbe>
    88be:	06e00793          	li	a5,110
    88c2:	18f68a63          	beq	a3,a5,8a56 <_printf_i+0x230>
    88c6:	06f00793          	li	a5,111
    88ca:	faf690e3          	bne	a3,a5,886a <_printf_i+0x44>
    88ce:	400c                	lw	a1,0(s0)
    88d0:	431c                	lw	a5,0(a4)
    88d2:	0805f813          	andi	a6,a1,128
    88d6:	00478513          	addi	a0,a5,4
    88da:	06080863          	beqz	a6,894a <_printf_i+0x124>
    88de:	c308                	sw	a0,0(a4)
    88e0:	439c                	lw	a5,0(a5)
    88e2:	a88d                	j	8954 <_printf_i+0x12e>
    88e4:	07500793          	li	a5,117
    88e8:	fef683e3          	beq	a3,a5,88ce <_printf_i+0xa8>
    88ec:	07800793          	li	a5,120
    88f0:	12f68a63          	beq	a3,a5,8a24 <_printf_i+0x1fe>
    88f4:	07300793          	li	a5,115
    88f8:	f6f699e3          	bne	a3,a5,886a <_printf_i+0x44>
    88fc:	431c                	lw	a5,0(a4)
    88fe:	41d0                	lw	a2,4(a1)
    8900:	4581                	li	a1,0
    8902:	00478693          	addi	a3,a5,4
    8906:	c314                	sw	a3,0(a4)
    8908:	0007aa83          	lw	s5,0(a5)
    890c:	8556                	mv	a0,s5
    890e:	6dc010ef          	jal	ra,9fea <memchr>
    8912:	c501                	beqz	a0,891a <_printf_i+0xf4>
    8914:	41550533          	sub	a0,a0,s5
    8918:	c048                	sw	a0,4(s0)
    891a:	405c                	lw	a5,4(s0)
    891c:	c81c                	sw	a5,16(s0)
    891e:	040401a3          	sb	zero,67(s0)
    8922:	a861                	j	89ba <_printf_i+0x194>
    8924:	431c                	lw	a5,0(a4)
    8926:	04240a93          	addi	s5,s0,66
    892a:	00478693          	addi	a3,a5,4
    892e:	439c                	lw	a5,0(a5)
    8930:	c314                	sw	a3,0(a4)
    8932:	04f40123          	sb	a5,66(s0)
    8936:	4785                	li	a5,1
    8938:	b7d5                	j	891c <_printf_i+0xf6>
    893a:	0407f693          	andi	a3,a5,64
    893e:	411c                	lw	a5,0(a0)
    8940:	c30c                	sw	a1,0(a4)
    8942:	dab1                	beqz	a3,8896 <_printf_i+0x70>
    8944:	07c2                	slli	a5,a5,0x10
    8946:	87c1                	srai	a5,a5,0x10
    8948:	b7b9                	j	8896 <_printf_i+0x70>
    894a:	0405f593          	andi	a1,a1,64
    894e:	c308                	sw	a0,0(a4)
    8950:	d9c1                	beqz	a1,88e0 <_printf_i+0xba>
    8952:	239e                	lhu	a5,0(a5)
    8954:	06f00713          	li	a4,111
    8958:	0ee68763          	beq	a3,a4,8a46 <_printf_i+0x220>
    895c:	00003697          	auipc	a3,0x3
    8960:	23068693          	addi	a3,a3,560 # bb8c <__clz_tab+0x11c>
    8964:	4729                	li	a4,10
    8966:	040401a3          	sb	zero,67(s0)
    896a:	404c                	lw	a1,4(s0)
    896c:	c40c                	sw	a1,8(s0)
    896e:	0005c563          	bltz	a1,8978 <_printf_i+0x152>
    8972:	4008                	lw	a0,0(s0)
    8974:	996d                	andi	a0,a0,-5
    8976:	c008                	sw	a0,0(s0)
    8978:	e399                	bnez	a5,897e <_printf_i+0x158>
    897a:	8ab2                	mv	s5,a2
    897c:	cd89                	beqz	a1,8996 <_printf_i+0x170>
    897e:	8ab2                	mv	s5,a2
    8980:	02e7f5b3          	remu	a1,a5,a4
    8984:	1afd                	addi	s5,s5,-1
    8986:	95b6                	add	a1,a1,a3
    8988:	218c                	lbu	a1,0(a1)
    898a:	00ba8023          	sb	a1,0(s5)
    898e:	02e7d5b3          	divu	a1,a5,a4
    8992:	0ce7f063          	bgeu	a5,a4,8a52 <_printf_i+0x22c>
    8996:	47a1                	li	a5,8
    8998:	00f71e63          	bne	a4,a5,89b4 <_printf_i+0x18e>
    899c:	401c                	lw	a5,0(s0)
    899e:	8b85                	andi	a5,a5,1
    89a0:	cb91                	beqz	a5,89b4 <_printf_i+0x18e>
    89a2:	4058                	lw	a4,4(s0)
    89a4:	481c                	lw	a5,16(s0)
    89a6:	00e7c763          	blt	a5,a4,89b4 <_printf_i+0x18e>
    89aa:	03000793          	li	a5,48
    89ae:	fefa8fa3          	sb	a5,-1(s5)
    89b2:	1afd                	addi	s5,s5,-1
    89b4:	41560633          	sub	a2,a2,s5
    89b8:	c810                	sw	a2,16(s0)
    89ba:	874e                	mv	a4,s3
    89bc:	86ca                	mv	a3,s2
    89be:	0070                	addi	a2,sp,12
    89c0:	85a2                	mv	a1,s0
    89c2:	8526                	mv	a0,s1
    89c4:	d57ff0ef          	jal	ra,871a <_printf_common>
    89c8:	5a7d                	li	s4,-1
    89ca:	0b451d63          	bne	a0,s4,8a84 <_printf_i+0x25e>
    89ce:	557d                	li	a0,-1
    89d0:	50b2                	lw	ra,44(sp)
    89d2:	5422                	lw	s0,40(sp)
    89d4:	5492                	lw	s1,36(sp)
    89d6:	5902                	lw	s2,32(sp)
    89d8:	49f2                	lw	s3,28(sp)
    89da:	4a62                	lw	s4,24(sp)
    89dc:	4ad2                	lw	s5,20(sp)
    89de:	4b42                	lw	s6,16(sp)
    89e0:	6145                	addi	sp,sp,48
    89e2:	8082                	ret
    89e4:	04d582a3          	sb	a3,69(a1)
    89e8:	00003697          	auipc	a3,0x3
    89ec:	1a468693          	addi	a3,a3,420 # bb8c <__clz_tab+0x11c>
    89f0:	400c                	lw	a1,0(s0)
    89f2:	4308                	lw	a0,0(a4)
    89f4:	0805f813          	andi	a6,a1,128
    89f8:	411c                	lw	a5,0(a0)
    89fa:	0511                	addi	a0,a0,4
    89fc:	02080d63          	beqz	a6,8a36 <_printf_i+0x210>
    8a00:	c308                	sw	a0,0(a4)
    8a02:	0015f713          	andi	a4,a1,1
    8a06:	c701                	beqz	a4,8a0e <_printf_i+0x1e8>
    8a08:	0205e593          	ori	a1,a1,32
    8a0c:	c00c                	sw	a1,0(s0)
    8a0e:	4741                	li	a4,16
    8a10:	fbb9                	bnez	a5,8966 <_printf_i+0x140>
    8a12:	400c                	lw	a1,0(s0)
    8a14:	fdf5f593          	andi	a1,a1,-33
    8a18:	c00c                	sw	a1,0(s0)
    8a1a:	b7b1                	j	8966 <_printf_i+0x140>
    8a1c:	419c                	lw	a5,0(a1)
    8a1e:	0207e793          	ori	a5,a5,32
    8a22:	c19c                	sw	a5,0(a1)
    8a24:	07800793          	li	a5,120
    8a28:	04f402a3          	sb	a5,69(s0)
    8a2c:	00003697          	auipc	a3,0x3
    8a30:	17468693          	addi	a3,a3,372 # bba0 <__clz_tab+0x130>
    8a34:	bf75                	j	89f0 <_printf_i+0x1ca>
    8a36:	0405f813          	andi	a6,a1,64
    8a3a:	c308                	sw	a0,0(a4)
    8a3c:	fc0803e3          	beqz	a6,8a02 <_printf_i+0x1dc>
    8a40:	07c2                	slli	a5,a5,0x10
    8a42:	83c1                	srli	a5,a5,0x10
    8a44:	bf7d                	j	8a02 <_printf_i+0x1dc>
    8a46:	00003697          	auipc	a3,0x3
    8a4a:	14668693          	addi	a3,a3,326 # bb8c <__clz_tab+0x11c>
    8a4e:	4721                	li	a4,8
    8a50:	bf19                	j	8966 <_printf_i+0x140>
    8a52:	87ae                	mv	a5,a1
    8a54:	b735                	j	8980 <_printf_i+0x15a>
    8a56:	4194                	lw	a3,0(a1)
    8a58:	431c                	lw	a5,0(a4)
    8a5a:	49cc                	lw	a1,20(a1)
    8a5c:	0806f813          	andi	a6,a3,128
    8a60:	00478513          	addi	a0,a5,4
    8a64:	00080663          	beqz	a6,8a70 <_printf_i+0x24a>
    8a68:	c308                	sw	a0,0(a4)
    8a6a:	439c                	lw	a5,0(a5)
    8a6c:	c38c                	sw	a1,0(a5)
    8a6e:	a039                	j	8a7c <_printf_i+0x256>
    8a70:	c308                	sw	a0,0(a4)
    8a72:	0406f693          	andi	a3,a3,64
    8a76:	439c                	lw	a5,0(a5)
    8a78:	daf5                	beqz	a3,8a6c <_printf_i+0x246>
    8a7a:	a38e                	sh	a1,0(a5)
    8a7c:	00042823          	sw	zero,16(s0)
    8a80:	8ab2                	mv	s5,a2
    8a82:	bf25                	j	89ba <_printf_i+0x194>
    8a84:	4814                	lw	a3,16(s0)
    8a86:	8656                	mv	a2,s5
    8a88:	85ca                	mv	a1,s2
    8a8a:	8526                	mv	a0,s1
    8a8c:	9982                	jalr	s3
    8a8e:	f54500e3          	beq	a0,s4,89ce <_printf_i+0x1a8>
    8a92:	401c                	lw	a5,0(s0)
    8a94:	8b89                	andi	a5,a5,2
    8a96:	e78d                	bnez	a5,8ac0 <_printf_i+0x29a>
    8a98:	47b2                	lw	a5,12(sp)
    8a9a:	4448                	lw	a0,12(s0)
    8a9c:	f2f55ae3          	bge	a0,a5,89d0 <_printf_i+0x1aa>
    8aa0:	853e                	mv	a0,a5
    8aa2:	b73d                	j	89d0 <_printf_i+0x1aa>
    8aa4:	4685                	li	a3,1
    8aa6:	8656                	mv	a2,s5
    8aa8:	85ca                	mv	a1,s2
    8aaa:	8526                	mv	a0,s1
    8aac:	9982                	jalr	s3
    8aae:	f36500e3          	beq	a0,s6,89ce <_printf_i+0x1a8>
    8ab2:	0a05                	addi	s4,s4,1
    8ab4:	445c                	lw	a5,12(s0)
    8ab6:	4732                	lw	a4,12(sp)
    8ab8:	8f99                	sub	a5,a5,a4
    8aba:	fefa45e3          	blt	s4,a5,8aa4 <_printf_i+0x27e>
    8abe:	bfe9                	j	8a98 <_printf_i+0x272>
    8ac0:	4a01                	li	s4,0
    8ac2:	01940a93          	addi	s5,s0,25
    8ac6:	5b7d                	li	s6,-1
    8ac8:	b7f5                	j	8ab4 <_printf_i+0x28e>

00008aca <iprintf>:
    8aca:	7139                	addi	sp,sp,-64
    8acc:	da3e                	sw	a5,52(sp)
    8ace:	d22e                	sw	a1,36(sp)
    8ad0:	d432                	sw	a2,40(sp)
    8ad2:	d636                	sw	a3,44(sp)
    8ad4:	d83a                	sw	a4,48(sp)
    8ad6:	dc42                	sw	a6,56(sp)
    8ad8:	de46                	sw	a7,60(sp)
    8ada:	82818793          	addi	a5,gp,-2008 # 20000218 <_impure_ptr>
    8ade:	cc22                	sw	s0,24(sp)
    8ae0:	4380                	lw	s0,0(a5)
    8ae2:	ca26                	sw	s1,20(sp)
    8ae4:	ce06                	sw	ra,28(sp)
    8ae6:	84aa                	mv	s1,a0
    8ae8:	c411                	beqz	s0,8af4 <iprintf+0x2a>
    8aea:	4c1c                	lw	a5,24(s0)
    8aec:	e781                	bnez	a5,8af4 <iprintf+0x2a>
    8aee:	8522                	mv	a0,s0
    8af0:	274010ef          	jal	ra,9d64 <__sinit>
    8af4:	440c                	lw	a1,8(s0)
    8af6:	1054                	addi	a3,sp,36
    8af8:	8626                	mv	a2,s1
    8afa:	8522                	mv	a0,s0
    8afc:	c636                	sw	a3,12(sp)
    8afe:	5ff010ef          	jal	ra,a8fc <_vfiprintf_r>
    8b02:	40f2                	lw	ra,28(sp)
    8b04:	4462                	lw	s0,24(sp)
    8b06:	44d2                	lw	s1,20(sp)
    8b08:	6121                	addi	sp,sp,64
    8b0a:	8082                	ret

00008b0c <_puts_r>:
    8b0c:	1101                	addi	sp,sp,-32
    8b0e:	ca26                	sw	s1,20(sp)
    8b10:	c84a                	sw	s2,16(sp)
    8b12:	ce06                	sw	ra,28(sp)
    8b14:	cc22                	sw	s0,24(sp)
    8b16:	c64e                	sw	s3,12(sp)
    8b18:	c452                	sw	s4,8(sp)
    8b1a:	84aa                	mv	s1,a0
    8b1c:	892e                	mv	s2,a1
    8b1e:	c509                	beqz	a0,8b28 <_puts_r+0x1c>
    8b20:	4d1c                	lw	a5,24(a0)
    8b22:	e399                	bnez	a5,8b28 <_puts_r+0x1c>
    8b24:	240010ef          	jal	ra,9d64 <__sinit>
    8b28:	4c9c                	lw	a5,24(s1)
    8b2a:	4480                	lw	s0,8(s1)
    8b2c:	e781                	bnez	a5,8b34 <_puts_r+0x28>
    8b2e:	8526                	mv	a0,s1
    8b30:	234010ef          	jal	ra,9d64 <__sinit>
    8b34:	00003797          	auipc	a5,0x3
    8b38:	0ec78793          	addi	a5,a5,236 # bc20 <__sf_fake_stdin>
    8b3c:	02f41b63          	bne	s0,a5,8b72 <_puts_r+0x66>
    8b40:	40c0                	lw	s0,4(s1)
    8b42:	245e                	lhu	a5,12(s0)
    8b44:	8ba1                	andi	a5,a5,8
    8b46:	c7b1                	beqz	a5,8b92 <_puts_r+0x86>
    8b48:	481c                	lw	a5,16(s0)
    8b4a:	c7a1                	beqz	a5,8b92 <_puts_r+0x86>
    8b4c:	59fd                	li	s3,-1
    8b4e:	4a29                	li	s4,10
    8b50:	441c                	lw	a5,8(s0)
    8b52:	00094583          	lbu	a1,0(s2)
    8b56:	17fd                	addi	a5,a5,-1
    8b58:	e9b1                	bnez	a1,8bac <_puts_r+0xa0>
    8b5a:	c41c                	sw	a5,8(s0)
    8b5c:	0607dd63          	bgez	a5,8bd6 <_puts_r+0xca>
    8b60:	8622                	mv	a2,s0
    8b62:	45a9                	li	a1,10
    8b64:	8526                	mv	a0,s1
    8b66:	2871                	jal	8c02 <__swbuf_r>
    8b68:	57fd                	li	a5,-1
    8b6a:	02f50863          	beq	a0,a5,8b9a <_puts_r+0x8e>
    8b6e:	4529                	li	a0,10
    8b70:	a035                	j	8b9c <_puts_r+0x90>
    8b72:	00003797          	auipc	a5,0x3
    8b76:	0ce78793          	addi	a5,a5,206 # bc40 <__sf_fake_stdout>
    8b7a:	00f41463          	bne	s0,a5,8b82 <_puts_r+0x76>
    8b7e:	4480                	lw	s0,8(s1)
    8b80:	b7c9                	j	8b42 <_puts_r+0x36>
    8b82:	00003797          	auipc	a5,0x3
    8b86:	07e78793          	addi	a5,a5,126 # bc00 <__sf_fake_stderr>
    8b8a:	faf41ce3          	bne	s0,a5,8b42 <_puts_r+0x36>
    8b8e:	44c0                	lw	s0,12(s1)
    8b90:	bf4d                	j	8b42 <_puts_r+0x36>
    8b92:	85a2                	mv	a1,s0
    8b94:	8526                	mv	a0,s1
    8b96:	223d                	jal	8cc4 <__swsetup_r>
    8b98:	d955                	beqz	a0,8b4c <_puts_r+0x40>
    8b9a:	557d                	li	a0,-1
    8b9c:	40f2                	lw	ra,28(sp)
    8b9e:	4462                	lw	s0,24(sp)
    8ba0:	44d2                	lw	s1,20(sp)
    8ba2:	4942                	lw	s2,16(sp)
    8ba4:	49b2                	lw	s3,12(sp)
    8ba6:	4a22                	lw	s4,8(sp)
    8ba8:	6105                	addi	sp,sp,32
    8baa:	8082                	ret
    8bac:	c41c                	sw	a5,8(s0)
    8bae:	0905                	addi	s2,s2,1
    8bb0:	0007d763          	bgez	a5,8bbe <_puts_r+0xb2>
    8bb4:	4c18                	lw	a4,24(s0)
    8bb6:	00e7ca63          	blt	a5,a4,8bca <_puts_r+0xbe>
    8bba:	01458863          	beq	a1,s4,8bca <_puts_r+0xbe>
    8bbe:	401c                	lw	a5,0(s0)
    8bc0:	00178713          	addi	a4,a5,1
    8bc4:	c018                	sw	a4,0(s0)
    8bc6:	a38c                	sb	a1,0(a5)
    8bc8:	b761                	j	8b50 <_puts_r+0x44>
    8bca:	8622                	mv	a2,s0
    8bcc:	8526                	mv	a0,s1
    8bce:	2815                	jal	8c02 <__swbuf_r>
    8bd0:	f93510e3          	bne	a0,s3,8b50 <_puts_r+0x44>
    8bd4:	b7d9                	j	8b9a <_puts_r+0x8e>
    8bd6:	401c                	lw	a5,0(s0)
    8bd8:	00178713          	addi	a4,a5,1
    8bdc:	c018                	sw	a4,0(s0)
    8bde:	4729                	li	a4,10
    8be0:	a398                	sb	a4,0(a5)
    8be2:	b771                	j	8b6e <_puts_r+0x62>

00008be4 <puts>:
    8be4:	82818793          	addi	a5,gp,-2008 # 20000218 <_impure_ptr>
    8be8:	85aa                	mv	a1,a0
    8bea:	4388                	lw	a0,0(a5)
    8bec:	f21ff06f          	j	8b0c <_puts_r>

00008bf0 <strlen>:
    8bf0:	87aa                	mv	a5,a0
    8bf2:	0785                	addi	a5,a5,1
    8bf4:	fff7c703          	lbu	a4,-1(a5)
    8bf8:	ff6d                	bnez	a4,8bf2 <strlen+0x2>
    8bfa:	40a78533          	sub	a0,a5,a0
    8bfe:	157d                	addi	a0,a0,-1
    8c00:	8082                	ret

00008c02 <__swbuf_r>:
    8c02:	1101                	addi	sp,sp,-32
    8c04:	cc22                	sw	s0,24(sp)
    8c06:	ca26                	sw	s1,20(sp)
    8c08:	c84a                	sw	s2,16(sp)
    8c0a:	ce06                	sw	ra,28(sp)
    8c0c:	c64e                	sw	s3,12(sp)
    8c0e:	84aa                	mv	s1,a0
    8c10:	892e                	mv	s2,a1
    8c12:	8432                	mv	s0,a2
    8c14:	c509                	beqz	a0,8c1e <__swbuf_r+0x1c>
    8c16:	4d1c                	lw	a5,24(a0)
    8c18:	e399                	bnez	a5,8c1e <__swbuf_r+0x1c>
    8c1a:	14a010ef          	jal	ra,9d64 <__sinit>
    8c1e:	00003797          	auipc	a5,0x3
    8c22:	00278793          	addi	a5,a5,2 # bc20 <__sf_fake_stdin>
    8c26:	06f41963          	bne	s0,a5,8c98 <__swbuf_r+0x96>
    8c2a:	40c0                	lw	s0,4(s1)
    8c2c:	4c1c                	lw	a5,24(s0)
    8c2e:	c41c                	sw	a5,8(s0)
    8c30:	245e                	lhu	a5,12(s0)
    8c32:	8ba1                	andi	a5,a5,8
    8c34:	c3d1                	beqz	a5,8cb8 <__swbuf_r+0xb6>
    8c36:	481c                	lw	a5,16(s0)
    8c38:	c3c1                	beqz	a5,8cb8 <__swbuf_r+0xb6>
    8c3a:	481c                	lw	a5,16(s0)
    8c3c:	4008                	lw	a0,0(s0)
    8c3e:	0ff97993          	andi	s3,s2,255
    8c42:	0ff97913          	andi	s2,s2,255
    8c46:	8d1d                	sub	a0,a0,a5
    8c48:	485c                	lw	a5,20(s0)
    8c4a:	00f54763          	blt	a0,a5,8c58 <__swbuf_r+0x56>
    8c4e:	85a2                	mv	a1,s0
    8c50:	8526                	mv	a0,s1
    8c52:	7f5000ef          	jal	ra,9c46 <_fflush_r>
    8c56:	e52d                	bnez	a0,8cc0 <__swbuf_r+0xbe>
    8c58:	441c                	lw	a5,8(s0)
    8c5a:	0505                	addi	a0,a0,1
    8c5c:	17fd                	addi	a5,a5,-1
    8c5e:	c41c                	sw	a5,8(s0)
    8c60:	401c                	lw	a5,0(s0)
    8c62:	00178713          	addi	a4,a5,1
    8c66:	c018                	sw	a4,0(s0)
    8c68:	01378023          	sb	s3,0(a5)
    8c6c:	485c                	lw	a5,20(s0)
    8c6e:	00a78863          	beq	a5,a0,8c7e <__swbuf_r+0x7c>
    8c72:	245e                	lhu	a5,12(s0)
    8c74:	8b85                	andi	a5,a5,1
    8c76:	cb89                	beqz	a5,8c88 <__swbuf_r+0x86>
    8c78:	47a9                	li	a5,10
    8c7a:	00f91763          	bne	s2,a5,8c88 <__swbuf_r+0x86>
    8c7e:	85a2                	mv	a1,s0
    8c80:	8526                	mv	a0,s1
    8c82:	7c5000ef          	jal	ra,9c46 <_fflush_r>
    8c86:	ed0d                	bnez	a0,8cc0 <__swbuf_r+0xbe>
    8c88:	40f2                	lw	ra,28(sp)
    8c8a:	4462                	lw	s0,24(sp)
    8c8c:	854a                	mv	a0,s2
    8c8e:	44d2                	lw	s1,20(sp)
    8c90:	4942                	lw	s2,16(sp)
    8c92:	49b2                	lw	s3,12(sp)
    8c94:	6105                	addi	sp,sp,32
    8c96:	8082                	ret
    8c98:	00003797          	auipc	a5,0x3
    8c9c:	fa878793          	addi	a5,a5,-88 # bc40 <__sf_fake_stdout>
    8ca0:	00f41463          	bne	s0,a5,8ca8 <__swbuf_r+0xa6>
    8ca4:	4480                	lw	s0,8(s1)
    8ca6:	b759                	j	8c2c <__swbuf_r+0x2a>
    8ca8:	00003797          	auipc	a5,0x3
    8cac:	f5878793          	addi	a5,a5,-168 # bc00 <__sf_fake_stderr>
    8cb0:	f6f41ee3          	bne	s0,a5,8c2c <__swbuf_r+0x2a>
    8cb4:	44c0                	lw	s0,12(s1)
    8cb6:	bf9d                	j	8c2c <__swbuf_r+0x2a>
    8cb8:	85a2                	mv	a1,s0
    8cba:	8526                	mv	a0,s1
    8cbc:	2021                	jal	8cc4 <__swsetup_r>
    8cbe:	dd35                	beqz	a0,8c3a <__swbuf_r+0x38>
    8cc0:	597d                	li	s2,-1
    8cc2:	b7d9                	j	8c88 <__swbuf_r+0x86>

00008cc4 <__swsetup_r>:
    8cc4:	1141                	addi	sp,sp,-16
    8cc6:	82818793          	addi	a5,gp,-2008 # 20000218 <_impure_ptr>
    8cca:	c226                	sw	s1,4(sp)
    8ccc:	4384                	lw	s1,0(a5)
    8cce:	c422                	sw	s0,8(sp)
    8cd0:	c04a                	sw	s2,0(sp)
    8cd2:	c606                	sw	ra,12(sp)
    8cd4:	892a                	mv	s2,a0
    8cd6:	842e                	mv	s0,a1
    8cd8:	c491                	beqz	s1,8ce4 <__swsetup_r+0x20>
    8cda:	4c9c                	lw	a5,24(s1)
    8cdc:	e781                	bnez	a5,8ce4 <__swsetup_r+0x20>
    8cde:	8526                	mv	a0,s1
    8ce0:	084010ef          	jal	ra,9d64 <__sinit>
    8ce4:	00003797          	auipc	a5,0x3
    8ce8:	f3c78793          	addi	a5,a5,-196 # bc20 <__sf_fake_stdin>
    8cec:	02f41b63          	bne	s0,a5,8d22 <__swsetup_r+0x5e>
    8cf0:	40c0                	lw	s0,4(s1)
    8cf2:	00c41703          	lh	a4,12(s0)
    8cf6:	01071793          	slli	a5,a4,0x10
    8cfa:	83c1                	srli	a5,a5,0x10
    8cfc:	0087f693          	andi	a3,a5,8
    8d00:	eab5                	bnez	a3,8d74 <__swsetup_r+0xb0>
    8d02:	0107f693          	andi	a3,a5,16
    8d06:	ee95                	bnez	a3,8d42 <__swsetup_r+0x7e>
    8d08:	47a5                	li	a5,9
    8d0a:	00f92023          	sw	a5,0(s2)
    8d0e:	04076713          	ori	a4,a4,64
    8d12:	a45a                	sh	a4,12(s0)
    8d14:	557d                	li	a0,-1
    8d16:	40b2                	lw	ra,12(sp)
    8d18:	4422                	lw	s0,8(sp)
    8d1a:	4492                	lw	s1,4(sp)
    8d1c:	4902                	lw	s2,0(sp)
    8d1e:	0141                	addi	sp,sp,16
    8d20:	8082                	ret
    8d22:	00003797          	auipc	a5,0x3
    8d26:	f1e78793          	addi	a5,a5,-226 # bc40 <__sf_fake_stdout>
    8d2a:	00f41463          	bne	s0,a5,8d32 <__swsetup_r+0x6e>
    8d2e:	4480                	lw	s0,8(s1)
    8d30:	b7c9                	j	8cf2 <__swsetup_r+0x2e>
    8d32:	00003797          	auipc	a5,0x3
    8d36:	ece78793          	addi	a5,a5,-306 # bc00 <__sf_fake_stderr>
    8d3a:	faf41ce3          	bne	s0,a5,8cf2 <__swsetup_r+0x2e>
    8d3e:	44c0                	lw	s0,12(s1)
    8d40:	bf4d                	j	8cf2 <__swsetup_r+0x2e>
    8d42:	8b91                	andi	a5,a5,4
    8d44:	c785                	beqz	a5,8d6c <__swsetup_r+0xa8>
    8d46:	584c                	lw	a1,52(s0)
    8d48:	c991                	beqz	a1,8d5c <__swsetup_r+0x98>
    8d4a:	04440793          	addi	a5,s0,68
    8d4e:	00f58563          	beq	a1,a5,8d58 <__swsetup_r+0x94>
    8d52:	854a                	mv	a0,s2
    8d54:	1cd010ef          	jal	ra,a720 <_free_r>
    8d58:	02042a23          	sw	zero,52(s0)
    8d5c:	245e                	lhu	a5,12(s0)
    8d5e:	00042223          	sw	zero,4(s0)
    8d62:	fdb7f793          	andi	a5,a5,-37
    8d66:	a45e                	sh	a5,12(s0)
    8d68:	481c                	lw	a5,16(s0)
    8d6a:	c01c                	sw	a5,0(s0)
    8d6c:	245e                	lhu	a5,12(s0)
    8d6e:	0087e793          	ori	a5,a5,8
    8d72:	a45e                	sh	a5,12(s0)
    8d74:	481c                	lw	a5,16(s0)
    8d76:	ef81                	bnez	a5,8d8e <__swsetup_r+0xca>
    8d78:	245e                	lhu	a5,12(s0)
    8d7a:	20000713          	li	a4,512
    8d7e:	2807f793          	andi	a5,a5,640
    8d82:	00e78663          	beq	a5,a4,8d8e <__swsetup_r+0xca>
    8d86:	85a2                	mv	a1,s0
    8d88:	854a                	mv	a0,s2
    8d8a:	1c0010ef          	jal	ra,9f4a <__smakebuf_r>
    8d8e:	245e                	lhu	a5,12(s0)
    8d90:	0017f713          	andi	a4,a5,1
    8d94:	c31d                	beqz	a4,8dba <__swsetup_r+0xf6>
    8d96:	485c                	lw	a5,20(s0)
    8d98:	00042423          	sw	zero,8(s0)
    8d9c:	40f007b3          	neg	a5,a5
    8da0:	cc1c                	sw	a5,24(s0)
    8da2:	481c                	lw	a5,16(s0)
    8da4:	4501                	li	a0,0
    8da6:	fba5                	bnez	a5,8d16 <__swsetup_r+0x52>
    8da8:	00c41783          	lh	a5,12(s0)
    8dac:	0807f713          	andi	a4,a5,128
    8db0:	d33d                	beqz	a4,8d16 <__swsetup_r+0x52>
    8db2:	0407e793          	ori	a5,a5,64
    8db6:	a45e                	sh	a5,12(s0)
    8db8:	bfb1                	j	8d14 <__swsetup_r+0x50>
    8dba:	8b89                	andi	a5,a5,2
    8dbc:	4701                	li	a4,0
    8dbe:	e391                	bnez	a5,8dc2 <__swsetup_r+0xfe>
    8dc0:	4858                	lw	a4,20(s0)
    8dc2:	c418                	sw	a4,8(s0)
    8dc4:	bff9                	j	8da2 <__swsetup_r+0xde>

00008dc6 <quorem>:
    8dc6:	1101                	addi	sp,sp,-32
    8dc8:	cc22                	sw	s0,24(sp)
    8dca:	491c                	lw	a5,16(a0)
    8dcc:	4980                	lw	s0,16(a1)
    8dce:	ce06                	sw	ra,28(sp)
    8dd0:	ca26                	sw	s1,20(sp)
    8dd2:	c84a                	sw	s2,16(sp)
    8dd4:	c64e                	sw	s3,12(sp)
    8dd6:	c452                	sw	s4,8(sp)
    8dd8:	c256                	sw	s5,4(sp)
    8dda:	1287c163          	blt	a5,s0,8efc <quorem+0x136>
    8dde:	147d                	addi	s0,s0,-1
    8de0:	00241813          	slli	a6,s0,0x2
    8de4:	01458993          	addi	s3,a1,20
    8de8:	01098a33          	add	s4,s3,a6
    8dec:	01450913          	addi	s2,a0,20
    8df0:	984a                	add	a6,a6,s2
    8df2:	000a2783          	lw	a5,0(s4)
    8df6:	00082703          	lw	a4,0(a6)
    8dfa:	0785                	addi	a5,a5,1
    8dfc:	02f754b3          	divu	s1,a4,a5
    8e00:	06f76663          	bltu	a4,a5,8e6c <quorem+0xa6>
    8e04:	68c1                	lui	a7,0x10
    8e06:	834e                	mv	t1,s3
    8e08:	8e4a                	mv	t3,s2
    8e0a:	4e81                	li	t4,0
    8e0c:	4f01                	li	t5,0
    8e0e:	18fd                	addi	a7,a7,-1
    8e10:	0311                	addi	t1,t1,4
    8e12:	ffc32603          	lw	a2,-4(t1)
    8e16:	0e11                	addi	t3,t3,4
    8e18:	01167733          	and	a4,a2,a7
    8e1c:	8241                	srli	a2,a2,0x10
    8e1e:	02970733          	mul	a4,a4,s1
    8e22:	02960633          	mul	a2,a2,s1
    8e26:	9776                	add	a4,a4,t4
    8e28:	01075693          	srli	a3,a4,0x10
    8e2c:	011777b3          	and	a5,a4,a7
    8e30:	40ff07b3          	sub	a5,t5,a5
    8e34:	9636                	add	a2,a2,a3
    8e36:	ffce2683          	lw	a3,-4(t3)
    8e3a:	01065e93          	srli	t4,a2,0x10
    8e3e:	01167633          	and	a2,a2,a7
    8e42:	0116f733          	and	a4,a3,a7
    8e46:	97ba                	add	a5,a5,a4
    8e48:	82c1                	srli	a3,a3,0x10
    8e4a:	4107d713          	srai	a4,a5,0x10
    8e4e:	8e91                	sub	a3,a3,a2
    8e50:	96ba                	add	a3,a3,a4
    8e52:	4106df13          	srai	t5,a3,0x10
    8e56:	0117f7b3          	and	a5,a5,a7
    8e5a:	06c2                	slli	a3,a3,0x10
    8e5c:	8fd5                	or	a5,a5,a3
    8e5e:	fefe2e23          	sw	a5,-4(t3)
    8e62:	fa6a77e3          	bgeu	s4,t1,8e10 <quorem+0x4a>
    8e66:	00082783          	lw	a5,0(a6)
    8e6a:	cbbd                	beqz	a5,8ee0 <quorem+0x11a>
    8e6c:	8aaa                	mv	s5,a0
    8e6e:	694010ef          	jal	ra,a502 <__mcmp>
    8e72:	04054963          	bltz	a0,8ec4 <quorem+0xfe>
    8e76:	6641                	lui	a2,0x10
    8e78:	0485                	addi	s1,s1,1
    8e7a:	85ca                	mv	a1,s2
    8e7c:	4501                	li	a0,0
    8e7e:	167d                	addi	a2,a2,-1
    8e80:	0991                	addi	s3,s3,4
    8e82:	ffc9a803          	lw	a6,-4(s3)
    8e86:	4198                	lw	a4,0(a1)
    8e88:	0591                	addi	a1,a1,4
    8e8a:	00c876b3          	and	a3,a6,a2
    8e8e:	8d15                	sub	a0,a0,a3
    8e90:	00c776b3          	and	a3,a4,a2
    8e94:	96aa                	add	a3,a3,a0
    8e96:	01075793          	srli	a5,a4,0x10
    8e9a:	01085813          	srli	a6,a6,0x10
    8e9e:	4106d713          	srai	a4,a3,0x10
    8ea2:	410787b3          	sub	a5,a5,a6
    8ea6:	97ba                	add	a5,a5,a4
    8ea8:	4107d513          	srai	a0,a5,0x10
    8eac:	8ef1                	and	a3,a3,a2
    8eae:	07c2                	slli	a5,a5,0x10
    8eb0:	8fd5                	or	a5,a5,a3
    8eb2:	fef5ae23          	sw	a5,-4(a1)
    8eb6:	fd3a75e3          	bgeu	s4,s3,8e80 <quorem+0xba>
    8eba:	00241793          	slli	a5,s0,0x2
    8ebe:	97ca                	add	a5,a5,s2
    8ec0:	4398                	lw	a4,0(a5)
    8ec2:	c71d                	beqz	a4,8ef0 <quorem+0x12a>
    8ec4:	8526                	mv	a0,s1
    8ec6:	40f2                	lw	ra,28(sp)
    8ec8:	4462                	lw	s0,24(sp)
    8eca:	44d2                	lw	s1,20(sp)
    8ecc:	4942                	lw	s2,16(sp)
    8ece:	49b2                	lw	s3,12(sp)
    8ed0:	4a22                	lw	s4,8(sp)
    8ed2:	4a92                	lw	s5,4(sp)
    8ed4:	6105                	addi	sp,sp,32
    8ed6:	8082                	ret
    8ed8:	00082783          	lw	a5,0(a6)
    8edc:	e789                	bnez	a5,8ee6 <quorem+0x120>
    8ede:	147d                	addi	s0,s0,-1
    8ee0:	1871                	addi	a6,a6,-4
    8ee2:	ff096be3          	bltu	s2,a6,8ed8 <quorem+0x112>
    8ee6:	c900                	sw	s0,16(a0)
    8ee8:	b751                	j	8e6c <quorem+0xa6>
    8eea:	4398                	lw	a4,0(a5)
    8eec:	e709                	bnez	a4,8ef6 <quorem+0x130>
    8eee:	147d                	addi	s0,s0,-1
    8ef0:	17f1                	addi	a5,a5,-4
    8ef2:	fef96ce3          	bltu	s2,a5,8eea <quorem+0x124>
    8ef6:	008aa823          	sw	s0,16(s5)
    8efa:	b7e9                	j	8ec4 <quorem+0xfe>
    8efc:	4501                	li	a0,0
    8efe:	b7e1                	j	8ec6 <quorem+0x100>

00008f00 <_dtoa_r>:
    8f00:	7175                	addi	sp,sp,-144
    8f02:	d83e                	sw	a5,48(sp)
    8f04:	515c                	lw	a5,36(a0)
    8f06:	c522                	sw	s0,136(sp)
    8f08:	c326                	sw	s1,132(sp)
    8f0a:	c14a                	sw	s2,128(sp)
    8f0c:	dece                	sw	s3,124(sp)
    8f0e:	dcd2                	sw	s4,120(sp)
    8f10:	d4e2                	sw	s8,104(sp)
    8f12:	c706                	sw	ra,140(sp)
    8f14:	dad6                	sw	s5,116(sp)
    8f16:	d8da                	sw	s6,112(sp)
    8f18:	d6de                	sw	s7,108(sp)
    8f1a:	d2e6                	sw	s9,100(sp)
    8f1c:	d0ea                	sw	s10,96(sp)
    8f1e:	ceee                	sw	s11,92(sp)
    8f20:	c236                	sw	a3,4(sp)
    8f22:	c63a                	sw	a4,12(sp)
    8f24:	ca46                	sw	a7,20(sp)
    8f26:	84aa                	mv	s1,a0
    8f28:	842e                	mv	s0,a1
    8f2a:	8932                	mv	s2,a2
    8f2c:	89c2                	mv	s3,a6
    8f2e:	8a2e                	mv	s4,a1
    8f30:	8c32                	mv	s8,a2
    8f32:	ef89                	bnez	a5,8f4c <_dtoa_r+0x4c>
    8f34:	4541                	li	a0,16
    8f36:	0a8010ef          	jal	ra,9fde <malloc>
    8f3a:	d0c8                	sw	a0,36(s1)
    8f3c:	00052223          	sw	zero,4(a0)
    8f40:	00052423          	sw	zero,8(a0)
    8f44:	00052023          	sw	zero,0(a0)
    8f48:	00052623          	sw	zero,12(a0)
    8f4c:	50dc                	lw	a5,36(s1)
    8f4e:	438c                	lw	a1,0(a5)
    8f50:	cd89                	beqz	a1,8f6a <_dtoa_r+0x6a>
    8f52:	43d8                	lw	a4,4(a5)
    8f54:	4785                	li	a5,1
    8f56:	8526                	mv	a0,s1
    8f58:	00e797b3          	sll	a5,a5,a4
    8f5c:	c59c                	sw	a5,8(a1)
    8f5e:	c1d8                	sw	a4,4(a1)
    8f60:	12a010ef          	jal	ra,a08a <_Bfree>
    8f64:	50dc                	lw	a5,36(s1)
    8f66:	0007a023          	sw	zero,0(a5)
    8f6a:	04095363          	bgez	s2,8fb0 <_dtoa_r+0xb0>
    8f6e:	4785                	li	a5,1
    8f70:	00191c13          	slli	s8,s2,0x1
    8f74:	00f9a023          	sw	a5,0(s3)
    8f78:	001c5c13          	srli	s8,s8,0x1
    8f7c:	7ff007b7          	lui	a5,0x7ff00
    8f80:	00fc7733          	and	a4,s8,a5
    8f84:	06f71463          	bne	a4,a5,8fec <_dtoa_r+0xec>
    8f88:	5742                	lw	a4,48(sp)
    8f8a:	6789                	lui	a5,0x2
    8f8c:	0c32                	slli	s8,s8,0xc
    8f8e:	70f78793          	addi	a5,a5,1807 # 270f <PM_MeasureBJT+0xccf>
    8f92:	00cc5c13          	srli	s8,s8,0xc
    8f96:	c31c                	sw	a5,0(a4)
    8f98:	008c6c33          	or	s8,s8,s0
    8f9c:	320c00e3          	beqz	s8,9abc <_dtoa_r+0xbbc>
    8fa0:	47d2                	lw	a5,20(sp)
    8fa2:	eb91                	bnez	a5,8fb6 <_dtoa_r+0xb6>
    8fa4:	00003797          	auipc	a5,0x3
    8fa8:	c5878793          	addi	a5,a5,-936 # bbfc <__clz_tab+0x18c>
    8fac:	c03e                	sw	a5,0(sp)
    8fae:	a839                	j	8fcc <_dtoa_r+0xcc>
    8fb0:	0009a023          	sw	zero,0(s3)
    8fb4:	b7e1                	j	8f7c <_dtoa_r+0x7c>
    8fb6:	00003797          	auipc	a5,0x3
    8fba:	c4678793          	addi	a5,a5,-954 # bbfc <__clz_tab+0x18c>
    8fbe:	c03e                	sw	a5,0(sp)
    8fc0:	00003797          	auipc	a5,0x3
    8fc4:	c3f78793          	addi	a5,a5,-961 # bbff <__clz_tab+0x18f>
    8fc8:	4752                	lw	a4,20(sp)
    8fca:	c31c                	sw	a5,0(a4)
    8fcc:	40ba                	lw	ra,140(sp)
    8fce:	442a                	lw	s0,136(sp)
    8fd0:	4502                	lw	a0,0(sp)
    8fd2:	449a                	lw	s1,132(sp)
    8fd4:	490a                	lw	s2,128(sp)
    8fd6:	59f6                	lw	s3,124(sp)
    8fd8:	5a66                	lw	s4,120(sp)
    8fda:	5ad6                	lw	s5,116(sp)
    8fdc:	5b46                	lw	s6,112(sp)
    8fde:	5bb6                	lw	s7,108(sp)
    8fe0:	5c26                	lw	s8,104(sp)
    8fe2:	5c96                	lw	s9,100(sp)
    8fe4:	5d06                	lw	s10,96(sp)
    8fe6:	4df6                	lw	s11,92(sp)
    8fe8:	6149                	addi	sp,sp,144
    8fea:	8082                	ret
    8fec:	4601                	li	a2,0
    8fee:	4681                	li	a3,0
    8ff0:	8522                	mv	a0,s0
    8ff2:	85e2                	mv	a1,s8
    8ff4:	ce22                	sw	s0,28(sp)
    8ff6:	d462                	sw	s8,40(sp)
    8ff8:	c4bfd0ef          	jal	ra,6c42 <__eqdf2>
    8ffc:	e105                	bnez	a0,901c <_dtoa_r+0x11c>
    8ffe:	5742                	lw	a4,48(sp)
    9000:	4785                	li	a5,1
    9002:	c31c                	sw	a5,0(a4)
    9004:	00003797          	auipc	a5,0x3
    9008:	b8478793          	addi	a5,a5,-1148 # bb88 <__clz_tab+0x118>
    900c:	c03e                	sw	a5,0(sp)
    900e:	47d2                	lw	a5,20(sp)
    9010:	dfd5                	beqz	a5,8fcc <_dtoa_r+0xcc>
    9012:	00003797          	auipc	a5,0x3
    9016:	b7778793          	addi	a5,a5,-1161 # bb89 <__clz_tab+0x119>
    901a:	b77d                	j	8fc8 <_dtoa_r+0xc8>
    901c:	00b8                	addi	a4,sp,72
    901e:	00f4                	addi	a3,sp,76
    9020:	8662                	mv	a2,s8
    9022:	85a2                	mv	a1,s0
    9024:	8526                	mv	a0,s1
    9026:	014c5913          	srli	s2,s8,0x14
    902a:	5fc010ef          	jal	ra,a626 <__d2b>
    902e:	7ff97913          	andi	s2,s2,2047
    9032:	89aa                	mv	s3,a0
    9034:	4aa6                	lw	s5,72(sp)
    9036:	10090d63          	beqz	s2,9150 <_dtoa_r+0x250>
    903a:	57a2                	lw	a5,40(sp)
    903c:	4572                	lw	a0,28(sp)
    903e:	c0190913          	addi	s2,s2,-1023
    9042:	00c79593          	slli	a1,a5,0xc
    9046:	81b1                	srli	a1,a1,0xc
    9048:	3ff007b7          	lui	a5,0x3ff00
    904c:	8ddd                	or	a1,a1,a5
    904e:	dc02                	sw	zero,56(sp)
    9050:	00003797          	auipc	a5,0x3
    9054:	b6878793          	addi	a5,a5,-1176 # bbb8 <__clz_tab+0x148>
    9058:	4390                	lw	a2,0(a5)
    905a:	43d4                	lw	a3,4(a5)
    905c:	9b6fe0ef          	jal	ra,7212 <__subdf3>
    9060:	00003797          	auipc	a5,0x3
    9064:	b6078793          	addi	a5,a5,-1184 # bbc0 <__clz_tab+0x150>
    9068:	4390                	lw	a2,0(a5)
    906a:	43d4                	lw	a3,4(a5)
    906c:	ceffd0ef          	jal	ra,6d5a <__muldf3>
    9070:	00003797          	auipc	a5,0x3
    9074:	b5878793          	addi	a5,a5,-1192 # bbc8 <__clz_tab+0x158>
    9078:	4390                	lw	a2,0(a5)
    907a:	43d4                	lw	a3,4(a5)
    907c:	ee3fc0ef          	jal	ra,5f5e <__adddf3>
    9080:	8b2a                	mv	s6,a0
    9082:	854a                	mv	a0,s2
    9084:	8bae                	mv	s7,a1
    9086:	963fe0ef          	jal	ra,79e8 <__floatsidf>
    908a:	00003797          	auipc	a5,0x3
    908e:	b4678793          	addi	a5,a5,-1210 # bbd0 <__clz_tab+0x160>
    9092:	4390                	lw	a2,0(a5)
    9094:	43d4                	lw	a3,4(a5)
    9096:	cc5fd0ef          	jal	ra,6d5a <__muldf3>
    909a:	862a                	mv	a2,a0
    909c:	86ae                	mv	a3,a1
    909e:	855a                	mv	a0,s6
    90a0:	85de                	mv	a1,s7
    90a2:	ebdfc0ef          	jal	ra,5f5e <__adddf3>
    90a6:	8b2a                	mv	s6,a0
    90a8:	8bae                	mv	s7,a1
    90aa:	5bd010ef          	jal	ra,ae66 <__fixdfsi>
    90ae:	842a                	mv	s0,a0
    90b0:	4601                	li	a2,0
    90b2:	4681                	li	a3,0
    90b4:	855a                	mv	a0,s6
    90b6:	85de                	mv	a1,s7
    90b8:	4f9010ef          	jal	ra,adb0 <__ledf2>
    90bc:	00055b63          	bgez	a0,90d2 <_dtoa_r+0x1d2>
    90c0:	8522                	mv	a0,s0
    90c2:	927fe0ef          	jal	ra,79e8 <__floatsidf>
    90c6:	865a                	mv	a2,s6
    90c8:	86de                	mv	a3,s7
    90ca:	b79fd0ef          	jal	ra,6c42 <__eqdf2>
    90ce:	c111                	beqz	a0,90d2 <_dtoa_r+0x1d2>
    90d0:	147d                	addi	s0,s0,-1
    90d2:	4705                	li	a4,1
    90d4:	47d9                	li	a5,22
    90d6:	d63a                	sw	a4,44(sp)
    90d8:	0287e363          	bltu	a5,s0,90fe <_dtoa_r+0x1fe>
    90dc:	00341713          	slli	a4,s0,0x3
    90e0:	00003797          	auipc	a5,0x3
    90e4:	ba878793          	addi	a5,a5,-1112 # bc88 <__mprec_tens>
    90e8:	97ba                	add	a5,a5,a4
    90ea:	4390                	lw	a2,0(a5)
    90ec:	43d4                	lw	a3,4(a5)
    90ee:	4572                	lw	a0,28(sp)
    90f0:	55a2                	lw	a1,40(sp)
    90f2:	4bf010ef          	jal	ra,adb0 <__ledf2>
    90f6:	00055363          	bgez	a0,90fc <_dtoa_r+0x1fc>
    90fa:	147d                	addi	s0,s0,-1
    90fc:	d602                	sw	zero,44(sp)
    90fe:	412a8933          	sub	s2,s5,s2
    9102:	fff90b93          	addi	s7,s2,-1
    9106:	4b01                	li	s6,0
    9108:	000bd663          	bgez	s7,9114 <_dtoa_r+0x214>
    910c:	4b05                	li	s6,1
    910e:	412b0b33          	sub	s6,s6,s2
    9112:	4b81                	li	s7,0
    9114:	06044e63          	bltz	s0,9190 <_dtoa_r+0x290>
    9118:	9ba2                	add	s7,s7,s0
    911a:	cc22                	sw	s0,24(sp)
    911c:	4a81                	li	s5,0
    911e:	4712                	lw	a4,4(sp)
    9120:	47a5                	li	a5,9
    9122:	14e7e563          	bltu	a5,a4,926c <_dtoa_r+0x36c>
    9126:	4795                	li	a5,5
    9128:	4c85                	li	s9,1
    912a:	00e7d663          	bge	a5,a4,9136 <_dtoa_r+0x236>
    912e:	ffc70793          	addi	a5,a4,-4
    9132:	c23e                	sw	a5,4(sp)
    9134:	4c81                	li	s9,0
    9136:	4712                	lw	a4,4(sp)
    9138:	478d                	li	a5,3
    913a:	10f70e63          	beq	a4,a5,9256 <_dtoa_r+0x356>
    913e:	04e7cf63          	blt	a5,a4,919c <_dtoa_r+0x29c>
    9142:	4789                	li	a5,2
    9144:	c802                	sw	zero,16(sp)
    9146:	06f70d63          	beq	a4,a5,91c0 <_dtoa_r+0x2c0>
    914a:	4785                	li	a5,1
    914c:	c83e                	sw	a5,16(sp)
    914e:	a08d                	j	91b0 <_dtoa_r+0x2b0>
    9150:	4936                	lw	s2,76(sp)
    9152:	02000793          	li	a5,32
    9156:	9956                	add	s2,s2,s5
    9158:	43290713          	addi	a4,s2,1074
    915c:	02e7d563          	bge	a5,a4,9186 <_dtoa_r+0x286>
    9160:	04000513          	li	a0,64
    9164:	8d19                	sub	a0,a0,a4
    9166:	41290793          	addi	a5,s2,1042
    916a:	00ac1533          	sll	a0,s8,a0
    916e:	00f45433          	srl	s0,s0,a5
    9172:	8d41                	or	a0,a0,s0
    9174:	8e5fe0ef          	jal	ra,7a58 <__floatunsidf>
    9178:	fe1007b7          	lui	a5,0xfe100
    917c:	95be                	add	a1,a1,a5
    917e:	4785                	li	a5,1
    9180:	197d                	addi	s2,s2,-1
    9182:	dc3e                	sw	a5,56(sp)
    9184:	b5f1                	j	9050 <_dtoa_r+0x150>
    9186:	40e78533          	sub	a0,a5,a4
    918a:	00a41533          	sll	a0,s0,a0
    918e:	b7dd                	j	9174 <_dtoa_r+0x274>
    9190:	408b0b33          	sub	s6,s6,s0
    9194:	40800ab3          	neg	s5,s0
    9198:	cc02                	sw	zero,24(sp)
    919a:	b751                	j	911e <_dtoa_r+0x21e>
    919c:	4712                	lw	a4,4(sp)
    919e:	4791                	li	a5,4
    91a0:	00f70e63          	beq	a4,a5,91bc <_dtoa_r+0x2bc>
    91a4:	4705                	li	a4,1
    91a6:	c83a                	sw	a4,16(sp)
    91a8:	4712                	lw	a4,4(sp)
    91aa:	4795                	li	a5,5
    91ac:	0af70663          	beq	a4,a5,9258 <_dtoa_r+0x358>
    91b0:	57fd                	li	a5,-1
    91b2:	c43e                	sw	a5,8(sp)
    91b4:	5dfd                	li	s11,-1
    91b6:	47c9                	li	a5,18
    91b8:	c602                	sw	zero,12(sp)
    91ba:	a819                	j	91d0 <_dtoa_r+0x2d0>
    91bc:	4785                	li	a5,1
    91be:	c83e                	sw	a5,16(sp)
    91c0:	47b2                	lw	a5,12(sp)
    91c2:	0af04863          	bgtz	a5,9272 <_dtoa_r+0x372>
    91c6:	4785                	li	a5,1
    91c8:	4705                	li	a4,1
    91ca:	c43e                	sw	a5,8(sp)
    91cc:	4d85                	li	s11,1
    91ce:	c63a                	sw	a4,12(sp)
    91d0:	0244a903          	lw	s2,36(s1)
    91d4:	4711                	li	a4,4
    91d6:	00092223          	sw	zero,4(s2)
    91da:	01470693          	addi	a3,a4,20
    91de:	00492583          	lw	a1,4(s2)
    91e2:	08d7fc63          	bgeu	a5,a3,927a <_dtoa_r+0x37a>
    91e6:	8526                	mv	a0,s1
    91e8:	61b000ef          	jal	ra,a002 <_Balloc>
    91ec:	50dc                	lw	a5,36(s1)
    91ee:	00a92023          	sw	a0,0(s2)
    91f2:	439c                	lw	a5,0(a5)
    91f4:	c03e                	sw	a5,0(sp)
    91f6:	47b9                	li	a5,14
    91f8:	1db7e663          	bltu	a5,s11,93c4 <_dtoa_r+0x4c4>
    91fc:	1c0c8463          	beqz	s9,93c4 <_dtoa_r+0x4c4>
    9200:	0a805e63          	blez	s0,92bc <_dtoa_r+0x3bc>
    9204:	00f47793          	andi	a5,s0,15
    9208:	00379713          	slli	a4,a5,0x3
    920c:	40445c93          	srai	s9,s0,0x4
    9210:	00003797          	auipc	a5,0x3
    9214:	a7878793          	addi	a5,a5,-1416 # bc88 <__mprec_tens>
    9218:	97ba                	add	a5,a5,a4
    921a:	010cf693          	andi	a3,s9,16
    921e:	4398                	lw	a4,0(a5)
    9220:	4909                	li	s2,2
    9222:	43dc                	lw	a5,4(a5)
    9224:	c685                	beqz	a3,924c <_dtoa_r+0x34c>
    9226:	00003697          	auipc	a3,0x3
    922a:	a3a68693          	addi	a3,a3,-1478 # bc60 <__mprec_bigtens>
    922e:	5290                	lw	a2,32(a3)
    9230:	4572                	lw	a0,28(sp)
    9232:	52d4                	lw	a3,36(a3)
    9234:	55a2                	lw	a1,40(sp)
    9236:	d03a                	sw	a4,32(sp)
    9238:	d23e                	sw	a5,36(sp)
    923a:	c54fd0ef          	jal	ra,668e <__divdf3>
    923e:	5702                	lw	a4,32(sp)
    9240:	5792                	lw	a5,36(sp)
    9242:	00fcfc93          	andi	s9,s9,15
    9246:	8a2a                	mv	s4,a0
    9248:	8c2e                	mv	s8,a1
    924a:	490d                	li	s2,3
    924c:	00003d17          	auipc	s10,0x3
    9250:	a14d0d13          	addi	s10,s10,-1516 # bc60 <__mprec_bigtens>
    9254:	a889                	j	92a6 <_dtoa_r+0x3a6>
    9256:	c802                	sw	zero,16(sp)
    9258:	47b2                	lw	a5,12(sp)
    925a:	97a2                	add	a5,a5,s0
    925c:	c43e                	sw	a5,8(sp)
    925e:	00178d93          	addi	s11,a5,1
    9262:	87ee                	mv	a5,s11
    9264:	f7b046e3          	bgtz	s11,91d0 <_dtoa_r+0x2d0>
    9268:	4785                	li	a5,1
    926a:	b79d                	j	91d0 <_dtoa_r+0x2d0>
    926c:	4c85                	li	s9,1
    926e:	c202                	sw	zero,4(sp)
    9270:	bde9                	j	914a <_dtoa_r+0x24a>
    9272:	47b2                	lw	a5,12(sp)
    9274:	c43e                	sw	a5,8(sp)
    9276:	8dbe                	mv	s11,a5
    9278:	bfa1                	j	91d0 <_dtoa_r+0x2d0>
    927a:	0585                	addi	a1,a1,1
    927c:	00b92223          	sw	a1,4(s2)
    9280:	0706                	slli	a4,a4,0x1
    9282:	bfa1                	j	91da <_dtoa_r+0x2da>
    9284:	001cf693          	andi	a3,s9,1
    9288:	ce81                	beqz	a3,92a0 <_dtoa_r+0x3a0>
    928a:	000d2603          	lw	a2,0(s10)
    928e:	004d2683          	lw	a3,4(s10)
    9292:	853a                	mv	a0,a4
    9294:	85be                	mv	a1,a5
    9296:	ac5fd0ef          	jal	ra,6d5a <__muldf3>
    929a:	0905                	addi	s2,s2,1
    929c:	872a                	mv	a4,a0
    929e:	87ae                	mv	a5,a1
    92a0:	401cdc93          	srai	s9,s9,0x1
    92a4:	0d21                	addi	s10,s10,8
    92a6:	fc0c9fe3          	bnez	s9,9284 <_dtoa_r+0x384>
    92aa:	863a                	mv	a2,a4
    92ac:	86be                	mv	a3,a5
    92ae:	8552                	mv	a0,s4
    92b0:	85e2                	mv	a1,s8
    92b2:	bdcfd0ef          	jal	ra,668e <__divdf3>
    92b6:	8a2a                	mv	s4,a0
    92b8:	8c2e                	mv	s8,a1
    92ba:	a081                	j	92fa <_dtoa_r+0x3fa>
    92bc:	4909                	li	s2,2
    92be:	cc15                	beqz	s0,92fa <_dtoa_r+0x3fa>
    92c0:	40800cb3          	neg	s9,s0
    92c4:	00fcf793          	andi	a5,s9,15
    92c8:	00379713          	slli	a4,a5,0x3
    92cc:	00003797          	auipc	a5,0x3
    92d0:	9bc78793          	addi	a5,a5,-1604 # bc88 <__mprec_tens>
    92d4:	97ba                	add	a5,a5,a4
    92d6:	4390                	lw	a2,0(a5)
    92d8:	43d4                	lw	a3,4(a5)
    92da:	4572                	lw	a0,28(sp)
    92dc:	55a2                	lw	a1,40(sp)
    92de:	404cdc93          	srai	s9,s9,0x4
    92e2:	00003d17          	auipc	s10,0x3
    92e6:	97ed0d13          	addi	s10,s10,-1666 # bc60 <__mprec_bigtens>
    92ea:	a71fd0ef          	jal	ra,6d5a <__muldf3>
    92ee:	8a2a                	mv	s4,a0
    92f0:	8c2e                	mv	s8,a1
    92f2:	4781                	li	a5,0
    92f4:	120c9b63          	bnez	s9,942a <_dtoa_r+0x52a>
    92f8:	ffdd                	bnez	a5,92b6 <_dtoa_r+0x3b6>
    92fa:	57b2                	lw	a5,44(sp)
    92fc:	14078663          	beqz	a5,9448 <_dtoa_r+0x548>
    9300:	00002717          	auipc	a4,0x2
    9304:	07070713          	addi	a4,a4,112 # b370 <_read+0x254>
    9308:	4310                	lw	a2,0(a4)
    930a:	4354                	lw	a3,4(a4)
    930c:	8552                	mv	a0,s4
    930e:	85e2                	mv	a1,s8
    9310:	d052                	sw	s4,32(sp)
    9312:	29f010ef          	jal	ra,adb0 <__ledf2>
    9316:	12055963          	bgez	a0,9448 <_dtoa_r+0x548>
    931a:	120d8a63          	beqz	s11,944e <_dtoa_r+0x54e>
    931e:	47a2                	lw	a5,8(sp)
    9320:	0af05063          	blez	a5,93c0 <_dtoa_r+0x4c0>
    9324:	00003717          	auipc	a4,0x3
    9328:	8b470713          	addi	a4,a4,-1868 # bbd8 <__clz_tab+0x168>
    932c:	5782                	lw	a5,32(sp)
    932e:	4310                	lw	a2,0(a4)
    9330:	4354                	lw	a3,4(a4)
    9332:	853e                	mv	a0,a5
    9334:	85e2                	mv	a1,s8
    9336:	a25fd0ef          	jal	ra,6d5a <__muldf3>
    933a:	47a2                	lw	a5,8(sp)
    933c:	fff40d13          	addi	s10,s0,-1
    9340:	8a2a                	mv	s4,a0
    9342:	8c2e                	mv	s8,a1
    9344:	0905                	addi	s2,s2,1
    9346:	8762                	mv	a4,s8
    9348:	854a                	mv	a0,s2
    934a:	de3e                	sw	a5,60(sp)
    934c:	da52                	sw	s4,52(sp)
    934e:	8cba                	mv	s9,a4
    9350:	d03a                	sw	a4,32(sp)
    9352:	e96fe0ef          	jal	ra,79e8 <__floatsidf>
    9356:	5852                	lw	a6,52(sp)
    9358:	5702                	lw	a4,32(sp)
    935a:	fcc00937          	lui	s2,0xfcc00
    935e:	8642                	mv	a2,a6
    9360:	86ba                	mv	a3,a4
    9362:	9f9fd0ef          	jal	ra,6d5a <__muldf3>
    9366:	00003697          	auipc	a3,0x3
    936a:	87a68693          	addi	a3,a3,-1926 # bbe0 <__clz_tab+0x170>
    936e:	4290                	lw	a2,0(a3)
    9370:	42d4                	lw	a3,4(a3)
    9372:	8c52                	mv	s8,s4
    9374:	bebfc0ef          	jal	ra,5f5e <__adddf3>
    9378:	57f2                	lw	a5,60(sp)
    937a:	8a2a                	mv	s4,a0
    937c:	992e                	add	s2,s2,a1
    937e:	ebf9                	bnez	a5,9454 <_dtoa_r+0x554>
    9380:	00003797          	auipc	a5,0x3
    9384:	86878793          	addi	a5,a5,-1944 # bbe8 <__clz_tab+0x178>
    9388:	5852                	lw	a6,52(sp)
    938a:	5702                	lw	a4,32(sp)
    938c:	4390                	lw	a2,0(a5)
    938e:	43d4                	lw	a3,4(a5)
    9390:	8542                	mv	a0,a6
    9392:	85ba                	mv	a1,a4
    9394:	e7ffd0ef          	jal	ra,7212 <__subdf3>
    9398:	8652                	mv	a2,s4
    939a:	86ca                	mv	a3,s2
    939c:	8c2a                	mv	s8,a0
    939e:	8cae                	mv	s9,a1
    93a0:	90dfd0ef          	jal	ra,6cac <__gedf2>
    93a4:	54a04663          	bgtz	a0,98f0 <_dtoa_r+0x9f0>
    93a8:	800007b7          	lui	a5,0x80000
    93ac:	0127c7b3          	xor	a5,a5,s2
    93b0:	8652                	mv	a2,s4
    93b2:	86be                	mv	a3,a5
    93b4:	8562                	mv	a0,s8
    93b6:	85e6                	mv	a1,s9
    93b8:	1f9010ef          	jal	ra,adb0 <__ledf2>
    93bc:	52054763          	bltz	a0,98ea <_dtoa_r+0x9ea>
    93c0:	4a72                	lw	s4,28(sp)
    93c2:	5c22                	lw	s8,40(sp)
    93c4:	47b6                	lw	a5,76(sp)
    93c6:	3007c363          	bltz	a5,96cc <_dtoa_r+0x7cc>
    93ca:	4739                	li	a4,14
    93cc:	30874063          	blt	a4,s0,96cc <_dtoa_r+0x7cc>
    93d0:	00341713          	slli	a4,s0,0x3
    93d4:	00003797          	auipc	a5,0x3
    93d8:	8b478793          	addi	a5,a5,-1868 # bc88 <__mprec_tens>
    93dc:	97ba                	add	a5,a5,a4
    93de:	0007ab03          	lw	s6,0(a5)
    93e2:	0047ab83          	lw	s7,4(a5)
    93e6:	47b2                	lw	a5,12(sp)
    93e8:	2007d163          	bgez	a5,95ea <_dtoa_r+0x6ea>
    93ec:	1fb04f63          	bgtz	s11,95ea <_dtoa_r+0x6ea>
    93f0:	4e0d9d63          	bnez	s11,98ea <_dtoa_r+0x9ea>
    93f4:	00002797          	auipc	a5,0x2
    93f8:	7f478793          	addi	a5,a5,2036 # bbe8 <__clz_tab+0x178>
    93fc:	4390                	lw	a2,0(a5)
    93fe:	43d4                	lw	a3,4(a5)
    9400:	855a                	mv	a0,s6
    9402:	85de                	mv	a1,s7
    9404:	957fd0ef          	jal	ra,6d5a <__muldf3>
    9408:	8652                	mv	a2,s4
    940a:	86e2                	mv	a3,s8
    940c:	8a1fd0ef          	jal	ra,6cac <__gedf2>
    9410:	4a81                	li	s5,0
    9412:	4901                	li	s2,0
    9414:	4a055363          	bgez	a0,98ba <_dtoa_r+0x9ba>
    9418:	4782                	lw	a5,0(sp)
    941a:	4702                	lw	a4,0(sp)
    941c:	0405                	addi	s0,s0,1
    941e:	00178a13          	addi	s4,a5,1
    9422:	03100793          	li	a5,49
    9426:	a31c                	sb	a5,0(a4)
    9428:	a969                	j	98c2 <_dtoa_r+0x9c2>
    942a:	001cf713          	andi	a4,s9,1
    942e:	cb09                	beqz	a4,9440 <_dtoa_r+0x540>
    9430:	000d2603          	lw	a2,0(s10)
    9434:	004d2683          	lw	a3,4(s10)
    9438:	0905                	addi	s2,s2,1
    943a:	921fd0ef          	jal	ra,6d5a <__muldf3>
    943e:	4785                	li	a5,1
    9440:	401cdc93          	srai	s9,s9,0x1
    9444:	0d21                	addi	s10,s10,8
    9446:	b57d                	j	92f4 <_dtoa_r+0x3f4>
    9448:	8d22                	mv	s10,s0
    944a:	87ee                	mv	a5,s11
    944c:	bded                	j	9346 <_dtoa_r+0x446>
    944e:	8d22                	mv	s10,s0
    9450:	4781                	li	a5,0
    9452:	bdd5                	j	9346 <_dtoa_r+0x446>
    9454:	fff78693          	addi	a3,a5,-1
    9458:	00369613          	slli	a2,a3,0x3
    945c:	00003697          	auipc	a3,0x3
    9460:	82c68693          	addi	a3,a3,-2004 # bc88 <__mprec_tens>
    9464:	96b2                	add	a3,a3,a2
    9466:	4288                	lw	a0,0(a3)
    9468:	42cc                	lw	a1,4(a3)
    946a:	4682                	lw	a3,0(sp)
    946c:	97b6                	add	a5,a5,a3
    946e:	da3e                	sw	a5,52(sp)
    9470:	47c2                	lw	a5,16(sp)
    9472:	c3e9                	beqz	a5,9534 <_dtoa_r+0x634>
    9474:	00002797          	auipc	a5,0x2
    9478:	28478793          	addi	a5,a5,644 # b6f8 <PortGroup_3+0x58>
    947c:	862a                	mv	a2,a0
    947e:	86ae                	mv	a3,a1
    9480:	4388                	lw	a0,0(a5)
    9482:	43cc                	lw	a1,4(a5)
    9484:	de4a                	sw	s2,60(sp)
    9486:	d052                	sw	s4,32(sp)
    9488:	a06fd0ef          	jal	ra,668e <__divdf3>
    948c:	5802                	lw	a6,32(sp)
    948e:	5772                	lw	a4,60(sp)
    9490:	00002917          	auipc	s2,0x2
    9494:	74890913          	addi	s2,s2,1864 # bbd8 <__clz_tab+0x168>
    9498:	8642                	mv	a2,a6
    949a:	86ba                	mv	a3,a4
    949c:	d77fd0ef          	jal	ra,7212 <__subdf3>
    94a0:	4a02                	lw	s4,0(sp)
    94a2:	d02a                	sw	a0,32(sp)
    94a4:	d22e                	sw	a1,36(sp)
    94a6:	85e6                	mv	a1,s9
    94a8:	8562                	mv	a0,s8
    94aa:	1bd010ef          	jal	ra,ae66 <__fixdfsi>
    94ae:	de2a                	sw	a0,60(sp)
    94b0:	d38fe0ef          	jal	ra,79e8 <__floatsidf>
    94b4:	862a                	mv	a2,a0
    94b6:	86ae                	mv	a3,a1
    94b8:	8562                	mv	a0,s8
    94ba:	85e6                	mv	a1,s9
    94bc:	d57fd0ef          	jal	ra,7212 <__subdf3>
    94c0:	57f2                	lw	a5,60(sp)
    94c2:	8c2a                	mv	s8,a0
    94c4:	8cae                	mv	s9,a1
    94c6:	862a                	mv	a2,a0
    94c8:	86ae                	mv	a3,a1
    94ca:	5502                	lw	a0,32(sp)
    94cc:	5592                	lw	a1,36(sp)
    94ce:	0a05                	addi	s4,s4,1
    94d0:	03078793          	addi	a5,a5,48
    94d4:	fefa0fa3          	sb	a5,-1(s4)
    94d8:	fd4fd0ef          	jal	ra,6cac <__gedf2>
    94dc:	0ea04863          	bgtz	a0,95cc <_dtoa_r+0x6cc>
    94e0:	00002797          	auipc	a5,0x2
    94e4:	e9078793          	addi	a5,a5,-368 # b370 <_read+0x254>
    94e8:	4388                	lw	a0,0(a5)
    94ea:	43cc                	lw	a1,4(a5)
    94ec:	8662                	mv	a2,s8
    94ee:	86e6                	mv	a3,s9
    94f0:	d23fd0ef          	jal	ra,7212 <__subdf3>
    94f4:	862a                	mv	a2,a0
    94f6:	86ae                	mv	a3,a1
    94f8:	5502                	lw	a0,32(sp)
    94fa:	5592                	lw	a1,36(sp)
    94fc:	fb0fd0ef          	jal	ra,6cac <__gedf2>
    9500:	18a04263          	bgtz	a0,9684 <_dtoa_r+0x784>
    9504:	57d2                	lw	a5,52(sp)
    9506:	eafa0de3          	beq	s4,a5,93c0 <_dtoa_r+0x4c0>
    950a:	00092603          	lw	a2,0(s2)
    950e:	00492683          	lw	a3,4(s2)
    9512:	5502                	lw	a0,32(sp)
    9514:	5592                	lw	a1,36(sp)
    9516:	845fd0ef          	jal	ra,6d5a <__muldf3>
    951a:	00092603          	lw	a2,0(s2)
    951e:	00492683          	lw	a3,4(s2)
    9522:	d02a                	sw	a0,32(sp)
    9524:	d22e                	sw	a1,36(sp)
    9526:	8562                	mv	a0,s8
    9528:	85e6                	mv	a1,s9
    952a:	831fd0ef          	jal	ra,6d5a <__muldf3>
    952e:	8c2a                	mv	s8,a0
    9530:	8cae                	mv	s9,a1
    9532:	bf95                	j	94a6 <_dtoa_r+0x5a6>
    9534:	8652                	mv	a2,s4
    9536:	86ca                	mv	a3,s2
    9538:	823fd0ef          	jal	ra,6d5a <__muldf3>
    953c:	5a52                	lw	s4,52(sp)
    953e:	4902                	lw	s2,0(sp)
    9540:	d02a                	sw	a0,32(sp)
    9542:	d22e                	sw	a1,36(sp)
    9544:	85e6                	mv	a1,s9
    9546:	8562                	mv	a0,s8
    9548:	11f010ef          	jal	ra,ae66 <__fixdfsi>
    954c:	de2a                	sw	a0,60(sp)
    954e:	c9afe0ef          	jal	ra,79e8 <__floatsidf>
    9552:	862a                	mv	a2,a0
    9554:	86ae                	mv	a3,a1
    9556:	8562                	mv	a0,s8
    9558:	85e6                	mv	a1,s9
    955a:	cb9fd0ef          	jal	ra,7212 <__subdf3>
    955e:	5772                	lw	a4,60(sp)
    9560:	57d2                	lw	a5,52(sp)
    9562:	0905                	addi	s2,s2,1
    9564:	03070713          	addi	a4,a4,48
    9568:	fee90fa3          	sb	a4,-1(s2)
    956c:	8c2a                	mv	s8,a0
    956e:	8cae                	mv	s9,a1
    9570:	06f91263          	bne	s2,a5,95d4 <_dtoa_r+0x6d4>
    9574:	00002917          	auipc	s2,0x2
    9578:	18490913          	addi	s2,s2,388 # b6f8 <PortGroup_3+0x58>
    957c:	00092603          	lw	a2,0(s2)
    9580:	00492683          	lw	a3,4(s2)
    9584:	5502                	lw	a0,32(sp)
    9586:	5592                	lw	a1,36(sp)
    9588:	9d7fc0ef          	jal	ra,5f5e <__adddf3>
    958c:	862a                	mv	a2,a0
    958e:	86ae                	mv	a3,a1
    9590:	8562                	mv	a0,s8
    9592:	85e6                	mv	a1,s9
    9594:	f18fd0ef          	jal	ra,6cac <__gedf2>
    9598:	0ea04663          	bgtz	a0,9684 <_dtoa_r+0x784>
    959c:	5602                	lw	a2,32(sp)
    959e:	5692                	lw	a3,36(sp)
    95a0:	00092503          	lw	a0,0(s2)
    95a4:	00492583          	lw	a1,4(s2)
    95a8:	c6bfd0ef          	jal	ra,7212 <__subdf3>
    95ac:	862a                	mv	a2,a0
    95ae:	86ae                	mv	a3,a1
    95b0:	8562                	mv	a0,s8
    95b2:	85e6                	mv	a1,s9
    95b4:	7fc010ef          	jal	ra,adb0 <__ledf2>
    95b8:	03000793          	li	a5,48
    95bc:	e00552e3          	bgez	a0,93c0 <_dtoa_r+0x4c0>
    95c0:	fffa4703          	lbu	a4,-1(s4)
    95c4:	fffa0693          	addi	a3,s4,-1
    95c8:	00f70463          	beq	a4,a5,95d0 <_dtoa_r+0x6d0>
    95cc:	846a                	mv	s0,s10
    95ce:	a859                	j	9664 <_dtoa_r+0x764>
    95d0:	8a36                	mv	s4,a3
    95d2:	b7fd                	j	95c0 <_dtoa_r+0x6c0>
    95d4:	00002797          	auipc	a5,0x2
    95d8:	60478793          	addi	a5,a5,1540 # bbd8 <__clz_tab+0x168>
    95dc:	4390                	lw	a2,0(a5)
    95de:	43d4                	lw	a3,4(a5)
    95e0:	f7afd0ef          	jal	ra,6d5a <__muldf3>
    95e4:	8c2a                	mv	s8,a0
    95e6:	8cae                	mv	s9,a1
    95e8:	bfb1                	j	9544 <_dtoa_r+0x644>
    95ea:	87e2                	mv	a5,s8
    95ec:	8cbe                	mv	s9,a5
    95ee:	4782                	lw	a5,0(sp)
    95f0:	8c52                	mv	s8,s4
    95f2:	00002a97          	auipc	s5,0x2
    95f6:	5e6a8a93          	addi	s5,s5,1510 # bbd8 <__clz_tab+0x168>
    95fa:	00178913          	addi	s2,a5,1
    95fe:	9dbe                	add	s11,s11,a5
    9600:	865a                	mv	a2,s6
    9602:	86de                	mv	a3,s7
    9604:	8562                	mv	a0,s8
    9606:	85e6                	mv	a1,s9
    9608:	886fd0ef          	jal	ra,668e <__divdf3>
    960c:	05b010ef          	jal	ra,ae66 <__fixdfsi>
    9610:	8d2a                	mv	s10,a0
    9612:	bd6fe0ef          	jal	ra,79e8 <__floatsidf>
    9616:	865a                	mv	a2,s6
    9618:	86de                	mv	a3,s7
    961a:	f40fd0ef          	jal	ra,6d5a <__muldf3>
    961e:	862a                	mv	a2,a0
    9620:	86ae                	mv	a3,a1
    9622:	8562                	mv	a0,s8
    9624:	85e6                	mv	a1,s9
    9626:	bedfd0ef          	jal	ra,7212 <__subdf3>
    962a:	030d0793          	addi	a5,s10,48
    962e:	fef90fa3          	sb	a5,-1(s2)
    9632:	862a                	mv	a2,a0
    9634:	86ae                	mv	a3,a1
    9636:	8a4a                	mv	s4,s2
    9638:	072d9b63          	bne	s11,s2,96ae <_dtoa_r+0x7ae>
    963c:	923fc0ef          	jal	ra,5f5e <__adddf3>
    9640:	865a                	mv	a2,s6
    9642:	86de                	mv	a3,s7
    9644:	8c2a                	mv	s8,a0
    9646:	8cae                	mv	s9,a1
    9648:	e64fd0ef          	jal	ra,6cac <__gedf2>
    964c:	02a04b63          	bgtz	a0,9682 <_dtoa_r+0x782>
    9650:	865a                	mv	a2,s6
    9652:	86de                	mv	a3,s7
    9654:	8562                	mv	a0,s8
    9656:	85e6                	mv	a1,s9
    9658:	deafd0ef          	jal	ra,6c42 <__eqdf2>
    965c:	e501                	bnez	a0,9664 <_dtoa_r+0x764>
    965e:	001d7793          	andi	a5,s10,1
    9662:	e385                	bnez	a5,9682 <_dtoa_r+0x782>
    9664:	85ce                	mv	a1,s3
    9666:	8526                	mv	a0,s1
    9668:	223000ef          	jal	ra,a08a <_Bfree>
    966c:	57c2                	lw	a5,48(sp)
    966e:	000a0023          	sb	zero,0(s4)
    9672:	0405                	addi	s0,s0,1
    9674:	c380                	sw	s0,0(a5)
    9676:	47d2                	lw	a5,20(sp)
    9678:	94078ae3          	beqz	a5,8fcc <_dtoa_r+0xcc>
    967c:	0147a023          	sw	s4,0(a5)
    9680:	b2b1                	j	8fcc <_dtoa_r+0xcc>
    9682:	8d22                	mv	s10,s0
    9684:	03900713          	li	a4,57
    9688:	fffa4683          	lbu	a3,-1(s4)
    968c:	fffa0793          	addi	a5,s4,-1
    9690:	00e69963          	bne	a3,a4,96a2 <_dtoa_r+0x7a2>
    9694:	4682                	lw	a3,0(sp)
    9696:	00f69a63          	bne	a3,a5,96aa <_dtoa_r+0x7aa>
    969a:	03000713          	li	a4,48
    969e:	0d05                	addi	s10,s10,1
    96a0:	a298                	sb	a4,0(a3)
    96a2:	2398                	lbu	a4,0(a5)
    96a4:	0705                	addi	a4,a4,1
    96a6:	a398                	sb	a4,0(a5)
    96a8:	b715                	j	95cc <_dtoa_r+0x6cc>
    96aa:	8a3e                	mv	s4,a5
    96ac:	bff1                	j	9688 <_dtoa_r+0x788>
    96ae:	000aa603          	lw	a2,0(s5)
    96b2:	004aa683          	lw	a3,4(s5)
    96b6:	0905                	addi	s2,s2,1
    96b8:	ea2fd0ef          	jal	ra,6d5a <__muldf3>
    96bc:	4601                	li	a2,0
    96be:	4681                	li	a3,0
    96c0:	8c2a                	mv	s8,a0
    96c2:	8cae                	mv	s9,a1
    96c4:	d7efd0ef          	jal	ra,6c42 <__eqdf2>
    96c8:	fd05                	bnez	a0,9600 <_dtoa_r+0x700>
    96ca:	bf69                	j	9664 <_dtoa_r+0x764>
    96cc:	4742                	lw	a4,16(sp)
    96ce:	10070063          	beqz	a4,97ce <_dtoa_r+0x8ce>
    96d2:	4692                	lw	a3,4(sp)
    96d4:	4705                	li	a4,1
    96d6:	0cd74563          	blt	a4,a3,97a0 <_dtoa_r+0x8a0>
    96da:	5762                	lw	a4,56(sp)
    96dc:	43378793          	addi	a5,a5,1075
    96e0:	e709                	bnez	a4,96ea <_dtoa_r+0x7ea>
    96e2:	4726                	lw	a4,72(sp)
    96e4:	03600793          	li	a5,54
    96e8:	8f99                	sub	a5,a5,a4
    96ea:	8d56                	mv	s10,s5
    96ec:	8cda                	mv	s9,s6
    96ee:	4585                	li	a1,1
    96f0:	8526                	mv	a0,s1
    96f2:	9b3e                	add	s6,s6,a5
    96f4:	9bbe                	add	s7,s7,a5
    96f6:	321000ef          	jal	ra,a216 <__i2b>
    96fa:	892a                	mv	s2,a0
    96fc:	01905e63          	blez	s9,9718 <_dtoa_r+0x818>
    9700:	01705c63          	blez	s7,9718 <_dtoa_r+0x818>
    9704:	87e6                	mv	a5,s9
    9706:	019bd363          	bge	s7,s9,970c <_dtoa_r+0x80c>
    970a:	87de                	mv	a5,s7
    970c:	40fb0b33          	sub	s6,s6,a5
    9710:	40fc8cb3          	sub	s9,s9,a5
    9714:	40fb8bb3          	sub	s7,s7,a5
    9718:	040a8063          	beqz	s5,9758 <_dtoa_r+0x858>
    971c:	47c2                	lw	a5,16(sp)
    971e:	cfc5                	beqz	a5,97d6 <_dtoa_r+0x8d6>
    9720:	03a05463          	blez	s10,9748 <_dtoa_r+0x848>
    9724:	85ca                	mv	a1,s2
    9726:	866a                	mv	a2,s10
    9728:	8526                	mv	a0,s1
    972a:	44d000ef          	jal	ra,a376 <__pow5mult>
    972e:	864e                	mv	a2,s3
    9730:	85aa                	mv	a1,a0
    9732:	892a                	mv	s2,a0
    9734:	8526                	mv	a0,s1
    9736:	2fd000ef          	jal	ra,a232 <__multiply>
    973a:	ce2a                	sw	a0,28(sp)
    973c:	85ce                	mv	a1,s3
    973e:	8526                	mv	a0,s1
    9740:	14b000ef          	jal	ra,a08a <_Bfree>
    9744:	47f2                	lw	a5,28(sp)
    9746:	89be                	mv	s3,a5
    9748:	41aa8633          	sub	a2,s5,s10
    974c:	c611                	beqz	a2,9758 <_dtoa_r+0x858>
    974e:	85ce                	mv	a1,s3
    9750:	8526                	mv	a0,s1
    9752:	425000ef          	jal	ra,a376 <__pow5mult>
    9756:	89aa                	mv	s3,a0
    9758:	4585                	li	a1,1
    975a:	8526                	mv	a0,s1
    975c:	2bb000ef          	jal	ra,a216 <__i2b>
    9760:	47e2                	lw	a5,24(sp)
    9762:	8aaa                	mv	s5,a0
    9764:	06f05b63          	blez	a5,97da <_dtoa_r+0x8da>
    9768:	863e                	mv	a2,a5
    976a:	85aa                	mv	a1,a0
    976c:	8526                	mv	a0,s1
    976e:	409000ef          	jal	ra,a376 <__pow5mult>
    9772:	4712                	lw	a4,4(sp)
    9774:	4785                	li	a5,1
    9776:	8aaa                	mv	s5,a0
    9778:	4d01                	li	s10,0
    977a:	06e7c863          	blt	a5,a4,97ea <_dtoa_r+0x8ea>
    977e:	4d01                	li	s10,0
    9780:	060a1263          	bnez	s4,97e4 <_dtoa_r+0x8e4>
    9784:	00cc1793          	slli	a5,s8,0xc
    9788:	8d52                	mv	s10,s4
    978a:	efa9                	bnez	a5,97e4 <_dtoa_r+0x8e4>
    978c:	7ff005b7          	lui	a1,0x7ff00
    9790:	00bc7c33          	and	s8,s8,a1
    9794:	040c0863          	beqz	s8,97e4 <_dtoa_r+0x8e4>
    9798:	0b05                	addi	s6,s6,1
    979a:	0b85                	addi	s7,s7,1
    979c:	4d05                	li	s10,1
    979e:	a099                	j	97e4 <_dtoa_r+0x8e4>
    97a0:	fffd8d13          	addi	s10,s11,-1
    97a4:	01aaca63          	blt	s5,s10,97b8 <_dtoa_r+0x8b8>
    97a8:	41aa8d33          	sub	s10,s5,s10
    97ac:	000dde63          	bgez	s11,97c8 <_dtoa_r+0x8c8>
    97b0:	41bb0cb3          	sub	s9,s6,s11
    97b4:	4781                	li	a5,0
    97b6:	bf25                	j	96ee <_dtoa_r+0x7ee>
    97b8:	47e2                	lw	a5,24(sp)
    97ba:	415d0ab3          	sub	s5,s10,s5
    97be:	97d6                	add	a5,a5,s5
    97c0:	cc3e                	sw	a5,24(sp)
    97c2:	8aea                	mv	s5,s10
    97c4:	4d01                	li	s10,0
    97c6:	b7dd                	j	97ac <_dtoa_r+0x8ac>
    97c8:	8cda                	mv	s9,s6
    97ca:	87ee                	mv	a5,s11
    97cc:	b70d                	j	96ee <_dtoa_r+0x7ee>
    97ce:	8d56                	mv	s10,s5
    97d0:	8cda                	mv	s9,s6
    97d2:	4901                	li	s2,0
    97d4:	b725                	j	96fc <_dtoa_r+0x7fc>
    97d6:	8656                	mv	a2,s5
    97d8:	bf9d                	j	974e <_dtoa_r+0x84e>
    97da:	4712                	lw	a4,4(sp)
    97dc:	4785                	li	a5,1
    97de:	4d01                	li	s10,0
    97e0:	f8e7dfe3          	bge	a5,a4,977e <_dtoa_r+0x87e>
    97e4:	47e2                	lw	a5,24(sp)
    97e6:	4505                	li	a0,1
    97e8:	cf89                	beqz	a5,9802 <_dtoa_r+0x902>
    97ea:	010aa783          	lw	a5,16(s5)
    97ee:	078d                	addi	a5,a5,3
    97f0:	078a                	slli	a5,a5,0x2
    97f2:	97d6                	add	a5,a5,s5
    97f4:	43c8                	lw	a0,4(a5)
    97f6:	171000ef          	jal	ra,a166 <__hi0bits>
    97fa:	02000793          	li	a5,32
    97fe:	40a78533          	sub	a0,a5,a0
    9802:	955e                	add	a0,a0,s7
    9804:	897d                	andi	a0,a0,31
    9806:	c151                	beqz	a0,988a <_dtoa_r+0x98a>
    9808:	02000793          	li	a5,32
    980c:	8f89                	sub	a5,a5,a0
    980e:	4711                	li	a4,4
    9810:	06f75a63          	bge	a4,a5,9884 <_dtoa_r+0x984>
    9814:	47f1                	li	a5,28
    9816:	40a78533          	sub	a0,a5,a0
    981a:	9b2a                	add	s6,s6,a0
    981c:	9caa                	add	s9,s9,a0
    981e:	9baa                	add	s7,s7,a0
    9820:	01605863          	blez	s6,9830 <_dtoa_r+0x930>
    9824:	85ce                	mv	a1,s3
    9826:	865a                	mv	a2,s6
    9828:	8526                	mv	a0,s1
    982a:	40b000ef          	jal	ra,a434 <__lshift>
    982e:	89aa                	mv	s3,a0
    9830:	01705863          	blez	s7,9840 <_dtoa_r+0x940>
    9834:	85d6                	mv	a1,s5
    9836:	865e                	mv	a2,s7
    9838:	8526                	mv	a0,s1
    983a:	3fb000ef          	jal	ra,a434 <__lshift>
    983e:	8aaa                	mv	s5,a0
    9840:	57b2                	lw	a5,44(sp)
    9842:	c7b1                	beqz	a5,988e <_dtoa_r+0x98e>
    9844:	85d6                	mv	a1,s5
    9846:	854e                	mv	a0,s3
    9848:	4bb000ef          	jal	ra,a502 <__mcmp>
    984c:	04055163          	bgez	a0,988e <_dtoa_r+0x98e>
    9850:	85ce                	mv	a1,s3
    9852:	4681                	li	a3,0
    9854:	4629                	li	a2,10
    9856:	8526                	mv	a0,s1
    9858:	077000ef          	jal	ra,a0ce <__multadd>
    985c:	47c2                	lw	a5,16(sp)
    985e:	147d                	addi	s0,s0,-1
    9860:	89aa                	mv	s3,a0
    9862:	26078b63          	beqz	a5,9ad8 <_dtoa_r+0xbd8>
    9866:	85ca                	mv	a1,s2
    9868:	4681                	li	a3,0
    986a:	4629                	li	a2,10
    986c:	8526                	mv	a0,s1
    986e:	061000ef          	jal	ra,a0ce <__multadd>
    9872:	47a2                	lw	a5,8(sp)
    9874:	892a                	mv	s2,a0
    9876:	08f04563          	bgtz	a5,9900 <_dtoa_r+0xa00>
    987a:	4712                	lw	a4,4(sp)
    987c:	4789                	li	a5,2
    987e:	08e7d163          	bge	a5,a4,9900 <_dtoa_r+0xa00>
    9882:	a829                	j	989c <_dtoa_r+0x99c>
    9884:	f8e78ee3          	beq	a5,a4,9820 <_dtoa_r+0x920>
    9888:	853e                	mv	a0,a5
    988a:	0571                	addi	a0,a0,28
    988c:	b779                	j	981a <_dtoa_r+0x91a>
    988e:	07b04563          	bgtz	s11,98f8 <_dtoa_r+0x9f8>
    9892:	4712                	lw	a4,4(sp)
    9894:	4789                	li	a5,2
    9896:	06e7d163          	bge	a5,a4,98f8 <_dtoa_r+0x9f8>
    989a:	c46e                	sw	s11,8(sp)
    989c:	47a2                	lw	a5,8(sp)
    989e:	ef91                	bnez	a5,98ba <_dtoa_r+0x9ba>
    98a0:	85d6                	mv	a1,s5
    98a2:	4681                	li	a3,0
    98a4:	4615                	li	a2,5
    98a6:	8526                	mv	a0,s1
    98a8:	027000ef          	jal	ra,a0ce <__multadd>
    98ac:	8aaa                	mv	s5,a0
    98ae:	85aa                	mv	a1,a0
    98b0:	854e                	mv	a0,s3
    98b2:	451000ef          	jal	ra,a502 <__mcmp>
    98b6:	b6a041e3          	bgtz	a0,9418 <_dtoa_r+0x518>
    98ba:	47b2                	lw	a5,12(sp)
    98bc:	4a02                	lw	s4,0(sp)
    98be:	fff7c413          	not	s0,a5
    98c2:	4b01                	li	s6,0
    98c4:	85d6                	mv	a1,s5
    98c6:	8526                	mv	a0,s1
    98c8:	7c2000ef          	jal	ra,a08a <_Bfree>
    98cc:	d8090ce3          	beqz	s2,9664 <_dtoa_r+0x764>
    98d0:	000b0863          	beqz	s6,98e0 <_dtoa_r+0x9e0>
    98d4:	012b0663          	beq	s6,s2,98e0 <_dtoa_r+0x9e0>
    98d8:	85da                	mv	a1,s6
    98da:	8526                	mv	a0,s1
    98dc:	7ae000ef          	jal	ra,a08a <_Bfree>
    98e0:	85ca                	mv	a1,s2
    98e2:	8526                	mv	a0,s1
    98e4:	7a6000ef          	jal	ra,a08a <_Bfree>
    98e8:	bbb5                	j	9664 <_dtoa_r+0x764>
    98ea:	4a81                	li	s5,0
    98ec:	4901                	li	s2,0
    98ee:	b7f1                	j	98ba <_dtoa_r+0x9ba>
    98f0:	846a                	mv	s0,s10
    98f2:	4a81                	li	s5,0
    98f4:	4901                	li	s2,0
    98f6:	b60d                	j	9418 <_dtoa_r+0x518>
    98f8:	47c2                	lw	a5,16(sp)
    98fa:	c46e                	sw	s11,8(sp)
    98fc:	1e078563          	beqz	a5,9ae6 <_dtoa_r+0xbe6>
    9900:	01905863          	blez	s9,9910 <_dtoa_r+0xa10>
    9904:	85ca                	mv	a1,s2
    9906:	8666                	mv	a2,s9
    9908:	8526                	mv	a0,s1
    990a:	32b000ef          	jal	ra,a434 <__lshift>
    990e:	892a                	mv	s2,a0
    9910:	854a                	mv	a0,s2
    9912:	020d0663          	beqz	s10,993e <_dtoa_r+0xa3e>
    9916:	00492583          	lw	a1,4(s2)
    991a:	8526                	mv	a0,s1
    991c:	6e6000ef          	jal	ra,a002 <_Balloc>
    9920:	01092603          	lw	a2,16(s2)
    9924:	8b2a                	mv	s6,a0
    9926:	00c90593          	addi	a1,s2,12
    992a:	0609                	addi	a2,a2,2
    992c:	060a                	slli	a2,a2,0x2
    992e:	0531                	addi	a0,a0,12
    9930:	f06fe0ef          	jal	ra,8036 <memcpy>
    9934:	4605                	li	a2,1
    9936:	85da                	mv	a1,s6
    9938:	8526                	mv	a0,s1
    993a:	2fb000ef          	jal	ra,a434 <__lshift>
    993e:	4782                	lw	a5,0(sp)
    9940:	4722                	lw	a4,8(sp)
    9942:	8b4a                	mv	s6,s2
    9944:	00178c13          	addi	s8,a5,1
    9948:	97ba                	add	a5,a5,a4
    994a:	c63e                	sw	a5,12(sp)
    994c:	001a7793          	andi	a5,s4,1
    9950:	892a                	mv	s2,a0
    9952:	c43e                	sw	a5,8(sp)
    9954:	85d6                	mv	a1,s5
    9956:	854e                	mv	a0,s3
    9958:	c6eff0ef          	jal	ra,8dc6 <quorem>
    995c:	85da                	mv	a1,s6
    995e:	8d2a                	mv	s10,a0
    9960:	03050d93          	addi	s11,a0,48
    9964:	854e                	mv	a0,s3
    9966:	39d000ef          	jal	ra,a502 <__mcmp>
    996a:	864a                	mv	a2,s2
    996c:	8baa                	mv	s7,a0
    996e:	85d6                	mv	a1,s5
    9970:	8526                	mv	a0,s1
    9972:	3c3000ef          	jal	ra,a534 <__mdiff>
    9976:	4550                	lw	a2,12(a0)
    9978:	fffc0c93          	addi	s9,s8,-1
    997c:	8a2a                	mv	s4,a0
    997e:	4705                	li	a4,1
    9980:	e611                	bnez	a2,998c <_dtoa_r+0xa8c>
    9982:	85aa                	mv	a1,a0
    9984:	854e                	mv	a0,s3
    9986:	37d000ef          	jal	ra,a502 <__mcmp>
    998a:	872a                	mv	a4,a0
    998c:	85d2                	mv	a1,s4
    998e:	8526                	mv	a0,s1
    9990:	c83a                	sw	a4,16(sp)
    9992:	6f8000ef          	jal	ra,a08a <_Bfree>
    9996:	4792                	lw	a5,4(sp)
    9998:	4742                	lw	a4,16(sp)
    999a:	8a62                	mv	s4,s8
    999c:	00e7e6b3          	or	a3,a5,a4
    99a0:	47a2                	lw	a5,8(sp)
    99a2:	8edd                	or	a3,a3,a5
    99a4:	ee81                	bnez	a3,99bc <_dtoa_r+0xabc>
    99a6:	03900713          	li	a4,57
    99aa:	04ed8863          	beq	s11,a4,99fa <_dtoa_r+0xafa>
    99ae:	01705463          	blez	s7,99b6 <_dtoa_r+0xab6>
    99b2:	031d0d93          	addi	s11,s10,49
    99b6:	01bc8023          	sb	s11,0(s9)
    99ba:	b729                	j	98c4 <_dtoa_r+0x9c4>
    99bc:	000bca63          	bltz	s7,99d0 <_dtoa_r+0xad0>
    99c0:	4792                	lw	a5,4(sp)
    99c2:	0177ebb3          	or	s7,a5,s7
    99c6:	47a2                	lw	a5,8(sp)
    99c8:	00fbebb3          	or	s7,s7,a5
    99cc:	040b9563          	bnez	s7,9a16 <_dtoa_r+0xb16>
    99d0:	fee053e3          	blez	a4,99b6 <_dtoa_r+0xab6>
    99d4:	85ce                	mv	a1,s3
    99d6:	4605                	li	a2,1
    99d8:	8526                	mv	a0,s1
    99da:	25b000ef          	jal	ra,a434 <__lshift>
    99de:	85d6                	mv	a1,s5
    99e0:	89aa                	mv	s3,a0
    99e2:	321000ef          	jal	ra,a502 <__mcmp>
    99e6:	00a04663          	bgtz	a0,99f2 <_dtoa_r+0xaf2>
    99ea:	f571                	bnez	a0,99b6 <_dtoa_r+0xab6>
    99ec:	001df713          	andi	a4,s11,1
    99f0:	d379                	beqz	a4,99b6 <_dtoa_r+0xab6>
    99f2:	03900713          	li	a4,57
    99f6:	faed9ee3          	bne	s11,a4,99b2 <_dtoa_r+0xab2>
    99fa:	03900793          	li	a5,57
    99fe:	00fc8023          	sb	a5,0(s9)
    9a02:	03900693          	li	a3,57
    9a06:	fffa4783          	lbu	a5,-1(s4)
    9a0a:	fffa0713          	addi	a4,s4,-1
    9a0e:	08d78c63          	beq	a5,a3,9aa6 <_dtoa_r+0xba6>
    9a12:	0785                	addi	a5,a5,1
    9a14:	a045                	j	9ab4 <_dtoa_r+0xbb4>
    9a16:	00e05b63          	blez	a4,9a2c <_dtoa_r+0xb2c>
    9a1a:	03900713          	li	a4,57
    9a1e:	fced8ee3          	beq	s11,a4,99fa <_dtoa_r+0xafa>
    9a22:	001d8793          	addi	a5,s11,1
    9a26:	00fc8023          	sb	a5,0(s9)
    9a2a:	bd69                	j	98c4 <_dtoa_r+0x9c4>
    9a2c:	47b2                	lw	a5,12(sp)
    9a2e:	ffbc0fa3          	sb	s11,-1(s8)
    9a32:	05878163          	beq	a5,s8,9a74 <_dtoa_r+0xb74>
    9a36:	85ce                	mv	a1,s3
    9a38:	4681                	li	a3,0
    9a3a:	4629                	li	a2,10
    9a3c:	8526                	mv	a0,s1
    9a3e:	690000ef          	jal	ra,a0ce <__multadd>
    9a42:	89aa                	mv	s3,a0
    9a44:	4681                	li	a3,0
    9a46:	4629                	li	a2,10
    9a48:	85da                	mv	a1,s6
    9a4a:	8526                	mv	a0,s1
    9a4c:	012b1863          	bne	s6,s2,9a5c <_dtoa_r+0xb5c>
    9a50:	67e000ef          	jal	ra,a0ce <__multadd>
    9a54:	8b2a                	mv	s6,a0
    9a56:	892a                	mv	s2,a0
    9a58:	0c05                	addi	s8,s8,1
    9a5a:	bded                	j	9954 <_dtoa_r+0xa54>
    9a5c:	672000ef          	jal	ra,a0ce <__multadd>
    9a60:	85ca                	mv	a1,s2
    9a62:	8b2a                	mv	s6,a0
    9a64:	4681                	li	a3,0
    9a66:	4629                	li	a2,10
    9a68:	8526                	mv	a0,s1
    9a6a:	664000ef          	jal	ra,a0ce <__multadd>
    9a6e:	892a                	mv	s2,a0
    9a70:	b7e5                	j	9a58 <_dtoa_r+0xb58>
    9a72:	4b01                	li	s6,0
    9a74:	85ce                	mv	a1,s3
    9a76:	4605                	li	a2,1
    9a78:	8526                	mv	a0,s1
    9a7a:	1bb000ef          	jal	ra,a434 <__lshift>
    9a7e:	85d6                	mv	a1,s5
    9a80:	89aa                	mv	s3,a0
    9a82:	281000ef          	jal	ra,a502 <__mcmp>
    9a86:	f6a04ee3          	bgtz	a0,9a02 <_dtoa_r+0xb02>
    9a8a:	e501                	bnez	a0,9a92 <_dtoa_r+0xb92>
    9a8c:	001df793          	andi	a5,s11,1
    9a90:	fbad                	bnez	a5,9a02 <_dtoa_r+0xb02>
    9a92:	03000793          	li	a5,48
    9a96:	fffa4703          	lbu	a4,-1(s4)
    9a9a:	fffa0693          	addi	a3,s4,-1
    9a9e:	e2f713e3          	bne	a4,a5,98c4 <_dtoa_r+0x9c4>
    9aa2:	8a36                	mv	s4,a3
    9aa4:	bfcd                	j	9a96 <_dtoa_r+0xb96>
    9aa6:	4782                	lw	a5,0(sp)
    9aa8:	00e79863          	bne	a5,a4,9ab8 <_dtoa_r+0xbb8>
    9aac:	4702                	lw	a4,0(sp)
    9aae:	0405                	addi	s0,s0,1
    9ab0:	03100793          	li	a5,49
    9ab4:	a31c                	sb	a5,0(a4)
    9ab6:	b539                	j	98c4 <_dtoa_r+0x9c4>
    9ab8:	8a3a                	mv	s4,a4
    9aba:	b7b1                	j	9a06 <_dtoa_r+0xb06>
    9abc:	4752                	lw	a4,20(sp)
    9abe:	00002797          	auipc	a5,0x2
    9ac2:	13278793          	addi	a5,a5,306 # bbf0 <__clz_tab+0x180>
    9ac6:	c03e                	sw	a5,0(sp)
    9ac8:	00002797          	auipc	a5,0x2
    9acc:	13078793          	addi	a5,a5,304 # bbf8 <__clz_tab+0x188>
    9ad0:	ce071c63          	bnez	a4,8fc8 <_dtoa_r+0xc8>
    9ad4:	cf8ff06f          	j	8fcc <_dtoa_r+0xcc>
    9ad8:	47a2                	lw	a5,8(sp)
    9ada:	00f04663          	bgtz	a5,9ae6 <_dtoa_r+0xbe6>
    9ade:	4712                	lw	a4,4(sp)
    9ae0:	4789                	li	a5,2
    9ae2:	dae7cde3          	blt	a5,a4,989c <_dtoa_r+0x99c>
    9ae6:	4a02                	lw	s4,0(sp)
    9ae8:	85d6                	mv	a1,s5
    9aea:	854e                	mv	a0,s3
    9aec:	adaff0ef          	jal	ra,8dc6 <quorem>
    9af0:	4782                	lw	a5,0(sp)
    9af2:	0a05                	addi	s4,s4,1
    9af4:	03050d93          	addi	s11,a0,48
    9af8:	40fa0733          	sub	a4,s4,a5
    9afc:	47a2                	lw	a5,8(sp)
    9afe:	ffba0fa3          	sb	s11,-1(s4)
    9b02:	f6f758e3          	bge	a4,a5,9a72 <_dtoa_r+0xb72>
    9b06:	85ce                	mv	a1,s3
    9b08:	4681                	li	a3,0
    9b0a:	4629                	li	a2,10
    9b0c:	8526                	mv	a0,s1
    9b0e:	23c1                	jal	a0ce <__multadd>
    9b10:	89aa                	mv	s3,a0
    9b12:	bfd9                	j	9ae8 <_dtoa_r+0xbe8>

00009b14 <__sflush_r>:
    9b14:	25de                	lhu	a5,12(a1)
    9b16:	1101                	addi	sp,sp,-32
    9b18:	cc22                	sw	s0,24(sp)
    9b1a:	ca26                	sw	s1,20(sp)
    9b1c:	ce06                	sw	ra,28(sp)
    9b1e:	c84a                	sw	s2,16(sp)
    9b20:	c64e                	sw	s3,12(sp)
    9b22:	0087f713          	andi	a4,a5,8
    9b26:	84aa                	mv	s1,a0
    9b28:	842e                	mv	s0,a1
    9b2a:	ef61                	bnez	a4,9c02 <__sflush_r+0xee>
    9b2c:	41d8                	lw	a4,4(a1)
    9b2e:	00e04d63          	bgtz	a4,9b48 <__sflush_r+0x34>
    9b32:	41b8                	lw	a4,64(a1)
    9b34:	00e04a63          	bgtz	a4,9b48 <__sflush_r+0x34>
    9b38:	4501                	li	a0,0
    9b3a:	40f2                	lw	ra,28(sp)
    9b3c:	4462                	lw	s0,24(sp)
    9b3e:	44d2                	lw	s1,20(sp)
    9b40:	4942                	lw	s2,16(sp)
    9b42:	49b2                	lw	s3,12(sp)
    9b44:	6105                	addi	sp,sp,32
    9b46:	8082                	ret
    9b48:	5458                	lw	a4,44(s0)
    9b4a:	d77d                	beqz	a4,9b38 <__sflush_r+0x24>
    9b4c:	0004a903          	lw	s2,0(s1)
    9b50:	01379693          	slli	a3,a5,0x13
    9b54:	0004a023          	sw	zero,0(s1)
    9b58:	0606dc63          	bgez	a3,9bd0 <__sflush_r+0xbc>
    9b5c:	4870                	lw	a2,84(s0)
    9b5e:	245e                	lhu	a5,12(s0)
    9b60:	8b91                	andi	a5,a5,4
    9b62:	c799                	beqz	a5,9b70 <__sflush_r+0x5c>
    9b64:	405c                	lw	a5,4(s0)
    9b66:	8e1d                	sub	a2,a2,a5
    9b68:	585c                	lw	a5,52(s0)
    9b6a:	c399                	beqz	a5,9b70 <__sflush_r+0x5c>
    9b6c:	403c                	lw	a5,64(s0)
    9b6e:	8e1d                	sub	a2,a2,a5
    9b70:	545c                	lw	a5,44(s0)
    9b72:	500c                	lw	a1,32(s0)
    9b74:	4681                	li	a3,0
    9b76:	8526                	mv	a0,s1
    9b78:	9782                	jalr	a5
    9b7a:	57fd                	li	a5,-1
    9b7c:	245a                	lhu	a4,12(s0)
    9b7e:	00f51d63          	bne	a0,a5,9b98 <__sflush_r+0x84>
    9b82:	4094                	lw	a3,0(s1)
    9b84:	47f5                	li	a5,29
    9b86:	06d7e963          	bltu	a5,a3,9bf8 <__sflush_r+0xe4>
    9b8a:	204007b7          	lui	a5,0x20400
    9b8e:	0785                	addi	a5,a5,1
    9b90:	00d7d7b3          	srl	a5,a5,a3
    9b94:	8b85                	andi	a5,a5,1
    9b96:	c3ad                	beqz	a5,9bf8 <__sflush_r+0xe4>
    9b98:	481c                	lw	a5,16(s0)
    9b9a:	00042223          	sw	zero,4(s0)
    9b9e:	c01c                	sw	a5,0(s0)
    9ba0:	01371793          	slli	a5,a4,0x13
    9ba4:	0007d863          	bgez	a5,9bb4 <__sflush_r+0xa0>
    9ba8:	57fd                	li	a5,-1
    9baa:	00f51463          	bne	a0,a5,9bb2 <__sflush_r+0x9e>
    9bae:	409c                	lw	a5,0(s1)
    9bb0:	e391                	bnez	a5,9bb4 <__sflush_r+0xa0>
    9bb2:	c868                	sw	a0,84(s0)
    9bb4:	584c                	lw	a1,52(s0)
    9bb6:	0124a023          	sw	s2,0(s1)
    9bba:	ddbd                	beqz	a1,9b38 <__sflush_r+0x24>
    9bbc:	04440793          	addi	a5,s0,68
    9bc0:	00f58563          	beq	a1,a5,9bca <__sflush_r+0xb6>
    9bc4:	8526                	mv	a0,s1
    9bc6:	35b000ef          	jal	ra,a720 <_free_r>
    9bca:	02042a23          	sw	zero,52(s0)
    9bce:	b7ad                	j	9b38 <__sflush_r+0x24>
    9bd0:	500c                	lw	a1,32(s0)
    9bd2:	4601                	li	a2,0
    9bd4:	4685                	li	a3,1
    9bd6:	8526                	mv	a0,s1
    9bd8:	9702                	jalr	a4
    9bda:	57fd                	li	a5,-1
    9bdc:	862a                	mv	a2,a0
    9bde:	f8f510e3          	bne	a0,a5,9b5e <__sflush_r+0x4a>
    9be2:	409c                	lw	a5,0(s1)
    9be4:	dfad                	beqz	a5,9b5e <__sflush_r+0x4a>
    9be6:	4775                	li	a4,29
    9be8:	00e78563          	beq	a5,a4,9bf2 <__sflush_r+0xde>
    9bec:	4759                	li	a4,22
    9bee:	04e79363          	bne	a5,a4,9c34 <__sflush_r+0x120>
    9bf2:	0124a023          	sw	s2,0(s1)
    9bf6:	b789                	j	9b38 <__sflush_r+0x24>
    9bf8:	04076713          	ori	a4,a4,64
    9bfc:	a45a                	sh	a4,12(s0)
    9bfe:	557d                	li	a0,-1
    9c00:	bf2d                	j	9b3a <__sflush_r+0x26>
    9c02:	0105a983          	lw	s3,16(a1) # 7ff00010 <_eusrstack+0x5fef8010>
    9c06:	f20989e3          	beqz	s3,9b38 <__sflush_r+0x24>
    9c0a:	0005a903          	lw	s2,0(a1)
    9c0e:	8b8d                	andi	a5,a5,3
    9c10:	0135a023          	sw	s3,0(a1)
    9c14:	41390933          	sub	s2,s2,s3
    9c18:	4701                	li	a4,0
    9c1a:	e391                	bnez	a5,9c1e <__sflush_r+0x10a>
    9c1c:	49d8                	lw	a4,20(a1)
    9c1e:	c418                	sw	a4,8(s0)
    9c20:	f1205ce3          	blez	s2,9b38 <__sflush_r+0x24>
    9c24:	541c                	lw	a5,40(s0)
    9c26:	500c                	lw	a1,32(s0)
    9c28:	86ca                	mv	a3,s2
    9c2a:	864e                	mv	a2,s3
    9c2c:	8526                	mv	a0,s1
    9c2e:	9782                	jalr	a5
    9c30:	00a04763          	bgtz	a0,9c3e <__sflush_r+0x12a>
    9c34:	245e                	lhu	a5,12(s0)
    9c36:	0407e793          	ori	a5,a5,64
    9c3a:	a45e                	sh	a5,12(s0)
    9c3c:	b7c9                	j	9bfe <__sflush_r+0xea>
    9c3e:	99aa                	add	s3,s3,a0
    9c40:	40a90933          	sub	s2,s2,a0
    9c44:	bff1                	j	9c20 <__sflush_r+0x10c>

00009c46 <_fflush_r>:
    9c46:	499c                	lw	a5,16(a1)
    9c48:	c3a5                	beqz	a5,9ca8 <_fflush_r+0x62>
    9c4a:	1101                	addi	sp,sp,-32
    9c4c:	cc22                	sw	s0,24(sp)
    9c4e:	ce06                	sw	ra,28(sp)
    9c50:	842a                	mv	s0,a0
    9c52:	c511                	beqz	a0,9c5e <_fflush_r+0x18>
    9c54:	4d1c                	lw	a5,24(a0)
    9c56:	e781                	bnez	a5,9c5e <_fflush_r+0x18>
    9c58:	c62e                	sw	a1,12(sp)
    9c5a:	2229                	jal	9d64 <__sinit>
    9c5c:	45b2                	lw	a1,12(sp)
    9c5e:	00002797          	auipc	a5,0x2
    9c62:	fc278793          	addi	a5,a5,-62 # bc20 <__sf_fake_stdin>
    9c66:	00f59c63          	bne	a1,a5,9c7e <_fflush_r+0x38>
    9c6a:	404c                	lw	a1,4(s0)
    9c6c:	00c59783          	lh	a5,12(a1)
    9c70:	c79d                	beqz	a5,9c9e <_fflush_r+0x58>
    9c72:	8522                	mv	a0,s0
    9c74:	4462                	lw	s0,24(sp)
    9c76:	40f2                	lw	ra,28(sp)
    9c78:	6105                	addi	sp,sp,32
    9c7a:	e9bff06f          	j	9b14 <__sflush_r>
    9c7e:	00002797          	auipc	a5,0x2
    9c82:	fc278793          	addi	a5,a5,-62 # bc40 <__sf_fake_stdout>
    9c86:	00f59463          	bne	a1,a5,9c8e <_fflush_r+0x48>
    9c8a:	440c                	lw	a1,8(s0)
    9c8c:	b7c5                	j	9c6c <_fflush_r+0x26>
    9c8e:	00002797          	auipc	a5,0x2
    9c92:	f7278793          	addi	a5,a5,-142 # bc00 <__sf_fake_stderr>
    9c96:	fcf59be3          	bne	a1,a5,9c6c <_fflush_r+0x26>
    9c9a:	444c                	lw	a1,12(s0)
    9c9c:	bfc1                	j	9c6c <_fflush_r+0x26>
    9c9e:	40f2                	lw	ra,28(sp)
    9ca0:	4462                	lw	s0,24(sp)
    9ca2:	4501                	li	a0,0
    9ca4:	6105                	addi	sp,sp,32
    9ca6:	8082                	ret
    9ca8:	4501                	li	a0,0
    9caa:	8082                	ret

00009cac <std>:
    9cac:	1141                	addi	sp,sp,-16
    9cae:	c422                	sw	s0,8(sp)
    9cb0:	c606                	sw	ra,12(sp)
    9cb2:	842a                	mv	s0,a0
    9cb4:	a54e                	sh	a1,12(a0)
    9cb6:	a572                	sh	a2,14(a0)
    9cb8:	00052023          	sw	zero,0(a0)
    9cbc:	00052223          	sw	zero,4(a0)
    9cc0:	00052423          	sw	zero,8(a0)
    9cc4:	06052223          	sw	zero,100(a0)
    9cc8:	00052823          	sw	zero,16(a0)
    9ccc:	00052a23          	sw	zero,20(a0)
    9cd0:	00052c23          	sw	zero,24(a0)
    9cd4:	4621                	li	a2,8
    9cd6:	4581                	li	a1,0
    9cd8:	05c50513          	addi	a0,a0,92
    9cdc:	d84f60ef          	jal	ra,260 <memset>
    9ce0:	00001797          	auipc	a5,0x1
    9ce4:	ed278793          	addi	a5,a5,-302 # abb2 <__sread>
    9ce8:	d05c                	sw	a5,36(s0)
    9cea:	00001797          	auipc	a5,0x1
    9cee:	ef478793          	addi	a5,a5,-268 # abde <__swrite>
    9cf2:	d41c                	sw	a5,40(s0)
    9cf4:	00001797          	auipc	a5,0x1
    9cf8:	f3278793          	addi	a5,a5,-206 # ac26 <__sseek>
    9cfc:	d45c                	sw	a5,44(s0)
    9cfe:	00001797          	auipc	a5,0x1
    9d02:	f5878793          	addi	a5,a5,-168 # ac56 <__sclose>
    9d06:	d000                	sw	s0,32(s0)
    9d08:	d81c                	sw	a5,48(s0)
    9d0a:	40b2                	lw	ra,12(sp)
    9d0c:	4422                	lw	s0,8(sp)
    9d0e:	0141                	addi	sp,sp,16
    9d10:	8082                	ret

00009d12 <_cleanup_r>:
    9d12:	00000597          	auipc	a1,0x0
    9d16:	f3458593          	addi	a1,a1,-204 # 9c46 <_fflush_r>
    9d1a:	aa99                	j	9e70 <_fwalk_reent>

00009d1c <__sfmoreglue>:
    9d1c:	1141                	addi	sp,sp,-16
    9d1e:	c226                	sw	s1,4(sp)
    9d20:	06800613          	li	a2,104
    9d24:	fff58493          	addi	s1,a1,-1
    9d28:	02c484b3          	mul	s1,s1,a2
    9d2c:	c04a                	sw	s2,0(sp)
    9d2e:	892e                	mv	s2,a1
    9d30:	c422                	sw	s0,8(sp)
    9d32:	c606                	sw	ra,12(sp)
    9d34:	07448593          	addi	a1,s1,116
    9d38:	28d000ef          	jal	ra,a7c4 <_malloc_r>
    9d3c:	842a                	mv	s0,a0
    9d3e:	cd01                	beqz	a0,9d56 <__sfmoreglue+0x3a>
    9d40:	00052023          	sw	zero,0(a0)
    9d44:	01252223          	sw	s2,4(a0)
    9d48:	0531                	addi	a0,a0,12
    9d4a:	c408                	sw	a0,8(s0)
    9d4c:	06848613          	addi	a2,s1,104
    9d50:	4581                	li	a1,0
    9d52:	d0ef60ef          	jal	ra,260 <memset>
    9d56:	8522                	mv	a0,s0
    9d58:	40b2                	lw	ra,12(sp)
    9d5a:	4422                	lw	s0,8(sp)
    9d5c:	4492                	lw	s1,4(sp)
    9d5e:	4902                	lw	s2,0(sp)
    9d60:	0141                	addi	sp,sp,16
    9d62:	8082                	ret

00009d64 <__sinit>:
    9d64:	4d1c                	lw	a5,24(a0)
    9d66:	e7a5                	bnez	a5,9dce <__sinit+0x6a>
    9d68:	1141                	addi	sp,sp,-16
    9d6a:	c606                	sw	ra,12(sp)
    9d6c:	c422                	sw	s0,8(sp)
    9d6e:	00000797          	auipc	a5,0x0
    9d72:	fa478793          	addi	a5,a5,-92 # 9d12 <_cleanup_r>
    9d76:	d51c                	sw	a5,40(a0)
    9d78:	82c18793          	addi	a5,gp,-2004 # 2000021c <_global_impure_ptr>
    9d7c:	439c                	lw	a5,0(a5)
    9d7e:	04052423          	sw	zero,72(a0)
    9d82:	04052623          	sw	zero,76(a0)
    9d86:	04052823          	sw	zero,80(a0)
    9d8a:	00f51463          	bne	a0,a5,9d92 <__sinit+0x2e>
    9d8e:	4785                	li	a5,1
    9d90:	cd1c                	sw	a5,24(a0)
    9d92:	842a                	mv	s0,a0
    9d94:	2835                	jal	9dd0 <__sfp>
    9d96:	c048                	sw	a0,4(s0)
    9d98:	8522                	mv	a0,s0
    9d9a:	281d                	jal	9dd0 <__sfp>
    9d9c:	c408                	sw	a0,8(s0)
    9d9e:	8522                	mv	a0,s0
    9da0:	2805                	jal	9dd0 <__sfp>
    9da2:	c448                	sw	a0,12(s0)
    9da4:	4048                	lw	a0,4(s0)
    9da6:	4601                	li	a2,0
    9da8:	4591                	li	a1,4
    9daa:	f03ff0ef          	jal	ra,9cac <std>
    9dae:	4408                	lw	a0,8(s0)
    9db0:	4605                	li	a2,1
    9db2:	45a5                	li	a1,9
    9db4:	ef9ff0ef          	jal	ra,9cac <std>
    9db8:	4448                	lw	a0,12(s0)
    9dba:	4609                	li	a2,2
    9dbc:	45c9                	li	a1,18
    9dbe:	eefff0ef          	jal	ra,9cac <std>
    9dc2:	4785                	li	a5,1
    9dc4:	cc1c                	sw	a5,24(s0)
    9dc6:	40b2                	lw	ra,12(sp)
    9dc8:	4422                	lw	s0,8(sp)
    9dca:	0141                	addi	sp,sp,16
    9dcc:	8082                	ret
    9dce:	8082                	ret

00009dd0 <__sfp>:
    9dd0:	1141                	addi	sp,sp,-16
    9dd2:	82c18793          	addi	a5,gp,-2004 # 2000021c <_global_impure_ptr>
    9dd6:	c226                	sw	s1,4(sp)
    9dd8:	4384                	lw	s1,0(a5)
    9dda:	c04a                	sw	s2,0(sp)
    9ddc:	c606                	sw	ra,12(sp)
    9dde:	4c9c                	lw	a5,24(s1)
    9de0:	c422                	sw	s0,8(sp)
    9de2:	892a                	mv	s2,a0
    9de4:	e781                	bnez	a5,9dec <__sfp+0x1c>
    9de6:	8526                	mv	a0,s1
    9de8:	f7dff0ef          	jal	ra,9d64 <__sinit>
    9dec:	04848493          	addi	s1,s1,72
    9df0:	4480                	lw	s0,8(s1)
    9df2:	40dc                	lw	a5,4(s1)
    9df4:	17fd                	addi	a5,a5,-1
    9df6:	0007d663          	bgez	a5,9e02 <__sfp+0x32>
    9dfa:	409c                	lw	a5,0(s1)
    9dfc:	cfb9                	beqz	a5,9e5a <__sfp+0x8a>
    9dfe:	4084                	lw	s1,0(s1)
    9e00:	bfc5                	j	9df0 <__sfp+0x20>
    9e02:	00c41703          	lh	a4,12(s0)
    9e06:	e739                	bnez	a4,9e54 <__sfp+0x84>
    9e08:	77c1                	lui	a5,0xffff0
    9e0a:	0785                	addi	a5,a5,1
    9e0c:	06042223          	sw	zero,100(s0)
    9e10:	00042023          	sw	zero,0(s0)
    9e14:	00042223          	sw	zero,4(s0)
    9e18:	00042423          	sw	zero,8(s0)
    9e1c:	c45c                	sw	a5,12(s0)
    9e1e:	00042823          	sw	zero,16(s0)
    9e22:	00042a23          	sw	zero,20(s0)
    9e26:	00042c23          	sw	zero,24(s0)
    9e2a:	4621                	li	a2,8
    9e2c:	4581                	li	a1,0
    9e2e:	05c40513          	addi	a0,s0,92
    9e32:	c2ef60ef          	jal	ra,260 <memset>
    9e36:	02042a23          	sw	zero,52(s0)
    9e3a:	02042c23          	sw	zero,56(s0)
    9e3e:	04042423          	sw	zero,72(s0)
    9e42:	04042623          	sw	zero,76(s0)
    9e46:	8522                	mv	a0,s0
    9e48:	40b2                	lw	ra,12(sp)
    9e4a:	4422                	lw	s0,8(sp)
    9e4c:	4492                	lw	s1,4(sp)
    9e4e:	4902                	lw	s2,0(sp)
    9e50:	0141                	addi	sp,sp,16
    9e52:	8082                	ret
    9e54:	06840413          	addi	s0,s0,104
    9e58:	bf71                	j	9df4 <__sfp+0x24>
    9e5a:	4591                	li	a1,4
    9e5c:	854a                	mv	a0,s2
    9e5e:	ebfff0ef          	jal	ra,9d1c <__sfmoreglue>
    9e62:	c088                	sw	a0,0(s1)
    9e64:	fd49                	bnez	a0,9dfe <__sfp+0x2e>
    9e66:	47b1                	li	a5,12
    9e68:	00f92023          	sw	a5,0(s2)
    9e6c:	4401                	li	s0,0
    9e6e:	bfe1                	j	9e46 <__sfp+0x76>

00009e70 <_fwalk_reent>:
    9e70:	7179                	addi	sp,sp,-48
    9e72:	d422                	sw	s0,40(sp)
    9e74:	d04a                	sw	s2,32(sp)
    9e76:	cc52                	sw	s4,24(sp)
    9e78:	ca56                	sw	s5,20(sp)
    9e7a:	c85a                	sw	s6,16(sp)
    9e7c:	c65e                	sw	s7,12(sp)
    9e7e:	d606                	sw	ra,44(sp)
    9e80:	d226                	sw	s1,36(sp)
    9e82:	ce4e                	sw	s3,28(sp)
    9e84:	8a2a                	mv	s4,a0
    9e86:	8aae                	mv	s5,a1
    9e88:	04850413          	addi	s0,a0,72
    9e8c:	4901                	li	s2,0
    9e8e:	4b05                	li	s6,1
    9e90:	5bfd                	li	s7,-1
    9e92:	ec09                	bnez	s0,9eac <_fwalk_reent+0x3c>
    9e94:	50b2                	lw	ra,44(sp)
    9e96:	5422                	lw	s0,40(sp)
    9e98:	854a                	mv	a0,s2
    9e9a:	5492                	lw	s1,36(sp)
    9e9c:	5902                	lw	s2,32(sp)
    9e9e:	49f2                	lw	s3,28(sp)
    9ea0:	4a62                	lw	s4,24(sp)
    9ea2:	4ad2                	lw	s5,20(sp)
    9ea4:	4b42                	lw	s6,16(sp)
    9ea6:	4bb2                	lw	s7,12(sp)
    9ea8:	6145                	addi	sp,sp,48
    9eaa:	8082                	ret
    9eac:	4404                	lw	s1,8(s0)
    9eae:	00442983          	lw	s3,4(s0)
    9eb2:	19fd                	addi	s3,s3,-1
    9eb4:	0009d463          	bgez	s3,9ebc <_fwalk_reent+0x4c>
    9eb8:	4000                	lw	s0,0(s0)
    9eba:	bfe1                	j	9e92 <_fwalk_reent+0x22>
    9ebc:	24de                	lhu	a5,12(s1)
    9ebe:	00fb7b63          	bgeu	s6,a5,9ed4 <_fwalk_reent+0x64>
    9ec2:	00e49783          	lh	a5,14(s1)
    9ec6:	01778763          	beq	a5,s7,9ed4 <_fwalk_reent+0x64>
    9eca:	85a6                	mv	a1,s1
    9ecc:	8552                	mv	a0,s4
    9ece:	9a82                	jalr	s5
    9ed0:	00a96933          	or	s2,s2,a0
    9ed4:	06848493          	addi	s1,s1,104
    9ed8:	bfe9                	j	9eb2 <_fwalk_reent+0x42>

00009eda <_localeconv_r>:
    9eda:	82818793          	addi	a5,gp,-2008 # 20000218 <_impure_ptr>
    9ede:	439c                	lw	a5,0(a5)
    9ee0:	5388                	lw	a0,32(a5)
    9ee2:	e509                	bnez	a0,9eec <_localeconv_r+0x12>
    9ee4:	1fff6517          	auipc	a0,0x1fff6
    9ee8:	19c50513          	addi	a0,a0,412 # 20000080 <__global_locale>
    9eec:	0f050513          	addi	a0,a0,240
    9ef0:	8082                	ret

00009ef2 <__swhatbuf_r>:
    9ef2:	7119                	addi	sp,sp,-128
    9ef4:	daa6                	sw	s1,116(sp)
    9ef6:	84ae                	mv	s1,a1
    9ef8:	00e59583          	lh	a1,14(a1)
    9efc:	dca2                	sw	s0,120(sp)
    9efe:	de86                	sw	ra,124(sp)
    9f00:	8432                	mv	s0,a2
    9f02:	0005db63          	bgez	a1,9f18 <__swhatbuf_r+0x26>
    9f06:	24de                	lhu	a5,12(s1)
    9f08:	0006a023          	sw	zero,0(a3)
    9f0c:	0807f793          	andi	a5,a5,128
    9f10:	e785                	bnez	a5,9f38 <__swhatbuf_r+0x46>
    9f12:	40000793          	li	a5,1024
    9f16:	a01d                	j	9f3c <__swhatbuf_r+0x4a>
    9f18:	0830                	addi	a2,sp,24
    9f1a:	c636                	sw	a3,12(sp)
    9f1c:	597000ef          	jal	ra,acb2 <_fstat_r>
    9f20:	46b2                	lw	a3,12(sp)
    9f22:	fe0542e3          	bltz	a0,9f06 <__swhatbuf_r+0x14>
    9f26:	4772                	lw	a4,28(sp)
    9f28:	67bd                	lui	a5,0xf
    9f2a:	8ff9                	and	a5,a5,a4
    9f2c:	7779                	lui	a4,0xffffe
    9f2e:	97ba                	add	a5,a5,a4
    9f30:	0017b793          	seqz	a5,a5
    9f34:	c29c                	sw	a5,0(a3)
    9f36:	bff1                	j	9f12 <__swhatbuf_r+0x20>
    9f38:	04000793          	li	a5,64
    9f3c:	c01c                	sw	a5,0(s0)
    9f3e:	50f6                	lw	ra,124(sp)
    9f40:	5466                	lw	s0,120(sp)
    9f42:	54d6                	lw	s1,116(sp)
    9f44:	4501                	li	a0,0
    9f46:	6109                	addi	sp,sp,128
    9f48:	8082                	ret

00009f4a <__smakebuf_r>:
    9f4a:	25de                	lhu	a5,12(a1)
    9f4c:	1101                	addi	sp,sp,-32
    9f4e:	cc22                	sw	s0,24(sp)
    9f50:	ce06                	sw	ra,28(sp)
    9f52:	ca26                	sw	s1,20(sp)
    9f54:	c84a                	sw	s2,16(sp)
    9f56:	8b89                	andi	a5,a5,2
    9f58:	842e                	mv	s0,a1
    9f5a:	cf89                	beqz	a5,9f74 <__smakebuf_r+0x2a>
    9f5c:	04740793          	addi	a5,s0,71
    9f60:	c01c                	sw	a5,0(s0)
    9f62:	c81c                	sw	a5,16(s0)
    9f64:	4785                	li	a5,1
    9f66:	c85c                	sw	a5,20(s0)
    9f68:	40f2                	lw	ra,28(sp)
    9f6a:	4462                	lw	s0,24(sp)
    9f6c:	44d2                	lw	s1,20(sp)
    9f6e:	4942                	lw	s2,16(sp)
    9f70:	6105                	addi	sp,sp,32
    9f72:	8082                	ret
    9f74:	0074                	addi	a3,sp,12
    9f76:	0030                	addi	a2,sp,8
    9f78:	84aa                	mv	s1,a0
    9f7a:	f79ff0ef          	jal	ra,9ef2 <__swhatbuf_r>
    9f7e:	45a2                	lw	a1,8(sp)
    9f80:	892a                	mv	s2,a0
    9f82:	8526                	mv	a0,s1
    9f84:	041000ef          	jal	ra,a7c4 <_malloc_r>
    9f88:	e919                	bnez	a0,9f9e <__smakebuf_r+0x54>
    9f8a:	00c41783          	lh	a5,12(s0)
    9f8e:	2007f713          	andi	a4,a5,512
    9f92:	fb79                	bnez	a4,9f68 <__smakebuf_r+0x1e>
    9f94:	9bf1                	andi	a5,a5,-4
    9f96:	0027e793          	ori	a5,a5,2
    9f9a:	a45e                	sh	a5,12(s0)
    9f9c:	b7c1                	j	9f5c <__smakebuf_r+0x12>
    9f9e:	00000797          	auipc	a5,0x0
    9fa2:	d7478793          	addi	a5,a5,-652 # 9d12 <_cleanup_r>
    9fa6:	d49c                	sw	a5,40(s1)
    9fa8:	245e                	lhu	a5,12(s0)
    9faa:	c008                	sw	a0,0(s0)
    9fac:	c808                	sw	a0,16(s0)
    9fae:	0807e793          	ori	a5,a5,128
    9fb2:	a45e                	sh	a5,12(s0)
    9fb4:	47a2                	lw	a5,8(sp)
    9fb6:	c85c                	sw	a5,20(s0)
    9fb8:	47b2                	lw	a5,12(sp)
    9fba:	cf81                	beqz	a5,9fd2 <__smakebuf_r+0x88>
    9fbc:	00e41583          	lh	a1,14(s0)
    9fc0:	8526                	mv	a0,s1
    9fc2:	51b000ef          	jal	ra,acdc <_isatty_r>
    9fc6:	c511                	beqz	a0,9fd2 <__smakebuf_r+0x88>
    9fc8:	245e                	lhu	a5,12(s0)
    9fca:	9bf1                	andi	a5,a5,-4
    9fcc:	0017e793          	ori	a5,a5,1
    9fd0:	a45e                	sh	a5,12(s0)
    9fd2:	245e                	lhu	a5,12(s0)
    9fd4:	00f96933          	or	s2,s2,a5
    9fd8:	01241623          	sh	s2,12(s0)
    9fdc:	b771                	j	9f68 <__smakebuf_r+0x1e>

00009fde <malloc>:
    9fde:	82818793          	addi	a5,gp,-2008 # 20000218 <_impure_ptr>
    9fe2:	85aa                	mv	a1,a0
    9fe4:	4388                	lw	a0,0(a5)
    9fe6:	7de0006f          	j	a7c4 <_malloc_r>

00009fea <memchr>:
    9fea:	0ff5f593          	andi	a1,a1,255
    9fee:	962a                	add	a2,a2,a0
    9ff0:	00c51463          	bne	a0,a2,9ff8 <memchr+0xe>
    9ff4:	4501                	li	a0,0
    9ff6:	8082                	ret
    9ff8:	211c                	lbu	a5,0(a0)
    9ffa:	feb78ee3          	beq	a5,a1,9ff6 <memchr+0xc>
    9ffe:	0505                	addi	a0,a0,1
    a000:	bfc5                	j	9ff0 <memchr+0x6>

0000a002 <_Balloc>:
    a002:	515c                	lw	a5,36(a0)
    a004:	1141                	addi	sp,sp,-16
    a006:	c422                	sw	s0,8(sp)
    a008:	c04a                	sw	s2,0(sp)
    a00a:	c606                	sw	ra,12(sp)
    a00c:	c226                	sw	s1,4(sp)
    a00e:	842a                	mv	s0,a0
    a010:	892e                	mv	s2,a1
    a012:	ef89                	bnez	a5,a02c <_Balloc+0x2a>
    a014:	4541                	li	a0,16
    a016:	fc9ff0ef          	jal	ra,9fde <malloc>
    a01a:	d048                	sw	a0,36(s0)
    a01c:	00052223          	sw	zero,4(a0)
    a020:	00052423          	sw	zero,8(a0)
    a024:	00052023          	sw	zero,0(a0)
    a028:	00052623          	sw	zero,12(a0)
    a02c:	5044                	lw	s1,36(s0)
    a02e:	44dc                	lw	a5,12(s1)
    a030:	c795                	beqz	a5,a05c <_Balloc+0x5a>
    a032:	5058                	lw	a4,36(s0)
    a034:	00291793          	slli	a5,s2,0x2
    a038:	4758                	lw	a4,12(a4)
    a03a:	97ba                	add	a5,a5,a4
    a03c:	4388                	lw	a0,0(a5)
    a03e:	ed1d                	bnez	a0,a07c <_Balloc+0x7a>
    a040:	4485                	li	s1,1
    a042:	012494b3          	sll	s1,s1,s2
    a046:	00548613          	addi	a2,s1,5
    a04a:	060a                	slli	a2,a2,0x2
    a04c:	4585                	li	a1,1
    a04e:	8522                	mv	a0,s0
    a050:	256d                	jal	a6fa <_calloc_r>
    a052:	cd11                	beqz	a0,a06e <_Balloc+0x6c>
    a054:	01252223          	sw	s2,4(a0)
    a058:	c504                	sw	s1,8(a0)
    a05a:	a01d                	j	a080 <_Balloc+0x7e>
    a05c:	02100613          	li	a2,33
    a060:	4591                	li	a1,4
    a062:	8522                	mv	a0,s0
    a064:	2d59                	jal	a6fa <_calloc_r>
    a066:	505c                	lw	a5,36(s0)
    a068:	c4c8                	sw	a0,12(s1)
    a06a:	47dc                	lw	a5,12(a5)
    a06c:	f3f9                	bnez	a5,a032 <_Balloc+0x30>
    a06e:	4501                	li	a0,0
    a070:	40b2                	lw	ra,12(sp)
    a072:	4422                	lw	s0,8(sp)
    a074:	4492                	lw	s1,4(sp)
    a076:	4902                	lw	s2,0(sp)
    a078:	0141                	addi	sp,sp,16
    a07a:	8082                	ret
    a07c:	4118                	lw	a4,0(a0)
    a07e:	c398                	sw	a4,0(a5)
    a080:	00052823          	sw	zero,16(a0)
    a084:	00052623          	sw	zero,12(a0)
    a088:	b7e5                	j	a070 <_Balloc+0x6e>

0000a08a <_Bfree>:
    a08a:	515c                	lw	a5,36(a0)
    a08c:	1101                	addi	sp,sp,-32
    a08e:	cc22                	sw	s0,24(sp)
    a090:	ce06                	sw	ra,28(sp)
    a092:	842a                	mv	s0,a0
    a094:	ef99                	bnez	a5,a0b2 <_Bfree+0x28>
    a096:	4541                	li	a0,16
    a098:	c62e                	sw	a1,12(sp)
    a09a:	f45ff0ef          	jal	ra,9fde <malloc>
    a09e:	45b2                	lw	a1,12(sp)
    a0a0:	d048                	sw	a0,36(s0)
    a0a2:	00052223          	sw	zero,4(a0)
    a0a6:	00052423          	sw	zero,8(a0)
    a0aa:	00052023          	sw	zero,0(a0)
    a0ae:	00052623          	sw	zero,12(a0)
    a0b2:	c991                	beqz	a1,a0c6 <_Bfree+0x3c>
    a0b4:	5054                	lw	a3,36(s0)
    a0b6:	41dc                	lw	a5,4(a1)
    a0b8:	00279713          	slli	a4,a5,0x2
    a0bc:	46dc                	lw	a5,12(a3)
    a0be:	97ba                	add	a5,a5,a4
    a0c0:	4398                	lw	a4,0(a5)
    a0c2:	c198                	sw	a4,0(a1)
    a0c4:	c38c                	sw	a1,0(a5)
    a0c6:	40f2                	lw	ra,28(sp)
    a0c8:	4462                	lw	s0,24(sp)
    a0ca:	6105                	addi	sp,sp,32
    a0cc:	8082                	ret

0000a0ce <__multadd>:
    a0ce:	7179                	addi	sp,sp,-48
    a0d0:	ce4e                	sw	s3,28(sp)
    a0d2:	89aa                	mv	s3,a0
    a0d4:	6541                	lui	a0,0x10
    a0d6:	d422                	sw	s0,40(sp)
    a0d8:	d226                	sw	s1,36(sp)
    a0da:	842e                	mv	s0,a1
    a0dc:	4984                	lw	s1,16(a1)
    a0de:	d606                	sw	ra,44(sp)
    a0e0:	d04a                	sw	s2,32(sp)
    a0e2:	05d1                	addi	a1,a1,20
    a0e4:	4801                	li	a6,0
    a0e6:	157d                	addi	a0,a0,-1
    a0e8:	419c                	lw	a5,0(a1)
    a0ea:	0591                	addi	a1,a1,4
    a0ec:	0805                	addi	a6,a6,1
    a0ee:	00a7f733          	and	a4,a5,a0
    a0f2:	02c70733          	mul	a4,a4,a2
    a0f6:	83c1                	srli	a5,a5,0x10
    a0f8:	02c787b3          	mul	a5,a5,a2
    a0fc:	9736                	add	a4,a4,a3
    a0fe:	01075693          	srli	a3,a4,0x10
    a102:	8f69                	and	a4,a4,a0
    a104:	97b6                	add	a5,a5,a3
    a106:	0107d693          	srli	a3,a5,0x10
    a10a:	07c2                	slli	a5,a5,0x10
    a10c:	97ba                	add	a5,a5,a4
    a10e:	fef5ae23          	sw	a5,-4(a1)
    a112:	fc984be3          	blt	a6,s1,a0e8 <__multadd+0x1a>
    a116:	c2a1                	beqz	a3,a156 <__multadd+0x88>
    a118:	441c                	lw	a5,8(s0)
    a11a:	02f4c763          	blt	s1,a5,a148 <__multadd+0x7a>
    a11e:	404c                	lw	a1,4(s0)
    a120:	854e                	mv	a0,s3
    a122:	c636                	sw	a3,12(sp)
    a124:	0585                	addi	a1,a1,1
    a126:	eddff0ef          	jal	ra,a002 <_Balloc>
    a12a:	4810                	lw	a2,16(s0)
    a12c:	00c40593          	addi	a1,s0,12
    a130:	892a                	mv	s2,a0
    a132:	0609                	addi	a2,a2,2
    a134:	060a                	slli	a2,a2,0x2
    a136:	0531                	addi	a0,a0,12
    a138:	efffd0ef          	jal	ra,8036 <memcpy>
    a13c:	85a2                	mv	a1,s0
    a13e:	854e                	mv	a0,s3
    a140:	f4bff0ef          	jal	ra,a08a <_Bfree>
    a144:	46b2                	lw	a3,12(sp)
    a146:	844a                	mv	s0,s2
    a148:	00448793          	addi	a5,s1,4
    a14c:	078a                	slli	a5,a5,0x2
    a14e:	97a2                	add	a5,a5,s0
    a150:	c3d4                	sw	a3,4(a5)
    a152:	0485                	addi	s1,s1,1
    a154:	c804                	sw	s1,16(s0)
    a156:	8522                	mv	a0,s0
    a158:	50b2                	lw	ra,44(sp)
    a15a:	5422                	lw	s0,40(sp)
    a15c:	5492                	lw	s1,36(sp)
    a15e:	5902                	lw	s2,32(sp)
    a160:	49f2                	lw	s3,28(sp)
    a162:	6145                	addi	sp,sp,48
    a164:	8082                	ret

0000a166 <__hi0bits>:
    a166:	7741                	lui	a4,0xffff0
    a168:	8f69                	and	a4,a4,a0
    a16a:	87aa                	mv	a5,a0
    a16c:	4501                	li	a0,0
    a16e:	e319                	bnez	a4,a174 <__hi0bits+0xe>
    a170:	07c2                	slli	a5,a5,0x10
    a172:	4541                	li	a0,16
    a174:	ff000737          	lui	a4,0xff000
    a178:	8f7d                	and	a4,a4,a5
    a17a:	e319                	bnez	a4,a180 <__hi0bits+0x1a>
    a17c:	0521                	addi	a0,a0,8
    a17e:	07a2                	slli	a5,a5,0x8
    a180:	f0000737          	lui	a4,0xf0000
    a184:	8f7d                	and	a4,a4,a5
    a186:	e319                	bnez	a4,a18c <__hi0bits+0x26>
    a188:	0511                	addi	a0,a0,4
    a18a:	0792                	slli	a5,a5,0x4
    a18c:	c0000737          	lui	a4,0xc0000
    a190:	8f7d                	and	a4,a4,a5
    a192:	e319                	bnez	a4,a198 <__hi0bits+0x32>
    a194:	0509                	addi	a0,a0,2
    a196:	078a                	slli	a5,a5,0x2
    a198:	0007c963          	bltz	a5,a1aa <__hi0bits+0x44>
    a19c:	00179713          	slli	a4,a5,0x1
    a1a0:	0505                	addi	a0,a0,1
    a1a2:	00074463          	bltz	a4,a1aa <__hi0bits+0x44>
    a1a6:	02000513          	li	a0,32
    a1aa:	8082                	ret

0000a1ac <__lo0bits>:
    a1ac:	411c                	lw	a5,0(a0)
    a1ae:	0077f713          	andi	a4,a5,7
    a1b2:	c30d                	beqz	a4,a1d4 <__lo0bits+0x28>
    a1b4:	0017f693          	andi	a3,a5,1
    a1b8:	4701                	li	a4,0
    a1ba:	e699                	bnez	a3,a1c8 <__lo0bits+0x1c>
    a1bc:	0027f713          	andi	a4,a5,2
    a1c0:	c711                	beqz	a4,a1cc <__lo0bits+0x20>
    a1c2:	8385                	srli	a5,a5,0x1
    a1c4:	c11c                	sw	a5,0(a0)
    a1c6:	4705                	li	a4,1
    a1c8:	853a                	mv	a0,a4
    a1ca:	8082                	ret
    a1cc:	8389                	srli	a5,a5,0x2
    a1ce:	c11c                	sw	a5,0(a0)
    a1d0:	4709                	li	a4,2
    a1d2:	bfdd                	j	a1c8 <__lo0bits+0x1c>
    a1d4:	01079693          	slli	a3,a5,0x10
    a1d8:	82c1                	srli	a3,a3,0x10
    a1da:	4701                	li	a4,0
    a1dc:	e299                	bnez	a3,a1e2 <__lo0bits+0x36>
    a1de:	83c1                	srli	a5,a5,0x10
    a1e0:	4741                	li	a4,16
    a1e2:	0ff7f693          	andi	a3,a5,255
    a1e6:	e299                	bnez	a3,a1ec <__lo0bits+0x40>
    a1e8:	0721                	addi	a4,a4,8
    a1ea:	83a1                	srli	a5,a5,0x8
    a1ec:	00f7f693          	andi	a3,a5,15
    a1f0:	e299                	bnez	a3,a1f6 <__lo0bits+0x4a>
    a1f2:	0711                	addi	a4,a4,4
    a1f4:	8391                	srli	a5,a5,0x4
    a1f6:	0037f693          	andi	a3,a5,3
    a1fa:	e299                	bnez	a3,a200 <__lo0bits+0x54>
    a1fc:	0709                	addi	a4,a4,2
    a1fe:	8389                	srli	a5,a5,0x2
    a200:	0017f693          	andi	a3,a5,1
    a204:	e681                	bnez	a3,a20c <__lo0bits+0x60>
    a206:	8385                	srli	a5,a5,0x1
    a208:	0705                	addi	a4,a4,1
    a20a:	c399                	beqz	a5,a210 <__lo0bits+0x64>
    a20c:	c11c                	sw	a5,0(a0)
    a20e:	bf6d                	j	a1c8 <__lo0bits+0x1c>
    a210:	02000713          	li	a4,32
    a214:	bf55                	j	a1c8 <__lo0bits+0x1c>

0000a216 <__i2b>:
    a216:	1141                	addi	sp,sp,-16
    a218:	c422                	sw	s0,8(sp)
    a21a:	842e                	mv	s0,a1
    a21c:	4585                	li	a1,1
    a21e:	c606                	sw	ra,12(sp)
    a220:	de3ff0ef          	jal	ra,a002 <_Balloc>
    a224:	c940                	sw	s0,20(a0)
    a226:	40b2                	lw	ra,12(sp)
    a228:	4422                	lw	s0,8(sp)
    a22a:	4705                	li	a4,1
    a22c:	c918                	sw	a4,16(a0)
    a22e:	0141                	addi	sp,sp,16
    a230:	8082                	ret

0000a232 <__multiply>:
    a232:	4998                	lw	a4,16(a1)
    a234:	4a1c                	lw	a5,16(a2)
    a236:	7179                	addi	sp,sp,-48
    a238:	d226                	sw	s1,36(sp)
    a23a:	d606                	sw	ra,44(sp)
    a23c:	d422                	sw	s0,40(sp)
    a23e:	d04a                	sw	s2,32(sp)
    a240:	ce4e                	sw	s3,28(sp)
    a242:	84ae                	mv	s1,a1
    a244:	00f75463          	bge	a4,a5,a24c <__multiply+0x1a>
    a248:	84b2                	mv	s1,a2
    a24a:	862e                	mv	a2,a1
    a24c:	0104a983          	lw	s3,16(s1)
    a250:	01062903          	lw	s2,16(a2) # 10010 <_data_lma+0x418c>
    a254:	449c                	lw	a5,8(s1)
    a256:	40cc                	lw	a1,4(s1)
    a258:	01298433          	add	s0,s3,s2
    a25c:	0087d363          	bge	a5,s0,a262 <__multiply+0x30>
    a260:	0585                	addi	a1,a1,1
    a262:	c632                	sw	a2,12(sp)
    a264:	d9fff0ef          	jal	ra,a002 <_Balloc>
    a268:	4632                	lw	a2,12(sp)
    a26a:	01450813          	addi	a6,a0,20 # 10014 <_data_lma+0x4190>
    a26e:	00241313          	slli	t1,s0,0x2
    a272:	9342                	add	t1,t1,a6
    a274:	87c2                	mv	a5,a6
    a276:	0267ed63          	bltu	a5,t1,a2b0 <__multiply+0x7e>
    a27a:	01448593          	addi	a1,s1,20
    a27e:	00299893          	slli	a7,s3,0x2
    a282:	0651                	addi	a2,a2,20
    a284:	00291e13          	slli	t3,s2,0x2
    a288:	66c1                	lui	a3,0x10
    a28a:	98ae                	add	a7,a7,a1
    a28c:	9e32                	add	t3,t3,a2
    a28e:	16fd                	addi	a3,a3,-1
    a290:	03c66463          	bltu	a2,t3,a2b8 <__multiply+0x86>
    a294:	00805663          	blez	s0,a2a0 <__multiply+0x6e>
    a298:	1371                	addi	t1,t1,-4
    a29a:	00032783          	lw	a5,0(t1)
    a29e:	cbf1                	beqz	a5,a372 <__multiply+0x140>
    a2a0:	c900                	sw	s0,16(a0)
    a2a2:	50b2                	lw	ra,44(sp)
    a2a4:	5422                	lw	s0,40(sp)
    a2a6:	5492                	lw	s1,36(sp)
    a2a8:	5902                	lw	s2,32(sp)
    a2aa:	49f2                	lw	s3,28(sp)
    a2ac:	6145                	addi	sp,sp,48
    a2ae:	8082                	ret
    a2b0:	0007a023          	sw	zero,0(a5)
    a2b4:	0791                	addi	a5,a5,4
    a2b6:	b7c1                	j	a276 <__multiply+0x44>
    a2b8:	00062f83          	lw	t6,0(a2)
    a2bc:	00dfffb3          	and	t6,t6,a3
    a2c0:	040f8a63          	beqz	t6,a314 <__multiply+0xe2>
    a2c4:	8f42                	mv	t5,a6
    a2c6:	82ae                	mv	t0,a1
    a2c8:	4481                	li	s1,0
    a2ca:	0002a703          	lw	a4,0(t0)
    a2ce:	000f2383          	lw	t2,0(t5)
    a2d2:	0f11                	addi	t5,t5,4
    a2d4:	00d77eb3          	and	t4,a4,a3
    a2d8:	03fe8eb3          	mul	t4,t4,t6
    a2dc:	00d3f7b3          	and	a5,t2,a3
    a2e0:	0103d393          	srli	t2,t2,0x10
    a2e4:	0291                	addi	t0,t0,4
    a2e6:	9ebe                	add	t4,t4,a5
    a2e8:	01075793          	srli	a5,a4,0x10
    a2ec:	03f787b3          	mul	a5,a5,t6
    a2f0:	9ea6                	add	t4,t4,s1
    a2f2:	010ed713          	srli	a4,t4,0x10
    a2f6:	00defeb3          	and	t4,t4,a3
    a2fa:	979e                	add	a5,a5,t2
    a2fc:	97ba                	add	a5,a5,a4
    a2fe:	0107d493          	srli	s1,a5,0x10
    a302:	07c2                	slli	a5,a5,0x10
    a304:	01d7e7b3          	or	a5,a5,t4
    a308:	feff2e23          	sw	a5,-4(t5)
    a30c:	fb12efe3          	bltu	t0,a7,a2ca <__multiply+0x98>
    a310:	009f2023          	sw	s1,0(t5)
    a314:	00265283          	lhu	t0,2(a2)
    a318:	04028a63          	beqz	t0,a36c <__multiply+0x13a>
    a31c:	00082783          	lw	a5,0(a6)
    a320:	8ec2                	mv	t4,a6
    a322:	8f2e                	mv	t5,a1
    a324:	4f81                	li	t6,0
    a326:	000f2703          	lw	a4,0(t5)
    a32a:	002ed383          	lhu	t2,2(t4)
    a32e:	8ff5                	and	a5,a5,a3
    a330:	8f75                	and	a4,a4,a3
    a332:	02570733          	mul	a4,a4,t0
    a336:	0e91                	addi	t4,t4,4
    a338:	0f11                	addi	t5,t5,4
    a33a:	971e                	add	a4,a4,t2
    a33c:	977e                	add	a4,a4,t6
    a33e:	01071f93          	slli	t6,a4,0x10
    a342:	00ffe7b3          	or	a5,t6,a5
    a346:	fefeae23          	sw	a5,-4(t4)
    a34a:	ffef5783          	lhu	a5,-2(t5)
    a34e:	000eaf83          	lw	t6,0(t4)
    a352:	8341                	srli	a4,a4,0x10
    a354:	025787b3          	mul	a5,a5,t0
    a358:	00dfffb3          	and	t6,t6,a3
    a35c:	97fe                	add	a5,a5,t6
    a35e:	97ba                	add	a5,a5,a4
    a360:	0107df93          	srli	t6,a5,0x10
    a364:	fd1f61e3          	bltu	t5,a7,a326 <__multiply+0xf4>
    a368:	00fea023          	sw	a5,0(t4)
    a36c:	0611                	addi	a2,a2,4
    a36e:	0811                	addi	a6,a6,4
    a370:	b705                	j	a290 <__multiply+0x5e>
    a372:	147d                	addi	s0,s0,-1
    a374:	b705                	j	a294 <__multiply+0x62>

0000a376 <__pow5mult>:
    a376:	1101                	addi	sp,sp,-32
    a378:	ca26                	sw	s1,20(sp)
    a37a:	c84a                	sw	s2,16(sp)
    a37c:	c64e                	sw	s3,12(sp)
    a37e:	ce06                	sw	ra,28(sp)
    a380:	cc22                	sw	s0,24(sp)
    a382:	c452                	sw	s4,8(sp)
    a384:	00367793          	andi	a5,a2,3
    a388:	892a                	mv	s2,a0
    a38a:	84b2                	mv	s1,a2
    a38c:	89ae                	mv	s3,a1
    a38e:	cf89                	beqz	a5,a3a8 <__pow5mult+0x32>
    a390:	17fd                	addi	a5,a5,-1
    a392:	00002717          	auipc	a4,0x2
    a396:	9be70713          	addi	a4,a4,-1602 # bd50 <p05.3319>
    a39a:	078a                	slli	a5,a5,0x2
    a39c:	97ba                	add	a5,a5,a4
    a39e:	4390                	lw	a2,0(a5)
    a3a0:	4681                	li	a3,0
    a3a2:	d2dff0ef          	jal	ra,a0ce <__multadd>
    a3a6:	89aa                	mv	s3,a0
    a3a8:	8489                	srai	s1,s1,0x2
    a3aa:	cca5                	beqz	s1,a422 <__pow5mult+0xac>
    a3ac:	02492783          	lw	a5,36(s2)
    a3b0:	ef91                	bnez	a5,a3cc <__pow5mult+0x56>
    a3b2:	4541                	li	a0,16
    a3b4:	c2bff0ef          	jal	ra,9fde <malloc>
    a3b8:	02a92223          	sw	a0,36(s2)
    a3bc:	00052223          	sw	zero,4(a0)
    a3c0:	00052423          	sw	zero,8(a0)
    a3c4:	00052023          	sw	zero,0(a0)
    a3c8:	00052623          	sw	zero,12(a0)
    a3cc:	02492a03          	lw	s4,36(s2)
    a3d0:	008a2403          	lw	s0,8(s4)
    a3d4:	e819                	bnez	s0,a3ea <__pow5mult+0x74>
    a3d6:	27100593          	li	a1,625
    a3da:	854a                	mv	a0,s2
    a3dc:	e3bff0ef          	jal	ra,a216 <__i2b>
    a3e0:	00aa2423          	sw	a0,8(s4)
    a3e4:	842a                	mv	s0,a0
    a3e6:	00052023          	sw	zero,0(a0)
    a3ea:	0014f793          	andi	a5,s1,1
    a3ee:	cf81                	beqz	a5,a406 <__pow5mult+0x90>
    a3f0:	85ce                	mv	a1,s3
    a3f2:	8622                	mv	a2,s0
    a3f4:	854a                	mv	a0,s2
    a3f6:	e3dff0ef          	jal	ra,a232 <__multiply>
    a3fa:	8a2a                	mv	s4,a0
    a3fc:	85ce                	mv	a1,s3
    a3fe:	854a                	mv	a0,s2
    a400:	c8bff0ef          	jal	ra,a08a <_Bfree>
    a404:	89d2                	mv	s3,s4
    a406:	8485                	srai	s1,s1,0x1
    a408:	cc89                	beqz	s1,a422 <__pow5mult+0xac>
    a40a:	4008                	lw	a0,0(s0)
    a40c:	e909                	bnez	a0,a41e <__pow5mult+0xa8>
    a40e:	8622                	mv	a2,s0
    a410:	85a2                	mv	a1,s0
    a412:	854a                	mv	a0,s2
    a414:	e1fff0ef          	jal	ra,a232 <__multiply>
    a418:	c008                	sw	a0,0(s0)
    a41a:	00052023          	sw	zero,0(a0)
    a41e:	842a                	mv	s0,a0
    a420:	b7e9                	j	a3ea <__pow5mult+0x74>
    a422:	40f2                	lw	ra,28(sp)
    a424:	4462                	lw	s0,24(sp)
    a426:	854e                	mv	a0,s3
    a428:	44d2                	lw	s1,20(sp)
    a42a:	4942                	lw	s2,16(sp)
    a42c:	49b2                	lw	s3,12(sp)
    a42e:	4a22                	lw	s4,8(sp)
    a430:	6105                	addi	sp,sp,32
    a432:	8082                	ret

0000a434 <__lshift>:
    a434:	7179                	addi	sp,sp,-48
    a436:	d226                	sw	s1,36(sp)
    a438:	84ae                	mv	s1,a1
    a43a:	ce4e                	sw	s3,28(sp)
    a43c:	0104a983          	lw	s3,16(s1)
    a440:	d422                	sw	s0,40(sp)
    a442:	41cc                	lw	a1,4(a1)
    a444:	40565413          	srai	s0,a2,0x5
    a448:	449c                	lw	a5,8(s1)
    a44a:	99a2                	add	s3,s3,s0
    a44c:	d04a                	sw	s2,32(sp)
    a44e:	ca56                	sw	s5,20(sp)
    a450:	d606                	sw	ra,44(sp)
    a452:	cc52                	sw	s4,24(sp)
    a454:	8aaa                	mv	s5,a0
    a456:	00198913          	addi	s2,s3,1
    a45a:	0927c463          	blt	a5,s2,a4e2 <__lshift+0xae>
    a45e:	8556                	mv	a0,s5
    a460:	c632                	sw	a2,12(sp)
    a462:	ba1ff0ef          	jal	ra,a002 <_Balloc>
    a466:	4632                	lw	a2,12(sp)
    a468:	01450793          	addi	a5,a0,20
    a46c:	8a2a                	mv	s4,a0
    a46e:	86be                	mv	a3,a5
    a470:	4701                	li	a4,0
    a472:	0691                	addi	a3,a3,4
    a474:	06874a63          	blt	a4,s0,a4e8 <__lshift+0xb4>
    a478:	00045363          	bgez	s0,a47e <__lshift+0x4a>
    a47c:	4401                	li	s0,0
    a47e:	4894                	lw	a3,16(s1)
    a480:	040a                	slli	s0,s0,0x2
    a482:	00878733          	add	a4,a5,s0
    a486:	068a                	slli	a3,a3,0x2
    a488:	01448793          	addi	a5,s1,20
    a48c:	8a7d                	andi	a2,a2,31
    a48e:	96be                	add	a3,a3,a5
    a490:	c225                	beqz	a2,a4f0 <__lshift+0xbc>
    a492:	02000813          	li	a6,32
    a496:	40c80833          	sub	a6,a6,a2
    a49a:	4581                	li	a1,0
    a49c:	4388                	lw	a0,0(a5)
    a49e:	0711                	addi	a4,a4,4
    a4a0:	0791                	addi	a5,a5,4
    a4a2:	00c51533          	sll	a0,a0,a2
    a4a6:	8dc9                	or	a1,a1,a0
    a4a8:	feb72e23          	sw	a1,-4(a4)
    a4ac:	ffc7a583          	lw	a1,-4(a5)
    a4b0:	0105d5b3          	srl	a1,a1,a6
    a4b4:	fed7e4e3          	bltu	a5,a3,a49c <__lshift+0x68>
    a4b8:	c30c                	sw	a1,0(a4)
    a4ba:	c199                	beqz	a1,a4c0 <__lshift+0x8c>
    a4bc:	00298913          	addi	s2,s3,2
    a4c0:	197d                	addi	s2,s2,-1
    a4c2:	012a2823          	sw	s2,16(s4)
    a4c6:	8556                	mv	a0,s5
    a4c8:	85a6                	mv	a1,s1
    a4ca:	bc1ff0ef          	jal	ra,a08a <_Bfree>
    a4ce:	50b2                	lw	ra,44(sp)
    a4d0:	5422                	lw	s0,40(sp)
    a4d2:	8552                	mv	a0,s4
    a4d4:	5492                	lw	s1,36(sp)
    a4d6:	5902                	lw	s2,32(sp)
    a4d8:	49f2                	lw	s3,28(sp)
    a4da:	4a62                	lw	s4,24(sp)
    a4dc:	4ad2                	lw	s5,20(sp)
    a4de:	6145                	addi	sp,sp,48
    a4e0:	8082                	ret
    a4e2:	0585                	addi	a1,a1,1
    a4e4:	0786                	slli	a5,a5,0x1
    a4e6:	bf95                	j	a45a <__lshift+0x26>
    a4e8:	fe06ae23          	sw	zero,-4(a3) # fffc <_data_lma+0x4178>
    a4ec:	0705                	addi	a4,a4,1
    a4ee:	b751                	j	a472 <__lshift+0x3e>
    a4f0:	0791                	addi	a5,a5,4
    a4f2:	ffc7a603          	lw	a2,-4(a5)
    a4f6:	0711                	addi	a4,a4,4
    a4f8:	fec72e23          	sw	a2,-4(a4)
    a4fc:	fed7eae3          	bltu	a5,a3,a4f0 <__lshift+0xbc>
    a500:	b7c1                	j	a4c0 <__lshift+0x8c>

0000a502 <__mcmp>:
    a502:	491c                	lw	a5,16(a0)
    a504:	4998                	lw	a4,16(a1)
    a506:	8f99                	sub	a5,a5,a4
    a508:	e38d                	bnez	a5,a52a <__mcmp+0x28>
    a50a:	070a                	slli	a4,a4,0x2
    a50c:	0551                	addi	a0,a0,20
    a50e:	05d1                	addi	a1,a1,20
    a510:	00e506b3          	add	a3,a0,a4
    a514:	95ba                	add	a1,a1,a4
    a516:	16f1                	addi	a3,a3,-4
    a518:	15f1                	addi	a1,a1,-4
    a51a:	4290                	lw	a2,0(a3)
    a51c:	4198                	lw	a4,0(a1)
    a51e:	00e60863          	beq	a2,a4,a52e <__mcmp+0x2c>
    a522:	57fd                	li	a5,-1
    a524:	00e66363          	bltu	a2,a4,a52a <__mcmp+0x28>
    a528:	4785                	li	a5,1
    a52a:	853e                	mv	a0,a5
    a52c:	8082                	ret
    a52e:	fed564e3          	bltu	a0,a3,a516 <__mcmp+0x14>
    a532:	bfe5                	j	a52a <__mcmp+0x28>

0000a534 <__mdiff>:
    a534:	1101                	addi	sp,sp,-32
    a536:	ca26                	sw	s1,20(sp)
    a538:	84ae                	mv	s1,a1
    a53a:	c64e                	sw	s3,12(sp)
    a53c:	85b2                	mv	a1,a2
    a53e:	89aa                	mv	s3,a0
    a540:	8526                	mv	a0,s1
    a542:	cc22                	sw	s0,24(sp)
    a544:	ce06                	sw	ra,28(sp)
    a546:	c84a                	sw	s2,16(sp)
    a548:	8432                	mv	s0,a2
    a54a:	fb9ff0ef          	jal	ra,a502 <__mcmp>
    a54e:	e105                	bnez	a0,a56e <__mdiff+0x3a>
    a550:	4581                	li	a1,0
    a552:	854e                	mv	a0,s3
    a554:	aafff0ef          	jal	ra,a002 <_Balloc>
    a558:	4785                	li	a5,1
    a55a:	c91c                	sw	a5,16(a0)
    a55c:	00052a23          	sw	zero,20(a0)
    a560:	40f2                	lw	ra,28(sp)
    a562:	4462                	lw	s0,24(sp)
    a564:	44d2                	lw	s1,20(sp)
    a566:	4942                	lw	s2,16(sp)
    a568:	49b2                	lw	s3,12(sp)
    a56a:	6105                	addi	sp,sp,32
    a56c:	8082                	ret
    a56e:	4905                	li	s2,1
    a570:	00054663          	bltz	a0,a57c <__mdiff+0x48>
    a574:	87a2                	mv	a5,s0
    a576:	4901                	li	s2,0
    a578:	8426                	mv	s0,s1
    a57a:	84be                	mv	s1,a5
    a57c:	404c                	lw	a1,4(s0)
    a57e:	854e                	mv	a0,s3
    a580:	a83ff0ef          	jal	ra,a002 <_Balloc>
    a584:	01042303          	lw	t1,16(s0)
    a588:	0104a883          	lw	a7,16(s1)
    a58c:	01440613          	addi	a2,s0,20
    a590:	00231e13          	slli	t3,t1,0x2
    a594:	01448813          	addi	a6,s1,20
    a598:	088a                	slli	a7,a7,0x2
    a59a:	6ec1                	lui	t4,0x10
    a59c:	01252623          	sw	s2,12(a0)
    a5a0:	9e32                	add	t3,t3,a2
    a5a2:	98c2                	add	a7,a7,a6
    a5a4:	01450693          	addi	a3,a0,20
    a5a8:	4f01                	li	t5,0
    a5aa:	1efd                	addi	t4,t4,-1
    a5ac:	4218                	lw	a4,0(a2)
    a5ae:	00082f83          	lw	t6,0(a6)
    a5b2:	0691                	addi	a3,a3,4
    a5b4:	01d775b3          	and	a1,a4,t4
    a5b8:	01dff7b3          	and	a5,t6,t4
    a5bc:	95fa                	add	a1,a1,t5
    a5be:	8d9d                	sub	a1,a1,a5
    a5c0:	010fdf93          	srli	t6,t6,0x10
    a5c4:	01075793          	srli	a5,a4,0x10
    a5c8:	41f787b3          	sub	a5,a5,t6
    a5cc:	4105d713          	srai	a4,a1,0x10
    a5d0:	97ba                	add	a5,a5,a4
    a5d2:	4107df13          	srai	t5,a5,0x10
    a5d6:	01d5f5b3          	and	a1,a1,t4
    a5da:	07c2                	slli	a5,a5,0x10
    a5dc:	8fcd                	or	a5,a5,a1
    a5de:	0811                	addi	a6,a6,4
    a5e0:	fef6ae23          	sw	a5,-4(a3)
    a5e4:	0611                	addi	a2,a2,4
    a5e6:	fd1863e3          	bltu	a6,a7,a5ac <__mdiff+0x78>
    a5ea:	65c1                	lui	a1,0x10
    a5ec:	15fd                	addi	a1,a1,-1
    a5ee:	01c66863          	bltu	a2,t3,a5fe <__mdiff+0xca>
    a5f2:	16f1                	addi	a3,a3,-4
    a5f4:	429c                	lw	a5,0(a3)
    a5f6:	c795                	beqz	a5,a622 <__mdiff+0xee>
    a5f8:	00652823          	sw	t1,16(a0)
    a5fc:	b795                	j	a560 <__mdiff+0x2c>
    a5fe:	421c                	lw	a5,0(a2)
    a600:	0691                	addi	a3,a3,4
    a602:	0611                	addi	a2,a2,4
    a604:	00b7f733          	and	a4,a5,a1
    a608:	977a                	add	a4,a4,t5
    a60a:	41075813          	srai	a6,a4,0x10
    a60e:	83c1                	srli	a5,a5,0x10
    a610:	97c2                	add	a5,a5,a6
    a612:	4107df13          	srai	t5,a5,0x10
    a616:	8f6d                	and	a4,a4,a1
    a618:	07c2                	slli	a5,a5,0x10
    a61a:	8fd9                	or	a5,a5,a4
    a61c:	fef6ae23          	sw	a5,-4(a3)
    a620:	b7f9                	j	a5ee <__mdiff+0xba>
    a622:	137d                	addi	t1,t1,-1
    a624:	b7f9                	j	a5f2 <__mdiff+0xbe>

0000a626 <__d2b>:
    a626:	7179                	addi	sp,sp,-48
    a628:	d422                	sw	s0,40(sp)
    a62a:	842e                	mv	s0,a1
    a62c:	4585                	li	a1,1
    a62e:	d226                	sw	s1,36(sp)
    a630:	d04a                	sw	s2,32(sp)
    a632:	84b2                	mv	s1,a2
    a634:	ce4e                	sw	s3,28(sp)
    a636:	cc52                	sw	s4,24(sp)
    a638:	893a                	mv	s2,a4
    a63a:	d606                	sw	ra,44(sp)
    a63c:	8a36                	mv	s4,a3
    a63e:	9c5ff0ef          	jal	ra,a002 <_Balloc>
    a642:	00100737          	lui	a4,0x100
    a646:	fff70793          	addi	a5,a4,-1 # fffff <_data_lma+0xf417b>
    a64a:	8fe5                	and	a5,a5,s1
    a64c:	80d1                	srli	s1,s1,0x14
    a64e:	7ff4f493          	andi	s1,s1,2047
    a652:	89aa                	mv	s3,a0
    a654:	e0b5                	bnez	s1,a6b8 <__d2b+0x92>
    a656:	c63e                	sw	a5,12(sp)
    a658:	c42d                	beqz	s0,a6c2 <__d2b+0x9c>
    a65a:	0028                	addi	a0,sp,8
    a65c:	c422                	sw	s0,8(sp)
    a65e:	b4fff0ef          	jal	ra,a1ac <__lo0bits>
    a662:	46a2                	lw	a3,8(sp)
    a664:	cd21                	beqz	a0,a6bc <__d2b+0x96>
    a666:	4732                	lw	a4,12(sp)
    a668:	02000793          	li	a5,32
    a66c:	8f89                	sub	a5,a5,a0
    a66e:	00f717b3          	sll	a5,a4,a5
    a672:	8fd5                	or	a5,a5,a3
    a674:	00a75733          	srl	a4,a4,a0
    a678:	00f9aa23          	sw	a5,20(s3)
    a67c:	c63a                	sw	a4,12(sp)
    a67e:	4432                	lw	s0,12(sp)
    a680:	0089ac23          	sw	s0,24(s3)
    a684:	00803433          	snez	s0,s0
    a688:	0405                	addi	s0,s0,1
    a68a:	0089a823          	sw	s0,16(s3)
    a68e:	c4b9                	beqz	s1,a6dc <__d2b+0xb6>
    a690:	bcd48493          	addi	s1,s1,-1075
    a694:	94aa                	add	s1,s1,a0
    a696:	03500793          	li	a5,53
    a69a:	009a2023          	sw	s1,0(s4)
    a69e:	40a78533          	sub	a0,a5,a0
    a6a2:	00a92023          	sw	a0,0(s2)
    a6a6:	50b2                	lw	ra,44(sp)
    a6a8:	5422                	lw	s0,40(sp)
    a6aa:	854e                	mv	a0,s3
    a6ac:	5492                	lw	s1,36(sp)
    a6ae:	5902                	lw	s2,32(sp)
    a6b0:	49f2                	lw	s3,28(sp)
    a6b2:	4a62                	lw	s4,24(sp)
    a6b4:	6145                	addi	sp,sp,48
    a6b6:	8082                	ret
    a6b8:	8fd9                	or	a5,a5,a4
    a6ba:	bf71                	j	a656 <__d2b+0x30>
    a6bc:	00d9aa23          	sw	a3,20(s3)
    a6c0:	bf7d                	j	a67e <__d2b+0x58>
    a6c2:	0068                	addi	a0,sp,12
    a6c4:	ae9ff0ef          	jal	ra,a1ac <__lo0bits>
    a6c8:	47b2                	lw	a5,12(sp)
    a6ca:	02050513          	addi	a0,a0,32
    a6ce:	4405                	li	s0,1
    a6d0:	00f9aa23          	sw	a5,20(s3)
    a6d4:	4785                	li	a5,1
    a6d6:	00f9a823          	sw	a5,16(s3)
    a6da:	bf55                	j	a68e <__d2b+0x68>
    a6dc:	00241793          	slli	a5,s0,0x2
    a6e0:	bce50513          	addi	a0,a0,-1074
    a6e4:	97ce                	add	a5,a5,s3
    a6e6:	00aa2023          	sw	a0,0(s4)
    a6ea:	4b88                	lw	a0,16(a5)
    a6ec:	0416                	slli	s0,s0,0x5
    a6ee:	a79ff0ef          	jal	ra,a166 <__hi0bits>
    a6f2:	8c09                	sub	s0,s0,a0
    a6f4:	00892023          	sw	s0,0(s2)
    a6f8:	b77d                	j	a6a6 <__d2b+0x80>

0000a6fa <_calloc_r>:
    a6fa:	02c58633          	mul	a2,a1,a2
    a6fe:	1101                	addi	sp,sp,-32
    a700:	cc22                	sw	s0,24(sp)
    a702:	ce06                	sw	ra,28(sp)
    a704:	85b2                	mv	a1,a2
    a706:	c632                	sw	a2,12(sp)
    a708:	2875                	jal	a7c4 <_malloc_r>
    a70a:	842a                	mv	s0,a0
    a70c:	c509                	beqz	a0,a716 <_calloc_r+0x1c>
    a70e:	4632                	lw	a2,12(sp)
    a710:	4581                	li	a1,0
    a712:	b4ff50ef          	jal	ra,260 <memset>
    a716:	8522                	mv	a0,s0
    a718:	40f2                	lw	ra,28(sp)
    a71a:	4462                	lw	s0,24(sp)
    a71c:	6105                	addi	sp,sp,32
    a71e:	8082                	ret

0000a720 <_free_r>:
    a720:	c1cd                	beqz	a1,a7c2 <_free_r+0xa2>
    a722:	ffc5a783          	lw	a5,-4(a1) # fffc <_data_lma+0x4178>
    a726:	1141                	addi	sp,sp,-16
    a728:	c422                	sw	s0,8(sp)
    a72a:	c606                	sw	ra,12(sp)
    a72c:	c226                	sw	s1,4(sp)
    a72e:	ffc58413          	addi	s0,a1,-4
    a732:	0007d363          	bgez	a5,a738 <_free_r+0x18>
    a736:	943e                	add	s0,s0,a5
    a738:	84aa                	mv	s1,a0
    a73a:	2525                	jal	ad62 <__malloc_lock>
    a73c:	84818793          	addi	a5,gp,-1976 # 20000238 <__malloc_free_list>
    a740:	439c                	lw	a5,0(a5)
    a742:	eb99                	bnez	a5,a758 <_free_r+0x38>
    a744:	00042223          	sw	zero,4(s0)
    a748:	8481a423          	sw	s0,-1976(gp) # 20000238 <__malloc_free_list>
    a74c:	4422                	lw	s0,8(sp)
    a74e:	40b2                	lw	ra,12(sp)
    a750:	8526                	mv	a0,s1
    a752:	4492                	lw	s1,4(sp)
    a754:	0141                	addi	sp,sp,16
    a756:	a539                	j	ad64 <__malloc_unlock>
    a758:	00f47e63          	bgeu	s0,a5,a774 <_free_r+0x54>
    a75c:	4014                	lw	a3,0(s0)
    a75e:	00d40733          	add	a4,s0,a3
    a762:	00e79663          	bne	a5,a4,a76e <_free_r+0x4e>
    a766:	4398                	lw	a4,0(a5)
    a768:	43dc                	lw	a5,4(a5)
    a76a:	9736                	add	a4,a4,a3
    a76c:	c018                	sw	a4,0(s0)
    a76e:	c05c                	sw	a5,4(s0)
    a770:	bfe1                	j	a748 <_free_r+0x28>
    a772:	87ba                	mv	a5,a4
    a774:	43d8                	lw	a4,4(a5)
    a776:	c319                	beqz	a4,a77c <_free_r+0x5c>
    a778:	fee47de3          	bgeu	s0,a4,a772 <_free_r+0x52>
    a77c:	4394                	lw	a3,0(a5)
    a77e:	00d78633          	add	a2,a5,a3
    a782:	00861f63          	bne	a2,s0,a7a0 <_free_r+0x80>
    a786:	4010                	lw	a2,0(s0)
    a788:	96b2                	add	a3,a3,a2
    a78a:	c394                	sw	a3,0(a5)
    a78c:	00d78633          	add	a2,a5,a3
    a790:	fac71ee3          	bne	a4,a2,a74c <_free_r+0x2c>
    a794:	4310                	lw	a2,0(a4)
    a796:	4358                	lw	a4,4(a4)
    a798:	96b2                	add	a3,a3,a2
    a79a:	c394                	sw	a3,0(a5)
    a79c:	c3d8                	sw	a4,4(a5)
    a79e:	b77d                	j	a74c <_free_r+0x2c>
    a7a0:	00c47563          	bgeu	s0,a2,a7aa <_free_r+0x8a>
    a7a4:	47b1                	li	a5,12
    a7a6:	c09c                	sw	a5,0(s1)
    a7a8:	b755                	j	a74c <_free_r+0x2c>
    a7aa:	4010                	lw	a2,0(s0)
    a7ac:	00c406b3          	add	a3,s0,a2
    a7b0:	00d71663          	bne	a4,a3,a7bc <_free_r+0x9c>
    a7b4:	4314                	lw	a3,0(a4)
    a7b6:	4358                	lw	a4,4(a4)
    a7b8:	96b2                	add	a3,a3,a2
    a7ba:	c014                	sw	a3,0(s0)
    a7bc:	c058                	sw	a4,4(s0)
    a7be:	c3c0                	sw	s0,4(a5)
    a7c0:	b771                	j	a74c <_free_r+0x2c>
    a7c2:	8082                	ret

0000a7c4 <_malloc_r>:
    a7c4:	1101                	addi	sp,sp,-32
    a7c6:	ca26                	sw	s1,20(sp)
    a7c8:	00358493          	addi	s1,a1,3
    a7cc:	98f1                	andi	s1,s1,-4
    a7ce:	ce06                	sw	ra,28(sp)
    a7d0:	cc22                	sw	s0,24(sp)
    a7d2:	c84a                	sw	s2,16(sp)
    a7d4:	c64e                	sw	s3,12(sp)
    a7d6:	04a1                	addi	s1,s1,8
    a7d8:	47b1                	li	a5,12
    a7da:	04f4f163          	bgeu	s1,a5,a81c <_malloc_r+0x58>
    a7de:	44b1                	li	s1,12
    a7e0:	04b4e063          	bltu	s1,a1,a820 <_malloc_r+0x5c>
    a7e4:	892a                	mv	s2,a0
    a7e6:	2bb5                	jal	ad62 <__malloc_lock>
    a7e8:	84818793          	addi	a5,gp,-1976 # 20000238 <__malloc_free_list>
    a7ec:	4398                	lw	a4,0(a5)
    a7ee:	843a                	mv	s0,a4
    a7f0:	e031                	bnez	s0,a834 <_malloc_r+0x70>
    a7f2:	84c18793          	addi	a5,gp,-1972 # 2000023c <__malloc_sbrk_start>
    a7f6:	439c                	lw	a5,0(a5)
    a7f8:	e791                	bnez	a5,a804 <_malloc_r+0x40>
    a7fa:	4581                	li	a1,0
    a7fc:	854a                	mv	a0,s2
    a7fe:	2669                	jal	ab88 <_sbrk_r>
    a800:	84a1a623          	sw	a0,-1972(gp) # 2000023c <__malloc_sbrk_start>
    a804:	85a6                	mv	a1,s1
    a806:	854a                	mv	a0,s2
    a808:	2641                	jal	ab88 <_sbrk_r>
    a80a:	59fd                	li	s3,-1
    a80c:	07351763          	bne	a0,s3,a87a <_malloc_r+0xb6>
    a810:	47b1                	li	a5,12
    a812:	00f92023          	sw	a5,0(s2)
    a816:	854a                	mv	a0,s2
    a818:	23b1                	jal	ad64 <__malloc_unlock>
    a81a:	a029                	j	a824 <_malloc_r+0x60>
    a81c:	fc04d2e3          	bgez	s1,a7e0 <_malloc_r+0x1c>
    a820:	47b1                	li	a5,12
    a822:	c11c                	sw	a5,0(a0)
    a824:	4501                	li	a0,0
    a826:	40f2                	lw	ra,28(sp)
    a828:	4462                	lw	s0,24(sp)
    a82a:	44d2                	lw	s1,20(sp)
    a82c:	4942                	lw	s2,16(sp)
    a82e:	49b2                	lw	s3,12(sp)
    a830:	6105                	addi	sp,sp,32
    a832:	8082                	ret
    a834:	401c                	lw	a5,0(s0)
    a836:	8f85                	sub	a5,a5,s1
    a838:	0207ce63          	bltz	a5,a874 <_malloc_r+0xb0>
    a83c:	46ad                	li	a3,11
    a83e:	00f6f663          	bgeu	a3,a5,a84a <_malloc_r+0x86>
    a842:	c01c                	sw	a5,0(s0)
    a844:	943e                	add	s0,s0,a5
    a846:	c004                	sw	s1,0(s0)
    a848:	a031                	j	a854 <_malloc_r+0x90>
    a84a:	405c                	lw	a5,4(s0)
    a84c:	02871263          	bne	a4,s0,a870 <_malloc_r+0xac>
    a850:	84f1a423          	sw	a5,-1976(gp) # 20000238 <__malloc_free_list>
    a854:	854a                	mv	a0,s2
    a856:	2339                	jal	ad64 <__malloc_unlock>
    a858:	00b40513          	addi	a0,s0,11
    a85c:	00440793          	addi	a5,s0,4
    a860:	9961                	andi	a0,a0,-8
    a862:	40f50733          	sub	a4,a0,a5
    a866:	d361                	beqz	a4,a826 <_malloc_r+0x62>
    a868:	943a                	add	s0,s0,a4
    a86a:	8f89                	sub	a5,a5,a0
    a86c:	c01c                	sw	a5,0(s0)
    a86e:	bf65                	j	a826 <_malloc_r+0x62>
    a870:	c35c                	sw	a5,4(a4)
    a872:	b7cd                	j	a854 <_malloc_r+0x90>
    a874:	8722                	mv	a4,s0
    a876:	4040                	lw	s0,4(s0)
    a878:	bfa5                	j	a7f0 <_malloc_r+0x2c>
    a87a:	00350413          	addi	s0,a0,3
    a87e:	9871                	andi	s0,s0,-4
    a880:	fc8503e3          	beq	a0,s0,a846 <_malloc_r+0x82>
    a884:	40a405b3          	sub	a1,s0,a0
    a888:	854a                	mv	a0,s2
    a88a:	2cfd                	jal	ab88 <_sbrk_r>
    a88c:	fb351de3          	bne	a0,s3,a846 <_malloc_r+0x82>
    a890:	b741                	j	a810 <_malloc_r+0x4c>

0000a892 <__sfputc_r>:
    a892:	461c                	lw	a5,8(a2)
    a894:	17fd                	addi	a5,a5,-1
    a896:	c61c                	sw	a5,8(a2)
    a898:	0007da63          	bgez	a5,a8ac <__sfputc_r+0x1a>
    a89c:	4e18                	lw	a4,24(a2)
    a89e:	00e7c563          	blt	a5,a4,a8a8 <__sfputc_r+0x16>
    a8a2:	47a9                	li	a5,10
    a8a4:	00f59463          	bne	a1,a5,a8ac <__sfputc_r+0x1a>
    a8a8:	b5afe06f          	j	8c02 <__swbuf_r>
    a8ac:	421c                	lw	a5,0(a2)
    a8ae:	852e                	mv	a0,a1
    a8b0:	00178713          	addi	a4,a5,1
    a8b4:	c218                	sw	a4,0(a2)
    a8b6:	a38c                	sb	a1,0(a5)
    a8b8:	8082                	ret

0000a8ba <__sfputs_r>:
    a8ba:	1101                	addi	sp,sp,-32
    a8bc:	cc22                	sw	s0,24(sp)
    a8be:	ca26                	sw	s1,20(sp)
    a8c0:	c84a                	sw	s2,16(sp)
    a8c2:	c64e                	sw	s3,12(sp)
    a8c4:	c452                	sw	s4,8(sp)
    a8c6:	ce06                	sw	ra,28(sp)
    a8c8:	892a                	mv	s2,a0
    a8ca:	89ae                	mv	s3,a1
    a8cc:	8432                	mv	s0,a2
    a8ce:	00d604b3          	add	s1,a2,a3
    a8d2:	5a7d                	li	s4,-1
    a8d4:	00941463          	bne	s0,s1,a8dc <__sfputs_r+0x22>
    a8d8:	4501                	li	a0,0
    a8da:	a809                	j	a8ec <__sfputs_r+0x32>
    a8dc:	200c                	lbu	a1,0(s0)
    a8de:	864e                	mv	a2,s3
    a8e0:	854a                	mv	a0,s2
    a8e2:	fb1ff0ef          	jal	ra,a892 <__sfputc_r>
    a8e6:	0405                	addi	s0,s0,1
    a8e8:	ff4516e3          	bne	a0,s4,a8d4 <__sfputs_r+0x1a>
    a8ec:	40f2                	lw	ra,28(sp)
    a8ee:	4462                	lw	s0,24(sp)
    a8f0:	44d2                	lw	s1,20(sp)
    a8f2:	4942                	lw	s2,16(sp)
    a8f4:	49b2                	lw	s3,12(sp)
    a8f6:	4a22                	lw	s4,8(sp)
    a8f8:	6105                	addi	sp,sp,32
    a8fa:	8082                	ret

0000a8fc <_vfiprintf_r>:
    a8fc:	7135                	addi	sp,sp,-160
    a8fe:	cd22                	sw	s0,152(sp)
    a900:	cb26                	sw	s1,148(sp)
    a902:	c94a                	sw	s2,144(sp)
    a904:	c74e                	sw	s3,140(sp)
    a906:	cf06                	sw	ra,156(sp)
    a908:	c552                	sw	s4,136(sp)
    a90a:	c356                	sw	s5,132(sp)
    a90c:	c15a                	sw	s6,128(sp)
    a90e:	dede                	sw	s7,124(sp)
    a910:	dce2                	sw	s8,120(sp)
    a912:	dae6                	sw	s9,116(sp)
    a914:	89aa                	mv	s3,a0
    a916:	84ae                	mv	s1,a1
    a918:	8932                	mv	s2,a2
    a91a:	8436                	mv	s0,a3
    a91c:	c509                	beqz	a0,a926 <_vfiprintf_r+0x2a>
    a91e:	4d1c                	lw	a5,24(a0)
    a920:	e399                	bnez	a5,a926 <_vfiprintf_r+0x2a>
    a922:	c42ff0ef          	jal	ra,9d64 <__sinit>
    a926:	00001797          	auipc	a5,0x1
    a92a:	2fa78793          	addi	a5,a5,762 # bc20 <__sf_fake_stdin>
    a92e:	0cf49963          	bne	s1,a5,aa00 <_vfiprintf_r+0x104>
    a932:	0049a483          	lw	s1,4(s3)
    a936:	24de                	lhu	a5,12(s1)
    a938:	8ba1                	andi	a5,a5,8
    a93a:	c7ed                	beqz	a5,aa24 <_vfiprintf_r+0x128>
    a93c:	489c                	lw	a5,16(s1)
    a93e:	c3fd                	beqz	a5,aa24 <_vfiprintf_r+0x128>
    a940:	02000793          	li	a5,32
    a944:	02f104a3          	sb	a5,41(sp)
    a948:	03000793          	li	a5,48
    a94c:	d202                	sw	zero,36(sp)
    a94e:	02f10523          	sb	a5,42(sp)
    a952:	c622                	sw	s0,12(sp)
    a954:	02500b93          	li	s7,37
    a958:	00001a97          	auipc	s5,0x1
    a95c:	404a8a93          	addi	s5,s5,1028 # bd5c <p05.3319+0xc>
    a960:	4c05                	li	s8,1
    a962:	4b29                	li	s6,10
    a964:	844a                	mv	s0,s2
    a966:	201c                	lbu	a5,0(s0)
    a968:	c399                	beqz	a5,a96e <_vfiprintf_r+0x72>
    a96a:	0f779063          	bne	a5,s7,aa4a <_vfiprintf_r+0x14e>
    a96e:	41240cb3          	sub	s9,s0,s2
    a972:	000c8e63          	beqz	s9,a98e <_vfiprintf_r+0x92>
    a976:	86e6                	mv	a3,s9
    a978:	864a                	mv	a2,s2
    a97a:	85a6                	mv	a1,s1
    a97c:	854e                	mv	a0,s3
    a97e:	f3dff0ef          	jal	ra,a8ba <__sfputs_r>
    a982:	57fd                	li	a5,-1
    a984:	1ef50063          	beq	a0,a5,ab64 <_vfiprintf_r+0x268>
    a988:	5692                	lw	a3,36(sp)
    a98a:	96e6                	add	a3,a3,s9
    a98c:	d236                	sw	a3,36(sp)
    a98e:	201c                	lbu	a5,0(s0)
    a990:	1c078a63          	beqz	a5,ab64 <_vfiprintf_r+0x268>
    a994:	57fd                	li	a5,-1
    a996:	00140913          	addi	s2,s0,1
    a99a:	c802                	sw	zero,16(sp)
    a99c:	ce02                	sw	zero,28(sp)
    a99e:	ca3e                	sw	a5,20(sp)
    a9a0:	cc02                	sw	zero,24(sp)
    a9a2:	040109a3          	sb	zero,83(sp)
    a9a6:	d482                	sw	zero,104(sp)
    a9a8:	00094583          	lbu	a1,0(s2)
    a9ac:	4615                	li	a2,5
    a9ae:	8556                	mv	a0,s5
    a9b0:	e3aff0ef          	jal	ra,9fea <memchr>
    a9b4:	00190413          	addi	s0,s2,1
    a9b8:	47c2                	lw	a5,16(sp)
    a9ba:	e951                	bnez	a0,aa4e <_vfiprintf_r+0x152>
    a9bc:	0107f713          	andi	a4,a5,16
    a9c0:	c709                	beqz	a4,a9ca <_vfiprintf_r+0xce>
    a9c2:	02000713          	li	a4,32
    a9c6:	04e109a3          	sb	a4,83(sp)
    a9ca:	0087f713          	andi	a4,a5,8
    a9ce:	c709                	beqz	a4,a9d8 <_vfiprintf_r+0xdc>
    a9d0:	02b00713          	li	a4,43
    a9d4:	04e109a3          	sb	a4,83(sp)
    a9d8:	00094683          	lbu	a3,0(s2)
    a9dc:	02a00713          	li	a4,42
    a9e0:	06e68f63          	beq	a3,a4,aa5e <_vfiprintf_r+0x162>
    a9e4:	47f2                	lw	a5,28(sp)
    a9e6:	844a                	mv	s0,s2
    a9e8:	4681                	li	a3,0
    a9ea:	4625                	li	a2,9
    a9ec:	2018                	lbu	a4,0(s0)
    a9ee:	00140593          	addi	a1,s0,1
    a9f2:	fd070713          	addi	a4,a4,-48
    a9f6:	0ae67763          	bgeu	a2,a4,aaa4 <_vfiprintf_r+0x1a8>
    a9fa:	cab5                	beqz	a3,aa6e <_vfiprintf_r+0x172>
    a9fc:	ce3e                	sw	a5,28(sp)
    a9fe:	a885                	j	aa6e <_vfiprintf_r+0x172>
    aa00:	00001797          	auipc	a5,0x1
    aa04:	24078793          	addi	a5,a5,576 # bc40 <__sf_fake_stdout>
    aa08:	00f49563          	bne	s1,a5,aa12 <_vfiprintf_r+0x116>
    aa0c:	0089a483          	lw	s1,8(s3)
    aa10:	b71d                	j	a936 <_vfiprintf_r+0x3a>
    aa12:	00001797          	auipc	a5,0x1
    aa16:	1ee78793          	addi	a5,a5,494 # bc00 <__sf_fake_stderr>
    aa1a:	f0f49ee3          	bne	s1,a5,a936 <_vfiprintf_r+0x3a>
    aa1e:	00c9a483          	lw	s1,12(s3)
    aa22:	bf11                	j	a936 <_vfiprintf_r+0x3a>
    aa24:	85a6                	mv	a1,s1
    aa26:	854e                	mv	a0,s3
    aa28:	a9cfe0ef          	jal	ra,8cc4 <__swsetup_r>
    aa2c:	d911                	beqz	a0,a940 <_vfiprintf_r+0x44>
    aa2e:	557d                	li	a0,-1
    aa30:	40fa                	lw	ra,156(sp)
    aa32:	446a                	lw	s0,152(sp)
    aa34:	44da                	lw	s1,148(sp)
    aa36:	494a                	lw	s2,144(sp)
    aa38:	49ba                	lw	s3,140(sp)
    aa3a:	4a2a                	lw	s4,136(sp)
    aa3c:	4a9a                	lw	s5,132(sp)
    aa3e:	4b0a                	lw	s6,128(sp)
    aa40:	5bf6                	lw	s7,124(sp)
    aa42:	5c66                	lw	s8,120(sp)
    aa44:	5cd6                	lw	s9,116(sp)
    aa46:	610d                	addi	sp,sp,160
    aa48:	8082                	ret
    aa4a:	0405                	addi	s0,s0,1
    aa4c:	bf29                	j	a966 <_vfiprintf_r+0x6a>
    aa4e:	41550533          	sub	a0,a0,s5
    aa52:	00ac1533          	sll	a0,s8,a0
    aa56:	8fc9                	or	a5,a5,a0
    aa58:	c83e                	sw	a5,16(sp)
    aa5a:	8922                	mv	s2,s0
    aa5c:	b7b1                	j	a9a8 <_vfiprintf_r+0xac>
    aa5e:	4732                	lw	a4,12(sp)
    aa60:	00470693          	addi	a3,a4,4
    aa64:	4318                	lw	a4,0(a4)
    aa66:	c636                	sw	a3,12(sp)
    aa68:	02074763          	bltz	a4,aa96 <_vfiprintf_r+0x19a>
    aa6c:	ce3a                	sw	a4,28(sp)
    aa6e:	2018                	lbu	a4,0(s0)
    aa70:	02e00793          	li	a5,46
    aa74:	04f71d63          	bne	a4,a5,aace <_vfiprintf_r+0x1d2>
    aa78:	3018                	lbu	a4,1(s0)
    aa7a:	02a00793          	li	a5,42
    aa7e:	02f71b63          	bne	a4,a5,aab4 <_vfiprintf_r+0x1b8>
    aa82:	47b2                	lw	a5,12(sp)
    aa84:	0409                	addi	s0,s0,2
    aa86:	00478713          	addi	a4,a5,4
    aa8a:	439c                	lw	a5,0(a5)
    aa8c:	c63a                	sw	a4,12(sp)
    aa8e:	0207c163          	bltz	a5,aab0 <_vfiprintf_r+0x1b4>
    aa92:	ca3e                	sw	a5,20(sp)
    aa94:	a82d                	j	aace <_vfiprintf_r+0x1d2>
    aa96:	40e00733          	neg	a4,a4
    aa9a:	0027e793          	ori	a5,a5,2
    aa9e:	ce3a                	sw	a4,28(sp)
    aaa0:	c83e                	sw	a5,16(sp)
    aaa2:	b7f1                	j	aa6e <_vfiprintf_r+0x172>
    aaa4:	036787b3          	mul	a5,a5,s6
    aaa8:	4685                	li	a3,1
    aaaa:	842e                	mv	s0,a1
    aaac:	97ba                	add	a5,a5,a4
    aaae:	bf3d                	j	a9ec <_vfiprintf_r+0xf0>
    aab0:	57fd                	li	a5,-1
    aab2:	b7c5                	j	aa92 <_vfiprintf_r+0x196>
    aab4:	0405                	addi	s0,s0,1
    aab6:	ca02                	sw	zero,20(sp)
    aab8:	4681                	li	a3,0
    aaba:	4781                	li	a5,0
    aabc:	4625                	li	a2,9
    aabe:	2018                	lbu	a4,0(s0)
    aac0:	00140593          	addi	a1,s0,1
    aac4:	fd070713          	addi	a4,a4,-48
    aac8:	06e67663          	bgeu	a2,a4,ab34 <_vfiprintf_r+0x238>
    aacc:	f2f9                	bnez	a3,aa92 <_vfiprintf_r+0x196>
    aace:	200c                	lbu	a1,0(s0)
    aad0:	460d                	li	a2,3
    aad2:	00001517          	auipc	a0,0x1
    aad6:	29250513          	addi	a0,a0,658 # bd64 <p05.3319+0x14>
    aada:	d10ff0ef          	jal	ra,9fea <memchr>
    aade:	cd11                	beqz	a0,aafa <_vfiprintf_r+0x1fe>
    aae0:	00001797          	auipc	a5,0x1
    aae4:	28478793          	addi	a5,a5,644 # bd64 <p05.3319+0x14>
    aae8:	8d1d                	sub	a0,a0,a5
    aaea:	04000793          	li	a5,64
    aaee:	00a797b3          	sll	a5,a5,a0
    aaf2:	4542                	lw	a0,16(sp)
    aaf4:	0405                	addi	s0,s0,1
    aaf6:	8d5d                	or	a0,a0,a5
    aaf8:	c82a                	sw	a0,16(sp)
    aafa:	200c                	lbu	a1,0(s0)
    aafc:	4619                	li	a2,6
    aafe:	00001517          	auipc	a0,0x1
    ab02:	26a50513          	addi	a0,a0,618 # bd68 <p05.3319+0x18>
    ab06:	00140913          	addi	s2,s0,1
    ab0a:	02b10423          	sb	a1,40(sp)
    ab0e:	cdcff0ef          	jal	ra,9fea <memchr>
    ab12:	c125                	beqz	a0,ab72 <_vfiprintf_r+0x276>
    ab14:	ffffd797          	auipc	a5,0xffffd
    ab18:	74278793          	addi	a5,a5,1858 # 8256 <_printf_float>
    ab1c:	e795                	bnez	a5,ab48 <_vfiprintf_r+0x24c>
    ab1e:	4742                	lw	a4,16(sp)
    ab20:	47b2                	lw	a5,12(sp)
    ab22:	10077713          	andi	a4,a4,256
    ab26:	cf09                	beqz	a4,ab40 <_vfiprintf_r+0x244>
    ab28:	0791                	addi	a5,a5,4
    ab2a:	c63e                	sw	a5,12(sp)
    ab2c:	5792                	lw	a5,36(sp)
    ab2e:	97d2                	add	a5,a5,s4
    ab30:	d23e                	sw	a5,36(sp)
    ab32:	bd0d                	j	a964 <_vfiprintf_r+0x68>
    ab34:	036787b3          	mul	a5,a5,s6
    ab38:	4685                	li	a3,1
    ab3a:	842e                	mv	s0,a1
    ab3c:	97ba                	add	a5,a5,a4
    ab3e:	b741                	j	aabe <_vfiprintf_r+0x1c2>
    ab40:	079d                	addi	a5,a5,7
    ab42:	9be1                	andi	a5,a5,-8
    ab44:	07a1                	addi	a5,a5,8
    ab46:	b7d5                	j	ab2a <_vfiprintf_r+0x22e>
    ab48:	0078                	addi	a4,sp,12
    ab4a:	00000697          	auipc	a3,0x0
    ab4e:	d7068693          	addi	a3,a3,-656 # a8ba <__sfputs_r>
    ab52:	8626                	mv	a2,s1
    ab54:	080c                	addi	a1,sp,16
    ab56:	854e                	mv	a0,s3
    ab58:	efefd0ef          	jal	ra,8256 <_printf_float>
    ab5c:	57fd                	li	a5,-1
    ab5e:	8a2a                	mv	s4,a0
    ab60:	fcf516e3          	bne	a0,a5,ab2c <_vfiprintf_r+0x230>
    ab64:	24de                	lhu	a5,12(s1)
    ab66:	0407f793          	andi	a5,a5,64
    ab6a:	ec0792e3          	bnez	a5,aa2e <_vfiprintf_r+0x132>
    ab6e:	5512                	lw	a0,36(sp)
    ab70:	b5c1                	j	aa30 <_vfiprintf_r+0x134>
    ab72:	0078                	addi	a4,sp,12
    ab74:	00000697          	auipc	a3,0x0
    ab78:	d4668693          	addi	a3,a3,-698 # a8ba <__sfputs_r>
    ab7c:	8626                	mv	a2,s1
    ab7e:	080c                	addi	a1,sp,16
    ab80:	854e                	mv	a0,s3
    ab82:	ca5fd0ef          	jal	ra,8826 <_printf_i>
    ab86:	bfd9                	j	ab5c <_vfiprintf_r+0x260>

0000ab88 <_sbrk_r>:
    ab88:	1141                	addi	sp,sp,-16
    ab8a:	c422                	sw	s0,8(sp)
    ab8c:	842a                	mv	s0,a0
    ab8e:	852e                	mv	a0,a1
    ab90:	aa01a623          	sw	zero,-1364(gp) # 2000049c <errno>
    ab94:	c606                	sw	ra,12(sp)
    ab96:	ea7fa0ef          	jal	ra,5a3c <_sbrk>
    ab9a:	57fd                	li	a5,-1
    ab9c:	00f51763          	bne	a0,a5,abaa <_sbrk_r+0x22>
    aba0:	aac18793          	addi	a5,gp,-1364 # 2000049c <errno>
    aba4:	439c                	lw	a5,0(a5)
    aba6:	c391                	beqz	a5,abaa <_sbrk_r+0x22>
    aba8:	c01c                	sw	a5,0(s0)
    abaa:	40b2                	lw	ra,12(sp)
    abac:	4422                	lw	s0,8(sp)
    abae:	0141                	addi	sp,sp,16
    abb0:	8082                	ret

0000abb2 <__sread>:
    abb2:	1141                	addi	sp,sp,-16
    abb4:	c422                	sw	s0,8(sp)
    abb6:	842e                	mv	s0,a1
    abb8:	00e59583          	lh	a1,14(a1)
    abbc:	c606                	sw	ra,12(sp)
    abbe:	2265                	jal	ad66 <_read_r>
    abc0:	00054963          	bltz	a0,abd2 <__sread+0x20>
    abc4:	487c                	lw	a5,84(s0)
    abc6:	97aa                	add	a5,a5,a0
    abc8:	c87c                	sw	a5,84(s0)
    abca:	40b2                	lw	ra,12(sp)
    abcc:	4422                	lw	s0,8(sp)
    abce:	0141                	addi	sp,sp,16
    abd0:	8082                	ret
    abd2:	245e                	lhu	a5,12(s0)
    abd4:	777d                	lui	a4,0xfffff
    abd6:	177d                	addi	a4,a4,-1
    abd8:	8ff9                	and	a5,a5,a4
    abda:	a45e                	sh	a5,12(s0)
    abdc:	b7fd                	j	abca <__sread+0x18>

0000abde <__swrite>:
    abde:	25de                	lhu	a5,12(a1)
    abe0:	1101                	addi	sp,sp,-32
    abe2:	cc22                	sw	s0,24(sp)
    abe4:	ca26                	sw	s1,20(sp)
    abe6:	c84a                	sw	s2,16(sp)
    abe8:	c64e                	sw	s3,12(sp)
    abea:	ce06                	sw	ra,28(sp)
    abec:	1007f793          	andi	a5,a5,256
    abf0:	84aa                	mv	s1,a0
    abf2:	842e                	mv	s0,a1
    abf4:	8932                	mv	s2,a2
    abf6:	89b6                	mv	s3,a3
    abf8:	c791                	beqz	a5,ac04 <__swrite+0x26>
    abfa:	00e59583          	lh	a1,14(a1)
    abfe:	4689                	li	a3,2
    ac00:	4601                	li	a2,0
    ac02:	2209                	jal	ad04 <_lseek_r>
    ac04:	245e                	lhu	a5,12(s0)
    ac06:	777d                	lui	a4,0xfffff
    ac08:	177d                	addi	a4,a4,-1
    ac0a:	8ff9                	and	a5,a5,a4
    ac0c:	a45e                	sh	a5,12(s0)
    ac0e:	00e41583          	lh	a1,14(s0)
    ac12:	4462                	lw	s0,24(sp)
    ac14:	40f2                	lw	ra,28(sp)
    ac16:	86ce                	mv	a3,s3
    ac18:	864a                	mv	a2,s2
    ac1a:	49b2                	lw	s3,12(sp)
    ac1c:	4942                	lw	s2,16(sp)
    ac1e:	8526                	mv	a0,s1
    ac20:	44d2                	lw	s1,20(sp)
    ac22:	6105                	addi	sp,sp,32
    ac24:	a825                	j	ac5c <_write_r>

0000ac26 <__sseek>:
    ac26:	1141                	addi	sp,sp,-16
    ac28:	c422                	sw	s0,8(sp)
    ac2a:	842e                	mv	s0,a1
    ac2c:	00e59583          	lh	a1,14(a1)
    ac30:	c606                	sw	ra,12(sp)
    ac32:	28c9                	jal	ad04 <_lseek_r>
    ac34:	57fd                	li	a5,-1
    ac36:	245a                	lhu	a4,12(s0)
    ac38:	00f51a63          	bne	a0,a5,ac4c <__sseek+0x26>
    ac3c:	77fd                	lui	a5,0xfffff
    ac3e:	17fd                	addi	a5,a5,-1
    ac40:	8ff9                	and	a5,a5,a4
    ac42:	a45e                	sh	a5,12(s0)
    ac44:	40b2                	lw	ra,12(sp)
    ac46:	4422                	lw	s0,8(sp)
    ac48:	0141                	addi	sp,sp,16
    ac4a:	8082                	ret
    ac4c:	6785                	lui	a5,0x1
    ac4e:	8fd9                	or	a5,a5,a4
    ac50:	a45e                	sh	a5,12(s0)
    ac52:	c868                	sw	a0,84(s0)
    ac54:	bfc5                	j	ac44 <__sseek+0x1e>

0000ac56 <__sclose>:
    ac56:	00e59583          	lh	a1,14(a1)
    ac5a:	a805                	j	ac8a <_close_r>

0000ac5c <_write_r>:
    ac5c:	1141                	addi	sp,sp,-16
    ac5e:	c422                	sw	s0,8(sp)
    ac60:	842a                	mv	s0,a0
    ac62:	852e                	mv	a0,a1
    ac64:	85b2                	mv	a1,a2
    ac66:	8636                	mv	a2,a3
    ac68:	aa01a623          	sw	zero,-1364(gp) # 2000049c <errno>
    ac6c:	c606                	sw	ra,12(sp)
    ac6e:	d91fa0ef          	jal	ra,59fe <_write>
    ac72:	57fd                	li	a5,-1
    ac74:	00f51763          	bne	a0,a5,ac82 <_write_r+0x26>
    ac78:	aac18793          	addi	a5,gp,-1364 # 2000049c <errno>
    ac7c:	439c                	lw	a5,0(a5)
    ac7e:	c391                	beqz	a5,ac82 <_write_r+0x26>
    ac80:	c01c                	sw	a5,0(s0)
    ac82:	40b2                	lw	ra,12(sp)
    ac84:	4422                	lw	s0,8(sp)
    ac86:	0141                	addi	sp,sp,16
    ac88:	8082                	ret

0000ac8a <_close_r>:
    ac8a:	1141                	addi	sp,sp,-16
    ac8c:	c422                	sw	s0,8(sp)
    ac8e:	842a                	mv	s0,a0
    ac90:	852e                	mv	a0,a1
    ac92:	aa01a623          	sw	zero,-1364(gp) # 2000049c <errno>
    ac96:	c606                	sw	ra,12(sp)
    ac98:	2991                	jal	b0ec <_close>
    ac9a:	57fd                	li	a5,-1
    ac9c:	00f51763          	bne	a0,a5,acaa <_close_r+0x20>
    aca0:	aac18793          	addi	a5,gp,-1364 # 2000049c <errno>
    aca4:	439c                	lw	a5,0(a5)
    aca6:	c391                	beqz	a5,acaa <_close_r+0x20>
    aca8:	c01c                	sw	a5,0(s0)
    acaa:	40b2                	lw	ra,12(sp)
    acac:	4422                	lw	s0,8(sp)
    acae:	0141                	addi	sp,sp,16
    acb0:	8082                	ret

0000acb2 <_fstat_r>:
    acb2:	1141                	addi	sp,sp,-16
    acb4:	c422                	sw	s0,8(sp)
    acb6:	842a                	mv	s0,a0
    acb8:	852e                	mv	a0,a1
    acba:	85b2                	mv	a1,a2
    acbc:	aa01a623          	sw	zero,-1364(gp) # 2000049c <errno>
    acc0:	c606                	sw	ra,12(sp)
    acc2:	291d                	jal	b0f8 <_fstat>
    acc4:	57fd                	li	a5,-1
    acc6:	00f51763          	bne	a0,a5,acd4 <_fstat_r+0x22>
    acca:	aac18793          	addi	a5,gp,-1364 # 2000049c <errno>
    acce:	439c                	lw	a5,0(a5)
    acd0:	c391                	beqz	a5,acd4 <_fstat_r+0x22>
    acd2:	c01c                	sw	a5,0(s0)
    acd4:	40b2                	lw	ra,12(sp)
    acd6:	4422                	lw	s0,8(sp)
    acd8:	0141                	addi	sp,sp,16
    acda:	8082                	ret

0000acdc <_isatty_r>:
    acdc:	1141                	addi	sp,sp,-16
    acde:	c422                	sw	s0,8(sp)
    ace0:	842a                	mv	s0,a0
    ace2:	852e                	mv	a0,a1
    ace4:	aa01a623          	sw	zero,-1364(gp) # 2000049c <errno>
    ace8:	c606                	sw	ra,12(sp)
    acea:	2929                	jal	b104 <_isatty>
    acec:	57fd                	li	a5,-1
    acee:	00f51763          	bne	a0,a5,acfc <_isatty_r+0x20>
    acf2:	aac18793          	addi	a5,gp,-1364 # 2000049c <errno>
    acf6:	439c                	lw	a5,0(a5)
    acf8:	c391                	beqz	a5,acfc <_isatty_r+0x20>
    acfa:	c01c                	sw	a5,0(s0)
    acfc:	40b2                	lw	ra,12(sp)
    acfe:	4422                	lw	s0,8(sp)
    ad00:	0141                	addi	sp,sp,16
    ad02:	8082                	ret

0000ad04 <_lseek_r>:
    ad04:	1141                	addi	sp,sp,-16
    ad06:	c422                	sw	s0,8(sp)
    ad08:	842a                	mv	s0,a0
    ad0a:	852e                	mv	a0,a1
    ad0c:	85b2                	mv	a1,a2
    ad0e:	8636                	mv	a2,a3
    ad10:	aa01a623          	sw	zero,-1364(gp) # 2000049c <errno>
    ad14:	c606                	sw	ra,12(sp)
    ad16:	2eed                	jal	b110 <_lseek>
    ad18:	57fd                	li	a5,-1
    ad1a:	00f51763          	bne	a0,a5,ad28 <_lseek_r+0x24>
    ad1e:	aac18793          	addi	a5,gp,-1364 # 2000049c <errno>
    ad22:	439c                	lw	a5,0(a5)
    ad24:	c391                	beqz	a5,ad28 <_lseek_r+0x24>
    ad26:	c01c                	sw	a5,0(s0)
    ad28:	40b2                	lw	ra,12(sp)
    ad2a:	4422                	lw	s0,8(sp)
    ad2c:	0141                	addi	sp,sp,16
    ad2e:	8082                	ret

0000ad30 <__ascii_mbtowc>:
    ad30:	ed91                	bnez	a1,ad4c <__ascii_mbtowc+0x1c>
    ad32:	1141                	addi	sp,sp,-16
    ad34:	006c                	addi	a1,sp,12
    ad36:	4501                	li	a0,0
    ad38:	ca01                	beqz	a2,ad48 <__ascii_mbtowc+0x18>
    ad3a:	5579                	li	a0,-2
    ad3c:	c691                	beqz	a3,ad48 <__ascii_mbtowc+0x18>
    ad3e:	221c                	lbu	a5,0(a2)
    ad40:	c19c                	sw	a5,0(a1)
    ad42:	2208                	lbu	a0,0(a2)
    ad44:	00a03533          	snez	a0,a0
    ad48:	0141                	addi	sp,sp,16
    ad4a:	8082                	ret
    ad4c:	4501                	li	a0,0
    ad4e:	ca09                	beqz	a2,ad60 <__ascii_mbtowc+0x30>
    ad50:	5579                	li	a0,-2
    ad52:	c699                	beqz	a3,ad60 <__ascii_mbtowc+0x30>
    ad54:	221c                	lbu	a5,0(a2)
    ad56:	c19c                	sw	a5,0(a1)
    ad58:	2208                	lbu	a0,0(a2)
    ad5a:	00a03533          	snez	a0,a0
    ad5e:	8082                	ret
    ad60:	8082                	ret

0000ad62 <__malloc_lock>:
    ad62:	8082                	ret

0000ad64 <__malloc_unlock>:
    ad64:	8082                	ret

0000ad66 <_read_r>:
    ad66:	1141                	addi	sp,sp,-16
    ad68:	c422                	sw	s0,8(sp)
    ad6a:	842a                	mv	s0,a0
    ad6c:	852e                	mv	a0,a1
    ad6e:	85b2                	mv	a1,a2
    ad70:	8636                	mv	a2,a3
    ad72:	aa01a623          	sw	zero,-1364(gp) # 2000049c <errno>
    ad76:	c606                	sw	ra,12(sp)
    ad78:	2655                	jal	b11c <_read>
    ad7a:	57fd                	li	a5,-1
    ad7c:	00f51763          	bne	a0,a5,ad8a <_read_r+0x24>
    ad80:	aac18793          	addi	a5,gp,-1364 # 2000049c <errno>
    ad84:	439c                	lw	a5,0(a5)
    ad86:	c391                	beqz	a5,ad8a <_read_r+0x24>
    ad88:	c01c                	sw	a5,0(s0)
    ad8a:	40b2                	lw	ra,12(sp)
    ad8c:	4422                	lw	s0,8(sp)
    ad8e:	0141                	addi	sp,sp,16
    ad90:	8082                	ret

0000ad92 <__ascii_wctomb>:
    ad92:	cd89                	beqz	a1,adac <__ascii_wctomb+0x1a>
    ad94:	0ff00793          	li	a5,255
    ad98:	00c7f763          	bgeu	a5,a2,ada6 <__ascii_wctomb+0x14>
    ad9c:	08a00793          	li	a5,138
    ada0:	c11c                	sw	a5,0(a0)
    ada2:	557d                	li	a0,-1
    ada4:	8082                	ret
    ada6:	a190                	sb	a2,0(a1)
    ada8:	4505                	li	a0,1
    adaa:	8082                	ret
    adac:	4501                	li	a0,0
    adae:	8082                	ret

0000adb0 <__ledf2>:
    adb0:	0145d713          	srli	a4,a1,0x14
    adb4:	001007b7          	lui	a5,0x100
    adb8:	17fd                	addi	a5,a5,-1
    adba:	0146d813          	srli	a6,a3,0x14
    adbe:	7ff77713          	andi	a4,a4,2047
    adc2:	7ff00893          	li	a7,2047
    adc6:	00b7fe33          	and	t3,a5,a1
    adca:	8eaa                	mv	t4,a0
    adcc:	8ff5                	and	a5,a5,a3
    adce:	81fd                	srli	a1,a1,0x1f
    add0:	8f32                	mv	t5,a2
    add2:	7ff87813          	andi	a6,a6,2047
    add6:	82fd                	srli	a3,a3,0x1f
    add8:	03170e63          	beq	a4,a7,ae14 <__ledf2+0x64>
    addc:	01180d63          	beq	a6,a7,adf6 <__ledf2+0x46>
    ade0:	e329                	bnez	a4,ae22 <__ledf2+0x72>
    ade2:	00ae68b3          	or	a7,t3,a0
    ade6:	00081f63          	bnez	a6,ae04 <__ledf2+0x54>
    adea:	8e5d                	or	a2,a2,a5
    adec:	ee01                	bnez	a2,ae04 <__ledf2+0x54>
    adee:	4301                	li	t1,0
    adf0:	04088c63          	beqz	a7,ae48 <__ledf2+0x98>
    adf4:	a821                	j	ae0c <__ledf2+0x5c>
    adf6:	00c7e8b3          	or	a7,a5,a2
    adfa:	4309                	li	t1,2
    adfc:	04089663          	bnez	a7,ae48 <__ledf2+0x98>
    ae00:	d36d                	beqz	a4,ade2 <__ledf2+0x32>
    ae02:	a005                	j	ae22 <__ledf2+0x72>
    ae04:	04088463          	beqz	a7,ae4c <__ledf2+0x9c>
    ae08:	02d58563          	beq	a1,a3,ae32 <__ledf2+0x82>
    ae0c:	4305                	li	t1,1
    ae0e:	cd8d                	beqz	a1,ae48 <__ledf2+0x98>
    ae10:	537d                	li	t1,-1
    ae12:	a81d                	j	ae48 <__ledf2+0x98>
    ae14:	00ae68b3          	or	a7,t3,a0
    ae18:	4309                	li	t1,2
    ae1a:	02089763          	bnez	a7,ae48 <__ledf2+0x98>
    ae1e:	02e80a63          	beq	a6,a4,ae52 <__ledf2+0xa2>
    ae22:	00081463          	bnez	a6,ae2a <__ledf2+0x7a>
    ae26:	8e5d                	or	a2,a2,a5
    ae28:	d275                	beqz	a2,ae0c <__ledf2+0x5c>
    ae2a:	fed591e3          	bne	a1,a3,ae0c <__ledf2+0x5c>
    ae2e:	fce84fe3          	blt	a6,a4,ae0c <__ledf2+0x5c>
    ae32:	01074963          	blt	a4,a6,ae44 <__ledf2+0x94>
    ae36:	fdc7ebe3          	bltu	a5,t3,ae0c <__ledf2+0x5c>
    ae3a:	00fe0f63          	beq	t3,a5,ae58 <__ledf2+0xa8>
    ae3e:	4301                	li	t1,0
    ae40:	00fe7463          	bgeu	t3,a5,ae48 <__ledf2+0x98>
    ae44:	d5f1                	beqz	a1,ae10 <__ledf2+0x60>
    ae46:	4305                	li	t1,1
    ae48:	851a                	mv	a0,t1
    ae4a:	8082                	ret
    ae4c:	feed                	bnez	a3,ae46 <__ledf2+0x96>
    ae4e:	537d                	li	t1,-1
    ae50:	bfe5                	j	ae48 <__ledf2+0x98>
    ae52:	8e5d                	or	a2,a2,a5
    ae54:	da79                	beqz	a2,ae2a <__ledf2+0x7a>
    ae56:	bfcd                	j	ae48 <__ledf2+0x98>
    ae58:	fbdf6ae3          	bltu	t5,t4,ae0c <__ledf2+0x5c>
    ae5c:	4301                	li	t1,0
    ae5e:	ffeef5e3          	bgeu	t4,t5,ae48 <__ledf2+0x98>
    ae62:	f1f5                	bnez	a1,ae46 <__ledf2+0x96>
    ae64:	b775                	j	ae10 <__ledf2+0x60>

0000ae66 <__fixdfsi>:
    ae66:	0145d793          	srli	a5,a1,0x14
    ae6a:	001006b7          	lui	a3,0x100
    ae6e:	fff68713          	addi	a4,a3,-1 # fffff <_data_lma+0xf417b>
    ae72:	7ff7f793          	andi	a5,a5,2047
    ae76:	3fe00613          	li	a2,1022
    ae7a:	8f6d                	and	a4,a4,a1
    ae7c:	81fd                	srli	a1,a1,0x1f
    ae7e:	00f65c63          	bge	a2,a5,ae96 <__fixdfsi+0x30>
    ae82:	41d00613          	li	a2,1053
    ae86:	00f65a63          	bge	a2,a5,ae9a <__fixdfsi+0x34>
    ae8a:	80000537          	lui	a0,0x80000
    ae8e:	fff54513          	not	a0,a0
    ae92:	952e                	add	a0,a0,a1
    ae94:	8082                	ret
    ae96:	4501                	li	a0,0
    ae98:	8082                	ret
    ae9a:	43300613          	li	a2,1075
    ae9e:	8e1d                	sub	a2,a2,a5
    aea0:	487d                	li	a6,31
    aea2:	8f55                	or	a4,a4,a3
    aea4:	00c85d63          	bge	a6,a2,aebe <__fixdfsi+0x58>
    aea8:	41300693          	li	a3,1043
    aeac:	40f687b3          	sub	a5,a3,a5
    aeb0:	00f757b3          	srl	a5,a4,a5
    aeb4:	40f00533          	neg	a0,a5
    aeb8:	f1e5                	bnez	a1,ae98 <__fixdfsi+0x32>
    aeba:	853e                	mv	a0,a5
    aebc:	8082                	ret
    aebe:	bed78793          	addi	a5,a5,-1043 # ffbed <_data_lma+0xf3d69>
    aec2:	00f717b3          	sll	a5,a4,a5
    aec6:	00c55533          	srl	a0,a0,a2
    aeca:	8fc9                	or	a5,a5,a0
    aecc:	b7e5                	j	aeb4 <__fixdfsi+0x4e>

0000aece <__trunctfdf2>:
    aece:	00c52803          	lw	a6,12(a0) # 8000000c <_eusrstack+0x5fff800c>
    aed2:	4118                	lw	a4,0(a0)
    aed4:	4154                	lw	a3,4(a0)
    aed6:	450c                	lw	a1,8(a0)
    aed8:	6521                	lui	a0,0x8
    aeda:	fff50793          	addi	a5,a0,-1 # 7fff <__clzsi2+0x3f>
    aede:	01085613          	srli	a2,a6,0x10
    aee2:	00359e13          	slli	t3,a1,0x3
    aee6:	8e7d                	and	a2,a2,a5
    aee8:	01d75893          	srli	a7,a4,0x1d
    aeec:	01d6d793          	srli	a5,a3,0x1d
    aef0:	01081313          	slli	t1,a6,0x10
    aef4:	068e                	slli	a3,a3,0x3
    aef6:	1141                	addi	sp,sp,-16
    aef8:	01c7e7b3          	or	a5,a5,t3
    aefc:	0116e6b3          	or	a3,a3,a7
    af00:	01035313          	srli	t1,t1,0x10
    af04:	00371e13          	slli	t3,a4,0x3
    af08:	00160893          	addi	a7,a2,1
    af0c:	1579                	addi	a0,a0,-2
    af0e:	81f5                	srli	a1,a1,0x1d
    af10:	030e                	slli	t1,t1,0x3
    af12:	c43e                	sw	a5,8(sp)
    af14:	c236                	sw	a3,4(sp)
    af16:	c072                	sw	t3,0(sp)
    af18:	00a8f533          	and	a0,a7,a0
    af1c:	01f85813          	srli	a6,a6,0x1f
    af20:	0065e5b3          	or	a1,a1,t1
    af24:	c905                	beqz	a0,af54 <__trunctfdf2+0x86>
    af26:	7771                	lui	a4,0xffffc
    af28:	40070713          	addi	a4,a4,1024 # ffffc400 <_eusrstack+0xdfff4400>
    af2c:	963a                	add	a2,a2,a4
    af2e:	7fe00713          	li	a4,2046
    af32:	04c75d63          	bge	a4,a2,af8c <__trunctfdf2+0xbe>
    af36:	7ff00613          	li	a2,2047
    af3a:	4701                	li	a4,0
    af3c:	4781                	li	a5,0
    af3e:	0732                	slli	a4,a4,0xc
    af40:	0652                	slli	a2,a2,0x14
    af42:	8331                	srli	a4,a4,0xc
    af44:	087e                	slli	a6,a6,0x1f
    af46:	8f51                	or	a4,a4,a2
    af48:	01076733          	or	a4,a4,a6
    af4c:	853e                	mv	a0,a5
    af4e:	85ba                	mv	a1,a4
    af50:	0141                	addi	sp,sp,16
    af52:	8082                	ret
    af54:	8fd5                	or	a5,a5,a3
    af56:	8fcd                	or	a5,a5,a1
    af58:	01c7e7b3          	or	a5,a5,t3
    af5c:	e205                	bnez	a2,af7c <__trunctfdf2+0xae>
    af5e:	cbf1                	beqz	a5,b032 <__trunctfdf2+0x164>
    af60:	4781                	li	a5,0
    af62:	4695                	li	a3,5
    af64:	0036d593          	srli	a1,a3,0x3
    af68:	00979713          	slli	a4,a5,0x9
    af6c:	01d79693          	slli	a3,a5,0x1d
    af70:	00b6e7b3          	or	a5,a3,a1
    af74:	8331                	srli	a4,a4,0xc
    af76:	7ff67613          	andi	a2,a2,2047
    af7a:	b7d1                	j	af3e <__trunctfdf2+0x70>
    af7c:	dfcd                	beqz	a5,af36 <__trunctfdf2+0x68>
    af7e:	4801                	li	a6,0
    af80:	7ff00613          	li	a2,2047
    af84:	00080737          	lui	a4,0x80
    af88:	4781                	li	a5,0
    af8a:	bf55                	j	af3e <__trunctfdf2+0x70>
    af8c:	0ac04663          	bgtz	a2,b038 <__trunctfdf2+0x16a>
    af90:	fcc00793          	li	a5,-52
    af94:	0ef64f63          	blt	a2,a5,b092 <__trunctfdf2+0x1c4>
    af98:	03d00793          	li	a5,61
    af9c:	40c78633          	sub	a2,a5,a2
    afa0:	40565793          	srai	a5,a2,0x5
    afa4:	00080737          	lui	a4,0x80
    afa8:	8dd9                	or	a1,a1,a4
    afaa:	00279513          	slli	a0,a5,0x2
    afae:	870a                	mv	a4,sp
    afb0:	4681                	li	a3,0
    afb2:	c62e                	sw	a1,12(sp)
    afb4:	00a108b3          	add	a7,sp,a0
    afb8:	0711                	addi	a4,a4,4
    afba:	8a7d                	andi	a2,a2,31
    afbc:	01c6e6b3          	or	a3,a3,t3
    afc0:	01170963          	beq	a4,a7,afd2 <__trunctfdf2+0x104>
    afc4:	00072e03          	lw	t3,0(a4) # 80000 <_data_lma+0x7417c>
    afc8:	0711                	addi	a4,a4,4
    afca:	01c6e6b3          	or	a3,a3,t3
    afce:	ff171be3          	bne	a4,a7,afc4 <__trunctfdf2+0xf6>
    afd2:	470d                	li	a4,3
    afd4:	8f1d                	sub	a4,a4,a5
    afd6:	ca79                	beqz	a2,b0ac <__trunctfdf2+0x1de>
    afd8:	01010893          	addi	a7,sp,16
    afdc:	98aa                	add	a7,a7,a0
    afde:	ff08a883          	lw	a7,-16(a7) # fff0 <_data_lma+0x416c>
    afe2:	02000e13          	li	t3,32
    afe6:	40ce0e33          	sub	t3,t3,a2
    afea:	01c898b3          	sll	a7,a7,t3
    afee:	0116e6b3          	or	a3,a3,a7
    aff2:	cb75                	beqz	a4,b0e6 <__trunctfdf2+0x218>
    aff4:	070a                	slli	a4,a4,0x2
    aff6:	950a                	add	a0,a0,sp
    aff8:	00e10eb3          	add	t4,sp,a4
    affc:	888a                	mv	a7,sp
    affe:	410c                	lw	a1,0(a0)
    b000:	00452303          	lw	t1,4(a0)
    b004:	0891                	addi	a7,a7,4
    b006:	00c5d5b3          	srl	a1,a1,a2
    b00a:	01c31333          	sll	t1,t1,t3
    b00e:	0065e5b3          	or	a1,a1,t1
    b012:	feb8ae23          	sw	a1,-4(a7)
    b016:	0511                	addi	a0,a0,4
    b018:	ff1e93e3          	bne	t4,a7,affe <__trunctfdf2+0x130>
    b01c:	4591                	li	a1,4
    b01e:	40f587b3          	sub	a5,a1,a5
    b022:	45b2                	lw	a1,12(sp)
    b024:	0808                	addi	a0,sp,16
    b026:	972a                	add	a4,a4,a0
    b028:	00c5d5b3          	srl	a1,a1,a2
    b02c:	feb72823          	sw	a1,-16(a4)
    b030:	a861                	j	b0c8 <__trunctfdf2+0x1fa>
    b032:	4601                	li	a2,0
    b034:	4701                	li	a4,0
    b036:	b721                	j	af3e <__trunctfdf2+0x70>
    b038:	00469713          	slli	a4,a3,0x4
    b03c:	00479513          	slli	a0,a5,0x4
    b040:	01c76733          	or	a4,a4,t3
    b044:	82f1                	srli	a3,a3,0x1c
    b046:	83f1                	srli	a5,a5,0x1c
    b048:	0592                	slli	a1,a1,0x4
    b04a:	00e03733          	snez	a4,a4
    b04e:	8ec9                	or	a3,a3,a0
    b050:	8fcd                	or	a5,a5,a1
    b052:	8ed9                	or	a3,a3,a4
    b054:	0076f713          	andi	a4,a3,7
    b058:	c711                	beqz	a4,b064 <__trunctfdf2+0x196>
    b05a:	00f6f713          	andi	a4,a3,15
    b05e:	4591                	li	a1,4
    b060:	02b71c63          	bne	a4,a1,b098 <__trunctfdf2+0x1ca>
    b064:	00800737          	lui	a4,0x800
    b068:	8f7d                	and	a4,a4,a5
    b06a:	ee070de3          	beqz	a4,af64 <__trunctfdf2+0x96>
    b06e:	0605                	addi	a2,a2,1
    b070:	7ff00713          	li	a4,2047
    b074:	ece601e3          	beq	a2,a4,af36 <__trunctfdf2+0x68>
    b078:	ff800737          	lui	a4,0xff800
    b07c:	177d                	addi	a4,a4,-1
    b07e:	8f7d                	and	a4,a4,a5
    b080:	01d71793          	slli	a5,a4,0x1d
    b084:	828d                	srli	a3,a3,0x3
    b086:	0726                	slli	a4,a4,0x9
    b088:	7ff67613          	andi	a2,a2,2047
    b08c:	8fd5                	or	a5,a5,a3
    b08e:	8331                	srli	a4,a4,0xc
    b090:	b57d                	j	af3e <__trunctfdf2+0x70>
    b092:	4685                	li	a3,1
    b094:	4781                	li	a5,0
    b096:	4601                	li	a2,0
    b098:	ffc6b713          	sltiu	a4,a3,-4
    b09c:	00174713          	xori	a4,a4,1
    b0a0:	97ba                	add	a5,a5,a4
    b0a2:	00800737          	lui	a4,0x800
    b0a6:	0691                	addi	a3,a3,4
    b0a8:	8f7d                	and	a4,a4,a5
    b0aa:	b7c1                	j	b06a <__trunctfdf2+0x19c>
    b0ac:	858a                	mv	a1,sp
    b0ae:	00a588b3          	add	a7,a1,a0
    b0b2:	0008a883          	lw	a7,0(a7)
    b0b6:	0591                	addi	a1,a1,4
    b0b8:	0605                	addi	a2,a2,1
    b0ba:	ff15ae23          	sw	a7,-4(a1)
    b0be:	fec758e3          	bge	a4,a2,b0ae <__trunctfdf2+0x1e0>
    b0c2:	4711                	li	a4,4
    b0c4:	40f707b3          	sub	a5,a4,a5
    b0c8:	078a                	slli	a5,a5,0x2
    b0ca:	978a                	add	a5,a5,sp
    b0cc:	0818                	addi	a4,sp,16
    b0ce:	0007a023          	sw	zero,0(a5)
    b0d2:	0791                	addi	a5,a5,4
    b0d4:	fee79de3          	bne	a5,a4,b0ce <__trunctfdf2+0x200>
    b0d8:	4702                	lw	a4,0(sp)
    b0da:	00d036b3          	snez	a3,a3
    b0de:	4792                	lw	a5,4(sp)
    b0e0:	8ed9                	or	a3,a3,a4
    b0e2:	4601                	li	a2,0
    b0e4:	bf85                	j	b054 <__trunctfdf2+0x186>
    b0e6:	4785                	li	a5,1
    b0e8:	4701                	li	a4,0
    b0ea:	bf2d                	j	b024 <__trunctfdf2+0x156>

0000b0ec <_close>:
    b0ec:	05800793          	li	a5,88
    b0f0:	aaf1a623          	sw	a5,-1364(gp) # 2000049c <errno>
    b0f4:	557d                	li	a0,-1
    b0f6:	8082                	ret

0000b0f8 <_fstat>:
    b0f8:	05800793          	li	a5,88
    b0fc:	aaf1a623          	sw	a5,-1364(gp) # 2000049c <errno>
    b100:	557d                	li	a0,-1
    b102:	8082                	ret

0000b104 <_isatty>:
    b104:	05800793          	li	a5,88
    b108:	aaf1a623          	sw	a5,-1364(gp) # 2000049c <errno>
    b10c:	4501                	li	a0,0
    b10e:	8082                	ret

0000b110 <_lseek>:
    b110:	05800793          	li	a5,88
    b114:	aaf1a623          	sw	a5,-1364(gp) # 2000049c <errno>
    b118:	557d                	li	a0,-1
    b11a:	8082                	ret

0000b11c <_read>:
    b11c:	05800793          	li	a5,88
    b120:	aaf1a623          	sw	a5,-1364(gp) # 2000049c <errno>
    b124:	557d                	li	a0,-1
    b126:	8082                	ret
    b128:	048c                	addi	a1,sp,576
    b12a:	0000                	unimp
    b12c:	05fe                	slli	a1,a1,0x1f
    b12e:	0000                	unimp
    b130:	05b0                	addi	a2,sp,712
    b132:	0000                	unimp
    b134:	0568                	addi	a0,sp,652
    b136:	0000                	unimp
    b138:	05ca                	slli	a1,a1,0x12
    b13a:	0000                	unimp
    b13c:	05e4                	addi	s1,sp,716
    b13e:	0000                	unimp
    b140:	04e2                	slli	s1,s1,0x18
    b142:	0000                	unimp
    b144:	058e                	slli	a1,a1,0x3
    b146:	0000                	unimp
    b148:	3431                	jal	ab54 <_vfiprintf_r+0x258>
    b14a:	313a                	lhu	a4,34(a0)
    b14c:	3a36                	lhu	a3,50(a2)
    b14e:	3035                	jal	a97a <_vfiprintf_r+0x7e>
    b150:	0000                	unimp
    b152:	0000                	unimp
    b154:	2e2e                	lhu	a1,26(a2)
    b156:	6573552f          	0x6573552f
    b15a:	2f72                	lhu	a2,30(a4)
    b15c:	616d                	addi	sp,sp,240
    b15e:	6e69                	lui	t3,0x1a
    b160:	632e                	flw	ft6,200(sp)
    b162:	0000                	unimp
    b164:	253c                	lbu	a5,10(a0)
    b166:	64253a73          	csrrc	s4,0x642,a0
    b16a:	203e                	lhu	a5,2(s0)
    b16c:	7325                	lui	t1,0xfffe9
    b16e:	0a0d                	addi	s4,s4,3
    b170:	0000                	unimp
    b172:	0000                	unimp
    b174:	253c                	lbu	a5,10(a0)
    b176:	64253a73          	csrrc	s4,0x642,a0
    b17a:	203e                	lhu	a5,2(s0)
    b17c:	74737953          	0x74737953
    b180:	6d65                	lui	s10,0x19
    b182:	3a6b6c43          	fmadd.d	fs8,fs6,ft6,ft7,unknown
    b186:	6425                	lui	s0,0x9
    b188:	0a0d                	addi	s4,s4,3
    b18a:	0000                	unimp
    b18c:	253c                	lbu	a5,10(a0)
    b18e:	64253a73          	csrrc	s4,0x642,a0
    b192:	203e                	lhu	a5,2(s0)
    b194:	70696843          	fmadd.s	fa6,fs2,ft6,fa4,unknown
    b198:	4449                	li	s0,18
    b19a:	253a                	lhu	a4,10(a0)
    b19c:	3830                	lbu	a2,19(s0)
    b19e:	0d78                	addi	a4,sp,668
    b1a0:	000a                	c.slli	zero,0x2
    b1a2:	0000                	unimp
    b1a4:	5f59454b          	fnmsub.q	fa0,fs2,fs5,fa1,rmm
    b1a8:	3131                	jal	adb4 <__ledf2+0x4>
    b1aa:	6420                	flw	fs0,72(s0)
    b1ac:	7465                	lui	s0,0xffff9
    b1ae:	6365                	lui	t1,0x19
    b1b0:	6574                	flw	fa3,76(a0)
    b1b2:	2164                	lbu	s1,6(a0)
    b1b4:	bf20                	sb	s0,27(a4)
    b1b6:	caaa                	sw	a0,84(sp)
    b1b8:	b2bc                	sb	a5,3(a3)
    b1ba:	c1e2                	sw	s8,192(sp)
    b1bc:	00000dbf 3a73253c 	0x3a73253c00000dbf
    b1c4:	6425                	lui	s0,0x9
    b1c6:	203e                	lhu	a5,2(s0)
    b1c8:	50455453          	0x50455453
    b1cc:	4d5f 4145 5553      	0x555341454d5f
    b1d2:	4552                	lw	a0,20(sp)
    b1d4:	535f 4154 5452      	0x54524154535f
    b1da:	0a0d                	addi	s4,s4,3
    b1dc:	0000                	unimp
    b1de:	0000                	unimp
    b1e0:	253c                	lbu	a5,10(a0)
    b1e2:	64253a73          	csrrc	s4,0x642,a0
    b1e6:	203e                	lhu	a5,2(s0)
    b1e8:	50455453          	0x50455453
    b1ec:	435f 4548 4b43      	0x4b434548435f
    b1f2:	495f 5f53 4143      	0x41435f53495f
    b1f8:	0d50                	addi	a2,sp,660
    b1fa:	000a                	c.slli	zero,0x2
    b1fc:	253c                	lbu	a5,10(a0)
    b1fe:	64253a73          	csrrc	s4,0x642,a0
    b202:	203e                	lhu	a5,2(s0)
    b204:	50455453          	0x50455453
    b208:	4d5f 4145 5553      	0x555341454d5f
    b20e:	4552                	lw	a0,20(sp)
    b210:	435f 5041 0a0d      	0xa0d5041435f
    b216:	0000                	unimp
    b218:	253c                	lbu	a5,10(a0)
    b21a:	64253a73          	csrrc	s4,0x642,a0
    b21e:	203e                	lhu	a5,2(s0)
    b220:	50455453          	0x50455453
    b224:	435f 4548 4b43      	0x4b434548435f
    b22a:	495f 5f53 4552      	0x45525f53495f
    b230:	000a0d53          	fadd.s	fs10,fs4,ft0,rne
    b234:	253c                	lbu	a5,10(a0)
    b236:	64253a73          	csrrc	s4,0x642,a0
    b23a:	203e                	lhu	a5,2(s0)
    b23c:	50455453          	0x50455453
    b240:	4d5f 4145 5553      	0x555341454d5f
    b246:	4552                	lw	a0,20(sp)
    b248:	525f 5345 0a0d      	0xa0d5345525f
    b24e:	0000                	unimp
    b250:	253c                	lbu	a5,10(a0)
    b252:	64253a73          	csrrc	s4,0x642,a0
    b256:	203e                	lhu	a5,2(s0)
    b258:	50455453          	0x50455453
    b25c:	4d5f 4145 5553      	0x555341454d5f
    b262:	4552                	lw	a0,20(sp)
    b264:	445f 4f49 0a0d      	0xa0d4f49445f
    b26a:	0000                	unimp
    b26c:	253c                	lbu	a5,10(a0)
    b26e:	64253a73          	csrrc	s4,0x642,a0
    b272:	203e                	lhu	a5,2(s0)
    b274:	50455453          	0x50455453
    b278:	4d5f 4145 5553      	0x555341454d5f
    b27e:	4552                	lw	a0,20(sp)
    b280:	425f 544a 0a0d      	0xa0d544a425f
    b286:	0000                	unimp
    b288:	253c                	lbu	a5,10(a0)
    b28a:	64253a73          	csrrc	s4,0x642,a0
    b28e:	203e                	lhu	a5,2(s0)
    b290:	7245                	lui	tp,0xffff1
    b292:	6f72                	flw	ft10,28(sp)
    b294:	0d72                	slli	s10,s10,0x1c
    b296:	000a                	c.slli	zero,0x2
    b298:	253c                	lbu	a5,10(a0)
    b29a:	64253a73          	csrrc	s4,0x642,a0
    b29e:	203e                	lhu	a5,2(s0)
    b2a0:	50455453          	0x50455453
    b2a4:	4d5f 4145 5553      	0x555341454d5f
    b2aa:	4552                	lw	a0,20(sp)
    b2ac:	4f5f 4556 0d52      	0xd5245564f5f
    b2b2:	000a                	c.slli	zero,0x2
    b2b4:	6552                	flw	fa0,20(sp)
    b2b6:	74736973          	csrrsi	s2,0x747,6
    b2ba:	6e61                	lui	t3,0x18
    b2bc:	203a6563          	bltu	s4,gp,b4c6 <_read+0x3aa>
    b2c0:	7246                	flw	ft4,112(sp)
    b2c2:	3d746e6f          	jal	t3,51e98 <_data_lma+0x46014>
    b2c6:	6425                	lui	s0,0x9
    b2c8:	202c                	lbu	a1,2(s0)
    b2ca:	6552                	flw	fa0,20(sp)
    b2cc:	7261                	lui	tp,0xffff8
    b2ce:	253d                	jal	b8fc <PortGroup_3+0x25c>
    b2d0:	0d64                	addi	s1,sp,668
    b2d2:	000a                	c.slli	zero,0x2
    b2d4:	61706143          	fmadd.s	ft2,ft0,fs7,fa2,unknown
    b2d8:	61746963          	bltu	s0,s7,b8ea <PortGroup_3+0x24a>
    b2dc:	636e                	flw	ft6,216(sp)
    b2de:	3a65                	jal	ac96 <_close_r+0xc>
    b2e0:	4620                	lw	s0,72(a2)
    b2e2:	6f72                	flw	ft10,28(sp)
    b2e4:	746e                	flw	fs0,248(sp)
    b2e6:	253d                	jal	b914 <PortGroup_3+0x274>
    b2e8:	2c64                	lbu	s1,30(s0)
    b2ea:	5220                	lw	s0,96(a2)
    b2ec:	6165                	addi	sp,sp,112
    b2ee:	3d72                	lhu	a2,62(a0)
    b2f0:	6425                	lui	s0,0x9
    b2f2:	0a0d                	addi	s4,s4,3
    b2f4:	0000                	unimp
    b2f6:	0000                	unimp
    b2f8:	6944                	flw	fs1,20(a0)
    b2fa:	3a65646f          	jal	s0,616a0 <_data_lma+0x5581c>
    b2fe:	5020                	lw	s0,96(s0)
    b300:	7469736f          	jal	t1,a2a46 <_data_lma+0x96bc2>
    b304:	7669                	lui	a2,0xffffa
    b306:	3d65                	jal	b1be <_read+0xa2>
    b308:	6425                	lui	s0,0x9
    b30a:	202c                	lbu	a1,2(s0)
    b30c:	654e                	flw	fa0,208(sp)
    b30e:	69746167          	0x69746167
    b312:	6576                	flw	fa0,92(sp)
    b314:	253d                	jal	b942 <PortGroup_3+0x2a2>
    b316:	0d64                	addi	s1,sp,668
    b318:	000a                	c.slli	zero,0x2
    b31a:	0000                	unimp
    b31c:	4a42                	lw	s4,16(sp)
    b31e:	3a54                	lbu	a3,21(a2)
    b320:	5520                	lw	s0,104(a0)
    b322:	6562                	flw	fa0,24(sp)
    b324:	253d                	jal	b952 <PortGroup_3+0x2b2>
    b326:	0d64                	addi	s1,sp,668
    b328:	000a                	c.slli	zero,0x2
    b32a:	0000                	unimp
    b32c:	7245                	lui	tp,0xffff1
    b32e:	6f72                	flw	ft10,28(sp)
    b330:	3a72                	lhu	a2,54(a2)
    b332:	5520                	lw	s0,104(a0)
    b334:	736e                	flw	ft6,248(sp)
    b336:	7075                	c.lui	zero,0xffffd
    b338:	6f70                	flw	fa2,92(a4)
    b33a:	7472                	flw	fs0,60(sp)
    b33c:	6465                	lui	s0,0x19
    b33e:	6320                	flw	fs0,64(a4)
    b340:	6f706d6f          	jal	s10,12236 <_data_lma+0x63b2>
    b344:	656e                	flw	fa0,216(sp)
    b346:	746e                	flw	fs0,248(sp)
    b348:	7420                	flw	fs0,104(s0)
    b34a:	7079                	c.lui	zero,0xffffe
    b34c:	2065                	jal	b3f4 <_read+0x2d8>
    b34e:	6425                	lui	s0,0x9
    b350:	0a0d                	addi	s4,s4,3
	...
    b35a:	0000                	unimp
    b35c:	afc0                	sb	s0,28(a5)
    b35e:	411c                	lw	a5,0(a0)
    b360:	0000                	unimp
    b362:	0000                	unimp
    b364:	c800                	sw	s0,16(s0)
    b366:	40a9                	li	ra,10
    b368:	0000                	unimp
    b36a:	0000                	unimp
    b36c:	4000                	lw	s0,0(s0)
    b36e:	4085                	li	ra,1
    b370:	0000                	unimp
    b372:	0000                	unimp
    b374:	0000                	unimp
    b376:	3ff0                	lbu	a2,31(a5)
    b378:	4668                	lw	a0,76(a2)
    b37a:	2045                	jal	b41a <_read+0x2fe>
    b37c:	203d                	jal	b3aa <_read+0x28e>
    b37e:	6425                	lui	s0,0x9
    b380:	7c20                	flw	fs0,120(s0)
    b382:	5520                	lw	s0,104(a0)
    b384:	6562                	flw	fa0,24(sp)
    b386:	3d20                	lbu	s0,27(a0)
    b388:	2520                	lbu	s0,10(a0)
    b38a:	0a64                	addi	s1,sp,284
    b38c:	0000                	unimp
    b38e:	0000                	unimp
    b390:	3c31                	jal	adac <__ascii_wctomb+0x1a>
    b392:	3e2d                	jal	aecc <__fixdfsi+0x66>
    b394:	3a32                	lhu	a2,50(a2)
    b396:	6425                	lui	s0,0x9
    b398:	7c20                	flw	fs0,120(s0)
    b39a:	2520                	lbu	s0,10(a0)
    b39c:	0d64                	addi	s1,sp,668
    b39e:	000a                	c.slli	zero,0x2
    b3a0:	3c32                	lhu	a2,58(s0)
    b3a2:	3e2d                	jal	aedc <__trunctfdf2+0xe>
    b3a4:	64253a33          	0x64253a33
    b3a8:	7c20                	flw	fs0,120(s0)
    b3aa:	2520                	lbu	s0,10(a0)
    b3ac:	0d64                	addi	s1,sp,668
    b3ae:	000a                	c.slli	zero,0x2
    b3b0:	3c31                	jal	adcc <__ledf2+0x1c>
    b3b2:	3e2d                	jal	aeec <__trunctfdf2+0x1e>
    b3b4:	64253a33          	0x64253a33
    b3b8:	7c20                	flw	fs0,120(s0)
    b3ba:	2520                	lbu	s0,10(a0)
    b3bc:	0d64                	addi	s1,sp,668
    b3be:	000a                	c.slli	zero,0x2
    b3c0:	3734                	lbu	a3,11(a4)
    b3c2:	4b30                	lw	a2,80(a4)
    b3c4:	7c20                	flw	fs0,120(s0)
    b3c6:	4320                	lw	s0,64(a4)
    b3c8:	7061                	c.lui	zero,0xffff8
    b3ca:	6156                	flw	ft2,84(sp)
    b3cc:	206c                	lbu	a1,6(s0)
    b3ce:	203d                	jal	b3fc <_read+0x2e0>
    b3d0:	6c25                	lui	s8,0x9
    b3d2:	0d66                	slli	s10,s10,0x19
    b3d4:	000a                	c.slli	zero,0x2
    b3d6:	0000                	unimp
    b3d8:	6f55                	lui	t5,0x15
    b3da:	206e                	lhu	a1,6(s0)
    b3dc:	203d                	jal	b40a <_read+0x2ee>
    b3de:	6425                	lui	s0,0x9
    b3e0:	0a0d                	addi	s4,s4,3
    b3e2:	0000                	unimp
    b3e4:	3734                	lbu	a3,11(a4)
    b3e6:	4b30                	lw	a2,80(a4)
    b3e8:	7c20                	flw	fs0,120(s0)
    b3ea:	4320                	lw	s0,64(a4)
    b3ec:	206a                	lhu	a0,6(s0)
    b3ee:	203d                	jal	b41c <_read+0x300>
    b3f0:	6c25                	lui	s8,0x9
    b3f2:	0d66                	slli	s10,s10,0x19
    b3f4:	000a                	c.slli	zero,0x2
    b3f6:	0000                	unimp
    b3f8:	6566                	flw	fa0,88(sp)
    b3fa:	3161                	jal	b082 <__trunctfdf2+0x1b4>
    b3fc:	502e                	0x502e
    b3fe:	7461                	lui	s0,0xffff8
    b400:	5f68                	lw	a0,124(a4)
    b402:	7431                	lui	s0,0xfffec
    b404:	203a326f          	jal	tp,aee06 <_data_lma+0xa2f82>
    b408:	6425                	lui	s0,0x9
    b40a:	0a0d                	addi	s4,s4,3
    b40c:	0000                	unimp
    b40e:	0000                	unimp
    b410:	6566                	flw	fa0,88(sp)
    b412:	3161                	jal	b09a <__trunctfdf2+0x1cc>
    b414:	502e                	0x502e
    b416:	7461                	lui	s0,0xffff8
    b418:	5f68                	lw	a0,124(a4)
    b41a:	7432                	flw	fs0,44(sp)
    b41c:	203a316f          	jal	sp,aee1e <_data_lma+0xa2f9a>
    b420:	6425                	lui	s0,0x9
    b422:	0a0d                	addi	s4,s4,3
    b424:	0000                	unimp
    b426:	0000                	unimp
    b428:	6566                	flw	fa0,88(sp)
    b42a:	3161                	jal	b0b2 <__trunctfdf2+0x1e4>
    b42c:	502e                	0x502e
    b42e:	7461                	lui	s0,0xffff8
    b430:	5f68                	lw	a0,124(a4)
    b432:	7432                	flw	fs0,44(sp)
    b434:	3d20336f          	jal	t1,e806 <_data_lma+0x2982>
    b438:	2520                	lbu	s0,10(a0)
    b43a:	0d64                	addi	s1,sp,668
    b43c:	000a                	c.slli	zero,0x2
    b43e:	0000                	unimp
    b440:	6566                	flw	fa0,88(sp)
    b442:	3161                	jal	b0ca <__trunctfdf2+0x1fc>
    b444:	502e                	0x502e
    b446:	7461                	lui	s0,0xffff8
    b448:	5f68                	lw	a0,124(a4)
    b44a:	326f7433          	0x326f7433
    b44e:	3d20                	lbu	s0,27(a0)
    b450:	2520                	lbu	s0,10(a0)
    b452:	0d64                	addi	s1,sp,668
    b454:	000a                	c.slli	zero,0x2
    b456:	0000                	unimp
    b458:	6566                	flw	fa0,88(sp)
    b45a:	3161                	jal	b0e2 <__trunctfdf2+0x214>
    b45c:	502e                	0x502e
    b45e:	7461                	lui	s0,0xffff8
    b460:	5f68                	lw	a0,124(a4)
    b462:	7431                	lui	s0,0xfffec
    b464:	203a336f          	jal	t1,aee66 <_data_lma+0xa2fe2>
    b468:	6425                	lui	s0,0x9
    b46a:	0a0d                	addi	s4,s4,3
    b46c:	0000                	unimp
    b46e:	0000                	unimp
    b470:	6566                	flw	fa0,88(sp)
    b472:	3161                	jal	b0fa <_fstat+0x2>
    b474:	502e                	0x502e
    b476:	7461                	lui	s0,0xffff8
    b478:	5f68                	lw	a0,124(a4)
    b47a:	316f7433          	0x316f7433
    b47e:	203a                	lhu	a4,2(s0)
    b480:	6425                	lui	s0,0x9
    b482:	0a0d                	addi	s4,s4,3
    b484:	0000                	unimp
    b486:	0000                	unimp
    b488:	6566                	flw	fa0,88(sp)
    b48a:	3261                	jal	ae12 <__ledf2+0x62>
    b48c:	502e                	0x502e
    b48e:	7461                	lui	s0,0xffff8
    b490:	5f68                	lw	a0,124(a4)
    b492:	7431                	lui	s0,0xfffec
    b494:	203a326f          	jal	tp,aee96 <_data_lma+0xa3012>
    b498:	6425                	lui	s0,0x9
    b49a:	0a0d                	addi	s4,s4,3
    b49c:	0000                	unimp
    b49e:	0000                	unimp
    b4a0:	6566                	flw	fa0,88(sp)
    b4a2:	3261                	jal	ae2a <__ledf2+0x7a>
    b4a4:	502e                	0x502e
    b4a6:	7461                	lui	s0,0xffff8
    b4a8:	5f68                	lw	a0,124(a4)
    b4aa:	7432                	flw	fs0,44(sp)
    b4ac:	203a316f          	jal	sp,aeeae <_data_lma+0xa302a>
    b4b0:	6425                	lui	s0,0x9
    b4b2:	0a0d                	addi	s4,s4,3
    b4b4:	0000                	unimp
    b4b6:	0000                	unimp
    b4b8:	6566                	flw	fa0,88(sp)
    b4ba:	3261                	jal	ae42 <__ledf2+0x92>
    b4bc:	502e                	0x502e
    b4be:	7461                	lui	s0,0xffff8
    b4c0:	5f68                	lw	a0,124(a4)
    b4c2:	7432                	flw	fs0,44(sp)
    b4c4:	3d20336f          	jal	t1,e896 <_data_lma+0x2a12>
    b4c8:	2520                	lbu	s0,10(a0)
    b4ca:	0d64                	addi	s1,sp,668
    b4cc:	000a                	c.slli	zero,0x2
    b4ce:	0000                	unimp
    b4d0:	6566                	flw	fa0,88(sp)
    b4d2:	3261                	jal	ae5a <__ledf2+0xaa>
    b4d4:	502e                	0x502e
    b4d6:	7461                	lui	s0,0xffff8
    b4d8:	5f68                	lw	a0,124(a4)
    b4da:	326f7433          	0x326f7433
    b4de:	3d20                	lbu	s0,27(a0)
    b4e0:	2520                	lbu	s0,10(a0)
    b4e2:	0d64                	addi	s1,sp,668
    b4e4:	000a                	c.slli	zero,0x2
    b4e6:	0000                	unimp
    b4e8:	6566                	flw	fa0,88(sp)
    b4ea:	3261                	jal	ae72 <__fixdfsi+0xc>
    b4ec:	502e                	0x502e
    b4ee:	7461                	lui	s0,0xffff8
    b4f0:	5f68                	lw	a0,124(a4)
    b4f2:	7431                	lui	s0,0xfffec
    b4f4:	203a336f          	jal	t1,aeef6 <_data_lma+0xa3072>
    b4f8:	6425                	lui	s0,0x9
    b4fa:	0a0d                	addi	s4,s4,3
    b4fc:	0000                	unimp
    b4fe:	0000                	unimp
    b500:	6566                	flw	fa0,88(sp)
    b502:	3261                	jal	ae8a <__fixdfsi+0x24>
    b504:	502e                	0x502e
    b506:	7461                	lui	s0,0xffff8
    b508:	5f68                	lw	a0,124(a4)
    b50a:	316f7433          	0x316f7433
    b50e:	203a                	lhu	a4,2(s0)
    b510:	6425                	lui	s0,0x9
    b512:	0a0d                	addi	s4,s4,3
    b514:	0000                	unimp
    b516:	0000                	unimp
    b518:	6566                	flw	fa0,88(sp)
    b51a:	7461                	lui	s0,0xffff8
    b51c:	7275                	lui	tp,0xffffd
    b51e:	3165                	jal	b1c6 <_read+0xaa>
    b520:	203a                	lhu	a4,2(s0)
    b522:	6425                	lui	s0,0x9
    b524:	6425                	lui	s0,0x9
    b526:	6425                	lui	s0,0x9
    b528:	0a0d                	addi	s4,s4,3
    b52a:	0000                	unimp
    b52c:	706d6f43          	fmadd.s	ft10,fs10,ft6,fa4,unknown
    b530:	6e656e6f          	jal	t3,61c16 <_data_lma+0x55d92>
    b534:	4674                	lw	a3,76(a2)
    b536:	6165                	addi	sp,sp,112
    b538:	7574                	flw	fa3,108(a0)
    b53a:	6572                	flw	fa0,28(sp)
    b53c:	502e                	0x502e
    b53e:	7461                	lui	s0,0xffff8
    b540:	5f68                	lw	a0,124(a4)
    b542:	7431                	lui	s0,0xfffec
    b544:	253a326f          	jal	tp,aef96 <_data_lma+0xa3112>
    b548:	2064                	lbu	s1,6(s0)
    b54a:	207c                	lbu	a5,6(s0)
    b54c:	706d6f43          	fmadd.s	ft10,fs10,ft6,fa4,unknown
    b550:	6e656e6f          	jal	t3,61c36 <_data_lma+0x55db2>
    b554:	4674                	lw	a3,76(a2)
    b556:	6165                	addi	sp,sp,112
    b558:	7574                	flw	fa3,108(a0)
    b55a:	6572                	flw	fa0,28(sp)
    b55c:	502e                	0x502e
    b55e:	7461                	lui	s0,0xffff8
    b560:	5f68                	lw	a0,124(a4)
    b562:	7432                	flw	fs0,44(sp)
    b564:	253a316f          	jal	sp,aefb6 <_data_lma+0xa3132>
    b568:	0d64                	addi	s1,sp,668
    b56a:	000a                	c.slli	zero,0x2
    b56c:	706d6f43          	fmadd.s	ft10,fs10,ft6,fa4,unknown
    b570:	6e656e6f          	jal	t3,61c56 <_data_lma+0x55dd2>
    b574:	4674                	lw	a3,76(a2)
    b576:	6165                	addi	sp,sp,112
    b578:	7574                	flw	fa3,108(a0)
    b57a:	6572                	flw	fa0,28(sp)
    b57c:	502e                	0x502e
    b57e:	7461                	lui	s0,0xffff8
    b580:	5f68                	lw	a0,124(a4)
    b582:	7432                	flw	fs0,44(sp)
    b584:	253a336f          	jal	t1,aefd6 <_data_lma+0xa3152>
    b588:	2064                	lbu	s1,6(s0)
    b58a:	207c                	lbu	a5,6(s0)
    b58c:	706d6f43          	fmadd.s	ft10,fs10,ft6,fa4,unknown
    b590:	6e656e6f          	jal	t3,61c76 <_data_lma+0x55df2>
    b594:	4674                	lw	a3,76(a2)
    b596:	6165                	addi	sp,sp,112
    b598:	7574                	flw	fa3,108(a0)
    b59a:	6572                	flw	fa0,28(sp)
    b59c:	502e                	0x502e
    b59e:	7461                	lui	s0,0xffff8
    b5a0:	5f68                	lw	a0,124(a4)
    b5a2:	326f7433          	0x326f7433
    b5a6:	253a                	lhu	a4,10(a0)
    b5a8:	0d64                	addi	s1,sp,668
    b5aa:	000a                	c.slli	zero,0x2
    b5ac:	706d6f43          	fmadd.s	ft10,fs10,ft6,fa4,unknown
    b5b0:	6e656e6f          	jal	t3,61c96 <_data_lma+0x55e12>
    b5b4:	4674                	lw	a3,76(a2)
    b5b6:	6165                	addi	sp,sp,112
    b5b8:	7574                	flw	fa3,108(a0)
    b5ba:	6572                	flw	fa0,28(sp)
    b5bc:	502e                	0x502e
    b5be:	7461                	lui	s0,0xffff8
    b5c0:	5f68                	lw	a0,124(a4)
    b5c2:	7431                	lui	s0,0xfffec
    b5c4:	253a336f          	jal	t1,af016 <_data_lma+0xa3192>
    b5c8:	2064                	lbu	s1,6(s0)
    b5ca:	207c                	lbu	a5,6(s0)
    b5cc:	706d6f43          	fmadd.s	ft10,fs10,ft6,fa4,unknown
    b5d0:	6e656e6f          	jal	t3,61cb6 <_data_lma+0x55e32>
    b5d4:	4674                	lw	a3,76(a2)
    b5d6:	6165                	addi	sp,sp,112
    b5d8:	7574                	flw	fa3,108(a0)
    b5da:	6572                	flw	fa0,28(sp)
    b5dc:	502e                	0x502e
    b5de:	7461                	lui	s0,0xffff8
    b5e0:	5f68                	lw	a0,124(a4)
    b5e2:	316f7433          	0x316f7433
    b5e6:	253a                	lhu	a4,10(a0)
    b5e8:	0d64                	addi	s1,sp,668
    b5ea:	000a                	c.slli	zero,0x2
    b5ec:	706d6f43          	fmadd.s	ft10,fs10,ft6,fa4,unknown
    b5f0:	6e656e6f          	jal	t3,61cd6 <_data_lma+0x55e52>
    b5f4:	4674                	lw	a3,76(a2)
    b5f6:	6165                	addi	sp,sp,112
    b5f8:	7574                	flw	fa3,108(a0)
    b5fa:	6572                	flw	fa0,28(sp)
    b5fc:	203a                	lhu	a4,2(s0)
    b5fe:	6425                	lui	s0,0x9
    b600:	6425                	lui	s0,0x9
    b602:	6425                	lui	s0,0x9
    b604:	0a0d                	addi	s4,s4,3
	...

0000b608 <PortGroup_1>:
    b608:	0800 4001 0001 0000 51ec 4154 1759 bf27     ...@.....QTAY.'.
    b618:	1aa0 413b 594b 3c86 1400 4001 0008 0000     ..;AKY.<...@....
    b628:	20c5 41c6 3eab bfb7 28f6 41ac 5b57 bd31     . .A.>...(.AW[1.
    b638:	1800 4001 8000 0000 20c5 41c6 3eab bfb7     ...@..... .A.>..
    b648:	28f6 41ac 5b57 bd31 0100 0000               .(.AW[1.....

0000b654 <PortGroup_2>:
    b654:	0c00 4001 0001 0000 51ec 4154 1759 bf27     ...@.....QTAY.'.
    b664:	1aa0 413b 594b 3c86 1800 4001 4000 0000     ..;AKY.<...@.@..
    b674:	20c5 41c6 3eab bfb7 28f6 41ac 5b57 bd31     . .A.>...(.AW[1.
    b684:	1800 4001 2000 0000 20c5 41c6 3eab bfb7     ...@. ... .A.>..
    b694:	28f6 41ac 5b57 bd31 0208 0000               .(.AW[1.....

0000b6a0 <PortGroup_3>:
    b6a0:	0c00 4001 0002 0000 51ec 4154 1759 bf27     ...@.....QTAY.'.
    b6b0:	1aa0 413b 594b 3c86 1400 4001 0100 0000     ..;AKY.<...@....
    b6c0:	20c5 41c6 3eab bfb7 28f6 41ac 5b57 bd31     . .A.>...(.AW[1.
    b6d0:	1400 4001 0200 0000 20c5 41c6 3eab bfb7     ...@..... .A.>..
    b6e0:	28f6 41ac 5b57 bd31 0309 0000 0000 0000     .(.AW[1.........
    b6f0:	0000 0000 0000 3fd0 0000 0000 0000 3fe0     .......?.......?
    b700:	3c31 3e2d 2033 6461 5f63 6176 316c 253a     1<->3 adc_val1:%
    b710:	2064 207c 6f76 5f6c 6176 316c 253a 0d64     d | vol_val1:%d.
    b720:	000a 0000 3c31 3e2d 2033 6461 5f63 6176     ....1<->3 adc_va
    b730:	326c 253a 2064 207c 6f76 5f6c 6176 326c     l2:%d | vol_val2
    b740:	253a 0d64 000a 0000 3c31 3e2d 2033 6461     :%d.....1<->3 ad
    b750:	5f63 6176 336c 253a 2064 207c 6f76 5f6c     c_val3:%d | vol_
    b760:	6176 336c 253a 0d64 000a 0000 3c31 3e2d     val3:%d.....1<->
    b770:	2033 6461 5f63 6176 346c 253a 2064 207c     3 adc_val4:%d | 
    b780:	6f76 5f6c 6176 346c 253a 0d64 000a 0000     vol_val4:%d.....
    b790:	3c31 3e2d 2032 6461 5f63 6176 316c 253a     1<->2 adc_val1:%
    b7a0:	2064 207c 6f76 5f6c 6176 316c 253a 0d64     d | vol_val1:%d.
    b7b0:	000a 0000 3c31 3e2d 2032 6461 5f63 6176     ....1<->2 adc_va
    b7c0:	326c 253a 2064 207c 6f76 5f6c 6176 326c     l2:%d | vol_val2
    b7d0:	253a 0d64 000a 0000 3c31 3e2d 2032 6461     :%d.....1<->2 ad
    b7e0:	5f63 6176 336c 253a 2064 207c 6f76 5f6c     c_val3:%d | vol_
    b7f0:	6176 336c 253a 0d64 000a 0000 3c31 3e2d     val3:%d.....1<->
    b800:	2032 6461 5f63 6176 346c 253a 2064 207c     2 adc_val4:%d | 
    b810:	6f76 5f6c 6176 346c 253a 0d64 000a 0000     vol_val4:%d.....
    b820:	3c32 3e2d 2033 6461 5f63 6176 316c 253a     2<->3 adc_val1:%
    b830:	2064 207c 6f76 5f6c 6176 316c 253a 0d64     d | vol_val1:%d.
    b840:	000a 0000 3c32 3e2d 2033 6461 5f63 6176     ....2<->3 adc_va
    b850:	326c 253a 2064 207c 6f76 5f6c 6176 326c     l2:%d | vol_val2
    b860:	253a 0d64 000a 0000 3c32 3e2d 2033 6461     :%d.....2<->3 ad
    b870:	5f63 6176 336c 253a 2064 207c 6f76 5f6c     c_val3:%d | vol_
    b880:	6176 336c 253a 0d64 000a 0000 3c32 3e2d     val3:%d.....2<->
    b890:	2033 6461 5f63 6176 346c 253a 2064 207c     3 adc_val4:%d | 
    b8a0:	6f76 5f6c 6176 346c 253a 0d64 000a 0000     vol_val4:%d.....
    b8b0:	365b 3038 342b 3037 5d4b 7220 7365 765f     [680+470K] res_v
    b8c0:	6c61 3a31 6c25 2066 207c 6572 5f73 6176     al1:%lf | res_va
    b8d0:	326c 253a 666c 7c20 7220 7365 765f 6c61     l2:%lf | res_val
    b8e0:	3a33 6c25 2066 207c 6572 5f73 6176 346c     3:%lf | res_val4
    b8f0:	253a 666c 0a0d 0000 6552 5673 6c61 3d20     :%lf....ResVal =
    b900:	2520 666c 0a0d 0000 345b 3037 5d4b 7220      %lf....[470K] r
    b910:	7365 765f 6c61 3a33 6c25 2066 207c 6572     es_val3:%lf | re
    b920:	5f73 6176 346c 253a 666c 0a0d 0000 0000     s_val4:%lf......
    b930:	365b 3038 205d 6572 5f73 6176 316c 253a     [680] res_val1:%
    b940:	666c 7c20 7220 7365 765f 6c61 3a32 6c25     lf | res_val2:%l
    b950:	0d66 000a 454b 5f59 3131 7020 6572 7373     f...KEY_11 press
    b960:	6465 0d21 0000 0000 0000 0000 0000 fff0     ed!.............
    b970:	0000 e000 ffff c7ef 6f6c 0067 0000 0000     ........log.....
    b980:	0000 0000 0000 c350 0000 0000 0000 4350     ......P.......PC
    b990:	0000 fee0 2e42 3fe6 3c76 3579 39ef 3dea     ....B..?v<y5.9.=
    b9a0:	5555 5555 5555 3fd5 0000 0000 0000 4000     UUUUUU.?.......@
    b9b0:	5244 df3e f112 3fc2 03de 96cb 4664 3fc7     DR>....?....dF.?
    b9c0:	9359 9422 4924 3fd2 5593 5555 5555 3fe5     Y.".$I.?.UUUUU.?
    b9d0:	c69f d078 9a09 3fc3 78af 1d8e 71c5 3fcc     ..x....?.x...q.?
    b9e0:	fa04 9997 9999 3fd9 0000 0000 0000 7ff8     .......?........
    b9f0:	aee0 ffff ad64 ffff ae74 ffff ae7c ffff     ....d...t...|...
    ba00:	ae74 ffff ad94 ffff ae74 ffff ae7c ffff     t.......t...|...
    ba10:	ad64 ffff ad64 ffff ad94 ffff ae7c ffff     d...d.......|...
    ba20:	aed6 ffff aed6 ffff aed6 ffff ad94 ffff     ................
    ba30:	b53a ffff b42c ffff b42c ffff b42a ffff     :...,...,...*...
    ba40:	b432 ffff b432 ffff b3f8 ffff b42a ffff     2...2.......*...
    ba50:	b432 ffff b3f8 ffff b432 ffff b42a ffff     2.......2...*...
    ba60:	b526 ffff b526 ffff b526 ffff b3f8 ffff     &...&...&.......

0000ba70 <__clz_tab>:
    ba70:	0100 0202 0303 0303 0404 0404 0404 0404     ................
    ba80:	0505 0505 0505 0505 0505 0505 0505 0505     ................
    ba90:	0606 0606 0606 0606 0606 0606 0606 0606     ................
    baa0:	0606 0606 0606 0606 0606 0606 0606 0606     ................
    bab0:	0707 0707 0707 0707 0707 0707 0707 0707     ................
    bac0:	0707 0707 0707 0707 0707 0707 0707 0707     ................
    bad0:	0707 0707 0707 0707 0707 0707 0707 0707     ................
    bae0:	0707 0707 0707 0707 0707 0707 0707 0707     ................
    baf0:	0808 0808 0808 0808 0808 0808 0808 0808     ................
    bb00:	0808 0808 0808 0808 0808 0808 0808 0808     ................
    bb10:	0808 0808 0808 0808 0808 0808 0808 0808     ................
    bb20:	0808 0808 0808 0808 0808 0808 0808 0808     ................
    bb30:	0808 0808 0808 0808 0808 0808 0808 0808     ................
    bb40:	0808 0808 0808 0808 0808 0808 0808 0808     ................
    bb50:	0808 0808 0808 0808 0808 0808 0808 0808     ................
    bb60:	0808 0808 0808 0808 0808 0808 0808 0808     ................
    bb70:	ffff ffff ffff 7fef 4e49 0046 6e69 0066     ........INF.inf.
    bb80:	414e 004e 616e 006e 0030 0000 3130 3332     NAN.nan.0...0123
    bb90:	3534 3736 3938 4241 4443 4645 0000 0000     456789ABCDEF....
    bba0:	3130 3332 3534 3736 3938 6261 6463 6665     0123456789abcdef
	...
    bbbc:	0000 3ff8 4361 636f 87a7 3fd2 c8b3 8b60     ...?aCoc...?..`.
    bbcc:	8a28 3fc6 79fb 509f 4413 3fd3 0000 0000     (..?.y.P.D.?....
    bbdc:	0000 4024 0000 0000 0000 401c 0000 0000     ..$@.......@....
    bbec:	0000 4014 6e49 6966 696e 7974 0000 0000     ...@Infinity....
    bbfc:	614e 004e                                   NaN.

0000bc00 <__sf_fake_stderr>:
	...

0000bc20 <__sf_fake_stdin>:
	...

0000bc40 <__sf_fake_stdout>:
	...

0000bc60 <__mprec_bigtens>:
    bc60:	8000 37e0 c379 4341 6e17 b505 b8b5 4693     ...7y.AC.n.....F
    bc70:	f9f5 e93f 4f03 4d38 1d32 f930 7748 5a82     ..?..O8M2.0.Hw.Z
    bc80:	bf3c 7f73 4fdd 7515                         <.s..O.u

0000bc88 <__mprec_tens>:
    bc88:	0000 0000 0000 3ff0 0000 0000 0000 4024     .......?......$@
    bc98:	0000 0000 0000 4059 0000 0000 4000 408f     ......Y@.....@.@
    bca8:	0000 0000 8800 40c3 0000 0000 6a00 40f8     .......@.....j.@
    bcb8:	0000 0000 8480 412e 0000 0000 12d0 4163     .......A......cA
    bcc8:	0000 0000 d784 4197 0000 0000 cd65 41cd     .......A....e..A
    bcd8:	0000 2000 a05f 4202 0000 e800 4876 4237     ... _..B....vH7B
    bce8:	0000 a200 1a94 426d 0000 e540 309c 42a2     ......mB..@..0.B
    bcf8:	0000 1e90 bcc4 42d6 0000 2634 6bf5 430c     .......B..4&.k.C
    bd08:	8000 37e0 c379 4341 a000 85d8 3457 4376     ...7y.AC....W4vC
    bd18:	c800 674e c16d 43ab 3d00 6091 58e4 43e1     ..Ngm..C.=.`.X.C
    bd28:	8c40 78b5 af1d 4415 ef50 d6e2 1ae4 444b     @..x...DP.....KD
    bd38:	d592 064d f0cf 4480 4af6 c7e1 2d02 44b5     ..M....D.J...-.D
    bd48:	9db4 79d9 7843 44ea                         ...yCx.D

0000bd50 <p05.3319>:
    bd50:	0005 0000 0019 0000 007d 0000 2d23 2b30     ........}...#-0+
    bd60:	0020 0000 6c68 004c 6665 4567 4746 0000      ...hlL.efgEFG..
    bd70:	0043 0000 4f50 4953 0058 0000 002e 0000     C...POSIX.......

0000bd80 <_ctype_>:
    bd80:	2000 2020 2020 2020 2020 2828 2828 2028     .         ((((( 
    bd90:	2020 2020 2020 2020 2020 2020 2020 2020                     
    bda0:	8820 1010 1010 1010 1010 1010 1010 1010      ...............
    bdb0:	0410 0404 0404 0404 0404 1004 1010 1010     ................
    bdc0:	1010 4141 4141 4141 0101 0101 0101 0101     ..AAAAAA........
    bdd0:	0101 0101 0101 0101 0101 0101 1010 1010     ................
    bde0:	1010 4242 4242 4242 0202 0202 0202 0202     ..BBBBBB........
    bdf0:	0202 0202 0202 0202 0202 0202 1010 1010     ................
    be00:	0020 0000 0000 0000 0000 0000 0000 0000      ...............
	...
