
WCH-CH32V307VCT6-WM8978.elf:     file format elf32-littleriscv
WCH-CH32V307VCT6-WM8978.elf
architecture: riscv:rv32, flags 0x00000112:
EXEC_P, HAS_SYMS, D_PAGED
start address 0x00000000

Program Header:
    LOAD off    0x00001000 vaddr 0x00000000 paddr 0x00000000 align 2**12
         filesz 0x00015930 memsz 0x00015930 flags r-x
    LOAD off    0x00017000 vaddr 0x20000000 paddr 0x00015930 align 2**12
         filesz 0x00000110 memsz 0x00000870 flags rw-
    LOAD off    0x00017800 vaddr 0x20007800 paddr 0x20007800 align 2**12
         filesz 0x00000000 memsz 0x00000800 flags rw-

Sections:
Idx Name          Size      VMA       LMA       File off  Algn
  0 .init         00000004  00000000  00000000  00001000  2**1
                  CONTENTS, ALLOC, LOAD, READONLY, CODE
  1 .vector       000001bc  00000004  00000004  00001004  2**1
                  CONTENTS, ALLOC, LOAD, READONLY, CODE
  2 .text         00015770  000001c0  000001c0  000011c0  2**2
                  CONTENTS, ALLOC, LOAD, READONLY, CODE
  3 .fini         00000000  00015930  00015930  00017110  2**0
                  CONTENTS, ALLOC, LOAD, CODE
  4 .dalign       00000000  20000000  20000000  00017110  2**0
                  CONTENTS
  5 .dlalign      00000000  00015930  00015930  00017110  2**0
                  CONTENTS
  6 .data         00000110  20000000  00015930  00017000  2**2
                  CONTENTS, ALLOC, LOAD, DATA
  7 .bss          00000760  20000110  00015a40  00017110  2**3
                  ALLOC
  8 .stack        00000800  20007800  20007800  00017800  2**0
                  ALLOC
  9 .debug_info   0001ba1e  00000000  00000000  00017110  2**0
                  CONTENTS, READONLY, DEBUGGING
 10 .debug_abbrev 000040f3  00000000  00000000  00032b2e  2**0
                  CONTENTS, READONLY, DEBUGGING
 11 .debug_aranges 00000bb8  00000000  00000000  00036c28  2**3
                  CONTENTS, READONLY, DEBUGGING
 12 .debug_ranges 000010e8  00000000  00000000  000377e0  2**3
                  CONTENTS, READONLY, DEBUGGING
 13 .debug_line   00019eb5  00000000  00000000  000388c8  2**0
                  CONTENTS, READONLY, DEBUGGING
 14 .debug_str    00004002  00000000  00000000  0005277d  2**0
                  CONTENTS, READONLY, DEBUGGING
 15 .comment      00000033  00000000  00000000  0005677f  2**0
                  CONTENTS, READONLY
 16 .debug_frame  000028fc  00000000  00000000  000567b4  2**2
                  CONTENTS, READONLY, DEBUGGING
 17 .debug_loc    0000a807  00000000  00000000  000590b0  2**0
                  CONTENTS, READONLY, DEBUGGING
 18 .stab         00000084  00000000  00000000  000638b8  2**2
                  CONTENTS, READONLY, DEBUGGING
 19 .stabstr      00000117  00000000  00000000  0006393c  2**0
                  CONTENTS, READONLY, DEBUGGING
SYMBOL TABLE:
00000000 l    d  .init	00000000 .init
00000004 l    d  .vector	00000000 .vector
000001c0 l    d  .text	00000000 .text
00015930 l    d  .fini	00000000 .fini
20000000 l    d  .dalign	00000000 .dalign
00015930 l    d  .dlalign	00000000 .dlalign
20000000 l    d  .data	00000000 .data
20000110 l    d  .bss	00000000 .bss
20007800 l    d  .stack	00000000 .stack
00000000 l    d  .debug_info	00000000 .debug_info
00000000 l    d  .debug_abbrev	00000000 .debug_abbrev
00000000 l    d  .debug_aranges	00000000 .debug_aranges
00000000 l    d  .debug_ranges	00000000 .debug_ranges
00000000 l    d  .debug_line	00000000 .debug_line
00000000 l    d  .debug_str	00000000 .debug_str
00000000 l    d  .comment	00000000 .comment
00000000 l    d  .debug_frame	00000000 .debug_frame
00000000 l    d  .debug_loc	00000000 .debug_loc
00000000 l    d  .stab	00000000 .stab
00000000 l    d  .stabstr	00000000 .stabstr
00000000 l    df *ABS*	00000000 ./Startup/startup_ch32v30x_D8C.o
00000004 l       .vector	00000000 _vector_base
00000000 l    df *ABS*	00000000 ch32v30x_it.c
00000000 l    df *ABS*	00000000 main.c
00000000 l    df *ABS*	00000000 sdio.c
20000570 l     O .bss	00000010 CID_Tab
20000580 l     O .bss	00000010 CSD_Tab
20000114 l     O .bss	00000001 CardType
20000115 l     O .bss	00000001 DeviceMode
20000118 l     O .bss	00000004 RCA
2000011c l     O .bss	00000001 StopCondition
00000000 l    df *ABS*	00000000 system_ch32v30x.c
00000000 l    df *ABS*	00000000 ch32v30x_dbgmcu.c
00000000 l    df *ABS*	00000000 ch32v30x_dma.c
00000000 l    df *ABS*	00000000 ch32v30x_gpio.c
00000000 l    df *ABS*	00000000 ch32v30x_i2c.c
00000000 l    df *ABS*	00000000 ch32v30x_misc.c
00000000 l    df *ABS*	00000000 ch32v30x_rcc.c
20000010 l     O .data	00000010 APBAHBPrescTable
200000fc l     O .data	00000004 ADCPrescTable
00000000 l    df *ABS*	00000000 ch32v30x_sdio.c
00000000 l    df *ABS*	00000000 ch32v30x_spi.c
00000000 l    df *ABS*	00000000 ch32v30x_usart.c
00000000 l    df *ABS*	00000000 diskio.c
00000000 l    df *ABS*	00000000 ff.c
00002a8c l     F .text	00000016 ld_dword
00002aa2 l     F .text	00000014 st_dword
00002ab6 l     F .text	0000001a clst2sect
00002ad0 l     F .text	00000022 sum_sfn
00002af2 l     F .text	00000050 get_ldnumber
00002b42 l     F .text	0000003e validate
00002b80 l     F .text	0000001e ld_clust.isra.1
00002b9e l     F .text	0000001e st_clust.isra.2
00002bbc l     F .text	00000048 sync_window.part.3
00002c04 l     F .text	0000003e move_window
00002c42 l     F .text	000000ec check_fs
00002d2e l     F .text	00000118 put_fat
00002e46 l     F .text	000000ca get_fat.isra.6
00002f10 l     F .text	000000b0 dir_sdi
00002fc0 l     F .text	000000f2 create_chain
000030b2 l     F .text	0000007a remove_chain
0000312c l     F .text	000002b4 mount_volume
000033e0 l     F .text	000000b4 sync_fs
00003494 l     F .text	000000c0 dir_clear
00003554 l     F .text	000000bc dir_next
00003610 l     F .text	00000194 dir_find
000037a4 l     F .text	0000034c follow_path
00003af0 l     F .text	000002b6 dir_register
2000082c l     O .bss	0000000c FatFs
00006b84 l     O .text	0000000d LfnOfs
00006ba0 l     O .text	0000000e cst.6447
00006bb0 l     O .text	0000000e cst32.6448
00006bc0 l     O .text	00000010 defopt.6449
2000012c l     O .bss	00000002 Fsid
00000000 l    df *ABS*	00000000 ffsystem.c
00000000 l    df *ABS*	00000000 ffunicode.c
0000e264 l     O .text	00007378 uni2oem932
00006eec l     O .text	00007378 oem2uni932
00006c3c l     O .text	000001f2 cvt1.1821
00006e30 l     O .text	000000bc cvt2.1822
00000000 l    df *ABS*	00000000 I2S.c
00000000 l    df *ABS*	00000000 WM8978.c
20000020 l     O .data	00000074 WM8978_RegCash
000155dc l     O .text	00000011 CSWTCH.4
00000000 l    df *ABS*	00000000 wavplay.c
00000000 l    df *ABS*	00000000 debug.c
2000012e l     O .bss	00000002 p_ms
20000130 l     O .bss	00000001 p_us
20000100 l     O .data	00000004 curbrk.5274
00000000 l    df *ABS*	00000000 libgcc2.c
00000000 l    df *ABS*	00000000 malloc.c
00000000 l    df *ABS*	00000000 memcmp.c
00000000 l    df *ABS*	00000000 memcpy.c
00000000 l    df *ABS*	00000000 nano-mallocr.c
00000000 l    df *ABS*	00000000 nano-mallocr.c
00000000 l    df *ABS*	00000000 printf.c
00000000 l    df *ABS*	00000000 puts.c
00000000 l    df *ABS*	00000000 sbrkr.c
00000000 l    df *ABS*	00000000 strchr.c
00000000 l    df *ABS*	00000000 wbuf.c
00000000 l    df *ABS*	00000000 wsetup.c
00000000 l    df *ABS*	00000000 fflush.c
00000000 l    df *ABS*	00000000 findfp.c
00005f58 l     F .text	00000066 std
00000000 l    df *ABS*	00000000 fwalk.c
00000000 l    df *ABS*	00000000 makebuf.c
00000000 l    df *ABS*	00000000 mlock.c
00000000 l    df *ABS*	00000000 nano-vfprintf.c
00006276 l     F .text	00000028 __sfputc_r
00000000 l    df *ABS*	00000000 nano-vfprintf_i.c
00000000 l    df *ABS*	00000000 stdio.c
00000000 l    df *ABS*	00000000 writer.c
00000000 l    df *ABS*	00000000 closer.c
00000000 l    df *ABS*	00000000 fstatr.c
00000000 l    df *ABS*	00000000 isattyr.c
00000000 l    df *ABS*	00000000 lseekr.c
00000000 l    df *ABS*	00000000 memchr.c
00000000 l    df *ABS*	00000000 readr.c
00000000 l    df *ABS*	00000000 close.c
00000000 l    df *ABS*	00000000 fstat.c
00000000 l    df *ABS*	00000000 isatty.c
00000000 l    df *ABS*	00000000 lseek.c
00000000 l    df *ABS*	00000000 read.c
00000000 l    df *ABS*	00000000 libgcc2.c
00000000 l    df *ABS*	00000000 impure.c
20000094 l     O .data	00000060 impure_data
00000000 l    df *ABS*	00000000 reent.c
00002052  w      .text	00000000 EXTI2_IRQHandler
00002052  w      .text	00000000 TIM8_TRG_COM_IRQHandler
00002052  w      .text	00000000 TIM8_CC_IRQHandler
20000838 g     O .bss	00000010 audiodev
00006a40 g     F .text	00000028 _isatty_r
00005ae4 g     F .text	000000d4 _puts_r
00006a68 g     F .text	0000002c _lseek_r
0000228c g     F .text	00000014 DMA_Cmd
00002052  w      .text	00000000 UART8_IRQHandler
0000546a g     F .text	000003d4 .hidden __divdi3
200005e8 g     O .bss	00000014 SDIO_CmdInitStructure
00005aa4 g     F .text	00000040 printf
200008f8 g       .data	00000000 __global_pointer$
000001c8 g     F .text	00000028 .hidden __riscv_save_8
00002052  w      .text	00000000 TIM1_CC_IRQHandler
0000698a g     F .text	00000030 __sseek
00006010 g     F .text	0000006c __sinit
00002926 g     F .text	00000004 SPI_I2S_SendData
00005c06 g     F .text	000000bc __swbuf_r
0000284a g     F .text	00000008 SDIO_ClearFlag
000002ca g     F .text	00000010 HardFault_Handler
00005fc8 g     F .text	00000048 __sfmoreglue
00006274 g     F .text	00000002 __malloc_unlock
000027b0 g     F .text	00000012 SDIO_SetPowerState
00000214 g     F .text	0000000c .hidden __riscv_restore_3
00002052  w      .text	00000000 TIM6_IRQHandler
00004eee g     F .text	0000003a WM8978_LINEIN_Gain
00002052  w      .text	00000000 SysTick_Handler
00002522 g     F .text	0000004e NVIC_Init
00002052  w      .text	00000000 PVD_IRQHandler
00000942 g     F .text	00000006 SDIO_IRQHandler
00002052  w      .text	00000000 TIM9_BRK_IRQHandler
00000200 g     F .text	00000020 .hidden __riscv_restore_10
00002052  w      .text	00000000 DMA2_Channel8_IRQHandler
000002c8 g     F .text	00000002 NMI_Handler
00004f9e g     F .text	00000064 WM8978_CfgInput
00002052  w      .text	00000000 CAN2_RX1_IRQHandler
00002052  w      .text	00000000 EXTI3_IRQHandler
000001c8 g     F .text	00000028 .hidden __riscv_save_11
000020de g     F .text	0000000a DBGMCU_GetCHIPID
00002052  w      .text	00000000 USBHS_IRQHandler
000029e2 g     F .text	0000000a USART_GetFlagStatus
00002052  w      .text	00000000 DMA2_Channel9_IRQHandler
00006a16 g     F .text	0000002a _fstat_r
00002052  w      .text	00000000 TIM10_CC_IRQHandler
2000086c g     O .bss	00000004 errno
20000110 g       .bss	00000000 _sbss
00000800 g       *ABS*	00000000 __stack_size
000053ac g     F .text	0000005a USART_Printf_Init
000016a0 g     F .text	00000334 SD_WriteBlock
00002254 g     F .text	00000038 DMA_Init
00004b60 g     F .text	0000009a ff_wtoupper
2000013c g     O .bss	00000234 fs
00002052  w      .text	00000000 USBFS_IRQHandler
00000424 g     F .text	00000010 SDIO_Clock_Set
00000214 g     F .text	0000000c .hidden __riscv_restore_2
00005876 g     F .text	000000b2 memcpy
00000b68 g     F .text	0000007c CmdResp6Error
00000b1c g     F .text	0000004c CmdResp2Error
00005fbe g     F .text	0000000a _cleanup_r
00002052  w      .text	00000000 EXTI0_IRQHandler
00002052  w      .text	00000000 I2C2_EV_IRQHandler
000029f4 g     F .text	0000001a disk_initialize
00002052  w      .text	00000000 TIM10_TRG_COM_IRQHandler
00004c86 g     F .text	00000028 WM8978_WaitEvent
00005bb8 g     F .text	0000000c puts
200000f8 g     O .data	00000004 SystemCoreClock
00000434 g     F .text	000002f6 SD_GetCardInfo
0000283c g     F .text	0000000e SDIO_GetFlagStatus
0000583e g     F .text	0000000a malloc
00000754 g     F .text	00000042 CmdResp7Error
00006ae4 g     F .text	0000000c _fstat
00000004 g       .init	00000000 _einit
00000fea g     F .text	00000050 SD_EnableWideBusOperation
00002704 g     F .text	0000001e RCC_APB2PeriphClockCmd
000001c0 g     F .text	00000030 .hidden __riscv_save_12
00002052  w      .text	00000000 CAN2_SCE_IRQHandler
00002052  w      .text	00000000 ADC1_2_IRQHandler
00004f5c g     F .text	00000042 WM8978_ADDA_Cfg
000022a0 g     F .text	000000c0 GPIO_Init
000029ec g     F .text	00000008 disk_status
00002052  w      .text	00000000 Break_Point_Handler
00000200 g     F .text	00000020 .hidden __riscv_restore_11
20000128 g     O .bss	00000004 NVIC_Priority_Group
00002052  w      .text	00000000 SPI1_IRQHandler
000029c4 g     F .text	00000016 USART_Cmd
00005bc4 g     F .text	0000002a _sbrk_r
00002052  w      .text	00000000 TAMPER_IRQHandler
000001f0 g     F .text	0000000c .hidden __riscv_save_1
000002da g     F .text	00000028 LED_GFG
00000214 g     F .text	0000000c .hidden __riscv_restore_0
00006aac g     F .text	0000002c _read_r
00002a4e g     F .text	0000003a disk_ioctl
000001d6 g     F .text	0000001a .hidden __riscv_save_7
200005fc g     O .bss	00000200 SDIO_DATA_BUFFER
00002052  w      .text	00000000 CAN2_RX0_IRQHandler
2000011d g     O .bss	00000001 TransferEnd
00002052  w      .text	00000000 TIM8_UP_IRQHandler
00002722 g     F .text	0000001e RCC_APB1PeriphClockCmd
00002052  w      .text	00000000 Ecall_M_Mode_Handler
20007800 g       .stack	00000000 _heap_end
00006af0 g     F .text	0000000c _isatty
20000124 g     O .bss	00000004 tempbuff
20000108 g     O .data	00000004 _global_impure_ptr
0000020a g     F .text	00000016 .hidden __riscv_restore_5
0000111c g     F .text	00000076 SD_DMA_Config
0000292a g     F .text	0000000a SPI_I2S_GetFlagStatus
00002052  w      .text	00000000 DMA2_Channel2_IRQHandler
000026e6 g     F .text	0000001e RCC_AHBPeriphClockCmd
00002052  w      .text	00000000 DMA1_Channel4_IRQHandler
00000796 g     F .text	00000050 CmdResp1Error
000024be g     F .text	00000004 I2C_SendData
00005444 g     F .text	00000026 _sbrk
20000120 g     O .bss	00000004 TransferError
0000290c g     F .text	0000001a I2S_Cmd
00005222 g     F .text	0000012a wav_play_song
00002374 g     F .text	000000fe I2C_Init
00002052  w      .text	00000000 TIM9_UP_IRQHandler
0000020a g     F .text	00000016 .hidden __riscv_restore_6
00005028 g     F .text	00000152 wav_decode_init
00002052  w      .text	00000000 USART3_IRQHandler
00004aa2 g     F .text	00000068 ff_uni2oem
00002052  w      .text	00000000 RTC_IRQHandler
20000870 g       .bss	00000000 _ebss
00002052  w      .text	00000000 DMA1_Channel7_IRQHandler
00002052  w      .text	00000000 CAN1_RX1_IRQHandler
20000590 g     O .bss	00000058 SDCardInfo
0000534c g     F .text	0000002a Delay_Init
20000814 g     O .bss	00000018 SDIO_InitStructure
00002052  w      .text	00000000 DVP_IRQHandler
00002052  w      .text	00000000 UART5_IRQHandler
00000f56 g     F .text	00000094 SDEnWideBus
0000279a g     F .text	00000016 SDIO_ClockCmd
000019d4 g     F .text	00000368 SD_WriteMultiBlocks
00002802 g     F .text	00000026 SDIO_DataConfig
00002052  w      .text	00000000 TIM4_IRQHandler
000001c8 g     F .text	00000028 .hidden __riscv_save_9
0000236a g     F .text	0000000a GPIO_WriteBit
00002052  w      .text	00000000 DMA2_Channel1_IRQHandler
0000248a g     F .text	0000001a I2C_GenerateSTART
00015894 g     O .text	00000020 __sf_fake_stderr
000001d6 g     F .text	0000001a .hidden __riscv_save_4
00002052  w      .text	00000000 I2C1_EV_IRQHandler
00002570 g     F .text	00000176 RCC_GetClocksFreq
00002052  w      .text	00000000 DMA1_Channel6_IRQHandler
0000629e g     F .text	00000042 __sfputs_r
00002052  w      .text	00000000 UART4_IRQHandler
00002052  w      .text	00000000 DMA2_Channel4_IRQHandler
00006a94 g     F .text	00000018 memchr
00002934 g     F .text	00000090 USART_Init
00005928 g     F .text	000000a8 _free_r
00002052  w      .text	00000000 TIM3_IRQHandler
00002052  w      .text	00000000 RCC_IRQHandler
000001f0 g     F .text	0000000c .hidden __riscv_save_3
00002052  w      .text	00000000 TIM1_TRG_COM_IRQHandler
200007fc g     O .bss	00000018 SDIO_DataInitStructure
00002052  w      .text	00000000 DMA1_Channel1_IRQHandler
00004206 g     F .text	00000022 f_close
00000000 g       .init	00000000 _start
00002052  w      .text	00000000 DMA2_Channel7_IRQHandler
00000812 g     F .text	00000130 SD_ProcessIRQSrc
00001106 g     F .text	00000016 convert_from_bytes_to_power_of_two
20000000 g     O .data	00000010 AHBPrescTable
000024ea g     F .text	00000032 I2C_GetFlagStatus
00006afc g     F .text	0000000c _lseek
0000517a g     F .text	000000a8 wav_buffill
00004eac g     F .text	00000042 WM8978_CfgAudioIF
00002052  w      .text	00000000 EXTI15_10_IRQHandler
00004000 g     F .text	0000016a f_read
00000948 g     F .text	00000030 CmdResp3Error
0000103a g     F .text	000000cc SD_Init
00002472 g     F .text	00000018 I2C_Cmd
00002052  w      .text	00000000 TIM7_IRQHandler
000069ee g     F .text	00000028 _close_r
00002052  w      .text	00000000 CAN2_TX_IRQHandler
20000000 g       .dalign	00000000 _data_vma
00002052  w      .text	00000000 TIM5_IRQHandler
000007e6 g     F .text	0000002c SD_SelectDeselect
00005852 g     F .text	00000024 memcmp
000027e0 g     F .text	00000022 SDIO_SendCommand
00005cc2 g     F .text	000000fe __swsetup_r
00002052  w      .text	00000000 EXTI9_5_IRQHandler
0000607c g     F .text	000000a0 __sfp
000001c8 g     F .text	00000028 .hidden __riscv_save_10
00006916 g     F .text	0000002c __sread
00002a88 g     F .text	00000004 get_fattime
000024c2 g     F .text	00000012 I2C_Send7bitAddress
00002052  w      .text	00000000 ETH_WKUP_IRQHandler
00004bfa g     F .text	0000008c USER_I2S_Init
00006272 g     F .text	00000002 __malloc_lock
0000020a g     F .text	00000016 .hidden __riscv_restore_4
00001db4 g     F .text	00000076 SD_WriteDisk
00000200 g     F .text	00000020 .hidden __riscv_restore_8
00005ef2 g     F .text	00000066 _fflush_r
0000072a g     F .text	0000002a CmdError
000001d6 g     F .text	0000001a .hidden __riscv_save_6
00002828 g     F .text	0000000a SDIO_ReadData
00002052  w      .text	00000000 SPI2_IRQHandler
000158b4 g     O .text	00000020 __sf_fake_stdin
000027cc g     F .text	00000014 SDIO_DMACmd
00001d3c g     F .text	00000078 SD_ReadDisk
00000220 g     F .text	000000a8 memset
00000200 g     F .text	00000020 .hidden __riscv_restore_9
0000020a g     F .text	00000016 .hidden __riscv_restore_7
00000302 g     F .text	00000122 main
00002052  w      .text	00000000 TIM10_BRK_IRQHandler
0000416a g     F .text	0000009c f_sync
00002052  w      .text	00000000 TIM9_CC_IRQHandler
000069ba g     F .text	00000006 __sclose
00002052  w      .text	00000000 DMA2_Channel5_IRQHandler
000059d0 g     F .text	000000d4 _malloc_r
0000436a g     F .text	00000720 f_mkfs
00003da6 g     F .text	0000005a f_mount
00002052  w      .text	00000000 DMA1_Channel5_IRQHandler
00002052  w      .text	00000000 EXTI4_IRQHandler
00005376 g     F .text	00000036 Delay_Ms
00002052  w      .text	00000000 USB_LP_CAN1_RX0_IRQHandler
00004b0a g     F .text	00000056 ff_oem2uni
00001e2a g     F .text	000000fa SystemInit
00002052  w      .text	00000000 RNG_IRQHandler
00005aa4 g     F .text	00000040 iprintf
00004228 g     F .text	00000142 f_lseek
00002052  w      .text	00000000 USB_HP_CAN1_TX_IRQHandler
00015794 g     O .text	00000100 .hidden __clz_tab
00000000 g       .init	00000000 _sinit
000069c0 g     F .text	0000002e _write_r
00002052  w      .text	00000000 DMA1_Channel3_IRQHandler
00002052  w      .text	00000000 ETH_IRQHandler
00006568 g     F .text	0000010c _printf_common
20000104 g     O .data	00000004 _impure_ptr
00002052  w      .text	00000000 TIM1_UP_IRQHandler
00005dc0 g     F .text	00000132 __sflush_r
00001192 g     F .text	0000023c SD_ReadBlock
00005002 g     F .text	00000026 WM8978_CfgOutput
00002052  w      .text	00000000 WWDG_IRQHandler
00004a96 g     F .text	0000000c ff_memfree
00002052  w      .text	00000000 USBHSWakeup_IRQHandler
00002052  w      .text	00000000 DMA2_Channel11_IRQHandler
00002052  w      .text	00000000 Ecall_U_Mode_Handler
00002052  w      .text	00000000 DMA2_Channel6_IRQHandler
00002052  w      .text	00000000 TIM2_IRQHandler
20008000 g       .stack	00000000 _eusrstack
00000d18 g     F .text	0000009c IsCardProgramming
000001f0 g     F .text	0000000c .hidden __riscv_save_2
00002052  w      .text	00000000 SW_Handler
20000848 g     O .bss	00000024 wavctrl
00002052  w      .text	00000000 TIM1_BRK_IRQHandler
00006186 g     F .text	00000058 __swhatbuf_r
000029da g     F .text	00000008 USART_SendData
00002052  w      .text	00000000 DMA2_Channel10_IRQHandler
00002052  w      .text	00000000 EXTI1_IRQHandler
000001d6 g     F .text	0000001a .hidden __riscv_save_5
00004cae g     F .text	000000e4 WM8978_Write_Reg
00005406 g     F .text	0000003e _write
20000110 g       .data	00000000 _edata
20000870 g       .bss	00000000 _end
00002052  w      .text	00000000 RTCAlarm_IRQHandler
00015930 g       .dlalign	00000000 _data_lma
00002052  w      .text	00000000 TIM10_UP_IRQHandler
00002052  w      .text	00000000 TIM9_TRG_COM_IRQHandler
00002052  w      .text	00000000 UART7_IRQHandler
00002052  w      .text	00000000 USART2_IRQHandler
00002052  w      .text	00000000 UART6_IRQHandler
00006942 g     F .text	00000048 __swrite
00003e00 g     F .text	00000200 f_open
00002a2e g     F .text	00000020 disk_write
000062e0 g     F .text	00000288 _vfiprintf_r
0000611c g     F .text	0000006a _fwalk_reent
00001f24 g     F .text	0000012e SystemCoreClockUpdate
00002052  w      .text	00000000 I2C2_ER_IRQHandler
00002052  w      .text	00000000 DMA1_Channel2_IRQHandler
000158d4 g     O .text	00000020 __sf_fake_stdout
000001fc g     F .text	00000024 .hidden __riscv_restore_12
00002052  w      .text	00000000 TIM8_BRK_IRQHandler
00006b08 g     F .text	0000000c _read
00002770 g     F .text	0000002a SDIO_Init
00002054  w      .text	00000000 handle_reset
00002052  w      .text	00000000 CAN1_SCE_IRQHandler
00004f28 g     F .text	00000034 WM8978_AUX_Gain
00002052  w      .text	00000000 FLASH_IRQHandler
000001f0 g     F .text	0000000c .hidden __riscv_save_0
00000978 g     F .text	000001a4 SD_PowerON
00002052  w      .text	00000000 USART1_IRQHandler
000061de g     F .text	00000094 __smakebuf_r
00002a0e g     F .text	00000020 disk_read
00006674 g     F .text	000002a2 _printf_i
00002052  w      .text	00000000 SPI3_IRQHandler
000013ce g     F .text	000002d2 SD_ReadMultiBlocks
00004d92 g     F .text	000000ea WM8978_IIC_Init
20000138 g     O .bss	00000004 __malloc_sbrk_start
000024d4 g     F .text	00000016 I2C_CheckEvent
000024a4 g     F .text	0000001a I2C_GenerateSTOP
00002052  w      .text	00000000 I2C1_ER_IRQHandler
00005bee g     F .text	00000018 strchr
0000251c g     F .text	00000006 NVIC_PriorityGroupConfig
000027c2 g     F .text	0000000a SDIO_GetPowerState
000020e8 g     F .text	0000016c DMA_DeInit
20000134 g     O .bss	00000004 __malloc_free_list
00004e7c g     F .text	00000030 WM8978_Set_Channel1_Volume
00000214 g     F .text	0000000c .hidden __riscv_restore_1
000062e0 g     F .text	00000288 _vfprintf_r
00000be4 g     F .text	00000134 SD_InitializeCards
00002360 g     F .text	0000000a GPIO_ReadInputDataBit
00002832 g     F .text	0000000a SDIO_WriteData
00000db4 g     F .text	000001a2 FindSCR
20000110 g     O .bss	00000004 res_sd
00002852 g     F .text	000000ba I2S_Init
00002052  w      .text	00000000 USBWakeUp_IRQHandler
20000370 g     O .bss	00000200 work
00006ad8 g     F .text	0000000c _close
00004a8a g     F .text	0000000c ff_memalloc
00005848 g     F .text	0000000a free
00002052  w      .text	00000000 DMA2_Channel3_IRQHandler
00002740 g     F .text	00000030 SDIO_DeInit



Disassembly of section .init:

00000000 <_sinit>:
   0:	0540206f          	j	2054 <handle_reset>

Disassembly of section .vector:

00000004 <_vector_base>:
	...
   c:	02c8                	addi	a0,sp,324
   e:	0000                	unimp
  10:	02ca                	slli	t0,t0,0x12
  12:	0000                	unimp
  14:	0000                	unimp
  16:	0000                	unimp
  18:	2052                	lhu	a2,4(s0)
	...
  22:	0000                	unimp
  24:	2052                	lhu	a2,4(s0)
  26:	0000                	unimp
  28:	2052                	lhu	a2,4(s0)
	...
  32:	0000                	unimp
  34:	2052                	lhu	a2,4(s0)
  36:	0000                	unimp
  38:	0000                	unimp
  3a:	0000                	unimp
  3c:	2052                	lhu	a2,4(s0)
  3e:	0000                	unimp
  40:	0000                	unimp
  42:	0000                	unimp
  44:	2052                	lhu	a2,4(s0)
  46:	0000                	unimp
  48:	2052                	lhu	a2,4(s0)
  4a:	0000                	unimp
  4c:	2052                	lhu	a2,4(s0)
  4e:	0000                	unimp
  50:	2052                	lhu	a2,4(s0)
  52:	0000                	unimp
  54:	2052                	lhu	a2,4(s0)
  56:	0000                	unimp
  58:	2052                	lhu	a2,4(s0)
  5a:	0000                	unimp
  5c:	2052                	lhu	a2,4(s0)
  5e:	0000                	unimp
  60:	2052                	lhu	a2,4(s0)
  62:	0000                	unimp
  64:	2052                	lhu	a2,4(s0)
  66:	0000                	unimp
  68:	2052                	lhu	a2,4(s0)
  6a:	0000                	unimp
  6c:	2052                	lhu	a2,4(s0)
  6e:	0000                	unimp
  70:	2052                	lhu	a2,4(s0)
  72:	0000                	unimp
  74:	2052                	lhu	a2,4(s0)
  76:	0000                	unimp
  78:	2052                	lhu	a2,4(s0)
  7a:	0000                	unimp
  7c:	2052                	lhu	a2,4(s0)
  7e:	0000                	unimp
  80:	2052                	lhu	a2,4(s0)
  82:	0000                	unimp
  84:	2052                	lhu	a2,4(s0)
  86:	0000                	unimp
  88:	2052                	lhu	a2,4(s0)
  8a:	0000                	unimp
  8c:	2052                	lhu	a2,4(s0)
  8e:	0000                	unimp
  90:	2052                	lhu	a2,4(s0)
  92:	0000                	unimp
  94:	2052                	lhu	a2,4(s0)
  96:	0000                	unimp
  98:	2052                	lhu	a2,4(s0)
  9a:	0000                	unimp
  9c:	2052                	lhu	a2,4(s0)
  9e:	0000                	unimp
  a0:	2052                	lhu	a2,4(s0)
  a2:	0000                	unimp
  a4:	2052                	lhu	a2,4(s0)
  a6:	0000                	unimp
  a8:	2052                	lhu	a2,4(s0)
  aa:	0000                	unimp
  ac:	2052                	lhu	a2,4(s0)
  ae:	0000                	unimp
  b0:	2052                	lhu	a2,4(s0)
  b2:	0000                	unimp
  b4:	2052                	lhu	a2,4(s0)
  b6:	0000                	unimp
  b8:	2052                	lhu	a2,4(s0)
  ba:	0000                	unimp
  bc:	2052                	lhu	a2,4(s0)
  be:	0000                	unimp
  c0:	2052                	lhu	a2,4(s0)
  c2:	0000                	unimp
  c4:	2052                	lhu	a2,4(s0)
  c6:	0000                	unimp
  c8:	2052                	lhu	a2,4(s0)
  ca:	0000                	unimp
  cc:	2052                	lhu	a2,4(s0)
  ce:	0000                	unimp
  d0:	2052                	lhu	a2,4(s0)
  d2:	0000                	unimp
  d4:	2052                	lhu	a2,4(s0)
  d6:	0000                	unimp
  d8:	2052                	lhu	a2,4(s0)
  da:	0000                	unimp
  dc:	2052                	lhu	a2,4(s0)
  de:	0000                	unimp
  e0:	2052                	lhu	a2,4(s0)
  e2:	0000                	unimp
  e4:	2052                	lhu	a2,4(s0)
  e6:	0000                	unimp
  e8:	2052                	lhu	a2,4(s0)
  ea:	0000                	unimp
  ec:	2052                	lhu	a2,4(s0)
  ee:	0000                	unimp
  f0:	2052                	lhu	a2,4(s0)
  f2:	0000                	unimp
  f4:	2052                	lhu	a2,4(s0)
  f6:	0000                	unimp
  f8:	2052                	lhu	a2,4(s0)
  fa:	0000                	unimp
  fc:	2052                	lhu	a2,4(s0)
  fe:	0000                	unimp
 100:	2052                	lhu	a2,4(s0)
 102:	0000                	unimp
 104:	0000                	unimp
 106:	0000                	unimp
 108:	0942                	slli	s2,s2,0x10
 10a:	0000                	unimp
 10c:	2052                	lhu	a2,4(s0)
 10e:	0000                	unimp
 110:	2052                	lhu	a2,4(s0)
 112:	0000                	unimp
 114:	2052                	lhu	a2,4(s0)
 116:	0000                	unimp
 118:	2052                	lhu	a2,4(s0)
 11a:	0000                	unimp
 11c:	2052                	lhu	a2,4(s0)
 11e:	0000                	unimp
 120:	2052                	lhu	a2,4(s0)
 122:	0000                	unimp
 124:	2052                	lhu	a2,4(s0)
 126:	0000                	unimp
 128:	2052                	lhu	a2,4(s0)
 12a:	0000                	unimp
 12c:	2052                	lhu	a2,4(s0)
 12e:	0000                	unimp
 130:	2052                	lhu	a2,4(s0)
 132:	0000                	unimp
 134:	2052                	lhu	a2,4(s0)
 136:	0000                	unimp
 138:	2052                	lhu	a2,4(s0)
 13a:	0000                	unimp
 13c:	2052                	lhu	a2,4(s0)
 13e:	0000                	unimp
 140:	2052                	lhu	a2,4(s0)
 142:	0000                	unimp
 144:	2052                	lhu	a2,4(s0)
 146:	0000                	unimp
 148:	2052                	lhu	a2,4(s0)
 14a:	0000                	unimp
 14c:	2052                	lhu	a2,4(s0)
 14e:	0000                	unimp
 150:	2052                	lhu	a2,4(s0)
 152:	0000                	unimp
 154:	2052                	lhu	a2,4(s0)
 156:	0000                	unimp
 158:	2052                	lhu	a2,4(s0)
 15a:	0000                	unimp
 15c:	2052                	lhu	a2,4(s0)
 15e:	0000                	unimp
 160:	2052                	lhu	a2,4(s0)
 162:	0000                	unimp
 164:	2052                	lhu	a2,4(s0)
 166:	0000                	unimp
 168:	2052                	lhu	a2,4(s0)
 16a:	0000                	unimp
 16c:	2052                	lhu	a2,4(s0)
 16e:	0000                	unimp
 170:	2052                	lhu	a2,4(s0)
 172:	0000                	unimp
 174:	2052                	lhu	a2,4(s0)
 176:	0000                	unimp
 178:	2052                	lhu	a2,4(s0)
 17a:	0000                	unimp
 17c:	2052                	lhu	a2,4(s0)
 17e:	0000                	unimp
 180:	2052                	lhu	a2,4(s0)
 182:	0000                	unimp
 184:	2052                	lhu	a2,4(s0)
 186:	0000                	unimp
 188:	2052                	lhu	a2,4(s0)
 18a:	0000                	unimp
 18c:	2052                	lhu	a2,4(s0)
 18e:	0000                	unimp
 190:	2052                	lhu	a2,4(s0)
 192:	0000                	unimp
 194:	2052                	lhu	a2,4(s0)
 196:	0000                	unimp
 198:	2052                	lhu	a2,4(s0)
 19a:	0000                	unimp
 19c:	2052                	lhu	a2,4(s0)
 19e:	0000                	unimp
 1a0:	2052                	lhu	a2,4(s0)
	...

Disassembly of section .text:

000001c0 <__riscv_save_12>:
     1c0:	7139                	addi	sp,sp,-64
     1c2:	4301                	li	t1,0
     1c4:	c66e                	sw	s11,12(sp)
     1c6:	a019                	j	1cc <__riscv_save_10+0x4>

000001c8 <__riscv_save_10>:
     1c8:	7139                	addi	sp,sp,-64
     1ca:	5341                	li	t1,-16
     1cc:	c86a                	sw	s10,16(sp)
     1ce:	ca66                	sw	s9,20(sp)
     1d0:	cc62                	sw	s8,24(sp)
     1d2:	ce5e                	sw	s7,28(sp)
     1d4:	a019                	j	1da <__riscv_save_4+0x4>

000001d6 <__riscv_save_4>:
     1d6:	7139                	addi	sp,sp,-64
     1d8:	5301                	li	t1,-32
     1da:	d05a                	sw	s6,32(sp)
     1dc:	d256                	sw	s5,36(sp)
     1de:	d452                	sw	s4,40(sp)
     1e0:	d64e                	sw	s3,44(sp)
     1e2:	d84a                	sw	s2,48(sp)
     1e4:	da26                	sw	s1,52(sp)
     1e6:	dc22                	sw	s0,56(sp)
     1e8:	de06                	sw	ra,60(sp)
     1ea:	40610133          	sub	sp,sp,t1
     1ee:	8282                	jr	t0

000001f0 <__riscv_save_0>:
     1f0:	1141                	addi	sp,sp,-16
     1f2:	c04a                	sw	s2,0(sp)
     1f4:	c226                	sw	s1,4(sp)
     1f6:	c422                	sw	s0,8(sp)
     1f8:	c606                	sw	ra,12(sp)
     1fa:	8282                	jr	t0

000001fc <__riscv_restore_12>:
     1fc:	4db2                	lw	s11,12(sp)
     1fe:	0141                	addi	sp,sp,16

00000200 <__riscv_restore_10>:
     200:	4d02                	lw	s10,0(sp)
     202:	4c92                	lw	s9,4(sp)
     204:	4c22                	lw	s8,8(sp)
     206:	4bb2                	lw	s7,12(sp)
     208:	0141                	addi	sp,sp,16

0000020a <__riscv_restore_4>:
     20a:	4b02                	lw	s6,0(sp)
     20c:	4a92                	lw	s5,4(sp)
     20e:	4a22                	lw	s4,8(sp)
     210:	49b2                	lw	s3,12(sp)
     212:	0141                	addi	sp,sp,16

00000214 <__riscv_restore_0>:
     214:	4902                	lw	s2,0(sp)
     216:	4492                	lw	s1,4(sp)
     218:	4422                	lw	s0,8(sp)
     21a:	40b2                	lw	ra,12(sp)
     21c:	0141                	addi	sp,sp,16
     21e:	8082                	ret

00000220 <memset>:
     220:	433d                	li	t1,15
     222:	872a                	mv	a4,a0
     224:	02c37363          	bgeu	t1,a2,24a <memset+0x2a>
     228:	00f77793          	andi	a5,a4,15
     22c:	efbd                	bnez	a5,2aa <memset+0x8a>
     22e:	e5ad                	bnez	a1,298 <memset+0x78>
     230:	ff067693          	andi	a3,a2,-16
     234:	8a3d                	andi	a2,a2,15
     236:	96ba                	add	a3,a3,a4
     238:	c30c                	sw	a1,0(a4)
     23a:	c34c                	sw	a1,4(a4)
     23c:	c70c                	sw	a1,8(a4)
     23e:	c74c                	sw	a1,12(a4)
     240:	0741                	addi	a4,a4,16
     242:	fed76be3          	bltu	a4,a3,238 <memset+0x18>
     246:	e211                	bnez	a2,24a <memset+0x2a>
     248:	8082                	ret
     24a:	40c306b3          	sub	a3,t1,a2
     24e:	068a                	slli	a3,a3,0x2
     250:	00000297          	auipc	t0,0x0
     254:	9696                	add	a3,a3,t0
     256:	00a68067          	jr	10(a3)
     25a:	00b70723          	sb	a1,14(a4)
     25e:	00b706a3          	sb	a1,13(a4)
     262:	00b70623          	sb	a1,12(a4)
     266:	00b705a3          	sb	a1,11(a4)
     26a:	00b70523          	sb	a1,10(a4)
     26e:	00b704a3          	sb	a1,9(a4)
     272:	00b70423          	sb	a1,8(a4)
     276:	00b703a3          	sb	a1,7(a4)
     27a:	00b70323          	sb	a1,6(a4)
     27e:	00b702a3          	sb	a1,5(a4)
     282:	00b70223          	sb	a1,4(a4)
     286:	00b701a3          	sb	a1,3(a4)
     28a:	00b70123          	sb	a1,2(a4)
     28e:	00b700a3          	sb	a1,1(a4)
     292:	00b70023          	sb	a1,0(a4)
     296:	8082                	ret
     298:	0ff5f593          	andi	a1,a1,255
     29c:	00859693          	slli	a3,a1,0x8
     2a0:	8dd5                	or	a1,a1,a3
     2a2:	01059693          	slli	a3,a1,0x10
     2a6:	8dd5                	or	a1,a1,a3
     2a8:	b761                	j	230 <memset+0x10>
     2aa:	00279693          	slli	a3,a5,0x2
     2ae:	00000297          	auipc	t0,0x0
     2b2:	9696                	add	a3,a3,t0
     2b4:	8286                	mv	t0,ra
     2b6:	fa8680e7          	jalr	-88(a3)
     2ba:	8096                	mv	ra,t0
     2bc:	17c1                	addi	a5,a5,-16
     2be:	8f1d                	sub	a4,a4,a5
     2c0:	963e                	add	a2,a2,a5
     2c2:	f8c374e3          	bgeu	t1,a2,24a <memset+0x2a>
     2c6:	b7a5                	j	22e <memset+0xe>

000002c8 <NMI_Handler>:
     2c8:	a001                	j	2c8 <NMI_Handler>

000002ca <HardFault_Handler>:
     2ca:	beef07b7          	lui	a5,0xbeef0
     2ce:	e000e737          	lui	a4,0xe000e
     2d2:	08078793          	addi	a5,a5,128 # beef0080 <_eusrstack+0x9eee8080>
     2d6:	c73c                	sw	a5,72(a4)
     2d8:	a001                	j	2d8 <HardFault_Handler+0xe>

000002da <LED_GFG>:
     2da:	f17ff2ef          	jal	t0,1f0 <__riscv_save_0>
     2de:	1141                	addi	sp,sp,-16
     2e0:	4585                	li	a1,1
     2e2:	4541                	li	a0,16
     2e4:	420020ef          	jal	ra,2704 <RCC_APB2PeriphClockCmd>
     2e8:	4785                	li	a5,1
     2ea:	827c                	sh	a5,4(sp)
     2ec:	478d                	li	a5,3
     2ee:	c43e                	sw	a5,8(sp)
     2f0:	004c                	addi	a1,sp,4
     2f2:	47c1                	li	a5,16
     2f4:	40011537          	lui	a0,0x40011
     2f8:	c63e                	sw	a5,12(sp)
     2fa:	7a7010ef          	jal	ra,22a0 <GPIO_Init>
     2fe:	0141                	addi	sp,sp,16
     300:	bf11                	j	214 <__riscv_restore_0>

00000302 <main>:
     302:	eefff2ef          	jal	t0,1f0 <__riscv_save_0>
     306:	41f010ef          	jal	ra,1f24 <SystemCoreClockUpdate>
     30a:	042050ef          	jal	ra,534c <Delay_Init>
     30e:	6571                	lui	a0,0x1c
     310:	20050513          	addi	a0,a0,512 # 1c200 <_data_lma+0x68d0>
     314:	098050ef          	jal	ra,53ac <USART_Printf_Init>
     318:	4509                	li	a0,2
     31a:	202020ef          	jal	ra,251c <NVIC_PriorityGroupConfig>
     31e:	3f75                	jal	2da <LED_GFG>
     320:	6505                	lui	a0,0x1
     322:	bb850513          	addi	a0,a0,-1096 # bb8 <CmdResp6Error+0x50>
     326:	050050ef          	jal	ra,5376 <Delay_Ms>
     32a:	269040ef          	jal	ra,4d92 <WM8978_IIC_Init>
     32e:	4551                	li	a0,20
     330:	34d040ef          	jal	ra,4e7c <WM8978_Set_Channel1_Volume>
     334:	4581                	li	a1,0
     336:	4505                	li	a0,1
     338:	425040ef          	jal	ra,4f5c <WM8978_ADDA_Cfg>
     33c:	4601                	li	a2,0
     33e:	4581                	li	a1,0
     340:	4501                	li	a0,0
     342:	45d040ef          	jal	ra,4f9e <WM8978_CfgInput>
     346:	4581                	li	a1,0
     348:	4505                	li	a0,1
     34a:	4b9040ef          	jal	ra,5002 <WM8978_CfgOutput>
     34e:	4581                	li	a1,0
     350:	4501                	li	a0,0
     352:	35b040ef          	jal	ra,4eac <WM8978_CfgAudioIF>
     356:	200007b7          	lui	a5,0x20000
     35a:	0f87a583          	lw	a1,248(a5) # 200000f8 <SystemCoreClock>
     35e:	00007537          	lui	a0,0x7
     362:	b1450513          	addi	a0,a0,-1260 # 6b14 <_read+0xc>
     366:	73e050ef          	jal	ra,5aa4 <iprintf>
     36a:	575010ef          	jal	ra,20de <DBGMCU_GetCHIPID>
     36e:	85aa                	mv	a1,a0
     370:	00007537          	lui	a0,0x7
     374:	b2450513          	addi	a0,a0,-1244 # 6b24 <_read+0x1c>
     378:	72c050ef          	jal	ra,5aa4 <iprintf>
     37c:	00007537          	lui	a0,0x7
     380:	b3450513          	addi	a0,a0,-1228 # 6b34 <_read+0x2c>
     384:	035050ef          	jal	ra,5bb8 <puts>
     388:	000074b7          	lui	s1,0x7
     38c:	4605                	li	a2,1
     38e:	b4848593          	addi	a1,s1,-1208 # 6b48 <_read+0x40>
     392:	84418513          	addi	a0,gp,-1980 # 2000013c <fs>
     396:	211030ef          	jal	ra,3da6 <f_mount>
     39a:	81818413          	addi	s0,gp,-2024 # 20000110 <_edata>
     39e:	85aa                	mv	a1,a0
     3a0:	c008                	sw	a0,0(s0)
     3a2:	00007537          	lui	a0,0x7
     3a6:	b4c50513          	addi	a0,a0,-1204 # 6b4c <_read+0x44>
     3aa:	6fa050ef          	jal	ra,5aa4 <iprintf>
     3ae:	4018                	lw	a4,0(s0)
     3b0:	47b5                	li	a5,13
     3b2:	04f71163          	bne	a4,a5,3f4 <main+0xf2>
     3b6:	00007537          	lui	a0,0x7
     3ba:	b6450513          	addi	a0,a0,-1180 # 6b64 <_read+0x5c>
     3be:	7fa050ef          	jal	ra,5bb8 <puts>
     3c2:	20000693          	li	a3,512
     3c6:	a7818613          	addi	a2,gp,-1416 # 20000370 <work>
     3ca:	4581                	li	a1,0
     3cc:	b4848513          	addi	a0,s1,-1208
     3d0:	79b030ef          	jal	ra,436a <f_mkfs>
     3d4:	c008                	sw	a0,0(s0)
     3d6:	4605                	li	a2,1
     3d8:	b4848593          	addi	a1,s1,-1208
     3dc:	4501                	li	a0,0
     3de:	1c9030ef          	jal	ra,3da6 <f_mount>
     3e2:	c008                	sw	a0,0(s0)
     3e4:	4605                	li	a2,1
     3e6:	b4848593          	addi	a1,s1,-1208
     3ea:	84418513          	addi	a0,gp,-1980 # 2000013c <fs>
     3ee:	1b9030ef          	jal	ra,3da6 <f_mount>
     3f2:	c008                	sw	a0,0(s0)
     3f4:	00007537          	lui	a0,0x7
     3f8:	b7050513          	addi	a0,a0,-1168 # 6b70 <_read+0x68>
     3fc:	627040ef          	jal	ra,5222 <wav_play_song>
     400:	3e800513          	li	a0,1000
     404:	773040ef          	jal	ra,5376 <Delay_Ms>
     408:	4585                	li	a1,1
     40a:	40011537          	lui	a0,0x40011
     40e:	753010ef          	jal	ra,2360 <GPIO_ReadInputDataBit>
     412:	4601                	li	a2,0
     414:	e111                	bnez	a0,418 <main+0x116>
     416:	4605                	li	a2,1
     418:	4585                	li	a1,1
     41a:	40011537          	lui	a0,0x40011
     41e:	74d010ef          	jal	ra,236a <GPIO_WriteBit>
     422:	bff9                	j	400 <main+0xfe>

00000424 <SDIO_Clock_Set>:
     424:	40018737          	lui	a4,0x40018
     428:	435c                	lw	a5,4(a4)
     42a:	f007f793          	andi	a5,a5,-256
     42e:	8d5d                	or	a0,a0,a5
     430:	c348                	sw	a0,4(a4)
     432:	8082                	ret

00000434 <SD_GetCardInfo>:
     434:	81c1c883          	lbu	a7,-2020(gp) # 20000114 <CardType>
     438:	8201a783          	lw	a5,-2016(gp) # 20000118 <RCA>
     43c:	c8818693          	addi	a3,gp,-888 # 20000580 <CSD_Tab>
     440:	04f51a23          	sh	a5,84(a0) # 40011054 <_eusrstack+0x20009054>
     444:	229e                	lhu	a5,0(a3)
     446:	4298                	lw	a4,0(a3)
     448:	05150b23          	sb	a7,86(a0)
     44c:	00879813          	slli	a6,a5,0x8
     450:	83a1                	srli	a5,a5,0x8
     452:	00f86833          	or	a6,a6,a5
     456:	01875793          	srli	a5,a4,0x18
     45a:	0ff7f613          	andi	a2,a5,255
     45e:	8789                	srai	a5,a5,0x2
     460:	8bbd                	andi	a5,a5,15
     462:	b11c                	sb	a5,1(a0)
     464:	42dc                	lw	a5,4(a3)
     466:	8341                	srli	a4,a4,0x10
     468:	01051223          	sh	a6,4(a0)
     46c:	0107d813          	srli	a6,a5,0x10
     470:	00665313          	srli	t1,a2,0x6
     474:	0ff87813          	andi	a6,a6,255
     478:	8a0d                	andi	a2,a2,3
     47a:	b138                	sb	a4,3(a0)
     47c:	0187d713          	srli	a4,a5,0x18
     480:	a130                	sb	a2,2(a0)
     482:	0712                	slli	a4,a4,0x4
     484:	00485613          	srli	a2,a6,0x4
     488:	8f51                	or	a4,a4,a2
     48a:	0087d613          	srli	a2,a5,0x8
     48e:	a17a                	sh	a4,6(a0)
     490:	0ff67713          	andi	a4,a2,255
     494:	00650023          	sb	t1,0(a0)
     498:	00775313          	srli	t1,a4,0x7
     49c:	006504a3          	sb	t1,9(a0)
     4a0:	40665313          	srai	t1,a2,0x6
     4a4:	00137313          	andi	t1,t1,1
     4a8:	00650523          	sb	t1,10(a0)
     4ac:	40565313          	srai	t1,a2,0x5
     4b0:	00137313          	andi	t1,t1,1
     4b4:	006505a3          	sb	t1,11(a0)
     4b8:	40465313          	srai	t1,a2,0x4
     4bc:	00137313          	andi	t1,t1,1
     4c0:	00f87813          	andi	a6,a6,15
     4c4:	00650623          	sb	t1,12(a0)
     4c8:	01050423          	sb	a6,8(a0)
     4cc:	000506a3          	sb	zero,13(a0)
     4d0:	4305                	li	t1,1
     4d2:	4694                	lw	a3,8(a3)
     4d4:	c8818593          	addi	a1,gp,-888 # 20000580 <CSD_Tab>
     4d8:	01137563          	bgeu	t1,a7,4e2 <SD_GetCardInfo+0xae>
     4dc:	430d                	li	t1,3
     4de:	20689763          	bne	a7,t1,6ec <SD_GetCardInfo+0x2b8>
     4e2:	0186d713          	srli	a4,a3,0x18
     4e6:	0ff77893          	andi	a7,a4,255
     4ea:	078a                	slli	a5,a5,0x2
     4ec:	0068d313          	srli	t1,a7,0x6
     4f0:	3fc7f793          	andi	a5,a5,1020
     4f4:	0067e7b3          	or	a5,a5,t1
     4f8:	00040337          	lui	t1,0x40
     4fc:	c0030313          	addi	t1,t1,-1024 # 3fc00 <_data_lma+0x2a2d0>
     500:	062a                	slli	a2,a2,0xa
     502:	00667633          	and	a2,a2,t1
     506:	6305                	lui	t1,0x1
     508:	c0030313          	addi	t1,t1,-1024 # c00 <SD_InitializeCards+0x1c>
     50c:	00667633          	and	a2,a2,t1
     510:	870d                	srai	a4,a4,0x3
     512:	8fd1                	or	a5,a5,a2
     514:	8b1d                	andi	a4,a4,7
     516:	0106d613          	srli	a2,a3,0x10
     51a:	a958                	sb	a4,20(a0)
     51c:	0ff67713          	andi	a4,a2,255
     520:	8315                	srli	a4,a4,0x5
     522:	a978                	sb	a4,22(a0)
     524:	40265713          	srai	a4,a2,0x2
     528:	8b1d                	andi	a4,a4,7
     52a:	b978                	sb	a4,23(a0)
     52c:	0086d713          	srli	a4,a3,0x8
     530:	0078f893          	andi	a7,a7,7
     534:	0ff77713          	andi	a4,a4,255
     538:	0606                	slli	a2,a2,0x1
     53a:	01150aa3          	sb	a7,21(a0)
     53e:	8a19                	andi	a2,a2,6
     540:	00775893          	srli	a7,a4,0x7
     544:	01166633          	or	a2,a2,a7
     548:	ad10                	sb	a2,24(a0)
     54a:	4885                	li	a7,1
     54c:	0609                	addi	a2,a2,2
     54e:	00c89633          	sll	a2,a7,a2
     552:	c91c                	sw	a5,16(a0)
     554:	0785                	addi	a5,a5,1
     556:	01089833          	sll	a6,a7,a6
     55a:	02c788b3          	mul	a7,a5,a2
     55e:	05052823          	sw	a6,80(a0)
     562:	02f627b3          	mulhsu	a5,a2,a5
     566:	41f85613          	srai	a2,a6,0x1f
     56a:	030787b3          	mul	a5,a5,a6
     56e:	03160633          	mul	a2,a2,a7
     572:	97b2                	add	a5,a5,a2
     574:	03088633          	mul	a2,a7,a6
     578:	0308b833          	mulhu	a6,a7,a6
     57c:	c530                	sw	a2,72(a0)
     57e:	97c2                	add	a5,a5,a6
     580:	c57c                	sw	a5,76(a0)
     582:	40675793          	srai	a5,a4,0x6
     586:	8b85                	andi	a5,a5,1
     588:	bd1c                	sb	a5,25(a0)
     58a:	0706                	slli	a4,a4,0x1
     58c:	0ff6f793          	andi	a5,a3,255
     590:	0077d693          	srli	a3,a5,0x7
     594:	07e77713          	andi	a4,a4,126
     598:	8f55                	or	a4,a4,a3
     59a:	ad38                	sb	a4,26(a0)
     59c:	45d8                	lw	a4,12(a1)
     59e:	07f7f793          	andi	a5,a5,127
     5a2:	bd3c                	sb	a5,27(a0)
     5a4:	01875793          	srli	a5,a4,0x18
     5a8:	0077d693          	srli	a3,a5,0x7
     5ac:	ad54                	sb	a3,28(a0)
     5ae:	4057d693          	srai	a3,a5,0x5
     5b2:	8a8d                	andi	a3,a3,3
     5b4:	bd54                	sb	a3,29(a0)
     5b6:	4027d693          	srai	a3,a5,0x2
     5ba:	8a9d                	andi	a3,a3,7
     5bc:	ad74                	sb	a3,30(a0)
     5be:	01075693          	srli	a3,a4,0x10
     5c2:	0ff6f613          	andi	a2,a3,255
     5c6:	078a                	slli	a5,a5,0x2
     5c8:	00665593          	srli	a1,a2,0x6
     5cc:	8bb1                	andi	a5,a5,12
     5ce:	8fcd                	or	a5,a5,a1
     5d0:	8695                	srai	a3,a3,0x5
     5d2:	bd7c                	sb	a5,31(a0)
     5d4:	8a85                	andi	a3,a3,1
     5d6:	00875793          	srli	a5,a4,0x8
     5da:	02d50023          	sb	a3,32(a0)
     5de:	8a05                	andi	a2,a2,1
     5e0:	0ff7f693          	andi	a3,a5,255
     5e4:	02c50123          	sb	a2,34(a0)
     5e8:	0076d613          	srli	a2,a3,0x7
     5ec:	02c501a3          	sb	a2,35(a0)
     5f0:	4067d613          	srai	a2,a5,0x6
     5f4:	8a05                	andi	a2,a2,1
     5f6:	02c50223          	sb	a2,36(a0)
     5fa:	4057d613          	srai	a2,a5,0x5
     5fe:	8a05                	andi	a2,a2,1
     600:	02c502a3          	sb	a2,37(a0)
     604:	4047d613          	srai	a2,a5,0x4
     608:	8a05                	andi	a2,a2,1
     60a:	02c50323          	sb	a2,38(a0)
     60e:	c7818613          	addi	a2,gp,-904 # 20000570 <CID_Tab>
     612:	8a8d                	andi	a3,a3,3
     614:	02d50423          	sb	a3,40(a0)
     618:	4214                	lw	a3,0(a2)
     61a:	8789                	srai	a5,a5,0x2
     61c:	8b8d                	andi	a5,a5,3
     61e:	02f503a3          	sb	a5,39(a0)
     622:	0ff77713          	andi	a4,a4,255
     626:	0186d793          	srli	a5,a3,0x18
     62a:	02f50623          	sb	a5,44(a0)
     62e:	8305                	srli	a4,a4,0x1
     630:	0106d793          	srli	a5,a3,0x10
     634:	02e504a3          	sb	a4,41(a0)
     638:	0ff7f793          	andi	a5,a5,255
     63c:	0086d713          	srli	a4,a3,0x8
     640:	0ff77713          	andi	a4,a4,255
     644:	07a2                	slli	a5,a5,0x8
     646:	8fd9                	or	a5,a5,a4
     648:	b57e                	sh	a5,46(a0)
     64a:	425c                	lw	a5,4(a2)
     64c:	06e2                	slli	a3,a3,0x18
     64e:	6841                	lui	a6,0x10
     650:	0087d713          	srli	a4,a5,0x8
     654:	0ff77713          	andi	a4,a4,255
     658:	8f55                	or	a4,a4,a3
     65a:	0187d693          	srli	a3,a5,0x18
     65e:	06c2                	slli	a3,a3,0x10
     660:	8f55                	or	a4,a4,a3
     662:	0107d693          	srli	a3,a5,0x10
     666:	187d                	addi	a6,a6,-1
     668:	06a2                	slli	a3,a3,0x8
     66a:	0106f6b3          	and	a3,a3,a6
     66e:	8f55                	or	a4,a4,a3
     670:	4614                	lw	a3,8(a2)
     672:	d918                	sw	a4,48(a0)
     674:	02f50a23          	sb	a5,52(a0)
     678:	4658                	lw	a4,12(a2)
     67a:	0186d793          	srli	a5,a3,0x18
     67e:	02f50aa3          	sb	a5,53(a0)
     682:	00869613          	slli	a2,a3,0x8
     686:	0106d793          	srli	a5,a3,0x10
     68a:	01067833          	and	a6,a2,a6
     68e:	07e2                	slli	a5,a5,0x18
     690:	01875613          	srli	a2,a4,0x18
     694:	0107e7b3          	or	a5,a5,a6
     698:	8fd1                	or	a5,a5,a2
     69a:	06a2                	slli	a3,a3,0x8
     69c:	00ff0637          	lui	a2,0xff0
     6a0:	8ef1                	and	a3,a3,a2
     6a2:	8fd5                	or	a5,a5,a3
     6a4:	03c54603          	lbu	a2,60(a0)
     6a8:	dd1c                	sw	a5,56(a0)
     6aa:	01075793          	srli	a5,a4,0x10
     6ae:	0ff7f693          	andi	a3,a5,255
     6b2:	8291                	srli	a3,a3,0x4
     6b4:	8ed1                	or	a3,a3,a2
     6b6:	02d50e23          	sb	a3,60(a0)
     6ba:	6685                	lui	a3,0x1
     6bc:	f0068693          	addi	a3,a3,-256 # f00 <FindSCR+0x14c>
     6c0:	07a2                	slli	a5,a5,0x8
     6c2:	8ff5                	and	a5,a5,a3
     6c4:	00875693          	srli	a3,a4,0x8
     6c8:	0ff6f693          	andi	a3,a3,255
     6cc:	4585                	li	a1,1
     6ce:	8fd5                	or	a5,a5,a3
     6d0:	0ff77713          	andi	a4,a4,255
     6d4:	02b50523          	sb	a1,42(a0)
     6d8:	bd7e                	sh	a5,62(a0)
     6da:	020500a3          	sb	zero,33(a0)
     6de:	8305                	srli	a4,a4,0x1
     6e0:	04e50023          	sb	a4,64(a0)
     6e4:	04b500a3          	sb	a1,65(a0)
     6e8:	4501                	li	a0,0
     6ea:	8082                	ret
     6ec:	4609                	li	a2,2
     6ee:	e8c89ae3          	bne	a7,a2,582 <SD_GetCardInfo+0x14e>
     6f2:	0186d713          	srli	a4,a3,0x18
     6f6:	0106d613          	srli	a2,a3,0x10
     6fa:	0ff67613          	andi	a2,a2,255
     6fe:	0722                	slli	a4,a4,0x8
     700:	8f51                	or	a4,a4,a2
     702:	07c2                	slli	a5,a5,0x10
     704:	003f0637          	lui	a2,0x3f0
     708:	8ff1                	and	a5,a5,a2
     70a:	8fd9                	or	a5,a5,a4
     70c:	c91c                	sw	a5,16(a0)
     70e:	0785                	addi	a5,a5,1
     710:	00d7d613          	srli	a2,a5,0xd
     714:	07ce                	slli	a5,a5,0x13
     716:	0086d713          	srli	a4,a3,0x8
     71a:	c53c                	sw	a5,72(a0)
     71c:	20000793          	li	a5,512
     720:	0ff77713          	andi	a4,a4,255
     724:	c570                	sw	a2,76(a0)
     726:	c93c                	sw	a5,80(a0)
     728:	bda9                	j	582 <SD_GetCardInfo+0x14e>

0000072a <CmdError>:
     72a:	ac7ff2ef          	jal	t0,1f0 <__riscv_save_0>
     72e:	6441                	lui	s0,0x10
     730:	54fd                	li	s1,-1
     732:	147d                	addi	s0,s0,-1
     734:	00941863          	bne	s0,s1,744 <CmdError+0x1a>
     738:	5ff00513          	li	a0,1535
     73c:	10e020ef          	jal	ra,284a <SDIO_ClearFlag>
     740:	4501                	li	a0,0
     742:	bcc9                	j	214 <__riscv_restore_0>
     744:	08000513          	li	a0,128
     748:	0f4020ef          	jal	ra,283c <SDIO_GetFlagStatus>
     74c:	d17d                	beqz	a0,732 <CmdError+0x8>
     74e:	f46d                	bnez	s0,738 <CmdError+0xe>
     750:	450d                	li	a0,3
     752:	bfc5                	j	742 <CmdError+0x18>

00000754 <CmdResp7Error>:
     754:	a9dff2ef          	jal	t0,1f0 <__riscv_save_0>
     758:	6741                	lui	a4,0x10
     75a:	4781                	li	a5,0
     75c:	56fd                	li	a3,-1
     75e:	40018637          	lui	a2,0x40018
     762:	177d                	addi	a4,a4,-1
     764:	00d71e63          	bne	a4,a3,780 <CmdResp7Error+0x2c>
     768:	0047f713          	andi	a4,a5,4
     76c:	ef19                	bnez	a4,78a <CmdResp7Error+0x36>
     76e:	0407f793          	andi	a5,a5,64
     772:	4401                	li	s0,0
     774:	cf99                	beqz	a5,792 <CmdResp7Error+0x3e>
     776:	04000513          	li	a0,64
     77a:	0d0020ef          	jal	ra,284a <SDIO_ClearFlag>
     77e:	a811                	j	792 <CmdResp7Error+0x3e>
     780:	5a5c                	lw	a5,52(a2)
     782:	0457f593          	andi	a1,a5,69
     786:	ddf1                	beqz	a1,762 <CmdResp7Error+0xe>
     788:	f365                	bnez	a4,768 <CmdResp7Error+0x14>
     78a:	4511                	li	a0,4
     78c:	0be020ef          	jal	ra,284a <SDIO_ClearFlag>
     790:	440d                	li	s0,3
     792:	8522                	mv	a0,s0
     794:	b441                	j	214 <__riscv_restore_0>

00000796 <CmdResp1Error>:
     796:	a5bff2ef          	jal	t0,1f0 <__riscv_save_0>
     79a:	84aa                	mv	s1,a0
     79c:	40018437          	lui	s0,0x40018
     7a0:	585c                	lw	a5,52(s0)
     7a2:	0457f793          	andi	a5,a5,69
     7a6:	dfed                	beqz	a5,7a0 <CmdResp1Error+0xa>
     7a8:	4511                	li	a0,4
     7aa:	092020ef          	jal	ra,283c <SDIO_GetFlagStatus>
     7ae:	c511                	beqz	a0,7ba <CmdResp1Error+0x24>
     7b0:	4511                	li	a0,4
     7b2:	098020ef          	jal	ra,284a <SDIO_ClearFlag>
     7b6:	450d                	li	a0,3
     7b8:	bcb1                	j	214 <__riscv_restore_0>
     7ba:	4505                	li	a0,1
     7bc:	080020ef          	jal	ra,283c <SDIO_GetFlagStatus>
     7c0:	c511                	beqz	a0,7cc <CmdResp1Error+0x36>
     7c2:	4505                	li	a0,1
     7c4:	086020ef          	jal	ra,284a <SDIO_ClearFlag>
     7c8:	4505                	li	a0,1
     7ca:	b7fd                	j	7b8 <CmdResp1Error+0x22>
     7cc:	481c                	lw	a5,16(s0)
     7ce:	4541                	li	a0,16
     7d0:	fe9794e3          	bne	a5,s1,7b8 <CmdResp1Error+0x22>
     7d4:	5ff00793          	li	a5,1535
     7d8:	dc1c                	sw	a5,56(s0)
     7da:	4848                	lw	a0,20(s0)
     7dc:	fdffe7b7          	lui	a5,0xfdffe
     7e0:	07a1                	addi	a5,a5,8
     7e2:	8d7d                	and	a0,a0,a5
     7e4:	bfd1                	j	7b8 <CmdResp1Error+0x22>

000007e6 <SD_SelectDeselect>:
     7e6:	a0bff2ef          	jal	t0,1f0 <__riscv_save_0>
     7ea:	cf018793          	addi	a5,gp,-784 # 200005e8 <SDIO_CmdInitStructure>
     7ee:	469d                	li	a3,7
     7f0:	c3d4                	sw	a3,4(a5)
     7f2:	04000693          	li	a3,64
     7f6:	c388                	sw	a0,0(a5)
     7f8:	c794                	sw	a3,8(a5)
     7fa:	cf018513          	addi	a0,gp,-784 # 200005e8 <SDIO_CmdInitStructure>
     7fe:	40000693          	li	a3,1024
     802:	0007a623          	sw	zero,12(a5) # fdffe00c <_eusrstack+0xddff600c>
     806:	cb94                	sw	a3,16(a5)
     808:	7d9010ef          	jal	ra,27e0 <SDIO_SendCommand>
     80c:	451d                	li	a0,7
     80e:	3761                	jal	796 <CmdResp1Error>
     810:	b411                	j	214 <__riscv_restore_0>

00000812 <SD_ProcessIRQSrc>:
     812:	9dfff2ef          	jal	t0,1f0 <__riscv_save_0>
     816:	40018437          	lui	s0,0x40018
     81a:	585c                	lw	a5,52(s0)
     81c:	1007f793          	andi	a5,a5,256
     820:	c3b5                	beqz	a5,884 <SD_ProcessIRQSrc+0x72>
     822:	8241c703          	lbu	a4,-2012(gp) # 2000011c <StopCondition>
     826:	4785                	li	a5,1
     828:	82818413          	addi	s0,gp,-2008 # 20000120 <TransferError>
     82c:	04f71963          	bne	a4,a5,87e <SD_ProcessIRQSrc+0x6c>
     830:	cf018793          	addi	a5,gp,-784 # 200005e8 <SDIO_CmdInitStructure>
     834:	4731                	li	a4,12
     836:	c3d8                	sw	a4,4(a5)
     838:	04000713          	li	a4,64
     83c:	c798                	sw	a4,8(a5)
     83e:	cf018513          	addi	a0,gp,-784 # 200005e8 <SDIO_CmdInitStructure>
     842:	40000713          	li	a4,1024
     846:	0007a023          	sw	zero,0(a5)
     84a:	0007a623          	sw	zero,12(a5)
     84e:	cb98                	sw	a4,16(a5)
     850:	791010ef          	jal	ra,27e0 <SDIO_SendCommand>
     854:	4531                	li	a0,12
     856:	3781                	jal	796 <CmdResp1Error>
     858:	c008                	sw	a0,0(s0)
     85a:	400187b7          	lui	a5,0x40018
     85e:	5f98                	lw	a4,56(a5)
     860:	76d1                	lui	a3,0xffff4
     862:	cc568693          	addi	a3,a3,-827 # ffff3cc5 <_eusrstack+0xdffebcc5>
     866:	10076713          	ori	a4,a4,256
     86a:	df98                	sw	a4,56(a5)
     86c:	5fd8                	lw	a4,60(a5)
     86e:	8f75                	and	a4,a4,a3
     870:	dfd8                	sw	a4,60(a5)
     872:	4705                	li	a4,1
     874:	82e182a3          	sb	a4,-2011(gp) # 2000011d <TransferEnd>
     878:	401c                	lw	a5,0(s0)
     87a:	853e                	mv	a0,a5
     87c:	ba61                	j	214 <__riscv_restore_0>
     87e:	00042023          	sw	zero,0(s0) # 40018000 <_eusrstack+0x20010000>
     882:	bfe1                	j	85a <SD_ProcessIRQSrc+0x48>
     884:	4509                	li	a0,2
     886:	7b7010ef          	jal	ra,283c <SDIO_GetFlagStatus>
     88a:	cd19                	beqz	a0,8a8 <SD_ProcessIRQSrc+0x96>
     88c:	4509                	li	a0,2
     88e:	7bd010ef          	jal	ra,284a <SDIO_ClearFlag>
     892:	5c5c                	lw	a5,60(s0)
     894:	7751                	lui	a4,0xffff4
     896:	cc570713          	addi	a4,a4,-827 # ffff3cc5 <_eusrstack+0xdffebcc5>
     89a:	8ff9                	and	a5,a5,a4
     89c:	dc5c                	sw	a5,60(s0)
     89e:	4709                	li	a4,2
     8a0:	82e1a423          	sw	a4,-2008(gp) # 20000120 <TransferError>
     8a4:	4789                	li	a5,2
     8a6:	bfd1                	j	87a <SD_ProcessIRQSrc+0x68>
     8a8:	4521                	li	a0,8
     8aa:	793010ef          	jal	ra,283c <SDIO_GetFlagStatus>
     8ae:	cd19                	beqz	a0,8cc <SD_ProcessIRQSrc+0xba>
     8b0:	4521                	li	a0,8
     8b2:	799010ef          	jal	ra,284a <SDIO_ClearFlag>
     8b6:	5c5c                	lw	a5,60(s0)
     8b8:	7751                	lui	a4,0xffff4
     8ba:	cc570713          	addi	a4,a4,-827 # ffff3cc5 <_eusrstack+0xdffebcc5>
     8be:	8ff9                	and	a5,a5,a4
     8c0:	dc5c                	sw	a5,60(s0)
     8c2:	4711                	li	a4,4
     8c4:	82e1a423          	sw	a4,-2008(gp) # 20000120 <TransferError>
     8c8:	4791                	li	a5,4
     8ca:	bf45                	j	87a <SD_ProcessIRQSrc+0x68>
     8cc:	02000513          	li	a0,32
     8d0:	76d010ef          	jal	ra,283c <SDIO_GetFlagStatus>
     8d4:	c105                	beqz	a0,8f4 <SD_ProcessIRQSrc+0xe2>
     8d6:	02000513          	li	a0,32
     8da:	771010ef          	jal	ra,284a <SDIO_ClearFlag>
     8de:	5c5c                	lw	a5,60(s0)
     8e0:	7751                	lui	a4,0xffff4
     8e2:	cc570713          	addi	a4,a4,-827 # ffff3cc5 <_eusrstack+0xdffebcc5>
     8e6:	8ff9                	and	a5,a5,a4
     8e8:	dc5c                	sw	a5,60(s0)
     8ea:	4719                	li	a4,6
     8ec:	82e1a423          	sw	a4,-2008(gp) # 20000120 <TransferError>
     8f0:	4799                	li	a5,6
     8f2:	b761                	j	87a <SD_ProcessIRQSrc+0x68>
     8f4:	4541                	li	a0,16
     8f6:	747010ef          	jal	ra,283c <SDIO_GetFlagStatus>
     8fa:	cd19                	beqz	a0,918 <SD_ProcessIRQSrc+0x106>
     8fc:	4541                	li	a0,16
     8fe:	74d010ef          	jal	ra,284a <SDIO_ClearFlag>
     902:	5c5c                	lw	a5,60(s0)
     904:	7751                	lui	a4,0xffff4
     906:	cc570713          	addi	a4,a4,-827 # ffff3cc5 <_eusrstack+0xdffebcc5>
     90a:	8ff9                	and	a5,a5,a4
     90c:	dc5c                	sw	a5,60(s0)
     90e:	4715                	li	a4,5
     910:	82e1a423          	sw	a4,-2008(gp) # 20000120 <TransferError>
     914:	4795                	li	a5,5
     916:	b795                	j	87a <SD_ProcessIRQSrc+0x68>
     918:	20000513          	li	a0,512
     91c:	721010ef          	jal	ra,283c <SDIO_GetFlagStatus>
     920:	4781                	li	a5,0
     922:	dd21                	beqz	a0,87a <SD_ProcessIRQSrc+0x68>
     924:	20000513          	li	a0,512
     928:	723010ef          	jal	ra,284a <SDIO_ClearFlag>
     92c:	5c5c                	lw	a5,60(s0)
     92e:	7751                	lui	a4,0xffff4
     930:	cc570713          	addi	a4,a4,-827 # ffff3cc5 <_eusrstack+0xdffebcc5>
     934:	8ff9                	and	a5,a5,a4
     936:	dc5c                	sw	a5,60(s0)
     938:	471d                	li	a4,7
     93a:	82e1a423          	sw	a4,-2008(gp) # 20000120 <TransferError>
     93e:	479d                	li	a5,7
     940:	bf2d                	j	87a <SD_ProcessIRQSrc+0x68>

00000942 <SDIO_IRQHandler>:
     942:	3dc1                	jal	812 <SD_ProcessIRQSrc>
     944:	30200073          	mret

00000948 <CmdResp3Error>:
     948:	8a9ff2ef          	jal	t0,1f0 <__riscv_save_0>
     94c:	40018737          	lui	a4,0x40018
     950:	5b5c                	lw	a5,52(a4)
     952:	0457f793          	andi	a5,a5,69
     956:	dfed                	beqz	a5,950 <CmdResp3Error+0x8>
     958:	4511                	li	a0,4
     95a:	6e3010ef          	jal	ra,283c <SDIO_GetFlagStatus>
     95e:	c519                	beqz	a0,96c <CmdResp3Error+0x24>
     960:	4511                	li	a0,4
     962:	6e9010ef          	jal	ra,284a <SDIO_ClearFlag>
     966:	450d                	li	a0,3
     968:	8adff06f          	j	214 <__riscv_restore_0>
     96c:	5ff00513          	li	a0,1535
     970:	6db010ef          	jal	ra,284a <SDIO_ClearFlag>
     974:	4501                	li	a0,0
     976:	bfcd                	j	968 <CmdResp3Error+0x20>

00000978 <SD_PowerON>:
     978:	851ff2ef          	jal	t0,1c8 <__riscv_save_10>
     97c:	f1c18793          	addi	a5,gp,-228 # 20000814 <SDIO_InitStructure>
     980:	fb200713          	li	a4,-78
     984:	f1c18513          	addi	a0,gp,-228 # 20000814 <SDIO_InitStructure>
     988:	abd8                	sb	a4,20(a5)
     98a:	0007a023          	sw	zero,0(a5) # 40018000 <_eusrstack+0x20010000>
     98e:	0007a223          	sw	zero,4(a5)
     992:	0007a423          	sw	zero,8(a5)
     996:	0007a623          	sw	zero,12(a5)
     99a:	0007a823          	sw	zero,16(a5)
     99e:	5d3010ef          	jal	ra,2770 <SDIO_Init>
     9a2:	450d                	li	a0,3
     9a4:	60d010ef          	jal	ra,27b0 <SDIO_SetPowerState>
     9a8:	4505                	li	a0,1
     9aa:	5f1010ef          	jal	ra,279a <SDIO_ClockCmd>
     9ae:	04a00493          	li	s1,74
     9b2:	cf018413          	addi	s0,gp,-784 # 200005e8 <SDIO_CmdInitStructure>
     9b6:	40000a13          	li	s4,1024
     9ba:	89ca                	mv	s3,s2
     9bc:	8522                	mv	a0,s0
     9be:	00042023          	sw	zero,0(s0)
     9c2:	00042223          	sw	zero,4(s0)
     9c6:	00042423          	sw	zero,8(s0)
     9ca:	00042623          	sw	zero,12(s0)
     9ce:	01442823          	sw	s4,16(s0)
     9d2:	60f010ef          	jal	ra,27e0 <SDIO_SendCommand>
     9d6:	3b91                	jal	72a <CmdError>
     9d8:	c519                	beqz	a0,9e6 <SD_PowerON+0x6e>
     9da:	14fd                	addi	s1,s1,-1
     9dc:	0ff4f493          	andi	s1,s1,255
     9e0:	fcf1                	bnez	s1,9bc <SD_PowerON+0x44>
     9e2:	81fff06f          	j	200 <__riscv_restore_10>
     9e6:	1aa00793          	li	a5,426
     9ea:	c01c                	sw	a5,0(s0)
     9ec:	47a1                	li	a5,8
     9ee:	c05c                	sw	a5,4(s0)
     9f0:	04000793          	li	a5,64
     9f4:	c41c                	sw	a5,8(s0)
     9f6:	cf018513          	addi	a0,gp,-784 # 200005e8 <SDIO_CmdInitStructure>
     9fa:	40000793          	li	a5,1024
     9fe:	c81c                	sw	a5,16(s0)
     a00:	00042623          	sw	zero,12(s0)
     a04:	5dd010ef          	jal	ra,27e0 <SDIO_SendCommand>
     a08:	33b1                	jal	754 <CmdResp7Error>
     a0a:	4481                	li	s1,0
     a0c:	e511                	bnez	a0,a18 <SD_PowerON+0xa0>
     a0e:	4705                	li	a4,1
     a10:	80e18e23          	sb	a4,-2020(gp) # 20000114 <CardType>
     a14:	400004b7          	lui	s1,0x40000
     a18:	03700793          	li	a5,55
     a1c:	c05c                	sw	a5,4(s0)
     a1e:	04000793          	li	a5,64
     a22:	c41c                	sw	a5,8(s0)
     a24:	cf018513          	addi	a0,gp,-784 # 200005e8 <SDIO_CmdInitStructure>
     a28:	40000793          	li	a5,1024
     a2c:	c81c                	sw	a5,16(s0)
     a2e:	00042023          	sw	zero,0(s0)
     a32:	00042623          	sw	zero,12(s0)
     a36:	5ab010ef          	jal	ra,27e0 <SDIO_SendCommand>
     a3a:	03700513          	li	a0,55
     a3e:	3ba1                	jal	796 <CmdResp1Error>
     a40:	4901                	li	s2,0
     a42:	e549                	bnez	a0,acc <SD_PowerON+0x154>
     a44:	80100a37          	lui	s4,0x80100
     a48:	0144ea33          	or	s4,s1,s4
     a4c:	64c1                	lui	s1,0x10
     a4e:	03700b93          	li	s7,55
     a52:	04000a93          	li	s5,64
     a56:	40000b13          	li	s6,1024
     a5a:	02900c13          	li	s8,41
     a5e:	14fd                	addi	s1,s1,-1
     a60:	cf018513          	addi	a0,gp,-784 # 200005e8 <SDIO_CmdInitStructure>
     a64:	00042023          	sw	zero,0(s0)
     a68:	01742223          	sw	s7,4(s0)
     a6c:	01542423          	sw	s5,8(s0)
     a70:	00042623          	sw	zero,12(s0)
     a74:	01642823          	sw	s6,16(s0)
     a78:	569010ef          	jal	ra,27e0 <SDIO_SendCommand>
     a7c:	03700513          	li	a0,55
     a80:	3b19                	jal	796 <CmdResp1Error>
     a82:	f125                	bnez	a0,9e2 <SD_PowerON+0x6a>
     a84:	cf018513          	addi	a0,gp,-784 # 200005e8 <SDIO_CmdInitStructure>
     a88:	01442023          	sw	s4,0(s0)
     a8c:	01842223          	sw	s8,4(s0)
     a90:	01542423          	sw	s5,8(s0)
     a94:	00042623          	sw	zero,12(s0)
     a98:	01642823          	sw	s6,16(s0)
     a9c:	545010ef          	jal	ra,27e0 <SDIO_SendCommand>
     aa0:	3565                	jal	948 <CmdResp3Error>
     aa2:	f121                	bnez	a0,9e2 <SD_PowerON+0x6a>
     aa4:	400187b7          	lui	a5,0x40018
     aa8:	4bdc                	lw	a5,20(a5)
     aaa:	0905                	addi	s2,s2,1
     aac:	0007c663          	bltz	a5,ab8 <SD_PowerON+0x140>
     ab0:	fa9918e3          	bne	s2,s1,a60 <SD_PowerON+0xe8>
     ab4:	456d                	li	a0,27
     ab6:	b735                	j	9e2 <SD_PowerON+0x6a>
     ab8:	fe990ee3          	beq	s2,s1,ab4 <SD_PowerON+0x13c>
     abc:	00179713          	slli	a4,a5,0x1
     ac0:	f20751e3          	bgez	a4,9e2 <SD_PowerON+0x6a>
     ac4:	4709                	li	a4,2
     ac6:	80e18e23          	sb	a4,-2020(gp) # 20000114 <CardType>
     aca:	bf21                	j	9e2 <SD_PowerON+0x6a>
     acc:	64c1                	lui	s1,0x10
     ace:	80ff8a37          	lui	s4,0x80ff8
     ad2:	4a85                	li	s5,1
     ad4:	04000b13          	li	s6,64
     ad8:	40000b93          	li	s7,1024
     adc:	40018c37          	lui	s8,0x40018
     ae0:	14fd                	addi	s1,s1,-1
     ae2:	cf018513          	addi	a0,gp,-784 # 200005e8 <SDIO_CmdInitStructure>
     ae6:	01442023          	sw	s4,0(s0)
     aea:	01542223          	sw	s5,4(s0)
     aee:	01642423          	sw	s6,8(s0)
     af2:	00042623          	sw	zero,12(s0)
     af6:	01742823          	sw	s7,16(s0)
     afa:	4e7010ef          	jal	ra,27e0 <SDIO_SendCommand>
     afe:	35a9                	jal	948 <CmdResp3Error>
     b00:	ee0511e3          	bnez	a0,9e2 <SD_PowerON+0x6a>
     b04:	014c2783          	lw	a5,20(s8) # 40018014 <_eusrstack+0x20010014>
     b08:	0905                	addi	s2,s2,1
     b0a:	0007c563          	bltz	a5,b14 <SD_PowerON+0x19c>
     b0e:	fc991ae3          	bne	s2,s1,ae2 <SD_PowerON+0x16a>
     b12:	b74d                	j	ab4 <SD_PowerON+0x13c>
     b14:	fa9900e3          	beq	s2,s1,ab4 <SD_PowerON+0x13c>
     b18:	470d                	li	a4,3
     b1a:	b775                	j	ac6 <SD_PowerON+0x14e>

00000b1c <CmdResp2Error>:
     b1c:	ed4ff2ef          	jal	t0,1f0 <__riscv_save_0>
     b20:	6741                	lui	a4,0x10
     b22:	4781                	li	a5,0
     b24:	56fd                	li	a3,-1
     b26:	40018637          	lui	a2,0x40018
     b2a:	177d                	addi	a4,a4,-1
     b2c:	02d71263          	bne	a4,a3,b50 <CmdResp2Error+0x34>
     b30:	8b91                	andi	a5,a5,4
     b32:	e785                	bnez	a5,b5a <CmdResp2Error+0x3e>
     b34:	4505                	li	a0,1
     b36:	507010ef          	jal	ra,283c <SDIO_GetFlagStatus>
     b3a:	4401                	li	s0,0
     b3c:	c509                	beqz	a0,b46 <CmdResp2Error+0x2a>
     b3e:	4505                	li	a0,1
     b40:	50b010ef          	jal	ra,284a <SDIO_ClearFlag>
     b44:	4405                	li	s0,1
     b46:	5ff00513          	li	a0,1535
     b4a:	501010ef          	jal	ra,284a <SDIO_ClearFlag>
     b4e:	a811                	j	b62 <CmdResp2Error+0x46>
     b50:	5a5c                	lw	a5,52(a2)
     b52:	0457f593          	andi	a1,a5,69
     b56:	d9f1                	beqz	a1,b2a <CmdResp2Error+0xe>
     b58:	ff61                	bnez	a4,b30 <CmdResp2Error+0x14>
     b5a:	4511                	li	a0,4
     b5c:	4ef010ef          	jal	ra,284a <SDIO_ClearFlag>
     b60:	440d                	li	s0,3
     b62:	8522                	mv	a0,s0
     b64:	eb0ff06f          	j	214 <__riscv_restore_0>

00000b68 <CmdResp6Error>:
     b68:	e88ff2ef          	jal	t0,1f0 <__riscv_save_0>
     b6c:	892a                	mv	s2,a0
     b6e:	84ae                	mv	s1,a1
     b70:	40018437          	lui	s0,0x40018
     b74:	585c                	lw	a5,52(s0)
     b76:	0457f793          	andi	a5,a5,69
     b7a:	dfed                	beqz	a5,b74 <CmdResp6Error+0xc>
     b7c:	4511                	li	a0,4
     b7e:	4bf010ef          	jal	ra,283c <SDIO_GetFlagStatus>
     b82:	c519                	beqz	a0,b90 <CmdResp6Error+0x28>
     b84:	4511                	li	a0,4
     b86:	4c5010ef          	jal	ra,284a <SDIO_ClearFlag>
     b8a:	450d                	li	a0,3
     b8c:	e88ff06f          	j	214 <__riscv_restore_0>
     b90:	4505                	li	a0,1
     b92:	4ab010ef          	jal	ra,283c <SDIO_GetFlagStatus>
     b96:	c511                	beqz	a0,ba2 <CmdResp6Error+0x3a>
     b98:	4505                	li	a0,1
     b9a:	4b1010ef          	jal	ra,284a <SDIO_ClearFlag>
     b9e:	4505                	li	a0,1
     ba0:	b7f5                	j	b8c <CmdResp6Error+0x24>
     ba2:	481c                	lw	a5,16(s0)
     ba4:	01278463          	beq	a5,s2,bac <CmdResp6Error+0x44>
     ba8:	4541                	li	a0,16
     baa:	b7cd                	j	b8c <CmdResp6Error+0x24>
     bac:	5ff00513          	li	a0,1535
     bb0:	49b010ef          	jal	ra,284a <SDIO_ClearFlag>
     bb4:	485c                	lw	a5,20(s0)
     bb6:	6739                	lui	a4,0xe
     bb8:	8f7d                	and	a4,a4,a5
     bba:	e709                	bnez	a4,bc4 <CmdResp6Error+0x5c>
     bbc:	83c1                	srli	a5,a5,0x10
     bbe:	a09e                	sh	a5,0(s1)
     bc0:	4501                	li	a0,0
     bc2:	b7e9                	j	b8c <CmdResp6Error+0x24>
     bc4:	01279713          	slli	a4,a5,0x12
     bc8:	454d                	li	a0,19
     bca:	fc0741e3          	bltz	a4,b8c <CmdResp6Error+0x24>
     bce:	01179713          	slli	a4,a5,0x11
     bd2:	fc074be3          	bltz	a4,ba8 <CmdResp6Error+0x40>
     bd6:	01079713          	slli	a4,a5,0x10
     bda:	4501                	li	a0,0
     bdc:	fa0758e3          	bgez	a4,b8c <CmdResp6Error+0x24>
     be0:	453d                	li	a0,15
     be2:	b76d                	j	b8c <CmdResp6Error+0x24>

00000be4 <SD_InitializeCards>:
     be4:	e0cff2ef          	jal	t0,1f0 <__riscv_save_0>
     be8:	4785                	li	a5,1
     bea:	1141                	addi	sp,sp,-16
     bec:	877c                	sh	a5,14(sp)
     bee:	3d5010ef          	jal	ra,27c2 <SDIO_GetPowerState>
     bf2:	02500793          	li	a5,37
     bf6:	0c050863          	beqz	a0,cc6 <SD_InitializeCards+0xe2>
     bfa:	81c1c703          	lbu	a4,-2020(gp) # 20000114 <CardType>
     bfe:	4791                	li	a5,4
     c00:	81c18413          	addi	s0,gp,-2020 # 20000114 <CardType>
     c04:	04f70363          	beq	a4,a5,c4a <SD_InitializeCards+0x66>
     c08:	cf018793          	addi	a5,gp,-784 # 200005e8 <SDIO_CmdInitStructure>
     c0c:	4709                	li	a4,2
     c0e:	c3d8                	sw	a4,4(a5)
     c10:	0c000713          	li	a4,192
     c14:	c798                	sw	a4,8(a5)
     c16:	cf018513          	addi	a0,gp,-784 # 200005e8 <SDIO_CmdInitStructure>
     c1a:	40000713          	li	a4,1024
     c1e:	0007a023          	sw	zero,0(a5) # 40018000 <_eusrstack+0x20010000>
     c22:	0007a623          	sw	zero,12(a5)
     c26:	cb98                	sw	a4,16(a5)
     c28:	3b9010ef          	jal	ra,27e0 <SDIO_SendCommand>
     c2c:	3dc5                	jal	b1c <CmdResp2Error>
     c2e:	87aa                	mv	a5,a0
     c30:	e959                	bnez	a0,cc6 <SD_InitializeCards+0xe2>
     c32:	40018737          	lui	a4,0x40018
     c36:	4b54                	lw	a3,20(a4)
     c38:	c7818793          	addi	a5,gp,-904 # 20000570 <CID_Tab>
     c3c:	c394                	sw	a3,0(a5)
     c3e:	4f14                	lw	a3,24(a4)
     c40:	c3d4                	sw	a3,4(a5)
     c42:	4f54                	lw	a3,28(a4)
     c44:	c794                	sw	a3,8(a5)
     c46:	5318                	lw	a4,32(a4)
     c48:	c7d8                	sw	a4,12(a5)
     c4a:	201c                	lbu	a5,0(s0)
     c4c:	4709                	li	a4,2
     c4e:	04f77463          	bgeu	a4,a5,c96 <SD_InitializeCards+0xb2>
     c52:	4719                	li	a4,6
     c54:	04e78163          	beq	a5,a4,c96 <SD_InitializeCards+0xb2>
     c58:	2014                	lbu	a3,0(s0)
     c5a:	478d                	li	a5,3
     c5c:	02f69763          	bne	a3,a5,c8a <SD_InitializeCards+0xa6>
     c60:	8738                	lhu	a4,14(sp)
     c62:	cf018793          	addi	a5,gp,-784 # 200005e8 <SDIO_CmdInitStructure>
     c66:	0742                	slli	a4,a4,0x10
     c68:	c398                	sw	a4,0(a5)
     c6a:	04000713          	li	a4,64
     c6e:	c798                	sw	a4,8(a5)
     c70:	cf018513          	addi	a0,gp,-784 # 200005e8 <SDIO_CmdInitStructure>
     c74:	40000713          	li	a4,1024
     c78:	c3d4                	sw	a3,4(a5)
     c7a:	0007a623          	sw	zero,12(a5)
     c7e:	cb98                	sw	a4,16(a5)
     c80:	361010ef          	jal	ra,27e0 <SDIO_SendCommand>
     c84:	3d61                	jal	b1c <CmdResp2Error>
     c86:	87aa                	mv	a5,a0
     c88:	ed1d                	bnez	a0,cc6 <SD_InitializeCards+0xe2>
     c8a:	2018                	lbu	a4,0(s0)
     c8c:	4791                	li	a5,4
     c8e:	04f71063          	bne	a4,a5,cce <SD_InitializeCards+0xea>
     c92:	4781                	li	a5,0
     c94:	a80d                	j	cc6 <SD_InitializeCards+0xe2>
     c96:	cf018793          	addi	a5,gp,-784 # 200005e8 <SDIO_CmdInitStructure>
     c9a:	470d                	li	a4,3
     c9c:	c3d8                	sw	a4,4(a5)
     c9e:	04000713          	li	a4,64
     ca2:	c798                	sw	a4,8(a5)
     ca4:	cf018513          	addi	a0,gp,-784 # 200005e8 <SDIO_CmdInitStructure>
     ca8:	40000713          	li	a4,1024
     cac:	0007a023          	sw	zero,0(a5)
     cb0:	0007a623          	sw	zero,12(a5)
     cb4:	cb98                	sw	a4,16(a5)
     cb6:	32b010ef          	jal	ra,27e0 <SDIO_SendCommand>
     cba:	00e10593          	addi	a1,sp,14
     cbe:	450d                	li	a0,3
     cc0:	3565                	jal	b68 <CmdResp6Error>
     cc2:	87aa                	mv	a5,a0
     cc4:	d951                	beqz	a0,c58 <SD_InitializeCards+0x74>
     cc6:	853e                	mv	a0,a5
     cc8:	0141                	addi	sp,sp,16
     cca:	d4aff06f          	j	214 <__riscv_restore_0>
     cce:	8738                	lhu	a4,14(sp)
     cd0:	82e1a023          	sw	a4,-2016(gp) # 20000118 <RCA>
     cd4:	cf018793          	addi	a5,gp,-784 # 200005e8 <SDIO_CmdInitStructure>
     cd8:	0742                	slli	a4,a4,0x10
     cda:	c398                	sw	a4,0(a5)
     cdc:	4725                	li	a4,9
     cde:	c3d8                	sw	a4,4(a5)
     ce0:	0c000713          	li	a4,192
     ce4:	c798                	sw	a4,8(a5)
     ce6:	cf018513          	addi	a0,gp,-784 # 200005e8 <SDIO_CmdInitStructure>
     cea:	40000713          	li	a4,1024
     cee:	0007a623          	sw	zero,12(a5)
     cf2:	cb98                	sw	a4,16(a5)
     cf4:	2ed010ef          	jal	ra,27e0 <SDIO_SendCommand>
     cf8:	3515                	jal	b1c <CmdResp2Error>
     cfa:	87aa                	mv	a5,a0
     cfc:	f569                	bnez	a0,cc6 <SD_InitializeCards+0xe2>
     cfe:	400186b7          	lui	a3,0x40018
     d02:	4ad0                	lw	a2,20(a3)
     d04:	c8818713          	addi	a4,gp,-888 # 20000580 <CSD_Tab>
     d08:	c310                	sw	a2,0(a4)
     d0a:	4e90                	lw	a2,24(a3)
     d0c:	c350                	sw	a2,4(a4)
     d0e:	4ed0                	lw	a2,28(a3)
     d10:	c710                	sw	a2,8(a4)
     d12:	5294                	lw	a3,32(a3)
     d14:	c754                	sw	a3,12(a4)
     d16:	bf45                	j	cc6 <SD_InitializeCards+0xe2>

00000d18 <IsCardProgramming>:
     d18:	cd8ff2ef          	jal	t0,1f0 <__riscv_save_0>
     d1c:	8201a703          	lw	a4,-2016(gp) # 20000118 <RCA>
     d20:	84aa                	mv	s1,a0
     d22:	cf018793          	addi	a5,gp,-784 # 200005e8 <SDIO_CmdInitStructure>
     d26:	0742                	slli	a4,a4,0x10
     d28:	c398                	sw	a4,0(a5)
     d2a:	4735                	li	a4,13
     d2c:	1141                	addi	sp,sp,-16
     d2e:	c3d8                	sw	a4,4(a5)
     d30:	04000713          	li	a4,64
     d34:	c798                	sw	a4,8(a5)
     d36:	c402                	sw	zero,8(sp)
     d38:	40000713          	li	a4,1024
     d3c:	cf018513          	addi	a0,gp,-784 # 200005e8 <SDIO_CmdInitStructure>
     d40:	cb98                	sw	a4,16(a5)
     d42:	0007a623          	sw	zero,12(a5)
     d46:	c602                	sw	zero,12(sp)
     d48:	299010ef          	jal	ra,27e0 <SDIO_SendCommand>
     d4c:	400187b7          	lui	a5,0x40018
     d50:	5bdc                	lw	a5,52(a5)
     d52:	40018737          	lui	a4,0x40018
     d56:	c63e                	sw	a5,12(sp)
     d58:	47b2                	lw	a5,12(sp)
     d5a:	0457f793          	andi	a5,a5,69
     d5e:	cf81                	beqz	a5,d76 <IsCardProgramming+0x5e>
     d60:	4505                	li	a0,1
     d62:	2db010ef          	jal	ra,283c <SDIO_GetFlagStatus>
     d66:	c919                	beqz	a0,d7c <IsCardProgramming+0x64>
     d68:	4505                	li	a0,1
     d6a:	2e1010ef          	jal	ra,284a <SDIO_ClearFlag>
     d6e:	4505                	li	a0,1
     d70:	0141                	addi	sp,sp,16
     d72:	ca2ff06f          	j	214 <__riscv_restore_0>
     d76:	5b5c                	lw	a5,52(a4)
     d78:	c63e                	sw	a5,12(sp)
     d7a:	bff9                	j	d58 <IsCardProgramming+0x40>
     d7c:	4511                	li	a0,4
     d7e:	2bf010ef          	jal	ra,283c <SDIO_GetFlagStatus>
     d82:	c511                	beqz	a0,d8e <IsCardProgramming+0x76>
     d84:	4511                	li	a0,4
     d86:	2c5010ef          	jal	ra,284a <SDIO_ClearFlag>
     d8a:	450d                	li	a0,3
     d8c:	b7d5                	j	d70 <IsCardProgramming+0x58>
     d8e:	40018437          	lui	s0,0x40018
     d92:	4818                	lw	a4,16(s0)
     d94:	47b5                	li	a5,13
     d96:	4541                	li	a0,16
     d98:	fcf71ce3          	bne	a4,a5,d70 <IsCardProgramming+0x58>
     d9c:	5ff00513          	li	a0,1535
     da0:	2ab010ef          	jal	ra,284a <SDIO_ClearFlag>
     da4:	485c                	lw	a5,20(s0)
     da6:	4501                	li	a0,0
     da8:	c43e                	sw	a5,8(sp)
     daa:	47a2                	lw	a5,8(sp)
     dac:	83a5                	srli	a5,a5,0x9
     dae:	8bbd                	andi	a5,a5,15
     db0:	a09c                	sb	a5,0(s1)
     db2:	bf7d                	j	d70 <IsCardProgramming+0x58>

00000db4 <FindSCR>:
     db4:	c22ff2ef          	jal	t0,1d6 <__riscv_save_4>
     db8:	cf018413          	addi	s0,gp,-784 # 200005e8 <SDIO_CmdInitStructure>
     dbc:	47c1                	li	a5,16
     dbe:	cf018513          	addi	a0,gp,-784 # 200005e8 <SDIO_CmdInitStructure>
     dc2:	4b21                	li	s6,8
     dc4:	04000a93          	li	s5,64
     dc8:	40000a13          	li	s4,1024
     dcc:	89ae                	mv	s3,a1
     dce:	c05c                	sw	a5,4(s0)
     dd0:	01642023          	sw	s6,0(s0) # 40018000 <_eusrstack+0x20010000>
     dd4:	01542423          	sw	s5,8(s0)
     dd8:	00042623          	sw	zero,12(s0)
     ddc:	01442823          	sw	s4,16(s0)
     de0:	201010ef          	jal	ra,27e0 <SDIO_SendCommand>
     de4:	4541                	li	a0,16
     de6:	9b1ff0ef          	jal	ra,796 <CmdResp1Error>
     dea:	84aa                	mv	s1,a0
     dec:	0c051763          	bnez	a0,eba <FindSCR+0x106>
     df0:	8201a783          	lw	a5,-2016(gp) # 20000118 <RCA>
     df4:	cf018513          	addi	a0,gp,-784 # 200005e8 <SDIO_CmdInitStructure>
     df8:	01542423          	sw	s5,8(s0)
     dfc:	07c2                	slli	a5,a5,0x10
     dfe:	c01c                	sw	a5,0(s0)
     e00:	03700793          	li	a5,55
     e04:	c05c                	sw	a5,4(s0)
     e06:	00042623          	sw	zero,12(s0)
     e0a:	01442823          	sw	s4,16(s0)
     e0e:	1d3010ef          	jal	ra,27e0 <SDIO_SendCommand>
     e12:	03700513          	li	a0,55
     e16:	981ff0ef          	jal	ra,796 <CmdResp1Error>
     e1a:	84aa                	mv	s1,a0
     e1c:	ed59                	bnez	a0,eba <FindSCR+0x106>
     e1e:	f0418793          	addi	a5,gp,-252 # 200007fc <SDIO_DataInitStructure>
     e22:	577d                	li	a4,-1
     e24:	c398                	sw	a4,0(a5)
     e26:	03000713          	li	a4,48
     e2a:	c798                	sw	a4,8(a5)
     e2c:	4709                	li	a4,2
     e2e:	c7d8                	sw	a4,12(a5)
     e30:	f0418513          	addi	a0,gp,-252 # 200007fc <SDIO_DataInitStructure>
     e34:	4705                	li	a4,1
     e36:	cbd8                	sw	a4,20(a5)
     e38:	0167a223          	sw	s6,4(a5) # 40018004 <_eusrstack+0x20010004>
     e3c:	0007a823          	sw	zero,16(a5)
     e40:	1c3010ef          	jal	ra,2802 <SDIO_DataConfig>
     e44:	03300793          	li	a5,51
     e48:	cf018513          	addi	a0,gp,-784 # 200005e8 <SDIO_CmdInitStructure>
     e4c:	c05c                	sw	a5,4(s0)
     e4e:	00042023          	sw	zero,0(s0)
     e52:	01542423          	sw	s5,8(s0)
     e56:	00042623          	sw	zero,12(s0)
     e5a:	01442823          	sw	s4,16(s0)
     e5e:	183010ef          	jal	ra,27e0 <SDIO_SendCommand>
     e62:	03300513          	li	a0,51
     e66:	931ff0ef          	jal	ra,796 <CmdResp1Error>
     e6a:	84aa                	mv	s1,a0
     e6c:	e539                	bnez	a0,eba <FindSCR+0x106>
     e6e:	40018937          	lui	s2,0x40018
     e72:	03492403          	lw	s0,52(s2) # 40018034 <_eusrstack+0x20010034>
     e76:	62a47413          	andi	s0,s0,1578
     e7a:	e039                	bnez	s0,ec0 <FindSCR+0x10c>
     e7c:	00200537          	lui	a0,0x200
     e80:	1bd010ef          	jal	ra,283c <SDIO_GetFlagStatus>
     e84:	d57d                	beqz	a0,e72 <FindSCR+0xbe>
     e86:	1a3010ef          	jal	ra,2828 <SDIO_ReadData>
     e8a:	892a                	mv	s2,a0
     e8c:	40018a37          	lui	s4,0x40018
     e90:	034a2783          	lw	a5,52(s4) # 40018034 <_eusrstack+0x20010034>
     e94:	62a7f793          	andi	a5,a5,1578
     e98:	eb89                	bnez	a5,eaa <FindSCR+0xf6>
     e9a:	00200537          	lui	a0,0x200
     e9e:	19f010ef          	jal	ra,283c <SDIO_GetFlagStatus>
     ea2:	d57d                	beqz	a0,e90 <FindSCR+0xdc>
     ea4:	185010ef          	jal	ra,2828 <SDIO_ReadData>
     ea8:	842a                	mv	s0,a0
     eaa:	4521                	li	a0,8
     eac:	191010ef          	jal	ra,283c <SDIO_GetFlagStatus>
     eb0:	c919                	beqz	a0,ec6 <FindSCR+0x112>
     eb2:	4521                	li	a0,8
     eb4:	197010ef          	jal	ra,284a <SDIO_ClearFlag>
     eb8:	4491                	li	s1,4
     eba:	8526                	mv	a0,s1
     ebc:	b4eff06f          	j	20a <__riscv_restore_4>
     ec0:	4401                	li	s0,0
     ec2:	4901                	li	s2,0
     ec4:	b7dd                	j	eaa <FindSCR+0xf6>
     ec6:	4509                	li	a0,2
     ec8:	175010ef          	jal	ra,283c <SDIO_GetFlagStatus>
     ecc:	c511                	beqz	a0,ed8 <FindSCR+0x124>
     ece:	4509                	li	a0,2
     ed0:	17b010ef          	jal	ra,284a <SDIO_ClearFlag>
     ed4:	4489                	li	s1,2
     ed6:	b7d5                	j	eba <FindSCR+0x106>
     ed8:	02000513          	li	a0,32
     edc:	161010ef          	jal	ra,283c <SDIO_GetFlagStatus>
     ee0:	c519                	beqz	a0,eee <FindSCR+0x13a>
     ee2:	02000513          	li	a0,32
     ee6:	165010ef          	jal	ra,284a <SDIO_ClearFlag>
     eea:	4499                	li	s1,6
     eec:	b7f9                	j	eba <FindSCR+0x106>
     eee:	20000513          	li	a0,512
     ef2:	14b010ef          	jal	ra,283c <SDIO_GetFlagStatus>
     ef6:	c519                	beqz	a0,f04 <FindSCR+0x150>
     ef8:	20000513          	li	a0,512
     efc:	14f010ef          	jal	ra,284a <SDIO_ClearFlag>
     f00:	449d                	li	s1,7
     f02:	bf65                	j	eba <FindSCR+0x106>
     f04:	5ff00513          	li	a0,1535
     f08:	143010ef          	jal	ra,284a <SDIO_ClearFlag>
     f0c:	01895793          	srli	a5,s2,0x18
     f10:	01891713          	slli	a4,s2,0x18
     f14:	00891693          	slli	a3,s2,0x8
     f18:	00ff0637          	lui	a2,0xff0
     f1c:	8f5d                	or	a4,a4,a5
     f1e:	8ef1                	and	a3,a3,a2
     f20:	8f55                	or	a4,a4,a3
     f22:	66c1                	lui	a3,0x10
     f24:	f0068693          	addi	a3,a3,-256 # ff00 <uni2oem932+0x1c9c>
     f28:	00895913          	srli	s2,s2,0x8
     f2c:	00d97933          	and	s2,s2,a3
     f30:	01276933          	or	s2,a4,s2
     f34:	01841793          	slli	a5,s0,0x18
     f38:	01845713          	srli	a4,s0,0x18
     f3c:	8fd9                	or	a5,a5,a4
     f3e:	00841713          	slli	a4,s0,0x8
     f42:	8f71                	and	a4,a4,a2
     f44:	8021                	srli	s0,s0,0x8
     f46:	8fd9                	or	a5,a5,a4
     f48:	8c75                	and	s0,s0,a3
     f4a:	8c5d                	or	s0,s0,a5
     f4c:	0129a223          	sw	s2,4(s3)
     f50:	0089a023          	sw	s0,0(s3)
     f54:	b79d                	j	eba <FindSCR+0x106>

00000f56 <SDEnWideBus>:
     f56:	a80ff2ef          	jal	t0,1d6 <__riscv_save_4>
     f5a:	1141                	addi	sp,sp,-16
     f5c:	c402                	sw	zero,8(sp)
     f5e:	c602                	sw	zero,12(sp)
     f60:	4989                	li	s3,2
     f62:	e111                	bnez	a0,f66 <SDEnWideBus+0x10>
     f64:	89aa                	mv	s3,a0
     f66:	400187b7          	lui	a5,0x40018
     f6a:	4bdc                	lw	a5,20(a5)
     f6c:	4539                	li	a0,14
     f6e:	00679713          	slli	a4,a5,0x6
     f72:	06074963          	bltz	a4,fe4 <SDEnWideBus+0x8e>
     f76:	82018493          	addi	s1,gp,-2016 # 20000118 <RCA>
     f7a:	208a                	lhu	a0,0(s1)
     f7c:	002c                	addi	a1,sp,8
     f7e:	3d1d                	jal	db4 <FindSCR>
     f80:	e135                	bnez	a0,fe4 <SDEnWideBus+0x8e>
     f82:	47b2                	lw	a5,12(sp)
     f84:	02500513          	li	a0,37
     f88:	00d79713          	slli	a4,a5,0xd
     f8c:	04075c63          	bgez	a4,fe4 <SDEnWideBus+0x8e>
     f90:	409c                	lw	a5,0(s1)
     f92:	cf018413          	addi	s0,gp,-784 # 200005e8 <SDIO_CmdInitStructure>
     f96:	07c2                	slli	a5,a5,0x10
     f98:	c01c                	sw	a5,0(s0)
     f9a:	cf018513          	addi	a0,gp,-784 # 200005e8 <SDIO_CmdInitStructure>
     f9e:	03700793          	li	a5,55
     fa2:	04000a13          	li	s4,64
     fa6:	40000493          	li	s1,1024
     faa:	c05c                	sw	a5,4(s0)
     fac:	01442423          	sw	s4,8(s0)
     fb0:	00042623          	sw	zero,12(s0)
     fb4:	c804                	sw	s1,16(s0)
     fb6:	02b010ef          	jal	ra,27e0 <SDIO_SendCommand>
     fba:	03700513          	li	a0,55
     fbe:	fd8ff0ef          	jal	ra,796 <CmdResp1Error>
     fc2:	e10d                	bnez	a0,fe4 <SDEnWideBus+0x8e>
     fc4:	4799                	li	a5,6
     fc6:	cf018513          	addi	a0,gp,-784 # 200005e8 <SDIO_CmdInitStructure>
     fca:	01342023          	sw	s3,0(s0)
     fce:	c05c                	sw	a5,4(s0)
     fd0:	01442423          	sw	s4,8(s0)
     fd4:	00042623          	sw	zero,12(s0)
     fd8:	c804                	sw	s1,16(s0)
     fda:	007010ef          	jal	ra,27e0 <SDIO_SendCommand>
     fde:	4519                	li	a0,6
     fe0:	fb6ff0ef          	jal	ra,796 <CmdResp1Error>
     fe4:	0141                	addi	sp,sp,16
     fe6:	a24ff06f          	j	20a <__riscv_restore_4>

00000fea <SD_EnableWideBusOperation>:
     fea:	81c1c783          	lbu	a5,-2020(gp) # 20000114 <CardType>
     fee:	470d                	li	a4,3
     ff0:	04e78263          	beq	a5,a4,1034 <SD_EnableWideBusOperation+0x4a>
     ff4:	9fcff2ef          	jal	t0,1f0 <__riscv_save_0>
     ff8:	4709                	li	a4,2
     ffa:	842a                	mv	s0,a0
     ffc:	4501                	li	a0,0
     ffe:	02f76963          	bltu	a4,a5,1030 <SD_EnableWideBusOperation+0x46>
    1002:	4785                	li	a5,1
    1004:	02700513          	li	a0,39
    1008:	0287e463          	bltu	a5,s0,1030 <SD_EnableWideBusOperation+0x46>
    100c:	0ff47513          	andi	a0,s0,255
    1010:	3799                	jal	f56 <SDEnWideBus>
    1012:	ed19                	bnez	a0,1030 <SD_EnableWideBusOperation+0x46>
    1014:	400187b7          	lui	a5,0x40018
    1018:	43d8                	lw	a4,4(a5)
    101a:	76f9                	lui	a3,0xffffe
    101c:	7ff68693          	addi	a3,a3,2047 # ffffe7ff <_eusrstack+0xdfff67ff>
    1020:	8f75                	and	a4,a4,a3
    1022:	c3d8                	sw	a4,4(a5)
    1024:	43d8                	lw	a4,4(a5)
    1026:	042e                	slli	s0,s0,0xb
    1028:	8c59                	or	s0,s0,a4
    102a:	c3c0                	sw	s0,4(a5)
    102c:	43d8                	lw	a4,4(a5)
    102e:	c3d8                	sw	a4,4(a5)
    1030:	9e4ff06f          	j	214 <__riscv_restore_0>
    1034:	02700513          	li	a0,39
    1038:	8082                	ret

0000103a <SD_Init>:
    103a:	9b6ff2ef          	jal	t0,1f0 <__riscv_save_0>
    103e:	1101                	addi	sp,sp,-32
    1040:	4585                	li	a1,1
    1042:	03000513          	li	a0,48
    1046:	6be010ef          	jal	ra,2704 <RCC_APB2PeriphClockCmd>
    104a:	4585                	li	a1,1
    104c:	40200513          	li	a0,1026
    1050:	696010ef          	jal	ra,26e6 <RCC_AHBPeriphClockCmd>
    1054:	6789                	lui	a5,0x2
    1056:	f0078793          	addi	a5,a5,-256 # 1f00 <SystemInit+0xd6>
    105a:	440d                	li	s0,3
    105c:	44e1                	li	s1,24
    105e:	084c                	addi	a1,sp,20
    1060:	40011537          	lui	a0,0x40011
    1064:	82fc                	sh	a5,20(sp)
    1066:	cc22                	sw	s0,24(sp)
    1068:	ce26                	sw	s1,28(sp)
    106a:	236010ef          	jal	ra,22a0 <GPIO_Init>
    106e:	cc22                	sw	s0,24(sp)
    1070:	40011437          	lui	s0,0x40011
    1074:	4791                	li	a5,4
    1076:	084c                	addi	a1,sp,20
    1078:	40040513          	addi	a0,s0,1024 # 40011400 <_eusrstack+0x20009400>
    107c:	82fc                	sh	a5,20(sp)
    107e:	ce26                	sw	s1,28(sp)
    1080:	220010ef          	jal	ra,22a0 <GPIO_Init>
    1084:	08000793          	li	a5,128
    1088:	084c                	addi	a1,sp,20
    108a:	40040513          	addi	a0,s0,1024
    108e:	82fc                	sh	a5,20(sp)
    1090:	04800793          	li	a5,72
    1094:	ce3e                	sw	a5,28(sp)
    1096:	20a010ef          	jal	ra,22a0 <GPIO_Init>
    109a:	6a6010ef          	jal	ra,2740 <SDIO_DeInit>
    109e:	04100793          	li	a5,65
    10a2:	867c                	sh	a5,12(sp)
    10a4:	0068                	addi	a0,sp,12
    10a6:	4785                	li	a5,1
    10a8:	c83e                	sw	a5,16(sp)
    10aa:	00010723          	sb	zero,14(sp)
    10ae:	474010ef          	jal	ra,2522 <NVIC_Init>
    10b2:	8c7ff0ef          	jal	ra,978 <SD_PowerON>
    10b6:	e121                	bnez	a0,10f6 <SD_Init+0xbc>
    10b8:	3635                	jal	be4 <SD_InitializeCards>
    10ba:	ed15                	bnez	a0,10f6 <SD_Init+0xbc>
    10bc:	c9818413          	addi	s0,gp,-872 # 20000590 <SDCardInfo>
    10c0:	c9818513          	addi	a0,gp,-872 # 20000590 <SDCardInfo>
    10c4:	b70ff0ef          	jal	ra,434 <SD_GetCardInfo>
    10c8:	e51d                	bnez	a0,10f6 <SD_Init+0xbc>
    10ca:	05445503          	lhu	a0,84(s0)
    10ce:	0542                	slli	a0,a0,0x10
    10d0:	f16ff0ef          	jal	ra,7e6 <SD_SelectDeselect>
    10d4:	e10d                	bnez	a0,10f6 <SD_Init+0xbc>
    10d6:	4505                	li	a0,1
    10d8:	3f09                	jal	fea <SD_EnableWideBusOperation>
    10da:	ed11                	bnez	a0,10f6 <SD_Init+0xbc>
    10dc:	cee1c703          	lbu	a4,-786(gp) # 200005e6 <SDCardInfo+0x56>
    10e0:	4785                	li	a5,1
    10e2:	4519                	li	a0,6
    10e4:	00e7f363          	bgeu	a5,a4,10ea <SD_Init+0xb0>
    10e8:	4505                	li	a0,1
    10ea:	b3aff0ef          	jal	ra,424 <SDIO_Clock_Set>
    10ee:	80018ea3          	sb	zero,-2019(gp) # 20000115 <DeviceMode>
    10f2:	4501                	li	a0,0
    10f4:	a031                	j	1100 <SD_Init+0xc6>
    10f6:	81c1c703          	lbu	a4,-2020(gp) # 20000114 <CardType>
    10fa:	478d                	li	a5,3
    10fc:	fef700e3          	beq	a4,a5,10dc <SD_Init+0xa2>
    1100:	6105                	addi	sp,sp,32
    1102:	912ff06f          	j	214 <__riscv_restore_0>

00001106 <convert_from_bytes_to_power_of_two>:
    1106:	4781                	li	a5,0
    1108:	4705                	li	a4,1
    110a:	00e51463          	bne	a0,a4,1112 <convert_from_bytes_to_power_of_two+0xc>
    110e:	853e                	mv	a0,a5
    1110:	8082                	ret
    1112:	0785                	addi	a5,a5,1
    1114:	8105                	srli	a0,a0,0x1
    1116:	0ff7f793          	andi	a5,a5,255
    111a:	bfc5                	j	110a <convert_from_bytes_to_power_of_two+0x4>

0000111c <SD_DMA_Config>:
    111c:	8d4ff2ef          	jal	t0,1f0 <__riscv_save_0>
    1120:	7139                	addi	sp,sp,-64
    1122:	892a                	mv	s2,a0
    1124:	84ae                	mv	s1,a1
    1126:	4509                	li	a0,2
    1128:	4585                	li	a1,1
    112a:	40020437          	lui	s0,0x40020
    112e:	c632                	sw	a2,12(sp)
    1130:	5b6010ef          	jal	ra,26e6 <RCC_AHBPeriphClockCmd>
    1134:	44440513          	addi	a0,s0,1092 # 40020444 <_eusrstack+0x20018444>
    1138:	7b1000ef          	jal	ra,20e8 <DMA_DeInit>
    113c:	44440513          	addi	a0,s0,1092
    1140:	4581                	li	a1,0
    1142:	14a010ef          	jal	ra,228c <DMA_Cmd>
    1146:	400187b7          	lui	a5,0x40018
    114a:	08078793          	addi	a5,a5,128 # 40018080 <_eusrstack+0x20010080>
    114e:	ca3e                	sw	a5,20(sp)
    1150:	08000793          	li	a5,128
    1154:	d43e                	sw	a5,40(sp)
    1156:	20000793          	li	a5,512
    115a:	4632                	lw	a2,12(sp)
    115c:	d63e                	sw	a5,44(sp)
    115e:	6785                	lui	a5,0x1
    1160:	80078793          	addi	a5,a5,-2048 # 800 <__stack_size>
    1164:	d83e                	sw	a5,48(sp)
    1166:	084c                	addi	a1,sp,20
    1168:	6789                	lui	a5,0x2
    116a:	44440513          	addi	a0,s0,1092
    116e:	8089                	srli	s1,s1,0x2
    1170:	ce32                	sw	a2,28(sp)
    1172:	dc3e                	sw	a5,56(sp)
    1174:	cc4a                	sw	s2,24(sp)
    1176:	d026                	sw	s1,32(sp)
    1178:	d202                	sw	zero,36(sp)
    117a:	da02                	sw	zero,52(sp)
    117c:	de02                	sw	zero,60(sp)
    117e:	0d6010ef          	jal	ra,2254 <DMA_Init>
    1182:	4585                	li	a1,1
    1184:	44440513          	addi	a0,s0,1092
    1188:	104010ef          	jal	ra,228c <DMA_Cmd>
    118c:	6121                	addi	sp,sp,64
    118e:	886ff06f          	j	214 <__riscv_restore_0>

00001192 <SD_ReadBlock>:
    1192:	82eff2ef          	jal	t0,1c0 <__riscv_save_12>
    1196:	1141                	addi	sp,sp,-16
    1198:	e519                	bnez	a0,11a6 <SD_ReadBlock+0x14>
    119a:	02600413          	li	s0,38
    119e:	8522                	mv	a0,s0
    11a0:	0141                	addi	sp,sp,16
    11a2:	85aff06f          	j	1fc <__riscv_restore_12>
    11a6:	400187b7          	lui	a5,0x40018
    11aa:	0207a623          	sw	zero,44(a5) # 4001802c <_eusrstack+0x2001002c>
    11ae:	81c1c703          	lbu	a4,-2020(gp) # 20000114 <CardType>
    11b2:	4789                	li	a5,2
    11b4:	892a                	mv	s2,a0
    11b6:	8aae                	mv	s5,a1
    11b8:	8a36                	mv	s4,a3
    11ba:	00f71963          	bne	a4,a5,11cc <SD_ReadBlock+0x3a>
    11be:	065e                	slli	a2,a2,0x17
    11c0:	0095da93          	srli	s5,a1,0x9
    11c4:	01566ab3          	or	s5,a2,s5
    11c8:	20000a13          	li	s4,512
    11cc:	f0418493          	addi	s1,gp,-252 # 200007fc <SDIO_DataInitStructure>
    11d0:	57fd                	li	a5,-1
    11d2:	4b85                	li	s7,1
    11d4:	f0418513          	addi	a0,gp,-252 # 200007fc <SDIO_DataInitStructure>
    11d8:	c09c                	sw	a5,0(s1)
    11da:	0004a423          	sw	zero,8(s1) # 10008 <uni2oem932+0x1da4>
    11de:	0004a223          	sw	zero,4(s1)
    11e2:	0174aa23          	sw	s7,20(s1)
    11e6:	0004a623          	sw	zero,12(s1)
    11ea:	0004a823          	sw	zero,16(s1)
    11ee:	40018b37          	lui	s6,0x40018
    11f2:	610010ef          	jal	ra,2802 <SDIO_DataConfig>
    11f6:	014b2783          	lw	a5,20(s6) # 40018014 <_eusrstack+0x20010014>
    11fa:	4439                	li	s0,14
    11fc:	00679713          	slli	a4,a5,0x6
    1200:	f8074fe3          	bltz	a4,119e <SD_ReadBlock+0xc>
    1204:	fffa0793          	addi	a5,s4,-1
    1208:	01079613          	slli	a2,a5,0x10
    120c:	8241                	srli	a2,a2,0x10
    120e:	7ff00693          	li	a3,2047
    1212:	f8c6e4e3          	bltu	a3,a2,119a <SD_ReadBlock+0x8>
    1216:	0147f7b3          	and	a5,a5,s4
    121a:	f3c1                	bnez	a5,119a <SD_ReadBlock+0x8>
    121c:	8552                	mv	a0,s4
    121e:	35e5                	jal	1106 <convert_from_bytes_to_power_of_two>
    1220:	cf018993          	addi	s3,gp,-784 # 200005e8 <SDIO_CmdInitStructure>
    1224:	46c1                	li	a3,16
    1226:	c62a                	sw	a0,12(sp)
    1228:	04000d93          	li	s11,64
    122c:	cf018513          	addi	a0,gp,-784 # 200005e8 <SDIO_CmdInitStructure>
    1230:	40000d13          	li	s10,1024
    1234:	00d9a223          	sw	a3,4(s3)
    1238:	0149a023          	sw	s4,0(s3)
    123c:	01b9a423          	sw	s11,8(s3)
    1240:	0009a623          	sw	zero,12(s3)
    1244:	01a9a823          	sw	s10,16(s3)
    1248:	598010ef          	jal	ra,27e0 <SDIO_SendCommand>
    124c:	4541                	li	a0,16
    124e:	d48ff0ef          	jal	ra,796 <CmdResp1Error>
    1252:	842a                	mv	s0,a0
    1254:	f529                	bnez	a0,119e <SD_ReadBlock+0xc>
    1256:	47b2                	lw	a5,12(sp)
    1258:	f0418513          	addi	a0,gp,-252 # 200007fc <SDIO_DataInitStructure>
    125c:	0144a223          	sw	s4,4(s1)
    1260:	0792                	slli	a5,a5,0x4
    1262:	c49c                	sw	a5,8(s1)
    1264:	57fd                	li	a5,-1
    1266:	c09c                	sw	a5,0(s1)
    1268:	4789                	li	a5,2
    126a:	c4dc                	sw	a5,12(s1)
    126c:	0174aa23          	sw	s7,20(s1)
    1270:	0004a823          	sw	zero,16(s1)
    1274:	58e010ef          	jal	ra,2802 <SDIO_DataConfig>
    1278:	47c5                	li	a5,17
    127a:	cf018513          	addi	a0,gp,-784 # 200005e8 <SDIO_CmdInitStructure>
    127e:	00f9a223          	sw	a5,4(s3)
    1282:	0159a023          	sw	s5,0(s3)
    1286:	01b9a423          	sw	s11,8(s3)
    128a:	0009a623          	sw	zero,12(s3)
    128e:	01a9a823          	sw	s10,16(s3)
    1292:	54e010ef          	jal	ra,27e0 <SDIO_SendCommand>
    1296:	4545                	li	a0,17
    1298:	cfeff0ef          	jal	ra,796 <CmdResp1Error>
    129c:	842a                	mv	s0,a0
    129e:	f00510e3          	bnez	a0,119e <SD_ReadBlock+0xc>
    12a2:	81d1c783          	lbu	a5,-2019(gp) # 20000115 <DeviceMode>
    12a6:	cbd5                	beqz	a5,135a <SD_ReadBlock+0x1c8>
    12a8:	ef779be3          	bne	a5,s7,119e <SD_ReadBlock+0xc>
    12ac:	4601                	li	a2,0
    12ae:	85d2                	mv	a1,s4
    12b0:	854a                	mv	a0,s2
    12b2:	35ad                	jal	111c <SD_DMA_Config>
    12b4:	82818793          	addi	a5,gp,-2008 # 20000120 <TransferError>
    12b8:	0007a023          	sw	zero,0(a5)
    12bc:	82018223          	sb	zero,-2012(gp) # 2000011c <StopCondition>
    12c0:	82518793          	addi	a5,gp,-2011 # 2000011d <TransferEnd>
    12c4:	00078023          	sb	zero,0(a5)
    12c8:	03cb2783          	lw	a5,60(s6)
    12cc:	4505                	li	a0,1
    12ce:	82518913          	addi	s2,gp,-2011 # 2000011d <TransferEnd>
    12d2:	32a7e793          	ori	a5,a5,810
    12d6:	02fb2e23          	sw	a5,60(s6)
    12da:	4f2010ef          	jal	ra,27cc <SDIO_DMACmd>
    12de:	40020537          	lui	a0,0x40020
    12e2:	4585                	li	a1,1
    12e4:	44450513          	addi	a0,a0,1092 # 40020444 <_eusrstack+0x20018444>
    12e8:	7a5000ef          	jal	ra,228c <DMA_Cmd>
    12ec:	577d                	li	a4,-1
    12ee:	82818793          	addi	a5,gp,-2008 # 20000120 <TransferError>
    12f2:	40020637          	lui	a2,0x40020
    12f6:	40062683          	lw	a3,1024(a2) # 40020400 <_eusrstack+0x20018400>
    12fa:	01269593          	slli	a1,a3,0x12
    12fe:	0c05c263          	bltz	a1,13c2 <SD_ReadBlock+0x230>
    1302:	00094683          	lbu	a3,0(s2)
    1306:	0ff6f693          	andi	a3,a3,255
    130a:	eec5                	bnez	a3,13c2 <SD_ReadBlock+0x230>
    130c:	4394                	lw	a3,0(a5)
    130e:	ead5                	bnez	a3,13c2 <SD_ReadBlock+0x230>
    1310:	c329                	beqz	a4,1352 <SD_ReadBlock+0x1c0>
    1312:	177d                	addi	a4,a4,-1
    1314:	b7cd                	j	12f6 <SD_ReadBlock+0x164>
    1316:	6521                	lui	a0,0x8
    1318:	524010ef          	jal	ra,283c <SDIO_GetFlagStatus>
    131c:	c915                	beqz	a0,1350 <SD_ReadBlock+0x1be>
    131e:	87ca                	mv	a5,s2
    1320:	02090913          	addi	s2,s2,32
    1324:	0809a703          	lw	a4,128(s3)
    1328:	0791                	addi	a5,a5,4
    132a:	fee7ae23          	sw	a4,-4(a5)
    132e:	fef91be3          	bne	s2,a5,1324 <SD_ReadBlock+0x192>
    1332:	fffa0493          	addi	s1,s4,-1
    1336:	0349a783          	lw	a5,52(s3)
    133a:	62a7f793          	andi	a5,a5,1578
    133e:	dfe1                	beqz	a5,1316 <SD_ReadBlock+0x184>
    1340:	4521                	li	a0,8
    1342:	4fa010ef          	jal	ra,283c <SDIO_GetFlagStatus>
    1346:	c105                	beqz	a0,1366 <SD_ReadBlock+0x1d4>
    1348:	4521                	li	a0,8
    134a:	500010ef          	jal	ra,284a <SDIO_ClearFlag>
    134e:	a011                	j	1352 <SD_ReadBlock+0x1c0>
    1350:	e099                	bnez	s1,1356 <SD_ReadBlock+0x1c4>
    1352:	4411                	li	s0,4
    1354:	b5a9                	j	119e <SD_ReadBlock+0xc>
    1356:	14fd                	addi	s1,s1,-1
    1358:	bff9                	j	1336 <SD_ReadBlock+0x1a4>
    135a:	54fd                	li	s1,-1
    135c:	400189b7          	lui	s3,0x40018
    1360:	00800a37          	lui	s4,0x800
    1364:	bfc9                	j	1336 <SD_ReadBlock+0x1a4>
    1366:	4509                	li	a0,2
    1368:	4d4010ef          	jal	ra,283c <SDIO_GetFlagStatus>
    136c:	c511                	beqz	a0,1378 <SD_ReadBlock+0x1e6>
    136e:	4509                	li	a0,2
    1370:	4da010ef          	jal	ra,284a <SDIO_ClearFlag>
    1374:	4409                	li	s0,2
    1376:	b525                	j	119e <SD_ReadBlock+0xc>
    1378:	02000513          	li	a0,32
    137c:	4c0010ef          	jal	ra,283c <SDIO_GetFlagStatus>
    1380:	c519                	beqz	a0,138e <SD_ReadBlock+0x1fc>
    1382:	02000513          	li	a0,32
    1386:	4c4010ef          	jal	ra,284a <SDIO_ClearFlag>
    138a:	4419                	li	s0,6
    138c:	bd09                	j	119e <SD_ReadBlock+0xc>
    138e:	20000513          	li	a0,512
    1392:	4aa010ef          	jal	ra,283c <SDIO_GetFlagStatus>
    1396:	cd01                	beqz	a0,13ae <SD_ReadBlock+0x21c>
    1398:	20000513          	li	a0,512
    139c:	4ae010ef          	jal	ra,284a <SDIO_ClearFlag>
    13a0:	441d                	li	s0,7
    13a2:	bbf5                	j	119e <SD_ReadBlock+0xc>
    13a4:	484010ef          	jal	ra,2828 <SDIO_ReadData>
    13a8:	00a92023          	sw	a0,0(s2)
    13ac:	0911                	addi	s2,s2,4
    13ae:	00200537          	lui	a0,0x200
    13b2:	48a010ef          	jal	ra,283c <SDIO_GetFlagStatus>
    13b6:	f57d                	bnez	a0,13a4 <SD_ReadBlock+0x212>
    13b8:	5ff00513          	li	a0,1535
    13bc:	48e010ef          	jal	ra,284a <SDIO_ClearFlag>
    13c0:	bbf9                	j	119e <SD_ReadBlock+0xc>
    13c2:	db41                	beqz	a4,1352 <SD_ReadBlock+0x1c0>
    13c4:	4398                	lw	a4,0(a5)
    13c6:	dc070ce3          	beqz	a4,119e <SD_ReadBlock+0xc>
    13ca:	4380                	lw	s0,0(a5)
    13cc:	bbc9                	j	119e <SD_ReadBlock+0xc>

000013ce <SD_ReadMultiBlocks>:
    13ce:	df3fe2ef          	jal	t0,1c0 <__riscv_save_12>
    13d2:	1141                	addi	sp,sp,-16
    13d4:	82a1a623          	sw	a0,-2004(gp) # 20000124 <tempbuff>
    13d8:	400187b7          	lui	a5,0x40018
    13dc:	c02a                	sw	a0,0(sp)
    13de:	0207a623          	sw	zero,44(a5) # 4001802c <_eusrstack+0x2001002c>
    13e2:	8a2e                	mv	s4,a1
    13e4:	81c1c583          	lbu	a1,-2020(gp) # 20000114 <CardType>
    13e8:	8cb6                	mv	s9,a3
    13ea:	81c18693          	addi	a3,gp,-2020 # 20000114 <CardType>
    13ee:	4789                	li	a5,2
    13f0:	c236                	sw	a3,4(sp)
    13f2:	82c18913          	addi	s2,gp,-2004 # 20000124 <tempbuff>
    13f6:	00f59963          	bne	a1,a5,1408 <SD_ReadMultiBlocks+0x3a>
    13fa:	065e                	slli	a2,a2,0x17
    13fc:	009a5a13          	srli	s4,s4,0x9
    1400:	01466a33          	or	s4,a2,s4
    1404:	20000c93          	li	s9,512
    1408:	f0418493          	addi	s1,gp,-252 # 200007fc <SDIO_DataInitStructure>
    140c:	5d7d                	li	s10,-1
    140e:	4a85                	li	s5,1
    1410:	f0418513          	addi	a0,gp,-252 # 200007fc <SDIO_DataInitStructure>
    1414:	c43a                	sw	a4,8(sp)
    1416:	0004a423          	sw	zero,8(s1)
    141a:	0004a223          	sw	zero,4(s1)
    141e:	01a4a023          	sw	s10,0(s1)
    1422:	0154aa23          	sw	s5,20(s1)
    1426:	0004a623          	sw	zero,12(s1)
    142a:	0004a823          	sw	zero,16(s1)
    142e:	40018db7          	lui	s11,0x40018
    1432:	3d0010ef          	jal	ra,2802 <SDIO_DataConfig>
    1436:	014da783          	lw	a5,20(s11) # 40018014 <_eusrstack+0x20010014>
    143a:	4439                	li	s0,14
    143c:	00679713          	slli	a4,a5,0x6
    1440:	00074e63          	bltz	a4,145c <SD_ReadMultiBlocks+0x8e>
    1444:	fffc8793          	addi	a5,s9,-1
    1448:	01079593          	slli	a1,a5,0x10
    144c:	81c1                	srli	a1,a1,0x10
    144e:	7ff00613          	li	a2,2047
    1452:	4722                	lw	a4,8(sp)
    1454:	00b67863          	bgeu	a2,a1,1464 <SD_ReadMultiBlocks+0x96>
    1458:	02600413          	li	s0,38
    145c:	8522                	mv	a0,s0
    145e:	0141                	addi	sp,sp,16
    1460:	d9dfe06f          	j	1fc <__riscv_restore_12>
    1464:	c63a                	sw	a4,12(sp)
    1466:	0197f7b3          	and	a5,a5,s9
    146a:	f7fd                	bnez	a5,1458 <SD_ReadMultiBlocks+0x8a>
    146c:	8566                	mv	a0,s9
    146e:	3961                	jal	1106 <convert_from_bytes_to_power_of_two>
    1470:	cf018b93          	addi	s7,gp,-784 # 200005e8 <SDIO_CmdInitStructure>
    1474:	45c1                	li	a1,16
    1476:	04000793          	li	a5,64
    147a:	40000713          	li	a4,1024
    147e:	c42a                	sw	a0,8(sp)
    1480:	cf018513          	addi	a0,gp,-784 # 200005e8 <SDIO_CmdInitStructure>
    1484:	00bba223          	sw	a1,4(s7)
    1488:	00fba423          	sw	a5,8(s7)
    148c:	00eba823          	sw	a4,16(s7)
    1490:	019ba023          	sw	s9,0(s7)
    1494:	000ba623          	sw	zero,12(s7)
    1498:	348010ef          	jal	ra,27e0 <SDIO_SendCommand>
    149c:	4541                	li	a0,16
    149e:	af8ff0ef          	jal	ra,796 <CmdResp1Error>
    14a2:	842a                	mv	s0,a0
    14a4:	cf018993          	addi	s3,gp,-784 # 200005e8 <SDIO_CmdInitStructure>
    14a8:	f955                	bnez	a0,145c <SD_ReadMultiBlocks+0x8e>
    14aa:	4732                	lw	a4,12(sp)
    14ac:	faeaf8e3          	bgeu	s5,a4,145c <SD_ReadMultiBlocks+0x8e>
    14b0:	02ec85b3          	mul	a1,s9,a4
    14b4:	02000e37          	lui	t3,0x2000
    14b8:	fbc5f0e3          	bgeu	a1,t3,1458 <SD_ReadMultiBlocks+0x8a>
    14bc:	4322                	lw	t1,8(sp)
    14be:	4709                	li	a4,2
    14c0:	f0418513          	addi	a0,gp,-252 # 200007fc <SDIO_DataInitStructure>
    14c4:	0312                	slli	t1,t1,0x4
    14c6:	0064a423          	sw	t1,8(s1)
    14ca:	c0cc                	sw	a1,4(s1)
    14cc:	c42e                	sw	a1,8(sp)
    14ce:	c4d8                	sw	a4,12(s1)
    14d0:	01a4a023          	sw	s10,0(s1)
    14d4:	0154aa23          	sw	s5,20(s1)
    14d8:	0004a823          	sw	zero,16(s1)
    14dc:	326010ef          	jal	ra,2802 <SDIO_DataConfig>
    14e0:	4749                	li	a4,18
    14e2:	00eba223          	sw	a4,4(s7)
    14e6:	04000793          	li	a5,64
    14ea:	40000713          	li	a4,1024
    14ee:	cf018513          	addi	a0,gp,-784 # 200005e8 <SDIO_CmdInitStructure>
    14f2:	014ba023          	sw	s4,0(s7)
    14f6:	00fba423          	sw	a5,8(s7)
    14fa:	000ba623          	sw	zero,12(s7)
    14fe:	00eba823          	sw	a4,16(s7)
    1502:	2de010ef          	jal	ra,27e0 <SDIO_SendCommand>
    1506:	4549                	li	a0,18
    1508:	a8eff0ef          	jal	ra,796 <CmdResp1Error>
    150c:	18051863          	bnez	a0,169c <SD_ReadMultiBlocks+0x2ce>
    1510:	81d1ca03          	lbu	s4,-2019(gp) # 20000115 <DeviceMode>
    1514:	0a0a0a63          	beqz	s4,15c8 <SD_ReadMultiBlocks+0x1fa>
    1518:	45a2                	lw	a1,8(sp)
    151a:	f55a11e3          	bne	s4,s5,145c <SD_ReadMultiBlocks+0x8e>
    151e:	4502                	lw	a0,0(sp)
    1520:	4601                	li	a2,0
    1522:	bfbff0ef          	jal	ra,111c <SD_DMA_Config>
    1526:	82818793          	addi	a5,gp,-2008 # 20000120 <TransferError>
    152a:	0007a023          	sw	zero,0(a5)
    152e:	83418223          	sb	s4,-2012(gp) # 2000011c <StopCondition>
    1532:	82518793          	addi	a5,gp,-2011 # 2000011d <TransferEnd>
    1536:	00078023          	sb	zero,0(a5)
    153a:	03cda783          	lw	a5,60(s11)
    153e:	40020537          	lui	a0,0x40020
    1542:	4585                	li	a1,1
    1544:	32a7e793          	ori	a5,a5,810
    1548:	02fdae23          	sw	a5,60(s11)
    154c:	02cda783          	lw	a5,44(s11)
    1550:	44450513          	addi	a0,a0,1092 # 40020444 <_eusrstack+0x20018444>
    1554:	82518913          	addi	s2,gp,-2011 # 2000011d <TransferEnd>
    1558:	0087e793          	ori	a5,a5,8
    155c:	02fda623          	sw	a5,44(s11)
    1560:	52d000ef          	jal	ra,228c <DMA_Cmd>
    1564:	577d                	li	a4,-1
    1566:	82818793          	addi	a5,gp,-2008 # 20000120 <TransferError>
    156a:	400206b7          	lui	a3,0x40020
    156e:	4006a603          	lw	a2,1024(a3) # 40020400 <_eusrstack+0x20018400>
    1572:	01261593          	slli	a1,a2,0x12
    1576:	1005c663          	bltz	a1,1682 <SD_ReadMultiBlocks+0x2b4>
    157a:	c339                	beqz	a4,15c0 <SD_ReadMultiBlocks+0x1f2>
    157c:	177d                	addi	a4,a4,-1
    157e:	bfc5                	j	156e <SD_ReadMultiBlocks+0x1a0>
    1580:	6521                	lui	a0,0x8
    1582:	2ba010ef          	jal	ra,283c <SDIO_GetFlagStatus>
    1586:	cd05                	beqz	a0,15be <SD_ReadMultiBlocks+0x1f0>
    1588:	00092783          	lw	a5,0(s2)
    158c:	02078713          	addi	a4,a5,32
    1590:	0804a683          	lw	a3,128(s1)
    1594:	0791                	addi	a5,a5,4
    1596:	fed7ae23          	sw	a3,-4(a5)
    159a:	fee79be3          	bne	a5,a4,1590 <SD_ReadMultiBlocks+0x1c2>
    159e:	00f92023          	sw	a5,0(s2)
    15a2:	fffa0413          	addi	s0,s4,-1 # 7fffff <_data_lma+0x7ea6cf>
    15a6:	58dc                	lw	a5,52(s1)
    15a8:	32a7f793          	andi	a5,a5,810
    15ac:	dbf1                	beqz	a5,1580 <SD_ReadMultiBlocks+0x1b2>
    15ae:	4521                	li	a0,8
    15b0:	28c010ef          	jal	ra,283c <SDIO_GetFlagStatus>
    15b4:	c105                	beqz	a0,15d4 <SD_ReadMultiBlocks+0x206>
    15b6:	4521                	li	a0,8
    15b8:	292010ef          	jal	ra,284a <SDIO_ClearFlag>
    15bc:	a011                	j	15c0 <SD_ReadMultiBlocks+0x1f2>
    15be:	e019                	bnez	s0,15c4 <SD_ReadMultiBlocks+0x1f6>
    15c0:	4411                	li	s0,4
    15c2:	bd69                	j	145c <SD_ReadMultiBlocks+0x8e>
    15c4:	147d                	addi	s0,s0,-1
    15c6:	b7c5                	j	15a6 <SD_ReadMultiBlocks+0x1d8>
    15c8:	547d                	li	s0,-1
    15ca:	400184b7          	lui	s1,0x40018
    15ce:	00800a37          	lui	s4,0x800
    15d2:	bfd1                	j	15a6 <SD_ReadMultiBlocks+0x1d8>
    15d4:	4509                	li	a0,2
    15d6:	266010ef          	jal	ra,283c <SDIO_GetFlagStatus>
    15da:	c511                	beqz	a0,15e6 <SD_ReadMultiBlocks+0x218>
    15dc:	4509                	li	a0,2
    15de:	26c010ef          	jal	ra,284a <SDIO_ClearFlag>
    15e2:	4409                	li	s0,2
    15e4:	bda5                	j	145c <SD_ReadMultiBlocks+0x8e>
    15e6:	02000513          	li	a0,32
    15ea:	252010ef          	jal	ra,283c <SDIO_GetFlagStatus>
    15ee:	c519                	beqz	a0,15fc <SD_ReadMultiBlocks+0x22e>
    15f0:	02000513          	li	a0,32
    15f4:	256010ef          	jal	ra,284a <SDIO_ClearFlag>
    15f8:	4419                	li	s0,6
    15fa:	b58d                	j	145c <SD_ReadMultiBlocks+0x8e>
    15fc:	20000513          	li	a0,512
    1600:	23c010ef          	jal	ra,283c <SDIO_GetFlagStatus>
    1604:	c10d                	beqz	a0,1626 <SD_ReadMultiBlocks+0x258>
    1606:	20000513          	li	a0,512
    160a:	240010ef          	jal	ra,284a <SDIO_ClearFlag>
    160e:	441d                	li	s0,7
    1610:	b5b1                	j	145c <SD_ReadMultiBlocks+0x8e>
    1612:	00092403          	lw	s0,0(s2)
    1616:	212010ef          	jal	ra,2828 <SDIO_ReadData>
    161a:	00092783          	lw	a5,0(s2)
    161e:	c008                	sw	a0,0(s0)
    1620:	0791                	addi	a5,a5,4
    1622:	00f92023          	sw	a5,0(s2)
    1626:	00200537          	lui	a0,0x200
    162a:	212010ef          	jal	ra,283c <SDIO_GetFlagStatus>
    162e:	f175                	bnez	a0,1612 <SD_ReadMultiBlocks+0x244>
    1630:	10000513          	li	a0,256
    1634:	208010ef          	jal	ra,283c <SDIO_GetFlagStatus>
    1638:	e519                	bnez	a0,1646 <SD_ReadMultiBlocks+0x278>
    163a:	5ff00513          	li	a0,1535
    163e:	20c010ef          	jal	ra,284a <SDIO_ClearFlag>
    1642:	4401                	li	s0,0
    1644:	bd21                	j	145c <SD_ReadMultiBlocks+0x8e>
    1646:	4792                	lw	a5,4(sp)
    1648:	2398                	lbu	a4,0(a5)
    164a:	4789                	li	a5,2
    164c:	fee7e7e3          	bltu	a5,a4,163a <SD_ReadMultiBlocks+0x26c>
    1650:	47b1                	li	a5,12
    1652:	00f9a223          	sw	a5,4(s3) # 40018004 <_eusrstack+0x20010004>
    1656:	04000793          	li	a5,64
    165a:	00f9a423          	sw	a5,8(s3)
    165e:	40000793          	li	a5,1024
    1662:	00f9a823          	sw	a5,16(s3)
    1666:	cf018513          	addi	a0,gp,-784 # 200005e8 <SDIO_CmdInitStructure>
    166a:	0009a023          	sw	zero,0(s3)
    166e:	0009a623          	sw	zero,12(s3)
    1672:	16e010ef          	jal	ra,27e0 <SDIO_SendCommand>
    1676:	4531                	li	a0,12
    1678:	91eff0ef          	jal	ra,796 <CmdResp1Error>
    167c:	842a                	mv	s0,a0
    167e:	dd55                	beqz	a0,163a <SD_ReadMultiBlocks+0x26c>
    1680:	bbf1                	j	145c <SD_ReadMultiBlocks+0x8e>
    1682:	df1d                	beqz	a4,15c0 <SD_ReadMultiBlocks+0x1f2>
    1684:	00094703          	lbu	a4,0(s2)
    1688:	0ff77713          	andi	a4,a4,255
    168c:	e319                	bnez	a4,1692 <SD_ReadMultiBlocks+0x2c4>
    168e:	4398                	lw	a4,0(a5)
    1690:	db75                	beqz	a4,1684 <SD_ReadMultiBlocks+0x2b6>
    1692:	4398                	lw	a4,0(a5)
    1694:	dc0704e3          	beqz	a4,145c <SD_ReadMultiBlocks+0x8e>
    1698:	4380                	lw	s0,0(a5)
    169a:	b3c9                	j	145c <SD_ReadMultiBlocks+0x8e>
    169c:	842a                	mv	s0,a0
    169e:	bb7d                	j	145c <SD_ReadMultiBlocks+0x8e>

000016a0 <SD_WriteBlock>:
    16a0:	b21fe2ef          	jal	t0,1c0 <__riscv_save_12>
    16a4:	1101                	addi	sp,sp,-32
    16a6:	00010fa3          	sb	zero,31(sp)
    16aa:	e511                	bnez	a0,16b6 <SD_WriteBlock+0x16>
    16ac:	02600513          	li	a0,38
    16b0:	6105                	addi	sp,sp,32
    16b2:	b4bfe06f          	j	1fc <__riscv_restore_12>
    16b6:	c632                	sw	a2,12(sp)
    16b8:	40018437          	lui	s0,0x40018
    16bc:	f0418793          	addi	a5,gp,-252 # 200007fc <SDIO_DataInitStructure>
    16c0:	02042623          	sw	zero,44(s0) # 4001802c <_eusrstack+0x2001002c>
    16c4:	577d                	li	a4,-1
    16c6:	c398                	sw	a4,0(a5)
    16c8:	84aa                	mv	s1,a0
    16ca:	4705                	li	a4,1
    16cc:	f0418513          	addi	a0,gp,-252 # 200007fc <SDIO_DataInitStructure>
    16d0:	cbd8                	sw	a4,20(a5)
    16d2:	0007a423          	sw	zero,8(a5)
    16d6:	0007a223          	sw	zero,4(a5)
    16da:	0007a623          	sw	zero,12(a5)
    16de:	0007a823          	sw	zero,16(a5)
    16e2:	8bae                	mv	s7,a1
    16e4:	8b36                	mv	s6,a3
    16e6:	11c010ef          	jal	ra,2802 <SDIO_DataConfig>
    16ea:	485c                	lw	a5,20(s0)
    16ec:	f0418a13          	addi	s4,gp,-252 # 200007fc <SDIO_DataInitStructure>
    16f0:	4539                	li	a0,14
    16f2:	00679713          	slli	a4,a5,0x6
    16f6:	fa074de3          	bltz	a4,16b0 <SD_WriteBlock+0x10>
    16fa:	81c1c703          	lbu	a4,-2020(gp) # 20000114 <CardType>
    16fe:	4789                	li	a5,2
    1700:	4632                	lw	a2,12(sp)
    1702:	08f71e63          	bne	a4,a5,179e <SD_WriteBlock+0xfe>
    1706:	065e                	slli	a2,a2,0x17
    1708:	009bdb93          	srli	s7,s7,0x9
    170c:	01766bb3          	or	s7,a2,s7
    1710:	20000a93          	li	s5,512
    1714:	8556                	mv	a0,s5
    1716:	9f1ff0ef          	jal	ra,1106 <convert_from_bytes_to_power_of_two>
    171a:	cf018793          	addi	a5,gp,-784 # 200005e8 <SDIO_CmdInitStructure>
    171e:	4741                	li	a4,16
    1720:	8caa                	mv	s9,a0
    1722:	04000d93          	li	s11,64
    1726:	cf018513          	addi	a0,gp,-784 # 200005e8 <SDIO_CmdInitStructure>
    172a:	40000d13          	li	s10,1024
    172e:	0157a023          	sw	s5,0(a5)
    1732:	c3d8                	sw	a4,4(a5)
    1734:	01b7a423          	sw	s11,8(a5)
    1738:	0007a623          	sw	zero,12(a5)
    173c:	01a7a823          	sw	s10,16(a5)
    1740:	0a0010ef          	jal	ra,27e0 <SDIO_SendCommand>
    1744:	4541                	li	a0,16
    1746:	850ff0ef          	jal	ra,796 <CmdResp1Error>
    174a:	cf018413          	addi	s0,gp,-784 # 200005e8 <SDIO_CmdInitStructure>
    174e:	f12d                	bnez	a0,16b0 <SD_WriteBlock+0x10>
    1750:	8201a783          	lw	a5,-2016(gp) # 20000118 <RCA>
    1754:	cf018513          	addi	a0,gp,-784 # 200005e8 <SDIO_CmdInitStructure>
    1758:	01a42823          	sw	s10,16(s0)
    175c:	07c2                	slli	a5,a5,0x10
    175e:	c01c                	sw	a5,0(s0)
    1760:	47b5                	li	a5,13
    1762:	c05c                	sw	a5,4(s0)
    1764:	01b42423          	sw	s11,8(s0)
    1768:	00042623          	sw	zero,12(s0)
    176c:	074010ef          	jal	ra,27e0 <SDIO_SendCommand>
    1770:	4535                	li	a0,13
    1772:	824ff0ef          	jal	ra,796 <CmdResp1Error>
    1776:	82018d13          	addi	s10,gp,-2016 # 20000118 <RCA>
    177a:	f91d                	bnez	a0,16b0 <SD_WriteBlock+0x10>
    177c:	400187b7          	lui	a5,0x40018
    1780:	4bdc                	lw	a5,20(a5)
    1782:	5c7d                	li	s8,-1
    1784:	4db5                	li	s11,13
    1786:	1007f793          	andi	a5,a5,256
    178a:	04000713          	li	a4,64
    178e:	40000693          	li	a3,1024
    1792:	efa9                	bnez	a5,17ec <SD_WriteBlock+0x14c>
    1794:	020c1463          	bnez	s8,17bc <SD_WriteBlock+0x11c>
    1798:	02900513          	li	a0,41
    179c:	bf11                	j	16b0 <SD_WriteBlock+0x10>
    179e:	fffb0793          	addi	a5,s6,-1
    17a2:	01079693          	slli	a3,a5,0x10
    17a6:	82c1                	srli	a3,a3,0x10
    17a8:	7ff00713          	li	a4,2047
    17ac:	f0d760e3          	bltu	a4,a3,16ac <SD_WriteBlock+0xc>
    17b0:	0167f7b3          	and	a5,a5,s6
    17b4:	ee079ce3          	bnez	a5,16ac <SD_WriteBlock+0xc>
    17b8:	8ada                	mv	s5,s6
    17ba:	bfa9                	j	1714 <SD_WriteBlock+0x74>
    17bc:	000d2783          	lw	a5,0(s10)
    17c0:	cf018513          	addi	a0,gp,-784 # 200005e8 <SDIO_CmdInitStructure>
    17c4:	01b42223          	sw	s11,4(s0)
    17c8:	07c2                	slli	a5,a5,0x10
    17ca:	c01c                	sw	a5,0(s0)
    17cc:	c418                	sw	a4,8(s0)
    17ce:	00042623          	sw	zero,12(s0)
    17d2:	c814                	sw	a3,16(s0)
    17d4:	00c010ef          	jal	ra,27e0 <SDIO_SendCommand>
    17d8:	4535                	li	a0,13
    17da:	1c7d                	addi	s8,s8,-1
    17dc:	fbbfe0ef          	jal	ra,796 <CmdResp1Error>
    17e0:	ec0518e3          	bnez	a0,16b0 <SD_WriteBlock+0x10>
    17e4:	40018637          	lui	a2,0x40018
    17e8:	4a5c                	lw	a5,20(a2)
    17ea:	bf71                	j	1786 <SD_WriteBlock+0xe6>
    17ec:	02900513          	li	a0,41
    17f0:	ec0c00e3          	beqz	s8,16b0 <SD_WriteBlock+0x10>
    17f4:	47e1                	li	a5,24
    17f6:	c05c                	sw	a5,4(s0)
    17f8:	04000793          	li	a5,64
    17fc:	c41c                	sw	a5,8(s0)
    17fe:	cf018513          	addi	a0,gp,-784 # 200005e8 <SDIO_CmdInitStructure>
    1802:	40000793          	li	a5,1024
    1806:	01742023          	sw	s7,0(s0)
    180a:	00042623          	sw	zero,12(s0)
    180e:	c81c                	sw	a5,16(s0)
    1810:	7d1000ef          	jal	ra,27e0 <SDIO_SendCommand>
    1814:	4561                	li	a0,24
    1816:	f81fe0ef          	jal	ra,796 <CmdResp1Error>
    181a:	e8051be3          	bnez	a0,16b0 <SD_WriteBlock+0x10>
    181e:	57fd                	li	a5,-1
    1820:	82418913          	addi	s2,gp,-2012 # 2000011c <StopCondition>
    1824:	0c92                	slli	s9,s9,0x4
    1826:	4405                	li	s0,1
    1828:	f0418513          	addi	a0,gp,-252 # 200007fc <SDIO_DataInitStructure>
    182c:	00fa2023          	sw	a5,0(s4) # 800000 <_data_lma+0x7ea6d0>
    1830:	00090023          	sb	zero,0(s2)
    1834:	019a2423          	sw	s9,8(s4)
    1838:	015a2223          	sw	s5,4(s4)
    183c:	008a2a23          	sw	s0,20(s4)
    1840:	000a2623          	sw	zero,12(s4)
    1844:	000a2823          	sw	zero,16(s4)
    1848:	7bb000ef          	jal	ra,2802 <SDIO_DataConfig>
    184c:	81d1c783          	lbu	a5,-2019(gp) # 20000115 <DeviceMode>
    1850:	0c078f63          	beqz	a5,192e <SD_WriteBlock+0x28e>
    1854:	12879663          	bne	a5,s0,1980 <SD_WriteBlock+0x2e0>
    1858:	8526                	mv	a0,s1
    185a:	4641                	li	a2,16
    185c:	85d6                	mv	a1,s5
    185e:	8bfff0ef          	jal	ra,111c <SD_DMA_Config>
    1862:	82818793          	addi	a5,gp,-2008 # 20000120 <TransferError>
    1866:	0007a023          	sw	zero,0(a5) # 40018000 <_eusrstack+0x20010000>
    186a:	82518793          	addi	a5,gp,-2011 # 2000011d <TransferEnd>
    186e:	00078023          	sb	zero,0(a5)
    1872:	00090023          	sb	zero,0(s2)
    1876:	400187b7          	lui	a5,0x40018
    187a:	5fd8                	lw	a4,60(a5)
    187c:	40020537          	lui	a0,0x40020
    1880:	4585                	li	a1,1
    1882:	31a76713          	ori	a4,a4,794
    1886:	dfd8                	sw	a4,60(a5)
    1888:	57d8                	lw	a4,44(a5)
    188a:	44450513          	addi	a0,a0,1092 # 40020444 <_eusrstack+0x20018444>
    188e:	82518493          	addi	s1,gp,-2011 # 2000011d <TransferEnd>
    1892:	00876713          	ori	a4,a4,8
    1896:	d7d8                	sw	a4,44(a5)
    1898:	1f5000ef          	jal	ra,228c <DMA_Cmd>
    189c:	56fd                	li	a3,-1
    189e:	82818793          	addi	a5,gp,-2008 # 20000120 <TransferError>
    18a2:	40020737          	lui	a4,0x40020
    18a6:	40072603          	lw	a2,1024(a4) # 40020400 <_eusrstack+0x20018400>
    18aa:	01261593          	slli	a1,a2,0x12
    18ae:	1005c263          	bltz	a1,19b2 <SD_WriteBlock+0x312>
    18b2:	0e069e63          	bnez	a3,19ae <SD_WriteBlock+0x30e>
    18b6:	f84ff0ef          	jal	ra,103a <SD_Init>
    18ba:	a0b5                	j	1926 <SD_WriteBlock+0x286>
    18bc:	6511                	lui	a0,0x4
    18be:	77f000ef          	jal	ra,283c <SDIO_GetFlagStatus>
    18c2:	c12d                	beqz	a0,1924 <SD_WriteBlock+0x284>
    18c4:	412b0733          	sub	a4,s6,s2
    18c8:	04eae263          	bltu	s5,a4,190c <SD_WriteBlock+0x26c>
    18cc:	00275793          	srli	a5,a4,0x2
    18d0:	8b0d                	andi	a4,a4,3
    18d2:	c311                	beqz	a4,18d6 <SD_WriteBlock+0x236>
    18d4:	0785                	addi	a5,a5,1
    18d6:	00279413          	slli	s0,a5,0x2
    18da:	00848bb3          	add	s7,s1,s0
    18de:	03749263          	bne	s1,s7,1902 <SD_WriteBlock+0x262>
    18e2:	9922                	add	s2,s2,s0
    18e4:	fffa0413          	addi	s0,s4,-1
    18e8:	0349a783          	lw	a5,52(s3)
    18ec:	61a7f793          	andi	a5,a5,1562
    18f0:	d7f1                	beqz	a5,18bc <SD_WriteBlock+0x21c>
    18f2:	4521                	li	a0,8
    18f4:	749000ef          	jal	ra,283c <SDIO_GetFlagStatus>
    18f8:	c139                	beqz	a0,193e <SD_WriteBlock+0x29e>
    18fa:	4521                	li	a0,8
    18fc:	74f000ef          	jal	ra,284a <SDIO_ClearFlag>
    1900:	a01d                	j	1926 <SD_WriteBlock+0x286>
    1902:	4088                	lw	a0,0(s1)
    1904:	0491                	addi	s1,s1,4
    1906:	72d000ef          	jal	ra,2832 <SDIO_WriteData>
    190a:	bfd1                	j	18de <SD_WriteBlock+0x23e>
    190c:	8426                	mv	s0,s1
    190e:	02048493          	addi	s1,s1,32 # 40018020 <_eusrstack+0x20010020>
    1912:	4008                	lw	a0,0(s0)
    1914:	0411                	addi	s0,s0,4
    1916:	71d000ef          	jal	ra,2832 <SDIO_WriteData>
    191a:	fe849ce3          	bne	s1,s0,1912 <SD_WriteBlock+0x272>
    191e:	02090913          	addi	s2,s2,32
    1922:	b7c9                	j	18e4 <SD_WriteBlock+0x244>
    1924:	e019                	bnez	s0,192a <SD_WriteBlock+0x28a>
    1926:	4511                	li	a0,4
    1928:	b361                	j	16b0 <SD_WriteBlock+0x10>
    192a:	147d                	addi	s0,s0,-1
    192c:	bf75                	j	18e8 <SD_WriteBlock+0x248>
    192e:	4901                	li	s2,0
    1930:	547d                	li	s0,-1
    1932:	400189b7          	lui	s3,0x40018
    1936:	4afd                	li	s5,31
    1938:	40000a37          	lui	s4,0x40000
    193c:	b775                	j	18e8 <SD_WriteBlock+0x248>
    193e:	4509                	li	a0,2
    1940:	6fd000ef          	jal	ra,283c <SDIO_GetFlagStatus>
    1944:	c511                	beqz	a0,1950 <SD_WriteBlock+0x2b0>
    1946:	4509                	li	a0,2
    1948:	703000ef          	jal	ra,284a <SDIO_ClearFlag>
    194c:	4509                	li	a0,2
    194e:	b38d                	j	16b0 <SD_WriteBlock+0x10>
    1950:	4541                	li	a0,16
    1952:	6eb000ef          	jal	ra,283c <SDIO_GetFlagStatus>
    1956:	c511                	beqz	a0,1962 <SD_WriteBlock+0x2c2>
    1958:	4541                	li	a0,16
    195a:	6f1000ef          	jal	ra,284a <SDIO_ClearFlag>
    195e:	4515                	li	a0,5
    1960:	bb81                	j	16b0 <SD_WriteBlock+0x10>
    1962:	20000513          	li	a0,512
    1966:	6d7000ef          	jal	ra,283c <SDIO_GetFlagStatus>
    196a:	c519                	beqz	a0,1978 <SD_WriteBlock+0x2d8>
    196c:	20000513          	li	a0,512
    1970:	6db000ef          	jal	ra,284a <SDIO_ClearFlag>
    1974:	451d                	li	a0,7
    1976:	bb2d                	j	16b0 <SD_WriteBlock+0x10>
    1978:	5ff00793          	li	a5,1535
    197c:	02f9ac23          	sw	a5,56(s3) # 40018038 <_eusrstack+0x20010038>
    1980:	5ff00513          	li	a0,1535
    1984:	6c7000ef          	jal	ra,284a <SDIO_ClearFlag>
    1988:	01f10513          	addi	a0,sp,31
    198c:	b8cff0ef          	jal	ra,d18 <IsCardProgramming>
    1990:	4405                	li	s0,1
    1992:	d0051fe3          	bnez	a0,16b0 <SD_WriteBlock+0x10>
    1996:	01f14783          	lbu	a5,31(sp)
    199a:	17e9                	addi	a5,a5,-6
    199c:	0ff7f793          	andi	a5,a5,255
    19a0:	d0f468e3          	bltu	s0,a5,16b0 <SD_WriteBlock+0x10>
    19a4:	01f10513          	addi	a0,sp,31
    19a8:	b70ff0ef          	jal	ra,d18 <IsCardProgramming>
    19ac:	b7dd                	j	1992 <SD_WriteBlock+0x2f2>
    19ae:	16fd                	addi	a3,a3,-1
    19b0:	bddd                	j	18a6 <SD_WriteBlock+0x206>
    19b2:	577d                	li	a4,-1
    19b4:	f00681e3          	beqz	a3,18b6 <SD_WriteBlock+0x216>
    19b8:	2094                	lbu	a3,0(s1)
    19ba:	0ff6f693          	andi	a3,a3,255
    19be:	e691                	bnez	a3,19ca <SD_WriteBlock+0x32a>
    19c0:	4394                	lw	a3,0(a5)
    19c2:	e681                	bnez	a3,19ca <SD_WriteBlock+0x32a>
    19c4:	d32d                	beqz	a4,1926 <SD_WriteBlock+0x286>
    19c6:	177d                	addi	a4,a4,-1
    19c8:	bfc5                	j	19b8 <SD_WriteBlock+0x318>
    19ca:	df31                	beqz	a4,1926 <SD_WriteBlock+0x286>
    19cc:	4398                	lw	a4,0(a5)
    19ce:	db4d                	beqz	a4,1980 <SD_WriteBlock+0x2e0>
    19d0:	4388                	lw	a0,0(a5)
    19d2:	b9f9                	j	16b0 <SD_WriteBlock+0x10>

000019d4 <SD_WriteMultiBlocks>:
    19d4:	fecfe2ef          	jal	t0,1c0 <__riscv_save_12>
    19d8:	1101                	addi	sp,sp,-32
    19da:	00010fa3          	sb	zero,31(sp)
    19de:	e511                	bnez	a0,19ea <SD_WriteMultiBlocks+0x16>
    19e0:	02600513          	li	a0,38
    19e4:	6105                	addi	sp,sp,32
    19e6:	817fe06f          	j	1fc <__riscv_restore_12>
    19ea:	c632                	sw	a2,12(sp)
    19ec:	40018437          	lui	s0,0x40018
    19f0:	f0418793          	addi	a5,gp,-252 # 200007fc <SDIO_DataInitStructure>
    19f4:	02042623          	sw	zero,44(s0) # 4001802c <_eusrstack+0x2001002c>
    19f8:	89ba                	mv	s3,a4
    19fa:	577d                	li	a4,-1
    19fc:	c398                	sw	a4,0(a5)
    19fe:	84aa                	mv	s1,a0
    1a00:	4705                	li	a4,1
    1a02:	f0418513          	addi	a0,gp,-252 # 200007fc <SDIO_DataInitStructure>
    1a06:	cbd8                	sw	a4,20(a5)
    1a08:	0007a423          	sw	zero,8(a5) # 40018008 <_eusrstack+0x20010008>
    1a0c:	0007a223          	sw	zero,4(a5)
    1a10:	0007a623          	sw	zero,12(a5)
    1a14:	0007a823          	sw	zero,16(a5)
    1a18:	8bae                	mv	s7,a1
    1a1a:	8c36                	mv	s8,a3
    1a1c:	5e7000ef          	jal	ra,2802 <SDIO_DataConfig>
    1a20:	485c                	lw	a5,20(s0)
    1a22:	f0418a93          	addi	s5,gp,-252 # 200007fc <SDIO_DataInitStructure>
    1a26:	4539                	li	a0,14
    1a28:	00679713          	slli	a4,a5,0x6
    1a2c:	fa074ce3          	bltz	a4,19e4 <SD_WriteMultiBlocks+0x10>
    1a30:	81c1c703          	lbu	a4,-2020(gp) # 20000114 <CardType>
    1a34:	4789                	li	a5,2
    1a36:	81c18b13          	addi	s6,gp,-2020 # 20000114 <CardType>
    1a3a:	4632                	lw	a2,12(sp)
    1a3c:	0ef71963          	bne	a4,a5,1b2e <SD_WriteMultiBlocks+0x15a>
    1a40:	065e                	slli	a2,a2,0x17
    1a42:	009bdb93          	srli	s7,s7,0x9
    1a46:	01766bb3          	or	s7,a2,s7
    1a4a:	20000d13          	li	s10,512
    1a4e:	856a                	mv	a0,s10
    1a50:	eb6ff0ef          	jal	ra,1106 <convert_from_bytes_to_power_of_two>
    1a54:	cf018793          	addi	a5,gp,-784 # 200005e8 <SDIO_CmdInitStructure>
    1a58:	4741                	li	a4,16
    1a5a:	c62a                	sw	a0,12(sp)
    1a5c:	04000c93          	li	s9,64
    1a60:	cf018513          	addi	a0,gp,-784 # 200005e8 <SDIO_CmdInitStructure>
    1a64:	40000d93          	li	s11,1024
    1a68:	01a7a023          	sw	s10,0(a5)
    1a6c:	c3d8                	sw	a4,4(a5)
    1a6e:	0197a423          	sw	s9,8(a5)
    1a72:	0007a623          	sw	zero,12(a5)
    1a76:	01b7a823          	sw	s11,16(a5)
    1a7a:	567000ef          	jal	ra,27e0 <SDIO_SendCommand>
    1a7e:	4541                	li	a0,16
    1a80:	d17fe0ef          	jal	ra,796 <CmdResp1Error>
    1a84:	cf018413          	addi	s0,gp,-784 # 200005e8 <SDIO_CmdInitStructure>
    1a88:	fd31                	bnez	a0,19e4 <SD_WriteMultiBlocks+0x10>
    1a8a:	4785                	li	a5,1
    1a8c:	1d37f063          	bgeu	a5,s3,1c4c <SD_WriteMultiBlocks+0x278>
    1a90:	033d0d33          	mul	s10,s10,s3
    1a94:	020007b7          	lui	a5,0x2000
    1a98:	f4fd74e3          	bgeu	s10,a5,19e0 <SD_WriteMultiBlocks+0xc>
    1a9c:	000b4683          	lbu	a3,0(s6)
    1aa0:	4789                	li	a5,2
    1aa2:	0ad7f563          	bgeu	a5,a3,1b4c <SD_WriteMultiBlocks+0x178>
    1aa6:	47e5                	li	a5,25
    1aa8:	c05c                	sw	a5,4(s0)
    1aaa:	04000793          	li	a5,64
    1aae:	c41c                	sw	a5,8(s0)
    1ab0:	cf018513          	addi	a0,gp,-784 # 200005e8 <SDIO_CmdInitStructure>
    1ab4:	40000793          	li	a5,1024
    1ab8:	01742023          	sw	s7,0(s0)
    1abc:	00042623          	sw	zero,12(s0)
    1ac0:	c81c                	sw	a5,16(s0)
    1ac2:	51f000ef          	jal	ra,27e0 <SDIO_SendCommand>
    1ac6:	4565                	li	a0,25
    1ac8:	ccffe0ef          	jal	ra,796 <CmdResp1Error>
    1acc:	f0051ce3          	bnez	a0,19e4 <SD_WriteMultiBlocks+0x10>
    1ad0:	47b2                	lw	a5,12(sp)
    1ad2:	f0418513          	addi	a0,gp,-252 # 200007fc <SDIO_DataInitStructure>
    1ad6:	4b85                	li	s7,1
    1ad8:	00479c93          	slli	s9,a5,0x4
    1adc:	57fd                	li	a5,-1
    1ade:	00faa023          	sw	a5,0(s5)
    1ae2:	019aa423          	sw	s9,8(s5)
    1ae6:	01aaa223          	sw	s10,4(s5)
    1aea:	017aaa23          	sw	s7,20(s5)
    1aee:	000aa623          	sw	zero,12(s5)
    1af2:	000aa823          	sw	zero,16(s5)
    1af6:	50d000ef          	jal	ra,2802 <SDIO_DataConfig>
    1afa:	81d1ca03          	lbu	s4,-2019(gp) # 20000115 <DeviceMode>
    1afe:	1a0a1863          	bnez	s4,1cae <SD_WriteMultiBlocks+0x2da>
    1b02:	033c09b3          	mul	s3,s8,s3
    1b06:	4a81                	li	s5,0
    1b08:	57fd                	li	a5,-1
    1b0a:	40018bb7          	lui	s7,0x40018
    1b0e:	4cfd                	li	s9,31
    1b10:	40000c37          	lui	s8,0x40000
    1b14:	034ba703          	lw	a4,52(s7) # 40018034 <_eusrstack+0x20010034>
    1b18:	31a77713          	andi	a4,a4,794
    1b1c:	c359                	beqz	a4,1ba2 <SD_WriteMultiBlocks+0x1ce>
    1b1e:	4521                	li	a0,8
    1b20:	51d000ef          	jal	ra,283c <SDIO_GetFlagStatus>
    1b24:	cd71                	beqz	a0,1c00 <SD_WriteMultiBlocks+0x22c>
    1b26:	4521                	li	a0,8
    1b28:	523000ef          	jal	ra,284a <SDIO_ClearFlag>
    1b2c:	a0f1                	j	1bf8 <SD_WriteMultiBlocks+0x224>
    1b2e:	fffc0793          	addi	a5,s8,-1 # 3fffffff <_eusrstack+0x1fff7fff>
    1b32:	01079693          	slli	a3,a5,0x10
    1b36:	82c1                	srli	a3,a3,0x10
    1b38:	7ff00713          	li	a4,2047
    1b3c:	ead762e3          	bltu	a4,a3,19e0 <SD_WriteMultiBlocks+0xc>
    1b40:	0187f7b3          	and	a5,a5,s8
    1b44:	e8079ee3          	bnez	a5,19e0 <SD_WriteMultiBlocks+0xc>
    1b48:	8d62                	mv	s10,s8
    1b4a:	b711                	j	1a4e <SD_WriteMultiBlocks+0x7a>
    1b4c:	8201a783          	lw	a5,-2016(gp) # 20000118 <RCA>
    1b50:	cf018513          	addi	a0,gp,-784 # 200005e8 <SDIO_CmdInitStructure>
    1b54:	01942423          	sw	s9,8(s0)
    1b58:	07c2                	slli	a5,a5,0x10
    1b5a:	c01c                	sw	a5,0(s0)
    1b5c:	03700793          	li	a5,55
    1b60:	c05c                	sw	a5,4(s0)
    1b62:	00042623          	sw	zero,12(s0)
    1b66:	01b42823          	sw	s11,16(s0)
    1b6a:	477000ef          	jal	ra,27e0 <SDIO_SendCommand>
    1b6e:	03700513          	li	a0,55
    1b72:	c25fe0ef          	jal	ra,796 <CmdResp1Error>
    1b76:	e60517e3          	bnez	a0,19e4 <SD_WriteMultiBlocks+0x10>
    1b7a:	47dd                	li	a5,23
    1b7c:	cf018513          	addi	a0,gp,-784 # 200005e8 <SDIO_CmdInitStructure>
    1b80:	01342023          	sw	s3,0(s0)
    1b84:	c05c                	sw	a5,4(s0)
    1b86:	01942423          	sw	s9,8(s0)
    1b8a:	00042623          	sw	zero,12(s0)
    1b8e:	01b42823          	sw	s11,16(s0)
    1b92:	44f000ef          	jal	ra,27e0 <SDIO_SendCommand>
    1b96:	455d                	li	a0,23
    1b98:	bfffe0ef          	jal	ra,796 <CmdResp1Error>
    1b9c:	f00505e3          	beqz	a0,1aa6 <SD_WriteMultiBlocks+0xd2>
    1ba0:	b591                	j	19e4 <SD_WriteMultiBlocks+0x10>
    1ba2:	034ba703          	lw	a4,52(s7)
    1ba6:	01171693          	slli	a3,a4,0x11
    1baa:	0406d663          	bgez	a3,1bf6 <SD_WriteMultiBlocks+0x222>
    1bae:	41598733          	sub	a4,s3,s5
    1bb2:	02ece663          	bltu	s9,a4,1bde <SD_WriteMultiBlocks+0x20a>
    1bb6:	00275793          	srli	a5,a4,0x2
    1bba:	8b0d                	andi	a4,a4,3
    1bbc:	c311                	beqz	a4,1bc0 <SD_WriteMultiBlocks+0x1ec>
    1bbe:	0785                	addi	a5,a5,1
    1bc0:	00279a13          	slli	s4,a5,0x2
    1bc4:	01448d33          	add	s10,s1,s4
    1bc8:	01a49663          	bne	s1,s10,1bd4 <SD_WriteMultiBlocks+0x200>
    1bcc:	9ad2                	add	s5,s5,s4
    1bce:	fffc0793          	addi	a5,s8,-1
    1bd2:	b789                	j	1b14 <SD_WriteMultiBlocks+0x140>
    1bd4:	4088                	lw	a0,0(s1)
    1bd6:	0491                	addi	s1,s1,4
    1bd8:	45b000ef          	jal	ra,2832 <SDIO_WriteData>
    1bdc:	b7f5                	j	1bc8 <SD_WriteMultiBlocks+0x1f4>
    1bde:	02048a13          	addi	s4,s1,32
    1be2:	4088                	lw	a0,0(s1)
    1be4:	0491                	addi	s1,s1,4
    1be6:	44d000ef          	jal	ra,2832 <SDIO_WriteData>
    1bea:	fe9a1ce3          	bne	s4,s1,1be2 <SD_WriteMultiBlocks+0x20e>
    1bee:	84d2                	mv	s1,s4
    1bf0:	020a8a93          	addi	s5,s5,32
    1bf4:	bfe9                	j	1bce <SD_WriteMultiBlocks+0x1fa>
    1bf6:	e399                	bnez	a5,1bfc <SD_WriteMultiBlocks+0x228>
    1bf8:	4511                	li	a0,4
    1bfa:	b3ed                	j	19e4 <SD_WriteMultiBlocks+0x10>
    1bfc:	17fd                	addi	a5,a5,-1
    1bfe:	bf19                	j	1b14 <SD_WriteMultiBlocks+0x140>
    1c00:	4509                	li	a0,2
    1c02:	43b000ef          	jal	ra,283c <SDIO_GetFlagStatus>
    1c06:	c511                	beqz	a0,1c12 <SD_WriteMultiBlocks+0x23e>
    1c08:	4509                	li	a0,2
    1c0a:	441000ef          	jal	ra,284a <SDIO_ClearFlag>
    1c0e:	4509                	li	a0,2
    1c10:	bbd1                	j	19e4 <SD_WriteMultiBlocks+0x10>
    1c12:	4541                	li	a0,16
    1c14:	429000ef          	jal	ra,283c <SDIO_GetFlagStatus>
    1c18:	c511                	beqz	a0,1c24 <SD_WriteMultiBlocks+0x250>
    1c1a:	4541                	li	a0,16
    1c1c:	42f000ef          	jal	ra,284a <SDIO_ClearFlag>
    1c20:	4515                	li	a0,5
    1c22:	b3c9                	j	19e4 <SD_WriteMultiBlocks+0x10>
    1c24:	20000513          	li	a0,512
    1c28:	415000ef          	jal	ra,283c <SDIO_GetFlagStatus>
    1c2c:	c519                	beqz	a0,1c3a <SD_WriteMultiBlocks+0x266>
    1c2e:	20000513          	li	a0,512
    1c32:	419000ef          	jal	ra,284a <SDIO_ClearFlag>
    1c36:	451d                	li	a0,7
    1c38:	b375                	j	19e4 <SD_WriteMultiBlocks+0x10>
    1c3a:	10000513          	li	a0,256
    1c3e:	3ff000ef          	jal	ra,283c <SDIO_GetFlagStatus>
    1c42:	ed05                	bnez	a0,1c7a <SD_WriteMultiBlocks+0x2a6>
    1c44:	5ff00513          	li	a0,1535
    1c48:	403000ef          	jal	ra,284a <SDIO_ClearFlag>
    1c4c:	5ff00513          	li	a0,1535
    1c50:	3fb000ef          	jal	ra,284a <SDIO_ClearFlag>
    1c54:	01f10513          	addi	a0,sp,31
    1c58:	8c0ff0ef          	jal	ra,d18 <IsCardProgramming>
    1c5c:	4405                	li	s0,1
    1c5e:	d80513e3          	bnez	a0,19e4 <SD_WriteMultiBlocks+0x10>
    1c62:	01f14783          	lbu	a5,31(sp)
    1c66:	17e9                	addi	a5,a5,-6
    1c68:	0ff7f793          	andi	a5,a5,255
    1c6c:	d6f46ce3          	bltu	s0,a5,19e4 <SD_WriteMultiBlocks+0x10>
    1c70:	01f10513          	addi	a0,sp,31
    1c74:	8a4ff0ef          	jal	ra,d18 <IsCardProgramming>
    1c78:	b7dd                	j	1c5e <SD_WriteMultiBlocks+0x28a>
    1c7a:	000b4703          	lbu	a4,0(s6)
    1c7e:	4789                	li	a5,2
    1c80:	fce7e2e3          	bltu	a5,a4,1c44 <SD_WriteMultiBlocks+0x270>
    1c84:	47b1                	li	a5,12
    1c86:	c05c                	sw	a5,4(s0)
    1c88:	04000793          	li	a5,64
    1c8c:	c41c                	sw	a5,8(s0)
    1c8e:	cf018513          	addi	a0,gp,-784 # 200005e8 <SDIO_CmdInitStructure>
    1c92:	40000793          	li	a5,1024
    1c96:	00042023          	sw	zero,0(s0)
    1c9a:	00042623          	sw	zero,12(s0)
    1c9e:	c81c                	sw	a5,16(s0)
    1ca0:	341000ef          	jal	ra,27e0 <SDIO_SendCommand>
    1ca4:	4531                	li	a0,12
    1ca6:	af1fe0ef          	jal	ra,796 <CmdResp1Error>
    1caa:	dd49                	beqz	a0,1c44 <SD_WriteMultiBlocks+0x270>
    1cac:	bb25                	j	19e4 <SD_WriteMultiBlocks+0x10>
    1cae:	f97a1fe3          	bne	s4,s7,1c4c <SD_WriteMultiBlocks+0x278>
    1cb2:	8526                	mv	a0,s1
    1cb4:	4641                	li	a2,16
    1cb6:	85ea                	mv	a1,s10
    1cb8:	c64ff0ef          	jal	ra,111c <SD_DMA_Config>
    1cbc:	82818793          	addi	a5,gp,-2008 # 20000120 <TransferError>
    1cc0:	0007a023          	sw	zero,0(a5) # 2000000 <_data_lma+0x1fea6d0>
    1cc4:	83418223          	sb	s4,-2012(gp) # 2000011c <StopCondition>
    1cc8:	82518793          	addi	a5,gp,-2011 # 2000011d <TransferEnd>
    1ccc:	00078023          	sb	zero,0(a5)
    1cd0:	400187b7          	lui	a5,0x40018
    1cd4:	5fd8                	lw	a4,60(a5)
    1cd6:	40020537          	lui	a0,0x40020
    1cda:	4585                	li	a1,1
    1cdc:	31a76713          	ori	a4,a4,794
    1ce0:	dfd8                	sw	a4,60(a5)
    1ce2:	57d8                	lw	a4,44(a5)
    1ce4:	44450513          	addi	a0,a0,1092 # 40020444 <_eusrstack+0x20018444>
    1ce8:	82518493          	addi	s1,gp,-2011 # 2000011d <TransferEnd>
    1cec:	00876713          	ori	a4,a4,8
    1cf0:	d7d8                	sw	a4,44(a5)
    1cf2:	2b69                	jal	228c <DMA_Cmd>
    1cf4:	56fd                	li	a3,-1
    1cf6:	82818793          	addi	a5,gp,-2008 # 20000120 <TransferError>
    1cfa:	40020737          	lui	a4,0x40020
    1cfe:	40072603          	lw	a2,1024(a4) # 40020400 <_eusrstack+0x20018400>
    1d02:	01261593          	slli	a1,a2,0x12
    1d06:	0005c863          	bltz	a1,1d16 <SD_WriteMultiBlocks+0x342>
    1d0a:	e681                	bnez	a3,1d12 <SD_WriteMultiBlocks+0x33e>
    1d0c:	b2eff0ef          	jal	ra,103a <SD_Init>
    1d10:	b5e5                	j	1bf8 <SD_WriteMultiBlocks+0x224>
    1d12:	16fd                	addi	a3,a3,-1
    1d14:	b7ed                	j	1cfe <SD_WriteMultiBlocks+0x32a>
    1d16:	577d                	li	a4,-1
    1d18:	daf5                	beqz	a3,1d0c <SD_WriteMultiBlocks+0x338>
    1d1a:	2094                	lbu	a3,0(s1)
    1d1c:	0ff6f693          	andi	a3,a3,255
    1d20:	e699                	bnez	a3,1d2e <SD_WriteMultiBlocks+0x35a>
    1d22:	4394                	lw	a3,0(a5)
    1d24:	e689                	bnez	a3,1d2e <SD_WriteMultiBlocks+0x35a>
    1d26:	ec0709e3          	beqz	a4,1bf8 <SD_WriteMultiBlocks+0x224>
    1d2a:	177d                	addi	a4,a4,-1
    1d2c:	b7fd                	j	1d1a <SD_WriteMultiBlocks+0x346>
    1d2e:	ec0705e3          	beqz	a4,1bf8 <SD_WriteMultiBlocks+0x224>
    1d32:	4398                	lw	a4,0(a5)
    1d34:	f0070ce3          	beqz	a4,1c4c <SD_WriteMultiBlocks+0x278>
    1d38:	4388                	lw	a0,0(a5)
    1d3a:	b16d                	j	19e4 <SD_WriteMultiBlocks+0x10>

00001d3c <SD_ReadDisk>:
    1d3c:	c9afe2ef          	jal	t0,1d6 <__riscv_save_4>
    1d40:	00357793          	andi	a5,a0,3
    1d44:	8732                	mv	a4,a2
    1d46:	0175d613          	srli	a2,a1,0x17
    1d4a:	05a6                	slli	a1,a1,0x9
    1d4c:	c7b9                	beqz	a5,1d9a <SD_ReadDisk+0x5e>
    1d4e:	0726                	slli	a4,a4,0x9
    1d50:	89aa                	mv	s3,a0
    1d52:	842e                	mv	s0,a1
    1d54:	84b2                	mv	s1,a2
    1d56:	00e50933          	add	s2,a0,a4
    1d5a:	4a01                	li	s4,0
    1d5c:	01299563          	bne	s3,s2,1d66 <SD_ReadDisk+0x2a>
    1d60:	8552                	mv	a0,s4
    1d62:	ca8fe06f          	j	20a <__riscv_restore_4>
    1d66:	85a2                	mv	a1,s0
    1d68:	8626                	mv	a2,s1
    1d6a:	20000693          	li	a3,512
    1d6e:	d0418513          	addi	a0,gp,-764 # 200005fc <SDIO_DATA_BUFFER>
    1d72:	c20ff0ef          	jal	ra,1192 <SD_ReadBlock>
    1d76:	0ff57a13          	andi	s4,a0,255
    1d7a:	20000613          	li	a2,512
    1d7e:	854e                	mv	a0,s3
    1d80:	d0418593          	addi	a1,gp,-764 # 200005fc <SDIO_DATA_BUFFER>
    1d84:	2f3030ef          	jal	ra,5876 <memcpy>
    1d88:	20040793          	addi	a5,s0,512
    1d8c:	0087b733          	sltu	a4,a5,s0
    1d90:	20098993          	addi	s3,s3,512
    1d94:	843e                	mv	s0,a5
    1d96:	94ba                	add	s1,s1,a4
    1d98:	b7d1                	j	1d5c <SD_ReadDisk+0x20>
    1d9a:	4785                	li	a5,1
    1d9c:	20000693          	li	a3,512
    1da0:	00f71763          	bne	a4,a5,1dae <SD_ReadDisk+0x72>
    1da4:	beeff0ef          	jal	ra,1192 <SD_ReadBlock>
    1da8:	0ff57a13          	andi	s4,a0,255
    1dac:	bf55                	j	1d60 <SD_ReadDisk+0x24>
    1dae:	e20ff0ef          	jal	ra,13ce <SD_ReadMultiBlocks>
    1db2:	bfdd                	j	1da8 <SD_ReadDisk+0x6c>

00001db4 <SD_WriteDisk>:
    1db4:	c22fe2ef          	jal	t0,1d6 <__riscv_save_4>
    1db8:	00357793          	andi	a5,a0,3
    1dbc:	8732                	mv	a4,a2
    1dbe:	0175d613          	srli	a2,a1,0x17
    1dc2:	05a6                	slli	a1,a1,0x9
    1dc4:	c7b1                	beqz	a5,1e10 <SD_WriteDisk+0x5c>
    1dc6:	0726                	slli	a4,a4,0x9
    1dc8:	89aa                	mv	s3,a0
    1dca:	00e50933          	add	s2,a0,a4
    1dce:	842e                	mv	s0,a1
    1dd0:	84b2                	mv	s1,a2
    1dd2:	4501                	li	a0,0
    1dd4:	01299463          	bne	s3,s2,1ddc <SD_WriteDisk+0x28>
    1dd8:	c32fe06f          	j	20a <__riscv_restore_4>
    1ddc:	85ce                	mv	a1,s3
    1dde:	20000613          	li	a2,512
    1de2:	d0418513          	addi	a0,gp,-764 # 200005fc <SDIO_DATA_BUFFER>
    1de6:	291030ef          	jal	ra,5876 <memcpy>
    1dea:	85a2                	mv	a1,s0
    1dec:	8626                	mv	a2,s1
    1dee:	20000693          	li	a3,512
    1df2:	d0418513          	addi	a0,gp,-764 # 200005fc <SDIO_DATA_BUFFER>
    1df6:	8abff0ef          	jal	ra,16a0 <SD_WriteBlock>
    1dfa:	20040793          	addi	a5,s0,512
    1dfe:	0087b733          	sltu	a4,a5,s0
    1e02:	0ff57513          	andi	a0,a0,255
    1e06:	20098993          	addi	s3,s3,512
    1e0a:	843e                	mv	s0,a5
    1e0c:	94ba                	add	s1,s1,a4
    1e0e:	b7d9                	j	1dd4 <SD_WriteDisk+0x20>
    1e10:	4785                	li	a5,1
    1e12:	20000693          	li	a3,512
    1e16:	00f71763          	bne	a4,a5,1e24 <SD_WriteDisk+0x70>
    1e1a:	887ff0ef          	jal	ra,16a0 <SD_WriteBlock>
    1e1e:	0ff57513          	andi	a0,a0,255
    1e22:	bf5d                	j	1dd8 <SD_WriteDisk+0x24>
    1e24:	bb1ff0ef          	jal	ra,19d4 <SD_WriteMultiBlocks>
    1e28:	bfdd                	j	1e1e <SD_WriteDisk+0x6a>

00001e2a <SystemInit>:
    1e2a:	400217b7          	lui	a5,0x40021
    1e2e:	4398                	lw	a4,0(a5)
    1e30:	f0ff06b7          	lui	a3,0xf0ff0
    1e34:	1141                	addi	sp,sp,-16
    1e36:	00176713          	ori	a4,a4,1
    1e3a:	c398                	sw	a4,0(a5)
    1e3c:	43d8                	lw	a4,4(a5)
    1e3e:	00020637          	lui	a2,0x20
    1e42:	8f75                	and	a4,a4,a3
    1e44:	c3d8                	sw	a4,4(a5)
    1e46:	4398                	lw	a4,0(a5)
    1e48:	fef706b7          	lui	a3,0xfef70
    1e4c:	16fd                	addi	a3,a3,-1
    1e4e:	8f75                	and	a4,a4,a3
    1e50:	c398                	sw	a4,0(a5)
    1e52:	4398                	lw	a4,0(a5)
    1e54:	fffc06b7          	lui	a3,0xfffc0
    1e58:	16fd                	addi	a3,a3,-1
    1e5a:	8f75                	and	a4,a4,a3
    1e5c:	c398                	sw	a4,0(a5)
    1e5e:	43d8                	lw	a4,4(a5)
    1e60:	ff0106b7          	lui	a3,0xff010
    1e64:	16fd                	addi	a3,a3,-1
    1e66:	8f75                	and	a4,a4,a3
    1e68:	c3d8                	sw	a4,4(a5)
    1e6a:	4398                	lw	a4,0(a5)
    1e6c:	ec0006b7          	lui	a3,0xec000
    1e70:	16fd                	addi	a3,a3,-1
    1e72:	8f75                	and	a4,a4,a3
    1e74:	c398                	sw	a4,0(a5)
    1e76:	00ff0737          	lui	a4,0xff0
    1e7a:	c798                	sw	a4,8(a5)
    1e7c:	0207a623          	sw	zero,44(a5) # 4002102c <_eusrstack+0x2001902c>
    1e80:	c402                	sw	zero,8(sp)
    1e82:	c602                	sw	zero,12(sp)
    1e84:	4398                	lw	a4,0(a5)
    1e86:	66c1                	lui	a3,0x10
    1e88:	8f55                	or	a4,a4,a3
    1e8a:	c398                	sw	a4,0(a5)
    1e8c:	400216b7          	lui	a3,0x40021
    1e90:	6705                	lui	a4,0x1
    1e92:	429c                	lw	a5,0(a3)
    1e94:	8ff1                	and	a5,a5,a2
    1e96:	c63e                	sw	a5,12(sp)
    1e98:	47a2                	lw	a5,8(sp)
    1e9a:	0785                	addi	a5,a5,1
    1e9c:	c43e                	sw	a5,8(sp)
    1e9e:	47b2                	lw	a5,12(sp)
    1ea0:	e781                	bnez	a5,1ea8 <SystemInit+0x7e>
    1ea2:	47a2                	lw	a5,8(sp)
    1ea4:	fee797e3          	bne	a5,a4,1e92 <SystemInit+0x68>
    1ea8:	400217b7          	lui	a5,0x40021
    1eac:	439c                	lw	a5,0(a5)
    1eae:	00e79713          	slli	a4,a5,0xe
    1eb2:	06075763          	bgez	a4,1f20 <SystemInit+0xf6>
    1eb6:	4785                	li	a5,1
    1eb8:	c63e                	sw	a5,12(sp)
    1eba:	4732                	lw	a4,12(sp)
    1ebc:	4785                	li	a5,1
    1ebe:	04f71f63          	bne	a4,a5,1f1c <SystemInit+0xf2>
    1ec2:	400217b7          	lui	a5,0x40021
    1ec6:	43d8                	lw	a4,4(a5)
    1ec8:	ffc106b7          	lui	a3,0xffc10
    1ecc:	16fd                	addi	a3,a3,-1
    1ece:	c3d8                	sw	a4,4(a5)
    1ed0:	43d8                	lw	a4,4(a5)
    1ed2:	c3d8                	sw	a4,4(a5)
    1ed4:	43d8                	lw	a4,4(a5)
    1ed6:	40076713          	ori	a4,a4,1024
    1eda:	c3d8                	sw	a4,4(a5)
    1edc:	43d8                	lw	a4,4(a5)
    1ede:	8f75                	and	a4,a4,a3
    1ee0:	c3d8                	sw	a4,4(a5)
    1ee2:	43d8                	lw	a4,4(a5)
    1ee4:	002906b7          	lui	a3,0x290
    1ee8:	8f55                	or	a4,a4,a3
    1eea:	c3d8                	sw	a4,4(a5)
    1eec:	4398                	lw	a4,0(a5)
    1eee:	010006b7          	lui	a3,0x1000
    1ef2:	8f55                	or	a4,a4,a3
    1ef4:	c398                	sw	a4,0(a5)
    1ef6:	4398                	lw	a4,0(a5)
    1ef8:	00671693          	slli	a3,a4,0x6
    1efc:	fe06dde3          	bgez	a3,1ef6 <SystemInit+0xcc>
    1f00:	43d8                	lw	a4,4(a5)
    1f02:	400216b7          	lui	a3,0x40021
    1f06:	9b71                	andi	a4,a4,-4
    1f08:	c3d8                	sw	a4,4(a5)
    1f0a:	43d8                	lw	a4,4(a5)
    1f0c:	00276713          	ori	a4,a4,2
    1f10:	c3d8                	sw	a4,4(a5)
    1f12:	4721                	li	a4,8
    1f14:	42dc                	lw	a5,4(a3)
    1f16:	8bb1                	andi	a5,a5,12
    1f18:	fee79ee3          	bne	a5,a4,1f14 <SystemInit+0xea>
    1f1c:	0141                	addi	sp,sp,16
    1f1e:	8082                	ret
    1f20:	c602                	sw	zero,12(sp)
    1f22:	bf61                	j	1eba <SystemInit+0x90>

00001f24 <SystemCoreClockUpdate>:
    1f24:	400216b7          	lui	a3,0x40021
    1f28:	42d8                	lw	a4,4(a3)
    1f2a:	200007b7          	lui	a5,0x20000
    1f2e:	4611                	li	a2,4
    1f30:	8b31                	andi	a4,a4,12
    1f32:	0f878793          	addi	a5,a5,248 # 200000f8 <SystemCoreClock>
    1f36:	00c70563          	beq	a4,a2,1f40 <SystemCoreClockUpdate+0x1c>
    1f3a:	4621                	li	a2,8
    1f3c:	02c70863          	beq	a4,a2,1f6c <SystemCoreClockUpdate+0x48>
    1f40:	007a1737          	lui	a4,0x7a1
    1f44:	20070713          	addi	a4,a4,512 # 7a1200 <_data_lma+0x78b8d0>
    1f48:	c398                	sw	a4,0(a5)
    1f4a:	40021737          	lui	a4,0x40021
    1f4e:	4358                	lw	a4,4(a4)
    1f50:	8311                	srli	a4,a4,0x4
    1f52:	00f77693          	andi	a3,a4,15
    1f56:	20000737          	lui	a4,0x20000
    1f5a:	00070713          	mv	a4,a4
    1f5e:	9736                	add	a4,a4,a3
    1f60:	2314                	lbu	a3,0(a4)
    1f62:	4398                	lw	a4,0(a5)
    1f64:	00d75733          	srl	a4,a4,a3
    1f68:	c398                	sw	a4,0(a5)
    1f6a:	8082                	ret
    1f6c:	42d8                	lw	a4,4(a3)
    1f6e:	42d4                	lw	a3,4(a3)
    1f70:	6641                	lui	a2,0x10
    1f72:	8349                	srli	a4,a4,0x12
    1f74:	8b3d                	andi	a4,a4,15
    1f76:	8ef1                	and	a3,a3,a2
    1f78:	00270613          	addi	a2,a4,2 # 20000002 <_data_vma+0x2>
    1f7c:	cf15                	beqz	a4,1fb8 <SystemCoreClockUpdate+0x94>
    1f7e:	473d                	li	a4,15
    1f80:	02e60f63          	beq	a2,a4,1fbe <SystemCoreClockUpdate+0x9a>
    1f84:	4741                	li	a4,16
    1f86:	02e60f63          	beq	a2,a4,1fc4 <SystemCoreClockUpdate+0xa0>
    1f8a:	4745                	li	a4,17
    1f8c:	4581                	li	a1,0
    1f8e:	00e61363          	bne	a2,a4,1f94 <SystemCoreClockUpdate+0x70>
    1f92:	4641                	li	a2,16
    1f94:	e2a1                	bnez	a3,1fd4 <SystemCoreClockUpdate+0xb0>
    1f96:	40024737          	lui	a4,0x40024
    1f9a:	80072703          	lw	a4,-2048(a4) # 40023800 <_eusrstack+0x2001b800>
    1f9e:	8b41                	andi	a4,a4,16
    1fa0:	c70d                	beqz	a4,1fca <SystemCoreClockUpdate+0xa6>
    1fa2:	007a1737          	lui	a4,0x7a1
    1fa6:	20070713          	addi	a4,a4,512 # 7a1200 <_data_lma+0x78b8d0>
    1faa:	02c70633          	mul	a2,a4,a2
    1fae:	c390                	sw	a2,0(a5)
    1fb0:	ddc9                	beqz	a1,1f4a <SystemCoreClockUpdate+0x26>
    1fb2:	4398                	lw	a4,0(a5)
    1fb4:	8305                	srli	a4,a4,0x1
    1fb6:	bf49                	j	1f48 <SystemCoreClockUpdate+0x24>
    1fb8:	4581                	li	a1,0
    1fba:	4649                	li	a2,18
    1fbc:	bfe1                	j	1f94 <SystemCoreClockUpdate+0x70>
    1fbe:	4585                	li	a1,1
    1fc0:	4635                	li	a2,13
    1fc2:	bfc9                	j	1f94 <SystemCoreClockUpdate+0x70>
    1fc4:	4581                	li	a1,0
    1fc6:	463d                	li	a2,15
    1fc8:	b7f1                	j	1f94 <SystemCoreClockUpdate+0x70>
    1fca:	003d1737          	lui	a4,0x3d1
    1fce:	90070713          	addi	a4,a4,-1792 # 3d0900 <_data_lma+0x3bafd0>
    1fd2:	bfe1                	j	1faa <SystemCoreClockUpdate+0x86>
    1fd4:	40021537          	lui	a0,0x40021
    1fd8:	5558                	lw	a4,44(a0)
    1fda:	00f71693          	slli	a3,a4,0xf
    1fde:	5558                	lw	a4,44(a0)
    1fe0:	0406df63          	bgez	a3,203e <SystemCoreClockUpdate+0x11a>
    1fe4:	8311                	srli	a4,a4,0x4
    1fe6:	8b3d                	andi	a4,a4,15
    1fe8:	00170693          	addi	a3,a4,1
    1fec:	007a1737          	lui	a4,0x7a1
    1ff0:	20070713          	addi	a4,a4,512 # 7a1200 <_data_lma+0x78b8d0>
    1ff4:	02d75733          	divu	a4,a4,a3
    1ff8:	c398                	sw	a4,0(a5)
    1ffa:	5554                	lw	a3,44(a0)
    1ffc:	82a1                	srli	a3,a3,0x8
    1ffe:	8abd                	andi	a3,a3,15
    2000:	e28d                	bnez	a3,2022 <SystemCoreClockUpdate+0xfe>
    2002:	4695                	li	a3,5
    2004:	02d70733          	mul	a4,a4,a3
    2008:	8305                	srli	a4,a4,0x1
    200a:	c398                	sw	a4,0(a5)
    200c:	40021737          	lui	a4,0x40021
    2010:	5758                	lw	a4,44(a4)
    2012:	4394                	lw	a3,0(a5)
    2014:	8b3d                	andi	a4,a4,15
    2016:	0705                	addi	a4,a4,1
    2018:	02e6d733          	divu	a4,a3,a4
    201c:	c398                	sw	a4,0(a5)
    201e:	4398                	lw	a4,0(a5)
    2020:	b769                	j	1faa <SystemCoreClockUpdate+0x86>
    2022:	4505                	li	a0,1
    2024:	00a69463          	bne	a3,a0,202c <SystemCoreClockUpdate+0x108>
    2028:	46e5                	li	a3,25
    202a:	bfe9                	j	2004 <SystemCoreClockUpdate+0xe0>
    202c:	453d                	li	a0,15
    202e:	00a69663          	bne	a3,a0,203a <SystemCoreClockUpdate+0x116>
    2032:	46d1                	li	a3,20
    2034:	02e68733          	mul	a4,a3,a4
    2038:	bfc9                	j	200a <SystemCoreClockUpdate+0xe6>
    203a:	0689                	addi	a3,a3,2
    203c:	bfe5                	j	2034 <SystemCoreClockUpdate+0x110>
    203e:	8b3d                	andi	a4,a4,15
    2040:	00170693          	addi	a3,a4,1 # 40021001 <_eusrstack+0x20019001>
    2044:	007a1737          	lui	a4,0x7a1
    2048:	20070713          	addi	a4,a4,512 # 7a1200 <_data_lma+0x78b8d0>
    204c:	02d75733          	divu	a4,a4,a3
    2050:	b7f1                	j	201c <SystemCoreClockUpdate+0xf8>

00002052 <ADC1_2_IRQHandler>:
    2052:	a001                	j	2052 <ADC1_2_IRQHandler>

00002054 <handle_reset>:
    2054:	1ffff197          	auipc	gp,0x1ffff
    2058:	8a418193          	addi	gp,gp,-1884 # 200008f8 <__global_pointer$>
    205c:	20006117          	auipc	sp,0x20006
    2060:	fa410113          	addi	sp,sp,-92 # 20008000 <_eusrstack>
    2064:	00014517          	auipc	a0,0x14
    2068:	8cc50513          	addi	a0,a0,-1844 # 15930 <_data_lma>
    206c:	1fffe597          	auipc	a1,0x1fffe
    2070:	f9458593          	addi	a1,a1,-108 # 20000000 <_data_vma>
    2074:	81818613          	addi	a2,gp,-2024 # 20000110 <_edata>
    2078:	00c5fa63          	bgeu	a1,a2,208c <handle_reset+0x38>
    207c:	00052283          	lw	t0,0(a0)
    2080:	0055a023          	sw	t0,0(a1)
    2084:	0511                	addi	a0,a0,4
    2086:	0591                	addi	a1,a1,4
    2088:	fec5eae3          	bltu	a1,a2,207c <handle_reset+0x28>
    208c:	81818513          	addi	a0,gp,-2024 # 20000110 <_edata>
    2090:	f7818593          	addi	a1,gp,-136 # 20000870 <_ebss>
    2094:	00b57763          	bgeu	a0,a1,20a2 <handle_reset+0x4e>
    2098:	00052023          	sw	zero,0(a0)
    209c:	0511                	addi	a0,a0,4
    209e:	feb56de3          	bltu	a0,a1,2098 <handle_reset+0x44>
    20a2:	42fd                	li	t0,31
    20a4:	bc029073          	csrw	0xbc0,t0
    20a8:	42ad                	li	t0,11
    20aa:	80429073          	csrw	0x804,t0
    20ae:	000062b7          	lui	t0,0x6
    20b2:	08828293          	addi	t0,t0,136 # 6088 <__sfp+0xc>
    20b6:	30029073          	csrw	mstatus,t0
    20ba:	ffffe297          	auipc	t0,0xffffe
    20be:	f4a28293          	addi	t0,t0,-182 # 4 <_einit>
    20c2:	0032e293          	ori	t0,t0,3
    20c6:	30529073          	csrw	mtvec,t0
    20ca:	d61ff0ef          	jal	ra,1e2a <SystemInit>
    20ce:	ffffe297          	auipc	t0,0xffffe
    20d2:	23428293          	addi	t0,t0,564 # 302 <main>
    20d6:	34129073          	csrw	mepc,t0
    20da:	30200073          	mret

000020de <DBGMCU_GetCHIPID>:
    20de:	1ffff7b7          	lui	a5,0x1ffff
    20e2:	7047a503          	lw	a0,1796(a5) # 1ffff704 <_data_lma+0x1ffe9dd4>
    20e6:	8082                	ret

000020e8 <DMA_DeInit>:
    20e8:	411c                	lw	a5,0(a0)
    20ea:	6741                	lui	a4,0x10
    20ec:	1779                	addi	a4,a4,-2
    20ee:	8ff9                	and	a5,a5,a4
    20f0:	c11c                	sw	a5,0(a0)
    20f2:	00052023          	sw	zero,0(a0)
    20f6:	00052223          	sw	zero,4(a0)
    20fa:	00052423          	sw	zero,8(a0)
    20fe:	400207b7          	lui	a5,0x40020
    2102:	00052623          	sw	zero,12(a0)
    2106:	00878713          	addi	a4,a5,8 # 40020008 <_eusrstack+0x20018008>
    210a:	00e51763          	bne	a0,a4,2118 <DMA_DeInit+0x30>
    210e:	43d8                	lw	a4,4(a5)
    2110:	00f76713          	ori	a4,a4,15
    2114:	c3d8                	sw	a4,4(a5)
    2116:	8082                	ret
    2118:	01c78713          	addi	a4,a5,28
    211c:	00e51663          	bne	a0,a4,2128 <DMA_DeInit+0x40>
    2120:	43d8                	lw	a4,4(a5)
    2122:	0f076713          	ori	a4,a4,240
    2126:	b7fd                	j	2114 <DMA_DeInit+0x2c>
    2128:	03078713          	addi	a4,a5,48
    212c:	00e51863          	bne	a0,a4,213c <DMA_DeInit+0x54>
    2130:	43d8                	lw	a4,4(a5)
    2132:	6685                	lui	a3,0x1
    2134:	f0068693          	addi	a3,a3,-256 # f00 <FindSCR+0x14c>
    2138:	8f55                	or	a4,a4,a3
    213a:	bfe9                	j	2114 <DMA_DeInit+0x2c>
    213c:	04478713          	addi	a4,a5,68
    2140:	00e51563          	bne	a0,a4,214a <DMA_DeInit+0x62>
    2144:	43d8                	lw	a4,4(a5)
    2146:	66bd                	lui	a3,0xf
    2148:	bfc5                	j	2138 <DMA_DeInit+0x50>
    214a:	05878713          	addi	a4,a5,88
    214e:	00e51663          	bne	a0,a4,215a <DMA_DeInit+0x72>
    2152:	43d8                	lw	a4,4(a5)
    2154:	000f06b7          	lui	a3,0xf0
    2158:	b7c5                	j	2138 <DMA_DeInit+0x50>
    215a:	06c78713          	addi	a4,a5,108
    215e:	00e51663          	bne	a0,a4,216a <DMA_DeInit+0x82>
    2162:	43d8                	lw	a4,4(a5)
    2164:	00f006b7          	lui	a3,0xf00
    2168:	bfc1                	j	2138 <DMA_DeInit+0x50>
    216a:	08078713          	addi	a4,a5,128
    216e:	00e51663          	bne	a0,a4,217a <DMA_DeInit+0x92>
    2172:	43d8                	lw	a4,4(a5)
    2174:	0f0006b7          	lui	a3,0xf000
    2178:	b7c1                	j	2138 <DMA_DeInit+0x50>
    217a:	40878713          	addi	a4,a5,1032
    217e:	00e51963          	bne	a0,a4,2190 <DMA_DeInit+0xa8>
    2182:	4047a703          	lw	a4,1028(a5)
    2186:	00f76713          	ori	a4,a4,15
    218a:	40e7a223          	sw	a4,1028(a5)
    218e:	8082                	ret
    2190:	41c78713          	addi	a4,a5,1052
    2194:	00e51763          	bne	a0,a4,21a2 <DMA_DeInit+0xba>
    2198:	4047a703          	lw	a4,1028(a5)
    219c:	0f076713          	ori	a4,a4,240
    21a0:	b7ed                	j	218a <DMA_DeInit+0xa2>
    21a2:	43078793          	addi	a5,a5,1072
    21a6:	00f51b63          	bne	a0,a5,21bc <DMA_DeInit+0xd4>
    21aa:	400207b7          	lui	a5,0x40020
    21ae:	4047a703          	lw	a4,1028(a5) # 40020404 <_eusrstack+0x20018404>
    21b2:	6685                	lui	a3,0x1
    21b4:	f0068693          	addi	a3,a3,-256 # f00 <FindSCR+0x14c>
    21b8:	8f55                	or	a4,a4,a3
    21ba:	bfc1                	j	218a <DMA_DeInit+0xa2>
    21bc:	400207b7          	lui	a5,0x40020
    21c0:	44478713          	addi	a4,a5,1092 # 40020444 <_eusrstack+0x20018444>
    21c4:	00e51663          	bne	a0,a4,21d0 <DMA_DeInit+0xe8>
    21c8:	4047a703          	lw	a4,1028(a5)
    21cc:	66bd                	lui	a3,0xf
    21ce:	b7ed                	j	21b8 <DMA_DeInit+0xd0>
    21d0:	45878713          	addi	a4,a5,1112
    21d4:	00e51763          	bne	a0,a4,21e2 <DMA_DeInit+0xfa>
    21d8:	4047a703          	lw	a4,1028(a5)
    21dc:	000f06b7          	lui	a3,0xf0
    21e0:	bfe1                	j	21b8 <DMA_DeInit+0xd0>
    21e2:	46c78713          	addi	a4,a5,1132
    21e6:	00e51763          	bne	a0,a4,21f4 <DMA_DeInit+0x10c>
    21ea:	4047a703          	lw	a4,1028(a5)
    21ee:	00f006b7          	lui	a3,0xf00
    21f2:	b7d9                	j	21b8 <DMA_DeInit+0xd0>
    21f4:	48078713          	addi	a4,a5,1152
    21f8:	00e51763          	bne	a0,a4,2206 <DMA_DeInit+0x11e>
    21fc:	4047a703          	lw	a4,1028(a5)
    2200:	0f0006b7          	lui	a3,0xf000
    2204:	bf55                	j	21b8 <DMA_DeInit+0xd0>
    2206:	49078713          	addi	a4,a5,1168
    220a:	00e51963          	bne	a0,a4,221c <DMA_DeInit+0x134>
    220e:	4d47a703          	lw	a4,1236(a5)
    2212:	00f76713          	ori	a4,a4,15
    2216:	4ce7aa23          	sw	a4,1236(a5)
    221a:	8082                	ret
    221c:	4a078713          	addi	a4,a5,1184
    2220:	00e51763          	bne	a0,a4,222e <DMA_DeInit+0x146>
    2224:	4d47a703          	lw	a4,1236(a5)
    2228:	0f076713          	ori	a4,a4,240
    222c:	b7ed                	j	2216 <DMA_DeInit+0x12e>
    222e:	4b078713          	addi	a4,a5,1200
    2232:	00e51963          	bne	a0,a4,2244 <DMA_DeInit+0x15c>
    2236:	4d47a703          	lw	a4,1236(a5)
    223a:	6685                	lui	a3,0x1
    223c:	f0068693          	addi	a3,a3,-256 # f00 <FindSCR+0x14c>
    2240:	8f55                	or	a4,a4,a3
    2242:	bfd1                	j	2216 <DMA_DeInit+0x12e>
    2244:	4c078713          	addi	a4,a5,1216
    2248:	fce519e3          	bne	a0,a4,221a <DMA_DeInit+0x132>
    224c:	4d47a703          	lw	a4,1236(a5)
    2250:	66bd                	lui	a3,0xf
    2252:	b7fd                	j	2240 <DMA_DeInit+0x158>

00002254 <DMA_Init>:
    2254:	411c                	lw	a5,0(a0)
    2256:	7761                	lui	a4,0xffff8
    2258:	073d                	addi	a4,a4,15
    225a:	5194                	lw	a3,32(a1)
    225c:	8f7d                	and	a4,a4,a5
    225e:	459c                	lw	a5,8(a1)
    2260:	8fd5                	or	a5,a5,a3
    2262:	4994                	lw	a3,16(a1)
    2264:	8fd5                	or	a5,a5,a3
    2266:	49d4                	lw	a3,20(a1)
    2268:	8fd5                	or	a5,a5,a3
    226a:	4d94                	lw	a3,24(a1)
    226c:	8fd5                	or	a5,a5,a3
    226e:	4dd4                	lw	a3,28(a1)
    2270:	8fd5                	or	a5,a5,a3
    2272:	51d4                	lw	a3,36(a1)
    2274:	8fd5                	or	a5,a5,a3
    2276:	5594                	lw	a3,40(a1)
    2278:	8fd5                	or	a5,a5,a3
    227a:	8fd9                	or	a5,a5,a4
    227c:	c11c                	sw	a5,0(a0)
    227e:	45dc                	lw	a5,12(a1)
    2280:	c15c                	sw	a5,4(a0)
    2282:	419c                	lw	a5,0(a1)
    2284:	c51c                	sw	a5,8(a0)
    2286:	41dc                	lw	a5,4(a1)
    2288:	c55c                	sw	a5,12(a0)
    228a:	8082                	ret

0000228c <DMA_Cmd>:
    228c:	411c                	lw	a5,0(a0)
    228e:	c589                	beqz	a1,2298 <DMA_Cmd+0xc>
    2290:	0017e793          	ori	a5,a5,1
    2294:	c11c                	sw	a5,0(a0)
    2296:	8082                	ret
    2298:	6741                	lui	a4,0x10
    229a:	1779                	addi	a4,a4,-2
    229c:	8ff9                	and	a5,a5,a4
    229e:	bfdd                	j	2294 <DMA_Cmd+0x8>

000022a0 <GPIO_Init>:
    22a0:	459c                	lw	a5,8(a1)
    22a2:	0107f713          	andi	a4,a5,16
    22a6:	00f7f813          	andi	a6,a5,15
    22aa:	c701                	beqz	a4,22b2 <GPIO_Init+0x12>
    22ac:	41d8                	lw	a4,4(a1)
    22ae:	00e86833          	or	a6,a6,a4
    22b2:	218e                	lhu	a1,0(a1)
    22b4:	0ff5f713          	andi	a4,a1,255
    22b8:	c339                	beqz	a4,22fe <GPIO_Init+0x5e>
    22ba:	4118                	lw	a4,0(a0)
    22bc:	4681                	li	a3,0
    22be:	4e85                	li	t4,1
    22c0:	4f3d                	li	t5,15
    22c2:	02800f93          	li	t6,40
    22c6:	04800293          	li	t0,72
    22ca:	4e21                	li	t3,8
    22cc:	00de9633          	sll	a2,t4,a3
    22d0:	00c5f8b3          	and	a7,a1,a2
    22d4:	03161163          	bne	a2,a7,22f6 <GPIO_Init+0x56>
    22d8:	00269893          	slli	a7,a3,0x2
    22dc:	011f1333          	sll	t1,t5,a7
    22e0:	fff34313          	not	t1,t1
    22e4:	00e37733          	and	a4,t1,a4
    22e8:	011818b3          	sll	a7,a6,a7
    22ec:	00e8e733          	or	a4,a7,a4
    22f0:	05f79f63          	bne	a5,t6,234e <GPIO_Init+0xae>
    22f4:	c950                	sw	a2,20(a0)
    22f6:	0685                	addi	a3,a3,1
    22f8:	fdc69ae3          	bne	a3,t3,22cc <GPIO_Init+0x2c>
    22fc:	c118                	sw	a4,0(a0)
    22fe:	0ff00713          	li	a4,255
    2302:	04b77563          	bgeu	a4,a1,234c <GPIO_Init+0xac>
    2306:	4154                	lw	a3,4(a0)
    2308:	4621                	li	a2,8
    230a:	4e85                	li	t4,1
    230c:	4f3d                	li	t5,15
    230e:	02800f93          	li	t6,40
    2312:	04800293          	li	t0,72
    2316:	4e41                	li	t3,16
    2318:	00ce98b3          	sll	a7,t4,a2
    231c:	0115f733          	and	a4,a1,a7
    2320:	02e89263          	bne	a7,a4,2344 <GPIO_Init+0xa4>
    2324:	00261713          	slli	a4,a2,0x2
    2328:	1701                	addi	a4,a4,-32
    232a:	00ef1333          	sll	t1,t5,a4
    232e:	fff34313          	not	t1,t1
    2332:	00d376b3          	and	a3,t1,a3
    2336:	00e81733          	sll	a4,a6,a4
    233a:	8ed9                	or	a3,a3,a4
    233c:	01f79d63          	bne	a5,t6,2356 <GPIO_Init+0xb6>
    2340:	01152a23          	sw	a7,20(a0)
    2344:	0605                	addi	a2,a2,1
    2346:	fdc619e3          	bne	a2,t3,2318 <GPIO_Init+0x78>
    234a:	c154                	sw	a3,4(a0)
    234c:	8082                	ret
    234e:	fa5794e3          	bne	a5,t0,22f6 <GPIO_Init+0x56>
    2352:	c910                	sw	a2,16(a0)
    2354:	b74d                	j	22f6 <GPIO_Init+0x56>
    2356:	fe5797e3          	bne	a5,t0,2344 <GPIO_Init+0xa4>
    235a:	01152823          	sw	a7,16(a0)
    235e:	b7dd                	j	2344 <GPIO_Init+0xa4>

00002360 <GPIO_ReadInputDataBit>:
    2360:	4508                	lw	a0,8(a0)
    2362:	8d6d                	and	a0,a0,a1
    2364:	00a03533          	snez	a0,a0
    2368:	8082                	ret

0000236a <GPIO_WriteBit>:
    236a:	c219                	beqz	a2,2370 <GPIO_WriteBit+0x6>
    236c:	c90c                	sw	a1,16(a0)
    236e:	8082                	ret
    2370:	c94c                	sw	a1,20(a0)
    2372:	8082                	ret

00002374 <I2C_Init>:
    2374:	e7dfd2ef          	jal	t0,1f0 <__riscv_save_0>
    2378:	7179                	addi	sp,sp,-48
    237a:	2146                	lhu	s1,4(a0)
    237c:	842a                	mv	s0,a0
    237e:	0868                	addi	a0,sp,28
    2380:	c62e                	sw	a1,12(sp)
    2382:	22fd                	jal	2570 <RCC_GetClocksFreq>
    2384:	5792                	lw	a5,36(sp)
    2386:	000f4737          	lui	a4,0xf4
    238a:	24070713          	addi	a4,a4,576 # f4240 <_data_lma+0xde910>
    238e:	02e7d733          	divu	a4,a5,a4
    2392:	04c2                	slli	s1,s1,0x10
    2394:	80c1                	srli	s1,s1,0x10
    2396:	fc04f493          	andi	s1,s1,-64
    239a:	04c2                	slli	s1,s1,0x10
    239c:	03c00693          	li	a3,60
    23a0:	80c1                	srli	s1,s1,0x10
    23a2:	45b2                	lw	a1,12(sp)
    23a4:	00e6f463          	bgeu	a3,a4,23ac <I2C_Init+0x38>
    23a8:	03c00713          	li	a4,60
    23ac:	01071613          	slli	a2,a4,0x10
    23b0:	8241                	srli	a2,a2,0x10
    23b2:	8cd1                	or	s1,s1,a2
    23b4:	a046                	sh	s1,4(s0)
    23b6:	2016                	lhu	a3,0(s0)
    23b8:	6561                	lui	a0,0x18
    23ba:	6a050513          	addi	a0,a0,1696 # 186a0 <_data_lma+0x2d70>
    23be:	06c2                	slli	a3,a3,0x10
    23c0:	82c1                	srli	a3,a3,0x10
    23c2:	9af9                	andi	a3,a3,-2
    23c4:	06c2                	slli	a3,a3,0x10
    23c6:	82c1                	srli	a3,a3,0x10
    23c8:	a016                	sh	a3,0(s0)
    23ca:	4194                	lw	a3,0(a1)
    23cc:	04d56963          	bltu	a0,a3,241e <I2C_Init+0xaa>
    23d0:	0686                	slli	a3,a3,0x1
    23d2:	02d7d7b3          	divu	a5,a5,a3
    23d6:	4691                	li	a3,4
    23d8:	01079713          	slli	a4,a5,0x10
    23dc:	8341                	srli	a4,a4,0x10
    23de:	87ba                	mv	a5,a4
    23e0:	00d77363          	bgeu	a4,a3,23e6 <I2C_Init+0x72>
    23e4:	4791                	li	a5,4
    23e6:	0605                	addi	a2,a2,1
    23e8:	0642                	slli	a2,a2,0x10
    23ea:	07c2                	slli	a5,a5,0x10
    23ec:	8241                	srli	a2,a2,0x10
    23ee:	83c1                	srli	a5,a5,0x10
    23f0:	b012                	sh	a2,32(s0)
    23f2:	ac5e                	sh	a5,28(s0)
    23f4:	201e                	lhu	a5,0(s0)
    23f6:	21da                	lhu	a4,4(a1)
    23f8:	25b6                	lhu	a3,10(a1)
    23fa:	0017e793          	ori	a5,a5,1
    23fe:	a01e                	sh	a5,0(s0)
    2400:	201e                	lhu	a5,0(s0)
    2402:	8f55                	or	a4,a4,a3
    2404:	07c2                	slli	a5,a5,0x10
    2406:	83c1                	srli	a5,a5,0x10
    2408:	bf57f793          	andi	a5,a5,-1035
    240c:	8fd9                	or	a5,a5,a4
    240e:	a01e                	sh	a5,0(s0)
    2410:	259a                	lhu	a4,8(a1)
    2412:	25de                	lhu	a5,12(a1)
    2414:	8fd9                	or	a5,a5,a4
    2416:	a41e                	sh	a5,8(s0)
    2418:	6145                	addi	sp,sp,48
    241a:	dfbfd06f          	j	214 <__riscv_restore_0>
    241e:	21ea                	lhu	a0,6(a1)
    2420:	6631                	lui	a2,0xc
    2422:	167d                	addi	a2,a2,-1
    2424:	02c51d63          	bne	a0,a2,245e <I2C_Init+0xea>
    2428:	460d                	li	a2,3
    242a:	02c686b3          	mul	a3,a3,a2
    242e:	02d7d7b3          	divu	a5,a5,a3
    2432:	07c2                	slli	a5,a5,0x10
    2434:	83c1                	srli	a5,a5,0x10
    2436:	01479693          	slli	a3,a5,0x14
    243a:	e299                	bnez	a3,2440 <I2C_Init+0xcc>
    243c:	0017e793          	ori	a5,a5,1
    2440:	66a1                	lui	a3,0x8
    2442:	8fd5                	or	a5,a5,a3
    2444:	12c00693          	li	a3,300
    2448:	02d70733          	mul	a4,a4,a3
    244c:	3e800693          	li	a3,1000
    2450:	02d74733          	div	a4,a4,a3
    2454:	0705                	addi	a4,a4,1
    2456:	0742                	slli	a4,a4,0x10
    2458:	8341                	srli	a4,a4,0x10
    245a:	b01a                	sh	a4,32(s0)
    245c:	bf59                	j	23f2 <I2C_Init+0x7e>
    245e:	4665                	li	a2,25
    2460:	02c686b3          	mul	a3,a3,a2
    2464:	02d7d7b3          	divu	a5,a5,a3
    2468:	6691                	lui	a3,0x4
    246a:	07c2                	slli	a5,a5,0x10
    246c:	83c1                	srli	a5,a5,0x10
    246e:	8fd5                	or	a5,a5,a3
    2470:	b7d9                	j	2436 <I2C_Init+0xc2>

00002472 <I2C_Cmd>:
    2472:	211e                	lhu	a5,0(a0)
    2474:	c589                	beqz	a1,247e <I2C_Cmd+0xc>
    2476:	0017e793          	ori	a5,a5,1
    247a:	a11e                	sh	a5,0(a0)
    247c:	8082                	ret
    247e:	07c2                	slli	a5,a5,0x10
    2480:	83c1                	srli	a5,a5,0x10
    2482:	9bf9                	andi	a5,a5,-2
    2484:	07c2                	slli	a5,a5,0x10
    2486:	83c1                	srli	a5,a5,0x10
    2488:	bfcd                	j	247a <I2C_Cmd+0x8>

0000248a <I2C_GenerateSTART>:
    248a:	211e                	lhu	a5,0(a0)
    248c:	c589                	beqz	a1,2496 <I2C_GenerateSTART+0xc>
    248e:	1007e793          	ori	a5,a5,256
    2492:	a11e                	sh	a5,0(a0)
    2494:	8082                	ret
    2496:	07c2                	slli	a5,a5,0x10
    2498:	83c1                	srli	a5,a5,0x10
    249a:	eff7f793          	andi	a5,a5,-257
    249e:	07c2                	slli	a5,a5,0x10
    24a0:	83c1                	srli	a5,a5,0x10
    24a2:	bfc5                	j	2492 <I2C_GenerateSTART+0x8>

000024a4 <I2C_GenerateSTOP>:
    24a4:	211e                	lhu	a5,0(a0)
    24a6:	c589                	beqz	a1,24b0 <I2C_GenerateSTOP+0xc>
    24a8:	2007e793          	ori	a5,a5,512
    24ac:	a11e                	sh	a5,0(a0)
    24ae:	8082                	ret
    24b0:	07c2                	slli	a5,a5,0x10
    24b2:	83c1                	srli	a5,a5,0x10
    24b4:	dff7f793          	andi	a5,a5,-513
    24b8:	07c2                	slli	a5,a5,0x10
    24ba:	83c1                	srli	a5,a5,0x10
    24bc:	bfc5                	j	24ac <I2C_GenerateSTOP+0x8>

000024be <I2C_SendData>:
    24be:	a90e                	sh	a1,16(a0)
    24c0:	8082                	ret

000024c2 <I2C_Send7bitAddress>:
    24c2:	0fe5f793          	andi	a5,a1,254
    24c6:	c219                	beqz	a2,24cc <I2C_Send7bitAddress+0xa>
    24c8:	0015e793          	ori	a5,a1,1
    24cc:	07c2                	slli	a5,a5,0x10
    24ce:	83c1                	srli	a5,a5,0x10
    24d0:	a91e                	sh	a5,16(a0)
    24d2:	8082                	ret

000024d4 <I2C_CheckEvent>:
    24d4:	295e                	lhu	a5,20(a0)
    24d6:	2d0a                	lhu	a0,24(a0)
    24d8:	0542                	slli	a0,a0,0x10
    24da:	8d5d                	or	a0,a0,a5
    24dc:	8d6d                	and	a0,a0,a1
    24de:	0522                	slli	a0,a0,0x8
    24e0:	8121                	srli	a0,a0,0x8
    24e2:	8d0d                	sub	a0,a0,a1
    24e4:	00153513          	seqz	a0,a0
    24e8:	8082                	ret

000024ea <I2C_GetFlagStatus>:
    24ea:	1141                	addi	sp,sp,-16
    24ec:	c402                	sw	zero,8(sp)
    24ee:	c602                	sw	zero,12(sp)
    24f0:	01c5d793          	srli	a5,a1,0x1c
    24f4:	c62a                	sw	a0,12(sp)
    24f6:	c43e                	sw	a5,8(sp)
    24f8:	47a2                	lw	a5,8(sp)
    24fa:	05a2                	slli	a1,a1,0x8
    24fc:	81a1                	srli	a1,a1,0x8
    24fe:	cb99                	beqz	a5,2514 <I2C_GetFlagStatus+0x2a>
    2500:	47b2                	lw	a5,12(sp)
    2502:	07d1                	addi	a5,a5,20
    2504:	c63e                	sw	a5,12(sp)
    2506:	47b2                	lw	a5,12(sp)
    2508:	4388                	lw	a0,0(a5)
    250a:	0141                	addi	sp,sp,16
    250c:	8d6d                	and	a0,a0,a1
    250e:	00a03533          	snez	a0,a0
    2512:	8082                	ret
    2514:	47b2                	lw	a5,12(sp)
    2516:	81c1                	srli	a1,a1,0x10
    2518:	07e1                	addi	a5,a5,24
    251a:	b7ed                	j	2504 <I2C_GetFlagStatus+0x1a>

0000251c <NVIC_PriorityGroupConfig>:
    251c:	82a1a823          	sw	a0,-2000(gp) # 20000128 <NVIC_Priority_Group>
    2520:	8082                	ret

00002522 <NVIC_Init>:
    2522:	8301a703          	lw	a4,-2000(gp) # 20000128 <NVIC_Priority_Group>
    2526:	4789                	li	a5,2
    2528:	2110                	lbu	a2,0(a0)
    252a:	02f71163          	bne	a4,a5,254c <NVIC_Init+0x2a>
    252e:	3114                	lbu	a3,1(a0)
    2530:	478d                	li	a5,3
    2532:	00d7ed63          	bltu	a5,a3,254c <NVIC_Init+0x2a>
    2536:	213c                	lbu	a5,2(a0)
    2538:	069a                	slli	a3,a3,0x6
    253a:	e000e737          	lui	a4,0xe000e
    253e:	0796                	slli	a5,a5,0x5
    2540:	8fd5                	or	a5,a5,a3
    2542:	0ff7f793          	andi	a5,a5,255
    2546:	9732                	add	a4,a4,a2
    2548:	40f70023          	sb	a5,1024(a4) # e000e400 <_eusrstack+0xc0006400>
    254c:	4154                	lw	a3,4(a0)
    254e:	4705                	li	a4,1
    2550:	00565793          	srli	a5,a2,0x5
    2554:	00c71733          	sll	a4,a4,a2
    2558:	ca89                	beqz	a3,256a <NVIC_Init+0x48>
    255a:	04078793          	addi	a5,a5,64
    255e:	078a                	slli	a5,a5,0x2
    2560:	e000e6b7          	lui	a3,0xe000e
    2564:	97b6                	add	a5,a5,a3
    2566:	c398                	sw	a4,0(a5)
    2568:	8082                	ret
    256a:	06078793          	addi	a5,a5,96
    256e:	bfc5                	j	255e <NVIC_Init+0x3c>

00002570 <RCC_GetClocksFreq>:
    2570:	40021737          	lui	a4,0x40021
    2574:	435c                	lw	a5,4(a4)
    2576:	4691                	li	a3,4
    2578:	8bb1                	andi	a5,a5,12
    257a:	00d78563          	beq	a5,a3,2584 <RCC_GetClocksFreq+0x14>
    257e:	46a1                	li	a3,8
    2580:	06d78263          	beq	a5,a3,25e4 <RCC_GetClocksFreq+0x74>
    2584:	007a17b7          	lui	a5,0x7a1
    2588:	20078793          	addi	a5,a5,512 # 7a1200 <_data_lma+0x78b8d0>
    258c:	c11c                	sw	a5,0(a0)
    258e:	40021637          	lui	a2,0x40021
    2592:	425c                	lw	a5,4(a2)
    2594:	20000737          	lui	a4,0x20000
    2598:	01070713          	addi	a4,a4,16 # 20000010 <APBAHBPrescTable>
    259c:	8391                	srli	a5,a5,0x4
    259e:	8bbd                	andi	a5,a5,15
    25a0:	97ba                	add	a5,a5,a4
    25a2:	2394                	lbu	a3,0(a5)
    25a4:	411c                	lw	a5,0(a0)
    25a6:	00d7d7b3          	srl	a5,a5,a3
    25aa:	c15c                	sw	a5,4(a0)
    25ac:	4254                	lw	a3,4(a2)
    25ae:	82a1                	srli	a3,a3,0x8
    25b0:	8a9d                	andi	a3,a3,7
    25b2:	96ba                	add	a3,a3,a4
    25b4:	2294                	lbu	a3,0(a3)
    25b6:	00d7d6b3          	srl	a3,a5,a3
    25ba:	c514                	sw	a3,8(a0)
    25bc:	4254                	lw	a3,4(a2)
    25be:	82ad                	srli	a3,a3,0xb
    25c0:	8a9d                	andi	a3,a3,7
    25c2:	9736                	add	a4,a4,a3
    25c4:	2318                	lbu	a4,0(a4)
    25c6:	00e7d7b3          	srl	a5,a5,a4
    25ca:	c55c                	sw	a5,12(a0)
    25cc:	4258                	lw	a4,4(a2)
    25ce:	8339                	srli	a4,a4,0xe
    25d0:	00377693          	andi	a3,a4,3
    25d4:	80418713          	addi	a4,gp,-2044 # 200000fc <ADCPrescTable>
    25d8:	9736                	add	a4,a4,a3
    25da:	2318                	lbu	a4,0(a4)
    25dc:	02e7d7b3          	divu	a5,a5,a4
    25e0:	c91c                	sw	a5,16(a0)
    25e2:	8082                	ret
    25e4:	435c                	lw	a5,4(a4)
    25e6:	4358                	lw	a4,4(a4)
    25e8:	66c1                	lui	a3,0x10
    25ea:	83c9                	srli	a5,a5,0x12
    25ec:	8f75                	and	a4,a4,a3
    25ee:	1ffff6b7          	lui	a3,0x1ffff
    25f2:	70c6a683          	lw	a3,1804(a3) # 1ffff70c <_data_lma+0x1ffe9ddc>
    25f6:	8bbd                	andi	a5,a5,15
    25f8:	0789                	addi	a5,a5,2
    25fa:	01169613          	slli	a2,a3,0x11
    25fe:	00064863          	bltz	a2,260e <RCC_GetClocksFreq+0x9e>
    2602:	46c5                	li	a3,17
    2604:	4601                	li	a2,0
    2606:	02d79263          	bne	a5,a3,262a <RCC_GetClocksFreq+0xba>
    260a:	47c9                	li	a5,18
    260c:	a839                	j	262a <RCC_GetClocksFreq+0xba>
    260e:	4689                	li	a3,2
    2610:	02d78f63          	beq	a5,a3,264e <RCC_GetClocksFreq+0xde>
    2614:	46bd                	li	a3,15
    2616:	02d78e63          	beq	a5,a3,2652 <RCC_GetClocksFreq+0xe2>
    261a:	46c1                	li	a3,16
    261c:	02d78e63          	beq	a5,a3,2658 <RCC_GetClocksFreq+0xe8>
    2620:	46c5                	li	a3,17
    2622:	4601                	li	a2,0
    2624:	00d79363          	bne	a5,a3,262a <RCC_GetClocksFreq+0xba>
    2628:	47c1                	li	a5,16
    262a:	ef1d                	bnez	a4,2668 <RCC_GetClocksFreq+0xf8>
    262c:	40024737          	lui	a4,0x40024
    2630:	80072703          	lw	a4,-2048(a4) # 40023800 <_eusrstack+0x2001b800>
    2634:	8b41                	andi	a4,a4,16
    2636:	c705                	beqz	a4,265e <RCC_GetClocksFreq+0xee>
    2638:	007a1737          	lui	a4,0x7a1
    263c:	20070713          	addi	a4,a4,512 # 7a1200 <_data_lma+0x78b8d0>
    2640:	02f707b3          	mul	a5,a4,a5
    2644:	c11c                	sw	a5,0(a0)
    2646:	d621                	beqz	a2,258e <RCC_GetClocksFreq+0x1e>
    2648:	411c                	lw	a5,0(a0)
    264a:	8385                	srli	a5,a5,0x1
    264c:	b781                	j	258c <RCC_GetClocksFreq+0x1c>
    264e:	4601                	li	a2,0
    2650:	bf6d                	j	260a <RCC_GetClocksFreq+0x9a>
    2652:	4605                	li	a2,1
    2654:	47b5                	li	a5,13
    2656:	bfd1                	j	262a <RCC_GetClocksFreq+0xba>
    2658:	4601                	li	a2,0
    265a:	47bd                	li	a5,15
    265c:	b7f9                	j	262a <RCC_GetClocksFreq+0xba>
    265e:	003d1737          	lui	a4,0x3d1
    2662:	90070713          	addi	a4,a4,-1792 # 3d0900 <_data_lma+0x3bafd0>
    2666:	bfe9                	j	2640 <RCC_GetClocksFreq+0xd0>
    2668:	400215b7          	lui	a1,0x40021
    266c:	55d8                	lw	a4,44(a1)
    266e:	00f71693          	slli	a3,a4,0xf
    2672:	55d8                	lw	a4,44(a1)
    2674:	0406df63          	bgez	a3,26d2 <RCC_GetClocksFreq+0x162>
    2678:	8311                	srli	a4,a4,0x4
    267a:	8b3d                	andi	a4,a4,15
    267c:	00170693          	addi	a3,a4,1
    2680:	007a1737          	lui	a4,0x7a1
    2684:	20070713          	addi	a4,a4,512 # 7a1200 <_data_lma+0x78b8d0>
    2688:	02d75733          	divu	a4,a4,a3
    268c:	c118                	sw	a4,0(a0)
    268e:	55d4                	lw	a3,44(a1)
    2690:	82a1                	srli	a3,a3,0x8
    2692:	8abd                	andi	a3,a3,15
    2694:	e28d                	bnez	a3,26b6 <RCC_GetClocksFreq+0x146>
    2696:	4695                	li	a3,5
    2698:	02d70733          	mul	a4,a4,a3
    269c:	8305                	srli	a4,a4,0x1
    269e:	c118                	sw	a4,0(a0)
    26a0:	40021737          	lui	a4,0x40021
    26a4:	5758                	lw	a4,44(a4)
    26a6:	4114                	lw	a3,0(a0)
    26a8:	8b3d                	andi	a4,a4,15
    26aa:	0705                	addi	a4,a4,1
    26ac:	02e6d733          	divu	a4,a3,a4
    26b0:	c118                	sw	a4,0(a0)
    26b2:	4118                	lw	a4,0(a0)
    26b4:	b771                	j	2640 <RCC_GetClocksFreq+0xd0>
    26b6:	4585                	li	a1,1
    26b8:	00b69463          	bne	a3,a1,26c0 <RCC_GetClocksFreq+0x150>
    26bc:	46e5                	li	a3,25
    26be:	bfe9                	j	2698 <RCC_GetClocksFreq+0x128>
    26c0:	45bd                	li	a1,15
    26c2:	00b69663          	bne	a3,a1,26ce <RCC_GetClocksFreq+0x15e>
    26c6:	46d1                	li	a3,20
    26c8:	02e68733          	mul	a4,a3,a4
    26cc:	bfc9                	j	269e <RCC_GetClocksFreq+0x12e>
    26ce:	0689                	addi	a3,a3,2
    26d0:	bfe5                	j	26c8 <RCC_GetClocksFreq+0x158>
    26d2:	8b3d                	andi	a4,a4,15
    26d4:	00170693          	addi	a3,a4,1 # 40021001 <_eusrstack+0x20019001>
    26d8:	007a1737          	lui	a4,0x7a1
    26dc:	20070713          	addi	a4,a4,512 # 7a1200 <_data_lma+0x78b8d0>
    26e0:	02d75733          	divu	a4,a4,a3
    26e4:	b7f1                	j	26b0 <RCC_GetClocksFreq+0x140>

000026e6 <RCC_AHBPeriphClockCmd>:
    26e6:	c599                	beqz	a1,26f4 <RCC_AHBPeriphClockCmd+0xe>
    26e8:	40021737          	lui	a4,0x40021
    26ec:	4b5c                	lw	a5,20(a4)
    26ee:	8d5d                	or	a0,a0,a5
    26f0:	cb48                	sw	a0,20(a4)
    26f2:	8082                	ret
    26f4:	400217b7          	lui	a5,0x40021
    26f8:	4bd8                	lw	a4,20(a5)
    26fa:	fff54513          	not	a0,a0
    26fe:	8d79                	and	a0,a0,a4
    2700:	cbc8                	sw	a0,20(a5)
    2702:	8082                	ret

00002704 <RCC_APB2PeriphClockCmd>:
    2704:	c599                	beqz	a1,2712 <RCC_APB2PeriphClockCmd+0xe>
    2706:	40021737          	lui	a4,0x40021
    270a:	4f1c                	lw	a5,24(a4)
    270c:	8d5d                	or	a0,a0,a5
    270e:	cf08                	sw	a0,24(a4)
    2710:	8082                	ret
    2712:	400217b7          	lui	a5,0x40021
    2716:	4f98                	lw	a4,24(a5)
    2718:	fff54513          	not	a0,a0
    271c:	8d79                	and	a0,a0,a4
    271e:	cf88                	sw	a0,24(a5)
    2720:	8082                	ret

00002722 <RCC_APB1PeriphClockCmd>:
    2722:	c599                	beqz	a1,2730 <RCC_APB1PeriphClockCmd+0xe>
    2724:	40021737          	lui	a4,0x40021
    2728:	4f5c                	lw	a5,28(a4)
    272a:	8d5d                	or	a0,a0,a5
    272c:	cf48                	sw	a0,28(a4)
    272e:	8082                	ret
    2730:	400217b7          	lui	a5,0x40021
    2734:	4fd8                	lw	a4,28(a5)
    2736:	fff54513          	not	a0,a0
    273a:	8d79                	and	a0,a0,a4
    273c:	cfc8                	sw	a0,28(a5)
    273e:	8082                	ret

00002740 <SDIO_DeInit>:
    2740:	400187b7          	lui	a5,0x40018
    2744:	0007a023          	sw	zero,0(a5) # 40018000 <_eusrstack+0x20010000>
    2748:	0007a223          	sw	zero,4(a5)
    274c:	0007a423          	sw	zero,8(a5)
    2750:	0007a623          	sw	zero,12(a5)
    2754:	0207a223          	sw	zero,36(a5)
    2758:	0207a423          	sw	zero,40(a5)
    275c:	00c00737          	lui	a4,0xc00
    2760:	0207a623          	sw	zero,44(a5)
    2764:	7ff70713          	addi	a4,a4,2047 # c007ff <_data_lma+0xbeaecf>
    2768:	df98                	sw	a4,56(a5)
    276a:	0207ae23          	sw	zero,60(a5)
    276e:	8082                	ret

00002770 <SDIO_Init>:
    2770:	4154                	lw	a3,4(a0)
    2772:	451c                	lw	a5,8(a0)
    2774:	40018637          	lui	a2,0x40018
    2778:	4258                	lw	a4,4(a2)
    277a:	8fd5                	or	a5,a5,a3
    277c:	76e1                	lui	a3,0xffff8
    277e:	10068693          	addi	a3,a3,256 # ffff8100 <_eusrstack+0xdfff0100>
    2782:	8f75                	and	a4,a4,a3
    2784:	8fd9                	or	a5,a5,a4
    2786:	4558                	lw	a4,12(a0)
    2788:	8fd9                	or	a5,a5,a4
    278a:	4118                	lw	a4,0(a0)
    278c:	8fd9                	or	a5,a5,a4
    278e:	4918                	lw	a4,16(a0)
    2790:	8fd9                	or	a5,a5,a4
    2792:	2958                	lbu	a4,20(a0)
    2794:	8fd9                	or	a5,a5,a4
    2796:	c25c                	sw	a5,4(a2)
    2798:	8082                	ret

0000279a <SDIO_ClockCmd>:
    279a:	40018737          	lui	a4,0x40018
    279e:	435c                	lw	a5,4(a4)
    27a0:	c509                	beqz	a0,27aa <SDIO_ClockCmd+0x10>
    27a2:	1007e793          	ori	a5,a5,256
    27a6:	c35c                	sw	a5,4(a4)
    27a8:	8082                	ret
    27aa:	eff7f793          	andi	a5,a5,-257
    27ae:	bfe5                	j	27a6 <SDIO_ClockCmd+0xc>

000027b0 <SDIO_SetPowerState>:
    27b0:	400187b7          	lui	a5,0x40018
    27b4:	4398                	lw	a4,0(a5)
    27b6:	9b71                	andi	a4,a4,-4
    27b8:	c398                	sw	a4,0(a5)
    27ba:	4398                	lw	a4,0(a5)
    27bc:	8d59                	or	a0,a0,a4
    27be:	c388                	sw	a0,0(a5)
    27c0:	8082                	ret

000027c2 <SDIO_GetPowerState>:
    27c2:	400187b7          	lui	a5,0x40018
    27c6:	4388                	lw	a0,0(a5)
    27c8:	890d                	andi	a0,a0,3
    27ca:	8082                	ret

000027cc <SDIO_DMACmd>:
    27cc:	40018737          	lui	a4,0x40018
    27d0:	575c                	lw	a5,44(a4)
    27d2:	c509                	beqz	a0,27dc <SDIO_DMACmd+0x10>
    27d4:	0087e793          	ori	a5,a5,8
    27d8:	d75c                	sw	a5,44(a4)
    27da:	8082                	ret
    27dc:	9bdd                	andi	a5,a5,-9
    27de:	bfed                	j	27d8 <SDIO_DMACmd+0xc>

000027e0 <SDIO_SendCommand>:
    27e0:	411c                	lw	a5,0(a0)
    27e2:	40018737          	lui	a4,0x40018
    27e6:	c71c                	sw	a5,8(a4)
    27e8:	4754                	lw	a3,12(a4)
    27ea:	415c                	lw	a5,4(a0)
    27ec:	4510                	lw	a2,8(a0)
    27ee:	8006f693          	andi	a3,a3,-2048
    27f2:	8fd1                	or	a5,a5,a2
    27f4:	8fd5                	or	a5,a5,a3
    27f6:	4554                	lw	a3,12(a0)
    27f8:	8fd5                	or	a5,a5,a3
    27fa:	4914                	lw	a3,16(a0)
    27fc:	8fd5                	or	a5,a5,a3
    27fe:	c75c                	sw	a5,12(a4)
    2800:	8082                	ret

00002802 <SDIO_DataConfig>:
    2802:	411c                	lw	a5,0(a0)
    2804:	40018737          	lui	a4,0x40018
    2808:	d35c                	sw	a5,36(a4)
    280a:	415c                	lw	a5,4(a0)
    280c:	d71c                	sw	a5,40(a4)
    280e:	5754                	lw	a3,44(a4)
    2810:	451c                	lw	a5,8(a0)
    2812:	4550                	lw	a2,12(a0)
    2814:	f086f693          	andi	a3,a3,-248
    2818:	8fd1                	or	a5,a5,a2
    281a:	8fd5                	or	a5,a5,a3
    281c:	4914                	lw	a3,16(a0)
    281e:	8fd5                	or	a5,a5,a3
    2820:	4954                	lw	a3,20(a0)
    2822:	8fd5                	or	a5,a5,a3
    2824:	d75c                	sw	a5,44(a4)
    2826:	8082                	ret

00002828 <SDIO_ReadData>:
    2828:	400187b7          	lui	a5,0x40018
    282c:	0807a503          	lw	a0,128(a5) # 40018080 <_eusrstack+0x20010080>
    2830:	8082                	ret

00002832 <SDIO_WriteData>:
    2832:	400187b7          	lui	a5,0x40018
    2836:	08a7a023          	sw	a0,128(a5) # 40018080 <_eusrstack+0x20010080>
    283a:	8082                	ret

0000283c <SDIO_GetFlagStatus>:
    283c:	400187b7          	lui	a5,0x40018
    2840:	5bdc                	lw	a5,52(a5)
    2842:	8d7d                	and	a0,a0,a5
    2844:	00a03533          	snez	a0,a0
    2848:	8082                	ret

0000284a <SDIO_ClearFlag>:
    284a:	400187b7          	lui	a5,0x40018
    284e:	df88                	sw	a0,56(a5)
    2850:	8082                	ret

00002852 <I2S_Init>:
    2852:	99ffd2ef          	jal	t0,1f0 <__riscv_save_0>
    2856:	2d5a                	lhu	a4,28(a0)
    2858:	77fd                	lui	a5,0xfffff
    285a:	04078793          	addi	a5,a5,64 # fffff040 <_eusrstack+0xdfff7040>
    285e:	8ff9                	and	a5,a5,a4
    2860:	ad5e                	sh	a5,28(a0)
    2862:	4789                	li	a5,2
    2864:	b11e                	sh	a5,32(a0)
    2866:	2d42                	lhu	s0,28(a0)
    2868:	4598                	lw	a4,8(a1)
    286a:	4789                	li	a5,2
    286c:	0442                	slli	s0,s0,0x10
    286e:	7179                	addi	sp,sp,-48
    2870:	892a                	mv	s2,a0
    2872:	8041                	srli	s0,s0,0x10
    2874:	04f70c63          	beq	a4,a5,28cc <I2S_Init+0x7a>
    2878:	0868                	addi	a0,sp,28
    287a:	21c6                	lhu	s1,4(a1)
    287c:	c62e                	sw	a1,12(sp)
    287e:	cf3ff0ef          	jal	ra,2570 <RCC_GetClocksFreq>
    2882:	45b2                	lw	a1,12(sp)
    2884:	009034b3          	snez	s1,s1
    2888:	20000793          	li	a5,512
    288c:	21f2                	lhu	a2,6(a1)
    288e:	0485                	addi	s1,s1,1
    2890:	4772                	lw	a4,28(sp)
    2892:	4594                	lw	a3,8(a1)
    2894:	06f61663          	bne	a2,a5,2900 <I2S_Init+0xae>
    2898:	8321                	srli	a4,a4,0x8
    289a:	47a9                	li	a5,10
    289c:	02e787b3          	mul	a5,a5,a4
    28a0:	4729                	li	a4,10
    28a2:	0fd00613          	li	a2,253
    28a6:	02d7d7b3          	divu	a5,a5,a3
    28aa:	0795                	addi	a5,a5,5
    28ac:	07c2                	slli	a5,a5,0x10
    28ae:	83c1                	srli	a5,a5,0x10
    28b0:	02e7d7b3          	divu	a5,a5,a4
    28b4:	0017f713          	andi	a4,a5,1
    28b8:	8385                	srli	a5,a5,0x1
    28ba:	07c2                	slli	a5,a5,0x10
    28bc:	83c1                	srli	a5,a5,0x10
    28be:	ffe78693          	addi	a3,a5,-2
    28c2:	06c2                	slli	a3,a3,0x10
    28c4:	82c1                	srli	a3,a3,0x10
    28c6:	0722                	slli	a4,a4,0x8
    28c8:	00d67463          	bgeu	a2,a3,28d0 <I2S_Init+0x7e>
    28cc:	4701                	li	a4,0
    28ce:	4789                	li	a5,2
    28d0:	8fd9                	or	a5,a5,a4
    28d2:	21fa                	lhu	a4,6(a1)
    28d4:	8fd9                	or	a5,a5,a4
    28d6:	02f91023          	sh	a5,32(s2)
    28da:	21ba                	lhu	a4,2(a1)
    28dc:	219e                	lhu	a5,0(a1)
    28de:	8fd9                	or	a5,a5,a4
    28e0:	8c5d                	or	s0,s0,a5
    28e2:	21de                	lhu	a5,4(a1)
    28e4:	8c5d                	or	s0,s0,a5
    28e6:	25de                	lhu	a5,12(a1)
    28e8:	8c5d                	or	s0,s0,a5
    28ea:	6785                	lui	a5,0x1
    28ec:	80078793          	addi	a5,a5,-2048 # 800 <__stack_size>
    28f0:	8c5d                	or	s0,s0,a5
    28f2:	0442                	slli	s0,s0,0x10
    28f4:	8041                	srli	s0,s0,0x10
    28f6:	00891e23          	sh	s0,28(s2)
    28fa:	6145                	addi	sp,sp,48
    28fc:	919fd06f          	j	214 <__riscv_restore_0>
    2900:	00549793          	slli	a5,s1,0x5
    2904:	02f757b3          	divu	a5,a4,a5
    2908:	4729                	li	a4,10
    290a:	bf49                	j	289c <I2S_Init+0x4a>

0000290c <I2S_Cmd>:
    290c:	2d5e                	lhu	a5,28(a0)
    290e:	c589                	beqz	a1,2918 <I2S_Cmd+0xc>
    2910:	4007e793          	ori	a5,a5,1024
    2914:	ad5e                	sh	a5,28(a0)
    2916:	8082                	ret
    2918:	07c2                	slli	a5,a5,0x10
    291a:	83c1                	srli	a5,a5,0x10
    291c:	bff7f793          	andi	a5,a5,-1025
    2920:	07c2                	slli	a5,a5,0x10
    2922:	83c1                	srli	a5,a5,0x10
    2924:	bfc5                	j	2914 <I2S_Cmd+0x8>

00002926 <SPI_I2S_SendData>:
    2926:	a54e                	sh	a1,12(a0)
    2928:	8082                	ret

0000292a <SPI_I2S_GetFlagStatus>:
    292a:	250a                	lhu	a0,8(a0)
    292c:	8d6d                	and	a0,a0,a1
    292e:	00a03533          	snez	a0,a0
    2932:	8082                	ret

00002934 <USART_Init>:
    2934:	8bdfd2ef          	jal	t0,1f0 <__riscv_save_0>
    2938:	2916                	lhu	a3,16(a0)
    293a:	77f5                	lui	a5,0xffffd
    293c:	17fd                	addi	a5,a5,-1
    293e:	8ff5                	and	a5,a5,a3
    2940:	21f6                	lhu	a3,6(a1)
    2942:	25da                	lhu	a4,12(a1)
    2944:	7179                	addi	sp,sp,-48
    2946:	8fd5                	or	a5,a5,a3
    2948:	a91e                	sh	a5,16(a0)
    294a:	2556                	lhu	a3,12(a0)
    294c:	77fd                	lui	a5,0xfffff
    294e:	9f378793          	addi	a5,a5,-1549 # ffffe9f3 <_eusrstack+0xdfff69f3>
    2952:	8ff5                	and	a5,a5,a3
    2954:	21d6                	lhu	a3,4(a1)
    2956:	842a                	mv	s0,a0
    2958:	c62e                	sw	a1,12(sp)
    295a:	8fd5                	or	a5,a5,a3
    295c:	2596                	lhu	a3,8(a1)
    295e:	8fd5                	or	a5,a5,a3
    2960:	25b6                	lhu	a3,10(a1)
    2962:	8fd5                	or	a5,a5,a3
    2964:	a55e                	sh	a5,12(a0)
    2966:	295e                	lhu	a5,20(a0)
    2968:	07c2                	slli	a5,a5,0x10
    296a:	83c1                	srli	a5,a5,0x10
    296c:	cff7f793          	andi	a5,a5,-769
    2970:	8fd9                	or	a5,a5,a4
    2972:	a95e                	sh	a5,20(a0)
    2974:	0868                	addi	a0,sp,28
    2976:	bfbff0ef          	jal	ra,2570 <RCC_GetClocksFreq>
    297a:	400147b7          	lui	a5,0x40014
    297e:	80078793          	addi	a5,a5,-2048 # 40013800 <_eusrstack+0x2000b800>
    2982:	45b2                	lw	a1,12(sp)
    2984:	02f41e63          	bne	s0,a5,29c0 <USART_Init+0x8c>
    2988:	57a2                	lw	a5,40(sp)
    298a:	4765                	li	a4,25
    298c:	02e787b3          	mul	a5,a5,a4
    2990:	4198                	lw	a4,0(a1)
    2992:	06400693          	li	a3,100
    2996:	070a                	slli	a4,a4,0x2
    2998:	02e7d7b3          	divu	a5,a5,a4
    299c:	02d7d733          	divu	a4,a5,a3
    29a0:	02d7f7b3          	remu	a5,a5,a3
    29a4:	0712                	slli	a4,a4,0x4
    29a6:	0792                	slli	a5,a5,0x4
    29a8:	03278793          	addi	a5,a5,50
    29ac:	02d7d7b3          	divu	a5,a5,a3
    29b0:	8bbd                	andi	a5,a5,15
    29b2:	8fd9                	or	a5,a5,a4
    29b4:	07c2                	slli	a5,a5,0x10
    29b6:	83c1                	srli	a5,a5,0x10
    29b8:	a41e                	sh	a5,8(s0)
    29ba:	6145                	addi	sp,sp,48
    29bc:	859fd06f          	j	214 <__riscv_restore_0>
    29c0:	5792                	lw	a5,36(sp)
    29c2:	b7e1                	j	298a <USART_Init+0x56>

000029c4 <USART_Cmd>:
    29c4:	c591                	beqz	a1,29d0 <USART_Cmd+0xc>
    29c6:	255e                	lhu	a5,12(a0)
    29c8:	6709                	lui	a4,0x2
    29ca:	8fd9                	or	a5,a5,a4
    29cc:	a55e                	sh	a5,12(a0)
    29ce:	8082                	ret
    29d0:	255a                	lhu	a4,12(a0)
    29d2:	77f9                	lui	a5,0xffffe
    29d4:	17fd                	addi	a5,a5,-1
    29d6:	8ff9                	and	a5,a5,a4
    29d8:	bfd5                	j	29cc <USART_Cmd+0x8>

000029da <USART_SendData>:
    29da:	1ff5f593          	andi	a1,a1,511
    29de:	a14e                	sh	a1,4(a0)
    29e0:	8082                	ret

000029e2 <USART_GetFlagStatus>:
    29e2:	210a                	lhu	a0,0(a0)
    29e4:	8d6d                	and	a0,a0,a1
    29e6:	00a03533          	snez	a0,a0
    29ea:	8082                	ret

000029ec <disk_status>:
    29ec:	157d                	addi	a0,a0,-1
    29ee:	00a03533          	snez	a0,a0
    29f2:	8082                	ret

000029f4 <disk_initialize>:
    29f4:	4785                	li	a5,1
    29f6:	00f51a63          	bne	a0,a5,2a0a <disk_initialize+0x16>
    29fa:	ff6fd2ef          	jal	t0,1f0 <__riscv_save_0>
    29fe:	e3cfe0ef          	jal	ra,103a <SD_Init>
    2a02:	0ff57513          	andi	a0,a0,255
    2a06:	80ffd06f          	j	214 <__riscv_restore_0>
    2a0a:	4505                	li	a0,1
    2a0c:	8082                	ret

00002a0e <disk_read>:
    2a0e:	4705                	li	a4,1
    2a10:	00e51d63          	bne	a0,a4,2a2a <disk_read+0x1c>
    2a14:	fdcfd2ef          	jal	t0,1f0 <__riscv_save_0>
    2a18:	87ae                	mv	a5,a1
    2a1a:	853e                	mv	a0,a5
    2a1c:	85b2                	mv	a1,a2
    2a1e:	0ff6f613          	andi	a2,a3,255
    2a22:	b1aff0ef          	jal	ra,1d3c <SD_ReadDisk>
    2a26:	feefd06f          	j	214 <__riscv_restore_0>
    2a2a:	4511                	li	a0,4
    2a2c:	8082                	ret

00002a2e <disk_write>:
    2a2e:	4705                	li	a4,1
    2a30:	00e51d63          	bne	a0,a4,2a4a <disk_write+0x1c>
    2a34:	fbcfd2ef          	jal	t0,1f0 <__riscv_save_0>
    2a38:	87ae                	mv	a5,a1
    2a3a:	853e                	mv	a0,a5
    2a3c:	85b2                	mv	a1,a2
    2a3e:	0ff6f613          	andi	a2,a3,255
    2a42:	b72ff0ef          	jal	ra,1db4 <SD_WriteDisk>
    2a46:	fcefd06f          	j	214 <__riscv_restore_0>
    2a4a:	4511                	li	a0,4
    2a4c:	8082                	ret

00002a4e <disk_ioctl>:
    2a4e:	4785                	li	a5,1
    2a50:	00f51b63          	bne	a0,a5,2a66 <disk_ioctl+0x18>
    2a54:	00a58b63          	beq	a1,a0,2a6a <disk_ioctl+0x1c>
    2a58:	c599                	beqz	a1,2a66 <disk_ioctl+0x18>
    2a5a:	478d                	li	a5,3
    2a5c:	00b7e563          	bltu	a5,a1,2a66 <disk_ioctl+0x18>
    2a60:	ce81a783          	lw	a5,-792(gp) # 200005e0 <SDCardInfo+0x50>
    2a64:	a21e                	sh	a5,0(a2)
    2a66:	4511                	li	a0,4
    2a68:	8082                	ret
    2a6a:	f86fd2ef          	jal	t0,1f0 <__riscv_save_0>
    2a6e:	c9818793          	addi	a5,gp,-872 # 20000590 <SDCardInfo>
    2a72:	8432                	mv	s0,a2
    2a74:	47a8                	lw	a0,72(a5)
    2a76:	4bb0                	lw	a2,80(a5)
    2a78:	47ec                	lw	a1,76(a5)
    2a7a:	4681                	li	a3,0
    2a7c:	1ef020ef          	jal	ra,546a <__divdi3>
    2a80:	a00a                	sh	a0,0(s0)
    2a82:	4511                	li	a0,4
    2a84:	f90fd06f          	j	214 <__riscv_restore_0>

00002a88 <get_fattime>:
    2a88:	4501                	li	a0,0
    2a8a:	8082                	ret

00002a8c <ld_dword>:
    2a8c:	313c                	lbu	a5,3(a0)
    2a8e:	2138                	lbu	a4,2(a0)
    2a90:	07a2                	slli	a5,a5,0x8
    2a92:	8fd9                	or	a5,a5,a4
    2a94:	3118                	lbu	a4,1(a0)
    2a96:	07a2                	slli	a5,a5,0x8
    2a98:	2108                	lbu	a0,0(a0)
    2a9a:	8fd9                	or	a5,a5,a4
    2a9c:	07a2                	slli	a5,a5,0x8
    2a9e:	8d5d                	or	a0,a0,a5
    2aa0:	8082                	ret

00002aa2 <st_dword>:
    2aa2:	0085d793          	srli	a5,a1,0x8
    2aa6:	a10c                	sb	a1,0(a0)
    2aa8:	b11c                	sb	a5,1(a0)
    2aaa:	0105d793          	srli	a5,a1,0x10
    2aae:	81e1                	srli	a1,a1,0x18
    2ab0:	a13c                	sb	a5,2(a0)
    2ab2:	b12c                	sb	a1,3(a0)
    2ab4:	8082                	ret

00002ab6 <clst2sect>:
    2ab6:	4d18                	lw	a4,24(a0)
    2ab8:	15f9                	addi	a1,a1,-2
    2aba:	1779                	addi	a4,a4,-2
    2abc:	00e5f863          	bgeu	a1,a4,2acc <clst2sect+0x16>
    2ac0:	253e                	lhu	a5,10(a0)
    2ac2:	5548                	lw	a0,44(a0)
    2ac4:	02b787b3          	mul	a5,a5,a1
    2ac8:	953e                	add	a0,a0,a5
    2aca:	8082                	ret
    2acc:	4501                	li	a0,0
    2ace:	8082                	ret

00002ad0 <sum_sfn>:
    2ad0:	00b50693          	addi	a3,a0,11
    2ad4:	4781                	li	a5,0
    2ad6:	0017d713          	srli	a4,a5,0x1
    2ada:	0505                	addi	a0,a0,1
    2adc:	079e                	slli	a5,a5,0x7
    2ade:	8fd9                	or	a5,a5,a4
    2ae0:	fff54703          	lbu	a4,-1(a0)
    2ae4:	97ba                	add	a5,a5,a4
    2ae6:	0ff7f793          	andi	a5,a5,255
    2aea:	fed516e3          	bne	a0,a3,2ad6 <sum_sfn+0x6>
    2aee:	853e                	mv	a0,a5
    2af0:	8082                	ret

00002af2 <get_ldnumber>:
    2af2:	411c                	lw	a5,0(a0)
    2af4:	c79d                	beqz	a5,2b22 <get_ldnumber+0x30>
    2af6:	86be                	mv	a3,a5
    2af8:	45fd                	li	a1,31
    2afa:	03a00613          	li	a2,58
    2afe:	0685                	addi	a3,a3,1
    2b00:	fff68703          	lb	a4,-1(a3)
    2b04:	0ff77813          	andi	a6,a4,255
    2b08:	0305fb63          	bgeu	a1,a6,2b3e <get_ldnumber+0x4c>
    2b0c:	fec719e3          	bne	a4,a2,2afe <get_ldnumber+0xc>
    2b10:	00078603          	lb	a2,0(a5) # ffffe000 <_eusrstack+0xdfff6000>
    2b14:	4725                	li	a4,9
    2b16:	fd060613          	addi	a2,a2,-48 # 40017fd0 <_eusrstack+0x2000ffd0>
    2b1a:	0ff67593          	andi	a1,a2,255
    2b1e:	00b77463          	bgeu	a4,a1,2b26 <get_ldnumber+0x34>
    2b22:	57fd                	li	a5,-1
    2b24:	a819                	j	2b3a <get_ldnumber+0x48>
    2b26:	00278713          	addi	a4,a5,2
    2b2a:	57fd                	li	a5,-1
    2b2c:	00e69763          	bne	a3,a4,2b3a <get_ldnumber+0x48>
    2b30:	4709                	li	a4,2
    2b32:	87b2                	mv	a5,a2
    2b34:	fec747e3          	blt	a4,a2,2b22 <get_ldnumber+0x30>
    2b38:	c114                	sw	a3,0(a0)
    2b3a:	853e                	mv	a0,a5
    2b3c:	8082                	ret
    2b3e:	4781                	li	a5,0
    2b40:	bfed                	j	2b3a <get_ldnumber+0x48>

00002b42 <validate>:
    2b42:	e919                	bnez	a0,2b58 <validate+0x16>
    2b44:	4781                	li	a5,0
    2b46:	4525                	li	a0,9
    2b48:	c19c                	sw	a5,0(a1)
    2b4a:	8082                	ret
    2b4c:	4525                	li	a0,9
    2b4e:	4781                	li	a5,0
    2b50:	c19c                	sw	a5,0(a1)
    2b52:	0141                	addi	sp,sp,16
    2b54:	ec0fd06f          	j	214 <__riscv_restore_0>
    2b58:	e98fd2ef          	jal	t0,1f0 <__riscv_save_0>
    2b5c:	411c                	lw	a5,0(a0)
    2b5e:	1141                	addi	sp,sp,-16
    2b60:	842a                	mv	s0,a0
    2b62:	d7ed                	beqz	a5,2b4c <validate+0xa>
    2b64:	2398                	lbu	a4,0(a5)
    2b66:	d37d                	beqz	a4,2b4c <validate+0xa>
    2b68:	2156                	lhu	a3,4(a0)
    2b6a:	23fa                	lhu	a4,6(a5)
    2b6c:	fee690e3          	bne	a3,a4,2b4c <validate+0xa>
    2b70:	3388                	lbu	a0,1(a5)
    2b72:	c62e                	sw	a1,12(sp)
    2b74:	3da5                	jal	29ec <disk_status>
    2b76:	8905                	andi	a0,a0,1
    2b78:	45b2                	lw	a1,12(sp)
    2b7a:	f969                	bnez	a0,2b4c <validate+0xa>
    2b7c:	401c                	lw	a5,0(s0)
    2b7e:	bfc9                	j	2b50 <validate+0xe>

00002b80 <ld_clust.isra.1>:
    2b80:	3dbc                	lbu	a5,27(a1)
    2b82:	2db8                	lbu	a4,26(a1)
    2b84:	07a2                	slli	a5,a5,0x8
    2b86:	8fd9                	or	a5,a5,a4
    2b88:	470d                	li	a4,3
    2b8a:	00e51863          	bne	a0,a4,2b9a <ld_clust.isra.1+0x1a>
    2b8e:	39d8                	lbu	a4,21(a1)
    2b90:	29d4                	lbu	a3,20(a1)
    2b92:	0722                	slli	a4,a4,0x8
    2b94:	8f55                	or	a4,a4,a3
    2b96:	0742                	slli	a4,a4,0x10
    2b98:	8fd9                	or	a5,a5,a4
    2b9a:	853e                	mv	a0,a5
    2b9c:	8082                	ret

00002b9e <st_clust.isra.2>:
    2b9e:	01061793          	slli	a5,a2,0x10
    2ba2:	83c1                	srli	a5,a5,0x10
    2ba4:	83a1                	srli	a5,a5,0x8
    2ba6:	bdbc                	sb	a5,27(a1)
    2ba8:	adb0                	sb	a2,26(a1)
    2baa:	2118                	lbu	a4,0(a0)
    2bac:	478d                	li	a5,3
    2bae:	00f71663          	bne	a4,a5,2bba <st_clust.isra.2+0x1c>
    2bb2:	8241                	srli	a2,a2,0x10
    2bb4:	a9d0                	sb	a2,20(a1)
    2bb6:	8221                	srli	a2,a2,0x8
    2bb8:	b9d0                	sb	a2,21(a1)
    2bba:	8082                	ret

00002bbc <sync_window.part.3>:
    2bbc:	e34fd2ef          	jal	t0,1f0 <__riscv_save_0>
    2bc0:	03450913          	addi	s2,a0,52
    2bc4:	5910                	lw	a2,48(a0)
    2bc6:	842a                	mv	s0,a0
    2bc8:	3108                	lbu	a0,1(a0)
    2bca:	4685                	li	a3,1
    2bcc:	85ca                	mv	a1,s2
    2bce:	e61ff0ef          	jal	ra,2a2e <disk_write>
    2bd2:	4485                	li	s1,1
    2bd4:	e50d                	bnez	a0,2bfe <sync_window.part.3+0x42>
    2bd6:	5810                	lw	a2,48(s0)
    2bd8:	505c                	lw	a5,36(s0)
    2bda:	4c58                	lw	a4,28(s0)
    2bdc:	00040223          	sb	zero,4(s0)
    2be0:	40f607b3          	sub	a5,a2,a5
    2be4:	4481                	li	s1,0
    2be6:	00e7fc63          	bgeu	a5,a4,2bfe <sync_window.part.3+0x42>
    2bea:	3034                	lbu	a3,3(s0)
    2bec:	4789                	li	a5,2
    2bee:	00f69863          	bne	a3,a5,2bfe <sync_window.part.3+0x42>
    2bf2:	3008                	lbu	a0,1(s0)
    2bf4:	4685                	li	a3,1
    2bf6:	963a                	add	a2,a2,a4
    2bf8:	85ca                	mv	a1,s2
    2bfa:	e35ff0ef          	jal	ra,2a2e <disk_write>
    2bfe:	8526                	mv	a0,s1
    2c00:	e14fd06f          	j	214 <__riscv_restore_0>

00002c04 <move_window>:
    2c04:	591c                	lw	a5,48(a0)
    2c06:	02b78b63          	beq	a5,a1,2c3c <move_window+0x38>
    2c0a:	de6fd2ef          	jal	t0,1f0 <__riscv_save_0>
    2c0e:	215c                	lbu	a5,4(a0)
    2c10:	842a                	mv	s0,a0
    2c12:	84ae                	mv	s1,a1
    2c14:	ef91                	bnez	a5,2c30 <move_window+0x2c>
    2c16:	3008                	lbu	a0,1(s0)
    2c18:	4685                	li	a3,1
    2c1a:	8626                	mv	a2,s1
    2c1c:	03440593          	addi	a1,s0,52
    2c20:	defff0ef          	jal	ra,2a0e <disk_read>
    2c24:	4781                	li	a5,0
    2c26:	c119                	beqz	a0,2c2c <move_window+0x28>
    2c28:	4785                	li	a5,1
    2c2a:	54fd                	li	s1,-1
    2c2c:	d804                	sw	s1,48(s0)
    2c2e:	a021                	j	2c36 <move_window+0x32>
    2c30:	3771                	jal	2bbc <sync_window.part.3>
    2c32:	87aa                	mv	a5,a0
    2c34:	d16d                	beqz	a0,2c16 <move_window+0x12>
    2c36:	853e                	mv	a0,a5
    2c38:	ddcfd06f          	j	214 <__riscv_restore_0>
    2c3c:	4781                	li	a5,0
    2c3e:	853e                	mv	a0,a5
    2c40:	8082                	ret

00002c42 <check_fs>:
    2c42:	daefd2ef          	jal	t0,1f0 <__riscv_save_0>
    2c46:	57fd                	li	a5,-1
    2c48:	d91c                	sw	a5,48(a0)
    2c4a:	00050223          	sb	zero,4(a0)
    2c4e:	842a                	mv	s0,a0
    2c50:	3f55                	jal	2c04 <move_window>
    2c52:	4791                	li	a5,4
    2c54:	e971                	bnez	a0,2d28 <check_fs+0xe6>
    2c56:	23344483          	lbu	s1,563(s0)
    2c5a:	23244783          	lbu	a5,562(s0)
    2c5e:	0eb00713          	li	a4,235
    2c62:	04a2                	slli	s1,s1,0x8
    2c64:	8cdd                	or	s1,s1,a5
    2c66:	03444783          	lbu	a5,52(s0)
    2c6a:	00e78863          	beq	a5,a4,2c7a <check_fs+0x38>
    2c6e:	07e1                	addi	a5,a5,24
    2c70:	0ff7f793          	andi	a5,a5,255
    2c74:	4705                	li	a4,1
    2c76:	0af76263          	bltu	a4,a5,2d1a <check_fs+0xd8>
    2c7a:	67ad                	lui	a5,0xb
    2c7c:	a5578793          	addi	a5,a5,-1451 # aa55 <oem2uni932+0x3b69>
    2c80:	00f49d63          	bne	s1,a5,2c9a <check_fs+0x58>
    2c84:	000075b7          	lui	a1,0x7
    2c88:	4621                	li	a2,8
    2c8a:	b9458593          	addi	a1,a1,-1132 # 6b94 <LfnOfs+0x10>
    2c8e:	08640513          	addi	a0,s0,134
    2c92:	3c1020ef          	jal	ra,5852 <memcmp>
    2c96:	4781                	li	a5,0
    2c98:	c941                	beqz	a0,2d28 <check_fs+0xe6>
    2c9a:	04044783          	lbu	a5,64(s0)
    2c9e:	03f44703          	lbu	a4,63(s0)
    2ca2:	07a2                	slli	a5,a5,0x8
    2ca4:	8fd9                	or	a5,a5,a4
    2ca6:	07c2                	slli	a5,a5,0x10
    2ca8:	87c1                	srai	a5,a5,0x10
    2caa:	20000713          	li	a4,512
    2cae:	06e79663          	bne	a5,a4,2d1a <check_fs+0xd8>
    2cb2:	04144703          	lbu	a4,65(s0)
    2cb6:	c335                	beqz	a4,2d1a <check_fs+0xd8>
    2cb8:	fff70793          	addi	a5,a4,-1 # 1fff <SystemCoreClockUpdate+0xdb>
    2cbc:	8ff9                	and	a5,a5,a4
    2cbe:	efb1                	bnez	a5,2d1a <check_fs+0xd8>
    2cc0:	04344783          	lbu	a5,67(s0)
    2cc4:	04244703          	lbu	a4,66(s0)
    2cc8:	07a2                	slli	a5,a5,0x8
    2cca:	8fd9                	or	a5,a5,a4
    2ccc:	c7b9                	beqz	a5,2d1a <check_fs+0xd8>
    2cce:	04444783          	lbu	a5,68(s0)
    2cd2:	4705                	li	a4,1
    2cd4:	17fd                	addi	a5,a5,-1
    2cd6:	04f76263          	bltu	a4,a5,2d1a <check_fs+0xd8>
    2cda:	04644783          	lbu	a5,70(s0)
    2cde:	04544703          	lbu	a4,69(s0)
    2ce2:	07a2                	slli	a5,a5,0x8
    2ce4:	8fd9                	or	a5,a5,a4
    2ce6:	cb95                	beqz	a5,2d1a <check_fs+0xd8>
    2ce8:	04844783          	lbu	a5,72(s0)
    2cec:	04744703          	lbu	a4,71(s0)
    2cf0:	07a2                	slli	a5,a5,0x8
    2cf2:	8fd9                	or	a5,a5,a4
    2cf4:	07f00713          	li	a4,127
    2cf8:	00f76963          	bltu	a4,a5,2d0a <check_fs+0xc8>
    2cfc:	05440513          	addi	a0,s0,84
    2d00:	d8dff0ef          	jal	ra,2a8c <ld_dword>
    2d04:	67c1                	lui	a5,0x10
    2d06:	00f56a63          	bltu	a0,a5,2d1a <check_fs+0xd8>
    2d0a:	04b44703          	lbu	a4,75(s0)
    2d0e:	04a44783          	lbu	a5,74(s0)
    2d12:	0722                	slli	a4,a4,0x8
    2d14:	8f5d                	or	a4,a4,a5
    2d16:	4781                	li	a5,0
    2d18:	eb01                	bnez	a4,2d28 <check_fs+0xe6>
    2d1a:	672d                	lui	a4,0xb
    2d1c:	a5570713          	addi	a4,a4,-1451 # aa55 <oem2uni932+0x3b69>
    2d20:	4789                	li	a5,2
    2d22:	00e48363          	beq	s1,a4,2d28 <check_fs+0xe6>
    2d26:	478d                	li	a5,3
    2d28:	853e                	mv	a0,a5
    2d2a:	ceafd06f          	j	214 <__riscv_restore_0>

00002d2e <put_fat>:
    2d2e:	ca8fd2ef          	jal	t0,1d6 <__riscv_save_4>
    2d32:	4a05                	li	s4,1
    2d34:	4989                	li	s3,2
    2d36:	08ba7f63          	bgeu	s4,a1,2dd4 <put_fat+0xa6>
    2d3a:	4d1c                	lw	a5,24(a0)
    2d3c:	892a                	mv	s2,a0
    2d3e:	4989                	li	s3,2
    2d40:	08f5fa63          	bgeu	a1,a5,2dd4 <put_fat+0xa6>
    2d44:	211c                	lbu	a5,0(a0)
    2d46:	4709                	li	a4,2
    2d48:	84b2                	mv	s1,a2
    2d4a:	842e                	mv	s0,a1
    2d4c:	08e78e63          	beq	a5,a4,2de8 <put_fat+0xba>
    2d50:	470d                	li	a4,3
    2d52:	0ce78063          	beq	a5,a4,2e12 <put_fat+0xe4>
    2d56:	07479f63          	bne	a5,s4,2dd4 <put_fat+0xa6>
    2d5a:	0015da13          	srli	s4,a1,0x1
    2d5e:	515c                	lw	a5,36(a0)
    2d60:	9a2e                	add	s4,s4,a1
    2d62:	009a5593          	srli	a1,s4,0x9
    2d66:	95be                	add	a1,a1,a5
    2d68:	e9dff0ef          	jal	ra,2c04 <move_window>
    2d6c:	89aa                	mv	s3,a0
    2d6e:	e13d                	bnez	a0,2dd4 <put_fat+0xa6>
    2d70:	03490a93          	addi	s5,s2,52
    2d74:	001a0b13          	addi	s6,s4,1 # 40000001 <_eusrstack+0x1fff8001>
    2d78:	8805                	andi	s0,s0,1
    2d7a:	1ffa7a13          	andi	s4,s4,511
    2d7e:	9a56                	add	s4,s4,s5
    2d80:	0ff4f793          	andi	a5,s1,255
    2d84:	cc09                	beqz	s0,2d9e <put_fat+0x70>
    2d86:	000a4783          	lbu	a5,0(s4)
    2d8a:	6685                	lui	a3,0x1
    2d8c:	16c1                	addi	a3,a3,-16
    2d8e:	00f7f713          	andi	a4,a5,15
    2d92:	00449793          	slli	a5,s1,0x4
    2d96:	8ff5                	and	a5,a5,a3
    2d98:	8fd9                	or	a5,a5,a4
    2d9a:	0ff7f793          	andi	a5,a5,255
    2d9e:	00fa0023          	sb	a5,0(s4)
    2da2:	4785                	li	a5,1
    2da4:	00f90223          	sb	a5,4(s2)
    2da8:	02492783          	lw	a5,36(s2)
    2dac:	009b5593          	srli	a1,s6,0x9
    2db0:	854a                	mv	a0,s2
    2db2:	95be                	add	a1,a1,a5
    2db4:	e51ff0ef          	jal	ra,2c04 <move_window>
    2db8:	89aa                	mv	s3,a0
    2dba:	ed09                	bnez	a0,2dd4 <put_fat+0xa6>
    2dbc:	1ffb7b13          	andi	s6,s6,511
    2dc0:	9ada                	add	s5,s5,s6
    2dc2:	cc01                	beqz	s0,2dda <put_fat+0xac>
    2dc4:	8091                	srli	s1,s1,0x4
    2dc6:	0ff4f493          	andi	s1,s1,255
    2dca:	009a8023          	sb	s1,0(s5)
    2dce:	4785                	li	a5,1
    2dd0:	00f90223          	sb	a5,4(s2)
    2dd4:	854e                	mv	a0,s3
    2dd6:	c34fd06f          	j	20a <__riscv_restore_4>
    2dda:	000ac783          	lbu	a5,0(s5)
    2dde:	80a1                	srli	s1,s1,0x8
    2de0:	88bd                	andi	s1,s1,15
    2de2:	9bc1                	andi	a5,a5,-16
    2de4:	8cdd                	or	s1,s1,a5
    2de6:	b7d5                	j	2dca <put_fat+0x9c>
    2de8:	515c                	lw	a5,36(a0)
    2dea:	81a1                	srli	a1,a1,0x8
    2dec:	95be                	add	a1,a1,a5
    2dee:	e17ff0ef          	jal	ra,2c04 <move_window>
    2df2:	89aa                	mv	s3,a0
    2df4:	f165                	bnez	a0,2dd4 <put_fat+0xa6>
    2df6:	0406                	slli	s0,s0,0x1
    2df8:	03490793          	addi	a5,s2,52
    2dfc:	1fe47413          	andi	s0,s0,510
    2e00:	943e                	add	s0,s0,a5
    2e02:	a004                	sb	s1,0(s0)
    2e04:	04c2                	slli	s1,s1,0x10
    2e06:	80c1                	srli	s1,s1,0x10
    2e08:	80a1                	srli	s1,s1,0x8
    2e0a:	b004                	sb	s1,1(s0)
    2e0c:	01490223          	sb	s4,4(s2)
    2e10:	b7d1                	j	2dd4 <put_fat+0xa6>
    2e12:	515c                	lw	a5,36(a0)
    2e14:	819d                	srli	a1,a1,0x7
    2e16:	95be                	add	a1,a1,a5
    2e18:	dedff0ef          	jal	ra,2c04 <move_window>
    2e1c:	89aa                	mv	s3,a0
    2e1e:	f95d                	bnez	a0,2dd4 <put_fat+0xa6>
    2e20:	040a                	slli	s0,s0,0x2
    2e22:	03490793          	addi	a5,s2,52
    2e26:	1fc47413          	andi	s0,s0,508
    2e2a:	943e                	add	s0,s0,a5
    2e2c:	8522                	mv	a0,s0
    2e2e:	c5fff0ef          	jal	ra,2a8c <ld_dword>
    2e32:	0492                	slli	s1,s1,0x4
    2e34:	f00005b7          	lui	a1,0xf0000
    2e38:	8091                	srli	s1,s1,0x4
    2e3a:	8de9                	and	a1,a1,a0
    2e3c:	8dc5                	or	a1,a1,s1
    2e3e:	8522                	mv	a0,s0
    2e40:	c63ff0ef          	jal	ra,2aa2 <st_dword>
    2e44:	b7e1                	j	2e0c <put_fat+0xde>

00002e46 <get_fat.isra.6>:
    2e46:	4785                	li	a5,1
    2e48:	0cb7f163          	bgeu	a5,a1,2f0a <get_fat.isra.6+0xc4>
    2e4c:	b8afd2ef          	jal	t0,1d6 <__riscv_save_4>
    2e50:	4d18                	lw	a4,24(a0)
    2e52:	842a                	mv	s0,a0
    2e54:	02e5f763          	bgeu	a1,a4,2e82 <get_fat.isra.6+0x3c>
    2e58:	2118                	lbu	a4,0(a0)
    2e5a:	4689                	li	a3,2
    2e5c:	84ae                	mv	s1,a1
    2e5e:	06d70363          	beq	a4,a3,2ec4 <get_fat.isra.6+0x7e>
    2e62:	468d                	li	a3,3
    2e64:	08d70163          	beq	a4,a3,2ee6 <get_fat.isra.6+0xa0>
    2e68:	00f71d63          	bne	a4,a5,2e82 <get_fat.isra.6+0x3c>
    2e6c:	0015d913          	srli	s2,a1,0x1
    2e70:	515c                	lw	a5,36(a0)
    2e72:	992e                	add	s2,s2,a1
    2e74:	00995593          	srli	a1,s2,0x9
    2e78:	95be                	add	a1,a1,a5
    2e7a:	d8bff0ef          	jal	ra,2c04 <move_window>
    2e7e:	c509                	beqz	a0,2e88 <get_fat.isra.6+0x42>
    2e80:	57fd                	li	a5,-1
    2e82:	853e                	mv	a0,a5
    2e84:	b86fd06f          	j	20a <__riscv_restore_4>
    2e88:	505c                	lw	a5,36(s0)
    2e8a:	00190993          	addi	s3,s2,1
    2e8e:	0099d593          	srli	a1,s3,0x9
    2e92:	1ff97913          	andi	s2,s2,511
    2e96:	9922                	add	s2,s2,s0
    2e98:	95be                	add	a1,a1,a5
    2e9a:	8522                	mv	a0,s0
    2e9c:	03494903          	lbu	s2,52(s2)
    2ea0:	d65ff0ef          	jal	ra,2c04 <move_window>
    2ea4:	fd71                	bnez	a0,2e80 <get_fat.isra.6+0x3a>
    2ea6:	1ff9f993          	andi	s3,s3,511
    2eaa:	944e                	add	s0,s0,s3
    2eac:	03444783          	lbu	a5,52(s0)
    2eb0:	8885                	andi	s1,s1,1
    2eb2:	07a2                	slli	a5,a5,0x8
    2eb4:	0127e7b3          	or	a5,a5,s2
    2eb8:	c099                	beqz	s1,2ebe <get_fat.isra.6+0x78>
    2eba:	8391                	srli	a5,a5,0x4
    2ebc:	b7d9                	j	2e82 <get_fat.isra.6+0x3c>
    2ebe:	07d2                	slli	a5,a5,0x14
    2ec0:	83d1                	srli	a5,a5,0x14
    2ec2:	b7c1                	j	2e82 <get_fat.isra.6+0x3c>
    2ec4:	515c                	lw	a5,36(a0)
    2ec6:	81a1                	srli	a1,a1,0x8
    2ec8:	95be                	add	a1,a1,a5
    2eca:	d3bff0ef          	jal	ra,2c04 <move_window>
    2ece:	f94d                	bnez	a0,2e80 <get_fat.isra.6+0x3a>
    2ed0:	0486                	slli	s1,s1,0x1
    2ed2:	03440413          	addi	s0,s0,52
    2ed6:	1fe4f493          	andi	s1,s1,510
    2eda:	9426                	add	s0,s0,s1
    2edc:	301c                	lbu	a5,1(s0)
    2ede:	2018                	lbu	a4,0(s0)
    2ee0:	07a2                	slli	a5,a5,0x8
    2ee2:	8fd9                	or	a5,a5,a4
    2ee4:	bf79                	j	2e82 <get_fat.isra.6+0x3c>
    2ee6:	515c                	lw	a5,36(a0)
    2ee8:	819d                	srli	a1,a1,0x7
    2eea:	95be                	add	a1,a1,a5
    2eec:	d19ff0ef          	jal	ra,2c04 <move_window>
    2ef0:	f941                	bnez	a0,2e80 <get_fat.isra.6+0x3a>
    2ef2:	00249513          	slli	a0,s1,0x2
    2ef6:	03440413          	addi	s0,s0,52
    2efa:	1fc57513          	andi	a0,a0,508
    2efe:	9522                	add	a0,a0,s0
    2f00:	b8dff0ef          	jal	ra,2a8c <ld_dword>
    2f04:	00451793          	slli	a5,a0,0x4
    2f08:	bf4d                	j	2eba <get_fat.isra.6+0x74>
    2f0a:	4785                	li	a5,1
    2f0c:	853e                	mv	a0,a5
    2f0e:	8082                	ret

00002f10 <dir_sdi>:
    2f10:	002007b7          	lui	a5,0x200
    2f14:	00f5e763          	bltu	a1,a5,2f22 <dir_sdi+0x12>
    2f18:	4509                	li	a0,2
    2f1a:	8082                	ret
    2f1c:	4509                	li	a0,2
    2f1e:	aecfd06f          	j	20a <__riscv_restore_4>
    2f22:	ab4fd2ef          	jal	t0,1d6 <__riscv_save_4>
    2f26:	01f5f793          	andi	a5,a1,31
    2f2a:	84ae                	mv	s1,a1
    2f2c:	fbe5                	bnez	a5,2f1c <dir_sdi+0xc>
    2f2e:	00852983          	lw	s3,8(a0)
    2f32:	892a                	mv	s2,a0
    2f34:	4100                	lw	s0,0(a0)
    2f36:	00b92823          	sw	a1,16(s2)
    2f3a:	04099463          	bnez	s3,2f82 <dir_sdi+0x72>
    2f3e:	2018                	lbu	a4,0(s0)
    2f40:	4789                	li	a5,2
    2f42:	00e7f463          	bgeu	a5,a4,2f4a <dir_sdi+0x3a>
    2f46:	541c                	lw	a5,40(s0)
    2f48:	ef85                	bnez	a5,2f80 <dir_sdi+0x70>
    2f4a:	241a                	lhu	a4,8(s0)
    2f4c:	0054d793          	srli	a5,s1,0x5
    2f50:	fce7f6e3          	bgeu	a5,a4,2f1c <dir_sdi+0xc>
    2f54:	541c                	lw	a5,40(s0)
    2f56:	00f92c23          	sw	a5,24(s2)
    2f5a:	01892703          	lw	a4,24(s2)
    2f5e:	01392a23          	sw	s3,20(s2)
    2f62:	df4d                	beqz	a4,2f1c <dir_sdi+0xc>
    2f64:	0094d793          	srli	a5,s1,0x9
    2f68:	03440413          	addi	s0,s0,52
    2f6c:	1ff4f493          	andi	s1,s1,511
    2f70:	97ba                	add	a5,a5,a4
    2f72:	9426                	add	s0,s0,s1
    2f74:	00f92c23          	sw	a5,24(s2)
    2f78:	00892e23          	sw	s0,28(s2)
    2f7c:	4501                	li	a0,0
    2f7e:	b745                	j	2f1e <dir_sdi+0xe>
    2f80:	89be                	mv	s3,a5
    2f82:	00a45a03          	lhu	s4,10(s0)
    2f86:	5afd                	li	s5,-1
    2f88:	4b05                	li	s6,1
    2f8a:	0a26                	slli	s4,s4,0x9
    2f8c:	85ce                	mv	a1,s3
    2f8e:	0144f863          	bgeu	s1,s4,2f9e <dir_sdi+0x8e>
    2f92:	8522                	mv	a0,s0
    2f94:	b23ff0ef          	jal	ra,2ab6 <clst2sect>
    2f98:	00a92c23          	sw	a0,24(s2)
    2f9c:	bf7d                	j	2f5a <dir_sdi+0x4a>
    2f9e:	00092503          	lw	a0,0(s2)
    2fa2:	ea5ff0ef          	jal	ra,2e46 <get_fat.isra.6>
    2fa6:	89aa                	mv	s3,a0
    2fa8:	01550a63          	beq	a0,s5,2fbc <dir_sdi+0xac>
    2fac:	f6ab78e3          	bgeu	s6,a0,2f1c <dir_sdi+0xc>
    2fb0:	4c1c                	lw	a5,24(s0)
    2fb2:	f6f575e3          	bgeu	a0,a5,2f1c <dir_sdi+0xc>
    2fb6:	414484b3          	sub	s1,s1,s4
    2fba:	bfc9                	j	2f8c <dir_sdi+0x7c>
    2fbc:	4505                	li	a0,1
    2fbe:	b785                	j	2f1e <dir_sdi+0xe>

00002fc0 <create_chain>:
    2fc0:	a16fd2ef          	jal	t0,1d6 <__riscv_save_4>
    2fc4:	8a2a                	mv	s4,a0
    2fc6:	89ae                	mv	s3,a1
    2fc8:	4104                	lw	s1,0(a0)
    2fca:	e991                	bnez	a1,2fde <create_chain+0x1e>
    2fcc:	0104a903          	lw	s2,16(s1)
    2fd0:	00090563          	beqz	s2,2fda <create_chain+0x1a>
    2fd4:	4c9c                	lw	a5,24(s1)
    2fd6:	02f96663          	bltu	s2,a5,3002 <create_chain+0x42>
    2fda:	4905                	li	s2,1
    2fdc:	a01d                	j	3002 <create_chain+0x42>
    2fde:	8526                	mv	a0,s1
    2fe0:	e67ff0ef          	jal	ra,2e46 <get_fat.isra.6>
    2fe4:	4785                	li	a5,1
    2fe6:	842a                	mv	s0,a0
    2fe8:	00a7e663          	bltu	a5,a0,2ff4 <create_chain+0x34>
    2fec:	4405                	li	s0,1
    2fee:	8522                	mv	a0,s0
    2ff0:	a1afd06f          	j	20a <__riscv_restore_4>
    2ff4:	57fd                	li	a5,-1
    2ff6:	0af50c63          	beq	a0,a5,30ae <create_chain+0xee>
    2ffa:	4c9c                	lw	a5,24(s1)
    2ffc:	fef569e3          	bltu	a0,a5,2fee <create_chain+0x2e>
    3000:	894e                	mv	s2,s3
    3002:	48dc                	lw	a5,20(s1)
    3004:	e399                	bnez	a5,300a <create_chain+0x4a>
    3006:	4401                	li	s0,0
    3008:	b7dd                	j	2fee <create_chain+0x2e>
    300a:	03391b63          	bne	s2,s3,3040 <create_chain+0x80>
    300e:	4c9c                	lw	a5,24(s1)
    3010:	00190413          	addi	s0,s2,1
    3014:	00f46363          	bltu	s0,a5,301a <create_chain+0x5a>
    3018:	4409                	li	s0,2
    301a:	000a2503          	lw	a0,0(s4)
    301e:	85a2                	mv	a1,s0
    3020:	e27ff0ef          	jal	ra,2e46 <get_fat.isra.6>
    3024:	4705                	li	a4,1
    3026:	fce503e3          	beq	a0,a4,2fec <create_chain+0x2c>
    302a:	57fd                	li	a5,-1
    302c:	08f50163          	beq	a0,a5,30ae <create_chain+0xee>
    3030:	cd1d                	beqz	a0,306e <create_chain+0xae>
    3032:	489c                	lw	a5,16(s1)
    3034:	00f77663          	bgeu	a4,a5,3040 <create_chain+0x80>
    3038:	4c98                	lw	a4,24(s1)
    303a:	00e7f363          	bgeu	a5,a4,3040 <create_chain+0x80>
    303e:	893e                	mv	s2,a5
    3040:	844a                	mv	s0,s2
    3042:	4a85                	li	s5,1
    3044:	5b7d                	li	s6,-1
    3046:	4c9c                	lw	a5,24(s1)
    3048:	0405                	addi	s0,s0,1
    304a:	00f46563          	bltu	s0,a5,3054 <create_chain+0x94>
    304e:	fb2afce3          	bgeu	s5,s2,3006 <create_chain+0x46>
    3052:	4409                	li	s0,2
    3054:	000a2503          	lw	a0,0(s4)
    3058:	85a2                	mv	a1,s0
    305a:	dedff0ef          	jal	ra,2e46 <get_fat.isra.6>
    305e:	c909                	beqz	a0,3070 <create_chain+0xb0>
    3060:	f95506e3          	beq	a0,s5,2fec <create_chain+0x2c>
    3064:	05650563          	beq	a0,s6,30ae <create_chain+0xee>
    3068:	fd241fe3          	bne	s0,s2,3046 <create_chain+0x86>
    306c:	bf69                	j	3006 <create_chain+0x46>
    306e:	d869                	beqz	s0,3040 <create_chain+0x80>
    3070:	567d                	li	a2,-1
    3072:	85a2                	mv	a1,s0
    3074:	8526                	mv	a0,s1
    3076:	cb9ff0ef          	jal	ra,2d2e <put_fat>
    307a:	e51d                	bnez	a0,30a8 <create_chain+0xe8>
    307c:	02099063          	bnez	s3,309c <create_chain+0xdc>
    3080:	48dc                	lw	a5,20(s1)
    3082:	c880                	sw	s0,16(s1)
    3084:	d7ad                	beqz	a5,2fee <create_chain+0x2e>
    3086:	4c98                	lw	a4,24(s1)
    3088:	1779                	addi	a4,a4,-2
    308a:	f6f762e3          	bltu	a4,a5,2fee <create_chain+0x2e>
    308e:	17fd                	addi	a5,a5,-1
    3090:	c8dc                	sw	a5,20(s1)
    3092:	30dc                	lbu	a5,5(s1)
    3094:	0017e793          	ori	a5,a5,1
    3098:	b0dc                	sb	a5,5(s1)
    309a:	bf91                	j	2fee <create_chain+0x2e>
    309c:	8622                	mv	a2,s0
    309e:	85ce                	mv	a1,s3
    30a0:	8526                	mv	a0,s1
    30a2:	c8dff0ef          	jal	ra,2d2e <put_fat>
    30a6:	dd69                	beqz	a0,3080 <create_chain+0xc0>
    30a8:	4785                	li	a5,1
    30aa:	f4f511e3          	bne	a0,a5,2fec <create_chain+0x2c>
    30ae:	547d                	li	s0,-1
    30b0:	bf3d                	j	2fee <create_chain+0x2e>

000030b2 <remove_chain>:
    30b2:	924fd2ef          	jal	t0,1d6 <__riscv_save_4>
    30b6:	4785                	li	a5,1
    30b8:	84ae                	mv	s1,a1
    30ba:	4100                	lw	s0,0(a0)
    30bc:	06b7f463          	bgeu	a5,a1,3124 <remove_chain+0x72>
    30c0:	4c1c                	lw	a5,24(s0)
    30c2:	06f5f163          	bgeu	a1,a5,3124 <remove_chain+0x72>
    30c6:	89aa                	mv	s3,a0
    30c8:	85b2                	mv	a1,a2
    30ca:	ee01                	bnez	a2,30e2 <remove_chain+0x30>
    30cc:	4a05                	li	s4,1
    30ce:	5afd                	li	s5,-1
    30d0:	0009a503          	lw	a0,0(s3)
    30d4:	85a6                	mv	a1,s1
    30d6:	d71ff0ef          	jal	ra,2e46 <get_fat.isra.6>
    30da:	892a                	mv	s2,a0
    30dc:	e911                	bnez	a0,30f0 <remove_chain+0x3e>
    30de:	4501                	li	a0,0
    30e0:	a031                	j	30ec <remove_chain+0x3a>
    30e2:	567d                	li	a2,-1
    30e4:	8522                	mv	a0,s0
    30e6:	c49ff0ef          	jal	ra,2d2e <put_fat>
    30ea:	d16d                	beqz	a0,30cc <remove_chain+0x1a>
    30ec:	91efd06f          	j	20a <__riscv_restore_4>
    30f0:	03450a63          	beq	a0,s4,3124 <remove_chain+0x72>
    30f4:	03550a63          	beq	a0,s5,3128 <remove_chain+0x76>
    30f8:	4601                	li	a2,0
    30fa:	85a6                	mv	a1,s1
    30fc:	8522                	mv	a0,s0
    30fe:	c31ff0ef          	jal	ra,2d2e <put_fat>
    3102:	f56d                	bnez	a0,30ec <remove_chain+0x3a>
    3104:	4c18                	lw	a4,24(s0)
    3106:	485c                	lw	a5,20(s0)
    3108:	ffe70693          	addi	a3,a4,-2
    310c:	00d7f863          	bgeu	a5,a3,311c <remove_chain+0x6a>
    3110:	0785                	addi	a5,a5,1
    3112:	c85c                	sw	a5,20(s0)
    3114:	305c                	lbu	a5,5(s0)
    3116:	0017e793          	ori	a5,a5,1
    311a:	b05c                	sb	a5,5(s0)
    311c:	84ca                	mv	s1,s2
    311e:	fae969e3          	bltu	s2,a4,30d0 <remove_chain+0x1e>
    3122:	bf75                	j	30de <remove_chain+0x2c>
    3124:	4509                	li	a0,2
    3126:	b7d9                	j	30ec <remove_chain+0x3a>
    3128:	4505                	li	a0,1
    312a:	b7c9                	j	30ec <remove_chain+0x3a>

0000312c <mount_volume>:
    312c:	8aafd2ef          	jal	t0,1d6 <__riscv_save_4>
    3130:	1101                	addi	sp,sp,-32
    3132:	0005a023          	sw	zero,0(a1) # f0000000 <_eusrstack+0xcfff8000>
    3136:	84b2                	mv	s1,a2
    3138:	c62e                	sw	a1,12(sp)
    313a:	9b9ff0ef          	jal	ra,2af2 <get_ldnumber>
    313e:	47ad                	li	a5,11
    3140:	02054a63          	bltz	a0,3174 <mount_volume+0x48>
    3144:	00251793          	slli	a5,a0,0x2
    3148:	f3418513          	addi	a0,gp,-204 # 2000082c <FatFs>
    314c:	953e                	add	a0,a0,a5
    314e:	4100                	lw	s0,0(a0)
    3150:	47b1                	li	a5,12
    3152:	c00d                	beqz	s0,3174 <mount_volume+0x48>
    3154:	45b2                	lw	a1,12(sp)
    3156:	0fe4f493          	andi	s1,s1,254
    315a:	c180                	sw	s0,0(a1)
    315c:	201c                	lbu	a5,0(s0)
    315e:	cf99                	beqz	a5,317c <mount_volume+0x50>
    3160:	3008                	lbu	a0,1(s0)
    3162:	88bff0ef          	jal	ra,29ec <disk_status>
    3166:	00157793          	andi	a5,a0,1
    316a:	eb89                	bnez	a5,317c <mount_volume+0x50>
    316c:	c481                	beqz	s1,3174 <mount_volume+0x48>
    316e:	8911                	andi	a0,a0,4
    3170:	c111                	beqz	a0,3174 <mount_volume+0x48>
    3172:	47a9                	li	a5,10
    3174:	853e                	mv	a0,a5
    3176:	6105                	addi	sp,sp,32
    3178:	892fd06f          	j	20a <__riscv_restore_4>
    317c:	3008                	lbu	a0,1(s0)
    317e:	00040023          	sb	zero,0(s0)
    3182:	873ff0ef          	jal	ra,29f4 <disk_initialize>
    3186:	00157713          	andi	a4,a0,1
    318a:	478d                	li	a5,3
    318c:	f765                	bnez	a4,3174 <mount_volume+0x48>
    318e:	c099                	beqz	s1,3194 <mount_volume+0x68>
    3190:	8911                	andi	a0,a0,4
    3192:	f165                	bnez	a0,3172 <mount_volume+0x46>
    3194:	4581                	li	a1,0
    3196:	8522                	mv	a0,s0
    3198:	aabff0ef          	jal	ra,2c42 <check_fs>
    319c:	4789                	li	a5,2
    319e:	04f51563          	bne	a0,a5,31e8 <mount_volume+0xbc>
    31a2:	0804                	addi	s1,sp,16
    31a4:	1fa40913          	addi	s2,s0,506
    31a8:	23a40a13          	addi	s4,s0,570
    31ac:	89a6                	mv	s3,s1
    31ae:	854a                	mv	a0,s2
    31b0:	8ddff0ef          	jal	ra,2a8c <ld_dword>
    31b4:	00a9a023          	sw	a0,0(s3)
    31b8:	0941                	addi	s2,s2,16
    31ba:	0991                	addi	s3,s3,4
    31bc:	ff2a19e3          	bne	s4,s2,31ae <mount_volume+0x82>
    31c0:	01048913          	addi	s2,s1,16
    31c4:	4985                	li	s3,1
    31c6:	408c                	lw	a1,0(s1)
    31c8:	450d                	li	a0,3
    31ca:	c591                	beqz	a1,31d6 <mount_volume+0xaa>
    31cc:	8522                	mv	a0,s0
    31ce:	a75ff0ef          	jal	ra,2c42 <check_fs>
    31d2:	02a9f163          	bgeu	s3,a0,31f4 <mount_volume+0xc8>
    31d6:	0491                	addi	s1,s1,4
    31d8:	fe9917e3          	bne	s2,s1,31c6 <mount_volume+0x9a>
    31dc:	4711                	li	a4,4
    31de:	4785                	li	a5,1
    31e0:	f8e50ae3          	beq	a0,a4,3174 <mount_volume+0x48>
    31e4:	47b5                	li	a5,13
    31e6:	b779                	j	3174 <mount_volume+0x48>
    31e8:	4711                	li	a4,4
    31ea:	4785                	li	a5,1
    31ec:	f8e504e3          	beq	a0,a4,3174 <mount_volume+0x48>
    31f0:	fea7eae3          	bltu	a5,a0,31e4 <mount_volume+0xb8>
    31f4:	04044783          	lbu	a5,64(s0)
    31f8:	03f44703          	lbu	a4,63(s0)
    31fc:	07a2                	slli	a5,a5,0x8
    31fe:	8fd9                	or	a5,a5,a4
    3200:	07c2                	slli	a5,a5,0x10
    3202:	87c1                	srai	a5,a5,0x10
    3204:	20000713          	li	a4,512
    3208:	fce79ee3          	bne	a5,a4,31e4 <mount_volume+0xb8>
    320c:	04b44983          	lbu	s3,75(s0)
    3210:	04a44783          	lbu	a5,74(s0)
    3214:	09a2                	slli	s3,s3,0x8
    3216:	00f9e9b3          	or	s3,s3,a5
    321a:	00099763          	bnez	s3,3228 <mount_volume+0xfc>
    321e:	05840513          	addi	a0,s0,88
    3222:	86bff0ef          	jal	ra,2a8c <ld_dword>
    3226:	89aa                	mv	s3,a0
    3228:	04444483          	lbu	s1,68(s0)
    322c:	01342e23          	sw	s3,28(s0)
    3230:	4705                	li	a4,1
    3232:	fff48793          	addi	a5,s1,-1
    3236:	b024                	sb	s1,3(s0)
    3238:	0ff7f793          	andi	a5,a5,255
    323c:	03042a03          	lw	s4,48(s0)
    3240:	faf762e3          	bltu	a4,a5,31e4 <mount_volume+0xb8>
    3244:	04144903          	lbu	s2,65(s0)
    3248:	01091793          	slli	a5,s2,0x10
    324c:	83c1                	srli	a5,a5,0x10
    324e:	a43e                	sh	a5,10(s0)
    3250:	dbd1                	beqz	a5,31e4 <mount_volume+0xb8>
    3252:	fff90793          	addi	a5,s2,-1
    3256:	0127f7b3          	and	a5,a5,s2
    325a:	f7c9                	bnez	a5,31e4 <mount_volume+0xb8>
    325c:	04644783          	lbu	a5,70(s0)
    3260:	04544a83          	lbu	s5,69(s0)
    3264:	07a2                	slli	a5,a5,0x8
    3266:	0157e7b3          	or	a5,a5,s5
    326a:	01079a93          	slli	s5,a5,0x10
    326e:	410ada93          	srai	s5,s5,0x10
    3272:	010a9b13          	slli	s6,s5,0x10
    3276:	010b5b13          	srli	s6,s6,0x10
    327a:	01641423          	sh	s6,8(s0)
    327e:	00fb7793          	andi	a5,s6,15
    3282:	f3ad                	bnez	a5,31e4 <mount_volume+0xb8>
    3284:	04844503          	lbu	a0,72(s0)
    3288:	04744783          	lbu	a5,71(s0)
    328c:	0522                	slli	a0,a0,0x8
    328e:	8d5d                	or	a0,a0,a5
    3290:	e509                	bnez	a0,329a <mount_volume+0x16e>
    3292:	05440513          	addi	a0,s0,84
    3296:	ff6ff0ef          	jal	ra,2a8c <ld_dword>
    329a:	04344783          	lbu	a5,67(s0)
    329e:	04244703          	lbu	a4,66(s0)
    32a2:	07a2                	slli	a5,a5,0x8
    32a4:	8fd9                	or	a5,a5,a4
    32a6:	df9d                	beqz	a5,31e4 <mount_volume+0xb8>
    32a8:	033486b3          	mul	a3,s1,s3
    32ac:	004b5713          	srli	a4,s6,0x4
    32b0:	973e                	add	a4,a4,a5
    32b2:	9736                	add	a4,a4,a3
    32b4:	f2e568e3          	bltu	a0,a4,31e4 <mount_volume+0xb8>
    32b8:	8d19                	sub	a0,a0,a4
    32ba:	032554b3          	divu	s1,a0,s2
    32be:	f32563e3          	bltu	a0,s2,31e4 <mount_volume+0xb8>
    32c2:	10000637          	lui	a2,0x10000
    32c6:	1655                	addi	a2,a2,-11
    32c8:	f0966ee3          	bltu	a2,s1,31e4 <mount_volume+0xb8>
    32cc:	6641                	lui	a2,0x10
    32ce:	1655                	addi	a2,a2,-11
    32d0:	10967263          	bgeu	a2,s1,33d4 <mount_volume+0x2a8>
    32d4:	490d                	li	s2,3
    32d6:	9752                	add	a4,a4,s4
    32d8:	0489                	addi	s1,s1,2
    32da:	97d2                	add	a5,a5,s4
    32dc:	d458                	sw	a4,44(s0)
    32de:	cc04                	sw	s1,24(s0)
    32e0:	03442023          	sw	s4,32(s0)
    32e4:	d05c                	sw	a5,36(s0)
    32e6:	470d                	li	a4,3
    32e8:	0ce91763          	bne	s2,a4,33b6 <mount_volume+0x28a>
    32ec:	05f44783          	lbu	a5,95(s0)
    32f0:	05e44703          	lbu	a4,94(s0)
    32f4:	07a2                	slli	a5,a5,0x8
    32f6:	8fd9                	or	a5,a5,a4
    32f8:	00fae7b3          	or	a5,s5,a5
    32fc:	07c2                	slli	a5,a5,0x10
    32fe:	87c1                	srai	a5,a5,0x10
    3300:	ee0792e3          	bnez	a5,31e4 <mount_volume+0xb8>
    3304:	06040513          	addi	a0,s0,96
    3308:	f84ff0ef          	jal	ra,2a8c <ld_dword>
    330c:	d408                	sw	a0,40(s0)
    330e:	048a                	slli	s1,s1,0x2
    3310:	1ff48493          	addi	s1,s1,511
    3314:	80a5                	srli	s1,s1,0x9
    3316:	ec99e7e3          	bltu	s3,s1,31e4 <mount_volume+0xb8>
    331a:	57fd                	li	a5,-1
    331c:	c85c                	sw	a5,20(s0)
    331e:	c81c                	sw	a5,16(s0)
    3320:	f8000793          	li	a5,-128
    3324:	b05c                	sb	a5,5(s0)
    3326:	478d                	li	a5,3
    3328:	06f91b63          	bne	s2,a5,339e <mount_volume+0x272>
    332c:	06544783          	lbu	a5,101(s0)
    3330:	06444703          	lbu	a4,100(s0)
    3334:	07a2                	slli	a5,a5,0x8
    3336:	8fd9                	or	a5,a5,a4
    3338:	07c2                	slli	a5,a5,0x10
    333a:	87c1                	srai	a5,a5,0x10
    333c:	4705                	li	a4,1
    333e:	06e79063          	bne	a5,a4,339e <mount_volume+0x272>
    3342:	001a0593          	addi	a1,s4,1
    3346:	8522                	mv	a0,s0
    3348:	8bdff0ef          	jal	ra,2c04 <move_window>
    334c:	e929                	bnez	a0,339e <mount_volume+0x272>
    334e:	000402a3          	sb	zero,5(s0)
    3352:	03440513          	addi	a0,s0,52
    3356:	f36ff0ef          	jal	ra,2a8c <ld_dword>
    335a:	416157b7          	lui	a5,0x41615
    335e:	25278793          	addi	a5,a5,594 # 41615252 <_eusrstack+0x2160d252>
    3362:	02f51e63          	bne	a0,a5,339e <mount_volume+0x272>
    3366:	21840513          	addi	a0,s0,536
    336a:	f22ff0ef          	jal	ra,2a8c <ld_dword>
    336e:	614177b7          	lui	a5,0x61417
    3372:	27278793          	addi	a5,a5,626 # 61417272 <_eusrstack+0x4140f272>
    3376:	02f51463          	bne	a0,a5,339e <mount_volume+0x272>
    337a:	22640513          	addi	a0,s0,550
    337e:	f0eff0ef          	jal	ra,2a8c <ld_dword>
    3382:	aa5507b7          	lui	a5,0xaa550
    3386:	00f51c63          	bne	a0,a5,339e <mount_volume+0x272>
    338a:	21c40513          	addi	a0,s0,540
    338e:	efeff0ef          	jal	ra,2a8c <ld_dword>
    3392:	c848                	sw	a0,20(s0)
    3394:	22040513          	addi	a0,s0,544
    3398:	ef4ff0ef          	jal	ra,2a8c <ld_dword>
    339c:	c808                	sw	a0,16(s0)
    339e:	83418713          	addi	a4,gp,-1996 # 2000012c <Fsid>
    33a2:	231e                	lhu	a5,0(a4)
    33a4:	01240023          	sb	s2,0(s0)
    33a8:	0785                	addi	a5,a5,1
    33aa:	07c2                	slli	a5,a5,0x10
    33ac:	83c1                	srli	a5,a5,0x10
    33ae:	a31e                	sh	a5,0(a4)
    33b0:	a07e                	sh	a5,6(s0)
    33b2:	4781                	li	a5,0
    33b4:	b3c1                	j	3174 <mount_volume+0x48>
    33b6:	e20b07e3          	beqz	s6,31e4 <mount_volume+0xb8>
    33ba:	97b6                	add	a5,a5,a3
    33bc:	d41c                	sw	a5,40(s0)
    33be:	4789                	li	a5,2
    33c0:	00f91463          	bne	s2,a5,33c8 <mount_volume+0x29c>
    33c4:	0486                	slli	s1,s1,0x1
    33c6:	b7a9                	j	3310 <mount_volume+0x1e4>
    33c8:	02e48733          	mul	a4,s1,a4
    33cc:	8885                	andi	s1,s1,1
    33ce:	8305                	srli	a4,a4,0x1
    33d0:	94ba                	add	s1,s1,a4
    33d2:	bf3d                	j	3310 <mount_volume+0x1e4>
    33d4:	6905                	lui	s2,0x1
    33d6:	1955                	addi	s2,s2,-11
    33d8:	00993933          	sltu	s2,s2,s1
    33dc:	0905                	addi	s2,s2,1
    33de:	bde5                	j	32d6 <mount_volume+0x1aa>

000033e0 <sync_fs>:
    33e0:	e11fc2ef          	jal	t0,1f0 <__riscv_save_0>
    33e4:	215c                	lbu	a5,4(a0)
    33e6:	842a                	mv	s0,a0
    33e8:	e3cd                	bnez	a5,348a <sync_fs+0xaa>
    33ea:	3058                	lbu	a4,5(s0)
    33ec:	4785                	li	a5,1
    33ee:	08f71663          	bne	a4,a5,347a <sync_fs+0x9a>
    33f2:	2018                	lbu	a4,0(s0)
    33f4:	000402a3          	sb	zero,5(s0)
    33f8:	478d                	li	a5,3
    33fa:	08f71063          	bne	a4,a5,347a <sync_fs+0x9a>
    33fe:	03440493          	addi	s1,s0,52
    3402:	20000613          	li	a2,512
    3406:	4581                	li	a1,0
    3408:	8526                	mv	a0,s1
    340a:	e17fc0ef          	jal	ra,220 <memset>
    340e:	05200793          	li	a5,82
    3412:	484c                	lw	a1,20(s0)
    3414:	07200693          	li	a3,114
    3418:	04100713          	li	a4,65
    341c:	02f40a23          	sb	a5,52(s0)
    3420:	02f40aa3          	sb	a5,53(s0)
    3424:	06100793          	li	a5,97
    3428:	02f40b23          	sb	a5,54(s0)
    342c:	20d40c23          	sb	a3,536(s0)
    3430:	20d40ca3          	sb	a3,537(s0)
    3434:	20f40da3          	sb	a5,539(s0)
    3438:	02e40ba3          	sb	a4,55(s0)
    343c:	20e40d23          	sb	a4,538(s0)
    3440:	21c40513          	addi	a0,s0,540
    3444:	e5eff0ef          	jal	ra,2aa2 <st_dword>
    3448:	480c                	lw	a1,16(s0)
    344a:	22040513          	addi	a0,s0,544
    344e:	e54ff0ef          	jal	ra,2aa2 <st_dword>
    3452:	5010                	lw	a2,32(s0)
    3454:	05500793          	li	a5,85
    3458:	3008                	lbu	a0,1(s0)
    345a:	22f40423          	sb	a5,552(s0)
    345e:	0605                	addi	a2,a2,1
    3460:	faa00793          	li	a5,-86
    3464:	22040323          	sb	zero,550(s0)
    3468:	220403a3          	sb	zero,551(s0)
    346c:	22f404a3          	sb	a5,553(s0)
    3470:	d810                	sw	a2,48(s0)
    3472:	4685                	li	a3,1
    3474:	85a6                	mv	a1,s1
    3476:	db8ff0ef          	jal	ra,2a2e <disk_write>
    347a:	3008                	lbu	a0,1(s0)
    347c:	4601                	li	a2,0
    347e:	4581                	li	a1,0
    3480:	dceff0ef          	jal	ra,2a4e <disk_ioctl>
    3484:	00a03533          	snez	a0,a0
    3488:	a021                	j	3490 <sync_fs+0xb0>
    348a:	f32ff0ef          	jal	ra,2bbc <sync_window.part.3>
    348e:	dd31                	beqz	a0,33ea <sync_fs+0xa>
    3490:	d85fc06f          	j	214 <__riscv_restore_0>

00003494 <dir_clear>:
    3494:	d43fc2ef          	jal	t0,1d6 <__riscv_save_4>
    3498:	215c                	lbu	a5,4(a0)
    349a:	1141                	addi	sp,sp,-16
    349c:	892a                	mv	s2,a0
    349e:	e7b1                	bnez	a5,34ea <dir_clear+0x56>
    34a0:	854a                	mv	a0,s2
    34a2:	e14ff0ef          	jal	ra,2ab6 <clst2sect>
    34a6:	03490a93          	addi	s5,s2,52 # 1034 <SD_EnableWideBusOperation+0x4a>
    34aa:	02a92823          	sw	a0,48(s2)
    34ae:	89aa                	mv	s3,a0
    34b0:	20000613          	li	a2,512
    34b4:	4581                	li	a1,0
    34b6:	8556                	mv	a0,s5
    34b8:	d69fc0ef          	jal	ra,220 <memset>
    34bc:	00a95403          	lhu	s0,10(s2)
    34c0:	67a1                	lui	a5,0x8
    34c2:	0426                	slli	s0,s0,0x9
    34c4:	00f46363          	bltu	s0,a5,34ca <dir_clear+0x36>
    34c8:	6421                	lui	s0,0x8
    34ca:	20000493          	li	s1,512
    34ce:	0884f163          	bgeu	s1,s0,3550 <dir_clear+0xbc>
    34d2:	8522                	mv	a0,s0
    34d4:	5b6010ef          	jal	ra,4a8a <ff_memalloc>
    34d8:	8a2a                	mv	s4,a0
    34da:	c115                	beqz	a0,34fe <dir_clear+0x6a>
    34dc:	8622                	mv	a2,s0
    34de:	4581                	li	a1,0
    34e0:	d41fc0ef          	jal	ra,220 <memset>
    34e4:	8025                	srli	s0,s0,0x9
    34e6:	4481                	li	s1,0
    34e8:	a03d                	j	3516 <dir_clear+0x82>
    34ea:	c62e                	sw	a1,12(sp)
    34ec:	ed0ff0ef          	jal	ra,2bbc <sync_window.part.3>
    34f0:	4485                	li	s1,1
    34f2:	45b2                	lw	a1,12(sp)
    34f4:	d555                	beqz	a0,34a0 <dir_clear+0xc>
    34f6:	8526                	mv	a0,s1
    34f8:	0141                	addi	sp,sp,16
    34fa:	d11fc06f          	j	20a <__riscv_restore_4>
    34fe:	8005                	srli	s0,s0,0x1
    3500:	b7f9                	j	34ce <dir_clear+0x3a>
    3502:	00194503          	lbu	a0,1(s2)
    3506:	86a2                	mv	a3,s0
    3508:	00998633          	add	a2,s3,s1
    350c:	85d2                	mv	a1,s4
    350e:	d20ff0ef          	jal	ra,2a2e <disk_write>
    3512:	e511                	bnez	a0,351e <dir_clear+0x8a>
    3514:	94a2                	add	s1,s1,s0
    3516:	00a95783          	lhu	a5,10(s2)
    351a:	fef4e4e3          	bltu	s1,a5,3502 <dir_clear+0x6e>
    351e:	8552                	mv	a0,s4
    3520:	576010ef          	jal	ra,4a96 <ff_memfree>
    3524:	00a95783          	lhu	a5,10(s2)
    3528:	409784b3          	sub	s1,a5,s1
    352c:	009034b3          	snez	s1,s1
    3530:	b7d9                	j	34f6 <dir_clear+0x62>
    3532:	0485                	addi	s1,s1,1
    3534:	00a95783          	lhu	a5,10(s2)
    3538:	fef4f6e3          	bgeu	s1,a5,3524 <dir_clear+0x90>
    353c:	00194503          	lbu	a0,1(s2)
    3540:	4685                	li	a3,1
    3542:	00998633          	add	a2,s3,s1
    3546:	85d6                	mv	a1,s5
    3548:	ce6ff0ef          	jal	ra,2a2e <disk_write>
    354c:	d17d                	beqz	a0,3532 <dir_clear+0x9e>
    354e:	bfd9                	j	3524 <dir_clear+0x90>
    3550:	4481                	li	s1,0
    3552:	b7cd                	j	3534 <dir_clear+0xa0>

00003554 <dir_next>:
    3554:	c83fc2ef          	jal	t0,1d6 <__riscv_save_4>
    3558:	01052983          	lw	s3,16(a0)
    355c:	002007b7          	lui	a5,0x200
    3560:	842a                	mv	s0,a0
    3562:	02098993          	addi	s3,s3,32
    3566:	4104                	lw	s1,0(a0)
    3568:	00f9e463          	bltu	s3,a5,3570 <dir_next+0x1c>
    356c:	00052c23          	sw	zero,24(a0)
    3570:	4c1c                	lw	a5,24(s0)
    3572:	4511                	li	a0,4
    3574:	c395                	beqz	a5,3598 <dir_next+0x44>
    3576:	1ff9fa13          	andi	s4,s3,511
    357a:	8aae                	mv	s5,a1
    357c:	080a1263          	bnez	s4,3600 <dir_next+0xac>
    3580:	484c                	lw	a1,20(s0)
    3582:	0785                	addi	a5,a5,1
    3584:	cc1c                	sw	a5,24(s0)
    3586:	e999                	bnez	a1,359c <dir_next+0x48>
    3588:	249a                	lhu	a4,8(s1)
    358a:	0059d793          	srli	a5,s3,0x5
    358e:	06e7e963          	bltu	a5,a4,3600 <dir_next+0xac>
    3592:	00042c23          	sw	zero,24(s0) # 8018 <oem2uni932+0x112c>
    3596:	4511                	li	a0,4
    3598:	c73fc06f          	j	20a <__riscv_restore_4>
    359c:	24be                	lhu	a5,10(s1)
    359e:	0099d713          	srli	a4,s3,0x9
    35a2:	17fd                	addi	a5,a5,-1
    35a4:	8ff9                	and	a5,a5,a4
    35a6:	efa9                	bnez	a5,3600 <dir_next+0xac>
    35a8:	8526                	mv	a0,s1
    35aa:	89dff0ef          	jal	ra,2e46 <get_fat.isra.6>
    35ae:	4b05                	li	s6,1
    35b0:	892a                	mv	s2,a0
    35b2:	00ab6463          	bltu	s6,a0,35ba <dir_next+0x66>
    35b6:	4509                	li	a0,2
    35b8:	b7c5                	j	3598 <dir_next+0x44>
    35ba:	57fd                	li	a5,-1
    35bc:	00f51463          	bne	a0,a5,35c4 <dir_next+0x70>
    35c0:	4505                	li	a0,1
    35c2:	bfd9                	j	3598 <dir_next+0x44>
    35c4:	4c9c                	lw	a5,24(s1)
    35c6:	02f56663          	bltu	a0,a5,35f2 <dir_next+0x9e>
    35ca:	fc0a84e3          	beqz	s5,3592 <dir_next+0x3e>
    35ce:	484c                	lw	a1,20(s0)
    35d0:	8522                	mv	a0,s0
    35d2:	9efff0ef          	jal	ra,2fc0 <create_chain>
    35d6:	892a                	mv	s2,a0
    35d8:	451d                	li	a0,7
    35da:	fa090fe3          	beqz	s2,3598 <dir_next+0x44>
    35de:	fd690ce3          	beq	s2,s6,35b6 <dir_next+0x62>
    35e2:	57fd                	li	a5,-1
    35e4:	fcf90ee3          	beq	s2,a5,35c0 <dir_next+0x6c>
    35e8:	85ca                	mv	a1,s2
    35ea:	8526                	mv	a0,s1
    35ec:	ea9ff0ef          	jal	ra,3494 <dir_clear>
    35f0:	f961                	bnez	a0,35c0 <dir_next+0x6c>
    35f2:	01242a23          	sw	s2,20(s0)
    35f6:	85ca                	mv	a1,s2
    35f8:	8526                	mv	a0,s1
    35fa:	cbcff0ef          	jal	ra,2ab6 <clst2sect>
    35fe:	cc08                	sw	a0,24(s0)
    3600:	03448493          	addi	s1,s1,52
    3604:	94d2                	add	s1,s1,s4
    3606:	01342823          	sw	s3,16(s0)
    360a:	cc44                	sw	s1,28(s0)
    360c:	4501                	li	a0,0
    360e:	b769                	j	3598 <dir_next+0x44>

00003610 <dir_find>:
    3610:	bb1fc2ef          	jal	t0,1c0 <__riscv_save_12>
    3614:	1141                	addi	sp,sp,-16
    3616:	4581                	li	a1,0
    3618:	8c2a                	mv	s8,a0
    361a:	00052a83          	lw	s5,0(a0)
    361e:	8f3ff0ef          	jal	ra,2f10 <dir_sdi>
    3622:	84aa                	mv	s1,a0
    3624:	16051a63          	bnez	a0,3798 <dir_find+0x188>
    3628:	57fd                	li	a5,-1
    362a:	699d                	lui	s3,0x7
    362c:	6a41                	lui	s4,0x10
    362e:	02fc2623          	sw	a5,44(s8)
    3632:	0ff00913          	li	s2,255
    3636:	0ff00413          	li	s0,255
    363a:	4b35                	li	s6,13
    363c:	b8498993          	addi	s3,s3,-1148 # 6b84 <LfnOfs>
    3640:	1a7d                	addi	s4,s4,-1
    3642:	020c0b93          	addi	s7,s8,32
    3646:	018c2583          	lw	a1,24(s8)
    364a:	8556                	mv	a0,s5
    364c:	db8ff0ef          	jal	ra,2c04 <move_window>
    3650:	84aa                	mv	s1,a0
    3652:	14051363          	bnez	a0,3798 <dir_find+0x188>
    3656:	01cc2c83          	lw	s9,28(s8)
    365a:	000ccd03          	lbu	s10,0(s9)
    365e:	140d0163          	beqz	s10,37a0 <dir_find+0x190>
    3662:	00bcc783          	lbu	a5,11(s9)
    3666:	0e500693          	li	a3,229
    366a:	03f7f713          	andi	a4,a5,63
    366e:	00ec0323          	sb	a4,6(s8)
    3672:	00dd0763          	beq	s10,a3,3680 <dir_find+0x70>
    3676:	8ba1                	andi	a5,a5,8
    3678:	cb81                	beqz	a5,3688 <dir_find+0x78>
    367a:	47bd                	li	a5,15
    367c:	00f70963          	beq	a4,a5,368e <dir_find+0x7e>
    3680:	57fd                	li	a5,-1
    3682:	02fc2623          	sw	a5,44(s8)
    3686:	a0e5                	j	376e <dir_find+0x15e>
    3688:	47bd                	li	a5,15
    368a:	0ef71563          	bne	a4,a5,3774 <dir_find+0x164>
    368e:	02bc4783          	lbu	a5,43(s8)
    3692:	0407f793          	andi	a5,a5,64
    3696:	e3f1                	bnez	a5,375a <dir_find+0x14a>
    3698:	040d7793          	andi	a5,s10,64
    369c:	c7dd                	beqz	a5,374a <dir_find+0x13a>
    369e:	010c2783          	lw	a5,16(s8)
    36a2:	0bfd7d13          	andi	s10,s10,191
    36a6:	02fc2623          	sw	a5,44(s8)
    36aa:	00dcc903          	lbu	s2,13(s9)
    36ae:	01bcc783          	lbu	a5,27(s9)
    36b2:	01acc703          	lbu	a4,26(s9)
    36b6:	0ff00413          	li	s0,255
    36ba:	07a2                	slli	a5,a5,0x8
    36bc:	8fd9                	or	a5,a5,a4
    36be:	efd1                	bnez	a5,375a <dir_find+0x14a>
    36c0:	000cc403          	lbu	s0,0(s9)
    36c4:	00caa483          	lw	s1,12(s5)
    36c8:	4685                	li	a3,1
    36ca:	03f47413          	andi	s0,s0,63
    36ce:	147d                	addi	s0,s0,-1
    36d0:	03640433          	mul	s0,s0,s6
    36d4:	4701                	li	a4,0
    36d6:	0ff00613          	li	a2,255
    36da:	00e987b3          	add	a5,s3,a4
    36de:	239c                	lbu	a5,0(a5)
    36e0:	97e6                	add	a5,a5,s9
    36e2:	0017cd83          	lbu	s11,1(a5) # 200001 <_data_lma+0x1ea6d1>
    36e6:	239c                	lbu	a5,0(a5)
    36e8:	0da2                	slli	s11,s11,0x8
    36ea:	00fdedb3          	or	s11,s11,a5
    36ee:	ceb5                	beqz	a3,376a <dir_find+0x15a>
    36f0:	c63a                	sw	a4,12(sp)
    36f2:	06866e63          	bltu	a2,s0,376e <dir_find+0x15e>
    36f6:	856e                	mv	a0,s11
    36f8:	468010ef          	jal	ra,4b60 <ff_wtoupper>
    36fc:	00141793          	slli	a5,s0,0x1
    3700:	97a6                	add	a5,a5,s1
    3702:	c42a                	sw	a0,8(sp)
    3704:	238a                	lhu	a0,0(a5)
    3706:	00140593          	addi	a1,s0,1
    370a:	c22e                	sw	a1,4(sp)
    370c:	454010ef          	jal	ra,4b60 <ff_wtoupper>
    3710:	46a2                	lw	a3,8(sp)
    3712:	04a69e63          	bne	a3,a0,376e <dir_find+0x15e>
    3716:	4592                	lw	a1,4(sp)
    3718:	4732                	lw	a4,12(sp)
    371a:	86ee                	mv	a3,s11
    371c:	842e                	mv	s0,a1
    371e:	0ff00613          	li	a2,255
    3722:	0705                	addi	a4,a4,1
    3724:	fb671be3          	bne	a4,s6,36da <dir_find+0xca>
    3728:	000cc783          	lbu	a5,0(s9)
    372c:	0407f793          	andi	a5,a5,64
    3730:	cb81                	beqz	a5,3740 <dir_find+0x130>
    3732:	c699                	beqz	a3,3740 <dir_find+0x130>
    3734:	0406                	slli	s0,s0,0x1
    3736:	9426                	add	s0,s0,s1
    3738:	201e                	lhu	a5,0(s0)
    373a:	0ff00413          	li	s0,255
    373e:	ef91                	bnez	a5,375a <dir_find+0x14a>
    3740:	fffd0413          	addi	s0,s10,-1
    3744:	0ff47413          	andi	s0,s0,255
    3748:	a809                	j	375a <dir_find+0x14a>
    374a:	03a41263          	bne	s0,s10,376e <dir_find+0x15e>
    374e:	00dcc783          	lbu	a5,13(s9)
    3752:	0ff00413          	li	s0,255
    3756:	f5278ce3          	beq	a5,s2,36ae <dir_find+0x9e>
    375a:	4581                	li	a1,0
    375c:	8562                	mv	a0,s8
    375e:	df7ff0ef          	jal	ra,3554 <dir_next>
    3762:	84aa                	mv	s1,a0
    3764:	ee0501e3          	beqz	a0,3646 <dir_find+0x36>
    3768:	a805                	j	3798 <dir_find+0x188>
    376a:	fb4d8ce3          	beq	s11,s4,3722 <dir_find+0x112>
    376e:	0ff00413          	li	s0,255
    3772:	b7e5                	j	375a <dir_find+0x14a>
    3774:	e411                	bnez	s0,3780 <dir_find+0x170>
    3776:	8566                	mv	a0,s9
    3778:	b58ff0ef          	jal	ra,2ad0 <sum_sfn>
    377c:	01250e63          	beq	a0,s2,3798 <dir_find+0x188>
    3780:	02bc4783          	lbu	a5,43(s8)
    3784:	8b85                	andi	a5,a5,1
    3786:	ee079de3          	bnez	a5,3680 <dir_find+0x70>
    378a:	462d                	li	a2,11
    378c:	85de                	mv	a1,s7
    378e:	8566                	mv	a0,s9
    3790:	0c2020ef          	jal	ra,5852 <memcmp>
    3794:	ee0516e3          	bnez	a0,3680 <dir_find+0x70>
    3798:	8526                	mv	a0,s1
    379a:	0141                	addi	sp,sp,16
    379c:	a61fc06f          	j	1fc <__riscv_restore_12>
    37a0:	4491                	li	s1,4
    37a2:	bfdd                	j	3798 <dir_find+0x188>

000037a4 <follow_path>:
    37a4:	a1dfc2ef          	jal	t0,1c0 <__riscv_save_12>
    37a8:	411c                	lw	a5,0(a0)
    37aa:	1141                	addi	sp,sp,-16
    37ac:	8aaa                	mv	s5,a0
    37ae:	c43e                	sw	a5,8(sp)
    37b0:	02f00613          	li	a2,47
    37b4:	05c00693          	li	a3,92
    37b8:	00058783          	lb	a5,0(a1)
    37bc:	0cc78463          	beq	a5,a2,3884 <follow_path+0xe0>
    37c0:	0cd78263          	beq	a5,a3,3884 <follow_path+0xe0>
    37c4:	000aa423          	sw	zero,8(s5)
    37c8:	2194                	lbu	a3,0(a1)
    37ca:	47fd                	li	a5,31
    37cc:	0ad7fe63          	bgeu	a5,a3,3888 <follow_path+0xe4>
    37d0:	05c00a13          	li	s4,92
    37d4:	000aa783          	lw	a5,0(s5)
    37d8:	4901                	li	s2,0
    37da:	08000b13          	li	s6,128
    37de:	47c4                	lw	s1,12(a5)
    37e0:	09f00b93          	li	s7,159
    37e4:	03f00c13          	li	s8,63
    37e8:	07e00c93          	li	s9,126
    37ec:	0fc00d13          	li	s10,252
    37f0:	4df1                	li	s11,28
    37f2:	2194                	lbu	a3,0(a1)
    37f4:	01069513          	slli	a0,a3,0x10
    37f8:	8141                	srli	a0,a0,0x10
    37fa:	0adb7263          	bgeu	s6,a3,389e <follow_path+0xfa>
    37fe:	00dbf863          	bgeu	s7,a3,380e <follow_path+0x6a>
    3802:	02068613          	addi	a2,a3,32 # 1020 <SD_EnableWideBusOperation+0x36>
    3806:	0ff67613          	andi	a2,a2,255
    380a:	08cdea63          	bltu	s11,a2,389e <follow_path+0xfa>
    380e:	00158603          	lb	a2,1(a1)
    3812:	00258413          	addi	s0,a1,2
    3816:	0ff67693          	andi	a3,a2,255
    381a:	2cdc7963          	bgeu	s8,a3,3aec <follow_path+0x348>
    381e:	00dcf663          	bgeu	s9,a3,382a <follow_path+0x86>
    3822:	2c065563          	bgez	a2,3aec <follow_path+0x348>
    3826:	2cdd6363          	bltu	s10,a3,3aec <follow_path+0x348>
    382a:	0522                	slli	a0,a0,0x8
    382c:	9536                	add	a0,a0,a3
    382e:	0542                	slli	a0,a0,0x10
    3830:	8141                	srli	a0,a0,0x10
    3832:	3a400593          	li	a1,932
    3836:	2d4010ef          	jal	ra,4b0a <ff_oem2uni>
    383a:	89aa                	mv	s3,a0
    383c:	2a050863          	beqz	a0,3aec <follow_path+0x348>
    3840:	47fd                	li	a5,31
    3842:	06a7f163          	bgeu	a5,a0,38a4 <follow_path+0x100>
    3846:	02f00613          	li	a2,47
    384a:	10c50963          	beq	a0,a2,395c <follow_path+0x1b8>
    384e:	11450763          	beq	a0,s4,395c <follow_path+0x1b8>
    3852:	07f00613          	li	a2,127
    3856:	00a66b63          	bltu	a2,a0,386c <follow_path+0xc8>
    385a:	000077b7          	lui	a5,0x7
    385e:	85aa                	mv	a1,a0
    3860:	c0478513          	addi	a0,a5,-1020 # 6c04 <defopt.6449+0x44>
    3864:	38a020ef          	jal	ra,5bee <strchr>
    3868:	28051263          	bnez	a0,3aec <follow_path+0x348>
    386c:	0ff00613          	li	a2,255
    3870:	26c90e63          	beq	s2,a2,3aec <follow_path+0x348>
    3874:	00191613          	slli	a2,s2,0x1
    3878:	9626                	add	a2,a2,s1
    387a:	01361023          	sh	s3,0(a2) # 10000 <uni2oem932+0x1d9c>
    387e:	0905                	addi	s2,s2,1
    3880:	85a2                	mv	a1,s0
    3882:	bf85                	j	37f2 <follow_path+0x4e>
    3884:	0585                	addi	a1,a1,1
    3886:	bf0d                	j	37b8 <follow_path+0x14>
    3888:	f8000793          	li	a5,-128
    388c:	02fa85a3          	sb	a5,43(s5)
    3890:	4581                	li	a1,0
    3892:	8556                	mv	a0,s5
    3894:	e7cff0ef          	jal	ra,2f10 <dir_sdi>
    3898:	0141                	addi	sp,sp,16
    389a:	963fc06f          	j	1fc <__riscv_restore_12>
    389e:	00158413          	addi	s0,a1,1
    38a2:	fac1                	bnez	a3,3832 <follow_path+0x8e>
    38a4:	4b11                	li	s6,4
    38a6:	a831                	j	38c2 <follow_path+0x11e>
    38a8:	0405                	addi	s0,s0,1
    38aa:	00040683          	lb	a3,0(s0)
    38ae:	fec68de3          	beq	a3,a2,38a8 <follow_path+0x104>
    38b2:	ff468be3          	beq	a3,s4,38a8 <follow_path+0x104>
    38b6:	0ff6f693          	andi	a3,a3,255
    38ba:	47fd                	li	a5,31
    38bc:	4b01                	li	s6,0
    38be:	fed7f3e3          	bgeu	a5,a3,38a4 <follow_path+0x100>
    38c2:	02000593          	li	a1,32
    38c6:	02e00513          	li	a0,46
    38ca:	00191693          	slli	a3,s2,0x1
    38ce:	08091a63          	bnez	s2,3962 <follow_path+0x1be>
    38d2:	96a6                	add	a3,a3,s1
    38d4:	00069023          	sh	zero,0(a3)
    38d8:	20090a63          	beqz	s2,3aec <follow_path+0x348>
    38dc:	4d81                	li	s11,0
    38de:	02000613          	li	a2,32
    38e2:	001d9693          	slli	a3,s11,0x1
    38e6:	96a6                	add	a3,a3,s1
    38e8:	2296                	lhu	a3,0(a3)
    38ea:	001d8593          	addi	a1,s11,1
    38ee:	08c68463          	beq	a3,a2,3976 <follow_path+0x1d2>
    38f2:	000d9663          	bnez	s11,38fe <follow_path+0x15a>
    38f6:	02e00613          	li	a2,46
    38fa:	00c69463          	bne	a3,a2,3902 <follow_path+0x15e>
    38fe:	003b6b13          	ori	s6,s6,3
    3902:	02e00613          	li	a2,46
    3906:	00191693          	slli	a3,s2,0x1
    390a:	96a6                	add	a3,a3,s1
    390c:	ffe6d683          	lhu	a3,-2(a3)
    3910:	00c68563          	beq	a3,a2,391a <follow_path+0x176>
    3914:	197d                	addi	s2,s2,-1
    3916:	fe0918e3          	bnez	s2,3906 <follow_path+0x162>
    391a:	462d                	li	a2,11
    391c:	02000593          	li	a1,32
    3920:	020a8513          	addi	a0,s5,32
    3924:	8fdfc0ef          	jal	ra,220 <memset>
    3928:	4ca1                	li	s9,8
    392a:	4d01                	li	s10,0
    392c:	4b81                	li	s7,0
    392e:	4c2d                	li	s8,11
    3930:	001d8993          	addi	s3,s11,1
    3934:	0d86                	slli	s11,s11,0x1
    3936:	9da6                	add	s11,s11,s1
    3938:	000ddd83          	lhu	s11,0(s11)
    393c:	040d8b63          	beqz	s11,3992 <follow_path+0x1ee>
    3940:	02000793          	li	a5,32
    3944:	00fd8863          	beq	s11,a5,3954 <follow_path+0x1b0>
    3948:	02e00793          	li	a5,46
    394c:	02fd9763          	bne	s11,a5,397a <follow_path+0x1d6>
    3950:	03390963          	beq	s2,s3,3982 <follow_path+0x1de>
    3954:	003b6b13          	ori	s6,s6,3
    3958:	8dce                	mv	s11,s3
    395a:	bfd9                	j	3930 <follow_path+0x18c>
    395c:	02f00613          	li	a2,47
    3960:	b7a9                	j	38aa <follow_path+0x106>
    3962:	00d48633          	add	a2,s1,a3
    3966:	ffe65603          	lhu	a2,-2(a2)
    396a:	00b60463          	beq	a2,a1,3972 <follow_path+0x1ce>
    396e:	f6a612e3          	bne	a2,a0,38d2 <follow_path+0x12e>
    3972:	197d                	addi	s2,s2,-1
    3974:	bf99                	j	38ca <follow_path+0x126>
    3976:	8dae                	mv	s11,a1
    3978:	b7ad                	j	38e2 <follow_path+0x13e>
    397a:	019d7763          	bgeu	s10,s9,3988 <follow_path+0x1e4>
    397e:	09391263          	bne	s2,s3,3a02 <follow_path+0x25e>
    3982:	078c9963          	bne	s9,s8,39f4 <follow_path+0x250>
    3986:	a019                	j	398c <follow_path+0x1e8>
    3988:	078c9063          	bne	s9,s8,39e8 <follow_path+0x244>
    398c:	003b6b13          	ori	s6,s6,3
    3990:	4cad                	li	s9,11
    3992:	020ac683          	lbu	a3,32(s5)
    3996:	0e500793          	li	a5,229
    399a:	00f69563          	bne	a3,a5,39a4 <follow_path+0x200>
    399e:	4795                	li	a5,5
    39a0:	02fa8023          	sb	a5,32(s5)
    39a4:	47a1                	li	a5,8
    39a6:	00fc9563          	bne	s9,a5,39b0 <follow_path+0x20c>
    39aa:	0b8a                	slli	s7,s7,0x2
    39ac:	0ffbfb93          	andi	s7,s7,255
    39b0:	00cbf793          	andi	a5,s7,12
    39b4:	46b1                	li	a3,12
    39b6:	00d78763          	beq	a5,a3,39c4 <follow_path+0x220>
    39ba:	003bf793          	andi	a5,s7,3
    39be:	468d                	li	a3,3
    39c0:	0ed79063          	bne	a5,a3,3aa0 <follow_path+0x2fc>
    39c4:	002b6b13          	ori	s6,s6,2
    39c8:	036a85a3          	sb	s6,43(s5)
    39cc:	8556                	mv	a0,s5
    39ce:	c43ff0ef          	jal	ra,3610 <dir_find>
    39d2:	02bac783          	lbu	a5,43(s5)
    39d6:	c565                	beqz	a0,3abe <follow_path+0x31a>
    39d8:	4711                	li	a4,4
    39da:	eae51fe3          	bne	a0,a4,3898 <follow_path+0xf4>
    39de:	8b91                	andi	a5,a5,4
    39e0:	ea079ce3          	bnez	a5,3898 <follow_path+0xf4>
    39e4:	4515                	li	a0,5
    39e6:	bd4d                	j	3898 <follow_path+0xf4>
    39e8:	01390663          	beq	s2,s3,39f4 <follow_path+0x250>
    39ec:	003b6b13          	ori	s6,s6,3
    39f0:	fb3961e3          	bltu	s2,s3,3992 <follow_path+0x1ee>
    39f4:	0b8a                	slli	s7,s7,0x2
    39f6:	0ffbfb93          	andi	s7,s7,255
    39fa:	89ca                	mv	s3,s2
    39fc:	4cad                	li	s9,11
    39fe:	4d21                	li	s10,8
    3a00:	bfa1                	j	3958 <follow_path+0x1b4>
    3a02:	07f00793          	li	a5,127
    3a06:	05b7f963          	bgeu	a5,s11,3a58 <follow_path+0x2b4>
    3a0a:	002b6313          	ori	t1,s6,2
    3a0e:	856e                	mv	a0,s11
    3a10:	c61a                	sw	t1,12(sp)
    3a12:	14e010ef          	jal	ra,4b60 <ff_wtoupper>
    3a16:	3a400593          	li	a1,932
    3a1a:	088010ef          	jal	ra,4aa2 <ff_uni2oem>
    3a1e:	0ff00593          	li	a1,255
    3a22:	8daa                	mv	s11,a0
    3a24:	4332                	lw	t1,12(sp)
    3a26:	02a5f763          	bgeu	a1,a0,3a54 <follow_path+0x2b0>
    3a2a:	fffc8593          	addi	a1,s9,-1
    3a2e:	00bd6663          	bltu	s10,a1,3a3a <follow_path+0x296>
    3a32:	003b6b13          	ori	s6,s6,3
    3a36:	8d66                	mv	s10,s9
    3a38:	b705                	j	3958 <follow_path+0x1b4>
    3a3a:	01aa85b3          	add	a1,s5,s10
    3a3e:	8121                	srli	a0,a0,0x8
    3a40:	02a58023          	sb	a0,32(a1)
    3a44:	0d05                	addi	s10,s10,1
    3a46:	8b1a                	mv	s6,t1
    3a48:	01aa85b3          	add	a1,s5,s10
    3a4c:	03b58023          	sb	s11,32(a1)
    3a50:	0d05                	addi	s10,s10,1
    3a52:	b719                	j	3958 <follow_path+0x1b4>
    3a54:	8b1a                	mv	s6,t1
    3a56:	c909                	beqz	a0,3a68 <follow_path+0x2c4>
    3a58:	000077b7          	lui	a5,0x7
    3a5c:	85ee                	mv	a1,s11
    3a5e:	c1078513          	addi	a0,a5,-1008 # 6c10 <defopt.6449+0x50>
    3a62:	18c020ef          	jal	ra,5bee <strchr>
    3a66:	c511                	beqz	a0,3a72 <follow_path+0x2ce>
    3a68:	003b6b13          	ori	s6,s6,3
    3a6c:	05f00d93          	li	s11,95
    3a70:	bfe1                	j	3a48 <follow_path+0x2a4>
    3a72:	fbfd8593          	addi	a1,s11,-65
    3a76:	05c2                	slli	a1,a1,0x10
    3a78:	81c1                	srli	a1,a1,0x10
    3a7a:	4565                	li	a0,25
    3a7c:	00b56563          	bltu	a0,a1,3a86 <follow_path+0x2e2>
    3a80:	002beb93          	ori	s7,s7,2
    3a84:	b7d1                	j	3a48 <follow_path+0x2a4>
    3a86:	f9fd8593          	addi	a1,s11,-97
    3a8a:	05c2                	slli	a1,a1,0x10
    3a8c:	81c1                	srli	a1,a1,0x10
    3a8e:	fab56de3          	bltu	a0,a1,3a48 <follow_path+0x2a4>
    3a92:	1d81                	addi	s11,s11,-32
    3a94:	0dc2                	slli	s11,s11,0x10
    3a96:	001beb93          	ori	s7,s7,1
    3a9a:	010ddd93          	srli	s11,s11,0x10
    3a9e:	b76d                	j	3a48 <follow_path+0x2a4>
    3aa0:	002b7793          	andi	a5,s6,2
    3aa4:	f395                	bnez	a5,39c8 <follow_path+0x224>
    3aa6:	001bf793          	andi	a5,s7,1
    3aaa:	c399                	beqz	a5,3ab0 <follow_path+0x30c>
    3aac:	010b6b13          	ori	s6,s6,16
    3ab0:	004bfb93          	andi	s7,s7,4
    3ab4:	f00b8ae3          	beqz	s7,39c8 <follow_path+0x224>
    3ab8:	008b6b13          	ori	s6,s6,8
    3abc:	b731                	j	39c8 <follow_path+0x224>
    3abe:	8b91                	andi	a5,a5,4
    3ac0:	dc079ce3          	bnez	a5,3898 <follow_path+0xf4>
    3ac4:	006ac783          	lbu	a5,6(s5)
    3ac8:	8bc1                	andi	a5,a5,16
    3aca:	df89                	beqz	a5,39e4 <follow_path+0x240>
    3acc:	47a2                	lw	a5,8(sp)
    3ace:	03478593          	addi	a1,a5,52
    3ad2:	010aa783          	lw	a5,16(s5)
    3ad6:	1ff7f793          	andi	a5,a5,511
    3ada:	95be                	add	a1,a1,a5
    3adc:	47a2                	lw	a5,8(sp)
    3ade:	2388                	lbu	a0,0(a5)
    3ae0:	8a0ff0ef          	jal	ra,2b80 <ld_clust.isra.1>
    3ae4:	00aaa423          	sw	a0,8(s5)
    3ae8:	85a2                	mv	a1,s0
    3aea:	b1ed                	j	37d4 <follow_path+0x30>
    3aec:	4519                	li	a0,6
    3aee:	b36d                	j	3898 <follow_path+0xf4>

00003af0 <dir_register>:
    3af0:	ed8fc2ef          	jal	t0,1c8 <__riscv_save_10>
    3af4:	02b54903          	lbu	s2,43(a0)
    3af8:	1101                	addi	sp,sp,-32
    3afa:	4499                	li	s1,6
    3afc:	0a097793          	andi	a5,s2,160
    3b00:	e7e5                	bnez	a5,3be8 <dir_register+0xf8>
    3b02:	00052983          	lw	s3,0(a0)
    3b06:	4a81                	li	s5,0
    3b08:	00c9a703          	lw	a4,12(s3)
    3b0c:	001a9793          	slli	a5,s5,0x1
    3b10:	97ba                	add	a5,a5,a4
    3b12:	239e                	lhu	a5,0(a5)
    3b14:	eff1                	bnez	a5,3bf0 <dir_register+0x100>
    3b16:	02050a13          	addi	s4,a0,32
    3b1a:	842a                	mv	s0,a0
    3b1c:	4631                	li	a2,12
    3b1e:	85d2                	mv	a1,s4
    3b20:	0848                	addi	a0,sp,20
    3b22:	555010ef          	jal	ra,5876 <memcpy>
    3b26:	00197793          	andi	a5,s2,1
    3b2a:	12078f63          	beqz	a5,3c68 <dir_register+0x178>
    3b2e:	04000793          	li	a5,64
    3b32:	6b45                	lui	s6,0x11
    3b34:	02f405a3          	sb	a5,43(s0)
    3b38:	4b85                	li	s7,1
    3b3a:	021b0b13          	addi	s6,s6,33 # 11021 <uni2oem932+0x2dbd>
    3b3e:	462d                	li	a2,11
    3b40:	084c                	addi	a1,sp,20
    3b42:	8552                	mv	a0,s4
    3b44:	00c9a483          	lw	s1,12(s3)
    3b48:	52f010ef          	jal	ra,5876 <memcpy>
    3b4c:	4795                	li	a5,5
    3b4e:	0d77e563          	bltu	a5,s7,3c18 <dir_register+0x128>
    3b52:	87de                	mv	a5,s7
    3b54:	469d                	li	a3,7
    3b56:	03900813          	li	a6,57
    3b5a:	45bd                	li	a1,15
    3b5c:	00f7f713          	andi	a4,a5,15
    3b60:	03070613          	addi	a2,a4,48
    3b64:	0047d513          	srli	a0,a5,0x4
    3b68:	00c87463          	bgeu	a6,a2,3b70 <dir_register+0x80>
    3b6c:	03770613          	addi	a2,a4,55
    3b70:	0064                	addi	s1,sp,12
    3b72:	00d488b3          	add	a7,s1,a3
    3b76:	fff68713          	addi	a4,a3,-1
    3b7a:	00c88023          	sb	a2,0(a7)
    3b7e:	c355                	beqz	a4,3c22 <dir_register+0x132>
    3b80:	08f5ee63          	bltu	a1,a5,3c1c <dir_register+0x12c>
    3b84:	101c                	addi	a5,sp,32
    3b86:	07e00613          	li	a2,126
    3b8a:	97ba                	add	a5,a5,a4
    3b8c:	fec78623          	sb	a2,-20(a5)
    3b90:	02000593          	li	a1,32
    3b94:	4781                	li	a5,0
    3b96:	08000513          	li	a0,128
    3b9a:	09f00813          	li	a6,159
    3b9e:	ffe68613          	addi	a2,a3,-2
    3ba2:	48f1                	li	a7,28
    3ba4:	00fa06b3          	add	a3,s4,a5
    3ba8:	00e7f563          	bgeu	a5,a4,3bb2 <dir_register+0xc2>
    3bac:	2294                	lbu	a3,0(a3)
    3bae:	06b69c63          	bne	a3,a1,3c26 <dir_register+0x136>
    3bb2:	469d                	li	a3,7
    3bb4:	02000613          	li	a2,32
    3bb8:	00e6e763          	bltu	a3,a4,3bc6 <dir_register+0xd6>
    3bbc:	1010                	addi	a2,sp,32
    3bbe:	963a                	add	a2,a2,a4
    3bc0:	fec64603          	lbu	a2,-20(a2)
    3bc4:	0705                	addi	a4,a4,1
    3bc6:	0785                	addi	a5,a5,1
    3bc8:	00f405b3          	add	a1,s0,a5
    3bcc:	bdf0                	sb	a2,31(a1)
    3bce:	fef6f3e3          	bgeu	a3,a5,3bb4 <dir_register+0xc4>
    3bd2:	8522                	mv	a0,s0
    3bd4:	a3dff0ef          	jal	ra,3610 <dir_find>
    3bd8:	84aa                	mv	s1,a0
    3bda:	e151                	bnez	a0,3c5e <dir_register+0x16e>
    3bdc:	0b85                	addi	s7,s7,1
    3bde:	06400793          	li	a5,100
    3be2:	f4fb9ee3          	bne	s7,a5,3b3e <dir_register+0x4e>
    3be6:	449d                	li	s1,7
    3be8:	8526                	mv	a0,s1
    3bea:	6105                	addi	sp,sp,32
    3bec:	e14fc06f          	j	200 <__riscv_restore_10>
    3bf0:	0a85                	addi	s5,s5,1
    3bf2:	bf29                	j	3b0c <dir_register+0x1c>
    3bf4:	0489                	addi	s1,s1,2
    3bf6:	46c1                	li	a3,16
    3bf8:	00177613          	andi	a2,a4,1
    3bfc:	0786                	slli	a5,a5,0x1
    3bfe:	97b2                	add	a5,a5,a2
    3c00:	00f79613          	slli	a2,a5,0xf
    3c04:	8305                	srli	a4,a4,0x1
    3c06:	00065463          	bgez	a2,3c0e <dir_register+0x11e>
    3c0a:	0167c7b3          	xor	a5,a5,s6
    3c0e:	16fd                	addi	a3,a3,-1
    3c10:	f6e5                	bnez	a3,3bf8 <dir_register+0x108>
    3c12:	209a                	lhu	a4,0(s1)
    3c14:	f365                	bnez	a4,3bf4 <dir_register+0x104>
    3c16:	bf3d                	j	3b54 <dir_register+0x64>
    3c18:	87de                	mv	a5,s7
    3c1a:	bfe5                	j	3c12 <dir_register+0x122>
    3c1c:	86ba                	mv	a3,a4
    3c1e:	87aa                	mv	a5,a0
    3c20:	bf35                	j	3b5c <dir_register+0x6c>
    3c22:	4685                	li	a3,1
    3c24:	b785                	j	3b84 <dir_register+0x94>
    3c26:	00d57f63          	bgeu	a0,a3,3c44 <dir_register+0x154>
    3c2a:	00d87863          	bgeu	a6,a3,3c3a <dir_register+0x14a>
    3c2e:	02068693          	addi	a3,a3,32
    3c32:	0ff6f693          	andi	a3,a3,255
    3c36:	00d8e763          	bltu	a7,a3,3c44 <dir_register+0x154>
    3c3a:	00178693          	addi	a3,a5,1
    3c3e:	f6f60ae3          	beq	a2,a5,3bb2 <dir_register+0xc2>
    3c42:	87b6                	mv	a5,a3
    3c44:	0785                	addi	a5,a5,1
    3c46:	bfb9                	j	3ba4 <dir_register+0xb4>
    3c48:	4a81                	li	s5,0
    3c4a:	4585                	li	a1,1
    3c4c:	8522                	mv	a0,s0
    3c4e:	907ff0ef          	jal	ra,3554 <dir_next>
    3c52:	84aa                	mv	s1,a0
    3c54:	cd1d                	beqz	a0,3c92 <dir_register+0x1a2>
    3c56:	4791                	li	a5,4
    3c58:	f8f487e3          	beq	s1,a5,3be6 <dir_register+0xf6>
    3c5c:	b771                	j	3be8 <dir_register+0xf8>
    3c5e:	4791                	li	a5,4
    3c60:	f8f514e3          	bne	a0,a5,3be8 <dir_register+0xf8>
    3c64:	032405a3          	sb	s2,43(s0)
    3c68:	00297793          	andi	a5,s2,2
    3c6c:	4905                	li	s2,1
    3c6e:	c799                	beqz	a5,3c7c <dir_register+0x18c>
    3c70:	00ca8913          	addi	s2,s5,12
    3c74:	4ab5                	li	s5,13
    3c76:	03595933          	divu	s2,s2,s5
    3c7a:	0905                	addi	s2,s2,1
    3c7c:	4581                	li	a1,0
    3c7e:	8522                	mv	a0,s0
    3c80:	00042b03          	lw	s6,0(s0)
    3c84:	a8cff0ef          	jal	ra,2f10 <dir_sdi>
    3c88:	84aa                	mv	s1,a0
    3c8a:	f571                	bnez	a0,3c56 <dir_register+0x166>
    3c8c:	4a81                	li	s5,0
    3c8e:	0e500b93          	li	s7,229
    3c92:	4c0c                	lw	a1,24(s0)
    3c94:	855a                	mv	a0,s6
    3c96:	f6ffe0ef          	jal	ra,2c04 <move_window>
    3c9a:	84aa                	mv	s1,a0
    3c9c:	fd4d                	bnez	a0,3c56 <dir_register+0x166>
    3c9e:	4c5c                	lw	a5,28(s0)
    3ca0:	239c                	lbu	a5,0(a5)
    3ca2:	01778363          	beq	a5,s7,3ca8 <dir_register+0x1b8>
    3ca6:	f3cd                	bnez	a5,3c48 <dir_register+0x158>
    3ca8:	0a85                	addi	s5,s5,1
    3caa:	fb5910e3          	bne	s2,s5,3c4a <dir_register+0x15a>
    3cae:	197d                	addi	s2,s2,-1
    3cb0:	0c090063          	beqz	s2,3d70 <dir_register+0x280>
    3cb4:	481c                	lw	a5,16(s0)
    3cb6:	00591593          	slli	a1,s2,0x5
    3cba:	8522                	mv	a0,s0
    3cbc:	40b785b3          	sub	a1,a5,a1
    3cc0:	a50ff0ef          	jal	ra,2f10 <dir_sdi>
    3cc4:	84aa                	mv	s1,a0
    3cc6:	f10d                	bnez	a0,3be8 <dir_register+0xf8>
    3cc8:	8552                	mv	a0,s4
    3cca:	e07fe0ef          	jal	ra,2ad0 <sum_sfn>
    3cce:	6cc1                	lui	s9,0x10
    3cd0:	6a9d                	lui	s5,0x7
    3cd2:	8baa                	mv	s7,a0
    3cd4:	4c3d                	li	s8,15
    3cd6:	4b35                	li	s6,13
    3cd8:	1cfd                	addi	s9,s9,-1
    3cda:	b84a8a93          	addi	s5,s5,-1148 # 6b84 <LfnOfs>
    3cde:	4c0c                	lw	a1,24(s0)
    3ce0:	854e                	mv	a0,s3
    3ce2:	f23fe0ef          	jal	ra,2c04 <move_window>
    3ce6:	84aa                	mv	s1,a0
    3ce8:	f00510e3          	bnez	a0,3be8 <dir_register+0xf8>
    3cec:	0ff97793          	andi	a5,s2,255
    3cf0:	17fd                	addi	a5,a5,-1
    3cf2:	036787b3          	mul	a5,a5,s6
    3cf6:	4c58                	lw	a4,28(s0)
    3cf8:	00c9a603          	lw	a2,12(s3)
    3cfc:	0ff97813          	andi	a6,s2,255
    3d00:	017706a3          	sb	s7,13(a4)
    3d04:	018705a3          	sb	s8,11(a4)
    3d08:	00070623          	sb	zero,12(a4)
    3d0c:	00070d23          	sb	zero,26(a4)
    3d10:	00070da3          	sb	zero,27(a4)
    3d14:	4681                	li	a3,0
    3d16:	4581                	li	a1,0
    3d18:	01968763          	beq	a3,s9,3d26 <dir_register+0x236>
    3d1c:	00179693          	slli	a3,a5,0x1
    3d20:	96b2                	add	a3,a3,a2
    3d22:	2296                	lhu	a3,0(a3)
    3d24:	0785                	addi	a5,a5,1
    3d26:	00ba8533          	add	a0,s5,a1
    3d2a:	2108                	lbu	a0,0(a0)
    3d2c:	0086d893          	srli	a7,a3,0x8
    3d30:	953a                	add	a0,a0,a4
    3d32:	a114                	sb	a3,0(a0)
    3d34:	011500a3          	sb	a7,1(a0)
    3d38:	e291                	bnez	a3,3d3c <dir_register+0x24c>
    3d3a:	86e6                	mv	a3,s9
    3d3c:	0585                	addi	a1,a1,1
    3d3e:	fd659de3          	bne	a1,s6,3d18 <dir_register+0x228>
    3d42:	01968663          	beq	a3,s9,3d4e <dir_register+0x25e>
    3d46:	0786                	slli	a5,a5,0x1
    3d48:	97b2                	add	a5,a5,a2
    3d4a:	239e                	lhu	a5,0(a5)
    3d4c:	e399                	bnez	a5,3d52 <dir_register+0x262>
    3d4e:	04086813          	ori	a6,a6,64
    3d52:	01070023          	sb	a6,0(a4)
    3d56:	4785                	li	a5,1
    3d58:	00f98223          	sb	a5,4(s3)
    3d5c:	4581                	li	a1,0
    3d5e:	8522                	mv	a0,s0
    3d60:	ff4ff0ef          	jal	ra,3554 <dir_next>
    3d64:	84aa                	mv	s1,a0
    3d66:	e80511e3          	bnez	a0,3be8 <dir_register+0xf8>
    3d6a:	197d                	addi	s2,s2,-1
    3d6c:	f60919e3          	bnez	s2,3cde <dir_register+0x1ee>
    3d70:	4c0c                	lw	a1,24(s0)
    3d72:	854e                	mv	a0,s3
    3d74:	e91fe0ef          	jal	ra,2c04 <move_window>
    3d78:	84aa                	mv	s1,a0
    3d7a:	e60517e3          	bnez	a0,3be8 <dir_register+0xf8>
    3d7e:	4c48                	lw	a0,28(s0)
    3d80:	02000613          	li	a2,32
    3d84:	4581                	li	a1,0
    3d86:	c9afc0ef          	jal	ra,220 <memset>
    3d8a:	4c48                	lw	a0,28(s0)
    3d8c:	462d                	li	a2,11
    3d8e:	85d2                	mv	a1,s4
    3d90:	2e7010ef          	jal	ra,5876 <memcpy>
    3d94:	02b44783          	lbu	a5,43(s0)
    3d98:	4c58                	lw	a4,28(s0)
    3d9a:	8be1                	andi	a5,a5,24
    3d9c:	a75c                	sb	a5,12(a4)
    3d9e:	4785                	li	a5,1
    3da0:	00f98223          	sb	a5,4(s3)
    3da4:	b591                	j	3be8 <dir_register+0xf8>

00003da6 <f_mount>:
    3da6:	c4afc2ef          	jal	t0,1f0 <__riscv_save_0>
    3daa:	1101                	addi	sp,sp,-32
    3dac:	c62a                	sw	a0,12(sp)
    3dae:	0868                	addi	a0,sp,28
    3db0:	c42e                	sw	a1,8(sp)
    3db2:	c232                	sw	a2,4(sp)
    3db4:	ce2e                	sw	a1,28(sp)
    3db6:	d3dfe0ef          	jal	ra,2af2 <get_ldnumber>
    3dba:	04054163          	bltz	a0,3dfc <f_mount+0x56>
    3dbe:	f3418713          	addi	a4,gp,-204 # 2000082c <FatFs>
    3dc2:	00251693          	slli	a3,a0,0x2
    3dc6:	9736                	add	a4,a4,a3
    3dc8:	430c                	lw	a1,0(a4)
    3dca:	f3418793          	addi	a5,gp,-204 # 2000082c <FatFs>
    3dce:	4612                	lw	a2,4(sp)
    3dd0:	c589                	beqz	a1,3dda <f_mount+0x34>
    3dd2:	00072023          	sw	zero,0(a4)
    3dd6:	00058023          	sb	zero,0(a1)
    3dda:	4732                	lw	a4,12(sp)
    3ddc:	c711                	beqz	a4,3de8 <f_mount+0x42>
    3dde:	97b6                	add	a5,a5,a3
    3de0:	b308                	sb	a0,1(a4)
    3de2:	00070023          	sb	zero,0(a4)
    3de6:	c398                	sw	a4,0(a5)
    3de8:	4501                	li	a0,0
    3dea:	c611                	beqz	a2,3df6 <f_mount+0x50>
    3dec:	4601                	li	a2,0
    3dee:	006c                	addi	a1,sp,12
    3df0:	0028                	addi	a0,sp,8
    3df2:	b3aff0ef          	jal	ra,312c <mount_volume>
    3df6:	6105                	addi	sp,sp,32
    3df8:	c1cfc06f          	j	214 <__riscv_restore_0>
    3dfc:	452d                	li	a0,11
    3dfe:	bfe5                	j	3df6 <f_mount+0x50>

00003e00 <f_open>:
    3e00:	bc8fc2ef          	jal	t0,1c8 <__riscv_save_10>
    3e04:	715d                	addi	sp,sp,-80
    3e06:	c62e                	sw	a1,12(sp)
    3e08:	4425                	li	s0,9
    3e0a:	0e050663          	beqz	a0,3ef6 <f_open+0xf6>
    3e0e:	03f67993          	andi	s3,a2,63
    3e12:	8932                	mv	s2,a2
    3e14:	84aa                	mv	s1,a0
    3e16:	864e                	mv	a2,s3
    3e18:	086c                	addi	a1,sp,28
    3e1a:	0068                	addi	a0,sp,12
    3e1c:	b10ff0ef          	jal	ra,312c <mount_volume>
    3e20:	842a                	mv	s0,a0
    3e22:	e961                	bnez	a0,3ef2 <f_open+0xf2>
    3e24:	47f2                	lw	a5,28(sp)
    3e26:	20000513          	li	a0,512
    3e2a:	4445                	li	s0,17
    3e2c:	d03e                	sw	a5,32(sp)
    3e2e:	45d000ef          	jal	ra,4a8a <ff_memalloc>
    3e32:	8aaa                	mv	s5,a0
    3e34:	c169                	beqz	a0,3ef6 <f_open+0xf6>
    3e36:	47f2                	lw	a5,28(sp)
    3e38:	45b2                	lw	a1,12(sp)
    3e3a:	c7c8                	sw	a0,12(a5)
    3e3c:	1008                	addi	a0,sp,32
    3e3e:	967ff0ef          	jal	ra,37a4 <follow_path>
    3e42:	842a                	mv	s0,a0
    3e44:	e511                	bnez	a0,3e50 <f_open+0x50>
    3e46:	04b10783          	lb	a5,75(sp)
    3e4a:	0007d363          	bgez	a5,3e50 <f_open+0x50>
    3e4e:	4419                	li	s0,6
    3e50:	01c97793          	andi	a5,s2,28
    3e54:	12078263          	beqz	a5,3f78 <f_open+0x178>
    3e58:	c05d                	beqz	s0,3efe <f_open+0xfe>
    3e5a:	4791                	li	a5,4
    3e5c:	08f41763          	bne	s0,a5,3eea <f_open+0xea>
    3e60:	1008                	addi	a0,sp,32
    3e62:	c8fff0ef          	jal	ra,3af0 <dir_register>
    3e66:	842a                	mv	s0,a0
    3e68:	e149                	bnez	a0,3eea <f_open+0xea>
    3e6a:	0089e993          	ori	s3,s3,8
    3e6e:	c1bfe0ef          	jal	ra,2a88 <get_fattime>
    3e72:	842a                	mv	s0,a0
    3e74:	85aa                	mv	a1,a0
    3e76:	5572                	lw	a0,60(sp)
    3e78:	0539                	addi	a0,a0,14
    3e7a:	c29fe0ef          	jal	ra,2aa2 <st_dword>
    3e7e:	5572                	lw	a0,60(sp)
    3e80:	85a2                	mv	a1,s0
    3e82:	0559                	addi	a0,a0,22
    3e84:	c1ffe0ef          	jal	ra,2aa2 <st_dword>
    3e88:	4472                	lw	s0,28(sp)
    3e8a:	5a72                	lw	s4,60(sp)
    3e8c:	2008                	lbu	a0,0(s0)
    3e8e:	85d2                	mv	a1,s4
    3e90:	cf1fe0ef          	jal	ra,2b80 <ld_clust.isra.1>
    3e94:	02000793          	li	a5,32
    3e98:	00fa05a3          	sb	a5,11(s4) # 1000b <uni2oem932+0x1da7>
    3e9c:	55f2                	lw	a1,60(sp)
    3e9e:	892a                	mv	s2,a0
    3ea0:	4601                	li	a2,0
    3ea2:	8522                	mv	a0,s0
    3ea4:	cfbfe0ef          	jal	ra,2b9e <st_clust.isra.2>
    3ea8:	57f2                	lw	a5,60(sp)
    3eaa:	4705                	li	a4,1
    3eac:	00078e23          	sb	zero,28(a5)
    3eb0:	00078ea3          	sb	zero,29(a5)
    3eb4:	00078f23          	sb	zero,30(a5)
    3eb8:	00078fa3          	sb	zero,31(a5)
    3ebc:	47f2                	lw	a5,28(sp)
    3ebe:	a3d8                	sb	a4,4(a5)
    3ec0:	04090c63          	beqz	s2,3f18 <f_open+0x118>
    3ec4:	4601                	li	a2,0
    3ec6:	85ca                	mv	a1,s2
    3ec8:	1008                	addi	a0,sp,32
    3eca:	0307aa03          	lw	s4,48(a5)
    3ece:	9e4ff0ef          	jal	ra,30b2 <remove_chain>
    3ed2:	842a                	mv	s0,a0
    3ed4:	e919                	bnez	a0,3eea <f_open+0xea>
    3ed6:	4572                	lw	a0,28(sp)
    3ed8:	85d2                	mv	a1,s4
    3eda:	197d                	addi	s2,s2,-1
    3edc:	d29fe0ef          	jal	ra,2c04 <move_window>
    3ee0:	47f2                	lw	a5,28(sp)
    3ee2:	842a                	mv	s0,a0
    3ee4:	0127a823          	sw	s2,16(a5)
    3ee8:	c905                	beqz	a0,3f18 <f_open+0x118>
    3eea:	8556                	mv	a0,s5
    3eec:	3ab000ef          	jal	ra,4a96 <ff_memfree>
    3ef0:	c019                	beqz	s0,3ef6 <f_open+0xf6>
    3ef2:	0004a023          	sw	zero,0(s1)
    3ef6:	8522                	mv	a0,s0
    3ef8:	6161                	addi	sp,sp,80
    3efa:	b06fc06f          	j	200 <__riscv_restore_10>
    3efe:	02614783          	lbu	a5,38(sp)
    3f02:	441d                	li	s0,7
    3f04:	8bc5                	andi	a5,a5,17
    3f06:	f3f5                	bnez	a5,3eea <f_open+0xea>
    3f08:	00497793          	andi	a5,s2,4
    3f0c:	4421                	li	s0,8
    3f0e:	fff1                	bnez	a5,3eea <f_open+0xea>
    3f10:	00897913          	andi	s2,s2,8
    3f14:	f4091de3          	bnez	s2,3e6e <f_open+0x6e>
    3f18:	0089f793          	andi	a5,s3,8
    3f1c:	c399                	beqz	a5,3f22 <f_open+0x122>
    3f1e:	0409e993          	ori	s3,s3,64
    3f22:	4472                	lw	s0,28(sp)
    3f24:	5972                	lw	s2,60(sp)
    3f26:	02848b13          	addi	s6,s1,40
    3f2a:	581c                	lw	a5,48(s0)
    3f2c:	0324a223          	sw	s2,36(s1)
    3f30:	85ca                	mv	a1,s2
    3f32:	d09c                	sw	a5,32(s1)
    3f34:	2008                	lbu	a0,0(s0)
    3f36:	c4bfe0ef          	jal	ra,2b80 <ld_clust.isra.1>
    3f3a:	c488                	sw	a0,8(s1)
    3f3c:	8a2a                	mv	s4,a0
    3f3e:	01c90513          	addi	a0,s2,28
    3f42:	b4bfe0ef          	jal	ra,2a8c <ld_dword>
    3f46:	207e                	lhu	a5,6(s0)
    3f48:	c4c8                	sw	a0,12(s1)
    3f4a:	01348823          	sb	s3,16(s1)
    3f4e:	892a                	mv	s2,a0
    3f50:	c080                	sw	s0,0(s1)
    3f52:	a0de                	sh	a5,4(s1)
    3f54:	000488a3          	sb	zero,17(s1)
    3f58:	0004ae23          	sw	zero,28(s1)
    3f5c:	0004aa23          	sw	zero,20(s1)
    3f60:	20000613          	li	a2,512
    3f64:	4581                	li	a1,0
    3f66:	855a                	mv	a0,s6
    3f68:	0209f993          	andi	s3,s3,32
    3f6c:	ab4fc0ef          	jal	ra,220 <memset>
    3f70:	02099363          	bnez	s3,3f96 <f_open+0x196>
    3f74:	4401                	li	s0,0
    3f76:	bf95                	j	3eea <f_open+0xea>
    3f78:	f82d                	bnez	s0,3eea <f_open+0xea>
    3f7a:	02614783          	lbu	a5,38(sp)
    3f7e:	4411                	li	s0,4
    3f80:	0107f713          	andi	a4,a5,16
    3f84:	f33d                	bnez	a4,3eea <f_open+0xea>
    3f86:	00297913          	andi	s2,s2,2
    3f8a:	f80907e3          	beqz	s2,3f18 <f_open+0x118>
    3f8e:	8b85                	andi	a5,a5,1
    3f90:	441d                	li	s0,7
    3f92:	ffa1                	bnez	a5,3eea <f_open+0xea>
    3f94:	b751                	j	3f18 <f_open+0x118>
    3f96:	fc090fe3          	beqz	s2,3f74 <f_open+0x174>
    3f9a:	2422                	lhu	s0,10(s0)
    3f9c:	0124aa23          	sw	s2,20(s1)
    3fa0:	4985                	li	s3,1
    3fa2:	0426                	slli	s0,s0,0x9
    3fa4:	5bfd                	li	s7,-1
    3fa6:	03246e63          	bltu	s0,s2,3fe2 <f_open+0x1e2>
    3faa:	4401                	li	s0,0
    3fac:	0144ac23          	sw	s4,24(s1)
    3fb0:	fc0d                	bnez	s0,3eea <f_open+0xea>
    3fb2:	1ff97793          	andi	a5,s2,511
    3fb6:	dfdd                	beqz	a5,3f74 <f_open+0x174>
    3fb8:	49f2                	lw	s3,28(sp)
    3fba:	85d2                	mv	a1,s4
    3fbc:	4409                	li	s0,2
    3fbe:	854e                	mv	a0,s3
    3fc0:	af7fe0ef          	jal	ra,2ab6 <clst2sect>
    3fc4:	d11d                	beqz	a0,3eea <f_open+0xea>
    3fc6:	00995913          	srli	s2,s2,0x9
    3fca:	00a90633          	add	a2,s2,a0
    3fce:	ccd0                	sw	a2,28(s1)
    3fd0:	0019c503          	lbu	a0,1(s3)
    3fd4:	4685                	li	a3,1
    3fd6:	85da                	mv	a1,s6
    3fd8:	a37fe0ef          	jal	ra,2a0e <disk_read>
    3fdc:	00a03433          	snez	s0,a0
    3fe0:	b729                	j	3eea <f_open+0xea>
    3fe2:	4088                	lw	a0,0(s1)
    3fe4:	85d2                	mv	a1,s4
    3fe6:	40890933          	sub	s2,s2,s0
    3fea:	e5dfe0ef          	jal	ra,2e46 <get_fat.isra.6>
    3fee:	8a2a                	mv	s4,a0
    3ff0:	00a9f663          	bgeu	s3,a0,3ffc <f_open+0x1fc>
    3ff4:	fb7519e3          	bne	a0,s7,3fa6 <f_open+0x1a6>
    3ff8:	4405                	li	s0,1
    3ffa:	bf4d                	j	3fac <f_open+0x1ac>
    3ffc:	4409                	li	s0,2
    3ffe:	b77d                	j	3fac <f_open+0x1ac>

00004000 <f_read>:
    4000:	9c0fc2ef          	jal	t0,1c0 <__riscv_save_12>
    4004:	1101                	addi	sp,sp,-32
    4006:	8aae                	mv	s5,a1
    4008:	0006a023          	sw	zero,0(a3)
    400c:	086c                	addi	a1,sp,28
    400e:	842a                	mv	s0,a0
    4010:	c632                	sw	a2,12(sp)
    4012:	8bb6                	mv	s7,a3
    4014:	b2ffe0ef          	jal	ra,2b42 <validate>
    4018:	8a2a                	mv	s4,a0
    401a:	e135                	bnez	a0,407e <f_read+0x7e>
    401c:	01144a03          	lbu	s4,17(s0)
    4020:	040a1f63          	bnez	s4,407e <f_read+0x7e>
    4024:	281c                	lbu	a5,16(s0)
    4026:	8b85                	andi	a5,a5,1
    4028:	12078f63          	beqz	a5,4166 <f_read+0x166>
    402c:	00c42903          	lw	s2,12(s0)
    4030:	485c                	lw	a5,20(s0)
    4032:	4632                	lw	a2,12(sp)
    4034:	40f90933          	sub	s2,s2,a5
    4038:	01267363          	bgeu	a2,s2,403e <f_read+0x3e>
    403c:	8932                	mv	s2,a2
    403e:	20000c13          	li	s8,512
    4042:	02840b13          	addi	s6,s0,40
    4046:	1ff00c93          	li	s9,511
    404a:	5d7d                	li	s10,-1
    404c:	02090963          	beqz	s2,407e <f_read+0x7e>
    4050:	485c                	lw	a5,20(s0)
    4052:	1ff7f713          	andi	a4,a5,511
    4056:	0e071963          	bnez	a4,4148 <f_read+0x148>
    405a:	4772                	lw	a4,28(sp)
    405c:	00a75d83          	lhu	s11,10(a4)
    4060:	0097d713          	srli	a4,a5,0x9
    4064:	1dfd                	addi	s11,s11,-1
    4066:	00edfdb3          	and	s11,s11,a4
    406a:	020d9a63          	bnez	s11,409e <f_read+0x9e>
    406e:	ef81                	bnez	a5,4086 <f_read+0x86>
    4070:	4408                	lw	a0,8(s0)
    4072:	4785                	li	a5,1
    4074:	00a7ee63          	bltu	a5,a0,4090 <f_read+0x90>
    4078:	4789                	li	a5,2
    407a:	b81c                	sb	a5,17(s0)
    407c:	4a09                	li	s4,2
    407e:	8552                	mv	a0,s4
    4080:	6105                	addi	sp,sp,32
    4082:	97afc06f          	j	1fc <__riscv_restore_12>
    4086:	4c0c                	lw	a1,24(s0)
    4088:	4008                	lw	a0,0(s0)
    408a:	dbdfe0ef          	jal	ra,2e46 <get_fat.isra.6>
    408e:	b7d5                	j	4072 <f_read+0x72>
    4090:	01a51663          	bne	a0,s10,409c <f_read+0x9c>
    4094:	4785                	li	a5,1
    4096:	b81c                	sb	a5,17(s0)
    4098:	4a05                	li	s4,1
    409a:	b7d5                	j	407e <f_read+0x7e>
    409c:	cc08                	sw	a0,24(s0)
    409e:	47f2                	lw	a5,28(sp)
    40a0:	4c0c                	lw	a1,24(s0)
    40a2:	853e                	mv	a0,a5
    40a4:	c63e                	sw	a5,12(sp)
    40a6:	a11fe0ef          	jal	ra,2ab6 <clst2sect>
    40aa:	d579                	beqz	a0,4078 <f_read+0x78>
    40ac:	00ad89b3          	add	s3,s11,a0
    40b0:	47b2                	lw	a5,12(sp)
    40b2:	072cf063          	bgeu	s9,s2,4112 <f_read+0x112>
    40b6:	27ba                	lhu	a4,10(a5)
    40b8:	00995493          	srli	s1,s2,0x9
    40bc:	009d86b3          	add	a3,s11,s1
    40c0:	00d77463          	bgeu	a4,a3,40c8 <f_read+0xc8>
    40c4:	41b704b3          	sub	s1,a4,s11
    40c8:	3388                	lbu	a0,1(a5)
    40ca:	86a6                	mv	a3,s1
    40cc:	864e                	mv	a2,s3
    40ce:	85d6                	mv	a1,s5
    40d0:	93ffe0ef          	jal	ra,2a0e <disk_read>
    40d4:	f161                	bnez	a0,4094 <f_read+0x94>
    40d6:	01040783          	lb	a5,16(s0)
    40da:	0007df63          	bgez	a5,40f8 <f_read+0xf8>
    40de:	4c48                	lw	a0,28(s0)
    40e0:	413509b3          	sub	s3,a0,s3
    40e4:	0099fa63          	bgeu	s3,s1,40f8 <f_read+0xf8>
    40e8:	09a6                	slli	s3,s3,0x9
    40ea:	20000613          	li	a2,512
    40ee:	85da                	mv	a1,s6
    40f0:	013a8533          	add	a0,s5,s3
    40f4:	782010ef          	jal	ra,5876 <memcpy>
    40f8:	04a6                	slli	s1,s1,0x9
    40fa:	000ba783          	lw	a5,0(s7)
    40fe:	40990933          	sub	s2,s2,s1
    4102:	9aa6                	add	s5,s5,s1
    4104:	97a6                	add	a5,a5,s1
    4106:	00fba023          	sw	a5,0(s7)
    410a:	485c                	lw	a5,20(s0)
    410c:	94be                	add	s1,s1,a5
    410e:	c844                	sw	s1,20(s0)
    4110:	bf35                	j	404c <f_read+0x4c>
    4112:	4c50                	lw	a2,28(s0)
    4114:	03360863          	beq	a2,s3,4144 <f_read+0x144>
    4118:	01040703          	lb	a4,16(s0)
    411c:	00075c63          	bgez	a4,4134 <f_read+0x134>
    4120:	3388                	lbu	a0,1(a5)
    4122:	4685                	li	a3,1
    4124:	85da                	mv	a1,s6
    4126:	909fe0ef          	jal	ra,2a2e <disk_write>
    412a:	f52d                	bnez	a0,4094 <f_read+0x94>
    412c:	281c                	lbu	a5,16(s0)
    412e:	07f7f793          	andi	a5,a5,127
    4132:	a81c                	sb	a5,16(s0)
    4134:	47f2                	lw	a5,28(sp)
    4136:	4685                	li	a3,1
    4138:	864e                	mv	a2,s3
    413a:	3388                	lbu	a0,1(a5)
    413c:	85da                	mv	a1,s6
    413e:	8d1fe0ef          	jal	ra,2a0e <disk_read>
    4142:	f929                	bnez	a0,4094 <f_read+0x94>
    4144:	01342e23          	sw	s3,28(s0)
    4148:	484c                	lw	a1,20(s0)
    414a:	84ca                	mv	s1,s2
    414c:	1ff5f593          	andi	a1,a1,511
    4150:	40bc07b3          	sub	a5,s8,a1
    4154:	0127f363          	bgeu	a5,s2,415a <f_read+0x15a>
    4158:	84be                	mv	s1,a5
    415a:	8626                	mv	a2,s1
    415c:	95da                	add	a1,a1,s6
    415e:	8556                	mv	a0,s5
    4160:	716010ef          	jal	ra,5876 <memcpy>
    4164:	bf59                	j	40fa <f_read+0xfa>
    4166:	4a1d                	li	s4,7
    4168:	bf19                	j	407e <f_read+0x7e>

0000416a <f_sync>:
    416a:	886fc2ef          	jal	t0,1f0 <__riscv_save_0>
    416e:	1141                	addi	sp,sp,-16
    4170:	006c                	addi	a1,sp,12
    4172:	842a                	mv	s0,a0
    4174:	9cffe0ef          	jal	ra,2b42 <validate>
    4178:	87aa                	mv	a5,a0
    417a:	e151                	bnez	a0,41fe <f_sync+0x94>
    417c:	2818                	lbu	a4,16(s0)
    417e:	04077693          	andi	a3,a4,64
    4182:	ceb5                	beqz	a3,41fe <f_sync+0x94>
    4184:	0762                	slli	a4,a4,0x18
    4186:	8761                	srai	a4,a4,0x18
    4188:	02075063          	bgez	a4,41a8 <f_sync+0x3e>
    418c:	47b2                	lw	a5,12(sp)
    418e:	4c50                	lw	a2,28(s0)
    4190:	4685                	li	a3,1
    4192:	3388                	lbu	a0,1(a5)
    4194:	02840593          	addi	a1,s0,40
    4198:	897fe0ef          	jal	ra,2a2e <disk_write>
    419c:	4785                	li	a5,1
    419e:	e125                	bnez	a0,41fe <f_sync+0x94>
    41a0:	281c                	lbu	a5,16(s0)
    41a2:	07f7f793          	andi	a5,a5,127
    41a6:	a81c                	sb	a5,16(s0)
    41a8:	8e1fe0ef          	jal	ra,2a88 <get_fattime>
    41ac:	892a                	mv	s2,a0
    41ae:	500c                	lw	a1,32(s0)
    41b0:	4532                	lw	a0,12(sp)
    41b2:	a53fe0ef          	jal	ra,2c04 <move_window>
    41b6:	87aa                	mv	a5,a0
    41b8:	e139                	bnez	a0,41fe <f_sync+0x94>
    41ba:	5044                	lw	s1,36(s0)
    41bc:	34bc                	lbu	a5,11(s1)
    41be:	85a6                	mv	a1,s1
    41c0:	0207e793          	ori	a5,a5,32
    41c4:	b4bc                	sb	a5,11(s1)
    41c6:	4410                	lw	a2,8(s0)
    41c8:	4008                	lw	a0,0(s0)
    41ca:	9d5fe0ef          	jal	ra,2b9e <st_clust.isra.2>
    41ce:	444c                	lw	a1,12(s0)
    41d0:	01c48513          	addi	a0,s1,28
    41d4:	8cffe0ef          	jal	ra,2aa2 <st_dword>
    41d8:	85ca                	mv	a1,s2
    41da:	01648513          	addi	a0,s1,22
    41de:	8c5fe0ef          	jal	ra,2aa2 <st_dword>
    41e2:	4532                	lw	a0,12(sp)
    41e4:	4785                	li	a5,1
    41e6:	00048923          	sb	zero,18(s1)
    41ea:	000489a3          	sb	zero,19(s1)
    41ee:	a15c                	sb	a5,4(a0)
    41f0:	9f0ff0ef          	jal	ra,33e0 <sync_fs>
    41f4:	2818                	lbu	a4,16(s0)
    41f6:	87aa                	mv	a5,a0
    41f8:	fbf77713          	andi	a4,a4,-65
    41fc:	a818                	sb	a4,16(s0)
    41fe:	853e                	mv	a0,a5
    4200:	0141                	addi	sp,sp,16
    4202:	812fc06f          	j	214 <__riscv_restore_0>

00004206 <f_close>:
    4206:	febfb2ef          	jal	t0,1f0 <__riscv_save_0>
    420a:	1141                	addi	sp,sp,-16
    420c:	842a                	mv	s0,a0
    420e:	f5dff0ef          	jal	ra,416a <f_sync>
    4212:	e901                	bnez	a0,4222 <f_close+0x1c>
    4214:	006c                	addi	a1,sp,12
    4216:	8522                	mv	a0,s0
    4218:	92bfe0ef          	jal	ra,2b42 <validate>
    421c:	e119                	bnez	a0,4222 <f_close+0x1c>
    421e:	00042023          	sw	zero,0(s0)
    4222:	0141                	addi	sp,sp,16
    4224:	ff1fb06f          	j	214 <__riscv_restore_0>

00004228 <f_lseek>:
    4228:	faffb2ef          	jal	t0,1d6 <__riscv_save_4>
    422c:	1141                	addi	sp,sp,-16
    422e:	84ae                	mv	s1,a1
    4230:	006c                	addi	a1,sp,12
    4232:	842a                	mv	s0,a0
    4234:	90ffe0ef          	jal	ra,2b42 <validate>
    4238:	89aa                	mv	s3,a0
    423a:	ed71                	bnez	a0,4316 <f_lseek+0xee>
    423c:	01144983          	lbu	s3,17(s0)
    4240:	0c099b63          	bnez	s3,4316 <f_lseek+0xee>
    4244:	4458                	lw	a4,12(s0)
    4246:	00977663          	bgeu	a4,s1,4252 <f_lseek+0x2a>
    424a:	281c                	lbu	a5,16(s0)
    424c:	8b89                	andi	a5,a5,2
    424e:	e391                	bnez	a5,4252 <f_lseek+0x2a>
    4250:	84ba                	mv	s1,a4
    4252:	485c                	lw	a5,20(s0)
    4254:	00042a23          	sw	zero,20(s0)
    4258:	eca1                	bnez	s1,42b0 <f_lseek+0x88>
    425a:	4481                	li	s1,0
    425c:	485c                	lw	a5,20(s0)
    425e:	4458                	lw	a4,12(s0)
    4260:	00f77763          	bgeu	a4,a5,426e <f_lseek+0x46>
    4264:	2818                	lbu	a4,16(s0)
    4266:	c45c                	sw	a5,12(s0)
    4268:	04076713          	ori	a4,a4,64
    426c:	a818                	sb	a4,16(s0)
    426e:	1ff7f793          	andi	a5,a5,511
    4272:	c3d5                	beqz	a5,4316 <f_lseek+0xee>
    4274:	4c50                	lw	a2,28(s0)
    4276:	0a960063          	beq	a2,s1,4316 <f_lseek+0xee>
    427a:	01040783          	lb	a5,16(s0)
    427e:	02840913          	addi	s2,s0,40
    4282:	0007dd63          	bgez	a5,429c <f_lseek+0x74>
    4286:	47b2                	lw	a5,12(sp)
    4288:	4685                	li	a3,1
    428a:	85ca                	mv	a1,s2
    428c:	3388                	lbu	a0,1(a5)
    428e:	fa0fe0ef          	jal	ra,2a2e <disk_write>
    4292:	e949                	bnez	a0,4324 <f_lseek+0xfc>
    4294:	281c                	lbu	a5,16(s0)
    4296:	07f7f793          	andi	a5,a5,127
    429a:	a81c                	sb	a5,16(s0)
    429c:	47b2                	lw	a5,12(sp)
    429e:	4685                	li	a3,1
    42a0:	8626                	mv	a2,s1
    42a2:	3388                	lbu	a0,1(a5)
    42a4:	85ca                	mv	a1,s2
    42a6:	f68fe0ef          	jal	ra,2a0e <disk_read>
    42aa:	ed2d                	bnez	a0,4324 <f_lseek+0xfc>
    42ac:	cc44                	sw	s1,28(s0)
    42ae:	a0a5                	j	4316 <f_lseek+0xee>
    42b0:	4732                	lw	a4,12(sp)
    42b2:	00a75903          	lhu	s2,10(a4)
    42b6:	0926                	slli	s2,s2,0x9
    42b8:	c3b9                	beqz	a5,42fe <f_lseek+0xd6>
    42ba:	17fd                	addi	a5,a5,-1
    42bc:	fff48713          	addi	a4,s1,-1
    42c0:	03275733          	divu	a4,a4,s2
    42c4:	0327d6b3          	divu	a3,a5,s2
    42c8:	02d76b63          	bltu	a4,a3,42fe <f_lseek+0xd6>
    42cc:	41200733          	neg	a4,s2
    42d0:	4c0c                	lw	a1,24(s0)
    42d2:	8ff9                	and	a5,a5,a4
    42d4:	c85c                	sw	a5,20(s0)
    42d6:	8c9d                	sub	s1,s1,a5
    42d8:	d1c9                	beqz	a1,425a <f_lseek+0x32>
    42da:	5a7d                	li	s4,-1
    42dc:	4a85                	li	s5,1
    42de:	485c                	lw	a5,20(s0)
    42e0:	04996963          	bltu	s2,s1,4332 <f_lseek+0x10a>
    42e4:	485c                	lw	a5,20(s0)
    42e6:	97a6                	add	a5,a5,s1
    42e8:	c85c                	sw	a5,20(s0)
    42ea:	1ff4f793          	andi	a5,s1,511
    42ee:	d7b5                	beqz	a5,425a <f_lseek+0x32>
    42f0:	4532                	lw	a0,12(sp)
    42f2:	fc4fe0ef          	jal	ra,2ab6 <clst2sect>
    42f6:	cd09                	beqz	a0,4310 <f_lseek+0xe8>
    42f8:	80a5                	srli	s1,s1,0x9
    42fa:	94aa                	add	s1,s1,a0
    42fc:	b785                	j	425c <f_lseek+0x34>
    42fe:	440c                	lw	a1,8(s0)
    4300:	e59d                	bnez	a1,432e <f_lseek+0x106>
    4302:	8522                	mv	a0,s0
    4304:	cbdfe0ef          	jal	ra,2fc0 <create_chain>
    4308:	4785                	li	a5,1
    430a:	85aa                	mv	a1,a0
    430c:	00f51963          	bne	a0,a5,431e <f_lseek+0xf6>
    4310:	4789                	li	a5,2
    4312:	b81c                	sb	a5,17(s0)
    4314:	4989                	li	s3,2
    4316:	854e                	mv	a0,s3
    4318:	0141                	addi	sp,sp,16
    431a:	ef1fb06f          	j	20a <__riscv_restore_4>
    431e:	57fd                	li	a5,-1
    4320:	00f51663          	bne	a0,a5,432c <f_lseek+0x104>
    4324:	4785                	li	a5,1
    4326:	b81c                	sb	a5,17(s0)
    4328:	4985                	li	s3,1
    432a:	b7f5                	j	4316 <f_lseek+0xee>
    432c:	c408                	sw	a0,8(s0)
    432e:	cc0c                	sw	a1,24(s0)
    4330:	b765                	j	42d8 <f_lseek+0xb0>
    4332:	97ca                	add	a5,a5,s2
    4334:	c85c                	sw	a5,20(s0)
    4336:	281c                	lbu	a5,16(s0)
    4338:	412484b3          	sub	s1,s1,s2
    433c:	8b89                	andi	a5,a5,2
    433e:	cb81                	beqz	a5,434e <f_lseek+0x126>
    4340:	8522                	mv	a0,s0
    4342:	c7ffe0ef          	jal	ra,2fc0 <create_chain>
    4346:	85aa                	mv	a1,a0
    4348:	e519                	bnez	a0,4356 <f_lseek+0x12e>
    434a:	4481                	li	s1,0
    434c:	bf61                	j	42e4 <f_lseek+0xbc>
    434e:	4008                	lw	a0,0(s0)
    4350:	af7fe0ef          	jal	ra,2e46 <get_fat.isra.6>
    4354:	85aa                	mv	a1,a0
    4356:	fd4587e3          	beq	a1,s4,4324 <f_lseek+0xfc>
    435a:	fabafbe3          	bgeu	s5,a1,4310 <f_lseek+0xe8>
    435e:	47b2                	lw	a5,12(sp)
    4360:	4f9c                	lw	a5,24(a5)
    4362:	faf5f7e3          	bgeu	a1,a5,4310 <f_lseek+0xe8>
    4366:	cc0c                	sw	a1,24(s0)
    4368:	bf9d                	j	42de <f_lseek+0xb6>

0000436a <f_mkfs>:
    436a:	e57fb2ef          	jal	t0,1c0 <__riscv_save_12>
    436e:	7139                	addi	sp,sp,-64
    4370:	ce2a                	sw	a0,28(sp)
    4372:	0868                	addi	a0,sp,28
    4374:	84ae                	mv	s1,a1
    4376:	8932                	mv	s2,a2
    4378:	c436                	sw	a3,8(sp)
    437a:	f78fe0ef          	jal	ra,2af2 <get_ldnumber>
    437e:	442d                	li	s0,11
    4380:	0a054263          	bltz	a0,4424 <f_mkfs+0xba>
    4384:	00251793          	slli	a5,a0,0x2
    4388:	f3418713          	addi	a4,gp,-204 # 2000082c <FatFs>
    438c:	97ba                	add	a5,a5,a4
    438e:	439c                	lw	a5,0(a5)
    4390:	c399                	beqz	a5,4396 <f_mkfs+0x2c>
    4392:	00078023          	sb	zero,0(a5)
    4396:	0ff57993          	andi	s3,a0,255
    439a:	854e                	mv	a0,s3
    439c:	e58fe0ef          	jal	ra,29f4 <disk_initialize>
    43a0:	00157793          	andi	a5,a0,1
    43a4:	440d                	li	s0,3
    43a6:	efbd                	bnez	a5,4424 <f_mkfs+0xba>
    43a8:	8911                	andi	a0,a0,4
    43aa:	4429                	li	s0,10
    43ac:	ed25                	bnez	a0,4424 <f_mkfs+0xba>
    43ae:	e481                	bnez	s1,43b6 <f_mkfs+0x4c>
    43b0:	649d                	lui	s1,0x7
    43b2:	bc048493          	addi	s1,s1,-1088 # 6bc0 <defopt.6449>
    43b6:	40dc                	lw	a5,4(s1)
    43b8:	d63e                	sw	a5,44(sp)
    43ba:	e791                	bnez	a5,43c6 <f_mkfs+0x5c>
    43bc:	1070                	addi	a2,sp,44
    43be:	458d                	li	a1,3
    43c0:	854e                	mv	a0,s3
    43c2:	e8cfe0ef          	jal	ra,2a4e <disk_ioctl>
    43c6:	57b2                	lw	a5,44(sp)
    43c8:	66a1                	lui	a3,0x8
    43ca:	fff78713          	addi	a4,a5,-1
    43ce:	00d77463          	bgeu	a4,a3,43d6 <f_mkfs+0x6c>
    43d2:	8ff9                	and	a5,a5,a4
    43d4:	c399                	beqz	a5,43da <f_mkfs+0x70>
    43d6:	4785                	li	a5,1
    43d8:	d63e                	sw	a5,44(sp)
    43da:	0014cc03          	lbu	s8,1(s1)
    43de:	4705                	li	a4,1
    43e0:	fffc0793          	addi	a5,s8,-1
    43e4:	0ff7f793          	andi	a5,a5,255
    43e8:	00f77363          	bgeu	a4,a5,43ee <f_mkfs+0x84>
    43ec:	4c05                	li	s8,1
    43ee:	0084ad03          	lw	s10,8(s1)
    43f2:	67a1                	lui	a5,0x8
    43f4:	fffd0713          	addi	a4,s10,-1
    43f8:	00f77563          	bgeu	a4,a5,4402 <f_mkfs+0x98>
    43fc:	00fd7793          	andi	a5,s10,15
    4400:	c399                	beqz	a5,4406 <f_mkfs+0x9c>
    4402:	20000d13          	li	s10,512
    4406:	44c0                	lw	s0,12(s1)
    4408:	010007b7          	lui	a5,0x1000
    440c:	0287e063          	bltu	a5,s0,442c <f_mkfs+0xc2>
    4410:	fff40793          	addi	a5,s0,-1
    4414:	8fe1                	and	a5,a5,s0
    4416:	eb99                	bnez	a5,442c <f_mkfs+0xc2>
    4418:	4722                	lw	a4,8(sp)
    441a:	1ff00793          	li	a5,511
    441e:	00e7e963          	bltu	a5,a4,4430 <f_mkfs+0xc6>
    4422:	4445                	li	s0,17
    4424:	8522                	mv	a0,s0
    4426:	6121                	addi	sp,sp,64
    4428:	dd5fb06f          	j	1fc <__riscv_restore_12>
    442c:	4401                	li	s0,0
    442e:	b7ed                	j	4418 <f_mkfs+0xae>
    4430:	2084                	lbu	s1,0(s1)
    4432:	8dca                	mv	s11,s2
    4434:	00091863          	bnez	s2,4444 <f_mkfs+0xda>
    4438:	47a2                	lw	a5,8(sp)
    443a:	e007f513          	andi	a0,a5,-512
    443e:	25b1                	jal	4a8a <ff_memalloc>
    4440:	8daa                	mv	s11,a0
    4442:	d165                	beqz	a0,4422 <f_mkfs+0xb8>
    4444:	1810                	addi	a2,sp,48
    4446:	4585                	li	a1,1
    4448:	854e                	mv	a0,s3
    444a:	d802                	sw	zero,48(sp)
    444c:	e02fe0ef          	jal	ra,2a4e <disk_ioctl>
    4450:	c519                	beqz	a0,445e <f_mkfs+0xf4>
    4452:	00091463          	bnez	s2,445a <f_mkfs+0xf0>
    4456:	856e                	mv	a0,s11
    4458:	2d3d                	jal	4a96 <ff_memfree>
    445a:	4405                	li	s0,1
    445c:	b7e1                	j	4424 <f_mkfs+0xba>
    445e:	0084f793          	andi	a5,s1,8
    4462:	c83e                	sw	a5,16(sp)
    4464:	4b81                	li	s7,0
    4466:	ef81                	bnez	a5,447e <f_mkfs+0x114>
    4468:	5742                	lw	a4,48(sp)
    446a:	03f00693          	li	a3,63
    446e:	8bbe                	mv	s7,a5
    4470:	00e6f763          	bgeu	a3,a4,447e <f_mkfs+0x114>
    4474:	fc170713          	addi	a4,a4,-63
    4478:	d83a                	sw	a4,48(sp)
    447a:	03f00b93          	li	s7,63
    447e:	56c2                	lw	a3,48(sp)
    4480:	07f00713          	li	a4,127
    4484:	00d76863          	bltu	a4,a3,4494 <f_mkfs+0x12a>
    4488:	00091463          	bnez	s2,4490 <f_mkfs+0x126>
    448c:	856e                	mv	a0,s11
    448e:	2521                	jal	4a96 <ff_memfree>
    4490:	4439                	li	s0,14
    4492:	bf49                	j	4424 <f_mkfs+0xba>
    4494:	66c1                	lui	a3,0x10
    4496:	1ff68693          	addi	a3,a3,511 # 101ff <uni2oem932+0x1f9b>
    449a:	08000713          	li	a4,128
    449e:	0086e463          	bltu	a3,s0,44a6 <f_mkfs+0x13c>
    44a2:	00945713          	srli	a4,s0,0x9
    44a6:	0024f613          	andi	a2,s1,2
    44aa:	8885                	andi	s1,s1,1
    44ac:	c235                	beqz	a2,4510 <f_mkfs+0x1a6>
    44ae:	0014b413          	seqz	s0,s1
    44b2:	0409                	addi	s0,s0,2
    44b4:	cc32                	sw	a2,24(sp)
    44b6:	ca3a                	sw	a4,20(sp)
    44b8:	dd0fe0ef          	jal	ra,2a88 <get_fattime>
    44bc:	c62a                	sw	a0,12(sp)
    44be:	468d                	li	a3,3
    44c0:	58c2                	lw	a7,48(sp)
    44c2:	4752                	lw	a4,20(sp)
    44c4:	4662                	lw	a2,24(sp)
    44c6:	0ad41263          	bne	s0,a3,456a <f_mkfs+0x200>
    44ca:	85ba                	mv	a1,a4
    44cc:	ef09                	bnez	a4,44e6 <f_mkfs+0x17c>
    44ce:	669d                	lui	a3,0x7
    44d0:	0118d513          	srli	a0,a7,0x11
    44d4:	bb068693          	addi	a3,a3,-1104 # 6bb0 <cst32.6448>
    44d8:	4705                	li	a4,1
    44da:	228e                	lhu	a1,0(a3)
    44dc:	c581                	beqz	a1,44e4 <f_mkfs+0x17a>
    44de:	0689                	addi	a3,a3,2
    44e0:	04b57063          	bgeu	a0,a1,4520 <f_mkfs+0x1b6>
    44e4:	4581                	li	a1,0
    44e6:	02e8d6b3          	divu	a3,a7,a4
    44ea:	7541                	lui	a0,0xffff0
    44ec:	0529                	addi	a0,a0,10
    44ee:	00269413          	slli	s0,a3,0x2
    44f2:	20740413          	addi	s0,s0,519
    44f6:	96aa                	add	a3,a3,a0
    44f8:	0fff0537          	lui	a0,0xfff0
    44fc:	8025                	srli	s0,s0,0x9
    44fe:	f8a6f5e3          	bgeu	a3,a0,4488 <f_mkfs+0x11e>
    4502:	84ba                	mv	s1,a4
    4504:	4c81                	li	s9,0
    4506:	872e                	mv	a4,a1
    4508:	02000313          	li	t1,32
    450c:	4a0d                	li	s4,3
    450e:	a861                	j	45a6 <f_mkfs+0x23c>
    4510:	4409                	li	s0,2
    4512:	f0cd                	bnez	s1,44b4 <f_mkfs+0x14a>
    4514:	444d                	li	s0,19
    4516:	f00917e3          	bnez	s2,4424 <f_mkfs+0xba>
    451a:	856e                	mv	a0,s11
    451c:	2bad                	jal	4a96 <ff_memfree>
    451e:	b719                	j	4424 <f_mkfs+0xba>
    4520:	0706                	slli	a4,a4,0x1
    4522:	bf65                	j	44da <f_mkfs+0x170>
    4524:	0486                	slli	s1,s1,0x1
    4526:	a891                	j	457a <f_mkfs+0x210>
    4528:	468d                	li	a3,3
    452a:	02d40433          	mul	s0,s0,a3
    452e:	4a05                	li	s4,1
    4530:	0405                	addi	s0,s0,1
    4532:	8005                	srli	s0,s0,0x1
    4534:	040d                	addi	s0,s0,3
    4536:	a085                	j	4596 <f_mkfs+0x22c>
    4538:	0386f533          	remu	a0,a3,s8
    453c:	c501                	beqz	a0,4544 <f_mkfs+0x1da>
    453e:	16fd                	addi	a3,a3,-1
    4540:	0305                	addi	t1,t1,1
    4542:	0a85                	addi	s5,s5,1
    4544:	0386d6b3          	divu	a3,a3,s8
    4548:	9436                	add	s0,s0,a3
    454a:	a049                	j	45cc <f_mkfs+0x262>
    454c:	4689                	li	a3,2
    454e:	0cda1c63          	bne	s4,a3,4626 <f_mkfs+0x2bc>
    4552:	66c1                	lui	a3,0x10
    4554:	16d5                	addi	a3,a3,-11
    4556:	0b66fb63          	bgeu	a3,s6,460c <f_mkfs+0x2a2>
    455a:	52071563          	bnez	a4,4a84 <f_mkfs+0x71a>
    455e:	00149713          	slli	a4,s1,0x1
    4562:	04000693          	li	a3,64
    4566:	50e6e763          	bltu	a3,a4,4a74 <f_mkfs+0x70a>
    456a:	84ba                	mv	s1,a4
    456c:	ef01                	bnez	a4,4584 <f_mkfs+0x21a>
    456e:	669d                	lui	a3,0x7
    4570:	00c8d513          	srli	a0,a7,0xc
    4574:	ba068693          	addi	a3,a3,-1120 # 6ba0 <cst.6447>
    4578:	4485                	li	s1,1
    457a:	228e                	lhu	a1,0(a3)
    457c:	c581                	beqz	a1,4584 <f_mkfs+0x21a>
    457e:	0689                	addi	a3,a3,2
    4580:	fab572e3          	bgeu	a0,a1,4524 <f_mkfs+0x1ba>
    4584:	0298d433          	divu	s0,a7,s1
    4588:	6685                	lui	a3,0x1
    458a:	16d5                	addi	a3,a3,-11
    458c:	f886fee3          	bgeu	a3,s0,4528 <f_mkfs+0x1be>
    4590:	0409                	addi	s0,s0,2
    4592:	0406                	slli	s0,s0,0x1
    4594:	4a09                	li	s4,2
    4596:	1ff40413          	addi	s0,s0,511
    459a:	005d1c93          	slli	s9,s10,0x5
    459e:	8025                	srli	s0,s0,0x9
    45a0:	009cdc93          	srli	s9,s9,0x9
    45a4:	4305                	li	t1,1
    45a6:	038405b3          	mul	a1,s0,s8
    45aa:	5532                	lw	a0,44(sp)
    45ac:	006b8ab3          	add	s5,s7,t1
    45b0:	fff50693          	addi	a3,a0,-1 # ffeffff <_data_lma+0xffda6cf>
    45b4:	40a00533          	neg	a0,a0
    45b8:	95d6                	add	a1,a1,s5
    45ba:	95e6                	add	a1,a1,s9
    45bc:	96ae                	add	a3,a3,a1
    45be:	8ee9                	and	a3,a3,a0
    45c0:	450d                	li	a0,3
    45c2:	8e8d                	sub	a3,a3,a1
    45c4:	f6aa1ae3          	bne	s4,a0,4538 <f_mkfs+0x1ce>
    45c8:	9336                	add	t1,t1,a3
    45ca:	9ab6                	add	s5,s5,a3
    45cc:	00449693          	slli	a3,s1,0x4
    45d0:	417686b3          	sub	a3,a3,s7
    45d4:	95b6                	add	a1,a1,a3
    45d6:	eab8e9e3          	bltu	a7,a1,4488 <f_mkfs+0x11e>
    45da:	038406b3          	mul	a3,s0,s8
    45de:	41988b33          	sub	s6,a7,s9
    45e2:	406b0b33          	sub	s6,s6,t1
    45e6:	40db0b33          	sub	s6,s6,a3
    45ea:	468d                	li	a3,3
    45ec:	029b5b33          	divu	s6,s6,s1
    45f0:	f4da1ee3          	bne	s4,a3,454c <f_mkfs+0x1e2>
    45f4:	66c1                	lui	a3,0x10
    45f6:	16d5                	addi	a3,a3,-11
    45f8:	0366ec63          	bltu	a3,s6,4630 <f_mkfs+0x2c6>
    45fc:	e80716e3          	bnez	a4,4488 <f_mkfs+0x11e>
    4600:	4705                	li	a4,1
    4602:	e89773e3          	bgeu	a4,s1,4488 <f_mkfs+0x11e>
    4606:	0014d713          	srli	a4,s1,0x1
    460a:	b5c1                	j	44ca <f_mkfs+0x160>
    460c:	6685                	lui	a3,0x1
    460e:	16d5                	addi	a3,a3,-11
    4610:	0366e063          	bltu	a3,s6,4630 <f_mkfs+0x2c6>
    4614:	e6071ae3          	bnez	a4,4488 <f_mkfs+0x11e>
    4618:	00149713          	slli	a4,s1,0x1
    461c:	08000693          	li	a3,128
    4620:	f4e6f5e3          	bgeu	a3,a4,456a <f_mkfs+0x200>
    4624:	b595                	j	4488 <f_mkfs+0x11e>
    4626:	6705                	lui	a4,0x1
    4628:	1755                	addi	a4,a4,-11
    462a:	4a05                	li	s4,1
    462c:	e5676ee3          	bltu	a4,s6,4488 <f_mkfs+0x11e>
    4630:	20000613          	li	a2,512
    4634:	4581                	li	a1,0
    4636:	856e                	mv	a0,s11
    4638:	cc46                	sw	a7,24(sp)
    463a:	ca1a                	sw	t1,20(sp)
    463c:	be5fb0ef          	jal	ra,220 <memset>
    4640:	000075b7          	lui	a1,0x7
    4644:	462d                	li	a2,11
    4646:	bd058593          	addi	a1,a1,-1072 # 6bd0 <defopt.6449+0x10>
    464a:	856e                	mv	a0,s11
    464c:	22a010ef          	jal	ra,5876 <memcpy>
    4650:	4352                	lw	t1,20(sp)
    4652:	4709                	li	a4,2
    4654:	00ed8623          	sb	a4,12(s11)
    4658:	006d8723          	sb	t1,14(s11)
    465c:	0342                	slli	t1,t1,0x10
    465e:	01035313          	srli	t1,t1,0x10
    4662:	00835313          	srli	t1,t1,0x8
    4666:	000d85a3          	sb	zero,11(s11)
    466a:	009d86a3          	sb	s1,13(s11)
    466e:	006d87a3          	sb	t1,15(s11)
    4672:	018d8823          	sb	s8,16(s11)
    4676:	470d                	li	a4,3
    4678:	48e2                	lw	a7,24(sp)
    467a:	00ea1363          	bne	s4,a4,4680 <f_mkfs+0x316>
    467e:	4d01                	li	s10,0
    4680:	010d1813          	slli	a6,s10,0x10
    4684:	01085813          	srli	a6,a6,0x10
    4688:	55c2                	lw	a1,48(sp)
    468a:	00885813          	srli	a6,a6,0x8
    468e:	01ad88a3          	sb	s10,17(s11)
    4692:	010d8923          	sb	a6,18(s11)
    4696:	6741                	lui	a4,0x10
    4698:	34e5f063          	bgeu	a1,a4,49d8 <f_mkfs+0x66e>
    469c:	00bd89a3          	sb	a1,19(s11)
    46a0:	05c2                	slli	a1,a1,0x10
    46a2:	81c1                	srli	a1,a1,0x10
    46a4:	81a1                	srli	a1,a1,0x8
    46a6:	00bd8a23          	sb	a1,20(s11)
    46aa:	5761                	li	a4,-8
    46ac:	47b2                	lw	a5,12(sp)
    46ae:	00ed8aa3          	sb	a4,21(s11)
    46b2:	03f00713          	li	a4,63
    46b6:	00ed8c23          	sb	a4,24(s11)
    46ba:	577d                	li	a4,-1
    46bc:	00ed8d23          	sb	a4,26(s11)
    46c0:	85de                	mv	a1,s7
    46c2:	000d8ca3          	sb	zero,25(s11)
    46c6:	000d8da3          	sb	zero,27(s11)
    46ca:	01cd8513          	addi	a0,s11,28
    46ce:	01178d33          	add	s10,a5,a7
    46d2:	bd0fe0ef          	jal	ra,2aa2 <st_dword>
    46d6:	470d                	li	a4,3
    46d8:	85ea                	mv	a1,s10
    46da:	30ea1663          	bne	s4,a4,49e6 <f_mkfs+0x67c>
    46de:	043d8513          	addi	a0,s11,67
    46e2:	bc0fe0ef          	jal	ra,2aa2 <st_dword>
    46e6:	85a2                	mv	a1,s0
    46e8:	024d8513          	addi	a0,s11,36
    46ec:	bb6fe0ef          	jal	ra,2aa2 <st_dword>
    46f0:	4709                	li	a4,2
    46f2:	02ed8623          	sb	a4,44(s11)
    46f6:	4705                	li	a4,1
    46f8:	02ed8823          	sb	a4,48(s11)
    46fc:	4719                	li	a4,6
    46fe:	02ed8923          	sb	a4,50(s11)
    4702:	f8000713          	li	a4,-128
    4706:	04ed8023          	sb	a4,64(s11)
    470a:	000075b7          	lui	a1,0x7
    470e:	02900713          	li	a4,41
    4712:	020d86a3          	sb	zero,45(s11)
    4716:	020d8723          	sb	zero,46(s11)
    471a:	020d87a3          	sb	zero,47(s11)
    471e:	020d88a3          	sb	zero,49(s11)
    4722:	020d89a3          	sb	zero,51(s11)
    4726:	04ed8123          	sb	a4,66(s11)
    472a:	464d                	li	a2,19
    472c:	bdc58593          	addi	a1,a1,-1060 # 6bdc <defopt.6449+0x1c>
    4730:	047d8513          	addi	a0,s11,71
    4734:	142010ef          	jal	ra,5876 <memcpy>
    4738:	05500793          	li	a5,85
    473c:	faa00d13          	li	s10,-86
    4740:	1efd8f23          	sb	a5,510(s11)
    4744:	1fad8fa3          	sb	s10,511(s11)
    4748:	4685                	li	a3,1
    474a:	865e                	mv	a2,s7
    474c:	85ee                	mv	a1,s11
    474e:	854e                	mv	a0,s3
    4750:	adefe0ef          	jal	ra,2a2e <disk_write>
    4754:	ce051fe3          	bnez	a0,4452 <f_mkfs+0xe8>
    4758:	470d                	li	a4,3
    475a:	08ea1a63          	bne	s4,a4,47ee <f_mkfs+0x484>
    475e:	4685                	li	a3,1
    4760:	006b8613          	addi	a2,s7,6
    4764:	85ee                	mv	a1,s11
    4766:	854e                	mv	a0,s3
    4768:	ac6fe0ef          	jal	ra,2a2e <disk_write>
    476c:	20000613          	li	a2,512
    4770:	4581                	li	a1,0
    4772:	856e                	mv	a0,s11
    4774:	aadfb0ef          	jal	ra,220 <memset>
    4778:	05200713          	li	a4,82
    477c:	04100693          	li	a3,65
    4780:	07200613          	li	a2,114
    4784:	00ed8023          	sb	a4,0(s11)
    4788:	00ed80a3          	sb	a4,1(s11)
    478c:	06100713          	li	a4,97
    4790:	00ed8123          	sb	a4,2(s11)
    4794:	00dd81a3          	sb	a3,3(s11)
    4798:	1ecd8223          	sb	a2,484(s11)
    479c:	1ecd82a3          	sb	a2,485(s11)
    47a0:	1edd8323          	sb	a3,486(s11)
    47a4:	1eed83a3          	sb	a4,487(s11)
    47a8:	fffb0593          	addi	a1,s6,-1
    47ac:	1e8d8513          	addi	a0,s11,488
    47b0:	af2fe0ef          	jal	ra,2aa2 <st_dword>
    47b4:	4709                	li	a4,2
    47b6:	05500793          	li	a5,85
    47ba:	4685                	li	a3,1
    47bc:	007b8613          	addi	a2,s7,7
    47c0:	85ee                	mv	a1,s11
    47c2:	1eed8623          	sb	a4,492(s11)
    47c6:	1e0d86a3          	sb	zero,493(s11)
    47ca:	1e0d8723          	sb	zero,494(s11)
    47ce:	1e0d87a3          	sb	zero,495(s11)
    47d2:	1efd8f23          	sb	a5,510(s11)
    47d6:	1fad8fa3          	sb	s10,511(s11)
    47da:	854e                	mv	a0,s3
    47dc:	a52fe0ef          	jal	ra,2a2e <disk_write>
    47e0:	4685                	li	a3,1
    47e2:	001b8613          	addi	a2,s7,1
    47e6:	85ee                	mv	a1,s11
    47e8:	854e                	mv	a0,s3
    47ea:	a44fe0ef          	jal	ra,2a2e <disk_write>
    47ee:	47a2                	lw	a5,8(sp)
    47f0:	4581                	li	a1,0
    47f2:	856e                	mv	a0,s11
    47f4:	e007f613          	andi	a2,a5,-512
    47f8:	0097db13          	srli	s6,a5,0x9
    47fc:	a25fb0ef          	jal	ra,220 <memset>
    4800:	57e1                	li	a5,-8
    4802:	4705                	li	a4,1
    4804:	c63e                	sw	a5,12(sp)
    4806:	00ea1763          	bne	s4,a4,4814 <f_mkfs+0x4aa>
    480a:	01000bb7          	lui	s7,0x1000
    480e:	ff8b8793          	addi	a5,s7,-8 # fffff8 <_data_lma+0xfea6c8>
    4812:	c63e                	sw	a5,12(sp)
    4814:	c402                	sw	zero,8(sp)
    4816:	5d7d                	li	s10,-1
    4818:	478d                	li	a5,3
    481a:	20fa1263          	bne	s4,a5,4a1e <f_mkfs+0x6b4>
    481e:	57e1                	li	a5,-8
    4820:	00fd8023          	sb	a5,0(s11)
    4824:	47bd                	li	a5,15
    4826:	01ad80a3          	sb	s10,1(s11)
    482a:	01ad8123          	sb	s10,2(s11)
    482e:	01ad81a3          	sb	s10,3(s11)
    4832:	01ad8223          	sb	s10,4(s11)
    4836:	01ad82a3          	sb	s10,5(s11)
    483a:	01ad8323          	sb	s10,6(s11)
    483e:	01ad83a3          	sb	s10,7(s11)
    4842:	01ad8423          	sb	s10,8(s11)
    4846:	01ad84a3          	sb	s10,9(s11)
    484a:	01ad8523          	sb	s10,10(s11)
    484e:	00fd85a3          	sb	a5,11(s11)
    4852:	8ba2                	mv	s7,s0
    4854:	88de                	mv	a7,s7
    4856:	017b7363          	bgeu	s6,s7,485c <f_mkfs+0x4f2>
    485a:	88da                	mv	a7,s6
    485c:	86c6                	mv	a3,a7
    485e:	8656                	mv	a2,s5
    4860:	85ee                	mv	a1,s11
    4862:	854e                	mv	a0,s3
    4864:	ca46                	sw	a7,20(sp)
    4866:	9c8fe0ef          	jal	ra,2a2e <disk_write>
    486a:	48d2                	lw	a7,20(sp)
    486c:	be0513e3          	bnez	a0,4452 <f_mkfs+0xe8>
    4870:	20000613          	li	a2,512
    4874:	4581                	li	a1,0
    4876:	856e                	mv	a0,s11
    4878:	ca46                	sw	a7,20(sp)
    487a:	9a7fb0ef          	jal	ra,220 <memset>
    487e:	48d2                	lw	a7,20(sp)
    4880:	411b8bb3          	sub	s7,s7,a7
    4884:	9ac6                	add	s5,s5,a7
    4886:	fc0b97e3          	bnez	s7,4854 <f_mkfs+0x4ea>
    488a:	47a2                	lw	a5,8(sp)
    488c:	00178693          	addi	a3,a5,1 # 1000001 <_data_lma+0xfea6d1>
    4890:	4785                	li	a5,1
    4892:	c43e                	sw	a5,8(sp)
    4894:	f986e2e3          	bltu	a3,s8,4818 <f_mkfs+0x4ae>
    4898:	470d                	li	a4,3
    489a:	00ea0363          	beq	s4,a4,48a0 <f_mkfs+0x536>
    489e:	84e6                	mv	s1,s9
    48a0:	8426                	mv	s0,s1
    48a2:	009b7363          	bgeu	s6,s1,48a8 <f_mkfs+0x53e>
    48a6:	845a                	mv	s0,s6
    48a8:	86a2                	mv	a3,s0
    48aa:	8656                	mv	a2,s5
    48ac:	85ee                	mv	a1,s11
    48ae:	854e                	mv	a0,s3
    48b0:	97efe0ef          	jal	ra,2a2e <disk_write>
    48b4:	b8051fe3          	bnez	a0,4452 <f_mkfs+0xe8>
    48b8:	8c81                	sub	s1,s1,s0
    48ba:	9aa2                	add	s5,s5,s0
    48bc:	f0f5                	bnez	s1,48a0 <f_mkfs+0x536>
    48be:	470d                	li	a4,3
    48c0:	4b31                	li	s6,12
    48c2:	00ea0c63          	beq	s4,a4,48da <f_mkfs+0x570>
    48c6:	56c2                	lw	a3,48(sp)
    48c8:	6741                	lui	a4,0x10
    48ca:	4b19                	li	s6,6
    48cc:	00e6f763          	bgeu	a3,a4,48da <f_mkfs+0x570>
    48d0:	4709                	li	a4,2
    48d2:	4b11                	li	s6,4
    48d4:	00ea0363          	beq	s4,a4,48da <f_mkfs+0x570>
    48d8:	4b05                	li	s6,1
    48da:	47c2                	lw	a5,16(sp)
    48dc:	18079363          	bnez	a5,4a62 <f_mkfs+0x6f8>
    48e0:	5742                	lw	a4,48(sp)
    48e2:	1850                	addi	a2,sp,52
    48e4:	4585                	li	a1,1
    48e6:	854e                	mv	a0,s3
    48e8:	dc3a                	sw	a4,56(sp)
    48ea:	de02                	sw	zero,60(sp)
    48ec:	962fe0ef          	jal	ra,2a4e <disk_ioctl>
    48f0:	b60511e3          	bnez	a0,4452 <f_mkfs+0xe8>
    48f4:	5bd2                	lw	s7,52(sp)
    48f6:	6741                	lui	a4,0x10
    48f8:	4695                	li	a3,5
    48fa:	4a21                	li	s4,8
    48fc:	c3e70713          	addi	a4,a4,-962 # fc3e <uni2oem932+0x19da>
    4900:	034bd633          	divu	a2,s7,s4
    4904:	12c76263          	bltu	a4,a2,4a28 <f_mkfs+0x6be>
    4908:	06400c93          	li	s9,100
    490c:	039bdcb3          	divu	s9,s7,s9
    4910:	20000613          	li	a2,512
    4914:	4581                	li	a1,0
    4916:	856e                	mv	a0,s11
    4918:	909fb0ef          	jal	ra,220 <memset>
    491c:	1c6d8413          	addi	s0,s11,454
    4920:	03810d13          	addi	s10,sp,56
    4924:	1f6d8613          	addi	a2,s11,502
    4928:	03f00493          	li	s1,63
    492c:	06400793          	li	a5,100
    4930:	03f00c13          	li	s8,63
    4934:	1174f763          	bgeu	s1,s7,4a42 <f_mkfs+0x6d8>
    4938:	000d2a83          	lw	s5,0(s10)
    493c:	0157e663          	bltu	a5,s5,4948 <f_mkfs+0x5de>
    4940:	0efa8d63          	beq	s5,a5,4a3a <f_mkfs+0x6d0>
    4944:	039a8ab3          	mul	s5,s5,s9
    4948:	01548733          	add	a4,s1,s5
    494c:	00ebe463          	bltu	s7,a4,4954 <f_mkfs+0x5ea>
    4950:	0e977763          	bgeu	a4,s1,4a3e <f_mkfs+0x6d4>
    4954:	409b8ab3          	sub	s5,s7,s1
    4958:	85a6                	mv	a1,s1
    495a:	8522                	mv	a0,s0
    495c:	c432                	sw	a2,8(sp)
    495e:	944fe0ef          	jal	ra,2aa2 <st_dword>
    4962:	85d6                	mv	a1,s5
    4964:	00440513          	addi	a0,s0,4
    4968:	93afe0ef          	jal	ra,2aa2 <st_dword>
    496c:	0384d733          	divu	a4,s1,s8
    4970:	4622                	lw	a2,8(sp)
    4972:	ff640e23          	sb	s6,-4(s0)
    4976:	034755b3          	divu	a1,a4,s4
    497a:	03477733          	remu	a4,a4,s4
    497e:	0025d693          	srli	a3,a1,0x2
    4982:	fc06f693          	andi	a3,a3,-64
    4986:	feb40da3          	sb	a1,-5(s0)
    498a:	fee40ca3          	sb	a4,-7(s0)
    498e:	0384f733          	remu	a4,s1,s8
    4992:	94d6                	add	s1,s1,s5
    4994:	0705                	addi	a4,a4,1
    4996:	8f55                	or	a4,a4,a3
    4998:	fee40d23          	sb	a4,-6(s0)
    499c:	fff48713          	addi	a4,s1,-1
    49a0:	038756b3          	divu	a3,a4,s8
    49a4:	0346d5b3          	divu	a1,a3,s4
    49a8:	0346f6b3          	remu	a3,a3,s4
    49ac:	feb40fa3          	sb	a1,-1(s0)
    49b0:	03877733          	remu	a4,a4,s8
    49b4:	fed40ea3          	sb	a3,-3(s0)
    49b8:	0025d693          	srli	a3,a1,0x2
    49bc:	fc06f693          	andi	a3,a3,-64
    49c0:	0705                	addi	a4,a4,1
    49c2:	8f55                	or	a4,a4,a3
    49c4:	fee40f23          	sb	a4,-2(s0)
    49c8:	06860d63          	beq	a2,s0,4a42 <f_mkfs+0x6d8>
    49cc:	0441                	addi	s0,s0,16
    49ce:	0d11                	addi	s10,s10,4
    49d0:	06400793          	li	a5,100
    49d4:	f0a5                	bnez	s1,4934 <f_mkfs+0x5ca>
    49d6:	a0b5                	j	4a42 <f_mkfs+0x6d8>
    49d8:	020d8513          	addi	a0,s11,32
    49dc:	ca46                	sw	a7,20(sp)
    49de:	8c4fe0ef          	jal	ra,2aa2 <st_dword>
    49e2:	48d2                	lw	a7,20(sp)
    49e4:	b1d9                	j	46aa <f_mkfs+0x340>
    49e6:	027d8513          	addi	a0,s11,39
    49ea:	8b8fe0ef          	jal	ra,2aa2 <st_dword>
    49ee:	01041713          	slli	a4,s0,0x10
    49f2:	8341                	srli	a4,a4,0x10
    49f4:	8321                	srli	a4,a4,0x8
    49f6:	00ed8ba3          	sb	a4,23(s11)
    49fa:	f8000713          	li	a4,-128
    49fe:	02ed8223          	sb	a4,36(s11)
    4a02:	000075b7          	lui	a1,0x7
    4a06:	02900713          	li	a4,41
    4a0a:	008d8b23          	sb	s0,22(s11)
    4a0e:	02ed8323          	sb	a4,38(s11)
    4a12:	464d                	li	a2,19
    4a14:	bf058593          	addi	a1,a1,-1040 # 6bf0 <defopt.6449+0x30>
    4a18:	02bd8513          	addi	a0,s11,43
    4a1c:	bb21                	j	4734 <f_mkfs+0x3ca>
    4a1e:	45b2                	lw	a1,12(sp)
    4a20:	856e                	mv	a0,s11
    4a22:	880fe0ef          	jal	ra,2aa2 <st_dword>
    4a26:	b535                	j	4852 <f_mkfs+0x4e8>
    4a28:	0a06                	slli	s4,s4,0x1
    4a2a:	16fd                	addi	a3,a3,-1
    4a2c:	0ffa7a13          	andi	s4,s4,255
    4a30:	ec0698e3          	bnez	a3,4900 <f_mkfs+0x596>
    4a34:	0ff00a13          	li	s4,255
    4a38:	bdc1                	j	4908 <f_mkfs+0x59e>
    4a3a:	8ade                	mv	s5,s7
    4a3c:	b731                	j	4948 <f_mkfs+0x5de>
    4a3e:	f00a9de3          	bnez	s5,4958 <f_mkfs+0x5ee>
    4a42:	05500713          	li	a4,85
    4a46:	1eed8f23          	sb	a4,510(s11)
    4a4a:	faa00713          	li	a4,-86
    4a4e:	1eed8fa3          	sb	a4,511(s11)
    4a52:	4685                	li	a3,1
    4a54:	4601                	li	a2,0
    4a56:	85ee                	mv	a1,s11
    4a58:	854e                	mv	a0,s3
    4a5a:	fd5fd0ef          	jal	ra,2a2e <disk_write>
    4a5e:	9e051ae3          	bnez	a0,4452 <f_mkfs+0xe8>
    4a62:	4601                	li	a2,0
    4a64:	4581                	li	a1,0
    4a66:	854e                	mv	a0,s3
    4a68:	fe7fd0ef          	jal	ra,2a4e <disk_ioctl>
    4a6c:	4401                	li	s0,0
    4a6e:	aa0504e3          	beqz	a0,4516 <f_mkfs+0x1ac>
    4a72:	b2c5                	j	4452 <f_mkfs+0xe8>
    4a74:	a4061de3          	bnez	a2,44ce <f_mkfs+0x164>
    4a78:	08000693          	li	a3,128
    4a7c:	84ba                	mv	s1,a4
    4a7e:	b0e6f3e3          	bgeu	a3,a4,4584 <f_mkfs+0x21a>
    4a82:	b419                	j	4488 <f_mkfs+0x11e>
    4a84:	a40613e3          	bnez	a2,44ca <f_mkfs+0x160>
    4a88:	b401                	j	4488 <f_mkfs+0x11e>

00004a8a <ff_memalloc>:
    4a8a:	f66fb2ef          	jal	t0,1f0 <__riscv_save_0>
    4a8e:	5b1000ef          	jal	ra,583e <malloc>
    4a92:	f82fb06f          	j	214 <__riscv_restore_0>

00004a96 <ff_memfree>:
    4a96:	f5afb2ef          	jal	t0,1f0 <__riscv_save_0>
    4a9a:	5af000ef          	jal	ra,5848 <free>
    4a9e:	f76fb06f          	j	214 <__riscv_restore_0>

00004aa2 <ff_uni2oem>:
    4aa2:	07f00713          	li	a4,127
    4aa6:	87aa                	mv	a5,a0
    4aa8:	00a76563          	bltu	a4,a0,4ab2 <ff_uni2oem+0x10>
    4aac:	0542                	slli	a0,a0,0x10
    4aae:	8141                	srli	a0,a0,0x10
    4ab0:	8082                	ret
    4ab2:	6741                	lui	a4,0x10
    4ab4:	4501                	li	a0,0
    4ab6:	04e7f963          	bgeu	a5,a4,4b08 <ff_uni2oem+0x66>
    4aba:	3a400713          	li	a4,932
    4abe:	04e59563          	bne	a1,a4,4b08 <ff_uni2oem+0x66>
    4ac2:	07c2                	slli	a5,a5,0x10
    4ac4:	6609                	lui	a2,0x2
    4ac6:	6839                	lui	a6,0xe
    4ac8:	83c1                	srli	a5,a5,0x10
    4aca:	45c1                	li	a1,16
    4acc:	cdd60613          	addi	a2,a2,-803 # 1cdd <SD_WriteMultiBlocks+0x309>
    4ad0:	26480813          	addi	a6,a6,612 # e264 <uni2oem932>
    4ad4:	40a60733          	sub	a4,a2,a0
    4ad8:	8305                	srli	a4,a4,0x1
    4ada:	972a                	add	a4,a4,a0
    4adc:	00271693          	slli	a3,a4,0x2
    4ae0:	010688b3          	add	a7,a3,a6
    4ae4:	0008d883          	lhu	a7,0(a7)
    4ae8:	00f88b63          	beq	a7,a5,4afe <ff_uni2oem+0x5c>
    4aec:	00f8e763          	bltu	a7,a5,4afa <ff_uni2oem+0x58>
    4af0:	863a                	mv	a2,a4
    4af2:	15fd                	addi	a1,a1,-1
    4af4:	f1e5                	bnez	a1,4ad4 <ff_uni2oem+0x32>
    4af6:	4501                	li	a0,0
    4af8:	8082                	ret
    4afa:	853a                	mv	a0,a4
    4afc:	bfdd                	j	4af2 <ff_uni2oem+0x50>
    4afe:	67b9                	lui	a5,0xe
    4b00:	26678793          	addi	a5,a5,614 # e266 <uni2oem932+0x2>
    4b04:	96be                	add	a3,a3,a5
    4b06:	228a                	lhu	a0,0(a3)
    4b08:	8082                	ret

00004b0a <ff_oem2uni>:
    4b0a:	07f00793          	li	a5,127
    4b0e:	04a7f863          	bgeu	a5,a0,4b5e <ff_oem2uni+0x54>
    4b12:	3a400793          	li	a5,932
    4b16:	02f59b63          	bne	a1,a5,4b4c <ff_oem2uni+0x42>
    4b1a:	6689                	lui	a3,0x2
    4b1c:	681d                	lui	a6,0x7
    4b1e:	4641                	li	a2,16
    4b20:	cdd68693          	addi	a3,a3,-803 # 1cdd <SD_WriteMultiBlocks+0x309>
    4b24:	4581                	li	a1,0
    4b26:	eec80813          	addi	a6,a6,-276 # 6eec <oem2uni932>
    4b2a:	40b687b3          	sub	a5,a3,a1
    4b2e:	8385                	srli	a5,a5,0x1
    4b30:	97ae                	add	a5,a5,a1
    4b32:	00279713          	slli	a4,a5,0x2
    4b36:	010708b3          	add	a7,a4,a6
    4b3a:	0008d883          	lhu	a7,0(a7)
    4b3e:	00a88b63          	beq	a7,a0,4b54 <ff_oem2uni+0x4a>
    4b42:	00a8f763          	bgeu	a7,a0,4b50 <ff_oem2uni+0x46>
    4b46:	85be                	mv	a1,a5
    4b48:	167d                	addi	a2,a2,-1
    4b4a:	f265                	bnez	a2,4b2a <ff_oem2uni+0x20>
    4b4c:	4501                	li	a0,0
    4b4e:	8082                	ret
    4b50:	86be                	mv	a3,a5
    4b52:	bfdd                	j	4b48 <ff_oem2uni+0x3e>
    4b54:	679d                	lui	a5,0x7
    4b56:	eee78793          	addi	a5,a5,-274 # 6eee <oem2uni932+0x2>
    4b5a:	973e                	add	a4,a4,a5
    4b5c:	230a                	lhu	a0,0(a4)
    4b5e:	8082                	ret

00004b60 <ff_wtoupper>:
    4b60:	67c1                	lui	a5,0x10
    4b62:	04f57d63          	bgeu	a0,a5,4bbc <ff_wtoupper+0x5c>
    4b66:	01051793          	slli	a5,a0,0x10
    4b6a:	6705                	lui	a4,0x1
    4b6c:	83c1                	srli	a5,a5,0x10
    4b6e:	02e56e63          	bltu	a0,a4,4baa <ff_wtoupper+0x4a>
    4b72:	671d                	lui	a4,0x7
    4b74:	e3070713          	addi	a4,a4,-464 # 6e30 <cvt2.1822>
    4b78:	2316                	lhu	a3,0(a4)
    4b7a:	c2a1                	beqz	a3,4bba <ff_wtoupper+0x5a>
    4b7c:	02d7ef63          	bltu	a5,a3,4bba <ff_wtoupper+0x5a>
    4b80:	0711                	addi	a4,a4,4
    4b82:	ffe75603          	lhu	a2,-2(a4)
    4b86:	00865593          	srli	a1,a2,0x8
    4b8a:	0ff67613          	andi	a2,a2,255
    4b8e:	00d60833          	add	a6,a2,a3
    4b92:	07055063          	bge	a0,a6,4bf2 <ff_wtoupper+0x92>
    4b96:	4621                	li	a2,8
    4b98:	02b66163          	bltu	a2,a1,4bba <ff_wtoupper+0x5a>
    4b9c:	661d                	lui	a2,0x7
    4b9e:	c1860613          	addi	a2,a2,-1000 # 6c18 <defopt.6449+0x58>
    4ba2:	058a                	slli	a1,a1,0x2
    4ba4:	95b2                	add	a1,a1,a2
    4ba6:	4190                	lw	a2,0(a1)
    4ba8:	8602                	jr	a2
    4baa:	671d                	lui	a4,0x7
    4bac:	c3c70713          	addi	a4,a4,-964 # 6c3c <cvt1.1821>
    4bb0:	b7e1                	j	4b78 <ff_wtoupper+0x18>
    4bb2:	8d15                	sub	a0,a0,a3
    4bb4:	0506                	slli	a0,a0,0x1
    4bb6:	972a                	add	a4,a4,a0
    4bb8:	231e                	lhu	a5,0(a4)
    4bba:	853e                	mv	a0,a5
    4bbc:	8082                	ret
    4bbe:	40d78533          	sub	a0,a5,a3
    4bc2:	8905                	andi	a0,a0,1
    4bc4:	8f89                	sub	a5,a5,a0
    4bc6:	07c2                	slli	a5,a5,0x10
    4bc8:	83c1                	srli	a5,a5,0x10
    4bca:	bfc5                	j	4bba <ff_wtoupper+0x5a>
    4bcc:	17c1                	addi	a5,a5,-16
    4bce:	bfe5                	j	4bc6 <ff_wtoupper+0x66>
    4bd0:	1781                	addi	a5,a5,-32
    4bd2:	bfd5                	j	4bc6 <ff_wtoupper+0x66>
    4bd4:	fd078793          	addi	a5,a5,-48 # ffd0 <uni2oem932+0x1d6c>
    4bd8:	b7fd                	j	4bc6 <ff_wtoupper+0x66>
    4bda:	1799                	addi	a5,a5,-26
    4bdc:	b7ed                	j	4bc6 <ff_wtoupper+0x66>
    4bde:	07a1                	addi	a5,a5,8
    4be0:	b7dd                	j	4bc6 <ff_wtoupper+0x66>
    4be2:	fb078793          	addi	a5,a5,-80
    4be6:	b7c5                	j	4bc6 <ff_wtoupper+0x66>
    4be8:	7779                	lui	a4,0xffffe
    4bea:	3a070713          	addi	a4,a4,928 # ffffe3a0 <_eusrstack+0xdfff63a0>
    4bee:	97ba                	add	a5,a5,a4
    4bf0:	bfd9                	j	4bc6 <ff_wtoupper+0x66>
    4bf2:	f1d9                	bnez	a1,4b78 <ff_wtoupper+0x18>
    4bf4:	0606                	slli	a2,a2,0x1
    4bf6:	9732                	add	a4,a4,a2
    4bf8:	b741                	j	4b78 <ff_wtoupper+0x18>

00004bfa <USER_I2S_Init>:
    4bfa:	ddcfb2ef          	jal	t0,1d6 <__riscv_save_4>
    4bfe:	7179                	addi	sp,sp,-48
    4c00:	892a                	mv	s2,a0
    4c02:	89ae                	mv	s3,a1
    4c04:	6511                	lui	a0,0x4
    4c06:	4585                	li	a1,1
    4c08:	c632                	sw	a2,12(sp)
    4c0a:	c436                	sw	a3,8(sp)
    4c0c:	c23a                	sw	a4,4(sp)
    4c0e:	b15fd0ef          	jal	ra,2722 <RCC_APB1PeriphClockCmd>
    4c12:	4585                	li	a1,1
    4c14:	4561                	li	a0,24
    4c16:	aeffd0ef          	jal	ra,2704 <RCC_APB2PeriphClockCmd>
    4c1a:	40011537          	lui	a0,0x40011
    4c1e:	77ed                	lui	a5,0xffffb
    4c20:	44e1                	li	s1,24
    4c22:	440d                	li	s0,3
    4c24:	084c                	addi	a1,sp,20
    4c26:	c0050513          	addi	a0,a0,-1024 # 40010c00 <_eusrstack+0x20008c00>
    4c2a:	82fc                	sh	a5,20(sp)
    4c2c:	ce26                	sw	s1,28(sp)
    4c2e:	cc22                	sw	s0,24(sp)
    4c30:	e70fd0ef          	jal	ra,22a0 <GPIO_Init>
    4c34:	04000793          	li	a5,64
    4c38:	084c                	addi	a1,sp,20
    4c3a:	40011537          	lui	a0,0x40011
    4c3e:	82fc                	sh	a5,20(sp)
    4c40:	ce26                	sw	s1,28(sp)
    4c42:	cc22                	sw	s0,24(sp)
    4c44:	e5cfd0ef          	jal	ra,22a0 <GPIO_Init>
    4c48:	46a2                	lw	a3,8(sp)
    4c4a:	4712                	lw	a4,4(sp)
    4c4c:	4632                	lw	a2,12(sp)
    4c4e:	40004437          	lui	s0,0x40004
    4c52:	20000793          	li	a5,512
    4c56:	100c                	addi	a1,sp,32
    4c58:	80040513          	addi	a0,s0,-2048 # 40003800 <_eusrstack+0x1fffb800>
    4c5c:	02d11223          	sh	a3,36(sp)
    4c60:	02f11323          	sh	a5,38(sp)
    4c64:	d43a                	sw	a4,40(sp)
    4c66:	02c11623          	sh	a2,44(sp)
    4c6a:	03311023          	sh	s3,32(sp)
    4c6e:	03211123          	sh	s2,34(sp)
    4c72:	be1fd0ef          	jal	ra,2852 <I2S_Init>
    4c76:	4585                	li	a1,1
    4c78:	80040513          	addi	a0,s0,-2048
    4c7c:	c91fd0ef          	jal	ra,290c <I2S_Cmd>
    4c80:	6145                	addi	sp,sp,48
    4c82:	d88fb06f          	j	20a <__riscv_restore_4>

00004c86 <WM8978_WaitEvent>:
    4c86:	d6afb2ef          	jal	t0,1f0 <__riscv_save_0>
    4c8a:	6441                	lui	s0,0x10
    4c8c:	84aa                	mv	s1,a0
    4c8e:	892e                	mv	s2,a1
    4c90:	147d                	addi	s0,s0,-1
    4c92:	85ca                	mv	a1,s2
    4c94:	8526                	mv	a0,s1
    4c96:	83ffd0ef          	jal	ra,24d4 <I2C_CheckEvent>
    4c9a:	c501                	beqz	a0,4ca2 <WM8978_WaitEvent+0x1c>
    4c9c:	4501                	li	a0,0
    4c9e:	d76fb06f          	j	214 <__riscv_restore_0>
    4ca2:	147d                	addi	s0,s0,-1
    4ca4:	0442                	slli	s0,s0,0x10
    4ca6:	8041                	srli	s0,s0,0x10
    4ca8:	f46d                	bnez	s0,4c92 <WM8978_WaitEvent+0xc>
    4caa:	4505                	li	a0,1
    4cac:	bfcd                	j	4c9e <WM8978_WaitEvent+0x18>

00004cae <WM8978_Write_Reg>:
    4cae:	d28fb2ef          	jal	t0,1d6 <__riscv_save_4>
    4cb2:	40006437          	lui	s0,0x40006
    4cb6:	89aa                	mv	s3,a0
    4cb8:	892e                	mv	s2,a1
    4cba:	80040513          	addi	a0,s0,-2048 # 40005800 <_eusrstack+0x1fffd800>
    4cbe:	4585                	li	a1,1
    4cc0:	fcafd0ef          	jal	ra,248a <I2C_GenerateSTART>
    4cc4:	000305b7          	lui	a1,0x30
    4cc8:	0585                	addi	a1,a1,1
    4cca:	80040513          	addi	a0,s0,-2048
    4cce:	fb9ff0ef          	jal	ra,4c86 <WM8978_WaitEvent>
    4cd2:	c91d                	beqz	a0,4d08 <WM8978_Write_Reg+0x5a>
    4cd4:	00015537          	lui	a0,0x15
    4cd8:	5f050513          	addi	a0,a0,1520 # 155f0 <CSWTCH.4+0x14>
    4cdc:	6dd000ef          	jal	ra,5bb8 <puts>
    4ce0:	4405                	li	s0,1
    4ce2:	40006537          	lui	a0,0x40006
    4ce6:	4585                	li	a1,1
    4ce8:	80050513          	addi	a0,a0,-2048 # 40005800 <_eusrstack+0x1fffd800>
    4cec:	fb8fd0ef          	jal	ra,24a4 <I2C_GenerateSTOP>
    4cf0:	e809                	bnez	s0,4d02 <WM8978_Write_Reg+0x54>
    4cf2:	20000537          	lui	a0,0x20000
    4cf6:	0986                	slli	s3,s3,0x1
    4cf8:	02050513          	addi	a0,a0,32 # 20000020 <WM8978_RegCash>
    4cfc:	954e                	add	a0,a0,s3
    4cfe:	01251023          	sh	s2,0(a0)
    4d02:	8522                	mv	a0,s0
    4d04:	d06fb06f          	j	20a <__riscv_restore_4>
    4d08:	03400593          	li	a1,52
    4d0c:	80040513          	addi	a0,s0,-2048
    4d10:	4601                	li	a2,0
    4d12:	fb0fd0ef          	jal	ra,24c2 <I2C_Send7bitAddress>
    4d16:	000704b7          	lui	s1,0x70
    4d1a:	08248593          	addi	a1,s1,130 # 70082 <_data_lma+0x5a752>
    4d1e:	80040513          	addi	a0,s0,-2048
    4d22:	f65ff0ef          	jal	ra,4c86 <WM8978_WaitEvent>
    4d26:	c511                	beqz	a0,4d32 <WM8978_Write_Reg+0x84>
    4d28:	00015537          	lui	a0,0x15
    4d2c:	61450513          	addi	a0,a0,1556 # 15614 <CSWTCH.4+0x38>
    4d30:	b775                	j	4cdc <WM8978_Write_Reg+0x2e>
    4d32:	00895593          	srli	a1,s2,0x8
    4d36:	00199793          	slli	a5,s3,0x1
    4d3a:	8985                	andi	a1,a1,1
    4d3c:	8ddd                	or	a1,a1,a5
    4d3e:	0ff5f593          	andi	a1,a1,255
    4d42:	80040513          	addi	a0,s0,-2048
    4d46:	f78fd0ef          	jal	ra,24be <I2C_SendData>
    4d4a:	08448593          	addi	a1,s1,132
    4d4e:	80040513          	addi	a0,s0,-2048
    4d52:	f35ff0ef          	jal	ra,4c86 <WM8978_WaitEvent>
    4d56:	c511                	beqz	a0,4d62 <WM8978_Write_Reg+0xb4>
    4d58:	00015537          	lui	a0,0x15
    4d5c:	64850513          	addi	a0,a0,1608 # 15648 <CSWTCH.4+0x6c>
    4d60:	bfb5                	j	4cdc <WM8978_Write_Reg+0x2e>
    4d62:	80040513          	addi	a0,s0,-2048
    4d66:	0ff97593          	andi	a1,s2,255
    4d6a:	64c1                	lui	s1,0x10
    4d6c:	10000a37          	lui	s4,0x10000
    4d70:	f4efd0ef          	jal	ra,24be <I2C_SendData>
    4d74:	14fd                	addi	s1,s1,-1
    4d76:	0a11                	addi	s4,s4,4
    4d78:	80040413          	addi	s0,s0,-2048
    4d7c:	85d2                	mv	a1,s4
    4d7e:	8522                	mv	a0,s0
    4d80:	f6afd0ef          	jal	ra,24ea <I2C_GetFlagStatus>
    4d84:	e509                	bnez	a0,4d8e <WM8978_Write_Reg+0xe0>
    4d86:	14fd                	addi	s1,s1,-1
    4d88:	04c2                	slli	s1,s1,0x10
    4d8a:	80c1                	srli	s1,s1,0x10
    4d8c:	f8e5                	bnez	s1,4d7c <WM8978_Write_Reg+0xce>
    4d8e:	4401                	li	s0,0
    4d90:	bf89                	j	4ce2 <WM8978_Write_Reg+0x34>

00004d92 <WM8978_IIC_Init>:
    4d92:	c5efb2ef          	jal	t0,1f0 <__riscv_save_0>
    4d96:	1101                	addi	sp,sp,-32
    4d98:	4585                	li	a1,1
    4d9a:	4521                	li	a0,8
    4d9c:	969fd0ef          	jal	ra,2704 <RCC_APB2PeriphClockCmd>
    4da0:	4585                	li	a1,1
    4da2:	00400537          	lui	a0,0x400
    4da6:	97dfd0ef          	jal	ra,2722 <RCC_APB1PeriphClockCmd>
    4daa:	40011437          	lui	s0,0x40011
    4dae:	40000793          	li	a5,1024
    4db2:	4971                	li	s2,28
    4db4:	448d                	li	s1,3
    4db6:	004c                	addi	a1,sp,4
    4db8:	c0040513          	addi	a0,s0,-1024 # 40010c00 <_eusrstack+0x20008c00>
    4dbc:	827c                	sh	a5,4(sp)
    4dbe:	c64a                	sw	s2,12(sp)
    4dc0:	c426                	sw	s1,8(sp)
    4dc2:	cdefd0ef          	jal	ra,22a0 <GPIO_Init>
    4dc6:	6785                	lui	a5,0x1
    4dc8:	80078793          	addi	a5,a5,-2048 # 800 <__stack_size>
    4dcc:	004c                	addi	a1,sp,4
    4dce:	c0040513          	addi	a0,s0,-1024
    4dd2:	827c                	sh	a5,4(sp)
    4dd4:	c64a                	sw	s2,12(sp)
    4dd6:	c426                	sw	s1,8(sp)
    4dd8:	cc8fd0ef          	jal	ra,22a0 <GPIO_Init>
    4ddc:	67e1                	lui	a5,0x18
    4dde:	6a078793          	addi	a5,a5,1696 # 186a0 <_data_lma+0x2d70>
    4de2:	c83e                	sw	a5,16(sp)
    4de4:	400007b7          	lui	a5,0x40000
    4de8:	ca3e                	sw	a5,20(sp)
    4dea:	040007b7          	lui	a5,0x4000
    4dee:	40006437          	lui	s0,0x40006
    4df2:	0785                	addi	a5,a5,1
    4df4:	cc3e                	sw	a5,24(sp)
    4df6:	080c                	addi	a1,sp,16
    4df8:	6791                	lui	a5,0x4
    4dfa:	80040513          	addi	a0,s0,-2048 # 40005800 <_eusrstack+0x1fffd800>
    4dfe:	86fc                	sh	a5,28(sp)
    4e00:	d74fd0ef          	jal	ra,2374 <I2C_Init>
    4e04:	80040513          	addi	a0,s0,-2048
    4e08:	4585                	li	a1,1
    4e0a:	e68fd0ef          	jal	ra,2472 <I2C_Cmd>
    4e0e:	4581                	li	a1,0
    4e10:	4501                	li	a0,0
    4e12:	e9dff0ef          	jal	ra,4cae <WM8978_Write_Reg>
    4e16:	45ed                	li	a1,27
    4e18:	4505                	li	a0,1
    4e1a:	e95ff0ef          	jal	ra,4cae <WM8978_Write_Reg>
    4e1e:	1b000593          	li	a1,432
    4e22:	4509                	li	a0,2
    4e24:	e8bff0ef          	jal	ra,4cae <WM8978_Write_Reg>
    4e28:	06c00593          	li	a1,108
    4e2c:	450d                	li	a0,3
    4e2e:	e81ff0ef          	jal	ra,4cae <WM8978_Write_Reg>
    4e32:	4581                	li	a1,0
    4e34:	4519                	li	a0,6
    4e36:	e79ff0ef          	jal	ra,4cae <WM8978_Write_Reg>
    4e3a:	45c1                	li	a1,16
    4e3c:	02b00513          	li	a0,43
    4e40:	e6fff0ef          	jal	ra,4cae <WM8978_Write_Reg>
    4e44:	10000593          	li	a1,256
    4e48:	02f00513          	li	a0,47
    4e4c:	e63ff0ef          	jal	ra,4cae <WM8978_Write_Reg>
    4e50:	10000593          	li	a1,256
    4e54:	03000513          	li	a0,48
    4e58:	e57ff0ef          	jal	ra,4cae <WM8978_Write_Reg>
    4e5c:	4589                	li	a1,2
    4e5e:	03100513          	li	a0,49
    4e62:	e4dff0ef          	jal	ra,4cae <WM8978_Write_Reg>
    4e66:	45a1                	li	a1,8
    4e68:	4529                	li	a0,10
    4e6a:	e45ff0ef          	jal	ra,4cae <WM8978_Write_Reg>
    4e6e:	45a1                	li	a1,8
    4e70:	4539                	li	a0,14
    4e72:	e3dff0ef          	jal	ra,4cae <WM8978_Write_Reg>
    4e76:	6105                	addi	sp,sp,32
    4e78:	b9cfb06f          	j	214 <__riscv_restore_0>

00004e7c <WM8978_Set_Channel1_Volume>:
    4e7c:	b74fb2ef          	jal	t0,1f0 <__riscv_save_0>
    4e80:	03f00793          	li	a5,63
    4e84:	03f00413          	li	s0,63
    4e88:	00a7e363          	bltu	a5,a0,4e8e <WM8978_Set_Channel1_Volume+0x12>
    4e8c:	842a                	mv	s0,a0
    4e8e:	0442                	slli	s0,s0,0x10
    4e90:	8041                	srli	s0,s0,0x10
    4e92:	85a2                	mv	a1,s0
    4e94:	03400513          	li	a0,52
    4e98:	e17ff0ef          	jal	ra,4cae <WM8978_Write_Reg>
    4e9c:	10046593          	ori	a1,s0,256
    4ea0:	03500513          	li	a0,53
    4ea4:	e0bff0ef          	jal	ra,4cae <WM8978_Write_Reg>
    4ea8:	b6cfb06f          	j	214 <__riscv_restore_0>

00004eac <WM8978_CfgAudioIF>:
    4eac:	b44fb2ef          	jal	t0,1f0 <__riscv_save_0>
    4eb0:	4741                	li	a4,16
    4eb2:	4781                	li	a5,0
    4eb4:	00a76763          	bltu	a4,a0,4ec2 <WM8978_CfgAudioIF+0x16>
    4eb8:	67d5                	lui	a5,0x15
    4eba:	5dc78793          	addi	a5,a5,1500 # 155dc <CSWTCH.4>
    4ebe:	97aa                	add	a5,a5,a0
    4ec0:	239c                	lbu	a5,0(a5)
    4ec2:	470d                	li	a4,3
    4ec4:	00e58f63          	beq	a1,a4,4ee2 <WM8978_CfgAudioIF+0x36>
    4ec8:	4715                	li	a4,5
    4eca:	00e58f63          	beq	a1,a4,4ee8 <WM8978_CfgAudioIF+0x3c>
    4ece:	85be                	mv	a1,a5
    4ed0:	4511                	li	a0,4
    4ed2:	dddff0ef          	jal	ra,4cae <WM8978_Write_Reg>
    4ed6:	4581                	li	a1,0
    4ed8:	4519                	li	a0,6
    4eda:	dd5ff0ef          	jal	ra,4cae <WM8978_Write_Reg>
    4ede:	b36fb06f          	j	214 <__riscv_restore_0>
    4ee2:	0407e793          	ori	a5,a5,64
    4ee6:	b7e5                	j	4ece <WM8978_CfgAudioIF+0x22>
    4ee8:	0607e793          	ori	a5,a5,96
    4eec:	b7cd                	j	4ece <WM8978_CfgAudioIF+0x22>

00004eee <WM8978_LINEIN_Gain>:
    4eee:	b02fb2ef          	jal	t0,1f0 <__riscv_save_0>
    4ef2:	200004b7          	lui	s1,0x20000
    4ef6:	02048493          	addi	s1,s1,32 # 20000020 <WM8978_RegCash>
    4efa:	05e4d583          	lhu	a1,94(s1)
    4efe:	891d                	andi	a0,a0,7
    4f00:	00451413          	slli	s0,a0,0x4
    4f04:	f8f5f593          	andi	a1,a1,-113
    4f08:	8dc1                	or	a1,a1,s0
    4f0a:	02f00513          	li	a0,47
    4f0e:	da1ff0ef          	jal	ra,4cae <WM8978_Write_Reg>
    4f12:	0604d583          	lhu	a1,96(s1)
    4f16:	03000513          	li	a0,48
    4f1a:	f8f5f593          	andi	a1,a1,-113
    4f1e:	8dc1                	or	a1,a1,s0
    4f20:	d8fff0ef          	jal	ra,4cae <WM8978_Write_Reg>
    4f24:	af0fb06f          	j	214 <__riscv_restore_0>

00004f28 <WM8978_AUX_Gain>:
    4f28:	ac8fb2ef          	jal	t0,1f0 <__riscv_save_0>
    4f2c:	20000437          	lui	s0,0x20000
    4f30:	02040413          	addi	s0,s0,32 # 20000020 <WM8978_RegCash>
    4f34:	05e45583          	lhu	a1,94(s0)
    4f38:	00757493          	andi	s1,a0,7
    4f3c:	02f00513          	li	a0,47
    4f40:	99e1                	andi	a1,a1,-8
    4f42:	8dc5                	or	a1,a1,s1
    4f44:	d6bff0ef          	jal	ra,4cae <WM8978_Write_Reg>
    4f48:	06045583          	lhu	a1,96(s0)
    4f4c:	03000513          	li	a0,48
    4f50:	99e1                	andi	a1,a1,-8
    4f52:	8dc5                	or	a1,a1,s1
    4f54:	d5bff0ef          	jal	ra,4cae <WM8978_Write_Reg>
    4f58:	abcfb06f          	j	214 <__riscv_restore_0>

00004f5c <WM8978_ADDA_Cfg>:
    4f5c:	a94fb2ef          	jal	t0,1f0 <__riscv_save_0>
    4f60:	200007b7          	lui	a5,0x20000
    4f64:	02078713          	addi	a4,a5,32 # 20000020 <WM8978_RegCash>
    4f68:	84ae                	mv	s1,a1
    4f6a:	02078413          	addi	s0,a5,32
    4f6e:	236e                	lhu	a1,6(a4)
    4f70:	cd19                	beqz	a0,4f8e <WM8978_ADDA_Cfg+0x32>
    4f72:	0035e593          	ori	a1,a1,3
    4f76:	450d                	li	a0,3
    4f78:	d37ff0ef          	jal	ra,4cae <WM8978_Write_Reg>
    4f7c:	204e                	lhu	a1,4(s0)
    4f7e:	cc81                	beqz	s1,4f96 <WM8978_ADDA_Cfg+0x3a>
    4f80:	0035e593          	ori	a1,a1,3
    4f84:	4509                	li	a0,2
    4f86:	d29ff0ef          	jal	ra,4cae <WM8978_Write_Reg>
    4f8a:	a8afb06f          	j	214 <__riscv_restore_0>
    4f8e:	99f1                	andi	a1,a1,-4
    4f90:	05c2                	slli	a1,a1,0x10
    4f92:	81c1                	srli	a1,a1,0x10
    4f94:	b7cd                	j	4f76 <WM8978_ADDA_Cfg+0x1a>
    4f96:	99f1                	andi	a1,a1,-4
    4f98:	05c2                	slli	a1,a1,0x10
    4f9a:	81c1                	srli	a1,a1,0x10
    4f9c:	b7e5                	j	4f84 <WM8978_ADDA_Cfg+0x28>

00004f9e <WM8978_CfgInput>:
    4f9e:	a38fb2ef          	jal	t0,1d6 <__riscv_save_4>
    4fa2:	200007b7          	lui	a5,0x20000
    4fa6:	02078713          	addi	a4,a5,32 # 20000020 <WM8978_RegCash>
    4faa:	89ae                	mv	s3,a1
    4fac:	84aa                	mv	s1,a0
    4fae:	8932                	mv	s2,a2
    4fb0:	234e                	lhu	a1,4(a4)
    4fb2:	02078413          	addi	s0,a5,32
    4fb6:	cd0d                	beqz	a0,4ff0 <WM8978_CfgInput+0x52>
    4fb8:	00c5e593          	ori	a1,a1,12
    4fbc:	4509                	li	a0,2
    4fbe:	cf1ff0ef          	jal	ra,4cae <WM8978_Write_Reg>
    4fc2:	05845583          	lhu	a1,88(s0)
    4fc6:	c88d                	beqz	s1,4ff8 <WM8978_CfgInput+0x5a>
    4fc8:	0335e593          	ori	a1,a1,51
    4fcc:	02c00513          	li	a0,44
    4fd0:	cdfff0ef          	jal	ra,4cae <WM8978_Write_Reg>
    4fd4:	4515                	li	a0,5
    4fd6:	00099363          	bnez	s3,4fdc <WM8978_CfgInput+0x3e>
    4fda:	4501                	li	a0,0
    4fdc:	f13ff0ef          	jal	ra,4eee <WM8978_LINEIN_Gain>
    4fe0:	451d                	li	a0,7
    4fe2:	00091363          	bnez	s2,4fe8 <WM8978_CfgInput+0x4a>
    4fe6:	4501                	li	a0,0
    4fe8:	f41ff0ef          	jal	ra,4f28 <WM8978_AUX_Gain>
    4fec:	a1efb06f          	j	20a <__riscv_restore_4>
    4ff0:	99cd                	andi	a1,a1,-13
    4ff2:	05c2                	slli	a1,a1,0x10
    4ff4:	81c1                	srli	a1,a1,0x10
    4ff6:	b7d9                	j	4fbc <WM8978_CfgInput+0x1e>
    4ff8:	fcc5f593          	andi	a1,a1,-52
    4ffc:	05c2                	slli	a1,a1,0x10
    4ffe:	81c1                	srli	a1,a1,0x10
    5000:	b7f1                	j	4fcc <WM8978_CfgInput+0x2e>

00005002 <WM8978_CfgOutput>:
    5002:	9eefb2ef          	jal	t0,1f0 <__riscv_save_0>
    5006:	00a03433          	snez	s0,a0
    500a:	c199                	beqz	a1,5010 <WM8978_CfgOutput+0xe>
    500c:	01646413          	ori	s0,s0,22
    5010:	85a2                	mv	a1,s0
    5012:	03200513          	li	a0,50
    5016:	c99ff0ef          	jal	ra,4cae <WM8978_Write_Reg>
    501a:	85a2                	mv	a1,s0
    501c:	03300513          	li	a0,51
    5020:	c8fff0ef          	jal	ra,4cae <WM8978_Write_Reg>
    5024:	9f0fb06f          	j	214 <__riscv_restore_0>

00005028 <wav_decode_init>:
    5028:	9aefb2ef          	jal	t0,1d6 <__riscv_save_4>
    502c:	1141                	addi	sp,sp,-16
    502e:	892a                	mv	s2,a0
    5030:	22800513          	li	a0,552
    5034:	842e                	mv	s0,a1
    5036:	c602                	sw	zero,12(sp)
    5038:	007000ef          	jal	ra,583e <malloc>
    503c:	89aa                	mv	s3,a0
    503e:	20000513          	li	a0,512
    5042:	7fc000ef          	jal	ra,583e <malloc>
    5046:	12098163          	beqz	s3,5168 <wav_decode_init+0x140>
    504a:	84aa                	mv	s1,a0
    504c:	10050e63          	beqz	a0,5168 <wav_decode_init+0x140>
    5050:	4605                	li	a2,1
    5052:	85ca                	mv	a1,s2
    5054:	854e                	mv	a0,s3
    5056:	dabfe0ef          	jal	ra,3e00 <f_open>
    505a:	0ff57513          	andi	a0,a0,255
    505e:	10051563          	bnez	a0,5168 <wav_decode_init+0x140>
    5062:	0074                	addi	a3,sp,12
    5064:	20000613          	li	a2,512
    5068:	85a6                	mv	a1,s1
    506a:	854e                	mv	a0,s3
    506c:	f95fe0ef          	jal	ra,4000 <f_read>
    5070:	4498                	lw	a4,8(s1)
    5072:	455647b7          	lui	a5,0x45564
    5076:	15778793          	addi	a5,a5,343 # 45564157 <_eusrstack+0x2555c157>
    507a:	0ef71763          	bne	a4,a5,5168 <wav_decode_init+0x140>
    507e:	00015537          	lui	a0,0x15
    5082:	67450513          	addi	a0,a0,1652 # 15674 <CSWTCH.4+0x98>
    5086:	333000ef          	jal	ra,5bb8 <puts>
    508a:	4898                	lw	a4,16(s1)
    508c:	746366b7          	lui	a3,0x74636
    5090:	16668693          	addi	a3,a3,358 # 74636166 <_eusrstack+0x5462e166>
    5094:	01470793          	addi	a5,a4,20
    5098:	00f48633          	add	a2,s1,a5
    509c:	420c                	lw	a1,0(a2)
    509e:	00d58863          	beq	a1,a3,50ae <wav_decode_init+0x86>
    50a2:	545356b7          	lui	a3,0x54535
    50a6:	94c68693          	addi	a3,a3,-1716 # 5453494c <_eusrstack+0x3452c94c>
    50aa:	00d59563          	bne	a1,a3,50b4 <wav_decode_init+0x8c>
    50ae:	425c                	lw	a5,4(a2)
    50b0:	0771                	addi	a4,a4,28
    50b2:	97ba                	add	a5,a5,a4
    50b4:	00f48933          	add	s2,s1,a5
    50b8:	00092703          	lw	a4,0(s2)
    50bc:	d01c                	sw	a5,32(s0)
    50be:	617467b7          	lui	a5,0x61746
    50c2:	16478793          	addi	a5,a5,356 # 61746164 <_eusrstack+0x4173e164>
    50c6:	0af71163          	bne	a4,a5,5168 <wav_decode_init+0x140>
    50ca:	00015537          	lui	a0,0x15
    50ce:	68450513          	addi	a0,a0,1668 # 15684 <CSWTCH.4+0xa8>
    50d2:	2e7000ef          	jal	ra,5bb8 <puts>
    50d6:	48dc                	lw	a5,20(s1)
    50d8:	28ce                	lhu	a1,20(s1)
    50da:	00015537          	lui	a0,0x15
    50de:	c01c                	sw	a5,0(s0)
    50e0:	4c9c                	lw	a5,24(s1)
    50e2:	69850513          	addi	a0,a0,1688 # 15698 <CSWTCH.4+0xbc>
    50e6:	cc1c                	sw	a5,24(s0)
    50e8:	4cdc                	lw	a5,28(s1)
    50ea:	078e                	slli	a5,a5,0x3
    50ec:	c85c                	sw	a5,20(s0)
    50ee:	309e                	lhu	a5,32(s1)
    50f0:	a05e                	sh	a5,4(s0)
    50f2:	30be                	lhu	a5,34(s1)
    50f4:	ac5e                	sh	a5,28(s0)
    50f6:	00492783          	lw	a5,4(s2)
    50fa:	c41c                	sw	a5,8(s0)
    50fc:	501c                	lw	a5,32(s0)
    50fe:	07a1                	addi	a5,a5,8
    5100:	d01c                	sw	a5,32(s0)
    5102:	1a3000ef          	jal	ra,5aa4 <iprintf>
    5106:	202e                	lhu	a1,2(s0)
    5108:	00015537          	lui	a0,0x15
    510c:	6b050513          	addi	a0,a0,1712 # 156b0 <CSWTCH.4+0xd4>
    5110:	195000ef          	jal	ra,5aa4 <iprintf>
    5114:	4c0c                	lw	a1,24(s0)
    5116:	00015537          	lui	a0,0x15
    511a:	6c850513          	addi	a0,a0,1736 # 156c8 <CSWTCH.4+0xec>
    511e:	187000ef          	jal	ra,5aa4 <iprintf>
    5122:	484c                	lw	a1,20(s0)
    5124:	00015537          	lui	a0,0x15
    5128:	6e050513          	addi	a0,a0,1760 # 156e0 <CSWTCH.4+0x104>
    512c:	179000ef          	jal	ra,5aa4 <iprintf>
    5130:	204e                	lhu	a1,4(s0)
    5132:	00015537          	lui	a0,0x15
    5136:	6f450513          	addi	a0,a0,1780 # 156f4 <CSWTCH.4+0x118>
    513a:	16b000ef          	jal	ra,5aa4 <iprintf>
    513e:	2c4e                	lhu	a1,28(s0)
    5140:	00015537          	lui	a0,0x15
    5144:	70c50513          	addi	a0,a0,1804 # 1570c <CSWTCH.4+0x130>
    5148:	15d000ef          	jal	ra,5aa4 <iprintf>
    514c:	440c                	lw	a1,8(s0)
    514e:	00015537          	lui	a0,0x15
    5152:	71c50513          	addi	a0,a0,1820 # 1571c <CSWTCH.4+0x140>
    5156:	14f000ef          	jal	ra,5aa4 <iprintf>
    515a:	500c                	lw	a1,32(s0)
    515c:	00015537          	lui	a0,0x15
    5160:	73050513          	addi	a0,a0,1840 # 15730 <CSWTCH.4+0x154>
    5164:	141000ef          	jal	ra,5aa4 <iprintf>
    5168:	854e                	mv	a0,s3
    516a:	89cff0ef          	jal	ra,4206 <f_close>
    516e:	854e                	mv	a0,s3
    5170:	2de1                	jal	5848 <free>
    5172:	4501                	li	a0,0
    5174:	0141                	addi	sp,sp,16
    5176:	894fb06f          	j	20a <__riscv_restore_4>

0000517a <wav_buffill>:
    517a:	876fb2ef          	jal	t0,1f0 <__riscv_save_0>
    517e:	f4018913          	addi	s2,gp,-192 # 20000838 <audiodev>
    5182:	47e1                	li	a5,24
    5184:	84aa                	mv	s1,a0
    5186:	1141                	addi	sp,sp,-16
    5188:	842e                	mv	s0,a1
    518a:	00892503          	lw	a0,8(s2)
    518e:	06f61463          	bne	a2,a5,51f6 <wav_buffill+0x7c>
    5192:	478d                	li	a5,3
    5194:	0025d613          	srli	a2,a1,0x2
    5198:	02f60633          	mul	a2,a2,a5
    519c:	00492583          	lw	a1,4(s2)
    51a0:	0074                	addi	a3,sp,12
    51a2:	e5ffe0ef          	jal	ra,4000 <f_read>
    51a6:	00492703          	lw	a4,4(s2)
    51aa:	4781                	li	a5,0
    51ac:	0087ec63          	bltu	a5,s0,51c4 <wav_buffill+0x4a>
    51b0:	47b2                	lw	a5,12(sp)
    51b2:	470d                	li	a4,3
    51b4:	078a                	slli	a5,a5,0x2
    51b6:	02e7d7b3          	divu	a5,a5,a4
    51ba:	c63e                	sw	a5,12(sp)
    51bc:	4532                	lw	a0,12(sp)
    51be:	0141                	addi	sp,sp,16
    51c0:	854fb06f          	j	214 <__riscv_restore_0>
    51c4:	3310                	lbu	a2,1(a4)
    51c6:	00f486b3          	add	a3,s1,a5
    51ca:	070d                	addi	a4,a4,3
    51cc:	a290                	sb	a2,0(a3)
    51ce:	00178693          	addi	a3,a5,1
    51d2:	fff74603          	lbu	a2,-1(a4)
    51d6:	06c2                	slli	a3,a3,0x10
    51d8:	82c1                	srli	a3,a3,0x10
    51da:	96a6                	add	a3,a3,s1
    51dc:	a290                	sb	a2,0(a3)
    51de:	00378693          	addi	a3,a5,3
    51e2:	ffd74603          	lbu	a2,-3(a4)
    51e6:	06c2                	slli	a3,a3,0x10
    51e8:	82c1                	srli	a3,a3,0x10
    51ea:	0791                	addi	a5,a5,4
    51ec:	07c2                	slli	a5,a5,0x10
    51ee:	96a6                	add	a3,a3,s1
    51f0:	83c1                	srli	a5,a5,0x10
    51f2:	a290                	sb	a2,0(a3)
    51f4:	bf65                	j	51ac <wav_buffill+0x32>
    51f6:	862e                	mv	a2,a1
    51f8:	0074                	addi	a3,sp,12
    51fa:	85a6                	mv	a1,s1
    51fc:	e05fe0ef          	jal	ra,4000 <f_read>
    5200:	4732                	lw	a4,12(sp)
    5202:	fa877de3          	bgeu	a4,s0,51bc <wav_buffill+0x42>
    5206:	01071793          	slli	a5,a4,0x10
    520a:	83c1                	srli	a5,a5,0x10
    520c:	8c19                	sub	s0,s0,a4
    520e:	fa87f7e3          	bgeu	a5,s0,51bc <wav_buffill+0x42>
    5212:	00f48733          	add	a4,s1,a5
    5216:	0785                	addi	a5,a5,1
    5218:	07c2                	slli	a5,a5,0x10
    521a:	00070023          	sb	zero,0(a4)
    521e:	83c1                	srli	a5,a5,0x10
    5220:	b7fd                	j	520e <wav_buffill+0x94>

00005222 <wav_play_song>:
    5222:	fb5fa2ef          	jal	t0,1d6 <__riscv_save_4>
    5226:	892a                	mv	s2,a0
    5228:	22800513          	li	a0,552
    522c:	2d09                	jal	583e <malloc>
    522e:	f4018493          	addi	s1,gp,-192 # 20000838 <audiodev>
    5232:	c488                	sw	a0,8(s1)
    5234:	8a2a                	mv	s4,a0
    5236:	6509                	lui	a0,0x2
    5238:	2519                	jal	583e <malloc>
    523a:	c088                	sw	a0,0(s1)
    523c:	89aa                	mv	s3,a0
    523e:	6509                	lui	a0,0x2
    5240:	2bfd                	jal	583e <malloc>
    5242:	c0c8                	sw	a0,4(s1)
    5244:	f4018413          	addi	s0,gp,-192 # 20000838 <audiodev>
    5248:	0e0a0f63          	beqz	s4,5346 <wav_play_song+0x124>
    524c:	0e098d63          	beqz	s3,5346 <wav_play_song+0x124>
    5250:	0e050b63          	beqz	a0,5346 <wav_play_song+0x124>
    5254:	f5018593          	addi	a1,gp,-176 # 20000848 <wavctrl>
    5258:	854a                	mv	a0,s2
    525a:	dcfff0ef          	jal	ra,5028 <wav_decode_init>
    525e:	f5018493          	addi	s1,gp,-176 # 20000848 <wavctrl>
    5262:	0e051263          	bnez	a0,5346 <wav_play_song+0x124>
    5266:	00015537          	lui	a0,0x15
    526a:	74850513          	addi	a0,a0,1864 # 15748 <CSWTCH.4+0x16c>
    526e:	14b000ef          	jal	ra,5bb8 <puts>
    5272:	2cde                	lhu	a5,28(s1)
    5274:	4741                	li	a4,16
    5276:	0ce79063          	bne	a5,a4,5336 <wav_play_song+0x114>
    527a:	672d                	lui	a4,0xb
    527c:	c4470713          	addi	a4,a4,-956 # ac44 <oem2uni932+0x3d58>
    5280:	4681                	li	a3,0
    5282:	4601                	li	a2,0
    5284:	20000593          	li	a1,512
    5288:	4501                	li	a0,0
    528a:	971ff0ef          	jal	ra,4bfa <USER_I2S_Init>
    528e:	4408                	lw	a0,8(s0)
    5290:	4605                	li	a2,1
    5292:	85ca                	mv	a1,s2
    5294:	b6dfe0ef          	jal	ra,3e00 <f_open>
    5298:	0ff57513          	andi	a0,a0,255
    529c:	e54d                	bnez	a0,5346 <wav_play_song+0x124>
    529e:	00015537          	lui	a0,0x15
    52a2:	75850513          	addi	a0,a0,1880 # 15758 <CSWTCH.4+0x17c>
    52a6:	113000ef          	jal	ra,5bb8 <puts>
    52aa:	508c                	lw	a1,32(s1)
    52ac:	4408                	lw	a0,8(s0)
    52ae:	6a89                	lui	s5,0x2
    52b0:	400049b7          	lui	s3,0x40004
    52b4:	f75fe0ef          	jal	ra,4228 <f_lseek>
    52b8:	00015537          	lui	a0,0x15
    52bc:	76850513          	addi	a0,a0,1896 # 15768 <CSWTCH.4+0x18c>
    52c0:	0f9000ef          	jal	ra,5bb8 <puts>
    52c4:	80098993          	addi	s3,s3,-2048 # 40003800 <_eusrstack+0x1fffb800>
    52c8:	001a8b13          	addi	s6,s5,1 # 2001 <SystemCoreClockUpdate+0xdd>
    52cc:	2cd0                	lbu	a2,28(s1)
    52ce:	4008                	lw	a0,0(s0)
    52d0:	6589                	lui	a1,0x2
    52d2:	4905                	li	s2,1
    52d4:	ea7ff0ef          	jal	ra,517a <wav_buffill>
    52d8:	8a2a                	mv	s4,a0
    52da:	4589                	li	a1,2
    52dc:	854e                	mv	a0,s3
    52de:	e4cfd0ef          	jal	ra,292a <SPI_I2S_GetFlagStatus>
    52e2:	dd65                	beqz	a0,52da <wav_play_song+0xb8>
    52e4:	401c                	lw	a5,0(s0)
    52e6:	854e                	mv	a0,s3
    52e8:	97ca                	add	a5,a5,s2
    52ea:	2398                	lbu	a4,0(a5)
    52ec:	fff7c583          	lbu	a1,-1(a5)
    52f0:	0909                	addi	s2,s2,2
    52f2:	0722                	slli	a4,a4,0x8
    52f4:	8dd9                	or	a1,a1,a4
    52f6:	e30fd0ef          	jal	ra,2926 <SPI_I2S_SendData>
    52fa:	ff6910e3          	bne	s2,s6,52da <wav_play_song+0xb8>
    52fe:	fd5a07e3          	beq	s4,s5,52cc <wav_play_song+0xaa>
    5302:	00015537          	lui	a0,0x15
    5306:	77450513          	addi	a0,a0,1908 # 15774 <CSWTCH.4+0x198>
    530a:	0af000ef          	jal	ra,5bb8 <puts>
    530e:	4008                	lw	a0,0(s0)
    5310:	4485                	li	s1,1
    5312:	9552                	add	a0,a0,s4
    5314:	ffe54583          	lbu	a1,-2(a0)
    5318:	00015537          	lui	a0,0x15
    531c:	78050513          	addi	a0,a0,1920 # 15780 <CSWTCH.4+0x1a4>
    5320:	784000ef          	jal	ra,5aa4 <iprintf>
    5324:	4048                	lw	a0,4(s0)
    5326:	230d                	jal	5848 <free>
    5328:	4008                	lw	a0,0(s0)
    532a:	2b39                	jal	5848 <free>
    532c:	4408                	lw	a0,8(s0)
    532e:	2b29                	jal	5848 <free>
    5330:	8526                	mv	a0,s1
    5332:	ed9fa06f          	j	20a <__riscv_restore_4>
    5336:	4761                	li	a4,24
    5338:	f4e79be3          	bne	a5,a4,528e <wav_play_song+0x6c>
    533c:	672d                	lui	a4,0xb
    533e:	c4470713          	addi	a4,a4,-956 # ac44 <oem2uni932+0x3d58>
    5342:	468d                	li	a3,3
    5344:	bf3d                	j	5282 <wav_play_song+0x60>
    5346:	0ff00493          	li	s1,255
    534a:	bfe9                	j	5324 <wav_play_song+0x102>

0000534c <Delay_Init>:
    534c:	200007b7          	lui	a5,0x20000
    5350:	0f87a783          	lw	a5,248(a5) # 200000f8 <SystemCoreClock>
    5354:	007a1737          	lui	a4,0x7a1
    5358:	20070713          	addi	a4,a4,512 # 7a1200 <_data_lma+0x78b8d0>
    535c:	02e7d7b3          	divu	a5,a5,a4
    5360:	0ff7f793          	andi	a5,a5,255
    5364:	82f18c23          	sb	a5,-1992(gp) # 20000130 <p_us>
    5368:	3e800713          	li	a4,1000
    536c:	02e787b3          	mul	a5,a5,a4
    5370:	82f19b23          	sh	a5,-1994(gp) # 2000012e <p_ms>
    5374:	8082                	ret

00005376 <Delay_Ms>:
    5376:	e000f7b7          	lui	a5,0xe000f
    537a:	43d8                	lw	a4,4(a5)
    537c:	4681                	li	a3,0
    537e:	9b79                	andi	a4,a4,-2
    5380:	c3d8                	sw	a4,4(a5)
    5382:	8361d703          	lhu	a4,-1994(gp) # 2000012e <p_ms>
    5386:	02a70633          	mul	a2,a4,a0
    538a:	cb90                	sw	a2,16(a5)
    538c:	cbd4                	sw	a3,20(a5)
    538e:	4398                	lw	a4,0(a5)
    5390:	01076713          	ori	a4,a4,16
    5394:	c398                	sw	a4,0(a5)
    5396:	4398                	lw	a4,0(a5)
    5398:	02176713          	ori	a4,a4,33
    539c:	c398                	sw	a4,0(a5)
    539e:	43d8                	lw	a4,4(a5)
    53a0:	8b05                	andi	a4,a4,1
    53a2:	df75                	beqz	a4,539e <Delay_Ms+0x28>
    53a4:	4398                	lw	a4,0(a5)
    53a6:	9b79                	andi	a4,a4,-2
    53a8:	c398                	sw	a4,0(a5)
    53aa:	8082                	ret

000053ac <USART_Printf_Init>:
    53ac:	e45fa2ef          	jal	t0,1f0 <__riscv_save_0>
    53b0:	842a                	mv	s0,a0
    53b2:	6511                	lui	a0,0x4
    53b4:	1101                	addi	sp,sp,-32
    53b6:	4585                	li	a1,1
    53b8:	0511                	addi	a0,a0,4
    53ba:	b4afd0ef          	jal	ra,2704 <RCC_APB2PeriphClockCmd>
    53be:	20000793          	li	a5,512
    53c2:	827c                	sh	a5,4(sp)
    53c4:	40011537          	lui	a0,0x40011
    53c8:	478d                	li	a5,3
    53ca:	c43e                	sw	a5,8(sp)
    53cc:	004c                	addi	a1,sp,4
    53ce:	47e1                	li	a5,24
    53d0:	80050513          	addi	a0,a0,-2048 # 40010800 <_eusrstack+0x20008800>
    53d4:	c63e                	sw	a5,12(sp)
    53d6:	ecbfc0ef          	jal	ra,22a0 <GPIO_Init>
    53da:	c822                	sw	s0,16(sp)
    53dc:	40014437          	lui	s0,0x40014
    53e0:	000807b7          	lui	a5,0x80
    53e4:	080c                	addi	a1,sp,16
    53e6:	80040513          	addi	a0,s0,-2048 # 40013800 <_eusrstack+0x2000b800>
    53ea:	cc3e                	sw	a5,24(sp)
    53ec:	ca02                	sw	zero,20(sp)
    53ee:	00011e23          	sh	zero,28(sp)
    53f2:	d42fd0ef          	jal	ra,2934 <USART_Init>
    53f6:	4585                	li	a1,1
    53f8:	80040513          	addi	a0,s0,-2048
    53fc:	dc8fd0ef          	jal	ra,29c4 <USART_Cmd>
    5400:	6105                	addi	sp,sp,32
    5402:	e13fa06f          	j	214 <__riscv_restore_0>

00005406 <_write>:
    5406:	dd1fa2ef          	jal	t0,1d6 <__riscv_save_4>
    540a:	400144b7          	lui	s1,0x40014
    540e:	89ae                	mv	s3,a1
    5410:	8932                	mv	s2,a2
    5412:	4401                	li	s0,0
    5414:	80048493          	addi	s1,s1,-2048 # 40013800 <_eusrstack+0x2000b800>
    5418:	01244563          	blt	s0,s2,5422 <_write+0x1c>
    541c:	854a                	mv	a0,s2
    541e:	dedfa06f          	j	20a <__riscv_restore_4>
    5422:	04000593          	li	a1,64
    5426:	8526                	mv	a0,s1
    5428:	dbafd0ef          	jal	ra,29e2 <USART_GetFlagStatus>
    542c:	d97d                	beqz	a0,5422 <_write+0x1c>
    542e:	008987b3          	add	a5,s3,s0
    5432:	00078583          	lb	a1,0(a5) # 80000 <_data_lma+0x6a6d0>
    5436:	8526                	mv	a0,s1
    5438:	0405                	addi	s0,s0,1
    543a:	05c2                	slli	a1,a1,0x10
    543c:	81c1                	srli	a1,a1,0x10
    543e:	d9cfd0ef          	jal	ra,29da <USART_SendData>
    5442:	bfd9                	j	5418 <_write+0x12>

00005444 <_sbrk>:
    5444:	80818713          	addi	a4,gp,-2040 # 20000100 <curbrk.5274>
    5448:	431c                	lw	a5,0(a4)
    544a:	f7818693          	addi	a3,gp,-136 # 20000870 <_ebss>
    544e:	953e                	add	a0,a0,a5
    5450:	00d56b63          	bltu	a0,a3,5466 <_sbrk+0x22>
    5454:	200086b7          	lui	a3,0x20008
    5458:	80068693          	addi	a3,a3,-2048 # 20007800 <_heap_end>
    545c:	00a6e563          	bltu	a3,a0,5466 <_sbrk+0x22>
    5460:	c308                	sw	a0,0(a4)
    5462:	853e                	mv	a0,a5
    5464:	8082                	ret
    5466:	57fd                	li	a5,-1
    5468:	bfed                	j	5462 <_sbrk+0x1e>

0000546a <__divdi3>:
    546a:	4801                	li	a6,0
    546c:	0e05c563          	bltz	a1,5556 <__divdi3+0xec>
    5470:	0006db63          	bgez	a3,5486 <__divdi3+0x1c>
    5474:	40c00633          	neg	a2,a2
    5478:	00c037b3          	snez	a5,a2
    547c:	40d006b3          	neg	a3,a3
    5480:	fff84813          	not	a6,a6
    5484:	8e9d                	sub	a3,a3,a5
    5486:	87b6                	mv	a5,a3
    5488:	8332                	mv	t1,a2
    548a:	8eaa                	mv	t4,a0
    548c:	88ae                	mv	a7,a1
    548e:	16069f63          	bnez	a3,560c <__divdi3+0x1a2>
    5492:	0cc5fb63          	bgeu	a1,a2,5568 <__divdi3+0xfe>
    5496:	6741                	lui	a4,0x10
    5498:	1ce66f63          	bltu	a2,a4,5676 <__divdi3+0x20c>
    549c:	010007b7          	lui	a5,0x1000
    54a0:	36f66363          	bltu	a2,a5,5806 <__divdi3+0x39c>
    54a4:	01865693          	srli	a3,a2,0x18
    54a8:	47e1                	li	a5,24
    54aa:	00010717          	auipc	a4,0x10
    54ae:	2ea70713          	addi	a4,a4,746 # 15794 <__clz_tab>
    54b2:	9736                	add	a4,a4,a3
    54b4:	2318                	lbu	a4,0(a4)
    54b6:	97ba                	add	a5,a5,a4
    54b8:	02000713          	li	a4,32
    54bc:	8f1d                	sub	a4,a4,a5
    54be:	cb19                	beqz	a4,54d4 <__divdi3+0x6a>
    54c0:	00e595b3          	sll	a1,a1,a4
    54c4:	00f557b3          	srl	a5,a0,a5
    54c8:	00e61333          	sll	t1,a2,a4
    54cc:	00b7e8b3          	or	a7,a5,a1
    54d0:	00e51eb3          	sll	t4,a0,a4
    54d4:	01035613          	srli	a2,t1,0x10
    54d8:	02c8d7b3          	divu	a5,a7,a2
    54dc:	01031693          	slli	a3,t1,0x10
    54e0:	82c1                	srli	a3,a3,0x10
    54e2:	010ed713          	srli	a4,t4,0x10
    54e6:	02c8f5b3          	remu	a1,a7,a2
    54ea:	02f68533          	mul	a0,a3,a5
    54ee:	05c2                	slli	a1,a1,0x10
    54f0:	00e5e8b3          	or	a7,a1,a4
    54f4:	00a8fa63          	bgeu	a7,a0,5508 <__divdi3+0x9e>
    54f8:	989a                	add	a7,a7,t1
    54fa:	fff78713          	addi	a4,a5,-1 # ffffff <_data_lma+0xfea6cf>
    54fe:	0068e463          	bltu	a7,t1,5506 <__divdi3+0x9c>
    5502:	32a8e863          	bltu	a7,a0,5832 <__divdi3+0x3c8>
    5506:	87ba                	mv	a5,a4
    5508:	40a888b3          	sub	a7,a7,a0
    550c:	02c8d5b3          	divu	a1,a7,a2
    5510:	0ec2                	slli	t4,t4,0x10
    5512:	010ede93          	srli	t4,t4,0x10
    5516:	02c8f8b3          	remu	a7,a7,a2
    551a:	02b686b3          	mul	a3,a3,a1
    551e:	08c2                	slli	a7,a7,0x10
    5520:	01d8e8b3          	or	a7,a7,t4
    5524:	00d8fb63          	bgeu	a7,a3,553a <__divdi3+0xd0>
    5528:	989a                	add	a7,a7,t1
    552a:	fff58713          	addi	a4,a1,-1 # 1fff <SystemCoreClockUpdate+0xdb>
    552e:	0068e563          	bltu	a7,t1,5538 <__divdi3+0xce>
    5532:	15f9                	addi	a1,a1,-2
    5534:	00d8e363          	bltu	a7,a3,553a <__divdi3+0xd0>
    5538:	85ba                	mv	a1,a4
    553a:	01079513          	slli	a0,a5,0x10
    553e:	8d4d                	or	a0,a0,a1
    5540:	4581                	li	a1,0
    5542:	00080963          	beqz	a6,5554 <__divdi3+0xea>
    5546:	40a00533          	neg	a0,a0
    554a:	00a037b3          	snez	a5,a0
    554e:	40b005b3          	neg	a1,a1
    5552:	8d9d                	sub	a1,a1,a5
    5554:	8082                	ret
    5556:	40a00533          	neg	a0,a0
    555a:	00a037b3          	snez	a5,a0
    555e:	40b005b3          	neg	a1,a1
    5562:	8d9d                	sub	a1,a1,a5
    5564:	587d                	li	a6,-1
    5566:	b729                	j	5470 <__divdi3+0x6>
    5568:	e601                	bnez	a2,5570 <__divdi3+0x106>
    556a:	4305                	li	t1,1
    556c:	02d35333          	divu	t1,t1,a3
    5570:	6741                	lui	a4,0x10
    5572:	0ee36963          	bltu	t1,a4,5664 <__divdi3+0x1fa>
    5576:	010007b7          	lui	a5,0x1000
    557a:	28f36a63          	bltu	t1,a5,580e <__divdi3+0x3a4>
    557e:	01835693          	srli	a3,t1,0x18
    5582:	47e1                	li	a5,24
    5584:	00010717          	auipc	a4,0x10
    5588:	21070713          	addi	a4,a4,528 # 15794 <__clz_tab>
    558c:	9736                	add	a4,a4,a3
    558e:	2318                	lbu	a4,0(a4)
    5590:	97ba                	add	a5,a5,a4
    5592:	02000713          	li	a4,32
    5596:	8f1d                	sub	a4,a4,a5
    5598:	eb65                	bnez	a4,5688 <__divdi3+0x21e>
    559a:	01031893          	slli	a7,t1,0x10
    559e:	406586b3          	sub	a3,a1,t1
    55a2:	01035f13          	srli	t5,t1,0x10
    55a6:	0108d893          	srli	a7,a7,0x10
    55aa:	4585                	li	a1,1
    55ac:	010ed713          	srli	a4,t4,0x10
    55b0:	03e6d7b3          	divu	a5,a3,t5
    55b4:	03e6f6b3          	remu	a3,a3,t5
    55b8:	03178633          	mul	a2,a5,a7
    55bc:	06c2                	slli	a3,a3,0x10
    55be:	8f55                	or	a4,a4,a3
    55c0:	00c77a63          	bgeu	a4,a2,55d4 <__divdi3+0x16a>
    55c4:	971a                	add	a4,a4,t1
    55c6:	fff78693          	addi	a3,a5,-1 # ffffff <_data_lma+0xfea6cf>
    55ca:	00676463          	bltu	a4,t1,55d2 <__divdi3+0x168>
    55ce:	26c76563          	bltu	a4,a2,5838 <__divdi3+0x3ce>
    55d2:	87b6                	mv	a5,a3
    55d4:	8f11                	sub	a4,a4,a2
    55d6:	03e756b3          	divu	a3,a4,t5
    55da:	0ec2                	slli	t4,t4,0x10
    55dc:	010ede93          	srli	t4,t4,0x10
    55e0:	03e77733          	remu	a4,a4,t5
    55e4:	031688b3          	mul	a7,a3,a7
    55e8:	0742                	slli	a4,a4,0x10
    55ea:	01d76733          	or	a4,a4,t4
    55ee:	01177b63          	bgeu	a4,a7,5604 <__divdi3+0x19a>
    55f2:	971a                	add	a4,a4,t1
    55f4:	fff68613          	addi	a2,a3,-1
    55f8:	00676563          	bltu	a4,t1,5602 <__divdi3+0x198>
    55fc:	16f9                	addi	a3,a3,-2
    55fe:	01176363          	bltu	a4,a7,5604 <__divdi3+0x19a>
    5602:	86b2                	mv	a3,a2
    5604:	01079513          	slli	a0,a5,0x10
    5608:	8d55                	or	a0,a0,a3
    560a:	bf25                	j	5542 <__divdi3+0xd8>
    560c:	04d5e163          	bltu	a1,a3,564e <__divdi3+0x1e4>
    5610:	67c1                	lui	a5,0x10
    5612:	04f6e163          	bltu	a3,a5,5654 <__divdi3+0x1ea>
    5616:	010007b7          	lui	a5,0x1000
    561a:	1ef6e263          	bltu	a3,a5,57fe <__divdi3+0x394>
    561e:	0186d893          	srli	a7,a3,0x18
    5622:	4761                	li	a4,24
    5624:	00010797          	auipc	a5,0x10
    5628:	17078793          	addi	a5,a5,368 # 15794 <__clz_tab>
    562c:	97c6                	add	a5,a5,a7
    562e:	0007c303          	lbu	t1,0(a5)
    5632:	02000793          	li	a5,32
    5636:	933a                	add	t1,t1,a4
    5638:	406787b3          	sub	a5,a5,t1
    563c:	ebe9                	bnez	a5,570e <__divdi3+0x2a4>
    563e:	1cb6ec63          	bltu	a3,a1,5816 <__divdi3+0x3ac>
    5642:	00c53533          	sltu	a0,a0,a2
    5646:	00154513          	xori	a0,a0,1
    564a:	4581                	li	a1,0
    564c:	bddd                	j	5542 <__divdi3+0xd8>
    564e:	4581                	li	a1,0
    5650:	4501                	li	a0,0
    5652:	bdc5                	j	5542 <__divdi3+0xd8>
    5654:	0ff00793          	li	a5,255
    5658:	1cd7f263          	bgeu	a5,a3,581c <__divdi3+0x3b2>
    565c:	0086d893          	srli	a7,a3,0x8
    5660:	4721                	li	a4,8
    5662:	b7c9                	j	5624 <__divdi3+0x1ba>
    5664:	0ff00713          	li	a4,255
    5668:	869a                	mv	a3,t1
    566a:	f0677de3          	bgeu	a4,t1,5584 <__divdi3+0x11a>
    566e:	00835693          	srli	a3,t1,0x8
    5672:	47a1                	li	a5,8
    5674:	bf01                	j	5584 <__divdi3+0x11a>
    5676:	0ff00713          	li	a4,255
    567a:	86b2                	mv	a3,a2
    567c:	e2c777e3          	bgeu	a4,a2,54aa <__divdi3+0x40>
    5680:	00865693          	srli	a3,a2,0x8
    5684:	47a1                	li	a5,8
    5686:	b515                	j	54aa <__divdi3+0x40>
    5688:	00e31333          	sll	t1,t1,a4
    568c:	00f5d633          	srl	a2,a1,a5
    5690:	01035f13          	srli	t5,t1,0x10
    5694:	03e65e33          	divu	t3,a2,t5
    5698:	00e596b3          	sll	a3,a1,a4
    569c:	00f557b3          	srl	a5,a0,a5
    56a0:	8edd                	or	a3,a3,a5
    56a2:	01031893          	slli	a7,t1,0x10
    56a6:	0108d893          	srli	a7,a7,0x10
    56aa:	00e51eb3          	sll	t4,a0,a4
    56ae:	0106d593          	srli	a1,a3,0x10
    56b2:	03e677b3          	remu	a5,a2,t5
    56b6:	03c88733          	mul	a4,a7,t3
    56ba:	07c2                	slli	a5,a5,0x10
    56bc:	8fcd                	or	a5,a5,a1
    56be:	00e7fb63          	bgeu	a5,a4,56d4 <__divdi3+0x26a>
    56c2:	979a                	add	a5,a5,t1
    56c4:	fffe0613          	addi	a2,t3,-1 # 1ffffff <_data_lma+0x1fea6cf>
    56c8:	1667e363          	bltu	a5,t1,582e <__divdi3+0x3c4>
    56cc:	16e7f163          	bgeu	a5,a4,582e <__divdi3+0x3c4>
    56d0:	1e79                	addi	t3,t3,-2
    56d2:	979a                	add	a5,a5,t1
    56d4:	8f99                	sub	a5,a5,a4
    56d6:	03e7d633          	divu	a2,a5,t5
    56da:	01069713          	slli	a4,a3,0x10
    56de:	8341                	srli	a4,a4,0x10
    56e0:	03e7f7b3          	remu	a5,a5,t5
    56e4:	02c88533          	mul	a0,a7,a2
    56e8:	01079693          	slli	a3,a5,0x10
    56ec:	8ed9                	or	a3,a3,a4
    56ee:	00a6fb63          	bgeu	a3,a0,5704 <__divdi3+0x29a>
    56f2:	969a                	add	a3,a3,t1
    56f4:	fff60793          	addi	a5,a2,-1
    56f8:	1266e763          	bltu	a3,t1,5826 <__divdi3+0x3bc>
    56fc:	12a6f563          	bgeu	a3,a0,5826 <__divdi3+0x3bc>
    5700:	1679                	addi	a2,a2,-2
    5702:	969a                	add	a3,a3,t1
    5704:	010e1593          	slli	a1,t3,0x10
    5708:	8e89                	sub	a3,a3,a0
    570a:	8dd1                	or	a1,a1,a2
    570c:	b545                	j	55ac <__divdi3+0x142>
    570e:	00665733          	srl	a4,a2,t1
    5712:	00f696b3          	sll	a3,a3,a5
    5716:	8ed9                	or	a3,a3,a4
    5718:	0065d8b3          	srl	a7,a1,t1
    571c:	0106df13          	srli	t5,a3,0x10
    5720:	03e8deb3          	divu	t4,a7,t5
    5724:	01069e13          	slli	t3,a3,0x10
    5728:	00655333          	srl	t1,a0,t1
    572c:	010e5e13          	srli	t3,t3,0x10
    5730:	00f595b3          	sll	a1,a1,a5
    5734:	00b365b3          	or	a1,t1,a1
    5738:	0105d713          	srli	a4,a1,0x10
    573c:	00f61633          	sll	a2,a2,a5
    5740:	03e8f8b3          	remu	a7,a7,t5
    5744:	03de0333          	mul	t1,t3,t4
    5748:	08c2                	slli	a7,a7,0x10
    574a:	00e8e733          	or	a4,a7,a4
    574e:	00677b63          	bgeu	a4,t1,5764 <__divdi3+0x2fa>
    5752:	9736                	add	a4,a4,a3
    5754:	fffe8893          	addi	a7,t4,-1
    5758:	0cd76963          	bltu	a4,a3,582a <__divdi3+0x3c0>
    575c:	0c677763          	bgeu	a4,t1,582a <__divdi3+0x3c0>
    5760:	1ef9                	addi	t4,t4,-2
    5762:	9736                	add	a4,a4,a3
    5764:	40670733          	sub	a4,a4,t1
    5768:	03e75333          	divu	t1,a4,t5
    576c:	05c2                	slli	a1,a1,0x10
    576e:	81c1                	srli	a1,a1,0x10
    5770:	03e77733          	remu	a4,a4,t5
    5774:	026e08b3          	mul	a7,t3,t1
    5778:	0742                	slli	a4,a4,0x10
    577a:	8dd9                	or	a1,a1,a4
    577c:	0115fb63          	bgeu	a1,a7,5792 <__divdi3+0x328>
    5780:	95b6                	add	a1,a1,a3
    5782:	fff30713          	addi	a4,t1,-1
    5786:	08d5ee63          	bltu	a1,a3,5822 <__divdi3+0x3b8>
    578a:	0915fc63          	bgeu	a1,a7,5822 <__divdi3+0x3b8>
    578e:	1379                	addi	t1,t1,-2
    5790:	95b6                	add	a1,a1,a3
    5792:	0ec2                	slli	t4,t4,0x10
    5794:	6f41                	lui	t5,0x10
    5796:	006eeeb3          	or	t4,t4,t1
    579a:	ffff0713          	addi	a4,t5,-1 # ffff <uni2oem932+0x1d9b>
    579e:	00eef6b3          	and	a3,t4,a4
    57a2:	010ed313          	srli	t1,t4,0x10
    57a6:	8f71                	and	a4,a4,a2
    57a8:	8241                	srli	a2,a2,0x10
    57aa:	02e68e33          	mul	t3,a3,a4
    57ae:	411585b3          	sub	a1,a1,a7
    57b2:	02c686b3          	mul	a3,a3,a2
    57b6:	010e5893          	srli	a7,t3,0x10
    57ba:	02e30733          	mul	a4,t1,a4
    57be:	96ba                	add	a3,a3,a4
    57c0:	96c6                	add	a3,a3,a7
    57c2:	02c30633          	mul	a2,t1,a2
    57c6:	00e6f363          	bgeu	a3,a4,57cc <__divdi3+0x362>
    57ca:	967a                	add	a2,a2,t5
    57cc:	0106d313          	srli	t1,a3,0x10
    57d0:	961a                	add	a2,a2,t1
    57d2:	02c5e263          	bltu	a1,a2,57f6 <__divdi3+0x38c>
    57d6:	00c58563          	beq	a1,a2,57e0 <__divdi3+0x376>
    57da:	8576                	mv	a0,t4
    57dc:	4581                	li	a1,0
    57de:	b395                	j	5542 <__divdi3+0xd8>
    57e0:	6741                	lui	a4,0x10
    57e2:	177d                	addi	a4,a4,-1
    57e4:	8ef9                	and	a3,a3,a4
    57e6:	06c2                	slli	a3,a3,0x10
    57e8:	00ee7e33          	and	t3,t3,a4
    57ec:	00f517b3          	sll	a5,a0,a5
    57f0:	96f2                	add	a3,a3,t3
    57f2:	fed7f4e3          	bgeu	a5,a3,57da <__divdi3+0x370>
    57f6:	fffe8513          	addi	a0,t4,-1
    57fa:	4581                	li	a1,0
    57fc:	b399                	j	5542 <__divdi3+0xd8>
    57fe:	0106d893          	srli	a7,a3,0x10
    5802:	4741                	li	a4,16
    5804:	b505                	j	5624 <__divdi3+0x1ba>
    5806:	01065693          	srli	a3,a2,0x10
    580a:	47c1                	li	a5,16
    580c:	b979                	j	54aa <__divdi3+0x40>
    580e:	01035693          	srli	a3,t1,0x10
    5812:	47c1                	li	a5,16
    5814:	bb85                	j	5584 <__divdi3+0x11a>
    5816:	4581                	li	a1,0
    5818:	4505                	li	a0,1
    581a:	b325                	j	5542 <__divdi3+0xd8>
    581c:	88b6                	mv	a7,a3
    581e:	4701                	li	a4,0
    5820:	b511                	j	5624 <__divdi3+0x1ba>
    5822:	833a                	mv	t1,a4
    5824:	b7bd                	j	5792 <__divdi3+0x328>
    5826:	863e                	mv	a2,a5
    5828:	bdf1                	j	5704 <__divdi3+0x29a>
    582a:	8ec6                	mv	t4,a7
    582c:	bf25                	j	5764 <__divdi3+0x2fa>
    582e:	8e32                	mv	t3,a2
    5830:	b555                	j	56d4 <__divdi3+0x26a>
    5832:	17f9                	addi	a5,a5,-2
    5834:	989a                	add	a7,a7,t1
    5836:	b9c9                	j	5508 <__divdi3+0x9e>
    5838:	17f9                	addi	a5,a5,-2
    583a:	971a                	add	a4,a4,t1
    583c:	bb61                	j	55d4 <__divdi3+0x16a>

0000583e <malloc>:
    583e:	80c18793          	addi	a5,gp,-2036 # 20000104 <_impure_ptr>
    5842:	85aa                	mv	a1,a0
    5844:	4388                	lw	a0,0(a5)
    5846:	a269                	j	59d0 <_malloc_r>

00005848 <free>:
    5848:	80c18793          	addi	a5,gp,-2036 # 20000104 <_impure_ptr>
    584c:	85aa                	mv	a1,a0
    584e:	4388                	lw	a0,0(a5)
    5850:	a8e1                	j	5928 <_free_r>

00005852 <memcmp>:
    5852:	4701                	li	a4,0
    5854:	00e61463          	bne	a2,a4,585c <memcmp+0xa>
    5858:	4501                	li	a0,0
    585a:	8082                	ret
    585c:	00e507b3          	add	a5,a0,a4
    5860:	0705                	addi	a4,a4,1
    5862:	00e586b3          	add	a3,a1,a4
    5866:	239c                	lbu	a5,0(a5)
    5868:	fff6c683          	lbu	a3,-1(a3)
    586c:	fed784e3          	beq	a5,a3,5854 <memcmp+0x2>
    5870:	40d78533          	sub	a0,a5,a3
    5874:	8082                	ret

00005876 <memcpy>:
    5876:	00a5c7b3          	xor	a5,a1,a0
    587a:	8b8d                	andi	a5,a5,3
    587c:	00c50733          	add	a4,a0,a2
    5880:	e781                	bnez	a5,5888 <memcpy+0x12>
    5882:	478d                	li	a5,3
    5884:	00c7ed63          	bltu	a5,a2,589e <memcpy+0x28>
    5888:	87aa                	mv	a5,a0
    588a:	08e57e63          	bgeu	a0,a4,5926 <memcpy+0xb0>
    588e:	2194                	lbu	a3,0(a1)
    5890:	0785                	addi	a5,a5,1
    5892:	0585                	addi	a1,a1,1
    5894:	fed78fa3          	sb	a3,-1(a5)
    5898:	fee7ebe3          	bltu	a5,a4,588e <memcpy+0x18>
    589c:	8082                	ret
    589e:	00357693          	andi	a3,a0,3
    58a2:	87aa                	mv	a5,a0
    58a4:	ca89                	beqz	a3,58b6 <memcpy+0x40>
    58a6:	2194                	lbu	a3,0(a1)
    58a8:	0785                	addi	a5,a5,1
    58aa:	0585                	addi	a1,a1,1
    58ac:	fed78fa3          	sb	a3,-1(a5)
    58b0:	0037f693          	andi	a3,a5,3
    58b4:	bfc5                	j	58a4 <memcpy+0x2e>
    58b6:	ffc77693          	andi	a3,a4,-4
    58ba:	fe068613          	addi	a2,a3,-32
    58be:	06c7f063          	bgeu	a5,a2,591e <memcpy+0xa8>
    58c2:	0005a383          	lw	t2,0(a1)
    58c6:	0045a283          	lw	t0,4(a1)
    58ca:	0085af83          	lw	t6,8(a1)
    58ce:	00c5af03          	lw	t5,12(a1)
    58d2:	0105ae83          	lw	t4,16(a1)
    58d6:	0145ae03          	lw	t3,20(a1)
    58da:	0185a303          	lw	t1,24(a1)
    58de:	01c5a883          	lw	a7,28(a1)
    58e2:	02458593          	addi	a1,a1,36
    58e6:	0077a023          	sw	t2,0(a5)
    58ea:	ffc5a803          	lw	a6,-4(a1)
    58ee:	0057a223          	sw	t0,4(a5)
    58f2:	01f7a423          	sw	t6,8(a5)
    58f6:	01e7a623          	sw	t5,12(a5)
    58fa:	01d7a823          	sw	t4,16(a5)
    58fe:	01c7aa23          	sw	t3,20(a5)
    5902:	0067ac23          	sw	t1,24(a5)
    5906:	0117ae23          	sw	a7,28(a5)
    590a:	02478793          	addi	a5,a5,36
    590e:	ff07ae23          	sw	a6,-4(a5)
    5912:	b775                	j	58be <memcpy+0x48>
    5914:	4190                	lw	a2,0(a1)
    5916:	0791                	addi	a5,a5,4
    5918:	0591                	addi	a1,a1,4
    591a:	fec7ae23          	sw	a2,-4(a5)
    591e:	fed7ebe3          	bltu	a5,a3,5914 <memcpy+0x9e>
    5922:	f6e7e6e3          	bltu	a5,a4,588e <memcpy+0x18>
    5926:	8082                	ret

00005928 <_free_r>:
    5928:	c1dd                	beqz	a1,59ce <_free_r+0xa6>
    592a:	ffc5a783          	lw	a5,-4(a1)
    592e:	1141                	addi	sp,sp,-16
    5930:	c422                	sw	s0,8(sp)
    5932:	c606                	sw	ra,12(sp)
    5934:	c226                	sw	s1,4(sp)
    5936:	ffc58413          	addi	s0,a1,-4
    593a:	0007d363          	bgez	a5,5940 <_free_r+0x18>
    593e:	943e                	add	s0,s0,a5
    5940:	84aa                	mv	s1,a0
    5942:	131000ef          	jal	ra,6272 <__malloc_lock>
    5946:	83c18793          	addi	a5,gp,-1988 # 20000134 <__malloc_free_list>
    594a:	439c                	lw	a5,0(a5)
    594c:	ef81                	bnez	a5,5964 <_free_r+0x3c>
    594e:	00042223          	sw	zero,4(s0)
    5952:	8281ae23          	sw	s0,-1988(gp) # 20000134 <__malloc_free_list>
    5956:	4422                	lw	s0,8(sp)
    5958:	40b2                	lw	ra,12(sp)
    595a:	8526                	mv	a0,s1
    595c:	4492                	lw	s1,4(sp)
    595e:	0141                	addi	sp,sp,16
    5960:	1150006f          	j	6274 <__malloc_unlock>
    5964:	00f47e63          	bgeu	s0,a5,5980 <_free_r+0x58>
    5968:	4014                	lw	a3,0(s0)
    596a:	00d40733          	add	a4,s0,a3
    596e:	00e79663          	bne	a5,a4,597a <_free_r+0x52>
    5972:	4398                	lw	a4,0(a5)
    5974:	43dc                	lw	a5,4(a5)
    5976:	9736                	add	a4,a4,a3
    5978:	c018                	sw	a4,0(s0)
    597a:	c05c                	sw	a5,4(s0)
    597c:	bfd9                	j	5952 <_free_r+0x2a>
    597e:	87ba                	mv	a5,a4
    5980:	43d8                	lw	a4,4(a5)
    5982:	c319                	beqz	a4,5988 <_free_r+0x60>
    5984:	fee47de3          	bgeu	s0,a4,597e <_free_r+0x56>
    5988:	4394                	lw	a3,0(a5)
    598a:	00d78633          	add	a2,a5,a3
    598e:	00861f63          	bne	a2,s0,59ac <_free_r+0x84>
    5992:	4010                	lw	a2,0(s0)
    5994:	96b2                	add	a3,a3,a2
    5996:	c394                	sw	a3,0(a5)
    5998:	00d78633          	add	a2,a5,a3
    599c:	fac71de3          	bne	a4,a2,5956 <_free_r+0x2e>
    59a0:	4310                	lw	a2,0(a4)
    59a2:	4358                	lw	a4,4(a4)
    59a4:	96b2                	add	a3,a3,a2
    59a6:	c394                	sw	a3,0(a5)
    59a8:	c3d8                	sw	a4,4(a5)
    59aa:	b775                	j	5956 <_free_r+0x2e>
    59ac:	00c47563          	bgeu	s0,a2,59b6 <_free_r+0x8e>
    59b0:	47b1                	li	a5,12
    59b2:	c09c                	sw	a5,0(s1)
    59b4:	b74d                	j	5956 <_free_r+0x2e>
    59b6:	4010                	lw	a2,0(s0)
    59b8:	00c406b3          	add	a3,s0,a2
    59bc:	00d71663          	bne	a4,a3,59c8 <_free_r+0xa0>
    59c0:	4314                	lw	a3,0(a4)
    59c2:	4358                	lw	a4,4(a4)
    59c4:	96b2                	add	a3,a3,a2
    59c6:	c014                	sw	a3,0(s0)
    59c8:	c058                	sw	a4,4(s0)
    59ca:	c3c0                	sw	s0,4(a5)
    59cc:	b769                	j	5956 <_free_r+0x2e>
    59ce:	8082                	ret

000059d0 <_malloc_r>:
    59d0:	1101                	addi	sp,sp,-32
    59d2:	ca26                	sw	s1,20(sp)
    59d4:	00358493          	addi	s1,a1,3
    59d8:	98f1                	andi	s1,s1,-4
    59da:	ce06                	sw	ra,28(sp)
    59dc:	cc22                	sw	s0,24(sp)
    59de:	c84a                	sw	s2,16(sp)
    59e0:	c64e                	sw	s3,12(sp)
    59e2:	04a1                	addi	s1,s1,8
    59e4:	47b1                	li	a5,12
    59e6:	04f4f363          	bgeu	s1,a5,5a2c <_malloc_r+0x5c>
    59ea:	44b1                	li	s1,12
    59ec:	04b4e263          	bltu	s1,a1,5a30 <_malloc_r+0x60>
    59f0:	892a                	mv	s2,a0
    59f2:	081000ef          	jal	ra,6272 <__malloc_lock>
    59f6:	83c18793          	addi	a5,gp,-1988 # 20000134 <__malloc_free_list>
    59fa:	4398                	lw	a4,0(a5)
    59fc:	843a                	mv	s0,a4
    59fe:	e039                	bnez	s0,5a44 <_malloc_r+0x74>
    5a00:	84018793          	addi	a5,gp,-1984 # 20000138 <__malloc_sbrk_start>
    5a04:	439c                	lw	a5,0(a5)
    5a06:	e791                	bnez	a5,5a12 <_malloc_r+0x42>
    5a08:	4581                	li	a1,0
    5a0a:	854a                	mv	a0,s2
    5a0c:	2a65                	jal	5bc4 <_sbrk_r>
    5a0e:	84a1a023          	sw	a0,-1984(gp) # 20000138 <__malloc_sbrk_start>
    5a12:	85a6                	mv	a1,s1
    5a14:	854a                	mv	a0,s2
    5a16:	227d                	jal	5bc4 <_sbrk_r>
    5a18:	59fd                	li	s3,-1
    5a1a:	07351963          	bne	a0,s3,5a8c <_malloc_r+0xbc>
    5a1e:	47b1                	li	a5,12
    5a20:	00f92023          	sw	a5,0(s2)
    5a24:	854a                	mv	a0,s2
    5a26:	04f000ef          	jal	ra,6274 <__malloc_unlock>
    5a2a:	a029                	j	5a34 <_malloc_r+0x64>
    5a2c:	fc04d0e3          	bgez	s1,59ec <_malloc_r+0x1c>
    5a30:	47b1                	li	a5,12
    5a32:	c11c                	sw	a5,0(a0)
    5a34:	4501                	li	a0,0
    5a36:	40f2                	lw	ra,28(sp)
    5a38:	4462                	lw	s0,24(sp)
    5a3a:	44d2                	lw	s1,20(sp)
    5a3c:	4942                	lw	s2,16(sp)
    5a3e:	49b2                	lw	s3,12(sp)
    5a40:	6105                	addi	sp,sp,32
    5a42:	8082                	ret
    5a44:	401c                	lw	a5,0(s0)
    5a46:	8f85                	sub	a5,a5,s1
    5a48:	0207cf63          	bltz	a5,5a86 <_malloc_r+0xb6>
    5a4c:	46ad                	li	a3,11
    5a4e:	00f6f663          	bgeu	a3,a5,5a5a <_malloc_r+0x8a>
    5a52:	c01c                	sw	a5,0(s0)
    5a54:	943e                	add	s0,s0,a5
    5a56:	c004                	sw	s1,0(s0)
    5a58:	a031                	j	5a64 <_malloc_r+0x94>
    5a5a:	405c                	lw	a5,4(s0)
    5a5c:	02871363          	bne	a4,s0,5a82 <_malloc_r+0xb2>
    5a60:	82f1ae23          	sw	a5,-1988(gp) # 20000134 <__malloc_free_list>
    5a64:	854a                	mv	a0,s2
    5a66:	00f000ef          	jal	ra,6274 <__malloc_unlock>
    5a6a:	00b40513          	addi	a0,s0,11
    5a6e:	00440793          	addi	a5,s0,4
    5a72:	9961                	andi	a0,a0,-8
    5a74:	40f50733          	sub	a4,a0,a5
    5a78:	df5d                	beqz	a4,5a36 <_malloc_r+0x66>
    5a7a:	943a                	add	s0,s0,a4
    5a7c:	8f89                	sub	a5,a5,a0
    5a7e:	c01c                	sw	a5,0(s0)
    5a80:	bf5d                	j	5a36 <_malloc_r+0x66>
    5a82:	c35c                	sw	a5,4(a4)
    5a84:	b7c5                	j	5a64 <_malloc_r+0x94>
    5a86:	8722                	mv	a4,s0
    5a88:	4040                	lw	s0,4(s0)
    5a8a:	bf95                	j	59fe <_malloc_r+0x2e>
    5a8c:	00350413          	addi	s0,a0,3
    5a90:	9871                	andi	s0,s0,-4
    5a92:	fc8502e3          	beq	a0,s0,5a56 <_malloc_r+0x86>
    5a96:	40a405b3          	sub	a1,s0,a0
    5a9a:	854a                	mv	a0,s2
    5a9c:	2225                	jal	5bc4 <_sbrk_r>
    5a9e:	fb351ce3          	bne	a0,s3,5a56 <_malloc_r+0x86>
    5aa2:	bfb5                	j	5a1e <_malloc_r+0x4e>

00005aa4 <iprintf>:
    5aa4:	7139                	addi	sp,sp,-64
    5aa6:	da3e                	sw	a5,52(sp)
    5aa8:	d22e                	sw	a1,36(sp)
    5aaa:	d432                	sw	a2,40(sp)
    5aac:	d636                	sw	a3,44(sp)
    5aae:	d83a                	sw	a4,48(sp)
    5ab0:	dc42                	sw	a6,56(sp)
    5ab2:	de46                	sw	a7,60(sp)
    5ab4:	80c18793          	addi	a5,gp,-2036 # 20000104 <_impure_ptr>
    5ab8:	cc22                	sw	s0,24(sp)
    5aba:	4380                	lw	s0,0(a5)
    5abc:	ca26                	sw	s1,20(sp)
    5abe:	ce06                	sw	ra,28(sp)
    5ac0:	84aa                	mv	s1,a0
    5ac2:	c409                	beqz	s0,5acc <iprintf+0x28>
    5ac4:	4c1c                	lw	a5,24(s0)
    5ac6:	e399                	bnez	a5,5acc <iprintf+0x28>
    5ac8:	8522                	mv	a0,s0
    5aca:	2399                	jal	6010 <__sinit>
    5acc:	440c                	lw	a1,8(s0)
    5ace:	1054                	addi	a3,sp,36
    5ad0:	8626                	mv	a2,s1
    5ad2:	8522                	mv	a0,s0
    5ad4:	c636                	sw	a3,12(sp)
    5ad6:	00b000ef          	jal	ra,62e0 <_vfiprintf_r>
    5ada:	40f2                	lw	ra,28(sp)
    5adc:	4462                	lw	s0,24(sp)
    5ade:	44d2                	lw	s1,20(sp)
    5ae0:	6121                	addi	sp,sp,64
    5ae2:	8082                	ret

00005ae4 <_puts_r>:
    5ae4:	1101                	addi	sp,sp,-32
    5ae6:	ca26                	sw	s1,20(sp)
    5ae8:	c84a                	sw	s2,16(sp)
    5aea:	ce06                	sw	ra,28(sp)
    5aec:	cc22                	sw	s0,24(sp)
    5aee:	c64e                	sw	s3,12(sp)
    5af0:	c452                	sw	s4,8(sp)
    5af2:	84aa                	mv	s1,a0
    5af4:	892e                	mv	s2,a1
    5af6:	c501                	beqz	a0,5afe <_puts_r+0x1a>
    5af8:	4d1c                	lw	a5,24(a0)
    5afa:	e391                	bnez	a5,5afe <_puts_r+0x1a>
    5afc:	2b11                	jal	6010 <__sinit>
    5afe:	4c9c                	lw	a5,24(s1)
    5b00:	4480                	lw	s0,8(s1)
    5b02:	e399                	bnez	a5,5b08 <_puts_r+0x24>
    5b04:	8526                	mv	a0,s1
    5b06:	2329                	jal	6010 <__sinit>
    5b08:	00010797          	auipc	a5,0x10
    5b0c:	dac78793          	addi	a5,a5,-596 # 158b4 <__sf_fake_stdin>
    5b10:	02f41b63          	bne	s0,a5,5b46 <_puts_r+0x62>
    5b14:	40c0                	lw	s0,4(s1)
    5b16:	245e                	lhu	a5,12(s0)
    5b18:	8ba1                	andi	a5,a5,8
    5b1a:	c7b1                	beqz	a5,5b66 <_puts_r+0x82>
    5b1c:	481c                	lw	a5,16(s0)
    5b1e:	c7a1                	beqz	a5,5b66 <_puts_r+0x82>
    5b20:	59fd                	li	s3,-1
    5b22:	4a29                	li	s4,10
    5b24:	441c                	lw	a5,8(s0)
    5b26:	00094583          	lbu	a1,0(s2)
    5b2a:	17fd                	addi	a5,a5,-1
    5b2c:	e9b1                	bnez	a1,5b80 <_puts_r+0x9c>
    5b2e:	c41c                	sw	a5,8(s0)
    5b30:	0607dd63          	bgez	a5,5baa <_puts_r+0xc6>
    5b34:	8622                	mv	a2,s0
    5b36:	45a9                	li	a1,10
    5b38:	8526                	mv	a0,s1
    5b3a:	20f1                	jal	5c06 <__swbuf_r>
    5b3c:	57fd                	li	a5,-1
    5b3e:	02f50863          	beq	a0,a5,5b6e <_puts_r+0x8a>
    5b42:	4529                	li	a0,10
    5b44:	a035                	j	5b70 <_puts_r+0x8c>
    5b46:	00010797          	auipc	a5,0x10
    5b4a:	d8e78793          	addi	a5,a5,-626 # 158d4 <__sf_fake_stdout>
    5b4e:	00f41463          	bne	s0,a5,5b56 <_puts_r+0x72>
    5b52:	4480                	lw	s0,8(s1)
    5b54:	b7c9                	j	5b16 <_puts_r+0x32>
    5b56:	00010797          	auipc	a5,0x10
    5b5a:	d3e78793          	addi	a5,a5,-706 # 15894 <__sf_fake_stderr>
    5b5e:	faf41ce3          	bne	s0,a5,5b16 <_puts_r+0x32>
    5b62:	44c0                	lw	s0,12(s1)
    5b64:	bf4d                	j	5b16 <_puts_r+0x32>
    5b66:	85a2                	mv	a1,s0
    5b68:	8526                	mv	a0,s1
    5b6a:	2aa1                	jal	5cc2 <__swsetup_r>
    5b6c:	d955                	beqz	a0,5b20 <_puts_r+0x3c>
    5b6e:	557d                	li	a0,-1
    5b70:	40f2                	lw	ra,28(sp)
    5b72:	4462                	lw	s0,24(sp)
    5b74:	44d2                	lw	s1,20(sp)
    5b76:	4942                	lw	s2,16(sp)
    5b78:	49b2                	lw	s3,12(sp)
    5b7a:	4a22                	lw	s4,8(sp)
    5b7c:	6105                	addi	sp,sp,32
    5b7e:	8082                	ret
    5b80:	c41c                	sw	a5,8(s0)
    5b82:	0905                	addi	s2,s2,1
    5b84:	0007d763          	bgez	a5,5b92 <_puts_r+0xae>
    5b88:	4c18                	lw	a4,24(s0)
    5b8a:	00e7ca63          	blt	a5,a4,5b9e <_puts_r+0xba>
    5b8e:	01458863          	beq	a1,s4,5b9e <_puts_r+0xba>
    5b92:	401c                	lw	a5,0(s0)
    5b94:	00178713          	addi	a4,a5,1
    5b98:	c018                	sw	a4,0(s0)
    5b9a:	a38c                	sb	a1,0(a5)
    5b9c:	b761                	j	5b24 <_puts_r+0x40>
    5b9e:	8622                	mv	a2,s0
    5ba0:	8526                	mv	a0,s1
    5ba2:	2095                	jal	5c06 <__swbuf_r>
    5ba4:	f93510e3          	bne	a0,s3,5b24 <_puts_r+0x40>
    5ba8:	b7d9                	j	5b6e <_puts_r+0x8a>
    5baa:	401c                	lw	a5,0(s0)
    5bac:	00178713          	addi	a4,a5,1
    5bb0:	c018                	sw	a4,0(s0)
    5bb2:	4729                	li	a4,10
    5bb4:	a398                	sb	a4,0(a5)
    5bb6:	b771                	j	5b42 <_puts_r+0x5e>

00005bb8 <puts>:
    5bb8:	80c18793          	addi	a5,gp,-2036 # 20000104 <_impure_ptr>
    5bbc:	85aa                	mv	a1,a0
    5bbe:	4388                	lw	a0,0(a5)
    5bc0:	f25ff06f          	j	5ae4 <_puts_r>

00005bc4 <_sbrk_r>:
    5bc4:	1141                	addi	sp,sp,-16
    5bc6:	c422                	sw	s0,8(sp)
    5bc8:	842a                	mv	s0,a0
    5bca:	852e                	mv	a0,a1
    5bcc:	f601aa23          	sw	zero,-140(gp) # 2000086c <errno>
    5bd0:	c606                	sw	ra,12(sp)
    5bd2:	873ff0ef          	jal	ra,5444 <_sbrk>
    5bd6:	57fd                	li	a5,-1
    5bd8:	00f51763          	bne	a0,a5,5be6 <_sbrk_r+0x22>
    5bdc:	f7418793          	addi	a5,gp,-140 # 2000086c <errno>
    5be0:	439c                	lw	a5,0(a5)
    5be2:	c391                	beqz	a5,5be6 <_sbrk_r+0x22>
    5be4:	c01c                	sw	a5,0(s0)
    5be6:	40b2                	lw	ra,12(sp)
    5be8:	4422                	lw	s0,8(sp)
    5bea:	0141                	addi	sp,sp,16
    5bec:	8082                	ret

00005bee <strchr>:
    5bee:	0ff5f593          	andi	a1,a1,255
    5bf2:	211c                	lbu	a5,0(a0)
    5bf4:	c791                	beqz	a5,5c00 <strchr+0x12>
    5bf6:	00b79363          	bne	a5,a1,5bfc <strchr+0xe>
    5bfa:	8082                	ret
    5bfc:	0505                	addi	a0,a0,1
    5bfe:	bfd5                	j	5bf2 <strchr+0x4>
    5c00:	c191                	beqz	a1,5c04 <strchr+0x16>
    5c02:	4501                	li	a0,0
    5c04:	8082                	ret

00005c06 <__swbuf_r>:
    5c06:	1101                	addi	sp,sp,-32
    5c08:	cc22                	sw	s0,24(sp)
    5c0a:	ca26                	sw	s1,20(sp)
    5c0c:	c84a                	sw	s2,16(sp)
    5c0e:	ce06                	sw	ra,28(sp)
    5c10:	c64e                	sw	s3,12(sp)
    5c12:	84aa                	mv	s1,a0
    5c14:	892e                	mv	s2,a1
    5c16:	8432                	mv	s0,a2
    5c18:	c501                	beqz	a0,5c20 <__swbuf_r+0x1a>
    5c1a:	4d1c                	lw	a5,24(a0)
    5c1c:	e391                	bnez	a5,5c20 <__swbuf_r+0x1a>
    5c1e:	2ecd                	jal	6010 <__sinit>
    5c20:	00010797          	auipc	a5,0x10
    5c24:	c9478793          	addi	a5,a5,-876 # 158b4 <__sf_fake_stdin>
    5c28:	06f41763          	bne	s0,a5,5c96 <__swbuf_r+0x90>
    5c2c:	40c0                	lw	s0,4(s1)
    5c2e:	4c1c                	lw	a5,24(s0)
    5c30:	c41c                	sw	a5,8(s0)
    5c32:	245e                	lhu	a5,12(s0)
    5c34:	8ba1                	andi	a5,a5,8
    5c36:	c3c1                	beqz	a5,5cb6 <__swbuf_r+0xb0>
    5c38:	481c                	lw	a5,16(s0)
    5c3a:	cfb5                	beqz	a5,5cb6 <__swbuf_r+0xb0>
    5c3c:	481c                	lw	a5,16(s0)
    5c3e:	4008                	lw	a0,0(s0)
    5c40:	0ff97993          	andi	s3,s2,255
    5c44:	0ff97913          	andi	s2,s2,255
    5c48:	8d1d                	sub	a0,a0,a5
    5c4a:	485c                	lw	a5,20(s0)
    5c4c:	00f54663          	blt	a0,a5,5c58 <__swbuf_r+0x52>
    5c50:	85a2                	mv	a1,s0
    5c52:	8526                	mv	a0,s1
    5c54:	2c79                	jal	5ef2 <_fflush_r>
    5c56:	e525                	bnez	a0,5cbe <__swbuf_r+0xb8>
    5c58:	441c                	lw	a5,8(s0)
    5c5a:	0505                	addi	a0,a0,1
    5c5c:	17fd                	addi	a5,a5,-1
    5c5e:	c41c                	sw	a5,8(s0)
    5c60:	401c                	lw	a5,0(s0)
    5c62:	00178713          	addi	a4,a5,1
    5c66:	c018                	sw	a4,0(s0)
    5c68:	01378023          	sb	s3,0(a5)
    5c6c:	485c                	lw	a5,20(s0)
    5c6e:	00a78863          	beq	a5,a0,5c7e <__swbuf_r+0x78>
    5c72:	245e                	lhu	a5,12(s0)
    5c74:	8b85                	andi	a5,a5,1
    5c76:	cb81                	beqz	a5,5c86 <__swbuf_r+0x80>
    5c78:	47a9                	li	a5,10
    5c7a:	00f91663          	bne	s2,a5,5c86 <__swbuf_r+0x80>
    5c7e:	85a2                	mv	a1,s0
    5c80:	8526                	mv	a0,s1
    5c82:	2c85                	jal	5ef2 <_fflush_r>
    5c84:	ed0d                	bnez	a0,5cbe <__swbuf_r+0xb8>
    5c86:	40f2                	lw	ra,28(sp)
    5c88:	4462                	lw	s0,24(sp)
    5c8a:	854a                	mv	a0,s2
    5c8c:	44d2                	lw	s1,20(sp)
    5c8e:	4942                	lw	s2,16(sp)
    5c90:	49b2                	lw	s3,12(sp)
    5c92:	6105                	addi	sp,sp,32
    5c94:	8082                	ret
    5c96:	00010797          	auipc	a5,0x10
    5c9a:	c3e78793          	addi	a5,a5,-962 # 158d4 <__sf_fake_stdout>
    5c9e:	00f41463          	bne	s0,a5,5ca6 <__swbuf_r+0xa0>
    5ca2:	4480                	lw	s0,8(s1)
    5ca4:	b769                	j	5c2e <__swbuf_r+0x28>
    5ca6:	00010797          	auipc	a5,0x10
    5caa:	bee78793          	addi	a5,a5,-1042 # 15894 <__sf_fake_stderr>
    5cae:	f8f410e3          	bne	s0,a5,5c2e <__swbuf_r+0x28>
    5cb2:	44c0                	lw	s0,12(s1)
    5cb4:	bfad                	j	5c2e <__swbuf_r+0x28>
    5cb6:	85a2                	mv	a1,s0
    5cb8:	8526                	mv	a0,s1
    5cba:	2021                	jal	5cc2 <__swsetup_r>
    5cbc:	d141                	beqz	a0,5c3c <__swbuf_r+0x36>
    5cbe:	597d                	li	s2,-1
    5cc0:	b7d9                	j	5c86 <__swbuf_r+0x80>

00005cc2 <__swsetup_r>:
    5cc2:	1141                	addi	sp,sp,-16
    5cc4:	80c18793          	addi	a5,gp,-2036 # 20000104 <_impure_ptr>
    5cc8:	c226                	sw	s1,4(sp)
    5cca:	4384                	lw	s1,0(a5)
    5ccc:	c422                	sw	s0,8(sp)
    5cce:	c04a                	sw	s2,0(sp)
    5cd0:	c606                	sw	ra,12(sp)
    5cd2:	892a                	mv	s2,a0
    5cd4:	842e                	mv	s0,a1
    5cd6:	c489                	beqz	s1,5ce0 <__swsetup_r+0x1e>
    5cd8:	4c9c                	lw	a5,24(s1)
    5cda:	e399                	bnez	a5,5ce0 <__swsetup_r+0x1e>
    5cdc:	8526                	mv	a0,s1
    5cde:	2e0d                	jal	6010 <__sinit>
    5ce0:	00010797          	auipc	a5,0x10
    5ce4:	bd478793          	addi	a5,a5,-1068 # 158b4 <__sf_fake_stdin>
    5ce8:	02f41b63          	bne	s0,a5,5d1e <__swsetup_r+0x5c>
    5cec:	40c0                	lw	s0,4(s1)
    5cee:	00c41703          	lh	a4,12(s0)
    5cf2:	01071793          	slli	a5,a4,0x10
    5cf6:	83c1                	srli	a5,a5,0x10
    5cf8:	0087f693          	andi	a3,a5,8
    5cfc:	eab5                	bnez	a3,5d70 <__swsetup_r+0xae>
    5cfe:	0107f693          	andi	a3,a5,16
    5d02:	ee95                	bnez	a3,5d3e <__swsetup_r+0x7c>
    5d04:	47a5                	li	a5,9
    5d06:	00f92023          	sw	a5,0(s2)
    5d0a:	04076713          	ori	a4,a4,64
    5d0e:	a45a                	sh	a4,12(s0)
    5d10:	557d                	li	a0,-1
    5d12:	40b2                	lw	ra,12(sp)
    5d14:	4422                	lw	s0,8(sp)
    5d16:	4492                	lw	s1,4(sp)
    5d18:	4902                	lw	s2,0(sp)
    5d1a:	0141                	addi	sp,sp,16
    5d1c:	8082                	ret
    5d1e:	00010797          	auipc	a5,0x10
    5d22:	bb678793          	addi	a5,a5,-1098 # 158d4 <__sf_fake_stdout>
    5d26:	00f41463          	bne	s0,a5,5d2e <__swsetup_r+0x6c>
    5d2a:	4480                	lw	s0,8(s1)
    5d2c:	b7c9                	j	5cee <__swsetup_r+0x2c>
    5d2e:	00010797          	auipc	a5,0x10
    5d32:	b6678793          	addi	a5,a5,-1178 # 15894 <__sf_fake_stderr>
    5d36:	faf41ce3          	bne	s0,a5,5cee <__swsetup_r+0x2c>
    5d3a:	44c0                	lw	s0,12(s1)
    5d3c:	bf4d                	j	5cee <__swsetup_r+0x2c>
    5d3e:	8b91                	andi	a5,a5,4
    5d40:	c785                	beqz	a5,5d68 <__swsetup_r+0xa6>
    5d42:	584c                	lw	a1,52(s0)
    5d44:	c991                	beqz	a1,5d58 <__swsetup_r+0x96>
    5d46:	04440793          	addi	a5,s0,68
    5d4a:	00f58563          	beq	a1,a5,5d54 <__swsetup_r+0x92>
    5d4e:	854a                	mv	a0,s2
    5d50:	bd9ff0ef          	jal	ra,5928 <_free_r>
    5d54:	02042a23          	sw	zero,52(s0)
    5d58:	245e                	lhu	a5,12(s0)
    5d5a:	00042223          	sw	zero,4(s0)
    5d5e:	fdb7f793          	andi	a5,a5,-37
    5d62:	a45e                	sh	a5,12(s0)
    5d64:	481c                	lw	a5,16(s0)
    5d66:	c01c                	sw	a5,0(s0)
    5d68:	245e                	lhu	a5,12(s0)
    5d6a:	0087e793          	ori	a5,a5,8
    5d6e:	a45e                	sh	a5,12(s0)
    5d70:	481c                	lw	a5,16(s0)
    5d72:	eb99                	bnez	a5,5d88 <__swsetup_r+0xc6>
    5d74:	245e                	lhu	a5,12(s0)
    5d76:	20000713          	li	a4,512
    5d7a:	2807f793          	andi	a5,a5,640
    5d7e:	00e78563          	beq	a5,a4,5d88 <__swsetup_r+0xc6>
    5d82:	85a2                	mv	a1,s0
    5d84:	854a                	mv	a0,s2
    5d86:	29a1                	jal	61de <__smakebuf_r>
    5d88:	245e                	lhu	a5,12(s0)
    5d8a:	0017f713          	andi	a4,a5,1
    5d8e:	c31d                	beqz	a4,5db4 <__swsetup_r+0xf2>
    5d90:	485c                	lw	a5,20(s0)
    5d92:	00042423          	sw	zero,8(s0)
    5d96:	40f007b3          	neg	a5,a5
    5d9a:	cc1c                	sw	a5,24(s0)
    5d9c:	481c                	lw	a5,16(s0)
    5d9e:	4501                	li	a0,0
    5da0:	fbad                	bnez	a5,5d12 <__swsetup_r+0x50>
    5da2:	00c41783          	lh	a5,12(s0)
    5da6:	0807f713          	andi	a4,a5,128
    5daa:	d725                	beqz	a4,5d12 <__swsetup_r+0x50>
    5dac:	0407e793          	ori	a5,a5,64
    5db0:	a45e                	sh	a5,12(s0)
    5db2:	bfb9                	j	5d10 <__swsetup_r+0x4e>
    5db4:	8b89                	andi	a5,a5,2
    5db6:	4701                	li	a4,0
    5db8:	e391                	bnez	a5,5dbc <__swsetup_r+0xfa>
    5dba:	4858                	lw	a4,20(s0)
    5dbc:	c418                	sw	a4,8(s0)
    5dbe:	bff9                	j	5d9c <__swsetup_r+0xda>

00005dc0 <__sflush_r>:
    5dc0:	25de                	lhu	a5,12(a1)
    5dc2:	1101                	addi	sp,sp,-32
    5dc4:	cc22                	sw	s0,24(sp)
    5dc6:	ca26                	sw	s1,20(sp)
    5dc8:	ce06                	sw	ra,28(sp)
    5dca:	c84a                	sw	s2,16(sp)
    5dcc:	c64e                	sw	s3,12(sp)
    5dce:	0087f713          	andi	a4,a5,8
    5dd2:	84aa                	mv	s1,a0
    5dd4:	842e                	mv	s0,a1
    5dd6:	ef61                	bnez	a4,5eae <__sflush_r+0xee>
    5dd8:	41d8                	lw	a4,4(a1)
    5dda:	00e04d63          	bgtz	a4,5df4 <__sflush_r+0x34>
    5dde:	41b8                	lw	a4,64(a1)
    5de0:	00e04a63          	bgtz	a4,5df4 <__sflush_r+0x34>
    5de4:	4501                	li	a0,0
    5de6:	40f2                	lw	ra,28(sp)
    5de8:	4462                	lw	s0,24(sp)
    5dea:	44d2                	lw	s1,20(sp)
    5dec:	4942                	lw	s2,16(sp)
    5dee:	49b2                	lw	s3,12(sp)
    5df0:	6105                	addi	sp,sp,32
    5df2:	8082                	ret
    5df4:	5458                	lw	a4,44(s0)
    5df6:	d77d                	beqz	a4,5de4 <__sflush_r+0x24>
    5df8:	0004a903          	lw	s2,0(s1)
    5dfc:	01379693          	slli	a3,a5,0x13
    5e00:	0004a023          	sw	zero,0(s1)
    5e04:	0606dc63          	bgez	a3,5e7c <__sflush_r+0xbc>
    5e08:	4870                	lw	a2,84(s0)
    5e0a:	245e                	lhu	a5,12(s0)
    5e0c:	8b91                	andi	a5,a5,4
    5e0e:	c799                	beqz	a5,5e1c <__sflush_r+0x5c>
    5e10:	405c                	lw	a5,4(s0)
    5e12:	8e1d                	sub	a2,a2,a5
    5e14:	585c                	lw	a5,52(s0)
    5e16:	c399                	beqz	a5,5e1c <__sflush_r+0x5c>
    5e18:	403c                	lw	a5,64(s0)
    5e1a:	8e1d                	sub	a2,a2,a5
    5e1c:	545c                	lw	a5,44(s0)
    5e1e:	500c                	lw	a1,32(s0)
    5e20:	4681                	li	a3,0
    5e22:	8526                	mv	a0,s1
    5e24:	9782                	jalr	a5
    5e26:	57fd                	li	a5,-1
    5e28:	245a                	lhu	a4,12(s0)
    5e2a:	00f51d63          	bne	a0,a5,5e44 <__sflush_r+0x84>
    5e2e:	4094                	lw	a3,0(s1)
    5e30:	47f5                	li	a5,29
    5e32:	06d7e963          	bltu	a5,a3,5ea4 <__sflush_r+0xe4>
    5e36:	204007b7          	lui	a5,0x20400
    5e3a:	0785                	addi	a5,a5,1
    5e3c:	00d7d7b3          	srl	a5,a5,a3
    5e40:	8b85                	andi	a5,a5,1
    5e42:	c3ad                	beqz	a5,5ea4 <__sflush_r+0xe4>
    5e44:	481c                	lw	a5,16(s0)
    5e46:	00042223          	sw	zero,4(s0)
    5e4a:	c01c                	sw	a5,0(s0)
    5e4c:	01371793          	slli	a5,a4,0x13
    5e50:	0007d863          	bgez	a5,5e60 <__sflush_r+0xa0>
    5e54:	57fd                	li	a5,-1
    5e56:	00f51463          	bne	a0,a5,5e5e <__sflush_r+0x9e>
    5e5a:	409c                	lw	a5,0(s1)
    5e5c:	e391                	bnez	a5,5e60 <__sflush_r+0xa0>
    5e5e:	c868                	sw	a0,84(s0)
    5e60:	584c                	lw	a1,52(s0)
    5e62:	0124a023          	sw	s2,0(s1)
    5e66:	ddbd                	beqz	a1,5de4 <__sflush_r+0x24>
    5e68:	04440793          	addi	a5,s0,68
    5e6c:	00f58563          	beq	a1,a5,5e76 <__sflush_r+0xb6>
    5e70:	8526                	mv	a0,s1
    5e72:	ab7ff0ef          	jal	ra,5928 <_free_r>
    5e76:	02042a23          	sw	zero,52(s0)
    5e7a:	b7ad                	j	5de4 <__sflush_r+0x24>
    5e7c:	500c                	lw	a1,32(s0)
    5e7e:	4601                	li	a2,0
    5e80:	4685                	li	a3,1
    5e82:	8526                	mv	a0,s1
    5e84:	9702                	jalr	a4
    5e86:	57fd                	li	a5,-1
    5e88:	862a                	mv	a2,a0
    5e8a:	f8f510e3          	bne	a0,a5,5e0a <__sflush_r+0x4a>
    5e8e:	409c                	lw	a5,0(s1)
    5e90:	dfad                	beqz	a5,5e0a <__sflush_r+0x4a>
    5e92:	4775                	li	a4,29
    5e94:	00e78563          	beq	a5,a4,5e9e <__sflush_r+0xde>
    5e98:	4759                	li	a4,22
    5e9a:	04e79363          	bne	a5,a4,5ee0 <__sflush_r+0x120>
    5e9e:	0124a023          	sw	s2,0(s1)
    5ea2:	b789                	j	5de4 <__sflush_r+0x24>
    5ea4:	04076713          	ori	a4,a4,64
    5ea8:	a45a                	sh	a4,12(s0)
    5eaa:	557d                	li	a0,-1
    5eac:	bf2d                	j	5de6 <__sflush_r+0x26>
    5eae:	0105a983          	lw	s3,16(a1)
    5eb2:	f20989e3          	beqz	s3,5de4 <__sflush_r+0x24>
    5eb6:	0005a903          	lw	s2,0(a1)
    5eba:	8b8d                	andi	a5,a5,3
    5ebc:	0135a023          	sw	s3,0(a1)
    5ec0:	41390933          	sub	s2,s2,s3
    5ec4:	4701                	li	a4,0
    5ec6:	e391                	bnez	a5,5eca <__sflush_r+0x10a>
    5ec8:	49d8                	lw	a4,20(a1)
    5eca:	c418                	sw	a4,8(s0)
    5ecc:	f1205ce3          	blez	s2,5de4 <__sflush_r+0x24>
    5ed0:	541c                	lw	a5,40(s0)
    5ed2:	500c                	lw	a1,32(s0)
    5ed4:	86ca                	mv	a3,s2
    5ed6:	864e                	mv	a2,s3
    5ed8:	8526                	mv	a0,s1
    5eda:	9782                	jalr	a5
    5edc:	00a04763          	bgtz	a0,5eea <__sflush_r+0x12a>
    5ee0:	245e                	lhu	a5,12(s0)
    5ee2:	0407e793          	ori	a5,a5,64
    5ee6:	a45e                	sh	a5,12(s0)
    5ee8:	b7c9                	j	5eaa <__sflush_r+0xea>
    5eea:	99aa                	add	s3,s3,a0
    5eec:	40a90933          	sub	s2,s2,a0
    5ef0:	bff1                	j	5ecc <__sflush_r+0x10c>

00005ef2 <_fflush_r>:
    5ef2:	499c                	lw	a5,16(a1)
    5ef4:	c3a5                	beqz	a5,5f54 <_fflush_r+0x62>
    5ef6:	1101                	addi	sp,sp,-32
    5ef8:	cc22                	sw	s0,24(sp)
    5efa:	ce06                	sw	ra,28(sp)
    5efc:	842a                	mv	s0,a0
    5efe:	c511                	beqz	a0,5f0a <_fflush_r+0x18>
    5f00:	4d1c                	lw	a5,24(a0)
    5f02:	e781                	bnez	a5,5f0a <_fflush_r+0x18>
    5f04:	c62e                	sw	a1,12(sp)
    5f06:	2229                	jal	6010 <__sinit>
    5f08:	45b2                	lw	a1,12(sp)
    5f0a:	00010797          	auipc	a5,0x10
    5f0e:	9aa78793          	addi	a5,a5,-1622 # 158b4 <__sf_fake_stdin>
    5f12:	00f59c63          	bne	a1,a5,5f2a <_fflush_r+0x38>
    5f16:	404c                	lw	a1,4(s0)
    5f18:	00c59783          	lh	a5,12(a1)
    5f1c:	c79d                	beqz	a5,5f4a <_fflush_r+0x58>
    5f1e:	8522                	mv	a0,s0
    5f20:	4462                	lw	s0,24(sp)
    5f22:	40f2                	lw	ra,28(sp)
    5f24:	6105                	addi	sp,sp,32
    5f26:	e9bff06f          	j	5dc0 <__sflush_r>
    5f2a:	00010797          	auipc	a5,0x10
    5f2e:	9aa78793          	addi	a5,a5,-1622 # 158d4 <__sf_fake_stdout>
    5f32:	00f59463          	bne	a1,a5,5f3a <_fflush_r+0x48>
    5f36:	440c                	lw	a1,8(s0)
    5f38:	b7c5                	j	5f18 <_fflush_r+0x26>
    5f3a:	00010797          	auipc	a5,0x10
    5f3e:	95a78793          	addi	a5,a5,-1702 # 15894 <__sf_fake_stderr>
    5f42:	fcf59be3          	bne	a1,a5,5f18 <_fflush_r+0x26>
    5f46:	444c                	lw	a1,12(s0)
    5f48:	bfc1                	j	5f18 <_fflush_r+0x26>
    5f4a:	40f2                	lw	ra,28(sp)
    5f4c:	4462                	lw	s0,24(sp)
    5f4e:	4501                	li	a0,0
    5f50:	6105                	addi	sp,sp,32
    5f52:	8082                	ret
    5f54:	4501                	li	a0,0
    5f56:	8082                	ret

00005f58 <std>:
    5f58:	1141                	addi	sp,sp,-16
    5f5a:	c422                	sw	s0,8(sp)
    5f5c:	c606                	sw	ra,12(sp)
    5f5e:	842a                	mv	s0,a0
    5f60:	a54e                	sh	a1,12(a0)
    5f62:	a572                	sh	a2,14(a0)
    5f64:	00052023          	sw	zero,0(a0)
    5f68:	00052223          	sw	zero,4(a0)
    5f6c:	00052423          	sw	zero,8(a0)
    5f70:	06052223          	sw	zero,100(a0)
    5f74:	00052823          	sw	zero,16(a0)
    5f78:	00052a23          	sw	zero,20(a0)
    5f7c:	00052c23          	sw	zero,24(a0)
    5f80:	4621                	li	a2,8
    5f82:	4581                	li	a1,0
    5f84:	05c50513          	addi	a0,a0,92
    5f88:	a98fa0ef          	jal	ra,220 <memset>
    5f8c:	00001797          	auipc	a5,0x1
    5f90:	98a78793          	addi	a5,a5,-1654 # 6916 <__sread>
    5f94:	d05c                	sw	a5,36(s0)
    5f96:	00001797          	auipc	a5,0x1
    5f9a:	9ac78793          	addi	a5,a5,-1620 # 6942 <__swrite>
    5f9e:	d41c                	sw	a5,40(s0)
    5fa0:	00001797          	auipc	a5,0x1
    5fa4:	9ea78793          	addi	a5,a5,-1558 # 698a <__sseek>
    5fa8:	d45c                	sw	a5,44(s0)
    5faa:	00001797          	auipc	a5,0x1
    5fae:	a1078793          	addi	a5,a5,-1520 # 69ba <__sclose>
    5fb2:	d000                	sw	s0,32(s0)
    5fb4:	d81c                	sw	a5,48(s0)
    5fb6:	40b2                	lw	ra,12(sp)
    5fb8:	4422                	lw	s0,8(sp)
    5fba:	0141                	addi	sp,sp,16
    5fbc:	8082                	ret

00005fbe <_cleanup_r>:
    5fbe:	00000597          	auipc	a1,0x0
    5fc2:	f3458593          	addi	a1,a1,-204 # 5ef2 <_fflush_r>
    5fc6:	aa99                	j	611c <_fwalk_reent>

00005fc8 <__sfmoreglue>:
    5fc8:	1141                	addi	sp,sp,-16
    5fca:	c226                	sw	s1,4(sp)
    5fcc:	06800613          	li	a2,104
    5fd0:	fff58493          	addi	s1,a1,-1
    5fd4:	02c484b3          	mul	s1,s1,a2
    5fd8:	c04a                	sw	s2,0(sp)
    5fda:	892e                	mv	s2,a1
    5fdc:	c422                	sw	s0,8(sp)
    5fde:	c606                	sw	ra,12(sp)
    5fe0:	07448593          	addi	a1,s1,116
    5fe4:	9edff0ef          	jal	ra,59d0 <_malloc_r>
    5fe8:	842a                	mv	s0,a0
    5fea:	cd01                	beqz	a0,6002 <__sfmoreglue+0x3a>
    5fec:	00052023          	sw	zero,0(a0)
    5ff0:	01252223          	sw	s2,4(a0)
    5ff4:	0531                	addi	a0,a0,12
    5ff6:	c408                	sw	a0,8(s0)
    5ff8:	06848613          	addi	a2,s1,104
    5ffc:	4581                	li	a1,0
    5ffe:	a22fa0ef          	jal	ra,220 <memset>
    6002:	8522                	mv	a0,s0
    6004:	40b2                	lw	ra,12(sp)
    6006:	4422                	lw	s0,8(sp)
    6008:	4492                	lw	s1,4(sp)
    600a:	4902                	lw	s2,0(sp)
    600c:	0141                	addi	sp,sp,16
    600e:	8082                	ret

00006010 <__sinit>:
    6010:	4d1c                	lw	a5,24(a0)
    6012:	e7a5                	bnez	a5,607a <__sinit+0x6a>
    6014:	1141                	addi	sp,sp,-16
    6016:	c606                	sw	ra,12(sp)
    6018:	c422                	sw	s0,8(sp)
    601a:	00000797          	auipc	a5,0x0
    601e:	fa478793          	addi	a5,a5,-92 # 5fbe <_cleanup_r>
    6022:	d51c                	sw	a5,40(a0)
    6024:	81018793          	addi	a5,gp,-2032 # 20000108 <_global_impure_ptr>
    6028:	439c                	lw	a5,0(a5)
    602a:	04052423          	sw	zero,72(a0)
    602e:	04052623          	sw	zero,76(a0)
    6032:	04052823          	sw	zero,80(a0)
    6036:	00f51463          	bne	a0,a5,603e <__sinit+0x2e>
    603a:	4785                	li	a5,1
    603c:	cd1c                	sw	a5,24(a0)
    603e:	842a                	mv	s0,a0
    6040:	2835                	jal	607c <__sfp>
    6042:	c048                	sw	a0,4(s0)
    6044:	8522                	mv	a0,s0
    6046:	281d                	jal	607c <__sfp>
    6048:	c408                	sw	a0,8(s0)
    604a:	8522                	mv	a0,s0
    604c:	2805                	jal	607c <__sfp>
    604e:	c448                	sw	a0,12(s0)
    6050:	4048                	lw	a0,4(s0)
    6052:	4601                	li	a2,0
    6054:	4591                	li	a1,4
    6056:	f03ff0ef          	jal	ra,5f58 <std>
    605a:	4408                	lw	a0,8(s0)
    605c:	4605                	li	a2,1
    605e:	45a5                	li	a1,9
    6060:	ef9ff0ef          	jal	ra,5f58 <std>
    6064:	4448                	lw	a0,12(s0)
    6066:	4609                	li	a2,2
    6068:	45c9                	li	a1,18
    606a:	eefff0ef          	jal	ra,5f58 <std>
    606e:	4785                	li	a5,1
    6070:	cc1c                	sw	a5,24(s0)
    6072:	40b2                	lw	ra,12(sp)
    6074:	4422                	lw	s0,8(sp)
    6076:	0141                	addi	sp,sp,16
    6078:	8082                	ret
    607a:	8082                	ret

0000607c <__sfp>:
    607c:	1141                	addi	sp,sp,-16
    607e:	81018793          	addi	a5,gp,-2032 # 20000108 <_global_impure_ptr>
    6082:	c226                	sw	s1,4(sp)
    6084:	4384                	lw	s1,0(a5)
    6086:	c04a                	sw	s2,0(sp)
    6088:	c606                	sw	ra,12(sp)
    608a:	4c9c                	lw	a5,24(s1)
    608c:	c422                	sw	s0,8(sp)
    608e:	892a                	mv	s2,a0
    6090:	e781                	bnez	a5,6098 <__sfp+0x1c>
    6092:	8526                	mv	a0,s1
    6094:	f7dff0ef          	jal	ra,6010 <__sinit>
    6098:	04848493          	addi	s1,s1,72
    609c:	4480                	lw	s0,8(s1)
    609e:	40dc                	lw	a5,4(s1)
    60a0:	17fd                	addi	a5,a5,-1
    60a2:	0007d663          	bgez	a5,60ae <__sfp+0x32>
    60a6:	409c                	lw	a5,0(s1)
    60a8:	cfb9                	beqz	a5,6106 <__sfp+0x8a>
    60aa:	4084                	lw	s1,0(s1)
    60ac:	bfc5                	j	609c <__sfp+0x20>
    60ae:	00c41703          	lh	a4,12(s0)
    60b2:	e739                	bnez	a4,6100 <__sfp+0x84>
    60b4:	77c1                	lui	a5,0xffff0
    60b6:	0785                	addi	a5,a5,1
    60b8:	06042223          	sw	zero,100(s0)
    60bc:	00042023          	sw	zero,0(s0)
    60c0:	00042223          	sw	zero,4(s0)
    60c4:	00042423          	sw	zero,8(s0)
    60c8:	c45c                	sw	a5,12(s0)
    60ca:	00042823          	sw	zero,16(s0)
    60ce:	00042a23          	sw	zero,20(s0)
    60d2:	00042c23          	sw	zero,24(s0)
    60d6:	4621                	li	a2,8
    60d8:	4581                	li	a1,0
    60da:	05c40513          	addi	a0,s0,92
    60de:	942fa0ef          	jal	ra,220 <memset>
    60e2:	02042a23          	sw	zero,52(s0)
    60e6:	02042c23          	sw	zero,56(s0)
    60ea:	04042423          	sw	zero,72(s0)
    60ee:	04042623          	sw	zero,76(s0)
    60f2:	8522                	mv	a0,s0
    60f4:	40b2                	lw	ra,12(sp)
    60f6:	4422                	lw	s0,8(sp)
    60f8:	4492                	lw	s1,4(sp)
    60fa:	4902                	lw	s2,0(sp)
    60fc:	0141                	addi	sp,sp,16
    60fe:	8082                	ret
    6100:	06840413          	addi	s0,s0,104
    6104:	bf71                	j	60a0 <__sfp+0x24>
    6106:	4591                	li	a1,4
    6108:	854a                	mv	a0,s2
    610a:	ebfff0ef          	jal	ra,5fc8 <__sfmoreglue>
    610e:	c088                	sw	a0,0(s1)
    6110:	fd49                	bnez	a0,60aa <__sfp+0x2e>
    6112:	47b1                	li	a5,12
    6114:	00f92023          	sw	a5,0(s2)
    6118:	4401                	li	s0,0
    611a:	bfe1                	j	60f2 <__sfp+0x76>

0000611c <_fwalk_reent>:
    611c:	7179                	addi	sp,sp,-48
    611e:	d422                	sw	s0,40(sp)
    6120:	d04a                	sw	s2,32(sp)
    6122:	cc52                	sw	s4,24(sp)
    6124:	ca56                	sw	s5,20(sp)
    6126:	c85a                	sw	s6,16(sp)
    6128:	c65e                	sw	s7,12(sp)
    612a:	d606                	sw	ra,44(sp)
    612c:	d226                	sw	s1,36(sp)
    612e:	ce4e                	sw	s3,28(sp)
    6130:	8a2a                	mv	s4,a0
    6132:	8aae                	mv	s5,a1
    6134:	04850413          	addi	s0,a0,72
    6138:	4901                	li	s2,0
    613a:	4b05                	li	s6,1
    613c:	5bfd                	li	s7,-1
    613e:	ec09                	bnez	s0,6158 <_fwalk_reent+0x3c>
    6140:	50b2                	lw	ra,44(sp)
    6142:	5422                	lw	s0,40(sp)
    6144:	854a                	mv	a0,s2
    6146:	5492                	lw	s1,36(sp)
    6148:	5902                	lw	s2,32(sp)
    614a:	49f2                	lw	s3,28(sp)
    614c:	4a62                	lw	s4,24(sp)
    614e:	4ad2                	lw	s5,20(sp)
    6150:	4b42                	lw	s6,16(sp)
    6152:	4bb2                	lw	s7,12(sp)
    6154:	6145                	addi	sp,sp,48
    6156:	8082                	ret
    6158:	4404                	lw	s1,8(s0)
    615a:	00442983          	lw	s3,4(s0)
    615e:	19fd                	addi	s3,s3,-1
    6160:	0009d463          	bgez	s3,6168 <_fwalk_reent+0x4c>
    6164:	4000                	lw	s0,0(s0)
    6166:	bfe1                	j	613e <_fwalk_reent+0x22>
    6168:	24de                	lhu	a5,12(s1)
    616a:	00fb7b63          	bgeu	s6,a5,6180 <_fwalk_reent+0x64>
    616e:	00e49783          	lh	a5,14(s1)
    6172:	01778763          	beq	a5,s7,6180 <_fwalk_reent+0x64>
    6176:	85a6                	mv	a1,s1
    6178:	8552                	mv	a0,s4
    617a:	9a82                	jalr	s5
    617c:	00a96933          	or	s2,s2,a0
    6180:	06848493          	addi	s1,s1,104
    6184:	bfe9                	j	615e <_fwalk_reent+0x42>

00006186 <__swhatbuf_r>:
    6186:	7119                	addi	sp,sp,-128
    6188:	daa6                	sw	s1,116(sp)
    618a:	84ae                	mv	s1,a1
    618c:	00e59583          	lh	a1,14(a1)
    6190:	dca2                	sw	s0,120(sp)
    6192:	de86                	sw	ra,124(sp)
    6194:	8432                	mv	s0,a2
    6196:	0005db63          	bgez	a1,61ac <__swhatbuf_r+0x26>
    619a:	24de                	lhu	a5,12(s1)
    619c:	0006a023          	sw	zero,0(a3)
    61a0:	0807f793          	andi	a5,a5,128
    61a4:	e785                	bnez	a5,61cc <__swhatbuf_r+0x46>
    61a6:	40000793          	li	a5,1024
    61aa:	a01d                	j	61d0 <__swhatbuf_r+0x4a>
    61ac:	0830                	addi	a2,sp,24
    61ae:	c636                	sw	a3,12(sp)
    61b0:	067000ef          	jal	ra,6a16 <_fstat_r>
    61b4:	46b2                	lw	a3,12(sp)
    61b6:	fe0542e3          	bltz	a0,619a <__swhatbuf_r+0x14>
    61ba:	4772                	lw	a4,28(sp)
    61bc:	67bd                	lui	a5,0xf
    61be:	8ff9                	and	a5,a5,a4
    61c0:	7779                	lui	a4,0xffffe
    61c2:	97ba                	add	a5,a5,a4
    61c4:	0017b793          	seqz	a5,a5
    61c8:	c29c                	sw	a5,0(a3)
    61ca:	bff1                	j	61a6 <__swhatbuf_r+0x20>
    61cc:	04000793          	li	a5,64
    61d0:	c01c                	sw	a5,0(s0)
    61d2:	50f6                	lw	ra,124(sp)
    61d4:	5466                	lw	s0,120(sp)
    61d6:	54d6                	lw	s1,116(sp)
    61d8:	4501                	li	a0,0
    61da:	6109                	addi	sp,sp,128
    61dc:	8082                	ret

000061de <__smakebuf_r>:
    61de:	25de                	lhu	a5,12(a1)
    61e0:	1101                	addi	sp,sp,-32
    61e2:	cc22                	sw	s0,24(sp)
    61e4:	ce06                	sw	ra,28(sp)
    61e6:	ca26                	sw	s1,20(sp)
    61e8:	c84a                	sw	s2,16(sp)
    61ea:	8b89                	andi	a5,a5,2
    61ec:	842e                	mv	s0,a1
    61ee:	cf89                	beqz	a5,6208 <__smakebuf_r+0x2a>
    61f0:	04740793          	addi	a5,s0,71
    61f4:	c01c                	sw	a5,0(s0)
    61f6:	c81c                	sw	a5,16(s0)
    61f8:	4785                	li	a5,1
    61fa:	c85c                	sw	a5,20(s0)
    61fc:	40f2                	lw	ra,28(sp)
    61fe:	4462                	lw	s0,24(sp)
    6200:	44d2                	lw	s1,20(sp)
    6202:	4942                	lw	s2,16(sp)
    6204:	6105                	addi	sp,sp,32
    6206:	8082                	ret
    6208:	0074                	addi	a3,sp,12
    620a:	0030                	addi	a2,sp,8
    620c:	84aa                	mv	s1,a0
    620e:	f79ff0ef          	jal	ra,6186 <__swhatbuf_r>
    6212:	45a2                	lw	a1,8(sp)
    6214:	892a                	mv	s2,a0
    6216:	8526                	mv	a0,s1
    6218:	fb8ff0ef          	jal	ra,59d0 <_malloc_r>
    621c:	e919                	bnez	a0,6232 <__smakebuf_r+0x54>
    621e:	00c41783          	lh	a5,12(s0)
    6222:	2007f713          	andi	a4,a5,512
    6226:	fb79                	bnez	a4,61fc <__smakebuf_r+0x1e>
    6228:	9bf1                	andi	a5,a5,-4
    622a:	0027e793          	ori	a5,a5,2
    622e:	a45e                	sh	a5,12(s0)
    6230:	b7c1                	j	61f0 <__smakebuf_r+0x12>
    6232:	00000797          	auipc	a5,0x0
    6236:	d8c78793          	addi	a5,a5,-628 # 5fbe <_cleanup_r>
    623a:	d49c                	sw	a5,40(s1)
    623c:	245e                	lhu	a5,12(s0)
    623e:	c008                	sw	a0,0(s0)
    6240:	c808                	sw	a0,16(s0)
    6242:	0807e793          	ori	a5,a5,128
    6246:	a45e                	sh	a5,12(s0)
    6248:	47a2                	lw	a5,8(sp)
    624a:	c85c                	sw	a5,20(s0)
    624c:	47b2                	lw	a5,12(sp)
    624e:	cf81                	beqz	a5,6266 <__smakebuf_r+0x88>
    6250:	00e41583          	lh	a1,14(s0)
    6254:	8526                	mv	a0,s1
    6256:	7ea000ef          	jal	ra,6a40 <_isatty_r>
    625a:	c511                	beqz	a0,6266 <__smakebuf_r+0x88>
    625c:	245e                	lhu	a5,12(s0)
    625e:	9bf1                	andi	a5,a5,-4
    6260:	0017e793          	ori	a5,a5,1
    6264:	a45e                	sh	a5,12(s0)
    6266:	245e                	lhu	a5,12(s0)
    6268:	00f96933          	or	s2,s2,a5
    626c:	01241623          	sh	s2,12(s0)
    6270:	b771                	j	61fc <__smakebuf_r+0x1e>

00006272 <__malloc_lock>:
    6272:	8082                	ret

00006274 <__malloc_unlock>:
    6274:	8082                	ret

00006276 <__sfputc_r>:
    6276:	461c                	lw	a5,8(a2)
    6278:	17fd                	addi	a5,a5,-1
    627a:	c61c                	sw	a5,8(a2)
    627c:	0007da63          	bgez	a5,6290 <__sfputc_r+0x1a>
    6280:	4e18                	lw	a4,24(a2)
    6282:	00e7c563          	blt	a5,a4,628c <__sfputc_r+0x16>
    6286:	47a9                	li	a5,10
    6288:	00f59463          	bne	a1,a5,6290 <__sfputc_r+0x1a>
    628c:	97bff06f          	j	5c06 <__swbuf_r>
    6290:	421c                	lw	a5,0(a2)
    6292:	852e                	mv	a0,a1
    6294:	00178713          	addi	a4,a5,1
    6298:	c218                	sw	a4,0(a2)
    629a:	a38c                	sb	a1,0(a5)
    629c:	8082                	ret

0000629e <__sfputs_r>:
    629e:	1101                	addi	sp,sp,-32
    62a0:	cc22                	sw	s0,24(sp)
    62a2:	ca26                	sw	s1,20(sp)
    62a4:	c84a                	sw	s2,16(sp)
    62a6:	c64e                	sw	s3,12(sp)
    62a8:	c452                	sw	s4,8(sp)
    62aa:	ce06                	sw	ra,28(sp)
    62ac:	892a                	mv	s2,a0
    62ae:	89ae                	mv	s3,a1
    62b0:	8432                	mv	s0,a2
    62b2:	00d604b3          	add	s1,a2,a3
    62b6:	5a7d                	li	s4,-1
    62b8:	00941463          	bne	s0,s1,62c0 <__sfputs_r+0x22>
    62bc:	4501                	li	a0,0
    62be:	a809                	j	62d0 <__sfputs_r+0x32>
    62c0:	200c                	lbu	a1,0(s0)
    62c2:	864e                	mv	a2,s3
    62c4:	854a                	mv	a0,s2
    62c6:	fb1ff0ef          	jal	ra,6276 <__sfputc_r>
    62ca:	0405                	addi	s0,s0,1
    62cc:	ff4516e3          	bne	a0,s4,62b8 <__sfputs_r+0x1a>
    62d0:	40f2                	lw	ra,28(sp)
    62d2:	4462                	lw	s0,24(sp)
    62d4:	44d2                	lw	s1,20(sp)
    62d6:	4942                	lw	s2,16(sp)
    62d8:	49b2                	lw	s3,12(sp)
    62da:	4a22                	lw	s4,8(sp)
    62dc:	6105                	addi	sp,sp,32
    62de:	8082                	ret

000062e0 <_vfiprintf_r>:
    62e0:	7135                	addi	sp,sp,-160
    62e2:	cd22                	sw	s0,152(sp)
    62e4:	cb26                	sw	s1,148(sp)
    62e6:	c94a                	sw	s2,144(sp)
    62e8:	c74e                	sw	s3,140(sp)
    62ea:	cf06                	sw	ra,156(sp)
    62ec:	c552                	sw	s4,136(sp)
    62ee:	c356                	sw	s5,132(sp)
    62f0:	c15a                	sw	s6,128(sp)
    62f2:	dede                	sw	s7,124(sp)
    62f4:	dce2                	sw	s8,120(sp)
    62f6:	dae6                	sw	s9,116(sp)
    62f8:	89aa                	mv	s3,a0
    62fa:	84ae                	mv	s1,a1
    62fc:	8932                	mv	s2,a2
    62fe:	8436                	mv	s0,a3
    6300:	c509                	beqz	a0,630a <_vfiprintf_r+0x2a>
    6302:	4d1c                	lw	a5,24(a0)
    6304:	e399                	bnez	a5,630a <_vfiprintf_r+0x2a>
    6306:	d0bff0ef          	jal	ra,6010 <__sinit>
    630a:	0000f797          	auipc	a5,0xf
    630e:	5aa78793          	addi	a5,a5,1450 # 158b4 <__sf_fake_stdin>
    6312:	0cf49863          	bne	s1,a5,63e2 <_vfiprintf_r+0x102>
    6316:	0049a483          	lw	s1,4(s3)
    631a:	24de                	lhu	a5,12(s1)
    631c:	8ba1                	andi	a5,a5,8
    631e:	c7e5                	beqz	a5,6406 <_vfiprintf_r+0x126>
    6320:	489c                	lw	a5,16(s1)
    6322:	c3f5                	beqz	a5,6406 <_vfiprintf_r+0x126>
    6324:	02000793          	li	a5,32
    6328:	02f104a3          	sb	a5,41(sp)
    632c:	03000793          	li	a5,48
    6330:	d202                	sw	zero,36(sp)
    6332:	02f10523          	sb	a5,42(sp)
    6336:	c622                	sw	s0,12(sp)
    6338:	02500b93          	li	s7,37
    633c:	0000fa97          	auipc	s5,0xf
    6340:	5b8a8a93          	addi	s5,s5,1464 # 158f4 <__sf_fake_stdout+0x20>
    6344:	4c05                	li	s8,1
    6346:	4b29                	li	s6,10
    6348:	844a                	mv	s0,s2
    634a:	201c                	lbu	a5,0(s0)
    634c:	c399                	beqz	a5,6352 <_vfiprintf_r+0x72>
    634e:	0d779f63          	bne	a5,s7,642c <_vfiprintf_r+0x14c>
    6352:	41240cb3          	sub	s9,s0,s2
    6356:	000c8e63          	beqz	s9,6372 <_vfiprintf_r+0x92>
    635a:	86e6                	mv	a3,s9
    635c:	864a                	mv	a2,s2
    635e:	85a6                	mv	a1,s1
    6360:	854e                	mv	a0,s3
    6362:	f3dff0ef          	jal	ra,629e <__sfputs_r>
    6366:	57fd                	li	a5,-1
    6368:	1cf50f63          	beq	a0,a5,6546 <_vfiprintf_r+0x266>
    636c:	5692                	lw	a3,36(sp)
    636e:	96e6                	add	a3,a3,s9
    6370:	d236                	sw	a3,36(sp)
    6372:	201c                	lbu	a5,0(s0)
    6374:	1c078963          	beqz	a5,6546 <_vfiprintf_r+0x266>
    6378:	57fd                	li	a5,-1
    637a:	00140913          	addi	s2,s0,1
    637e:	c802                	sw	zero,16(sp)
    6380:	ce02                	sw	zero,28(sp)
    6382:	ca3e                	sw	a5,20(sp)
    6384:	cc02                	sw	zero,24(sp)
    6386:	040109a3          	sb	zero,83(sp)
    638a:	d482                	sw	zero,104(sp)
    638c:	00094583          	lbu	a1,0(s2)
    6390:	4615                	li	a2,5
    6392:	8556                	mv	a0,s5
    6394:	2701                	jal	6a94 <memchr>
    6396:	00190413          	addi	s0,s2,1
    639a:	47c2                	lw	a5,16(sp)
    639c:	e951                	bnez	a0,6430 <_vfiprintf_r+0x150>
    639e:	0107f713          	andi	a4,a5,16
    63a2:	c709                	beqz	a4,63ac <_vfiprintf_r+0xcc>
    63a4:	02000713          	li	a4,32
    63a8:	04e109a3          	sb	a4,83(sp)
    63ac:	0087f713          	andi	a4,a5,8
    63b0:	c709                	beqz	a4,63ba <_vfiprintf_r+0xda>
    63b2:	02b00713          	li	a4,43
    63b6:	04e109a3          	sb	a4,83(sp)
    63ba:	00094683          	lbu	a3,0(s2)
    63be:	02a00713          	li	a4,42
    63c2:	06e68f63          	beq	a3,a4,6440 <_vfiprintf_r+0x160>
    63c6:	47f2                	lw	a5,28(sp)
    63c8:	844a                	mv	s0,s2
    63ca:	4681                	li	a3,0
    63cc:	4625                	li	a2,9
    63ce:	2018                	lbu	a4,0(s0)
    63d0:	00140593          	addi	a1,s0,1
    63d4:	fd070713          	addi	a4,a4,-48 # ffffdfd0 <_eusrstack+0xdfff5fd0>
    63d8:	0ae67763          	bgeu	a2,a4,6486 <_vfiprintf_r+0x1a6>
    63dc:	cab5                	beqz	a3,6450 <_vfiprintf_r+0x170>
    63de:	ce3e                	sw	a5,28(sp)
    63e0:	a885                	j	6450 <_vfiprintf_r+0x170>
    63e2:	0000f797          	auipc	a5,0xf
    63e6:	4f278793          	addi	a5,a5,1266 # 158d4 <__sf_fake_stdout>
    63ea:	00f49563          	bne	s1,a5,63f4 <_vfiprintf_r+0x114>
    63ee:	0089a483          	lw	s1,8(s3)
    63f2:	b725                	j	631a <_vfiprintf_r+0x3a>
    63f4:	0000f797          	auipc	a5,0xf
    63f8:	4a078793          	addi	a5,a5,1184 # 15894 <__sf_fake_stderr>
    63fc:	f0f49fe3          	bne	s1,a5,631a <_vfiprintf_r+0x3a>
    6400:	00c9a483          	lw	s1,12(s3)
    6404:	bf19                	j	631a <_vfiprintf_r+0x3a>
    6406:	85a6                	mv	a1,s1
    6408:	854e                	mv	a0,s3
    640a:	8b9ff0ef          	jal	ra,5cc2 <__swsetup_r>
    640e:	d919                	beqz	a0,6324 <_vfiprintf_r+0x44>
    6410:	557d                	li	a0,-1
    6412:	40fa                	lw	ra,156(sp)
    6414:	446a                	lw	s0,152(sp)
    6416:	44da                	lw	s1,148(sp)
    6418:	494a                	lw	s2,144(sp)
    641a:	49ba                	lw	s3,140(sp)
    641c:	4a2a                	lw	s4,136(sp)
    641e:	4a9a                	lw	s5,132(sp)
    6420:	4b0a                	lw	s6,128(sp)
    6422:	5bf6                	lw	s7,124(sp)
    6424:	5c66                	lw	s8,120(sp)
    6426:	5cd6                	lw	s9,116(sp)
    6428:	610d                	addi	sp,sp,160
    642a:	8082                	ret
    642c:	0405                	addi	s0,s0,1
    642e:	bf31                	j	634a <_vfiprintf_r+0x6a>
    6430:	41550533          	sub	a0,a0,s5
    6434:	00ac1533          	sll	a0,s8,a0
    6438:	8fc9                	or	a5,a5,a0
    643a:	c83e                	sw	a5,16(sp)
    643c:	8922                	mv	s2,s0
    643e:	b7b9                	j	638c <_vfiprintf_r+0xac>
    6440:	4732                	lw	a4,12(sp)
    6442:	00470693          	addi	a3,a4,4
    6446:	4318                	lw	a4,0(a4)
    6448:	c636                	sw	a3,12(sp)
    644a:	02074763          	bltz	a4,6478 <_vfiprintf_r+0x198>
    644e:	ce3a                	sw	a4,28(sp)
    6450:	2018                	lbu	a4,0(s0)
    6452:	02e00793          	li	a5,46
    6456:	04f71d63          	bne	a4,a5,64b0 <_vfiprintf_r+0x1d0>
    645a:	3018                	lbu	a4,1(s0)
    645c:	02a00793          	li	a5,42
    6460:	02f71b63          	bne	a4,a5,6496 <_vfiprintf_r+0x1b6>
    6464:	47b2                	lw	a5,12(sp)
    6466:	0409                	addi	s0,s0,2
    6468:	00478713          	addi	a4,a5,4
    646c:	439c                	lw	a5,0(a5)
    646e:	c63a                	sw	a4,12(sp)
    6470:	0207c163          	bltz	a5,6492 <_vfiprintf_r+0x1b2>
    6474:	ca3e                	sw	a5,20(sp)
    6476:	a82d                	j	64b0 <_vfiprintf_r+0x1d0>
    6478:	40e00733          	neg	a4,a4
    647c:	0027e793          	ori	a5,a5,2
    6480:	ce3a                	sw	a4,28(sp)
    6482:	c83e                	sw	a5,16(sp)
    6484:	b7f1                	j	6450 <_vfiprintf_r+0x170>
    6486:	036787b3          	mul	a5,a5,s6
    648a:	4685                	li	a3,1
    648c:	842e                	mv	s0,a1
    648e:	97ba                	add	a5,a5,a4
    6490:	bf3d                	j	63ce <_vfiprintf_r+0xee>
    6492:	57fd                	li	a5,-1
    6494:	b7c5                	j	6474 <_vfiprintf_r+0x194>
    6496:	0405                	addi	s0,s0,1
    6498:	ca02                	sw	zero,20(sp)
    649a:	4681                	li	a3,0
    649c:	4781                	li	a5,0
    649e:	4625                	li	a2,9
    64a0:	2018                	lbu	a4,0(s0)
    64a2:	00140593          	addi	a1,s0,1
    64a6:	fd070713          	addi	a4,a4,-48
    64aa:	06e67463          	bgeu	a2,a4,6512 <_vfiprintf_r+0x232>
    64ae:	f2f9                	bnez	a3,6474 <_vfiprintf_r+0x194>
    64b0:	200c                	lbu	a1,0(s0)
    64b2:	460d                	li	a2,3
    64b4:	0000f517          	auipc	a0,0xf
    64b8:	44850513          	addi	a0,a0,1096 # 158fc <__sf_fake_stdout+0x28>
    64bc:	2be1                	jal	6a94 <memchr>
    64be:	cd11                	beqz	a0,64da <_vfiprintf_r+0x1fa>
    64c0:	0000f797          	auipc	a5,0xf
    64c4:	43c78793          	addi	a5,a5,1084 # 158fc <__sf_fake_stdout+0x28>
    64c8:	8d1d                	sub	a0,a0,a5
    64ca:	04000793          	li	a5,64
    64ce:	00a797b3          	sll	a5,a5,a0
    64d2:	4542                	lw	a0,16(sp)
    64d4:	0405                	addi	s0,s0,1
    64d6:	8d5d                	or	a0,a0,a5
    64d8:	c82a                	sw	a0,16(sp)
    64da:	200c                	lbu	a1,0(s0)
    64dc:	4619                	li	a2,6
    64de:	0000f517          	auipc	a0,0xf
    64e2:	42250513          	addi	a0,a0,1058 # 15900 <__sf_fake_stdout+0x2c>
    64e6:	00140913          	addi	s2,s0,1
    64ea:	02b10423          	sb	a1,40(sp)
    64ee:	235d                	jal	6a94 <memchr>
    64f0:	c135                	beqz	a0,6554 <_vfiprintf_r+0x274>
    64f2:	ffffa797          	auipc	a5,0xffffa
    64f6:	b0e78793          	addi	a5,a5,-1266 # 0 <_sinit>
    64fa:	e795                	bnez	a5,6526 <_vfiprintf_r+0x246>
    64fc:	4742                	lw	a4,16(sp)
    64fe:	47b2                	lw	a5,12(sp)
    6500:	10077713          	andi	a4,a4,256
    6504:	cf09                	beqz	a4,651e <_vfiprintf_r+0x23e>
    6506:	0791                	addi	a5,a5,4
    6508:	c63e                	sw	a5,12(sp)
    650a:	5792                	lw	a5,36(sp)
    650c:	97d2                	add	a5,a5,s4
    650e:	d23e                	sw	a5,36(sp)
    6510:	bd25                	j	6348 <_vfiprintf_r+0x68>
    6512:	036787b3          	mul	a5,a5,s6
    6516:	4685                	li	a3,1
    6518:	842e                	mv	s0,a1
    651a:	97ba                	add	a5,a5,a4
    651c:	b751                	j	64a0 <_vfiprintf_r+0x1c0>
    651e:	079d                	addi	a5,a5,7
    6520:	9be1                	andi	a5,a5,-8
    6522:	07a1                	addi	a5,a5,8
    6524:	b7d5                	j	6508 <_vfiprintf_r+0x228>
    6526:	0078                	addi	a4,sp,12
    6528:	00000697          	auipc	a3,0x0
    652c:	d7668693          	addi	a3,a3,-650 # 629e <__sfputs_r>
    6530:	8626                	mv	a2,s1
    6532:	080c                	addi	a1,sp,16
    6534:	854e                	mv	a0,s3
    6536:	00000097          	auipc	ra,0x0
    653a:	000000e7          	jalr	zero # 0 <_sinit>
    653e:	57fd                	li	a5,-1
    6540:	8a2a                	mv	s4,a0
    6542:	fcf514e3          	bne	a0,a5,650a <_vfiprintf_r+0x22a>
    6546:	24de                	lhu	a5,12(s1)
    6548:	0407f793          	andi	a5,a5,64
    654c:	ec0792e3          	bnez	a5,6410 <_vfiprintf_r+0x130>
    6550:	5512                	lw	a0,36(sp)
    6552:	b5c1                	j	6412 <_vfiprintf_r+0x132>
    6554:	0078                	addi	a4,sp,12
    6556:	00000697          	auipc	a3,0x0
    655a:	d4868693          	addi	a3,a3,-696 # 629e <__sfputs_r>
    655e:	8626                	mv	a2,s1
    6560:	080c                	addi	a1,sp,16
    6562:	854e                	mv	a0,s3
    6564:	2a01                	jal	6674 <_printf_i>
    6566:	bfe1                	j	653e <_vfiprintf_r+0x25e>

00006568 <_printf_common>:
    6568:	7179                	addi	sp,sp,-48
    656a:	ca56                	sw	s5,20(sp)
    656c:	499c                	lw	a5,16(a1)
    656e:	8aba                	mv	s5,a4
    6570:	4598                	lw	a4,8(a1)
    6572:	d422                	sw	s0,40(sp)
    6574:	d226                	sw	s1,36(sp)
    6576:	ce4e                	sw	s3,28(sp)
    6578:	cc52                	sw	s4,24(sp)
    657a:	d606                	sw	ra,44(sp)
    657c:	d04a                	sw	s2,32(sp)
    657e:	c85a                	sw	s6,16(sp)
    6580:	c65e                	sw	s7,12(sp)
    6582:	89aa                	mv	s3,a0
    6584:	842e                	mv	s0,a1
    6586:	84b2                	mv	s1,a2
    6588:	8a36                	mv	s4,a3
    658a:	00e7d363          	bge	a5,a4,6590 <_printf_common+0x28>
    658e:	87ba                	mv	a5,a4
    6590:	c09c                	sw	a5,0(s1)
    6592:	04344703          	lbu	a4,67(s0)
    6596:	c319                	beqz	a4,659c <_printf_common+0x34>
    6598:	0785                	addi	a5,a5,1
    659a:	c09c                	sw	a5,0(s1)
    659c:	401c                	lw	a5,0(s0)
    659e:	0207f793          	andi	a5,a5,32
    65a2:	c781                	beqz	a5,65aa <_printf_common+0x42>
    65a4:	409c                	lw	a5,0(s1)
    65a6:	0789                	addi	a5,a5,2
    65a8:	c09c                	sw	a5,0(s1)
    65aa:	00042903          	lw	s2,0(s0)
    65ae:	00697913          	andi	s2,s2,6
    65b2:	00091a63          	bnez	s2,65c6 <_printf_common+0x5e>
    65b6:	01940b13          	addi	s6,s0,25
    65ba:	5bfd                	li	s7,-1
    65bc:	445c                	lw	a5,12(s0)
    65be:	4098                	lw	a4,0(s1)
    65c0:	8f99                	sub	a5,a5,a4
    65c2:	04f94c63          	blt	s2,a5,661a <_printf_common+0xb2>
    65c6:	401c                	lw	a5,0(s0)
    65c8:	04344683          	lbu	a3,67(s0)
    65cc:	0207f793          	andi	a5,a5,32
    65d0:	00d036b3          	snez	a3,a3
    65d4:	eba5                	bnez	a5,6644 <_printf_common+0xdc>
    65d6:	04340613          	addi	a2,s0,67
    65da:	85d2                	mv	a1,s4
    65dc:	854e                	mv	a0,s3
    65de:	9a82                	jalr	s5
    65e0:	57fd                	li	a5,-1
    65e2:	04f50363          	beq	a0,a5,6628 <_printf_common+0xc0>
    65e6:	401c                	lw	a5,0(s0)
    65e8:	4611                	li	a2,4
    65ea:	4098                	lw	a4,0(s1)
    65ec:	8b99                	andi	a5,a5,6
    65ee:	4454                	lw	a3,12(s0)
    65f0:	4481                	li	s1,0
    65f2:	00c79763          	bne	a5,a2,6600 <_printf_common+0x98>
    65f6:	40e684b3          	sub	s1,a3,a4
    65fa:	0004d363          	bgez	s1,6600 <_printf_common+0x98>
    65fe:	4481                	li	s1,0
    6600:	441c                	lw	a5,8(s0)
    6602:	4818                	lw	a4,16(s0)
    6604:	00f75463          	bge	a4,a5,660c <_printf_common+0xa4>
    6608:	8f99                	sub	a5,a5,a4
    660a:	94be                	add	s1,s1,a5
    660c:	4901                	li	s2,0
    660e:	0469                	addi	s0,s0,26
    6610:	5b7d                	li	s6,-1
    6612:	05249863          	bne	s1,s2,6662 <_printf_common+0xfa>
    6616:	4501                	li	a0,0
    6618:	a809                	j	662a <_printf_common+0xc2>
    661a:	4685                	li	a3,1
    661c:	865a                	mv	a2,s6
    661e:	85d2                	mv	a1,s4
    6620:	854e                	mv	a0,s3
    6622:	9a82                	jalr	s5
    6624:	01751e63          	bne	a0,s7,6640 <_printf_common+0xd8>
    6628:	557d                	li	a0,-1
    662a:	50b2                	lw	ra,44(sp)
    662c:	5422                	lw	s0,40(sp)
    662e:	5492                	lw	s1,36(sp)
    6630:	5902                	lw	s2,32(sp)
    6632:	49f2                	lw	s3,28(sp)
    6634:	4a62                	lw	s4,24(sp)
    6636:	4ad2                	lw	s5,20(sp)
    6638:	4b42                	lw	s6,16(sp)
    663a:	4bb2                	lw	s7,12(sp)
    663c:	6145                	addi	sp,sp,48
    663e:	8082                	ret
    6640:	0905                	addi	s2,s2,1
    6642:	bfad                	j	65bc <_printf_common+0x54>
    6644:	00d40733          	add	a4,s0,a3
    6648:	03000613          	li	a2,48
    664c:	04c701a3          	sb	a2,67(a4)
    6650:	04544703          	lbu	a4,69(s0)
    6654:	00168793          	addi	a5,a3,1
    6658:	97a2                	add	a5,a5,s0
    665a:	0689                	addi	a3,a3,2
    665c:	04e781a3          	sb	a4,67(a5)
    6660:	bf9d                	j	65d6 <_printf_common+0x6e>
    6662:	4685                	li	a3,1
    6664:	8622                	mv	a2,s0
    6666:	85d2                	mv	a1,s4
    6668:	854e                	mv	a0,s3
    666a:	9a82                	jalr	s5
    666c:	fb650ee3          	beq	a0,s6,6628 <_printf_common+0xc0>
    6670:	0905                	addi	s2,s2,1
    6672:	b745                	j	6612 <_printf_common+0xaa>

00006674 <_printf_i>:
    6674:	7179                	addi	sp,sp,-48
    6676:	d422                	sw	s0,40(sp)
    6678:	d226                	sw	s1,36(sp)
    667a:	d04a                	sw	s2,32(sp)
    667c:	ce4e                	sw	s3,28(sp)
    667e:	d606                	sw	ra,44(sp)
    6680:	cc52                	sw	s4,24(sp)
    6682:	ca56                	sw	s5,20(sp)
    6684:	c85a                	sw	s6,16(sp)
    6686:	89b6                	mv	s3,a3
    6688:	2d94                	lbu	a3,24(a1)
    668a:	06900793          	li	a5,105
    668e:	8932                	mv	s2,a2
    6690:	84aa                	mv	s1,a0
    6692:	842e                	mv	s0,a1
    6694:	04358613          	addi	a2,a1,67
    6698:	02f68d63          	beq	a3,a5,66d2 <_printf_i+0x5e>
    669c:	06d7e263          	bltu	a5,a3,6700 <_printf_i+0x8c>
    66a0:	05800793          	li	a5,88
    66a4:	18f68663          	beq	a3,a5,6830 <_printf_i+0x1bc>
    66a8:	00d7ed63          	bltu	a5,a3,66c2 <_printf_i+0x4e>
    66ac:	20068e63          	beqz	a3,68c8 <_printf_i+0x254>
    66b0:	04300793          	li	a5,67
    66b4:	0af68e63          	beq	a3,a5,6770 <_printf_i+0xfc>
    66b8:	04240a93          	addi	s5,s0,66
    66bc:	04d40123          	sb	a3,66(s0)
    66c0:	a0c9                	j	6782 <_printf_i+0x10e>
    66c2:	06300793          	li	a5,99
    66c6:	0af68563          	beq	a3,a5,6770 <_printf_i+0xfc>
    66ca:	06400793          	li	a5,100
    66ce:	fef695e3          	bne	a3,a5,66b8 <_printf_i+0x44>
    66d2:	401c                	lw	a5,0(s0)
    66d4:	4308                	lw	a0,0(a4)
    66d6:	0807f693          	andi	a3,a5,128
    66da:	00450593          	addi	a1,a0,4
    66de:	c6c5                	beqz	a3,6786 <_printf_i+0x112>
    66e0:	411c                	lw	a5,0(a0)
    66e2:	c30c                	sw	a1,0(a4)
    66e4:	0007d863          	bgez	a5,66f4 <_printf_i+0x80>
    66e8:	02d00713          	li	a4,45
    66ec:	40f007b3          	neg	a5,a5
    66f0:	04e401a3          	sb	a4,67(s0)
    66f4:	0000f697          	auipc	a3,0xf
    66f8:	21468693          	addi	a3,a3,532 # 15908 <__sf_fake_stdout+0x34>
    66fc:	4729                	li	a4,10
    66fe:	a865                	j	67b6 <_printf_i+0x142>
    6700:	07000793          	li	a5,112
    6704:	16f68263          	beq	a3,a5,6868 <_printf_i+0x1f4>
    6708:	02d7e563          	bltu	a5,a3,6732 <_printf_i+0xbe>
    670c:	06e00793          	li	a5,110
    6710:	18f68963          	beq	a3,a5,68a2 <_printf_i+0x22e>
    6714:	06f00793          	li	a5,111
    6718:	faf690e3          	bne	a3,a5,66b8 <_printf_i+0x44>
    671c:	400c                	lw	a1,0(s0)
    671e:	431c                	lw	a5,0(a4)
    6720:	0805f813          	andi	a6,a1,128
    6724:	00478513          	addi	a0,a5,4
    6728:	06080763          	beqz	a6,6796 <_printf_i+0x122>
    672c:	c308                	sw	a0,0(a4)
    672e:	439c                	lw	a5,0(a5)
    6730:	a885                	j	67a0 <_printf_i+0x12c>
    6732:	07500793          	li	a5,117
    6736:	fef683e3          	beq	a3,a5,671c <_printf_i+0xa8>
    673a:	07800793          	li	a5,120
    673e:	12f68963          	beq	a3,a5,6870 <_printf_i+0x1fc>
    6742:	07300793          	li	a5,115
    6746:	f6f699e3          	bne	a3,a5,66b8 <_printf_i+0x44>
    674a:	431c                	lw	a5,0(a4)
    674c:	41d0                	lw	a2,4(a1)
    674e:	4581                	li	a1,0
    6750:	00478693          	addi	a3,a5,4
    6754:	c314                	sw	a3,0(a4)
    6756:	0007aa83          	lw	s5,0(a5)
    675a:	8556                	mv	a0,s5
    675c:	2e25                	jal	6a94 <memchr>
    675e:	c501                	beqz	a0,6766 <_printf_i+0xf2>
    6760:	41550533          	sub	a0,a0,s5
    6764:	c048                	sw	a0,4(s0)
    6766:	405c                	lw	a5,4(s0)
    6768:	c81c                	sw	a5,16(s0)
    676a:	040401a3          	sb	zero,67(s0)
    676e:	a861                	j	6806 <_printf_i+0x192>
    6770:	431c                	lw	a5,0(a4)
    6772:	04240a93          	addi	s5,s0,66
    6776:	00478693          	addi	a3,a5,4
    677a:	439c                	lw	a5,0(a5)
    677c:	c314                	sw	a3,0(a4)
    677e:	04f40123          	sb	a5,66(s0)
    6782:	4785                	li	a5,1
    6784:	b7d5                	j	6768 <_printf_i+0xf4>
    6786:	0407f693          	andi	a3,a5,64
    678a:	411c                	lw	a5,0(a0)
    678c:	c30c                	sw	a1,0(a4)
    678e:	dab9                	beqz	a3,66e4 <_printf_i+0x70>
    6790:	07c2                	slli	a5,a5,0x10
    6792:	87c1                	srai	a5,a5,0x10
    6794:	bf81                	j	66e4 <_printf_i+0x70>
    6796:	0405f593          	andi	a1,a1,64
    679a:	c308                	sw	a0,0(a4)
    679c:	d9c9                	beqz	a1,672e <_printf_i+0xba>
    679e:	239e                	lhu	a5,0(a5)
    67a0:	06f00713          	li	a4,111
    67a4:	0ee68763          	beq	a3,a4,6892 <_printf_i+0x21e>
    67a8:	0000f697          	auipc	a3,0xf
    67ac:	16068693          	addi	a3,a3,352 # 15908 <__sf_fake_stdout+0x34>
    67b0:	4729                	li	a4,10
    67b2:	040401a3          	sb	zero,67(s0)
    67b6:	404c                	lw	a1,4(s0)
    67b8:	c40c                	sw	a1,8(s0)
    67ba:	0005c563          	bltz	a1,67c4 <_printf_i+0x150>
    67be:	4008                	lw	a0,0(s0)
    67c0:	996d                	andi	a0,a0,-5
    67c2:	c008                	sw	a0,0(s0)
    67c4:	e399                	bnez	a5,67ca <_printf_i+0x156>
    67c6:	8ab2                	mv	s5,a2
    67c8:	cd89                	beqz	a1,67e2 <_printf_i+0x16e>
    67ca:	8ab2                	mv	s5,a2
    67cc:	02e7f5b3          	remu	a1,a5,a4
    67d0:	1afd                	addi	s5,s5,-1
    67d2:	95b6                	add	a1,a1,a3
    67d4:	218c                	lbu	a1,0(a1)
    67d6:	00ba8023          	sb	a1,0(s5)
    67da:	02e7d5b3          	divu	a1,a5,a4
    67de:	0ce7f063          	bgeu	a5,a4,689e <_printf_i+0x22a>
    67e2:	47a1                	li	a5,8
    67e4:	00f71e63          	bne	a4,a5,6800 <_printf_i+0x18c>
    67e8:	401c                	lw	a5,0(s0)
    67ea:	8b85                	andi	a5,a5,1
    67ec:	cb91                	beqz	a5,6800 <_printf_i+0x18c>
    67ee:	4058                	lw	a4,4(s0)
    67f0:	481c                	lw	a5,16(s0)
    67f2:	00e7c763          	blt	a5,a4,6800 <_printf_i+0x18c>
    67f6:	03000793          	li	a5,48
    67fa:	fefa8fa3          	sb	a5,-1(s5)
    67fe:	1afd                	addi	s5,s5,-1
    6800:	41560633          	sub	a2,a2,s5
    6804:	c810                	sw	a2,16(s0)
    6806:	874e                	mv	a4,s3
    6808:	86ca                	mv	a3,s2
    680a:	0070                	addi	a2,sp,12
    680c:	85a2                	mv	a1,s0
    680e:	8526                	mv	a0,s1
    6810:	d59ff0ef          	jal	ra,6568 <_printf_common>
    6814:	5a7d                	li	s4,-1
    6816:	0b451d63          	bne	a0,s4,68d0 <_printf_i+0x25c>
    681a:	557d                	li	a0,-1
    681c:	50b2                	lw	ra,44(sp)
    681e:	5422                	lw	s0,40(sp)
    6820:	5492                	lw	s1,36(sp)
    6822:	5902                	lw	s2,32(sp)
    6824:	49f2                	lw	s3,28(sp)
    6826:	4a62                	lw	s4,24(sp)
    6828:	4ad2                	lw	s5,20(sp)
    682a:	4b42                	lw	s6,16(sp)
    682c:	6145                	addi	sp,sp,48
    682e:	8082                	ret
    6830:	04d582a3          	sb	a3,69(a1)
    6834:	0000f697          	auipc	a3,0xf
    6838:	0d468693          	addi	a3,a3,212 # 15908 <__sf_fake_stdout+0x34>
    683c:	400c                	lw	a1,0(s0)
    683e:	4308                	lw	a0,0(a4)
    6840:	0805f813          	andi	a6,a1,128
    6844:	411c                	lw	a5,0(a0)
    6846:	0511                	addi	a0,a0,4
    6848:	02080d63          	beqz	a6,6882 <_printf_i+0x20e>
    684c:	c308                	sw	a0,0(a4)
    684e:	0015f713          	andi	a4,a1,1
    6852:	c701                	beqz	a4,685a <_printf_i+0x1e6>
    6854:	0205e593          	ori	a1,a1,32
    6858:	c00c                	sw	a1,0(s0)
    685a:	4741                	li	a4,16
    685c:	fbb9                	bnez	a5,67b2 <_printf_i+0x13e>
    685e:	400c                	lw	a1,0(s0)
    6860:	fdf5f593          	andi	a1,a1,-33
    6864:	c00c                	sw	a1,0(s0)
    6866:	b7b1                	j	67b2 <_printf_i+0x13e>
    6868:	419c                	lw	a5,0(a1)
    686a:	0207e793          	ori	a5,a5,32
    686e:	c19c                	sw	a5,0(a1)
    6870:	07800793          	li	a5,120
    6874:	04f402a3          	sb	a5,69(s0)
    6878:	0000f697          	auipc	a3,0xf
    687c:	0a468693          	addi	a3,a3,164 # 1591c <__sf_fake_stdout+0x48>
    6880:	bf75                	j	683c <_printf_i+0x1c8>
    6882:	0405f813          	andi	a6,a1,64
    6886:	c308                	sw	a0,0(a4)
    6888:	fc0803e3          	beqz	a6,684e <_printf_i+0x1da>
    688c:	07c2                	slli	a5,a5,0x10
    688e:	83c1                	srli	a5,a5,0x10
    6890:	bf7d                	j	684e <_printf_i+0x1da>
    6892:	0000f697          	auipc	a3,0xf
    6896:	07668693          	addi	a3,a3,118 # 15908 <__sf_fake_stdout+0x34>
    689a:	4721                	li	a4,8
    689c:	bf19                	j	67b2 <_printf_i+0x13e>
    689e:	87ae                	mv	a5,a1
    68a0:	b735                	j	67cc <_printf_i+0x158>
    68a2:	4194                	lw	a3,0(a1)
    68a4:	431c                	lw	a5,0(a4)
    68a6:	49cc                	lw	a1,20(a1)
    68a8:	0806f813          	andi	a6,a3,128
    68ac:	00478513          	addi	a0,a5,4
    68b0:	00080663          	beqz	a6,68bc <_printf_i+0x248>
    68b4:	c308                	sw	a0,0(a4)
    68b6:	439c                	lw	a5,0(a5)
    68b8:	c38c                	sw	a1,0(a5)
    68ba:	a039                	j	68c8 <_printf_i+0x254>
    68bc:	c308                	sw	a0,0(a4)
    68be:	0406f693          	andi	a3,a3,64
    68c2:	439c                	lw	a5,0(a5)
    68c4:	daf5                	beqz	a3,68b8 <_printf_i+0x244>
    68c6:	a38e                	sh	a1,0(a5)
    68c8:	00042823          	sw	zero,16(s0)
    68cc:	8ab2                	mv	s5,a2
    68ce:	bf25                	j	6806 <_printf_i+0x192>
    68d0:	4814                	lw	a3,16(s0)
    68d2:	8656                	mv	a2,s5
    68d4:	85ca                	mv	a1,s2
    68d6:	8526                	mv	a0,s1
    68d8:	9982                	jalr	s3
    68da:	f54500e3          	beq	a0,s4,681a <_printf_i+0x1a6>
    68de:	401c                	lw	a5,0(s0)
    68e0:	8b89                	andi	a5,a5,2
    68e2:	e78d                	bnez	a5,690c <_printf_i+0x298>
    68e4:	47b2                	lw	a5,12(sp)
    68e6:	4448                	lw	a0,12(s0)
    68e8:	f2f55ae3          	bge	a0,a5,681c <_printf_i+0x1a8>
    68ec:	853e                	mv	a0,a5
    68ee:	b73d                	j	681c <_printf_i+0x1a8>
    68f0:	4685                	li	a3,1
    68f2:	8656                	mv	a2,s5
    68f4:	85ca                	mv	a1,s2
    68f6:	8526                	mv	a0,s1
    68f8:	9982                	jalr	s3
    68fa:	f36500e3          	beq	a0,s6,681a <_printf_i+0x1a6>
    68fe:	0a05                	addi	s4,s4,1
    6900:	445c                	lw	a5,12(s0)
    6902:	4732                	lw	a4,12(sp)
    6904:	8f99                	sub	a5,a5,a4
    6906:	fefa45e3          	blt	s4,a5,68f0 <_printf_i+0x27c>
    690a:	bfe9                	j	68e4 <_printf_i+0x270>
    690c:	4a01                	li	s4,0
    690e:	01940a93          	addi	s5,s0,25
    6912:	5b7d                	li	s6,-1
    6914:	b7f5                	j	6900 <_printf_i+0x28c>

00006916 <__sread>:
    6916:	1141                	addi	sp,sp,-16
    6918:	c422                	sw	s0,8(sp)
    691a:	842e                	mv	s0,a1
    691c:	00e59583          	lh	a1,14(a1)
    6920:	c606                	sw	ra,12(sp)
    6922:	2269                	jal	6aac <_read_r>
    6924:	00054963          	bltz	a0,6936 <__sread+0x20>
    6928:	487c                	lw	a5,84(s0)
    692a:	97aa                	add	a5,a5,a0
    692c:	c87c                	sw	a5,84(s0)
    692e:	40b2                	lw	ra,12(sp)
    6930:	4422                	lw	s0,8(sp)
    6932:	0141                	addi	sp,sp,16
    6934:	8082                	ret
    6936:	245e                	lhu	a5,12(s0)
    6938:	777d                	lui	a4,0xfffff
    693a:	177d                	addi	a4,a4,-1
    693c:	8ff9                	and	a5,a5,a4
    693e:	a45e                	sh	a5,12(s0)
    6940:	b7fd                	j	692e <__sread+0x18>

00006942 <__swrite>:
    6942:	25de                	lhu	a5,12(a1)
    6944:	1101                	addi	sp,sp,-32
    6946:	cc22                	sw	s0,24(sp)
    6948:	ca26                	sw	s1,20(sp)
    694a:	c84a                	sw	s2,16(sp)
    694c:	c64e                	sw	s3,12(sp)
    694e:	ce06                	sw	ra,28(sp)
    6950:	1007f793          	andi	a5,a5,256
    6954:	84aa                	mv	s1,a0
    6956:	842e                	mv	s0,a1
    6958:	8932                	mv	s2,a2
    695a:	89b6                	mv	s3,a3
    695c:	c791                	beqz	a5,6968 <__swrite+0x26>
    695e:	00e59583          	lh	a1,14(a1)
    6962:	4689                	li	a3,2
    6964:	4601                	li	a2,0
    6966:	2209                	jal	6a68 <_lseek_r>
    6968:	245e                	lhu	a5,12(s0)
    696a:	777d                	lui	a4,0xfffff
    696c:	177d                	addi	a4,a4,-1
    696e:	8ff9                	and	a5,a5,a4
    6970:	a45e                	sh	a5,12(s0)
    6972:	00e41583          	lh	a1,14(s0)
    6976:	4462                	lw	s0,24(sp)
    6978:	40f2                	lw	ra,28(sp)
    697a:	86ce                	mv	a3,s3
    697c:	864a                	mv	a2,s2
    697e:	49b2                	lw	s3,12(sp)
    6980:	4942                	lw	s2,16(sp)
    6982:	8526                	mv	a0,s1
    6984:	44d2                	lw	s1,20(sp)
    6986:	6105                	addi	sp,sp,32
    6988:	a825                	j	69c0 <_write_r>

0000698a <__sseek>:
    698a:	1141                	addi	sp,sp,-16
    698c:	c422                	sw	s0,8(sp)
    698e:	842e                	mv	s0,a1
    6990:	00e59583          	lh	a1,14(a1)
    6994:	c606                	sw	ra,12(sp)
    6996:	28c9                	jal	6a68 <_lseek_r>
    6998:	57fd                	li	a5,-1
    699a:	245a                	lhu	a4,12(s0)
    699c:	00f51a63          	bne	a0,a5,69b0 <__sseek+0x26>
    69a0:	77fd                	lui	a5,0xfffff
    69a2:	17fd                	addi	a5,a5,-1
    69a4:	8ff9                	and	a5,a5,a4
    69a6:	a45e                	sh	a5,12(s0)
    69a8:	40b2                	lw	ra,12(sp)
    69aa:	4422                	lw	s0,8(sp)
    69ac:	0141                	addi	sp,sp,16
    69ae:	8082                	ret
    69b0:	6785                	lui	a5,0x1
    69b2:	8fd9                	or	a5,a5,a4
    69b4:	a45e                	sh	a5,12(s0)
    69b6:	c868                	sw	a0,84(s0)
    69b8:	bfc5                	j	69a8 <__sseek+0x1e>

000069ba <__sclose>:
    69ba:	00e59583          	lh	a1,14(a1)
    69be:	a805                	j	69ee <_close_r>

000069c0 <_write_r>:
    69c0:	1141                	addi	sp,sp,-16
    69c2:	c422                	sw	s0,8(sp)
    69c4:	842a                	mv	s0,a0
    69c6:	852e                	mv	a0,a1
    69c8:	85b2                	mv	a1,a2
    69ca:	8636                	mv	a2,a3
    69cc:	f601aa23          	sw	zero,-140(gp) # 2000086c <errno>
    69d0:	c606                	sw	ra,12(sp)
    69d2:	a35fe0ef          	jal	ra,5406 <_write>
    69d6:	57fd                	li	a5,-1
    69d8:	00f51763          	bne	a0,a5,69e6 <_write_r+0x26>
    69dc:	f7418793          	addi	a5,gp,-140 # 2000086c <errno>
    69e0:	439c                	lw	a5,0(a5)
    69e2:	c391                	beqz	a5,69e6 <_write_r+0x26>
    69e4:	c01c                	sw	a5,0(s0)
    69e6:	40b2                	lw	ra,12(sp)
    69e8:	4422                	lw	s0,8(sp)
    69ea:	0141                	addi	sp,sp,16
    69ec:	8082                	ret

000069ee <_close_r>:
    69ee:	1141                	addi	sp,sp,-16
    69f0:	c422                	sw	s0,8(sp)
    69f2:	842a                	mv	s0,a0
    69f4:	852e                	mv	a0,a1
    69f6:	f601aa23          	sw	zero,-140(gp) # 2000086c <errno>
    69fa:	c606                	sw	ra,12(sp)
    69fc:	28f1                	jal	6ad8 <_close>
    69fe:	57fd                	li	a5,-1
    6a00:	00f51763          	bne	a0,a5,6a0e <_close_r+0x20>
    6a04:	f7418793          	addi	a5,gp,-140 # 2000086c <errno>
    6a08:	439c                	lw	a5,0(a5)
    6a0a:	c391                	beqz	a5,6a0e <_close_r+0x20>
    6a0c:	c01c                	sw	a5,0(s0)
    6a0e:	40b2                	lw	ra,12(sp)
    6a10:	4422                	lw	s0,8(sp)
    6a12:	0141                	addi	sp,sp,16
    6a14:	8082                	ret

00006a16 <_fstat_r>:
    6a16:	1141                	addi	sp,sp,-16
    6a18:	c422                	sw	s0,8(sp)
    6a1a:	842a                	mv	s0,a0
    6a1c:	852e                	mv	a0,a1
    6a1e:	85b2                	mv	a1,a2
    6a20:	f601aa23          	sw	zero,-140(gp) # 2000086c <errno>
    6a24:	c606                	sw	ra,12(sp)
    6a26:	287d                	jal	6ae4 <_fstat>
    6a28:	57fd                	li	a5,-1
    6a2a:	00f51763          	bne	a0,a5,6a38 <_fstat_r+0x22>
    6a2e:	f7418793          	addi	a5,gp,-140 # 2000086c <errno>
    6a32:	439c                	lw	a5,0(a5)
    6a34:	c391                	beqz	a5,6a38 <_fstat_r+0x22>
    6a36:	c01c                	sw	a5,0(s0)
    6a38:	40b2                	lw	ra,12(sp)
    6a3a:	4422                	lw	s0,8(sp)
    6a3c:	0141                	addi	sp,sp,16
    6a3e:	8082                	ret

00006a40 <_isatty_r>:
    6a40:	1141                	addi	sp,sp,-16
    6a42:	c422                	sw	s0,8(sp)
    6a44:	842a                	mv	s0,a0
    6a46:	852e                	mv	a0,a1
    6a48:	f601aa23          	sw	zero,-140(gp) # 2000086c <errno>
    6a4c:	c606                	sw	ra,12(sp)
    6a4e:	204d                	jal	6af0 <_isatty>
    6a50:	57fd                	li	a5,-1
    6a52:	00f51763          	bne	a0,a5,6a60 <_isatty_r+0x20>
    6a56:	f7418793          	addi	a5,gp,-140 # 2000086c <errno>
    6a5a:	439c                	lw	a5,0(a5)
    6a5c:	c391                	beqz	a5,6a60 <_isatty_r+0x20>
    6a5e:	c01c                	sw	a5,0(s0)
    6a60:	40b2                	lw	ra,12(sp)
    6a62:	4422                	lw	s0,8(sp)
    6a64:	0141                	addi	sp,sp,16
    6a66:	8082                	ret

00006a68 <_lseek_r>:
    6a68:	1141                	addi	sp,sp,-16
    6a6a:	c422                	sw	s0,8(sp)
    6a6c:	842a                	mv	s0,a0
    6a6e:	852e                	mv	a0,a1
    6a70:	85b2                	mv	a1,a2
    6a72:	8636                	mv	a2,a3
    6a74:	f601aa23          	sw	zero,-140(gp) # 2000086c <errno>
    6a78:	c606                	sw	ra,12(sp)
    6a7a:	2049                	jal	6afc <_lseek>
    6a7c:	57fd                	li	a5,-1
    6a7e:	00f51763          	bne	a0,a5,6a8c <_lseek_r+0x24>
    6a82:	f7418793          	addi	a5,gp,-140 # 2000086c <errno>
    6a86:	439c                	lw	a5,0(a5)
    6a88:	c391                	beqz	a5,6a8c <_lseek_r+0x24>
    6a8a:	c01c                	sw	a5,0(s0)
    6a8c:	40b2                	lw	ra,12(sp)
    6a8e:	4422                	lw	s0,8(sp)
    6a90:	0141                	addi	sp,sp,16
    6a92:	8082                	ret

00006a94 <memchr>:
    6a94:	0ff5f593          	andi	a1,a1,255
    6a98:	962a                	add	a2,a2,a0
    6a9a:	00c51463          	bne	a0,a2,6aa2 <memchr+0xe>
    6a9e:	4501                	li	a0,0
    6aa0:	8082                	ret
    6aa2:	211c                	lbu	a5,0(a0)
    6aa4:	feb78ee3          	beq	a5,a1,6aa0 <memchr+0xc>
    6aa8:	0505                	addi	a0,a0,1
    6aaa:	bfc5                	j	6a9a <memchr+0x6>

00006aac <_read_r>:
    6aac:	1141                	addi	sp,sp,-16
    6aae:	c422                	sw	s0,8(sp)
    6ab0:	842a                	mv	s0,a0
    6ab2:	852e                	mv	a0,a1
    6ab4:	85b2                	mv	a1,a2
    6ab6:	8636                	mv	a2,a3
    6ab8:	f601aa23          	sw	zero,-140(gp) # 2000086c <errno>
    6abc:	c606                	sw	ra,12(sp)
    6abe:	20a9                	jal	6b08 <_read>
    6ac0:	57fd                	li	a5,-1
    6ac2:	00f51763          	bne	a0,a5,6ad0 <_read_r+0x24>
    6ac6:	f7418793          	addi	a5,gp,-140 # 2000086c <errno>
    6aca:	439c                	lw	a5,0(a5)
    6acc:	c391                	beqz	a5,6ad0 <_read_r+0x24>
    6ace:	c01c                	sw	a5,0(s0)
    6ad0:	40b2                	lw	ra,12(sp)
    6ad2:	4422                	lw	s0,8(sp)
    6ad4:	0141                	addi	sp,sp,16
    6ad6:	8082                	ret

00006ad8 <_close>:
    6ad8:	05800793          	li	a5,88
    6adc:	f6f1aa23          	sw	a5,-140(gp) # 2000086c <errno>
    6ae0:	557d                	li	a0,-1
    6ae2:	8082                	ret

00006ae4 <_fstat>:
    6ae4:	05800793          	li	a5,88
    6ae8:	f6f1aa23          	sw	a5,-140(gp) # 2000086c <errno>
    6aec:	557d                	li	a0,-1
    6aee:	8082                	ret

00006af0 <_isatty>:
    6af0:	05800793          	li	a5,88
    6af4:	f6f1aa23          	sw	a5,-140(gp) # 2000086c <errno>
    6af8:	4501                	li	a0,0
    6afa:	8082                	ret

00006afc <_lseek>:
    6afc:	05800793          	li	a5,88
    6b00:	f6f1aa23          	sw	a5,-140(gp) # 2000086c <errno>
    6b04:	557d                	li	a0,-1
    6b06:	8082                	ret

00006b08 <_read>:
    6b08:	05800793          	li	a5,88
    6b0c:	f6f1aa23          	sw	a5,-140(gp) # 2000086c <errno>
    6b10:	557d                	li	a0,-1
    6b12:	8082                	ret
    6b14:	74737953          	0x74737953
    6b18:	6d65                	lui	s10,0x19
    6b1a:	3a6b6c43          	fmadd.d	fs8,fs6,ft6,ft7,unknown
    6b1e:	6425                	lui	s0,0x9
    6b20:	0a0d                	addi	s4,s4,3
    6b22:	0000                	unimp
    6b24:	70696843          	fmadd.s	fa6,fs2,ft6,fa4,unknown
    6b28:	4449                	li	s0,18
    6b2a:	253a                	lhu	a4,10(a0)
    6b2c:	3830                	lbu	a2,19(s0)
    6b2e:	0d78                	addi	a4,sp,668
    6b30:	000a                	c.slli	zero,0x2
    6b32:	0000                	unimp
    6b34:	bccaaabf d8d4d2b9 	0xd8d4d2b9bccaaabf
    6b3c:	c4ce                	sw	s3,72(sp)
    6b3e:	febc                	fsw	fa5,120(a3)
    6b40:	b3cdb5cf          	fnmadd.d	fa1,fs11,ft8,fs6,rup
    6b44:	000d                	c.nop	3
    6b46:	0000                	unimp
    6b48:	3a31                	jal	6464 <_vfiprintf_r+0x184>
    6b4a:	0000                	unimp
    6b4c:	c4ce                	sw	s3,72(sp)
    6b4e:	febc                	fsw	fa5,120(a3)
    6b50:	b3cdb5cf          	fnmadd.d	fa1,fs11,ft8,fs6,rup
    6b54:	d2b9                	beqz	a3,6a9a <memchr+0x6>
    6b56:	d8d4                	sw	a3,52(s1)
    6b58:	e1bd                	bnez	a1,6bbe <cst32.6448+0xe>
    6b5a:	fbb9                	bnez	a5,6ab0 <_read_r+0x4>
    6b5c:	6425                	lui	s0,0x9
    6b5e:	0a0d                	addi	s4,s4,3
    6b60:	0000                	unimp
    6b62:	0000                	unimp
    6b64:	6f66                	flw	ft10,88(sp)
    6b66:	6d72                	flw	fs10,28(sp)
    6b68:	7461                	lui	s0,0xffff8
    6b6a:	6974                	flw	fa3,84(a0)
    6b6c:	676e                	flw	fa4,216(sp)
    6b6e:	000d                	c.nop	3
    6b70:	3a31                	jal	648c <_vfiprintf_r+0x1ac>
    6b72:	4c656e4f          	0x4c656e4f
    6b76:	7361                	lui	t1,0xffff8
    6b78:	4b74                	lw	a3,84(a4)
    6b7a:	7369                	lui	t1,0xffffa
    6b7c:	61772e73          	csrrs	t3,0x617,a4
    6b80:	0076                	c.slli	zero,0x1d
	...

00006b84 <LfnOfs>:
    6b84:	0301 0705 0e09 1210 1614 1c18 001e 0000     ................
    6b94:	4146 3354 2032 2020 0000 0000               FAT32   ....

00006ba0 <cst.6447>:
    6ba0:	0001 0004 0010 0040 0100 0200 0000 0000     ......@.........

00006bb0 <cst32.6448>:
    6bb0:	0001 0002 0004 0008 0010 0020 0000 0000     .......... .....

00006bc0 <defopt.6449>:
    6bc0:	0007 0000 0000 0000 0000 0000 0000 0000     ................
    6bd0:	feeb 4d90 4453 534f 2e35 0030 4f4e 4e20     ...MSDOS5.0.NO N
    6be0:	4d41 2045 2020 4620 5441 3233 2020 0020     AME    FAT32   .
    6bf0:	4f4e 4e20 4d41 2045 2020 4620 5441 2020     NO NAME    FAT  
    6c00:	2020 0020 3a2a 3e3c 227c 7f3f 0000 0000        .*:<>|"?.....
    6c10:	2c2b 3d3b 5d5b 0000 4bb2 0000 4bbe 0000     +,;=[]...K...K..
    6c20:	4bcc 0000 4bd0 0000 4bd4 0000 4bda 0000     .K...K...K...K..
    6c30:	4bde 0000 4be2 0000 4be8 0000               .K...K...K..

00006c3c <cvt1.1821>:
    6c3c:	0061 031a 00e0 0317 00f8 0307 00ff 0001     a...............
    6c4c:	0178 0100 0130 0132 0106 0139 0110 014a     x...0.2...9...J.
    6c5c:	012e 0179 0106 0180 004d 0243 0181 0182     ..y.....M.C.....
    6c6c:	0182 0184 0184 0186 0187 0187 0189 018a     ................
    6c7c:	018b 018b 018d 018e 018f 0190 0191 0191     ................
    6c8c:	0193 0194 01f6 0196 0197 0198 0198 023d     ..............=.
    6c9c:	019b 019c 019d 0220 019f 01a0 01a0 01a2     ...... .........
    6cac:	01a2 01a4 01a4 01a6 01a7 01a7 01a9 01aa     ................
    6cbc:	01ab 01ac 01ac 01ae 01af 01af 01b1 01b2     ................
    6ccc:	01b3 01b3 01b5 01b5 01b7 01b8 01b8 01ba     ................
    6cdc:	01bb 01bc 01bc 01be 01f7 01c0 01c1 01c2     ................
    6cec:	01c3 01c4 01c5 01c4 01c7 01c8 01c7 01ca     ................
    6cfc:	01cb 01ca 01cd 0110 01dd 0001 018e 01de     ................
    6d0c:	0112 01f3 0003 01f1 01f4 01f4 01f8 0128     ..............(.
    6d1c:	0222 0112 023a 0009 2c65 023b 023b 023d     "...:...e,;.;.=.
    6d2c:	2c66 023f 0240 0241 0241 0246 010a 0253     f,?.@.A.A.F...S.
    6d3c:	0040 0181 0186 0255 0189 018a 0258 018f     @.....U.....X...
    6d4c:	025a 0190 025c 025d 025e 025f 0193 0261     Z...\.].^._...a.
    6d5c:	0262 0194 0264 0265 0266 0267 0197 0196     b...d.e.f.g.....
    6d6c:	026a 2c62 026c 026d 026e 019c 0270 0271     j.b,l.m.n...p.q.
    6d7c:	019d 0273 0274 019f 0276 0277 0278 0279     ..s.t...v.w.x.y.
    6d8c:	027a 027b 027c 2c64 027e 027f 01a6 0281     z.{.|.d,~.......
    6d9c:	0282 01a9 0284 0285 0286 0287 01ae 0244     ..............D.
    6dac:	01b1 01b2 0245 028d 028e 028f 0290 0291     ....E...........
    6dbc:	01b7 037b 0003 03fd 03fe 03ff 03ac 0004     ..{.............
    6dcc:	0386 0388 0389 038a 03b1 0311 03c2 0002     ................
    6ddc:	03a3 03a3 03c4 0308 03cc 0003 038c 038e     ................
    6dec:	038f 03d8 0118 03f2 000a 03f9 03f3 03f4     ................
    6dfc:	03f5 03f6 03f7 03f7 03f9 03fa 03fa 0430     ..............0.
    6e0c:	0320 0450 0710 0460 0122 048a 0136 04c1      .P...`."...6...
    6e1c:	010e 04cf 0001 04c0 04d0 0144 0561 0426     ..........D.a.&.
    6e2c:	0000 0000                                   ....

00006e30 <cvt2.1822>:
    6e30:	1d7d 0001 2c63 1e00 0196 1ea0 015a 1f00     }...c,......Z...
    6e40:	0608 1f10 0606 1f20 0608 1f30 0608 1f40     ...... ...0...@.
    6e50:	0606 1f51 0007 1f59 1f52 1f5b 1f54 1f5d     ..Q...Y.R.[.T.].
    6e60:	1f56 1f5f 1f60 0608 1f70 000e 1fba 1fbb     V._.`...p.......
    6e70:	1fc8 1fc9 1fca 1fcb 1fda 1fdb 1ff8 1ff9     ................
    6e80:	1fea 1feb 1ffa 1ffb 1f80 0608 1f90 0608     ................
    6e90:	1fa0 0608 1fb0 0004 1fb8 1fb9 1fb2 1fbc     ................
    6ea0:	1fcc 0001 1fc3 1fd0 0602 1fe0 0602 1fe5     ................
    6eb0:	0001 1fec 1ff3 0001 1ffc 214e 0001 2132     ..........N!..2!
    6ec0:	2170 0210 2184 0001 2183 24d0 051a 2c30     p!...!...!.$..0,
    6ed0:	042f 2c60 0102 2c67 0106 2c75 0102 2c80     /.`,..g,..u,...,
    6ee0:	0164 2d00 0826 ff41 031a 0000               d..-&.A.....

00006eec <oem2uni932>:
    6eec:	00a1 ff61 00a2 ff62 00a3 ff63 00a4 ff64     ..a...b...c...d.
    6efc:	00a5 ff65 00a6 ff66 00a7 ff67 00a8 ff68     ..e...f...g...h.
    6f0c:	00a9 ff69 00aa ff6a 00ab ff6b 00ac ff6c     ..i...j...k...l.
    6f1c:	00ad ff6d 00ae ff6e 00af ff6f 00b0 ff70     ..m...n...o...p.
    6f2c:	00b1 ff71 00b2 ff72 00b3 ff73 00b4 ff74     ..q...r...s...t.
    6f3c:	00b5 ff75 00b6 ff76 00b7 ff77 00b8 ff78     ..u...v...w...x.
    6f4c:	00b9 ff79 00ba ff7a 00bb ff7b 00bc ff7c     ..y...z...{...|.
    6f5c:	00bd ff7d 00be ff7e 00bf ff7f 00c0 ff80     ..}...~.........
    6f6c:	00c1 ff81 00c2 ff82 00c3 ff83 00c4 ff84     ................
    6f7c:	00c5 ff85 00c6 ff86 00c7 ff87 00c8 ff88     ................
    6f8c:	00c9 ff89 00ca ff8a 00cb ff8b 00cc ff8c     ................
    6f9c:	00cd ff8d 00ce ff8e 00cf ff8f 00d0 ff90     ................
    6fac:	00d1 ff91 00d2 ff92 00d3 ff93 00d4 ff94     ................
    6fbc:	00d5 ff95 00d6 ff96 00d7 ff97 00d8 ff98     ................
    6fcc:	00d9 ff99 00da ff9a 00db ff9b 00dc ff9c     ................
    6fdc:	00dd ff9d 00de ff9e 00df ff9f 8140 3000     ............@..0
    6fec:	8141 3001 8142 3002 8143 ff0c 8144 ff0e     A..0B..0C...D...
    6ffc:	8145 30fb 8146 ff1a 8147 ff1b 8148 ff1f     E..0F...G...H...
    700c:	8149 ff01 814a 309b 814b 309c 814c 00b4     I...J..0K..0L...
    701c:	814d ff40 814e 00a8 814f ff3e 8150 ffe3     M.@.N...O.>.P...
    702c:	8151 ff3f 8152 30fd 8153 30fe 8154 309d     Q.?.R..0S..0T..0
    703c:	8155 309e 8156 3003 8157 4edd 8158 3005     U..0V..0W..NX..0
    704c:	8159 3006 815a 3007 815b 30fc 815c 2015     Y..0Z..0[..0\.. 
    705c:	815d 2010 815e ff0f 815f ff3c 8160 ff5e     ].. ^..._.<.`.^.
    706c:	8161 2225 8162 ff5c 8163 2026 8164 2025     a.%"b.\.c.& d.% 
    707c:	8165 2018 8166 2019 8167 201c 8168 201d     e.. f.. g.. h.. 
    708c:	8169 ff08 816a ff09 816b 3014 816c 3015     i...j...k..0l..0
    709c:	816d ff3b 816e ff3d 816f ff5b 8170 ff5d     m.;.n.=.o.[.p.].
    70ac:	8171 3008 8172 3009 8173 300a 8174 300b     q..0r..0s..0t..0
    70bc:	8175 300c 8176 300d 8177 300e 8178 300f     u..0v..0w..0x..0
    70cc:	8179 3010 817a 3011 817b ff0b 817c ff0d     y..0z..0{...|...
    70dc:	817d 00b1 817e 00d7 8180 00f7 8181 ff1d     }...~...........
    70ec:	8182 2260 8183 ff1c 8184 ff1e 8185 2266     ..`"..........f"
    70fc:	8186 2267 8187 221e 8188 2234 8189 2642     ..g"..."..4"..B&
    710c:	818a 2640 818b 00b0 818c 2032 818d 2033     ..@&......2 ..3 
    711c:	818e 2103 818f ffe5 8190 ff04 8191 ffe0     ...!............
    712c:	8192 ffe1 8193 ff05 8194 ff03 8195 ff06     ................
    713c:	8196 ff0a 8197 ff20 8198 00a7 8199 2606     ...... ........&
    714c:	819a 2605 819b 25cb 819c 25cf 819d 25ce     ...&...%...%...%
    715c:	819e 25c7 819f 25c6 81a0 25a1 81a1 25a0     ...%...%...%...%
    716c:	81a2 25b3 81a3 25b2 81a4 25bd 81a5 25bc     ...%...%...%...%
    717c:	81a6 203b 81a7 3012 81a8 2192 81a9 2190     ..; ...0...!...!
    718c:	81aa 2191 81ab 2193 81ac 3013 81b8 2208     ...!...!...0..."
    719c:	81b9 220b 81ba 2286 81bb 2287 81bc 2282     ..."..."..."..."
    71ac:	81bd 2283 81be 222a 81bf 2229 81c8 2227     ..."..*"..)"..'"
    71bc:	81c9 2228 81ca ffe2 81cb 21d2 81cc 21d4     ..(".......!...!
    71cc:	81cd 2200 81ce 2203 81da 2220 81db 22a5     ..."...".. "..."
    71dc:	81dc 2312 81dd 2202 81de 2207 81df 2261     ...#..."..."..a"
    71ec:	81e0 2252 81e1 226a 81e2 226b 81e3 221a     ..R"..j"..k"..."
    71fc:	81e4 223d 81e5 221d 81e6 2235 81e7 222b     ..="..."..5"..+"
    720c:	81e8 222c 81f0 212b 81f1 2030 81f2 266f     ..,"..+!..0 ..o&
    721c:	81f3 266d 81f4 266a 81f5 2020 81f6 2021     ..m&..j&..  ..! 
    722c:	81f7 00b6 81fc 25ef 824f ff10 8250 ff11     .......%O...P...
    723c:	8251 ff12 8252 ff13 8253 ff14 8254 ff15     Q...R...S...T...
    724c:	8255 ff16 8256 ff17 8257 ff18 8258 ff19     U...V...W...X...
    725c:	8260 ff21 8261 ff22 8262 ff23 8263 ff24     `.!.a.".b.#.c.$.
    726c:	8264 ff25 8265 ff26 8266 ff27 8267 ff28     d.%.e.&.f.'.g.(.
    727c:	8268 ff29 8269 ff2a 826a ff2b 826b ff2c     h.).i.*.j.+.k.,.
    728c:	826c ff2d 826d ff2e 826e ff2f 826f ff30     l.-.m...n./.o.0.
    729c:	8270 ff31 8271 ff32 8272 ff33 8273 ff34     p.1.q.2.r.3.s.4.
    72ac:	8274 ff35 8275 ff36 8276 ff37 8277 ff38     t.5.u.6.v.7.w.8.
    72bc:	8278 ff39 8279 ff3a 8281 ff41 8282 ff42     x.9.y.:...A...B.
    72cc:	8283 ff43 8284 ff44 8285 ff45 8286 ff46     ..C...D...E...F.
    72dc:	8287 ff47 8288 ff48 8289 ff49 828a ff4a     ..G...H...I...J.
    72ec:	828b ff4b 828c ff4c 828d ff4d 828e ff4e     ..K...L...M...N.
    72fc:	828f ff4f 8290 ff50 8291 ff51 8292 ff52     ..O...P...Q...R.
    730c:	8293 ff53 8294 ff54 8295 ff55 8296 ff56     ..S...T...U...V.
    731c:	8297 ff57 8298 ff58 8299 ff59 829a ff5a     ..W...X...Y...Z.
    732c:	829f 3041 82a0 3042 82a1 3043 82a2 3044     ..A0..B0..C0..D0
    733c:	82a3 3045 82a4 3046 82a5 3047 82a6 3048     ..E0..F0..G0..H0
    734c:	82a7 3049 82a8 304a 82a9 304b 82aa 304c     ..I0..J0..K0..L0
    735c:	82ab 304d 82ac 304e 82ad 304f 82ae 3050     ..M0..N0..O0..P0
    736c:	82af 3051 82b0 3052 82b1 3053 82b2 3054     ..Q0..R0..S0..T0
    737c:	82b3 3055 82b4 3056 82b5 3057 82b6 3058     ..U0..V0..W0..X0
    738c:	82b7 3059 82b8 305a 82b9 305b 82ba 305c     ..Y0..Z0..[0..\0
    739c:	82bb 305d 82bc 305e 82bd 305f 82be 3060     ..]0..^0.._0..`0
    73ac:	82bf 3061 82c0 3062 82c1 3063 82c2 3064     ..a0..b0..c0..d0
    73bc:	82c3 3065 82c4 3066 82c5 3067 82c6 3068     ..e0..f0..g0..h0
    73cc:	82c7 3069 82c8 306a 82c9 306b 82ca 306c     ..i0..j0..k0..l0
    73dc:	82cb 306d 82cc 306e 82cd 306f 82ce 3070     ..m0..n0..o0..p0
    73ec:	82cf 3071 82d0 3072 82d1 3073 82d2 3074     ..q0..r0..s0..t0
    73fc:	82d3 3075 82d4 3076 82d5 3077 82d6 3078     ..u0..v0..w0..x0
    740c:	82d7 3079 82d8 307a 82d9 307b 82da 307c     ..y0..z0..{0..|0
    741c:	82db 307d 82dc 307e 82dd 307f 82de 3080     ..}0..~0...0...0
    742c:	82df 3081 82e0 3082 82e1 3083 82e2 3084     ...0...0...0...0
    743c:	82e3 3085 82e4 3086 82e5 3087 82e6 3088     ...0...0...0...0
    744c:	82e7 3089 82e8 308a 82e9 308b 82ea 308c     ...0...0...0...0
    745c:	82eb 308d 82ec 308e 82ed 308f 82ee 3090     ...0...0...0...0
    746c:	82ef 3091 82f0 3092 82f1 3093 8340 30a1     ...0...0...0@..0
    747c:	8341 30a2 8342 30a3 8343 30a4 8344 30a5     A..0B..0C..0D..0
    748c:	8345 30a6 8346 30a7 8347 30a8 8348 30a9     E..0F..0G..0H..0
    749c:	8349 30aa 834a 30ab 834b 30ac 834c 30ad     I..0J..0K..0L..0
    74ac:	834d 30ae 834e 30af 834f 30b0 8350 30b1     M..0N..0O..0P..0
    74bc:	8351 30b2 8352 30b3 8353 30b4 8354 30b5     Q..0R..0S..0T..0
    74cc:	8355 30b6 8356 30b7 8357 30b8 8358 30b9     U..0V..0W..0X..0
    74dc:	8359 30ba 835a 30bb 835b 30bc 835c 30bd     Y..0Z..0[..0\..0
    74ec:	835d 30be 835e 30bf 835f 30c0 8360 30c1     ]..0^..0_..0`..0
    74fc:	8361 30c2 8362 30c3 8363 30c4 8364 30c5     a..0b..0c..0d..0
    750c:	8365 30c6 8366 30c7 8367 30c8 8368 30c9     e..0f..0g..0h..0
    751c:	8369 30ca 836a 30cb 836b 30cc 836c 30cd     i..0j..0k..0l..0
    752c:	836d 30ce 836e 30cf 836f 30d0 8370 30d1     m..0n..0o..0p..0
    753c:	8371 30d2 8372 30d3 8373 30d4 8374 30d5     q..0r..0s..0t..0
    754c:	8375 30d6 8376 30d7 8377 30d8 8378 30d9     u..0v..0w..0x..0
    755c:	8379 30da 837a 30db 837b 30dc 837c 30dd     y..0z..0{..0|..0
    756c:	837d 30de 837e 30df 8380 30e0 8381 30e1     }..0~..0...0...0
    757c:	8382 30e2 8383 30e3 8384 30e4 8385 30e5     ...0...0...0...0
    758c:	8386 30e6 8387 30e7 8388 30e8 8389 30e9     ...0...0...0...0
    759c:	838a 30ea 838b 30eb 838c 30ec 838d 30ed     ...0...0...0...0
    75ac:	838e 30ee 838f 30ef 8390 30f0 8391 30f1     ...0...0...0...0
    75bc:	8392 30f2 8393 30f3 8394 30f4 8395 30f5     ...0...0...0...0
    75cc:	8396 30f6 839f 0391 83a0 0392 83a1 0393     ...0............
    75dc:	83a2 0394 83a3 0395 83a4 0396 83a5 0397     ................
    75ec:	83a6 0398 83a7 0399 83a8 039a 83a9 039b     ................
    75fc:	83aa 039c 83ab 039d 83ac 039e 83ad 039f     ................
    760c:	83ae 03a0 83af 03a1 83b0 03a3 83b1 03a4     ................
    761c:	83b2 03a5 83b3 03a6 83b4 03a7 83b5 03a8     ................
    762c:	83b6 03a9 83bf 03b1 83c0 03b2 83c1 03b3     ................
    763c:	83c2 03b4 83c3 03b5 83c4 03b6 83c5 03b7     ................
    764c:	83c6 03b8 83c7 03b9 83c8 03ba 83c9 03bb     ................
    765c:	83ca 03bc 83cb 03bd 83cc 03be 83cd 03bf     ................
    766c:	83ce 03c0 83cf 03c1 83d0 03c3 83d1 03c4     ................
    767c:	83d2 03c5 83d3 03c6 83d4 03c7 83d5 03c8     ................
    768c:	83d6 03c9 8440 0410 8441 0411 8442 0412     ....@...A...B...
    769c:	8443 0413 8444 0414 8445 0415 8446 0401     C...D...E...F...
    76ac:	8447 0416 8448 0417 8449 0418 844a 0419     G...H...I...J...
    76bc:	844b 041a 844c 041b 844d 041c 844e 041d     K...L...M...N...
    76cc:	844f 041e 8450 041f 8451 0420 8452 0421     O...P...Q. .R.!.
    76dc:	8453 0422 8454 0423 8455 0424 8456 0425     S.".T.#.U.$.V.%.
    76ec:	8457 0426 8458 0427 8459 0428 845a 0429     W.&.X.'.Y.(.Z.).
    76fc:	845b 042a 845c 042b 845d 042c 845e 042d     [.*.\.+.].,.^.-.
    770c:	845f 042e 8460 042f 8470 0430 8471 0431     _...`./.p.0.q.1.
    771c:	8472 0432 8473 0433 8474 0434 8475 0435     r.2.s.3.t.4.u.5.
    772c:	8476 0451 8477 0436 8478 0437 8479 0438     v.Q.w.6.x.7.y.8.
    773c:	847a 0439 847b 043a 847c 043b 847d 043c     z.9.{.:.|.;.}.<.
    774c:	847e 043d 8480 043e 8481 043f 8482 0440     ~.=...>...?...@.
    775c:	8483 0441 8484 0442 8485 0443 8486 0444     ..A...B...C...D.
    776c:	8487 0445 8488 0446 8489 0447 848a 0448     ..E...F...G...H.
    777c:	848b 0449 848c 044a 848d 044b 848e 044c     ..I...J...K...L.
    778c:	848f 044d 8490 044e 8491 044f 849f 2500     ..M...N...O....%
    779c:	84a0 2502 84a1 250c 84a2 2510 84a3 2518     ...%...%...%...%
    77ac:	84a4 2514 84a5 251c 84a6 252c 84a7 2524     ...%...%..,%..$%
    77bc:	84a8 2534 84a9 253c 84aa 2501 84ab 2503     ..4%..<%...%...%
    77cc:	84ac 250f 84ad 2513 84ae 251b 84af 2517     ...%...%...%...%
    77dc:	84b0 2523 84b1 2533 84b2 252b 84b3 253b     ..#%..3%..+%..;%
    77ec:	84b4 254b 84b5 2520 84b6 252f 84b7 2528     ..K%.. %../%..(%
    77fc:	84b8 2537 84b9 253f 84ba 251d 84bb 2530     ..7%..?%...%..0%
    780c:	84bc 2525 84bd 2538 84be 2542 8740 2460     ..%%..8%..B%@.`$
    781c:	8741 2461 8742 2462 8743 2463 8744 2464     A.a$B.b$C.c$D.d$
    782c:	8745 2465 8746 2466 8747 2467 8748 2468     E.e$F.f$G.g$H.h$
    783c:	8749 2469 874a 246a 874b 246b 874c 246c     I.i$J.j$K.k$L.l$
    784c:	874d 246d 874e 246e 874f 246f 8750 2470     M.m$N.n$O.o$P.p$
    785c:	8751 2471 8752 2472 8753 2473 8754 2160     Q.q$R.r$S.s$T.`!
    786c:	8755 2161 8756 2162 8757 2163 8758 2164     U.a!V.b!W.c!X.d!
    787c:	8759 2165 875a 2166 875b 2167 875c 2168     Y.e!Z.f![.g!\.h!
    788c:	875d 2169 875f 3349 8760 3314 8761 3322     ].i!_.I3`..3a."3
    789c:	8762 334d 8763 3318 8764 3327 8765 3303     b.M3c..3d.'3e..3
    78ac:	8766 3336 8767 3351 8768 3357 8769 330d     f.63g.Q3h.W3i..3
    78bc:	876a 3326 876b 3323 876c 332b 876d 334a     j.&3k.#3l.+3m.J3
    78cc:	876e 333b 876f 339c 8770 339d 8771 339e     n.;3o..3p..3q..3
    78dc:	8772 338e 8773 338f 8774 33c4 8775 33a1     r..3s..3t..3u..3
    78ec:	877e 337b 8780 301d 8781 301f 8782 2116     ~.{3...0...0...!
    78fc:	8783 33cd 8784 2121 8785 32a4 8786 32a5     ...3..!!...2...2
    790c:	8787 32a6 8788 32a7 8789 32a8 878a 3231     ...2...2...2..12
    791c:	878b 3232 878c 3239 878d 337e 878e 337d     ..22..92..~3..}3
    792c:	878f 337c 8793 222e 8794 2211 8798 221f     ..|3..."..."..."
    793c:	8799 22bf 889f 4e9c 88a0 5516 88a1 5a03     ..."...N...U...Z
    794c:	88a2 963f 88a3 54c0 88a4 611b 88a5 6328     ..?....T...a..(c
    795c:	88a6 59f6 88a7 9022 88a8 8475 88a9 831c     ...Y.."...u.....
    796c:	88aa 7a50 88ab 60aa 88ac 63e1 88ad 6e25     ..Pz...`...c..%n
    797c:	88ae 65ed 88af 8466 88b0 82a6 88b1 9bf5     ...e..f.........
    798c:	88b2 6893 88b3 5727 88b4 65a1 88b5 6271     ...h..'W...e..qb
    799c:	88b6 5b9b 88b7 59d0 88b8 867b 88b9 98f4     ...[...Y..{.....
    79ac:	88ba 7d62 88bb 7dbe 88bc 9b8e 88bd 6216     ..b}...}.......b
    79bc:	88be 7c9f 88bf 88b7 88c0 5b89 88c1 5eb5     ...|.......[...^
    79cc:	88c2 6309 88c3 6697 88c4 6848 88c5 95c7     ...c...f..Hh....
    79dc:	88c6 978d 88c7 674f 88c8 4ee5 88c9 4f0a     ......Og...N...O
    79ec:	88ca 4f4d 88cb 4f9d 88cc 5049 88cd 56f2     ..MO...O..IP...V
    79fc:	88ce 5937 88cf 59d4 88d0 5a01 88d1 5c09     ..7Y...Y...Z...\
    7a0c:	88d2 60df 88d3 610f 88d4 6170 88d5 6613     ...`...a..pa...f
    7a1c:	88d6 6905 88d7 70ba 88d8 754f 88d9 7570     ...i...p..Ou..pu
    7a2c:	88da 79fb 88db 7dad 88dc 7def 88dd 80c3     ...y...}...}....
    7a3c:	88de 840e 88df 8863 88e0 8b02 88e1 9055     ......c.......U.
    7a4c:	88e2 907a 88e3 533b 88e4 4e95 88e5 4ea5     ..z...;S...N...N
    7a5c:	88e6 57df 88e7 80b2 88e8 90c1 88e9 78ef     ...W...........x
    7a6c:	88ea 4e00 88eb 58f1 88ec 6ea2 88ed 9038     ...N...X...n..8.
    7a7c:	88ee 7a32 88ef 8328 88f0 828b 88f1 9c2f     ..2z..(......./.
    7a8c:	88f2 5141 88f3 5370 88f4 54bd 88f5 54e1     ..AQ..pS...T...T
    7a9c:	88f6 56e0 88f7 59fb 88f8 5f15 88f9 98f2     ...V...Y..._....
    7aac:	88fa 6deb 88fb 80e4 88fc 852d 8940 9662     ...m......-.@.b.
    7abc:	8941 9670 8942 96a0 8943 97fb 8944 540b     A.p.B...C...D..T
    7acc:	8945 53f3 8946 5b87 8947 70cf 8948 7fbd     E..SF..[G..pH...
    7adc:	8949 8fc2 894a 96e8 894b 536f 894c 9d5c     I...J...K.oSL.\.
    7aec:	894d 7aba 894e 4e11 894f 7893 8950 81fc     M..zN..NO..xP...
    7afc:	8951 6e26 8952 5618 8953 5504 8954 6b1d     Q.&nR..VS..UT..k
    7b0c:	8955 851a 8956 9c3b 8957 59e5 8958 53a9     U...V.;.W..YX..S
    7b1c:	8959 6d66 895a 74dc 895b 958f 895c 5642     Y.fmZ..t[...\.BV
    7b2c:	895d 4e91 895e 904b 895f 96f2 8960 834f     ]..N^.K._...`.O.
    7b3c:	8961 990c 8962 53e1 8963 55b6 8964 5b30     a...b..Sc..Ud.0[
    7b4c:	8965 5f71 8966 6620 8967 66f3 8968 6804     e.q_f. fg..fh..h
    7b5c:	8969 6c38 896a 6cf3 896b 6d29 896c 745b     i.8lj..lk.)ml.[t
    7b6c:	896d 76c8 896e 7a4e 896f 9834 8970 82f1     m..vn.Nzo.4.p...
    7b7c:	8971 885b 8972 8a60 8973 92ed 8974 6db2     q.[.r.`.s...t..m
    7b8c:	8975 75ab 8976 76ca 8977 99c5 8978 60a6     u..uv..vw...x..`
    7b9c:	8979 8b01 897a 8d8a 897b 95b2 897c 698e     y...z...{...|..i
    7bac:	897d 53ad 897e 5186 8980 5712 8981 5830     }..S~..Q...W..0X
    7bbc:	8982 5944 8983 5bb4 8984 5ef6 8985 6028     ..DY...[...^..(`
    7bcc:	8986 63a9 8987 63f4 8988 6cbf 8989 6f14     ...c...c...l...o
    7bdc:	898a 708e 898b 7114 898c 7159 898d 71d5     ...p...q..Yq...q
    7bec:	898e 733f 898f 7e01 8990 8276 8991 82d1     ..?s...~..v.....
    7bfc:	8992 8597 8993 9060 8994 925b 8995 9d1b     ......`...[.....
    7c0c:	8996 5869 8997 65bc 8998 6c5a 8999 7525     ..iX...e..Zl..%u
    7c1c:	899a 51f9 899b 592e 899c 5965 899d 5f80     ...Q...Y..eY..._
    7c2c:	899e 5fdc 899f 62bc 89a0 65fa 89a1 6a2a     ..._...b...e..*j
    7c3c:	89a2 6b27 89a3 6bb4 89a4 738b 89a5 7fc1     ..'k...k...s....
    7c4c:	89a6 8956 89a7 9d2c 89a8 9d0e 89a9 9ec4     ..V...,.........
    7c5c:	89aa 5ca1 89ab 6c96 89ac 837b 89ad 5104     ...\...l..{....Q
    7c6c:	89ae 5c4b 89af 61b6 89b0 81c6 89b1 6876     ..K\...a......vh
    7c7c:	89b2 7261 89b3 4e59 89b4 4ffa 89b5 5378     ..ar..YN...O..xS
    7c8c:	89b6 6069 89b7 6e29 89b8 7a4f 89b9 97f3     ..i`..)n..Oz....
    7c9c:	89ba 4e0b 89bb 5316 89bc 4eee 89bd 4f55     ...N...S...N..UO
    7cac:	89be 4f3d 89bf 4fa1 89c0 4f73 89c1 52a0     ..=O...O..sO...R
    7cbc:	89c2 53ef 89c3 5609 89c4 590f 89c5 5ac1     ...S...V...Y...Z
    7ccc:	89c6 5bb6 89c7 5be1 89c8 79d1 89c9 6687     ...[...[...y...f
    7cdc:	89ca 679c 89cb 67b6 89cc 6b4c 89cd 6cb3     ...g...g..Lk...l
    7cec:	89ce 706b 89cf 73c2 89d0 798d 89d1 79be     ..kp...s...y...y
    7cfc:	89d2 7a3c 89d3 7b87 89d4 82b1 89d5 82db     ..<z...{........
    7d0c:	89d6 8304 89d7 8377 89d8 83ef 89d9 83d3     ......w.........
    7d1c:	89da 8766 89db 8ab2 89dc 5629 89dd 8ca8     ..f.......)V....
    7d2c:	89de 8fe6 89df 904e 89e0 971e 89e1 868a     ......N.........
    7d3c:	89e2 4fc4 89e3 5ce8 89e4 6211 89e5 7259     ...O...\...b..Yr
    7d4c:	89e6 753b 89e7 81e5 89e8 82bd 89e9 86fe     ..;u............
    7d5c:	89ea 8cc0 89eb 96c5 89ec 9913 89ed 99d5     ................
    7d6c:	89ee 4ecb 89ef 4f1a 89f0 89e3 89f1 56de     ...N...O.......V
    7d7c:	89f2 584a 89f3 58ca 89f4 5efb 89f5 5feb     ..JX...X...^..._
    7d8c:	89f6 602a 89f7 6094 89f8 6062 89f9 61d0     ..*`...`..b`...a
    7d9c:	89fa 6212 89fb 62d0 89fc 6539 8a40 9b41     ...b...b..9e@.A.
    7dac:	8a41 6666 8a42 68b0 8a43 6d77 8a44 7070     A.ffB..hC.wmD.pp
    7dbc:	8a45 754c 8a46 7686 8a47 7d75 8a48 82a5     E.LuF..vG.u}H...
    7dcc:	8a49 87f9 8a4a 958b 8a4b 968e 8a4c 8c9d     I...J...K...L...
    7ddc:	8a4d 51f1 8a4e 52be 8a4f 5916 8a50 54b3     M..QN..RO..YP..T
    7dec:	8a51 5bb3 8a52 5d16 8a53 6168 8a54 6982     Q..[R..]S.haT..i
    7dfc:	8a55 6daf 8a56 788d 8a57 84cb 8a58 8857     U..mV..xW...X.W.
    7e0c:	8a59 8a72 8a5a 93a7 8a5b 9ab8 8a5c 6d6c     Y.r.Z...[...\.lm
    7e1c:	8a5d 99a8 8a5e 86d9 8a5f 57a3 8a60 67ff     ]...^..._..W`..g
    7e2c:	8a61 86ce 8a62 920e 8a63 5283 8a64 5687     a...b...c..Rd..V
    7e3c:	8a65 5404 8a66 5ed3 8a67 62e1 8a68 64b9     e..Tf..^g..bh..d
    7e4c:	8a69 683c 8a6a 6838 8a6b 6bbb 8a6c 7372     i.<hj.8hk..kl.rs
    7e5c:	8a6d 78ba 8a6e 7a6b 8a6f 899a 8a70 89d2     m..xn.kzo...p...
    7e6c:	8a71 8d6b 8a72 8f03 8a73 90ed 8a74 95a3     q.k.r...s...t...
    7e7c:	8a75 9694 8a76 9769 8a77 5b66 8a78 5cb3     u...v.i.w.f[x..\
    7e8c:	8a79 697d 8a7a 984d 8a7b 984e 8a7c 639b     y.}iz.M.{.N.|..c
    7e9c:	8a7d 7b20 8a7e 6a2b 8a80 6a7f 8a81 68b6     }. {~.+j...j...h
    7eac:	8a82 9c0d 8a83 6f5f 8a84 5272 8a85 559d     ......_o..rR...U
    7ebc:	8a86 6070 8a87 62ec 8a88 6d3b 8a89 6e07     ..p`...b..;m...n
    7ecc:	8a8a 6ed1 8a8b 845b 8a8c 8910 8a8d 8f44     ...n..[.......D.
    7edc:	8a8e 4e14 8a8f 9c39 8a90 53f6 8a91 691b     ...N..9....S...i
    7eec:	8a92 6a3a 8a93 9784 8a94 682a 8a95 515c     ..:j......*h..\Q
    7efc:	8a96 7ac3 8a97 84b2 8a98 91dc 8a99 938c     ...z............
    7f0c:	8a9a 565b 8a9b 9d28 8a9c 6822 8a9d 8305     ..[V..(..."h....
    7f1c:	8a9e 8431 8a9f 7ca5 8aa0 5208 8aa1 82c5     ..1....|...R....
    7f2c:	8aa2 74e6 8aa3 4e7e 8aa4 4f83 8aa5 51a0     ...t..~N...O...Q
    7f3c:	8aa6 5bd2 8aa7 520a 8aa8 52d8 8aa9 52e7     ...[...R...R...R
    7f4c:	8aaa 5dfb 8aab 559a 8aac 582a 8aad 59e6     ...]...U..*X...Y
    7f5c:	8aae 5b8c 8aaf 5b98 8ab0 5bdb 8ab1 5e72     ...[...[...[..r^
    7f6c:	8ab2 5e79 8ab3 60a3 8ab4 611f 8ab5 6163     ..y^...`...a..ca
    7f7c:	8ab6 61be 8ab7 63db 8ab8 6562 8ab9 67d1     ...a...c..be...g
    7f8c:	8aba 6853 8abb 68fa 8abc 6b3e 8abd 6b53     ..Sh...h..>k..Sk
    7f9c:	8abe 6c57 8abf 6f22 8ac0 6f97 8ac1 6f45     ..Wl.."o...o..Eo
    7fac:	8ac2 74b0 8ac3 7518 8ac4 76e3 8ac5 770b     ...t...u...v...w
    7fbc:	8ac6 7aff 8ac7 7ba1 8ac8 7c21 8ac9 7de9     ...z...{..!|...}
    7fcc:	8aca 7f36 8acb 7ff0 8acc 809d 8acd 8266     ..6...........f.
    7fdc:	8ace 839e 8acf 89b3 8ad0 8acc 8ad1 8cab     ................
    7fec:	8ad2 9084 8ad3 9451 8ad4 9593 8ad5 9591     ......Q.........
    7ffc:	8ad6 95a2 8ad7 9665 8ad8 97d3 8ad9 9928     ......e.......(.
    800c:	8ada 8218 8adb 4e38 8adc 542b 8add 5cb8     ......8N..+T...\
    801c:	8ade 5dcc 8adf 73a9 8ae0 764c 8ae1 773c     ...]...s..Lv..<w
    802c:	8ae2 5ca9 8ae3 7feb 8ae4 8d0b 8ae5 96c1     ...\............
    803c:	8ae6 9811 8ae7 9854 8ae8 9858 8ae9 4f01     ......T...X....O
    804c:	8aea 4f0e 8aeb 5371 8aec 559c 8aed 5668     ...O..qS...U..hV
    805c:	8aee 57fa 8aef 5947 8af0 5b09 8af1 5bc4     ...W..GY...[...[
    806c:	8af2 5c90 8af3 5e0c 8af4 5e7e 8af5 5fcc     ...\...^..~^..._
    807c:	8af6 63ee 8af7 673a 8af8 65d7 8af9 65e2     ...c..:g...e...e
    808c:	8afa 671f 8afb 68cb 8afc 68c4 8b40 6a5f     ...g...h...h@._j
    809c:	8b41 5e30 8b42 6bc5 8b43 6c17 8b44 6c7d     A.0^B..kC..lD.}l
    80ac:	8b45 757f 8b46 7948 8b47 5b63 8b48 7a00     E..uF.HyG.c[H..z
    80bc:	8b49 7d00 8b4a 5fbd 8b4b 898f 8b4c 8a18     I..}J.._K...L...
    80cc:	8b4d 8cb4 8b4e 8d77 8b4f 8ecc 8b50 8f1d     M...N.w.O...P...
    80dc:	8b51 98e2 8b52 9a0e 8b53 9b3c 8b54 4e80     Q...R...S.<.T..N
    80ec:	8b55 507d 8b56 5100 8b57 5993 8b58 5b9c     U.}PV..QW..YX..[
    80fc:	8b59 622f 8b5a 6280 8b5b 64ec 8b5c 6b3a     Y./bZ..b[..d\.:k
    810c:	8b5d 72a0 8b5e 7591 8b5f 7947 8b60 7fa9     ]..r^..u_.Gy`...
    811c:	8b61 87fb 8b62 8abc 8b63 8b70 8b64 63ac     a...b...c.p.d..c
    812c:	8b65 83ca 8b66 97a0 8b67 5409 8b68 5403     e...f...g..Th..T
    813c:	8b69 55ab 8b6a 6854 8b6b 6a58 8b6c 8a70     i..Uj.Thk.Xjl.p.
    814c:	8b6d 7827 8b6e 6775 8b6f 9ecd 8b70 5374     m.'xn.ugo...p.tS
    815c:	8b71 5ba2 8b72 811a 8b73 8650 8b74 9006     q..[r...s.P.t...
    816c:	8b75 4e18 8b76 4e45 8b77 4ec7 8b78 4f11     u..Nv.ENw..Nx..O
    817c:	8b79 53ca 8b7a 5438 8b7b 5bae 8b7c 5f13     y..Sz.8T{..[|.._
    818c:	8b7d 6025 8b7e 6551 8b80 673d 8b81 6c42     }.%`~.Qe..=g..Bl
    819c:	8b82 6c72 8b83 6ce3 8b84 7078 8b85 7403     ..rl...l..xp...t
    81ac:	8b86 7a76 8b87 7aae 8b88 7b08 8b89 7d1a     ..vz...z...{...}
    81bc:	8b8a 7cfe 8b8b 7d66 8b8c 65e7 8b8d 725b     ...|..f}...e..[r
    81cc:	8b8e 53bb 8b8f 5c45 8b90 5de8 8b91 62d2     ...S..E\...]...b
    81dc:	8b92 62e0 8b93 6319 8b94 6e20 8b95 865a     ...b...c.. n..Z.
    81ec:	8b96 8a31 8b97 8ddd 8b98 92f8 8b99 6f01     ..1............o
    81fc:	8b9a 79a6 8b9b 9b5a 8b9c 4ea8 8b9d 4eab     ...y..Z....N...N
    820c:	8b9e 4eac 8b9f 4f9b 8ba0 4fa0 8ba1 50d1     ...N...O...O...P
    821c:	8ba2 5147 8ba3 7af6 8ba4 5171 8ba5 51f6     ..GQ...z..qQ...Q
    822c:	8ba6 5354 8ba7 5321 8ba8 537f 8ba9 53eb     ..TS..!S...S...S
    823c:	8baa 55ac 8bab 5883 8bac 5ce1 8bad 5f37     ...U...X...\..7_
    824c:	8bae 5f4a 8baf 602f 8bb0 6050 8bb1 606d     ..J_../`..P`..m`
    825c:	8bb2 631f 8bb3 6559 8bb4 6a4b 8bb5 6cc1     ...c..Ye..Kj...l
    826c:	8bb6 72c2 8bb7 72ed 8bb8 77ef 8bb9 80f8     ...r...r...w....
    827c:	8bba 8105 8bbb 8208 8bbc 854e 8bbd 90f7     ..........N.....
    828c:	8bbe 93e1 8bbf 97ff 8bc0 9957 8bc1 9a5a     ..........W...Z.
    829c:	8bc2 4ef0 8bc3 51dd 8bc4 5c2d 8bc5 6681     ...N...Q..-\...f
    82ac:	8bc6 696d 8bc7 5c40 8bc8 66f2 8bc9 6975     ..mi..@\...f..ui
    82bc:	8bca 7389 8bcb 6850 8bcc 7c81 8bcd 50c5     ...s..Ph...|...P
    82cc:	8bce 52e4 8bcf 5747 8bd0 5dfe 8bd1 9326     ...R..GW...]..&.
    82dc:	8bd2 65a4 8bd3 6b23 8bd4 6b3d 8bd5 7434     ...e..#k..=k..4t
    82ec:	8bd6 7981 8bd7 79bd 8bd8 7b4b 8bd9 7dca     ...y...y..K{...}
    82fc:	8bda 82b9 8bdb 83cc 8bdc 887f 8bdd 895f     .............._.
    830c:	8bde 8b39 8bdf 8fd1 8be0 91d1 8be1 541f     ..9............T
    831c:	8be2 9280 8be3 4e5d 8be4 5036 8be5 53e5     ......]N..6P...S
    832c:	8be6 533a 8be7 72d7 8be8 7396 8be9 77e9     ..:S...r...s...w
    833c:	8bea 82e6 8beb 8eaf 8bec 99c6 8bed 99c8     ................
    834c:	8bee 99d2 8bef 5177 8bf0 611a 8bf1 865e     ......wQ...a..^.
    835c:	8bf2 55b0 8bf3 7a7a 8bf4 5076 8bf5 5bd3     ...U..zz..vP...[
    836c:	8bf6 9047 8bf7 9685 8bf8 4e32 8bf9 6adb     ..G.......2N...j
    837c:	8bfa 91e7 8bfb 5c51 8bfc 5c48 8c40 6398     ......Q\..H\@..c
    838c:	8c41 7a9f 8c42 6c93 8c43 9774 8c44 8f61     A..zB..lC.t.D.a.
    839c:	8c45 7aaa 8c46 718a 8c47 9688 8c48 7c82     E..zF..qG...H..|
    83ac:	8c49 6817 8c4a 7e70 8c4b 6851 8c4c 936c     I..hJ.p~K.QhL.l.
    83bc:	8c4d 52f2 8c4e 541b 8c4f 85ab 8c50 8a13     M..RN..TO...P...
    83cc:	8c51 7fa4 8c52 8ecd 8c53 90e1 8c54 5366     Q...R...S...T.fS
    83dc:	8c55 8888 8c56 7941 8c57 4fc2 8c58 50be     U...V.AyW..OX..P
    83ec:	8c59 5211 8c5a 5144 8c5b 5553 8c5c 572d     Y..RZ.DQ[.SU\.-W
    83fc:	8c5d 73ea 8c5e 578b 8c5f 5951 8c60 5f62     ]..s^..W_.QY`.b_
    840c:	8c61 5f84 8c62 6075 8c63 6176 8c64 6167     a.._b.u`c.vad.ga
    841c:	8c65 61a9 8c66 63b2 8c67 643a 8c68 656c     e..af..cg.:dh.le
    842c:	8c69 666f 8c6a 6842 8c6b 6e13 8c6c 7566     i.ofj.Bhk..nl.fu
    843c:	8c6d 7a3d 8c6e 7cfb 8c6f 7d4c 8c70 7d99     m.=zn..|o.L}p..}
    844c:	8c71 7e4b 8c72 7f6b 8c73 830e 8c74 834a     q.K~r.k.s...t.J.
    845c:	8c75 86cd 8c76 8a08 8c77 8a63 8c78 8b66     u...v...w.c.x.f.
    846c:	8c79 8efd 8c7a 981a 8c7b 9d8f 8c7c 82b8     y...z...{...|...
    847c:	8c7d 8fce 8c7e 9be8 8c80 5287 8c81 621f     }...~......R...b
    848c:	8c82 6483 8c83 6fc0 8c84 9699 8c85 6841     ...d...o......Ah
    849c:	8c86 5091 8c87 6b20 8c88 6c7a 8c89 6f54     ...P.. k..zl..To
    84ac:	8c8a 7a74 8c8b 7d50 8c8c 8840 8c8d 8a23     ..tz..P}..@...#.
    84bc:	8c8e 6708 8c8f 4ef6 8c90 5039 8c91 5026     ...g...N..9P..&P
    84cc:	8c92 5065 8c93 517c 8c94 5238 8c95 5263     ..eP..|Q..8R..cR
    84dc:	8c96 55a7 8c97 570f 8c98 5805 8c99 5acc     ...U...W...X...Z
    84ec:	8c9a 5efa 8c9b 61b2 8c9c 61f8 8c9d 62f3     ...^...a...a...b
    84fc:	8c9e 6372 8c9f 691c 8ca0 6a29 8ca1 727d     ..rc...i..)j..}r
    850c:	8ca2 72ac 8ca3 732e 8ca4 7814 8ca5 786f     ...r...s...x..ox
    851c:	8ca6 7d79 8ca7 770c 8ca8 80a9 8ca9 898b     ..y}...w........
    852c:	8caa 8b19 8cab 8ce2 8cac 8ed2 8cad 9063     ..............c.
    853c:	8cae 9375 8caf 967a 8cb0 9855 8cb1 9a13     ..u...z...U.....
    854c:	8cb2 9e78 8cb3 5143 8cb4 539f 8cb5 53b3     ..x...CQ...S...S
    855c:	8cb6 5e7b 8cb7 5f26 8cb8 6e1b 8cb9 6e90     ..{^..&_...n...n
    856c:	8cba 7384 8cbb 73fe 8cbc 7d43 8cbd 8237     ...s...s..C}..7.
    857c:	8cbe 8a00 8cbf 8afa 8cc0 9650 8cc1 4e4e     ..........P...NN
    858c:	8cc2 500b 8cc3 53e4 8cc4 547c 8cc5 56fa     ...P...S..|T...V
    859c:	8cc6 59d1 8cc7 5b64 8cc8 5df1 8cc9 5eab     ...Y..d[...]...^
    85ac:	8cca 5f27 8ccb 6238 8ccc 6545 8ccd 67af     ..'_..8b..Ee...g
    85bc:	8cce 6e56 8ccf 72d0 8cd0 7cca 8cd1 88b4     ..Vn...r...|....
    85cc:	8cd2 80a1 8cd3 80e1 8cd4 83f0 8cd5 864e     ..............N.
    85dc:	8cd6 8a87 8cd7 8de8 8cd8 9237 8cd9 96c7     ..........7.....
    85ec:	8cda 9867 8cdb 9f13 8cdc 4e94 8cdd 4e92     ..g........N...N
    85fc:	8cde 4f0d 8cdf 5348 8ce0 5449 8ce1 543e     ...O..HS..IT..>T
    860c:	8ce2 5a2f 8ce3 5f8c 8ce4 5fa1 8ce5 609f     ../Z..._..._...`
    861c:	8ce6 68a7 8ce7 6a8e 8ce8 745a 8ce9 7881     ...h...j..Zt...x
    862c:	8cea 8a9e 8ceb 8aa4 8cec 8b77 8ced 9190     ..........w.....
    863c:	8cee 4e5e 8cef 9bc9 8cf0 4ea4 8cf1 4f7c     ..^N.......N..|O
    864c:	8cf2 4faf 8cf3 5019 8cf4 5016 8cf5 5149     ...O...P...P..IQ
    865c:	8cf6 516c 8cf7 529f 8cf8 52b9 8cf9 52fe     ..lQ...R...R...R
    866c:	8cfa 539a 8cfb 53e3 8cfc 5411 8d40 540e     ...S...S...T@..T
    867c:	8d41 5589 8d42 5751 8d43 57a2 8d44 597d     A..UB.QWC..WD.}Y
    868c:	8d45 5b54 8d46 5b5d 8d47 5b8f 8d48 5de5     E.T[F.][G..[H..]
    869c:	8d49 5de7 8d4a 5df7 8d4b 5e78 8d4c 5e83     I..]J..]K.x^L..^
    86ac:	8d4d 5e9a 8d4e 5eb7 8d4f 5f18 8d50 6052     M..^N..^O.._P.R`
    86bc:	8d51 614c 8d52 6297 8d53 62d8 8d54 63a7     Q.LaR..bS..bT..c
    86cc:	8d55 653b 8d56 6602 8d57 6643 8d58 66f4     U.;eV..fW.CfX..f
    86dc:	8d59 676d 8d5a 6821 8d5b 6897 8d5c 69cb     Y.mgZ.!h[..h\..i
    86ec:	8d5d 6c5f 8d5e 6d2a 8d5f 6d69 8d60 6e2f     ]._l^.*m_.im`./n
    86fc:	8d61 6e9d 8d62 7532 8d63 7687 8d64 786c     a..nb.2uc..vd.lx
    870c:	8d65 7a3f 8d66 7ce0 8d67 7d05 8d68 7d18     e.?zf..|g..}h..}
    871c:	8d69 7d5e 8d6a 7db1 8d6b 8015 8d6c 8003     i.^}j..}k...l...
    872c:	8d6d 80af 8d6e 80b1 8d6f 8154 8d70 818f     m...n...o.T.p...
    873c:	8d71 822a 8d72 8352 8d73 884c 8d74 8861     q.*.r.R.s.L.t.a.
    874c:	8d75 8b1b 8d76 8ca2 8d77 8cfc 8d78 90ca     u...v...w...x...
    875c:	8d79 9175 8d7a 9271 8d7b 783f 8d7c 92fc     y.u.z.q.{.?x|...
    876c:	8d7d 95a4 8d7e 964d 8d80 9805 8d81 9999     }...~.M.........
    877c:	8d82 9ad8 8d83 9d3b 8d84 525b 8d85 52ab     ......;...[R...R
    878c:	8d86 53f7 8d87 5408 8d88 58d5 8d89 62f7     ...S...T...X...b
    879c:	8d8a 6fe0 8d8b 8c6a 8d8c 8f5f 8d8d 9eb9     ...o..j..._.....
    87ac:	8d8e 514b 8d8f 523b 8d90 544a 8d91 56fd     ..KQ..;R..JT...V
    87bc:	8d92 7a40 8d93 9177 8d94 9d60 8d95 9ed2     ..@z..w...`.....
    87cc:	8d96 7344 8d97 6f09 8d98 8170 8d99 7511     ..Ds...o..p....u
    87dc:	8d9a 5ffd 8d9b 60da 8d9c 9aa8 8d9d 72db     ..._...`.......r
    87ec:	8d9e 8fbc 8d9f 6b64 8da0 9803 8da1 4eca     ......dk.......N
    87fc:	8da2 56f0 8da3 5764 8da4 58be 8da5 5a5a     ...V..dW...X..ZZ
    880c:	8da6 6068 8da7 61c7 8da8 660f 8da9 6606     ..h`...a...f...f
    881c:	8daa 6839 8dab 68b1 8dac 6df7 8dad 75d5     ..9h...h...m...u
    882c:	8dae 7d3a 8daf 826e 8db0 9b42 8db1 4e9b     ..:}..n...B....N
    883c:	8db2 4f50 8db3 53c9 8db4 5506 8db5 5d6f     ..PO...S...U..o]
    884c:	8db6 5de6 8db7 5dee 8db8 67fb 8db9 6c99     ...]...]...g...l
    885c:	8dba 7473 8dbb 7802 8dbc 8a50 8dbd 9396     ..st...x..P.....
    886c:	8dbe 88df 8dbf 5750 8dc0 5ea7 8dc1 632b     ......PW...^..+c
    887c:	8dc2 50b5 8dc3 50ac 8dc4 518d 8dc5 6700     ...P...P...Q...g
    888c:	8dc6 54c9 8dc7 585e 8dc8 59bb 8dc9 5bb0     ...T..^X...Y...[
    889c:	8dca 5f69 8dcb 624d 8dcc 63a1 8dcd 683d     ..i_..Mb...c..=h
    88ac:	8dce 6b73 8dcf 6e08 8dd0 707d 8dd1 91c7     ..sk...n..}p....
    88bc:	8dd2 7280 8dd3 7815 8dd4 7826 8dd5 796d     ...r...x..&x..my
    88cc:	8dd6 658e 8dd7 7d30 8dd8 83dc 8dd9 88c1     ...e..0}........
    88dc:	8dda 8f09 8ddb 969b 8ddc 5264 8ddd 5728     ..........dR..(W
    88ec:	8dde 6750 8ddf 7f6a 8de0 8ca1 8de1 51b4     ..Pg..j........Q
    88fc:	8de2 5742 8de3 962a 8de4 583a 8de5 698a     ..BW..*...:X...i
    890c:	8de6 80b4 8de7 54b2 8de8 5d0e 8de9 57fc     .......T...]...W
    891c:	8dea 7895 8deb 9dfa 8dec 4f5c 8ded 524a     ...x......\O..JR
    892c:	8dee 548b 8def 643e 8df0 6628 8df1 6714     ...T..>d..(f...g
    893c:	8df2 67f5 8df3 7a84 8df4 7b56 8df5 7d22     ...g...z..V{.."}
    894c:	8df6 932f 8df7 685c 8df8 9bad 8df9 7b39     ../...\h......9{
    895c:	8dfa 5319 8dfb 518a 8dfc 5237 8e40 5bdf     ...S...Q..7R@..[
    896c:	8e41 62f6 8e42 64ae 8e43 64e6 8e44 672d     A..bB..dC..dD.-g
    897c:	8e45 6bba 8e46 85a9 8e47 96d1 8e48 7690     E..kF...G...H..v
    898c:	8e49 9bd6 8e4a 634c 8e4b 9306 8e4c 9bab     I...J.LcK...L...
    899c:	8e4d 76bf 8e4e 6652 8e4f 4e09 8e50 5098     M..vN.RfO..NP..P
    89ac:	8e51 53c2 8e52 5c71 8e53 60e8 8e54 6492     Q..SR.q\S..`T..d
    89bc:	8e55 6563 8e56 685f 8e57 71e6 8e58 73ca     U.ceV._hW..qX..s
    89cc:	8e59 7523 8e5a 7b97 8e5b 7e82 8e5c 8695     Y.#uZ..{[..~\...
    89dc:	8e5d 8b83 8e5e 8cdb 8e5f 9178 8e60 9910     ]...^..._.x.`...
    89ec:	8e61 65ac 8e62 66ab 8e63 6b8b 8e64 4ed5     a..eb..fc..kd..N
    89fc:	8e65 4ed4 8e66 4f3a 8e67 4f7f 8e68 523a     e..Nf.:Og..Oh.:R
    8a0c:	8e69 53f8 8e6a 53f2 8e6b 55e3 8e6c 56db     i..Sj..Sk..Ul..V
    8a1c:	8e6d 58eb 8e6e 59cb 8e6f 59c9 8e70 59ff     m..Xn..Yo..Yp..Y
    8a2c:	8e71 5b50 8e72 5c4d 8e73 5e02 8e74 5e2b     q.P[r.M\s..^t.+^
    8a3c:	8e75 5fd7 8e76 601d 8e77 6307 8e78 652f     u.._v..`w..cx./e
    8a4c:	8e79 5b5c 8e7a 65af 8e7b 65bd 8e7c 65e8     y.\[z..e{..e|..e
    8a5c:	8e7d 679d 8e7e 6b62 8e80 6b7b 8e81 6c0f     }..g~.bk..{k...l
    8a6c:	8e82 7345 8e83 7949 8e84 79c1 8e85 7cf8     ..Es..Iy...y...|
    8a7c:	8e86 7d19 8e87 7d2b 8e88 80a2 8e89 8102     ...}..+}........
    8a8c:	8e8a 81f3 8e8b 8996 8e8c 8a5e 8e8d 8a69     ..........^...i.
    8a9c:	8e8e 8a66 8e8f 8a8c 8e90 8aee 8e91 8cc7     ..f.............
    8aac:	8e92 8cdc 8e93 96cc 8e94 98fc 8e95 6b6f     ..............ok
    8abc:	8e96 4e8b 8e97 4f3c 8e98 4f8d 8e99 5150     ...N..<O...O..PQ
    8acc:	8e9a 5b57 8e9b 5bfa 8e9c 6148 8e9d 6301     ..W[...[..Ha...c
    8adc:	8e9e 6642 8e9f 6b21 8ea0 6ecb 8ea1 6cbb     ..Bf..!k...n...l
    8aec:	8ea2 723e 8ea3 74bd 8ea4 75d4 8ea5 78c1     ..>r...t...u...x
    8afc:	8ea6 793a 8ea7 800c 8ea8 8033 8ea9 81ea     ..:y......3.....
    8b0c:	8eaa 8494 8eab 8f9e 8eac 6c50 8ead 9e7f     ..........Pl....
    8b1c:	8eae 5f0f 8eaf 8b58 8eb0 9d2b 8eb1 7afa     ..._..X...+....z
    8b2c:	8eb2 8ef8 8eb3 5b8d 8eb4 96eb 8eb5 4e03     .......[.......N
    8b3c:	8eb6 53f1 8eb7 57f7 8eb8 5931 8eb9 5ac9     ...S...W..1Y...Z
    8b4c:	8eba 5ba4 8ebb 6089 8ebc 6e7f 8ebd 6f06     ...[...`...n...o
    8b5c:	8ebe 75be 8ebf 8cea 8ec0 5b9f 8ec1 8500     ...u.......[....
    8b6c:	8ec2 7be0 8ec3 5072 8ec4 67f4 8ec5 829d     ...{..rP...g....
    8b7c:	8ec6 5c61 8ec7 854a 8ec8 7e1e 8ec9 820e     ..a\..J....~....
    8b8c:	8eca 5199 8ecb 5c04 8ecc 6368 8ecd 8d66     ...Q...\..hc..f.
    8b9c:	8ece 659c 8ecf 716e 8ed0 793e 8ed1 7d17     ...e..nq..>y...}
    8bac:	8ed2 8005 8ed3 8b1d 8ed4 8eca 8ed5 906e     ..............n.
    8bbc:	8ed6 86c7 8ed7 90aa 8ed8 501f 8ed9 52fa     ...........P...R
    8bcc:	8eda 5c3a 8edb 6753 8edc 707c 8edd 7235     ..:\..Sg..|p..5r
    8bdc:	8ede 914c 8edf 91c8 8ee0 932b 8ee1 82e5     ..L.......+.....
    8bec:	8ee2 5bc2 8ee3 5f31 8ee4 60f9 8ee5 4e3b     ...[..1_...`..;N
    8bfc:	8ee6 53d6 8ee7 5b88 8ee8 624b 8ee9 6731     ...S...[..Kb..1g
    8c0c:	8eea 6b8a 8eeb 72e9 8eec 73e0 8eed 7a2e     ...k...r...s...z
    8c1c:	8eee 816b 8eef 8da3 8ef0 9152 8ef1 9996     ..k.......R.....
    8c2c:	8ef2 5112 8ef3 53d7 8ef4 546a 8ef5 5bff     ...Q...S..jT...[
    8c3c:	8ef6 6388 8ef7 6a39 8ef8 7dac 8ef9 9700     ...c..9j...}....
    8c4c:	8efa 56da 8efb 53ce 8efc 5468 8f40 5b97     ...V...S..hT@..[
    8c5c:	8f41 5c31 8f42 5dde 8f43 4fee 8f44 6101     A.1\B..]C..OD..a
    8c6c:	8f45 62fe 8f46 6d32 8f47 79c0 8f48 79cb     E..bF.2mG..yH..y
    8c7c:	8f49 7d42 8f4a 7e4d 8f4b 7fd2 8f4c 81ed     I.B}J.M~K...L...
    8c8c:	8f4d 821f 8f4e 8490 8f4f 8846 8f50 8972     M...N...O.F.P.r.
    8c9c:	8f51 8b90 8f52 8e74 8f53 8f2f 8f54 9031     Q...R.t.S./.T.1.
    8cac:	8f55 914b 8f56 916c 8f57 96c6 8f58 919c     U.K.V.l.W...X...
    8cbc:	8f59 4ec0 8f5a 4f4f 8f5b 5145 8f5c 5341     Y..NZ.OO[.EQ\.AS
    8ccc:	8f5d 5f93 8f5e 620e 8f5f 67d4 8f60 6c41     ].._^..b_..g`.Al
    8cdc:	8f61 6e0b 8f62 7363 8f63 7e26 8f64 91cd     a..nb.csc.&~d...
    8cec:	8f65 9283 8f66 53d4 8f67 5919 8f68 5bbf     e...f..Sg..Yh..[
    8cfc:	8f69 6dd1 8f6a 795d 8f6b 7e2e 8f6c 7c9b     i..mj.]yk..~l..|
    8d0c:	8f6d 587e 8f6e 719f 8f6f 51fa 8f70 8853     m.~Xn..qo..Qp.S.
    8d1c:	8f71 8ff0 8f72 4fca 8f73 5cfb 8f74 6625     q...r..Os..\t.%f
    8d2c:	8f75 77ac 8f76 7ae3 8f77 821c 8f78 99ff     u..wv..zw...x...
    8d3c:	8f79 51c6 8f7a 5faa 8f7b 65ec 8f7c 696f     y..Qz.._{..e|.oi
    8d4c:	8f7d 6b89 8f7e 6df3 8f80 6e96 8f81 6f64     }..k~..m...n..do
    8d5c:	8f82 76fe 8f83 7d14 8f84 5de1 8f85 9075     ...v...}...]..u.
    8d6c:	8f86 9187 8f87 9806 8f88 51e6 8f89 521d     ...........Q...R
    8d7c:	8f8a 6240 8f8b 6691 8f8c 66d9 8f8d 6e1a     ..@b...f...f...n
    8d8c:	8f8e 5eb6 8f8f 7dd2 8f90 7f72 8f91 66f8     ...^...}..r....f
    8d9c:	8f92 85af 8f93 85f7 8f94 8af8 8f95 52a9     ...............R
    8dac:	8f96 53d9 8f97 5973 8f98 5e8f 8f99 5f90     ...S..sY...^..._
    8dbc:	8f9a 6055 8f9b 92e4 8f9c 9664 8f9d 50b7     ..U`......d....P
    8dcc:	8f9e 511f 8f9f 52dd 8fa0 5320 8fa1 5347     ...Q...R.. S..GS
    8ddc:	8fa2 53ec 8fa3 54e8 8fa4 5546 8fa5 5531     ...S...T..FU..1U
    8dec:	8fa6 5617 8fa7 5968 8fa8 59be 8fa9 5a3c     ...V..hY...Y..<Z
    8dfc:	8faa 5bb5 8fab 5c06 8fac 5c0f 8fad 5c11     ...[...\...\...\
    8e0c:	8fae 5c1a 8faf 5e84 8fb0 5e8a 8fb1 5ee0     ...\...^...^...^
    8e1c:	8fb2 5f70 8fb3 627f 8fb4 6284 8fb5 62db     ..p_...b...b...b
    8e2c:	8fb6 638c 8fb7 6377 8fb8 6607 8fb9 660c     ...c..wc...f...f
    8e3c:	8fba 662d 8fbb 6676 8fbc 677e 8fbd 68a2     ..-f..vf..~g...h
    8e4c:	8fbe 6a1f 8fbf 6a35 8fc0 6cbc 8fc1 6d88     ...j..5j...l...m
    8e5c:	8fc2 6e09 8fc3 6e58 8fc4 713c 8fc5 7126     ...n..Xn..<q..&q
    8e6c:	8fc6 7167 8fc7 75c7 8fc8 7701 8fc9 785d     ..gq...u...w..]x
    8e7c:	8fca 7901 8fcb 7965 8fcc 79f0 8fcd 7ae0     ...y..ey...y...z
    8e8c:	8fce 7b11 8fcf 7ca7 8fd0 7d39 8fd1 8096     ...{...|..9}....
    8e9c:	8fd2 83d6 8fd3 848b 8fd4 8549 8fd5 885d     ..........I...].
    8eac:	8fd6 88f3 8fd7 8a1f 8fd8 8a3c 8fd9 8a54     ..........<...T.
    8ebc:	8fda 8a73 8fdb 8c61 8fdc 8cde 8fdd 91a4     ..s...a.........
    8ecc:	8fde 9266 8fdf 937e 8fe0 9418 8fe1 969c     ..f...~.........
    8edc:	8fe2 9798 8fe3 4e0a 8fe4 4e08 8fe5 4e1e     .......N...N...N
    8eec:	8fe6 4e57 8fe7 5197 8fe8 5270 8fe9 57ce     ..WN...Q..pR...W
    8efc:	8fea 5834 8feb 58cc 8fec 5b22 8fed 5e38     ..4X...X.."[..8^
    8f0c:	8fee 60c5 8fef 64fe 8ff0 6761 8ff1 6756     ...`...d..ag..Vg
    8f1c:	8ff2 6d44 8ff3 72b6 8ff4 7573 8ff5 7a63     ..Dm...r..su..cz
    8f2c:	8ff6 84b8 8ff7 8b72 8ff8 91b8 8ff9 9320     ......r....... .
    8f3c:	8ffa 5631 8ffb 57f4 8ffc 98fe 9040 62ed     ..1V...W....@..b
    8f4c:	9041 690d 9042 6b96 9043 71ed 9044 7e54     A..iB..kC..qD.T~
    8f5c:	9045 8077 9046 8272 9047 89e6 9048 98df     E.w.F.r.G...H...
    8f6c:	9049 8755 904a 8fb1 904b 5c3b 904c 4f38     I.U.J...K.;\L.8O
    8f7c:	904d 4fe1 904e 4fb5 904f 5507 9050 5a20     M..ON..OO..UP. Z
    8f8c:	9051 5bdd 9052 5be9 9053 5fc3 9054 614e     Q..[R..[S.._T.Na
    8f9c:	9055 632f 9056 65b0 9057 664b 9058 68ee     U./cV..eW.KfX..h
    8fac:	9059 699b 905a 6d78 905b 6df1 905c 7533     Y..iZ.xm[..m\.3u
    8fbc:	905d 75b9 905e 771f 905f 795e 9060 79e6     ]..u^..w_.^y`..y
    8fcc:	9061 7d33 9062 81e3 9063 82af 9064 85aa     a.3}b...c...d...
    8fdc:	9065 89aa 9066 8a3a 9067 8eab 9068 8f9b     e...f.:.g...h...
    8fec:	9069 9032 906a 91dd 906b 9707 906c 4eba     i.2.j...k...l..N
    8ffc:	906d 4ec1 906e 5203 906f 5875 9070 58ec     m..Nn..Ro.uXp..X
    900c:	9071 5c0b 9072 751a 9073 5c3d 9074 814e     q..\r..us.=\t.N.
    901c:	9075 8a0a 9076 8fc5 9077 9663 9078 976d     u...v...w.c.x.m.
    902c:	9079 7b25 907a 8acf 907b 9808 907c 9162     y.%{z...{...|.b.
    903c:	907d 56f3 907e 53a8 9080 9017 9081 5439     }..V~..S......9T
    904c:	9082 5782 9083 5e25 9084 63a8 9085 6c34     ...W..%^...c..4l
    905c:	9086 708a 9087 7761 9088 7c8b 9089 7fe0     ...p..aw...|....
    906c:	908a 8870 908b 9042 908c 9154 908d 9310     ..p...B...T.....
    907c:	908e 9318 908f 968f 9090 745e 9091 9ac4     ..........^t....
    908c:	9092 5d07 9093 5d69 9094 6570 9095 67a2     ...]..i]..pe...g
    909c:	9096 8da8 9097 96db 9098 636e 9099 6749     ..........nc..Ig
    90ac:	909a 6919 909b 83c5 909c 9817 909d 96c0     ...i............
    90bc:	909e 88fe 909f 6f84 90a0 647a 90a1 5bf8     .......o..zd...[
    90cc:	90a2 4e16 90a3 702c 90a4 755d 90a5 662f     ...N..,p..]u../f
    90dc:	90a6 51c4 90a7 5236 90a8 52e2 90a9 59d3     ...Q..6R...R...Y
    90ec:	90aa 5f81 90ab 6027 90ac 6210 90ad 653f     ..._..'`...b..?e
    90fc:	90ae 6574 90af 661f 90b0 6674 90b1 68f2     ..te...f..tf...h
    910c:	90b2 6816 90b3 6b63 90b4 6e05 90b5 7272     ...h..ck...n..rr
    911c:	90b6 751f 90b7 76db 90b8 7cbe 90b9 8056     ...u...v...|..V.
    912c:	90ba 58f0 90bb 88fd 90bc 897f 90bd 8aa0     ...X............
    913c:	90be 8a93 90bf 8acb 90c0 901d 90c1 9192     ................
    914c:	90c2 9752 90c3 9759 90c4 6589 90c5 7a0e     ..R...Y....e...z
    915c:	90c6 8106 90c7 96bb 90c8 5e2d 90c9 60dc     ..........-^...`
    916c:	90ca 621a 90cb 65a5 90cc 6614 90cd 6790     ...b...e...f...g
    917c:	90ce 77f3 90cf 7a4d 90d0 7c4d 90d1 7e3e     ...w..Mz..M|..>~
    918c:	90d2 810a 90d3 8cac 90d4 8d64 90d5 8de1     ..........d.....
    919c:	90d6 8e5f 90d7 78a9 90d8 5207 90d9 62d9     .._....x...R...b
    91ac:	90da 63a5 90db 6442 90dc 6298 90dd 8a2d     ...c..Bd...b..-.
    91bc:	90de 7a83 90df 7bc0 90e0 8aac 90e1 96ea     ...z...{........
    91cc:	90e2 7d76 90e3 820c 90e4 8749 90e5 4ed9     ..v}......I....N
    91dc:	90e6 5148 90e7 5343 90e8 5360 90e9 5ba3     ..HQ..CS..`S...[
    91ec:	90ea 5c02 90eb 5c16 90ec 5ddd 90ed 6226     ...\...\...]..&b
    91fc:	90ee 6247 90ef 64b0 90f0 6813 90f1 6834     ..Gb...d...h..4h
    920c:	90f2 6cc9 90f3 6d45 90f4 6d17 90f5 67d3     ...l..Em...m...g
    921c:	90f6 6f5c 90f7 714e 90f8 717d 90f9 65cb     ..\o..Nq..}q...e
    922c:	90fa 7a7f 90fb 7bad 90fc 7dda 9140 7e4a     ...z...{...}@.J~
    923c:	9141 7fa8 9142 817a 9143 821b 9144 8239     A...B.z.C...D.9.
    924c:	9145 85a6 9146 8a6e 9147 8cce 9148 8df5     E...F.n.G...H...
    925c:	9149 9078 914a 9077 914b 92ad 914c 9291     I.x.J.w.K...L...
    926c:	914d 9583 914e 9bae 914f 524d 9150 5584     M...N...O.MRP..U
    927c:	9151 6f38 9152 7136 9153 5168 9154 7985     Q.8oR.6qS.hQT..y
    928c:	9155 7e55 9156 81b3 9157 7cce 9158 564c     U.U~V...W..|X.LV
    929c:	9159 5851 915a 5ca8 915b 63aa 915c 66fe     Y.QXZ..\[..c\..f
    92ac:	915d 66fd 915e 695a 915f 72d9 9160 758f     ]..f^.Zi_..r`..u
    92bc:	9161 758e 9162 790e 9163 7956 9164 79df     a..ub..yc.Vyd..y
    92cc:	9165 7c97 9166 7d20 9167 7d44 9168 8607     e..|f. }g.D}h...
    92dc:	9169 8a34 916a 963b 916b 9061 916c 9f20     i.4.j.;.k.a.l. .
    92ec:	916d 50e7 916e 5275 916f 53cc 9170 53e2     m..Pn.uRo..Sp..S
    92fc:	9171 5009 9172 55aa 9173 58ee 9174 594f     q..Pr..Us..Xt.OY
    930c:	9175 723d 9176 5b8b 9177 5c64 9178 531d     u.=rv..[w.d\x..S
    931c:	9179 60e3 917a 60f3 917b 635c 917c 6383     y..`z..`{.\c|..c
    932c:	917d 633f 917e 63bb 9180 64cd 9181 65e9     }.?c~..c...d...e
    933c:	9182 66f9 9183 5de3 9184 69cd 9185 69fd     ...f...]...i...i
    934c:	9186 6f15 9187 71e5 9188 4e89 9189 75e9     ...o...q...N...u
    935c:	918a 76f8 918b 7a93 918c 7cdf 918d 7dcf     ...v...z...|...}
    936c:	918e 7d9c 918f 8061 9190 8349 9191 8358     ...}..a...I...X.
    937c:	9192 846c 9193 84bc 9194 85fb 9195 88c5     ..l.............
    938c:	9196 8d70 9197 9001 9198 906d 9199 9397     ..p.......m.....
    939c:	919a 971c 919b 9a12 919c 50cf 919d 5897     ...........P...X
    93ac:	919e 618e 919f 81d3 91a0 8535 91a1 8d08     ...a......5.....
    93bc:	91a2 9020 91a3 4fc3 91a4 5074 91a5 5247     .. ....O..tP..GR
    93cc:	91a6 5373 91a7 606f 91a8 6349 91a9 675f     ..sS..o`..Ic.._g
    93dc:	91aa 6e2c 91ab 8db3 91ac 901f 91ad 4fd7     ..,n...........O
    93ec:	91ae 5c5e 91af 8cca 91b0 65cf 91b1 7d9a     ..^\.......e...}
    93fc:	91b2 5352 91b3 8896 91b4 5176 91b5 63c3     ..RS......vQ...c
    940c:	91b6 5b58 91b7 5b6b 91b8 5c0a 91b9 640d     ..X[..k[...\...d
    941c:	91ba 6751 91bb 905c 91bc 4ed6 91bd 591a     ..Qg..\....N...Y
    942c:	91be 592a 91bf 6c70 91c0 8a51 91c1 553e     ..*Y..pl..Q...>U
    943c:	91c2 5815 91c3 59a5 91c4 60f0 91c5 6253     ...X...Y...`..Sb
    944c:	91c6 67c1 91c7 8235 91c8 6955 91c9 9640     ...g..5...Ui..@.
    945c:	91ca 99c4 91cb 9a28 91cc 4f53 91cd 5806     ......(...SO...X
    946c:	91ce 5bfe 91cf 8010 91d0 5cb1 91d1 5e2f     ...[.......\../^
    947c:	91d2 5f85 91d3 6020 91d4 614b 91d5 6234     ..._.. `..Ka..4b
    948c:	91d6 66ff 91d7 6cf0 91d8 6ede 91d9 80ce     ...f...l...n....
    949c:	91da 817f 91db 82d4 91dc 888b 91dd 8cb8     ................
    94ac:	91de 9000 91df 902e 91e0 968a 91e1 9edb     ................
    94bc:	91e2 9bdb 91e3 4ee3 91e4 53f0 91e5 5927     .......N...S..'Y
    94cc:	91e6 7b2c 91e7 918d 91e8 984c 91e9 9df9     ..,{......L.....
    94dc:	91ea 6edd 91eb 7027 91ec 5353 91ed 5544     ...n..'p..SS..DU
    94ec:	91ee 5b85 91ef 6258 91f0 629e 91f1 62d3     ...[..Xb...b...b
    94fc:	91f2 6ca2 91f3 6fef 91f4 7422 91f5 8a17     ...l...o.."t....
    950c:	91f6 9438 91f7 6fc1 91f8 8afe 91f9 8338     ..8....o......8.
    951c:	91fa 51e7 91fb 86f8 91fc 53ea 9240 53e9     ...Q.......S@..S
    952c:	9241 4f46 9242 9054 9243 8fb0 9244 596a     A.FOB.T.C...D.jY
    953c:	9245 8131 9246 5dfd 9247 7aea 9248 8fbf     E.1.F..]G..zH...
    954c:	9249 68da 924a 8c37 924b 72f8 924c 9c48     I..hJ.7.K..rL.H.
    955c:	924d 6a3d 924e 8ab0 924f 4e39 9250 5358     M.=jN...O.9NP.XS
    956c:	9251 5606 9252 5766 9253 62c5 9254 63a2     Q..VR.fWS..bT..c
    957c:	9255 65e6 9256 6b4e 9257 6de1 9258 6e5b     U..eV.NkW..mX.[n
    958c:	9259 70ad 925a 77ed 925b 7aef 925c 7baa     Y..pZ..w[..z\..{
    959c:	925d 7dbb 925e 803d 925f 80c6 9260 86cb     ]..}^.=._...`...
    95ac:	9261 8a95 9262 935b 9263 56e3 9264 58c7     a...b.[.c..Vd..X
    95bc:	9265 5f3e 9266 65ad 9267 6696 9268 6a80     e.>_f..eg..fh..j
    95cc:	9269 6bb5 926a 7537 926b 8ac7 926c 5024     i..kj.7uk...l.$P
    95dc:	926d 77e5 926e 5730 926f 5f1b 9270 6065     m..wn.0Wo.._p.e`
    95ec:	9271 667a 9272 6c60 9273 75f4 9274 7a1a     q.zfr.`ls..ut..z
    95fc:	9275 7f6e 9276 81f4 9277 8718 9278 9045     u.n.v...w...x.E.
    960c:	9279 99b3 927a 7bc9 927b 755c 927c 7af9     y...z..{{.\u|..z
    961c:	927d 7b51 927e 84c4 9280 9010 9281 79e9     }.Q{~..........y
    962c:	9282 7a92 9283 8336 9284 5ae1 9285 7740     ...z..6....Z..@w
    963c:	9286 4e2d 9287 4ef2 9288 5b99 9289 5fe0     ..-N...N...[..._
    964c:	928a 62bd 928b 663c 928c 67f1 928d 6ce8     ...b..<f...g...l
    965c:	928e 866b 928f 8877 9290 8a3b 9291 914e     ..k...w...;...N.
    966c:	9292 92f3 9293 99d0 9294 6a17 9295 7026     ...........j..&p
    967c:	9296 732a 9297 82e7 9298 8457 9299 8caf     ..*s......W.....
    968c:	929a 4e01 929b 5146 929c 51cb 929d 558b     ...N..FQ...Q...U
    969c:	929e 5bf5 929f 5e16 92a0 5e33 92a1 5e81     ...[...^..3^...^
    96ac:	92a2 5f14 92a3 5f35 92a4 5f6b 92a5 5fb4     ..._..5_..k_..._
    96bc:	92a6 61f2 92a7 6311 92a8 66a2 92a9 671d     ...a...c...f...g
    96cc:	92aa 6f6e 92ab 7252 92ac 753a 92ad 773a     ..no..Rr..:u..:w
    96dc:	92ae 8074 92af 8139 92b0 8178 92b1 8776     ..t...9...x...v.
    96ec:	92b2 8abf 92b3 8adc 92b4 8d85 92b5 8df3     ................
    96fc:	92b6 929a 92b7 9577 92b8 9802 92b9 9ce5     ......w.........
    970c:	92ba 52c5 92bb 6357 92bc 76f4 92bd 6715     ...R..Wc...v...g
    971c:	92be 6c88 92bf 73cd 92c0 8cc3 92c1 93ae     ...l...s........
    972c:	92c2 9673 92c3 6d25 92c4 589c 92c5 690e     ..s...%m...X...i
    973c:	92c6 69cc 92c7 8ffd 92c8 939a 92c9 75db     ...i...........u
    974c:	92ca 901a 92cb 585a 92cc 6802 92cd 63b4     ......ZX...h...c
    975c:	92ce 69fb 92cf 4f43 92d0 6f2c 92d1 67d8     ...i..CO..,o...g
    976c:	92d2 8fbb 92d3 8526 92d4 7db4 92d5 9354     ......&....}..T.
    977c:	92d6 693f 92d7 6f70 92d8 576a 92d9 58f7     ..?i..po..jW...X
    978c:	92da 5b2c 92db 7d2c 92dc 722a 92dd 540a     ..,[..,}..*r...T
    979c:	92de 91e3 92df 9db4 92e0 4ead 92e1 4f4e     ...........N..NO
    97ac:	92e2 505c 92e3 5075 92e4 5243 92e5 8c9e     ..\P..uP..CR....
    97bc:	92e6 5448 92e7 5824 92e8 5b9a 92e9 5e1d     ..HT..$X...[...^
    97cc:	92ea 5e95 92eb 5ead 92ec 5ef7 92ed 5f1f     ...^...^...^..._
    97dc:	92ee 608c 92ef 62b5 92f0 633a 92f1 63d0     ...`...b..:c...c
    97ec:	92f2 68af 92f3 6c40 92f4 7887 92f5 798e     ...h..@l...x...y
    97fc:	92f6 7a0b 92f7 7de0 92f8 8247 92f9 8a02     ...z...}..G.....
    980c:	92fa 8ae6 92fb 8e44 92fc 9013 9340 90b8     ......D.....@...
    981c:	9341 912d 9342 91d8 9343 9f0e 9344 6ce5     A.-.B...C...D..l
    982c:	9345 6458 9346 64e2 9347 6575 9348 6ef4     E.XdF..dG.ueH..n
    983c:	9349 7684 934a 7b1b 934b 9069 934c 93d1     I..vJ..{K.i.L...
    984c:	934d 6eba 934e 54f2 934f 5fb9 9350 64a4     M..nN..TO.._P..d
    985c:	9351 8f4d 9352 8fed 9353 9244 9354 5178     Q.M.R...S.D.T.xQ
    986c:	9355 586b 9356 5929 9357 5c55 9358 5e97     U.kXV.)YW.U\X..^
    987c:	9359 6dfb 935a 7e8f 935b 751c 935c 8cbc     Y..mZ..~[..u\...
    988c:	935d 8ee2 935e 985b 935f 70b9 9360 4f1d     ]...^.[._..p`..O
    989c:	9361 6bbf 9362 6fb1 9363 7530 9364 96fb     a..kb..oc.0ud...
    98ac:	9365 514e 9366 5410 9367 5835 9368 5857     e.NQf..Tg.5Xh.WX
    98bc:	9369 59ac 936a 5c60 936b 5f92 936c 6597     i..Yj.`\k.._l..e
    98cc:	936d 675c 936e 6e21 936f 767b 9370 83df     m.\gn.!no.{vp...
    98dc:	9371 8ced 9372 9014 9373 90fd 9374 934d     q...r...s...t.M.
    98ec:	9375 7825 9376 783a 9377 52aa 9378 5ea6     u.%xv.:xw..Rx..^
    98fc:	9379 571f 937a 5974 937b 6012 937c 5012     y..Wz.tY{..`|..P
    990c:	937d 515a 937e 51ac 9380 51cd 9381 5200     }.ZQ~..Q...Q...R
    991c:	9382 5510 9383 5854 9384 5858 9385 5957     ...U..TX..XX..WY
    992c:	9386 5b95 9387 5cf6 9388 5d8b 9389 60bc     ...[...\...]...`
    993c:	938a 6295 938b 642d 938c 6771 938d 6843     ...b..-d..qg..Ch
    994c:	938e 68bc 938f 68df 9390 76d7 9391 6dd8     ...h...h...v...m
    995c:	9392 6e6f 9393 6d9b 9394 706f 9395 71c8     ..on...m..op...q
    996c:	9396 5f53 9397 75d8 9398 7977 9399 7b49     ..S_...u..wy..I{
    997c:	939a 7b54 939b 7b52 939c 7cd6 939d 7d71     ..T{..R{...|..q}
    998c:	939e 5230 939f 8463 93a0 8569 93a1 85e4     ..0R..c...i.....
    999c:	93a2 8a0e 93a3 8b04 93a4 8c46 93a5 8e0f     ..........F.....
    99ac:	93a6 9003 93a7 900f 93a8 9419 93a9 9676     ..............v.
    99bc:	93aa 982d 93ab 9a30 93ac 95d8 93ad 50cd     ..-...0........P
    99cc:	93ae 52d5 93af 540c 93b0 5802 93b1 5c0e     ...R...T...X...\
    99dc:	93b2 61a7 93b3 649e 93b4 6d1e 93b5 77b3     ...a...d...m...w
    99ec:	93b6 7ae5 93b7 80f4 93b8 8404 93b9 9053     ...z..........S.
    99fc:	93ba 9285 93bb 5ce0 93bc 9d07 93bd 533f     .......\......?S
    9a0c:	93be 5f97 93bf 5fb3 93c0 6d9c 93c1 7279     ..._..._...m..yr
    9a1c:	93c2 7763 93c3 79bf 93c4 7be4 93c5 6bd2     ..cw...y...{...k
    9a2c:	93c6 72ec 93c7 8aad 93c8 6803 93c9 6a61     ...r.......h..aj
    9a3c:	93ca 51f8 93cb 7a81 93cc 6934 93cd 5c4a     ...Q...z..4i..J\
    9a4c:	93ce 9cf6 93cf 82eb 93d0 5bc5 93d1 9149     ...........[..I.
    9a5c:	93d2 701e 93d3 5678 93d4 5c6f 93d5 60c7     ...p..xV..o\...`
    9a6c:	93d6 6566 93d7 6c8c 93d8 8c5a 93d9 9041     ..fe...l..Z...A.
    9a7c:	93da 9813 93db 5451 93dc 66c7 93dd 920d     ......QT...f....
    9a8c:	93de 5948 93df 90a3 93e0 5185 93e1 4e4d     ..HY.......Q..MN
    9a9c:	93e2 51ea 93e3 8599 93e4 8b0e 93e5 7058     ...Q..........Xp
    9aac:	93e6 637a 93e7 934b 93e8 6962 93e9 99b4     ..zc..K...bi....
    9abc:	93ea 7e04 93eb 7577 93ec 5357 93ed 6960     ...~..wu..WS..`i
    9acc:	93ee 8edf 93ef 96e3 93f0 6c5d 93f1 4e8c     ..........]l...N
    9adc:	93f2 5c3c 93f3 5f10 93f4 8fe9 93f5 5302     ..<\..._.......S
    9aec:	93f6 8cd1 93f7 8089 93f8 8679 93f9 5eff     ..........y....^
    9afc:	93fa 65e5 93fb 4e73 93fc 5165 9440 5982     ...e..sN..eQ@..Y
    9b0c:	9441 5c3f 9442 97ee 9443 4efb 9444 598a     A.?\B...C..ND..Y
    9b1c:	9445 5fcd 9446 8a8d 9447 6fe1 9448 79b0     E.._F...G..oH..y
    9b2c:	9449 7962 944a 5be7 944b 8471 944c 732b     I.byJ..[K.q.L.+s
    9b3c:	944d 71b1 944e 5e74 944f 5ff5 9450 637b     M..qN.t^O.._P.{c
    9b4c:	9451 649a 9452 71c3 9453 7c98 9454 4e43     Q..dR..qS..|T.CN
    9b5c:	9455 5efc 9456 4e4b 9457 57dc 9458 56a2     U..^V.KNW..WX..V
    9b6c:	9459 60a9 945a 6fc3 945b 7d0d 945c 80fd     Y..`Z..o[..}\...
    9b7c:	945d 8133 945e 81bf 945f 8fb2 9460 8997     ].3.^..._...`...
    9b8c:	9461 86a4 9462 5df4 9463 628a 9464 64ad     a...b..]c..bd..d
    9b9c:	9465 8987 9466 6777 9467 6ce2 9468 6d3e     e...f.wgg..lh.>m
    9bac:	9469 7436 946a 7834 946b 5a46 946c 7f75     i.6tj.4xk.FZl.u.
    9bbc:	946d 82ad 946e 99ac 946f 4ff3 9470 5ec3     m...n...o..Op..^
    9bcc:	9471 62dd 9472 6392 9473 6557 9474 676f     q..br..cs.Wet.og
    9bdc:	9475 76c3 9476 724c 9477 80cc 9478 80ba     u..vv.Lrw...x...
    9bec:	9479 8f29 947a 914d 947b 500d 947c 57f9     y.).z.M.{..P|..W
    9bfc:	947d 5a92 947e 6885 9480 6973 9481 7164     }..Z~..h..si..dq
    9c0c:	9482 72fd 9483 8cb7 9484 58f2 9485 8ce0     ...r.......X....
    9c1c:	9486 966a 9487 9019 9488 877f 9489 79e4     ..j............y
    9c2c:	948a 77e7 948b 8429 948c 4f2f 948d 5265     ...w..).../O..eR
    9c3c:	948e 535a 948f 62cd 9490 67cf 9491 6cca     ..ZS...b...g...l
    9c4c:	9492 767d 9493 7b94 9494 7c95 9495 8236     ..}v...{...|..6.
    9c5c:	9496 8584 9497 8feb 9498 66dd 9499 6f20     ...........f.. o
    9c6c:	949a 7206 949b 7e1b 949c 83ab 949d 99c1     ...r...~........
    9c7c:	949e 9ea6 949f 51fd 94a0 7bb1 94a1 7872     .......Q...{..rx
    9c8c:	94a2 7bb8 94a3 8087 94a4 7b48 94a5 6ae8     ...{......H{...j
    9c9c:	94a6 5e61 94a7 808c 94a8 7551 94a9 7560     ..a^......Qu..`u
    9cac:	94aa 516b 94ab 9262 94ac 6e8c 94ad 767a     ..kQ..b....n..zv
    9cbc:	94ae 9197 94af 9aea 94b0 4f10 94b1 7f70     ...........O..p.
    9ccc:	94b2 629c 94b3 7b4f 94b4 95a5 94b5 9ce9     ...b..O{........
    9cdc:	94b6 567a 94b7 5859 94b8 86e4 94b9 96bc     ..zV..YX........
    9cec:	94ba 4f34 94bb 5224 94bc 534a 94bd 53cd     ..4O..$R..JS...S
    9cfc:	94be 53db 94bf 5e06 94c0 642c 94c1 6591     ...S...^..,d...e
    9d0c:	94c2 677f 94c3 6c3e 94c4 6c4e 94c5 7248     ...g..>l..Nl..Hr
    9d1c:	94c6 72af 94c7 73ed 94c8 7554 94c9 7e41     ...r...s..Tu..A~
    9d2c:	94ca 822c 94cb 85e9 94cc 8ca9 94cd 7bc4     ..,............{
    9d3c:	94ce 91c6 94cf 7169 94d0 9812 94d1 98ef     ......iq........
    9d4c:	94d2 633d 94d3 6669 94d4 756a 94d5 76e4     ..=c..if..ju...v
    9d5c:	94d6 78d0 94d7 8543 94d8 86ee 94d9 532a     ...x..C.......*S
    9d6c:	94da 5351 94db 5426 94dc 5983 94dd 5e87     ..QS..&T...Y...^
    9d7c:	94de 5f7c 94df 60b2 94e0 6249 94e1 6279     ..|_...`..Ib..yb
    9d8c:	94e2 62ab 94e3 6590 94e4 6bd4 94e5 6ccc     ...b...e...k...l
    9d9c:	94e6 75b2 94e7 76ae 94e8 7891 94e9 79d8     ...u...v...x...y
    9dac:	94ea 7dcb 94eb 7f77 94ec 80a5 94ed 88ab     ...}..w.........
    9dbc:	94ee 8ab9 94ef 8cbb 94f0 907f 94f1 975e     ..............^.
    9dcc:	94f2 98db 94f3 6a0b 94f4 7c38 94f5 5099     .......j..8|...P
    9ddc:	94f6 5c3e 94f7 5fae 94f8 6787 94f9 6bd8     ..>\..._...g...k
    9dec:	94fa 7435 94fb 7709 94fc 7f8e 9540 9f3b     ..5t...w....@.;.
    9dfc:	9541 67ca 9542 7a17 9543 5339 9544 758b     A..gB..zC.9SD..u
    9e0c:	9545 9aed 9546 5f66 9547 819d 9548 83f1     E...F.f_G...H...
    9e1c:	9549 8098 954a 5f3c 954b 5fc5 954c 7562     I...J.<_K.._L.bu
    9e2c:	954d 7b46 954e 903c 954f 6867 9550 59eb     M.F{N.<.O.ghP..Y
    9e3c:	9551 5a9b 9552 7d10 9553 767e 9554 8b2c     Q..ZR..}S.~vT.,.
    9e4c:	9555 4ff5 9556 5f6a 9557 6a19 9558 6c37     U..OV.j_W..jX.7l
    9e5c:	9559 6f02 955a 74e2 955b 7968 955c 8868     Y..oZ..t[.hy\.h.
    9e6c:	955d 8a55 955e 8c79 955f 5edf 9560 63cf     ].U.^.y._..^`..c
    9e7c:	9561 75c5 9562 79d2 9563 82d7 9564 9328     a..ub..yc...d.(.
    9e8c:	9565 92f2 9566 849c 9567 86ed 9568 9c2d     e...f...g...h.-.
    9e9c:	9569 54c1 956a 5f6c 956b 658c 956c 6d5c     i..Tj.l_k..el.\m
    9eac:	956d 7015 956e 8ca7 956f 8cd3 9570 983b     m..pn...o...p.;.
    9ebc:	9571 654f 9572 74f6 9573 4e0d 9574 4ed8     q.Oer..ts..Nt..N
    9ecc:	9575 57e0 9576 592b 9577 5a66 9578 5bcc     u..Wv.+Yw.fZx..[
    9edc:	9579 51a8 957a 5e03 957b 5e9c 957c 6016     y..Qz..^{..^|..`
    9eec:	957d 6276 957e 6577 9580 65a7 9581 666e     }.vb~.we...e..nf
    9efc:	9582 6d6e 9583 7236 9584 7b26 9585 8150     ..nm..6r..&{..P.
    9f0c:	9586 819a 9587 8299 9588 8b5c 9589 8ca0     ..........\.....
    9f1c:	958a 8ce6 958b 8d74 958c 961c 958d 9644     ......t.......D.
    9f2c:	958e 4fae 958f 64ab 9590 6b66 9591 821e     ...O...d..fk....
    9f3c:	9592 8461 9593 856a 9594 90e8 9595 5c01     ..a...j........\
    9f4c:	9596 6953 9597 98a8 9598 847a 9599 8557     ..Si......z...W.
    9f5c:	959a 4f0f 959b 526f 959c 5fa9 959d 5e45     ...O..oR..._..E^
    9f6c:	959e 670d 959f 798f 95a0 8179 95a1 8907     ...g...y..y.....
    9f7c:	95a2 8986 95a3 6df5 95a4 5f17 95a5 6255     .......m..._..Ub
    9f8c:	95a6 6cb8 95a7 4ecf 95a8 7269 95a9 9b92     ...l...N..ir....
    9f9c:	95aa 5206 95ab 543b 95ac 5674 95ad 58b3     ...R..;T..tV...X
    9fac:	95ae 61a4 95af 626e 95b0 711a 95b1 596e     ...a..nb...q..nY
    9fbc:	95b2 7c89 95b3 7cde 95b4 7d1b 95b5 96f0     ...|...|...}....
    9fcc:	95b6 6587 95b7 805e 95b8 4e19 95b9 4f75     ...e..^....N..uO
    9fdc:	95ba 5175 95bb 5840 95bc 5e63 95bd 5e73     ..uQ..@X..c^..s^
    9fec:	95be 5f0a 95bf 67c4 95c0 4e26 95c1 853d     ..._...g..&N..=.
    9ffc:	95c2 9589 95c3 965b 95c4 7c73 95c5 9801     ......[...s|....
    a00c:	95c6 50fb 95c7 58c1 95c8 7656 95c9 78a7     ...P...X..Vv...x
    a01c:	95ca 5225 95cb 77a5 95cc 8511 95cd 7b86     ..%R...w.......{
    a02c:	95ce 504f 95cf 5909 95d0 7247 95d1 7bc7     ..OP...Y..Gr...{
    a03c:	95d2 7de8 95d3 8fba 95d4 8fd4 95d5 904d     ...}..........M.
    a04c:	95d6 4fbf 95d7 52c9 95d8 5a29 95d9 5f01     ...O...R..)Z..._
    a05c:	95da 97ad 95db 4fdd 95dc 8217 95dd 92ea     .......O........
    a06c:	95de 5703 95df 6355 95e0 6b69 95e1 752b     ...W..Uc..ik..+u
    a07c:	95e2 88dc 95e3 8f14 95e4 7a42 95e5 52df     ..........Bz...R
    a08c:	95e6 5893 95e7 6155 95e8 620a 95e9 66ae     ...X..Ua...b...f
    a09c:	95ea 6bcd 95eb 7c3f 95ec 83e9 95ed 5023     ...k..?|......#P
    a0ac:	95ee 4ff8 95ef 5305 95f0 5446 95f1 5831     ...O...S..FT..1X
    a0bc:	95f2 5949 95f3 5b9d 95f4 5cf0 95f5 5cef     ..IY...[...\...\
    a0cc:	95f6 5d29 95f7 5e96 95f8 62b1 95f9 6367     ..)]...^...b..gc
    a0dc:	95fa 653e 95fb 65b9 95fc 670b 9640 6cd5     ..>e...e...g@..l
    a0ec:	9641 6ce1 9642 70f9 9643 7832 9644 7e2b     A..lB..pC.2xD.+~
    a0fc:	9645 80de 9646 82b3 9647 840c 9648 84ec     E...F...G...H...
    a10c:	9649 8702 964a 8912 964b 8a2a 964c 8c4a     I...J...K.*.L.J.
    a11c:	964d 90a6 964e 92d2 964f 98fd 9650 9cf3     M...N...O...P...
    a12c:	9651 9d6c 9652 4e4f 9653 4ea1 9654 508d     Q.l.R.ONS..NT..P
    a13c:	9655 5256 9656 574a 9657 59a8 9658 5e3d     U.VRV.JWW..YX.=^
    a14c:	9659 5fd8 965a 5fd9 965b 623f 965c 66b4     Y.._Z.._[.?b\..f
    a15c:	965d 671b 965e 67d0 965f 68d2 9660 5192     ]..g^..g_..h`..Q
    a16c:	9661 7d21 9662 80aa 9663 81a8 9664 8b00     a.!}b...c...d...
    a17c:	9665 8c8c 9666 8cbf 9667 927e 9668 9632     e...f...g.~.h.2.
    a18c:	9669 5420 966a 982c 966b 5317 966c 50d5     i. Tj.,.k..Sl..P
    a19c:	966d 535c 966e 58a8 966f 64b2 9670 6734     m.\Sn..Xo..dp.4g
    a1ac:	9671 7267 9672 7766 9673 7a46 9674 91e6     q.grr.fws.Fzt...
    a1bc:	9675 52c3 9676 6ca1 9677 6b86 9678 5800     u..Rv..lw..kx..X
    a1cc:	9679 5e4c 967a 5954 967b 672c 967c 7ffb     y.L^z.TY{.,g|...
    a1dc:	967d 51e1 967e 76c6 9680 6469 9681 78e8     }..Q~..v..id...x
    a1ec:	9682 9b54 9683 9ebb 9684 57cb 9685 59b9     ..T........W...Y
    a1fc:	9686 6627 9687 679a 9688 6bce 9689 54e9     ..'f...g...k...T
    a20c:	968a 69d9 968b 5e55 968c 819c 968d 6795     ...i..U^.......g
    a21c:	968e 9baa 968f 67fe 9690 9c52 9691 685d     .......g..R...]h
    a22c:	9692 4ea6 9693 4fe3 9694 53c8 9695 62b9     ...N...O...S...b
    a23c:	9696 672b 9697 6cab 9698 8fc4 9699 4fad     ..+g...l.......O
    a24c:	969a 7e6d 969b 9ebf 969c 4e07 969d 6162     ..m~.......N..ba
    a25c:	969e 6e80 969f 6f2b 96a0 8513 96a1 5473     ...n..+o......sT
    a26c:	96a2 672a 96a3 9b45 96a4 5df3 96a5 7b95     ..*g..E....]...{
    a27c:	96a6 5cac 96a7 5bc6 96a8 871c 96a9 6e4a     ...\...[......Jn
    a28c:	96aa 84d1 96ab 7a14 96ac 8108 96ad 5999     .......z.......Y
    a29c:	96ae 7c8d 96af 6c11 96b0 7720 96b1 52d9     ...|...l.. w...R
    a2ac:	96b2 5922 96b3 7121 96b4 725f 96b5 77db     .."Y..!q.._r...w
    a2bc:	96b6 9727 96b7 9d61 96b8 690b 96b9 5a7f     ..'...a....i...Z
    a2cc:	96ba 5a18 96bb 51a5 96bc 540d 96bd 547d     ...Z...Q...T..}T
    a2dc:	96be 660e 96bf 76df 96c0 8ff7 96c1 9298     ...f...v........
    a2ec:	96c2 9cf4 96c3 59ea 96c4 725d 96c5 6ec5     .......Y..]r...n
    a2fc:	96c6 514d 96c7 68c9 96c8 7dbf 96c9 7dec     ..MQ...h...}...}
    a30c:	96ca 9762 96cb 9eba 96cc 6478 96cd 6a21     ..b.......xd..!j
    a31c:	96ce 8302 96cf 5984 96d0 5b5f 96d1 6bdb     .......Y.._[...k
    a32c:	96d2 731b 96d3 76f2 96d4 7db2 96d5 8017     ...s...v...}....
    a33c:	96d6 8499 96d7 5132 96d8 6728 96d9 9ed9     ......2Q..(g....
    a34c:	96da 76ee 96db 6762 96dc 52ff 96dd 9905     ...v..bg...R....
    a35c:	96de 5c24 96df 623b 96e0 7c7e 96e1 8cb0     ..$\..;b..~|....
    a36c:	96e2 554f 96e3 60b6 96e4 7d0b 96e5 9580     ..OU...`...}....
    a37c:	96e6 5301 96e7 4e5f 96e8 51b6 96e9 591c     ...S.._N...Q...Y
    a38c:	96ea 723a 96eb 8036 96ec 91ce 96ed 5f25     ..:r..6.......%_
    a39c:	96ee 77e2 96ef 5384 96f0 5f79 96f1 7d04     ...w...S..y_...}
    a3ac:	96f2 85ac 96f3 8a33 96f4 8e8d 96f5 9756     ......3.......V.
    a3bc:	96f6 67f3 96f7 85ae 96f8 9453 96f9 6109     ...g......S....a
    a3cc:	96fa 6108 96fb 6cb9 96fc 7652 9740 8aed     ...a...l..Rv@...
    a3dc:	9741 8f38 9742 552f 9743 4f51 9744 512a     A.8.B./UC.QOD.*Q
    a3ec:	9745 52c7 9746 53cb 9747 5ba5 9748 5e7d     E..RF..SG..[H.}^
    a3fc:	9749 60a0 974a 6182 974b 63d6 974c 6709     I..`J..aK..cL..g
    a40c:	974d 67da 974e 6e67 974f 6d8c 9750 7336     M..gN.gnO..mP.6s
    a41c:	9751 7337 9752 7531 9753 7950 9754 88d5     Q.7sR.1uS.PyT...
    a42c:	9755 8a98 9756 904a 9757 9091 9758 90f5     U...V.J.W...X...
    a43c:	9759 96c4 975a 878d 975b 5915 975c 4e88     Y...Z...[..Y\..N
    a44c:	975d 4f59 975e 4e0e 975f 8a89 9760 8f3f     ].YO^..N_...`.?.
    a45c:	9761 9810 9762 50ad 9763 5e7c 9764 5996     a...b..Pc.|^d..Y
    a46c:	9765 5bb9 9766 5eb8 9767 63da 9768 63fa     e..[f..^g..ch..c
    a47c:	9769 64c1 976a 66dc 976b 694a 976c 69d8     i..dj..fk.Jil..i
    a48c:	976d 6d0b 976e 6eb6 976f 7194 9770 7528     m..mn..no..qp.(u
    a49c:	9771 7aaf 9772 7f8a 9773 8000 9774 8449     q..zr...s...t.I.
    a4ac:	9775 84c9 9776 8981 9777 8b21 9778 8e0a     u...v...w.!.x...
    a4bc:	9779 9065 977a 967d 977b 990a 977c 617e     y.e.z.}.{...|.~a
    a4cc:	977d 6291 977e 6b32 9780 6c83 9781 6d74     }..b~.2k...l..tm
    a4dc:	9782 7fcc 9783 7ffc 9784 6dc0 9785 7f85     ...........m....
    a4ec:	9786 87ba 9787 88f8 9788 6765 9789 83b1     ..........eg....
    a4fc:	978a 983c 978b 96f7 978c 6d1b 978d 7d61     ..<........m..a}
    a50c:	978e 843d 978f 916a 9790 4e71 9791 5375     ..=...j...qN..uS
    a51c:	9792 5d50 9793 6b04 9794 6feb 9795 85cd     ..P]...k...o....
    a52c:	9796 862d 9797 89a7 9798 5229 9799 540f     ..-.......)R...T
    a53c:	979a 5c65 979b 674e 979c 68a8 979d 7406     ..e\..Ng...h...t
    a54c:	979e 7483 979f 75e2 97a0 88cf 97a1 88e1     ...t...u........
    a55c:	97a2 91cc 97a3 96e2 97a4 9678 97a5 5f8b     ..........x...._
    a56c:	97a6 7387 97a7 7acb 97a8 844e 97a9 63a0     ...s...z..N....c
    a57c:	97aa 7565 97ab 5289 97ac 6d41 97ad 6e9c     ..eu...R..Am...n
    a58c:	97ae 7409 97af 7559 97b0 786b 97b1 7c92     ...t..Yu..kx...|
    a59c:	97b2 9686 97b3 7adc 97b4 9f8d 97b5 4fb6     .......z.......O
    a5ac:	97b6 616e 97b7 65c5 97b8 865c 97b9 4e86     ..na...e..\....N
    a5bc:	97ba 4eae 97bb 50da 97bc 4e21 97bd 51cc     ...N...P..!N...Q
    a5cc:	97be 5bee 97bf 6599 97c0 6881 97c1 6dbc     ...[...e...h...m
    a5dc:	97c2 731f 97c3 7642 97c4 77ad 97c5 7a1c     ...s..Bv...w...z
    a5ec:	97c6 7ce7 97c7 826f 97c8 8ad2 97c9 907c     ...|..o.......|.
    a5fc:	97ca 91cf 97cb 9675 97cc 9818 97cd 529b     ......u........R
    a60c:	97ce 7dd1 97cf 502b 97d0 5398 97d1 6797     ...}..+P...S...g
    a61c:	97d2 6dcb 97d3 71d0 97d4 7433 97d5 81e8     ...m...q..3t....
    a62c:	97d6 8f2a 97d7 96a3 97d8 9c57 97d9 9e9f     ..*.......W.....
    a63c:	97da 7460 97db 5841 97dc 6d99 97dd 7d2f     ..`t..AX...m../}
    a64c:	97de 985e 97df 4ee4 97e0 4f36 97e1 4f8b     ..^....N..6O...O
    a65c:	97e2 51b7 97e3 52b1 97e4 5dba 97e5 601c     ...Q...R...]...`
    a66c:	97e6 73b2 97e7 793c 97e8 82d3 97e9 9234     ...s..<y......4.
    a67c:	97ea 96b7 97eb 96f6 97ec 970a 97ed 9e97     ................
    a68c:	97ee 9f62 97ef 66a6 97f0 6b74 97f1 5217     ..b....f..tk...R
    a69c:	97f2 52a3 97f3 70c8 97f4 88c2 97f5 5ec9     ...R...p.......^
    a6ac:	97f6 604b 97f7 6190 97f8 6f23 97f9 7149     ..K`...a..#o..Iq
    a6bc:	97fa 7c3e 97fb 7df4 97fc 806f 9840 84ee     ..>|...}..o.@...
    a6cc:	9841 9023 9842 932c 9843 5442 9844 9b6f     A.#.B.,.C.BTD.o.
    a6dc:	9845 6ad3 9846 7089 9847 8cc2 9848 8def     E..jF..pG...H...
    a6ec:	9849 9732 984a 52b4 984b 5a41 984c 5eca     I.2.J..RK.AZL..^
    a6fc:	984d 5f04 984e 6717 984f 697c 9850 6994     M.._N..gO.|iP..i
    a70c:	9851 6d6a 9852 6f0f 9853 7262 9854 72fc     Q.jmR..oS.brT..r
    a71c:	9855 7bed 9856 8001 9857 807e 9858 874b     U..{V...W.~.X.K.
    a72c:	9859 90ce 985a 516d 985b 9e93 985c 7984     Y...Z.mQ[...\..y
    a73c:	985d 808b 985e 9332 985f 8ad6 9860 502d     ]...^.2._...`.-P
    a74c:	9861 548c 9862 8a71 9863 6b6a 9864 8cc4     a..Tb.q.c.jkd...
    a75c:	9865 8107 9866 60d1 9867 67a0 9868 9df2     e...f..`g..gh...
    a76c:	9869 4e99 986a 4e98 986b 9c10 986c 8a6b     i..Nj..Nk...l.k.
    a77c:	986d 85c1 986e 8568 986f 6900 9870 6e7e     m...n.h.o..ip.~n
    a78c:	9871 7897 9872 8155 989f 5f0c 98a0 4e10     q..xr.U...._...N
    a79c:	98a1 4e15 98a2 4e2a 98a3 4e31 98a4 4e36     ...N..*N..1N..6N
    a7ac:	98a5 4e3c 98a6 4e3f 98a7 4e42 98a8 4e56     ..<N..?N..BN..VN
    a7bc:	98a9 4e58 98aa 4e82 98ab 4e85 98ac 8c6b     ..XN...N...N..k.
    a7cc:	98ad 4e8a 98ae 8212 98af 5f0d 98b0 4e8e     ...N......._...N
    a7dc:	98b1 4e9e 98b2 4e9f 98b3 4ea0 98b4 4ea2     ...N...N...N...N
    a7ec:	98b5 4eb0 98b6 4eb3 98b7 4eb6 98b8 4ece     ...N...N...N...N
    a7fc:	98b9 4ecd 98ba 4ec4 98bb 4ec6 98bc 4ec2     ...N...N...N...N
    a80c:	98bd 4ed7 98be 4ede 98bf 4eed 98c0 4edf     ...N...N...N...N
    a81c:	98c1 4ef7 98c2 4f09 98c3 4f5a 98c4 4f30     ...N...O..ZO..0O
    a82c:	98c5 4f5b 98c6 4f5d 98c7 4f57 98c8 4f47     ..[O..]O..WO..GO
    a83c:	98c9 4f76 98ca 4f88 98cb 4f8f 98cc 4f98     ..vO...O...O...O
    a84c:	98cd 4f7b 98ce 4f69 98cf 4f70 98d0 4f91     ..{O..iO..pO...O
    a85c:	98d1 4f6f 98d2 4f86 98d3 4f96 98d4 5118     ..oO...O...O...Q
    a86c:	98d5 4fd4 98d6 4fdf 98d7 4fce 98d8 4fd8     ...O...O...O...O
    a87c:	98d9 4fdb 98da 4fd1 98db 4fda 98dc 4fd0     ...O...O...O...O
    a88c:	98dd 4fe4 98de 4fe5 98df 501a 98e0 5028     ...O...O...P..(P
    a89c:	98e1 5014 98e2 502a 98e3 5025 98e4 5005     ...P..*P..%P...P
    a8ac:	98e5 4f1c 98e6 4ff6 98e7 5021 98e8 5029     ...O...O..!P..)P
    a8bc:	98e9 502c 98ea 4ffe 98eb 4fef 98ec 5011     ..,P...O...O...P
    a8cc:	98ed 5006 98ee 5043 98ef 5047 98f0 6703     ...P..CP..GP...g
    a8dc:	98f1 5055 98f2 5050 98f3 5048 98f4 505a     ..UP..PP..HP..ZP
    a8ec:	98f5 5056 98f6 506c 98f7 5078 98f8 5080     ..VP..lP..xP...P
    a8fc:	98f9 509a 98fa 5085 98fb 50b4 98fc 50b2     ...P...P...P...P
    a90c:	9940 50c9 9941 50ca 9942 50b3 9943 50c2     @..PA..PB..PC..P
    a91c:	9944 50d6 9945 50de 9946 50e5 9947 50ed     D..PE..PF..PG..P
    a92c:	9948 50e3 9949 50ee 994a 50f9 994b 50f5     H..PI..PJ..PK..P
    a93c:	994c 5109 994d 5101 994e 5102 994f 5116     L..QM..QN..QO..Q
    a94c:	9950 5115 9951 5114 9952 511a 9953 5121     P..QQ..QR..QS.!Q
    a95c:	9954 513a 9955 5137 9956 513c 9957 513b     T.:QU.7QV.<QW.;Q
    a96c:	9958 513f 9959 5140 995a 5152 995b 514c     X.?QY.@QZ.RQ[.LQ
    a97c:	995c 5154 995d 5162 995e 7af8 995f 5169     \.TQ].bQ^..z_.iQ
    a98c:	9960 516a 9961 516e 9962 5180 9963 5182     `.jQa.nQb..Qc..Q
    a99c:	9964 56d8 9965 518c 9966 5189 9967 518f     d..Ve..Qf..Qg..Q
    a9ac:	9968 5191 9969 5193 996a 5195 996b 5196     h..Qi..Qj..Qk..Q
    a9bc:	996c 51a4 996d 51a6 996e 51a2 996f 51a9     l..Qm..Qn..Qo..Q
    a9cc:	9970 51aa 9971 51ab 9972 51b3 9973 51b1     p..Qq..Qr..Qs..Q
    a9dc:	9974 51b2 9975 51b0 9976 51b5 9977 51bd     t..Qu..Qv..Qw..Q
    a9ec:	9978 51c5 9979 51c9 997a 51db 997b 51e0     x..Qy..Qz..Q{..Q
    a9fc:	997c 8655 997d 51e9 997e 51ed 9980 51f0     |.U.}..Q~..Q...Q
    aa0c:	9981 51f5 9982 51fe 9983 5204 9984 520b     ...Q...Q...R...R
    aa1c:	9985 5214 9986 520e 9987 5227 9988 522a     ...R...R..'R..*R
    aa2c:	9989 522e 998a 5233 998b 5239 998c 524f     ...R..3R..9R..OR
    aa3c:	998d 5244 998e 524b 998f 524c 9990 525e     ..DR..KR..LR..^R
    aa4c:	9991 5254 9992 526a 9993 5274 9994 5269     ..TR..jR..tR..iR
    aa5c:	9995 5273 9996 527f 9997 527d 9998 528d     ..sR...R..}R...R
    aa6c:	9999 5294 999a 5292 999b 5271 999c 5288     ...R...R..qR...R
    aa7c:	999d 5291 999e 8fa8 999f 8fa7 99a0 52ac     ...R...........R
    aa8c:	99a1 52ad 99a2 52bc 99a3 52b5 99a4 52c1     ...R...R...R...R
    aa9c:	99a5 52cd 99a6 52d7 99a7 52de 99a8 52e3     ...R...R...R...R
    aaac:	99a9 52e6 99aa 98ed 99ab 52e0 99ac 52f3     ...R.......R...R
    aabc:	99ad 52f5 99ae 52f8 99af 52f9 99b0 5306     ...R...R...R...S
    aacc:	99b1 5308 99b2 7538 99b3 530d 99b4 5310     ...S..8u...S...S
    aadc:	99b5 530f 99b6 5315 99b7 531a 99b8 5323     ...S...S...S..#S
    aaec:	99b9 532f 99ba 5331 99bb 5333 99bc 5338     ../S..1S..3S..8S
    aafc:	99bd 5340 99be 5346 99bf 5345 99c0 4e17     ..@S..FS..ES...N
    ab0c:	99c1 5349 99c2 534d 99c3 51d6 99c4 535e     ..IS..MS...Q..^S
    ab1c:	99c5 5369 99c6 536e 99c7 5918 99c8 537b     ..iS..nS...Y..{S
    ab2c:	99c9 5377 99ca 5382 99cb 5396 99cc 53a0     ..wS...S...S...S
    ab3c:	99cd 53a6 99ce 53a5 99cf 53ae 99d0 53b0     ...S...S...S...S
    ab4c:	99d1 53b6 99d2 53c3 99d3 7c12 99d4 96d9     ...S...S...|....
    ab5c:	99d5 53df 99d6 66fc 99d7 71ee 99d8 53ee     ...S...f...q...S
    ab6c:	99d9 53e8 99da 53ed 99db 53fa 99dc 5401     ...S...S...S...T
    ab7c:	99dd 543d 99de 5440 99df 542c 99e0 542d     ..=T..@T..,T..-T
    ab8c:	99e1 543c 99e2 542e 99e3 5436 99e4 5429     ..<T...T..6T..)T
    ab9c:	99e5 541d 99e6 544e 99e7 548f 99e8 5475     ...T..NT...T..uT
    abac:	99e9 548e 99ea 545f 99eb 5471 99ec 5477     ...T.._T..qT..wT
    abbc:	99ed 5470 99ee 5492 99ef 547b 99f0 5480     ..pT...T..{T...T
    abcc:	99f1 5476 99f2 5484 99f3 5490 99f4 5486     ..vT...T...T...T
    abdc:	99f5 54c7 99f6 54a2 99f7 54b8 99f8 54a5     ...T...T...T...T
    abec:	99f9 54ac 99fa 54c4 99fb 54c8 99fc 54a8     ...T...T...T...T
    abfc:	9a40 54ab 9a41 54c2 9a42 54a4 9a43 54be     @..TA..TB..TC..T
    ac0c:	9a44 54bc 9a45 54d8 9a46 54e5 9a47 54e6     D..TE..TF..TG..T
    ac1c:	9a48 550f 9a49 5514 9a4a 54fd 9a4b 54ee     H..UI..UJ..TK..T
    ac2c:	9a4c 54ed 9a4d 54fa 9a4e 54e2 9a4f 5539     L..TM..TN..TO.9U
    ac3c:	9a50 5540 9a51 5563 9a52 554c 9a53 552e     P.@UQ.cUR.LUS..U
    ac4c:	9a54 555c 9a55 5545 9a56 5556 9a57 5557     T.\UU.EUV.VUW.WU
    ac5c:	9a58 5538 9a59 5533 9a5a 555d 9a5b 5599     X.8UY.3UZ.]U[..U
    ac6c:	9a5c 5580 9a5d 54af 9a5e 558a 9a5f 559f     \..U]..T^..U_..U
    ac7c:	9a60 557b 9a61 557e 9a62 5598 9a63 559e     `.{Ua.~Ub..Uc..U
    ac8c:	9a64 55ae 9a65 557c 9a66 5583 9a67 55a9     d..Ue.|Uf..Ug..U
    ac9c:	9a68 5587 9a69 55a8 9a6a 55da 9a6b 55c5     h..Ui..Uj..Uk..U
    acac:	9a6c 55df 9a6d 55c4 9a6e 55dc 9a6f 55e4     l..Um..Un..Uo..U
    acbc:	9a70 55d4 9a71 5614 9a72 55f7 9a73 5616     p..Uq..Vr..Us..V
    accc:	9a74 55fe 9a75 55fd 9a76 561b 9a77 55f9     t..Uu..Uv..Vw..U
    acdc:	9a78 564e 9a79 5650 9a7a 71df 9a7b 5634     x.NVy.PVz..q{.4V
    acec:	9a7c 5636 9a7d 5632 9a7e 5638 9a80 566b     |.6V}.2V~.8V..kV
    acfc:	9a81 5664 9a82 562f 9a83 566c 9a84 566a     ..dV../V..lV..jV
    ad0c:	9a85 5686 9a86 5680 9a87 568a 9a88 56a0     ...V...V...V...V
    ad1c:	9a89 5694 9a8a 568f 9a8b 56a5 9a8c 56ae     ...V...V...V...V
    ad2c:	9a8d 56b6 9a8e 56b4 9a8f 56c2 9a90 56bc     ...V...V...V...V
    ad3c:	9a91 56c1 9a92 56c3 9a93 56c0 9a94 56c8     ...V...V...V...V
    ad4c:	9a95 56ce 9a96 56d1 9a97 56d3 9a98 56d7     ...V...V...V...V
    ad5c:	9a99 56ee 9a9a 56f9 9a9b 5700 9a9c 56ff     ...V...V...W...V
    ad6c:	9a9d 5704 9a9e 5709 9a9f 5708 9aa0 570b     ...W...W...W...W
    ad7c:	9aa1 570d 9aa2 5713 9aa3 5718 9aa4 5716     ...W...W...W...W
    ad8c:	9aa5 55c7 9aa6 571c 9aa7 5726 9aa8 5737     ...U...W..&W..7W
    ad9c:	9aa9 5738 9aaa 574e 9aab 573b 9aac 5740     ..8W..NW..;W..@W
    adac:	9aad 574f 9aae 5769 9aaf 57c0 9ab0 5788     ..OW..iW...W...W
    adbc:	9ab1 5761 9ab2 577f 9ab3 5789 9ab4 5793     ..aW...W...W...W
    adcc:	9ab5 57a0 9ab6 57b3 9ab7 57a4 9ab8 57aa     ...W...W...W...W
    addc:	9ab9 57b0 9aba 57c3 9abb 57c6 9abc 57d4     ...W...W...W...W
    adec:	9abd 57d2 9abe 57d3 9abf 580a 9ac0 57d6     ...W...W...X...W
    adfc:	9ac1 57e3 9ac2 580b 9ac3 5819 9ac4 581d     ...W...X...X...X
    ae0c:	9ac5 5872 9ac6 5821 9ac7 5862 9ac8 584b     ..rX..!X..bX..KX
    ae1c:	9ac9 5870 9aca 6bc0 9acb 5852 9acc 583d     ..pX...k..RX..=X
    ae2c:	9acd 5879 9ace 5885 9acf 58b9 9ad0 589f     ..yX...X...X...X
    ae3c:	9ad1 58ab 9ad2 58ba 9ad3 58de 9ad4 58bb     ...X...X...X...X
    ae4c:	9ad5 58b8 9ad6 58ae 9ad7 58c5 9ad8 58d3     ...X...X...X...X
    ae5c:	9ad9 58d1 9ada 58d7 9adb 58d9 9adc 58d8     ...X...X...X...X
    ae6c:	9add 58e5 9ade 58dc 9adf 58e4 9ae0 58df     ...X...X...X...X
    ae7c:	9ae1 58ef 9ae2 58fa 9ae3 58f9 9ae4 58fb     ...X...X...X...X
    ae8c:	9ae5 58fc 9ae6 58fd 9ae7 5902 9ae8 590a     ...X...X...Y...Y
    ae9c:	9ae9 5910 9aea 591b 9aeb 68a6 9aec 5925     ...Y...Y...h..%Y
    aeac:	9aed 592c 9aee 592d 9aef 5932 9af0 5938     ..,Y..-Y..2Y..8Y
    aebc:	9af1 593e 9af2 7ad2 9af3 5955 9af4 5950     ..>Y...z..UY..PY
    aecc:	9af5 594e 9af6 595a 9af7 5958 9af8 5962     ..NY..ZY..XY..bY
    aedc:	9af9 5960 9afa 5967 9afb 596c 9afc 5969     ..`Y..gY..lY..iY
    aeec:	9b40 5978 9b41 5981 9b42 599d 9b43 4f5e     @.xYA..YB..YC.^O
    aefc:	9b44 4fab 9b45 59a3 9b46 59b2 9b47 59c6     D..OE..YF..YG..Y
    af0c:	9b48 59e8 9b49 59dc 9b4a 598d 9b4b 59d9     H..YI..YJ..YK..Y
    af1c:	9b4c 59da 9b4d 5a25 9b4e 5a1f 9b4f 5a11     L..YM.%ZN..ZO..Z
    af2c:	9b50 5a1c 9b51 5a09 9b52 5a1a 9b53 5a40     P..ZQ..ZR..ZS.@Z
    af3c:	9b54 5a6c 9b55 5a49 9b56 5a35 9b57 5a36     T.lZU.IZV.5ZW.6Z
    af4c:	9b58 5a62 9b59 5a6a 9b5a 5a9a 9b5b 5abc     X.bZY.jZZ..Z[..Z
    af5c:	9b5c 5abe 9b5d 5acb 9b5e 5ac2 9b5f 5abd     \..Z]..Z^..Z_..Z
    af6c:	9b60 5ae3 9b61 5ad7 9b62 5ae6 9b63 5ae9     `..Za..Zb..Zc..Z
    af7c:	9b64 5ad6 9b65 5afa 9b66 5afb 9b67 5b0c     d..Ze..Zf..Zg..[
    af8c:	9b68 5b0b 9b69 5b16 9b6a 5b32 9b6b 5ad0     h..[i..[j.2[k..Z
    af9c:	9b6c 5b2a 9b6d 5b36 9b6e 5b3e 9b6f 5b43     l.*[m.6[n.>[o.C[
    afac:	9b70 5b45 9b71 5b40 9b72 5b51 9b73 5b55     p.E[q.@[r.Q[s.U[
    afbc:	9b74 5b5a 9b75 5b5b 9b76 5b65 9b77 5b69     t.Z[u.[[v.e[w.i[
    afcc:	9b78 5b70 9b79 5b73 9b7a 5b75 9b7b 5b78     x.p[y.s[z.u[{.x[
    afdc:	9b7c 6588 9b7d 5b7a 9b7e 5b80 9b80 5b83     |..e}.z[~..[...[
    afec:	9b81 5ba6 9b82 5bb8 9b83 5bc3 9b84 5bc7     ...[...[...[...[
    affc:	9b85 5bc9 9b86 5bd4 9b87 5bd0 9b88 5be4     ...[...[...[...[
    b00c:	9b89 5be6 9b8a 5be2 9b8b 5bde 9b8c 5be5     ...[...[...[...[
    b01c:	9b8d 5beb 9b8e 5bf0 9b8f 5bf6 9b90 5bf3     ...[...[...[...[
    b02c:	9b91 5c05 9b92 5c07 9b93 5c08 9b94 5c0d     ...\...\...\...\
    b03c:	9b95 5c13 9b96 5c20 9b97 5c22 9b98 5c28     ...\.. \.."\..(\
    b04c:	9b99 5c38 9b9a 5c39 9b9b 5c41 9b9c 5c46     ..8\..9\..A\..F\
    b05c:	9b9d 5c4e 9b9e 5c53 9b9f 5c50 9ba0 5c4f     ..N\..S\..P\..O\
    b06c:	9ba1 5b71 9ba2 5c6c 9ba3 5c6e 9ba4 4e62     ..q[..l\..n\..bN
    b07c:	9ba5 5c76 9ba6 5c79 9ba7 5c8c 9ba8 5c91     ..v\..y\...\...\
    b08c:	9ba9 5c94 9baa 599b 9bab 5cab 9bac 5cbb     ...\...Y...\...\
    b09c:	9bad 5cb6 9bae 5cbc 9baf 5cb7 9bb0 5cc5     ...\...\...\...\
    b0ac:	9bb1 5cbe 9bb2 5cc7 9bb3 5cd9 9bb4 5ce9     ...\...\...\...\
    b0bc:	9bb5 5cfd 9bb6 5cfa 9bb7 5ced 9bb8 5d8c     ...\...\...\...]
    b0cc:	9bb9 5cea 9bba 5d0b 9bbb 5d15 9bbc 5d17     ...\...]...]...]
    b0dc:	9bbd 5d5c 9bbe 5d1f 9bbf 5d1b 9bc0 5d11     ..\]...]...]...]
    b0ec:	9bc1 5d14 9bc2 5d22 9bc3 5d1a 9bc4 5d19     ...].."]...]...]
    b0fc:	9bc5 5d18 9bc6 5d4c 9bc7 5d52 9bc8 5d4e     ...]..L]..R]..N]
    b10c:	9bc9 5d4b 9bca 5d6c 9bcb 5d73 9bcc 5d76     ..K]..l]..s]..v]
    b11c:	9bcd 5d87 9bce 5d84 9bcf 5d82 9bd0 5da2     ...]...]...]...]
    b12c:	9bd1 5d9d 9bd2 5dac 9bd3 5dae 9bd4 5dbd     ...]...]...]...]
    b13c:	9bd5 5d90 9bd6 5db7 9bd7 5dbc 9bd8 5dc9     ...]...]...]...]
    b14c:	9bd9 5dcd 9bda 5dd3 9bdb 5dd2 9bdc 5dd6     ...]...]...]...]
    b15c:	9bdd 5ddb 9bde 5deb 9bdf 5df2 9be0 5df5     ...]...]...]...]
    b16c:	9be1 5e0b 9be2 5e1a 9be3 5e19 9be4 5e11     ...^...^...^...^
    b17c:	9be5 5e1b 9be6 5e36 9be7 5e37 9be8 5e44     ...^..6^..7^..D^
    b18c:	9be9 5e43 9bea 5e40 9beb 5e4e 9bec 5e57     ..C^..@^..N^..W^
    b19c:	9bed 5e54 9bee 5e5f 9bef 5e62 9bf0 5e64     ..T^.._^..b^..d^
    b1ac:	9bf1 5e47 9bf2 5e75 9bf3 5e76 9bf4 5e7a     ..G^..u^..v^..z^
    b1bc:	9bf5 9ebc 9bf6 5e7f 9bf7 5ea0 9bf8 5ec1     .......^...^...^
    b1cc:	9bf9 5ec2 9bfa 5ec8 9bfb 5ed0 9bfc 5ecf     ...^...^...^...^
    b1dc:	9c40 5ed6 9c41 5ee3 9c42 5edd 9c43 5eda     @..^A..^B..^C..^
    b1ec:	9c44 5edb 9c45 5ee2 9c46 5ee1 9c47 5ee8     D..^E..^F..^G..^
    b1fc:	9c48 5ee9 9c49 5eec 9c4a 5ef1 9c4b 5ef3     H..^I..^J..^K..^
    b20c:	9c4c 5ef0 9c4d 5ef4 9c4e 5ef8 9c4f 5efe     L..^M..^N..^O..^
    b21c:	9c50 5f03 9c51 5f09 9c52 5f5d 9c53 5f5c     P.._Q.._R.]_S.\_
    b22c:	9c54 5f0b 9c55 5f11 9c56 5f16 9c57 5f29     T.._U.._V.._W.)_
    b23c:	9c58 5f2d 9c59 5f38 9c5a 5f41 9c5b 5f48     X.-_Y.8_Z.A_[.H_
    b24c:	9c5c 5f4c 9c5d 5f4e 9c5e 5f2f 9c5f 5f51     \.L_].N_^./__.Q_
    b25c:	9c60 5f56 9c61 5f57 9c62 5f59 9c63 5f61     `.V_a.W_b.Y_c.a_
    b26c:	9c64 5f6d 9c65 5f73 9c66 5f77 9c67 5f83     d.m_e.s_f.w_g.._
    b27c:	9c68 5f82 9c69 5f7f 9c6a 5f8a 9c6b 5f88     h.._i.._j.._k.._
    b28c:	9c6c 5f91 9c6d 5f87 9c6e 5f9e 9c6f 5f99     l.._m.._n.._o.._
    b29c:	9c70 5f98 9c71 5fa0 9c72 5fa8 9c73 5fad     p.._q.._r.._s.._
    b2ac:	9c74 5fbc 9c75 5fd6 9c76 5ffb 9c77 5fe4     t.._u.._v.._w.._
    b2bc:	9c78 5ff8 9c79 5ff1 9c7a 5fdd 9c7b 60b3     x.._y.._z.._{..`
    b2cc:	9c7c 5fff 9c7d 6021 9c7e 6060 9c80 6019     |.._}.!`~.``...`
    b2dc:	9c81 6010 9c82 6029 9c83 600e 9c84 6031     ...`..)`...`..1`
    b2ec:	9c85 601b 9c86 6015 9c87 602b 9c88 6026     ...`...`..+`..&`
    b2fc:	9c89 600f 9c8a 603a 9c8b 605a 9c8c 6041     ...`..:`..Z`..A`
    b30c:	9c8d 606a 9c8e 6077 9c8f 605f 9c90 604a     ..j`..w`.._`..J`
    b31c:	9c91 6046 9c92 604d 9c93 6063 9c94 6043     ..F`..M`..c`..C`
    b32c:	9c95 6064 9c96 6042 9c97 606c 9c98 606b     ..d`..B`..l`..k`
    b33c:	9c99 6059 9c9a 6081 9c9b 608d 9c9c 60e7     ..Y`...`...`...`
    b34c:	9c9d 6083 9c9e 609a 9c9f 6084 9ca0 609b     ...`...`...`...`
    b35c:	9ca1 6096 9ca2 6097 9ca3 6092 9ca4 60a7     ...`...`...`...`
    b36c:	9ca5 608b 9ca6 60e1 9ca7 60b8 9ca8 60e0     ...`...`...`...`
    b37c:	9ca9 60d3 9caa 60b4 9cab 5ff0 9cac 60bd     ...`...`..._...`
    b38c:	9cad 60c6 9cae 60b5 9caf 60d8 9cb0 614d     ...`...`...`..Ma
    b39c:	9cb1 6115 9cb2 6106 9cb3 60f6 9cb4 60f7     ...a...a...`...`
    b3ac:	9cb5 6100 9cb6 60f4 9cb7 60fa 9cb8 6103     ...a...`...`...a
    b3bc:	9cb9 6121 9cba 60fb 9cbb 60f1 9cbc 610d     ..!a...`...`...a
    b3cc:	9cbd 610e 9cbe 6147 9cbf 613e 9cc0 6128     ...a..Ga..>a..(a
    b3dc:	9cc1 6127 9cc2 614a 9cc3 613f 9cc4 613c     ..'a..Ja..?a..<a
    b3ec:	9cc5 612c 9cc6 6134 9cc7 613d 9cc8 6142     ..,a..4a..=a..Ba
    b3fc:	9cc9 6144 9cca 6173 9ccb 6177 9ccc 6158     ..Da..sa..wa..Xa
    b40c:	9ccd 6159 9cce 615a 9ccf 616b 9cd0 6174     ..Ya..Za..ka..ta
    b41c:	9cd1 616f 9cd2 6165 9cd3 6171 9cd4 615f     ..oa..ea..qa.._a
    b42c:	9cd5 615d 9cd6 6153 9cd7 6175 9cd8 6199     ..]a..Sa..ua...a
    b43c:	9cd9 6196 9cda 6187 9cdb 61ac 9cdc 6194     ...a...a...a...a
    b44c:	9cdd 619a 9cde 618a 9cdf 6191 9ce0 61ab     ...a...a...a...a
    b45c:	9ce1 61ae 9ce2 61cc 9ce3 61ca 9ce4 61c9     ...a...a...a...a
    b46c:	9ce5 61f7 9ce6 61c8 9ce7 61c3 9ce8 61c6     ...a...a...a...a
    b47c:	9ce9 61ba 9cea 61cb 9ceb 7f79 9cec 61cd     ...a...a..y....a
    b48c:	9ced 61e6 9cee 61e3 9cef 61f6 9cf0 61fa     ...a...a...a...a
    b49c:	9cf1 61f4 9cf2 61ff 9cf3 61fd 9cf4 61fc     ...a...a...a...a
    b4ac:	9cf5 61fe 9cf6 6200 9cf7 6208 9cf8 6209     ...a...b...b...b
    b4bc:	9cf9 620d 9cfa 620c 9cfb 6214 9cfc 621b     ...b...b...b...b
    b4cc:	9d40 621e 9d41 6221 9d42 622a 9d43 622e     @..bA.!bB.*bC..b
    b4dc:	9d44 6230 9d45 6232 9d46 6233 9d47 6241     D.0bE.2bF.3bG.Ab
    b4ec:	9d48 624e 9d49 625e 9d4a 6263 9d4b 625b     H.NbI.^bJ.cbK.[b
    b4fc:	9d4c 6260 9d4d 6268 9d4e 627c 9d4f 6282     L.`bM.hbN.|bO..b
    b50c:	9d50 6289 9d51 627e 9d52 6292 9d53 6293     P..bQ.~bR..bS..b
    b51c:	9d54 6296 9d55 62d4 9d56 6283 9d57 6294     T..bU..bV..bW..b
    b52c:	9d58 62d7 9d59 62d1 9d5a 62bb 9d5b 62cf     X..bY..bZ..b[..b
    b53c:	9d5c 62ff 9d5d 62c6 9d5e 64d4 9d5f 62c8     \..b]..b^..d_..b
    b54c:	9d60 62dc 9d61 62cc 9d62 62ca 9d63 62c2     `..ba..bb..bc..b
    b55c:	9d64 62c7 9d65 629b 9d66 62c9 9d67 630c     d..be..bf..bg..c
    b56c:	9d68 62ee 9d69 62f1 9d6a 6327 9d6b 6302     h..bi..bj.'ck..c
    b57c:	9d6c 6308 9d6d 62ef 9d6e 62f5 9d6f 6350     l..cm..bn..bo.Pc
    b58c:	9d70 633e 9d71 634d 9d72 641c 9d73 634f     p.>cq.Mcr..ds.Oc
    b59c:	9d74 6396 9d75 638e 9d76 6380 9d77 63ab     t..cu..cv..cw..c
    b5ac:	9d78 6376 9d79 63a3 9d7a 638f 9d7b 6389     x.vcy..cz..c{..c
    b5bc:	9d7c 639f 9d7d 63b5 9d7e 636b 9d80 6369     |..c}..c~.kc..ic
    b5cc:	9d81 63be 9d82 63e9 9d83 63c0 9d84 63c6     ...c...c...c...c
    b5dc:	9d85 63e3 9d86 63c9 9d87 63d2 9d88 63f6     ...c...c...c...c
    b5ec:	9d89 63c4 9d8a 6416 9d8b 6434 9d8c 6406     ...c...d..4d...d
    b5fc:	9d8d 6413 9d8e 6426 9d8f 6436 9d90 651d     ...d..&d..6d...e
    b60c:	9d91 6417 9d92 6428 9d93 640f 9d94 6467     ...d..(d...d..gd
    b61c:	9d95 646f 9d96 6476 9d97 644e 9d98 652a     ..od..vd..Nd..*e
    b62c:	9d99 6495 9d9a 6493 9d9b 64a5 9d9c 64a9     ...d...d...d...d
    b63c:	9d9d 6488 9d9e 64bc 9d9f 64da 9da0 64d2     ...d...d...d...d
    b64c:	9da1 64c5 9da2 64c7 9da3 64bb 9da4 64d8     ...d...d...d...d
    b65c:	9da5 64c2 9da6 64f1 9da7 64e7 9da8 8209     ...d...d...d....
    b66c:	9da9 64e0 9daa 64e1 9dab 62ac 9dac 64e3     ...d...d...b...d
    b67c:	9dad 64ef 9dae 652c 9daf 64f6 9db0 64f4     ...d..,e...d...d
    b68c:	9db1 64f2 9db2 64fa 9db3 6500 9db4 64fd     ...d...d...e...d
    b69c:	9db5 6518 9db6 651c 9db7 6505 9db8 6524     ...e...e...e..$e
    b6ac:	9db9 6523 9dba 652b 9dbb 6534 9dbc 6535     ..#e..+e..4e..5e
    b6bc:	9dbd 6537 9dbe 6536 9dbf 6538 9dc0 754b     ..7e..6e..8e..Ku
    b6cc:	9dc1 6548 9dc2 6556 9dc3 6555 9dc4 654d     ..He..Ve..Ue..Me
    b6dc:	9dc5 6558 9dc6 655e 9dc7 655d 9dc8 6572     ..Xe..^e..]e..re
    b6ec:	9dc9 6578 9dca 6582 9dcb 6583 9dcc 8b8a     ..xe...e...e....
    b6fc:	9dcd 659b 9dce 659f 9dcf 65ab 9dd0 65b7     ...e...e...e...e
    b70c:	9dd1 65c3 9dd2 65c6 9dd3 65c1 9dd4 65c4     ...e...e...e...e
    b71c:	9dd5 65cc 9dd6 65d2 9dd7 65db 9dd8 65d9     ...e...e...e...e
    b72c:	9dd9 65e0 9dda 65e1 9ddb 65f1 9ddc 6772     ...e...e...e..rg
    b73c:	9ddd 660a 9dde 6603 9ddf 65fb 9de0 6773     ...f...f...e..sg
    b74c:	9de1 6635 9de2 6636 9de3 6634 9de4 661c     ..5f..6f..4f...f
    b75c:	9de5 664f 9de6 6644 9de7 6649 9de8 6641     ..Of..Df..If..Af
    b76c:	9de9 665e 9dea 665d 9deb 6664 9dec 6667     ..^f..]f..df..gf
    b77c:	9ded 6668 9dee 665f 9def 6662 9df0 6670     ..hf.._f..bf..pf
    b78c:	9df1 6683 9df2 6688 9df3 668e 9df4 6689     ...f...f...f...f
    b79c:	9df5 6684 9df6 6698 9df7 669d 9df8 66c1     ...f...f...f...f
    b7ac:	9df9 66b9 9dfa 66c9 9dfb 66be 9dfc 66bc     ...f...f...f...f
    b7bc:	9e40 66c4 9e41 66b8 9e42 66d6 9e43 66da     @..fA..fB..fC..f
    b7cc:	9e44 66e0 9e45 663f 9e46 66e6 9e47 66e9     D..fE.?fF..fG..f
    b7dc:	9e48 66f0 9e49 66f5 9e4a 66f7 9e4b 670f     H..fI..fJ..fK..g
    b7ec:	9e4c 6716 9e4d 671e 9e4e 6726 9e4f 6727     L..gM..gN.&gO.'g
    b7fc:	9e50 9738 9e51 672e 9e52 673f 9e53 6736     P.8.Q..gR.?gS.6g
    b80c:	9e54 6741 9e55 6738 9e56 6737 9e57 6746     T.AgU.8gV.7gW.Fg
    b81c:	9e58 675e 9e59 6760 9e5a 6759 9e5b 6763     X.^gY.`gZ.Yg[.cg
    b82c:	9e5c 6764 9e5d 6789 9e5e 6770 9e5f 67a9     \.dg]..g^.pg_..g
    b83c:	9e60 677c 9e61 676a 9e62 678c 9e63 678b     `.|ga.jgb..gc..g
    b84c:	9e64 67a6 9e65 67a1 9e66 6785 9e67 67b7     d..ge..gf..gg..g
    b85c:	9e68 67ef 9e69 67b4 9e6a 67ec 9e6b 67b3     h..gi..gj..gk..g
    b86c:	9e6c 67e9 9e6d 67b8 9e6e 67e4 9e6f 67de     l..gm..gn..go..g
    b87c:	9e70 67dd 9e71 67e2 9e72 67ee 9e73 67b9     p..gq..gr..gs..g
    b88c:	9e74 67ce 9e75 67c6 9e76 67e7 9e77 6a9c     t..gu..gv..gw..j
    b89c:	9e78 681e 9e79 6846 9e7a 6829 9e7b 6840     x..hy.Fhz.)h{.@h
    b8ac:	9e7c 684d 9e7d 6832 9e7e 684e 9e80 68b3     |.Mh}.2h~.Nh...h
    b8bc:	9e81 682b 9e82 6859 9e83 6863 9e84 6877     ..+h..Yh..ch..wh
    b8cc:	9e85 687f 9e86 689f 9e87 688f 9e88 68ad     ...h...h...h...h
    b8dc:	9e89 6894 9e8a 689d 9e8b 689b 9e8c 6883     ...h...h...h...h
    b8ec:	9e8d 6aae 9e8e 68b9 9e8f 6874 9e90 68b5     ...j...h..th...h
    b8fc:	9e91 68a0 9e92 68ba 9e93 690f 9e94 688d     ...h...h...i...h
    b90c:	9e95 687e 9e96 6901 9e97 68ca 9e98 6908     ..~h...i...h...i
    b91c:	9e99 68d8 9e9a 6922 9e9b 6926 9e9c 68e1     ...h.."i..&i...h
    b92c:	9e9d 690c 9e9e 68cd 9e9f 68d4 9ea0 68e7     ...i...h...h...h
    b93c:	9ea1 68d5 9ea2 6936 9ea3 6912 9ea4 6904     ...h..6i...i...i
    b94c:	9ea5 68d7 9ea6 68e3 9ea7 6925 9ea8 68f9     ...h...h..%i...h
    b95c:	9ea9 68e0 9eaa 68ef 9eab 6928 9eac 692a     ...h...h..(i..*i
    b96c:	9ead 691a 9eae 6923 9eaf 6921 9eb0 68c6     ...i..#i..!i...h
    b97c:	9eb1 6979 9eb2 6977 9eb3 695c 9eb4 6978     ..yi..wi..\i..xi
    b98c:	9eb5 696b 9eb6 6954 9eb7 697e 9eb8 696e     ..ki..Ti..~i..ni
    b99c:	9eb9 6939 9eba 6974 9ebb 693d 9ebc 6959     ..9i..ti..=i..Yi
    b9ac:	9ebd 6930 9ebe 6961 9ebf 695e 9ec0 695d     ..0i..ai..^i..]i
    b9bc:	9ec1 6981 9ec2 696a 9ec3 69b2 9ec4 69ae     ...i..ji...i...i
    b9cc:	9ec5 69d0 9ec6 69bf 9ec7 69c1 9ec8 69d3     ...i...i...i...i
    b9dc:	9ec9 69be 9eca 69ce 9ecb 5be8 9ecc 69ca     ...i...i...[...i
    b9ec:	9ecd 69dd 9ece 69bb 9ecf 69c3 9ed0 69a7     ...i...i...i...i
    b9fc:	9ed1 6a2e 9ed2 6991 9ed3 69a0 9ed4 699c     ...j...i...i...i
    ba0c:	9ed5 6995 9ed6 69b4 9ed7 69de 9ed8 69e8     ...i...i...i...i
    ba1c:	9ed9 6a02 9eda 6a1b 9edb 69ff 9edc 6b0a     ...j...j...i...k
    ba2c:	9edd 69f9 9ede 69f2 9edf 69e7 9ee0 6a05     ...i...i...i...j
    ba3c:	9ee1 69b1 9ee2 6a1e 9ee3 69ed 9ee4 6a14     ...i...j...i...j
    ba4c:	9ee5 69eb 9ee6 6a0a 9ee7 6a12 9ee8 6ac1     ...i...j...j...j
    ba5c:	9ee9 6a23 9eea 6a13 9eeb 6a44 9eec 6a0c     ..#j...j..Dj...j
    ba6c:	9eed 6a72 9eee 6a36 9eef 6a78 9ef0 6a47     ..rj..6j..xj..Gj
    ba7c:	9ef1 6a62 9ef2 6a59 9ef3 6a66 9ef4 6a48     ..bj..Yj..fj..Hj
    ba8c:	9ef5 6a38 9ef6 6a22 9ef7 6a90 9ef8 6a8d     ..8j.."j...j...j
    ba9c:	9ef9 6aa0 9efa 6a84 9efb 6aa2 9efc 6aa3     ...j...j...j...j
    baac:	9f40 6a97 9f41 8617 9f42 6abb 9f43 6ac3     @..jA...B..jC..j
    babc:	9f44 6ac2 9f45 6ab8 9f46 6ab3 9f47 6aac     D..jE..jF..jG..j
    bacc:	9f48 6ade 9f49 6ad1 9f4a 6adf 9f4b 6aaa     H..jI..jJ..jK..j
    badc:	9f4c 6ada 9f4d 6aea 9f4e 6afb 9f4f 6b05     L..jM..jN..jO..k
    baec:	9f50 8616 9f51 6afa 9f52 6b12 9f53 6b16     P...Q..jR..kS..k
    bafc:	9f54 9b31 9f55 6b1f 9f56 6b38 9f57 6b37     T.1.U..kV.8kW.7k
    bb0c:	9f58 76dc 9f59 6b39 9f5a 98ee 9f5b 6b47     X..vY.9kZ...[.Gk
    bb1c:	9f5c 6b43 9f5d 6b49 9f5e 6b50 9f5f 6b59     \.Ck].Ik^.Pk_.Yk
    bb2c:	9f60 6b54 9f61 6b5b 9f62 6b5f 9f63 6b61     `.Tka.[kb._kc.ak
    bb3c:	9f64 6b78 9f65 6b79 9f66 6b7f 9f67 6b80     d.xke.ykf..kg..k
    bb4c:	9f68 6b84 9f69 6b83 9f6a 6b8d 9f6b 6b98     h..ki..kj..kk..k
    bb5c:	9f6c 6b95 9f6d 6b9e 9f6e 6ba4 9f6f 6baa     l..km..kn..ko..k
    bb6c:	9f70 6bab 9f71 6baf 9f72 6bb2 9f73 6bb1     p..kq..kr..ks..k
    bb7c:	9f74 6bb3 9f75 6bb7 9f76 6bbc 9f77 6bc6     t..ku..kv..kw..k
    bb8c:	9f78 6bcb 9f79 6bd3 9f7a 6bdf 9f7b 6bec     x..ky..kz..k{..k
    bb9c:	9f7c 6beb 9f7d 6bf3 9f7e 6bef 9f80 9ebe     |..k}..k~..k....
    bbac:	9f81 6c08 9f82 6c13 9f83 6c14 9f84 6c1b     ...l...l...l...l
    bbbc:	9f85 6c24 9f86 6c23 9f87 6c5e 9f88 6c55     ..$l..#l..^l..Ul
    bbcc:	9f89 6c62 9f8a 6c6a 9f8b 6c82 9f8c 6c8d     ..bl..jl...l...l
    bbdc:	9f8d 6c9a 9f8e 6c81 9f8f 6c9b 9f90 6c7e     ...l...l...l..~l
    bbec:	9f91 6c68 9f92 6c73 9f93 6c92 9f94 6c90     ..hl..sl...l...l
    bbfc:	9f95 6cc4 9f96 6cf1 9f97 6cd3 9f98 6cbd     ...l...l...l...l
    bc0c:	9f99 6cd7 9f9a 6cc5 9f9b 6cdd 9f9c 6cae     ...l...l...l...l
    bc1c:	9f9d 6cb1 9f9e 6cbe 9f9f 6cba 9fa0 6cdb     ...l...l...l...l
    bc2c:	9fa1 6cef 9fa2 6cd9 9fa3 6cea 9fa4 6d1f     ...l...l...l...m
    bc3c:	9fa5 884d 9fa6 6d36 9fa7 6d2b 9fa8 6d3d     ..M...6m..+m..=m
    bc4c:	9fa9 6d38 9faa 6d19 9fab 6d35 9fac 6d33     ..8m...m..5m..3m
    bc5c:	9fad 6d12 9fae 6d0c 9faf 6d63 9fb0 6d93     ...m...m..cm...m
    bc6c:	9fb1 6d64 9fb2 6d5a 9fb3 6d79 9fb4 6d59     ..dm..Zm..ym..Ym
    bc7c:	9fb5 6d8e 9fb6 6d95 9fb7 6fe4 9fb8 6d85     ...m...m...o...m
    bc8c:	9fb9 6df9 9fba 6e15 9fbb 6e0a 9fbc 6db5     ...m...n...n...m
    bc9c:	9fbd 6dc7 9fbe 6de6 9fbf 6db8 9fc0 6dc6     ...m...m...m...m
    bcac:	9fc1 6dec 9fc2 6dde 9fc3 6dcc 9fc4 6de8     ...m...m...m...m
    bcbc:	9fc5 6dd2 9fc6 6dc5 9fc7 6dfa 9fc8 6dd9     ...m...m...m...m
    bccc:	9fc9 6de4 9fca 6dd5 9fcb 6dea 9fcc 6dee     ...m...m...m...m
    bcdc:	9fcd 6e2d 9fce 6e6e 9fcf 6e2e 9fd0 6e19     ..-n..nn...n...n
    bcec:	9fd1 6e72 9fd2 6e5f 9fd3 6e3e 9fd4 6e23     ..rn.._n..>n..#n
    bcfc:	9fd5 6e6b 9fd6 6e2b 9fd7 6e76 9fd8 6e4d     ..kn..+n..vn..Mn
    bd0c:	9fd9 6e1f 9fda 6e43 9fdb 6e3a 9fdc 6e4e     ...n..Cn..:n..Nn
    bd1c:	9fdd 6e24 9fde 6eff 9fdf 6e1d 9fe0 6e38     ..$n...n...n..8n
    bd2c:	9fe1 6e82 9fe2 6eaa 9fe3 6e98 9fe4 6ec9     ...n...n...n...n
    bd3c:	9fe5 6eb7 9fe6 6ed3 9fe7 6ebd 9fe8 6eaf     ...n...n...n...n
    bd4c:	9fe9 6ec4 9fea 6eb2 9feb 6ed4 9fec 6ed5     ...n...n...n...n
    bd5c:	9fed 6e8f 9fee 6ea5 9fef 6ec2 9ff0 6e9f     ...n...n...n...n
    bd6c:	9ff1 6f41 9ff2 6f11 9ff3 704c 9ff4 6eec     ..Ao...o..Lp...n
    bd7c:	9ff5 6ef8 9ff6 6efe 9ff7 6f3f 9ff8 6ef2     ...n...n..?o...n
    bd8c:	9ff9 6f31 9ffa 6eef 9ffb 6f32 9ffc 6ecc     ..1o...n..2o...n
    bd9c:	e040 6f3e e041 6f13 e042 6ef7 e043 6f86     @.>oA..oB..nC..o
    bdac:	e044 6f7a e045 6f78 e046 6f81 e047 6f80     D.zoE.xoF..oG..o
    bdbc:	e048 6f6f e049 6f5b e04a 6ff3 e04b 6f6d     H.ooI.[oJ..oK.mo
    bdcc:	e04c 6f82 e04d 6f7c e04e 6f58 e04f 6f8e     L..oM.|oN.XoO..o
    bddc:	e050 6f91 e051 6fc2 e052 6f66 e053 6fb3     P..oQ..oR.foS..o
    bdec:	e054 6fa3 e055 6fa1 e056 6fa4 e057 6fb9     T..oU..oV..oW..o
    bdfc:	e058 6fc6 e059 6faa e05a 6fdf e05b 6fd5     X..oY..oZ..o[..o
    be0c:	e05c 6fec e05d 6fd4 e05e 6fd8 e05f 6ff1     \..o]..o^..o_..o
    be1c:	e060 6fee e061 6fdb e062 7009 e063 700b     `..oa..ob..pc..p
    be2c:	e064 6ffa e065 7011 e066 7001 e067 700f     d..oe..pf..pg..p
    be3c:	e068 6ffe e069 701b e06a 701a e06b 6f74     h..oi..pj..pk.to
    be4c:	e06c 701d e06d 7018 e06e 701f e06f 7030     l..pm..pn..po.0p
    be5c:	e070 703e e071 7032 e072 7051 e073 7063     p.>pq.2pr.Qps.cp
    be6c:	e074 7099 e075 7092 e076 70af e077 70f1     t..pu..pv..pw..p
    be7c:	e078 70ac e079 70b8 e07a 70b3 e07b 70ae     x..py..pz..p{..p
    be8c:	e07c 70df e07d 70cb e07e 70dd e080 70d9     |..p}..p~..p...p
    be9c:	e081 7109 e082 70fd e083 711c e084 7119     ...q...p...q...q
    beac:	e085 7165 e086 7155 e087 7188 e088 7166     ..eq..Uq...q..fq
    bebc:	e089 7162 e08a 714c e08b 7156 e08c 716c     ..bq..Lq..Vq..lq
    becc:	e08d 718f e08e 71fb e08f 7184 e090 7195     ...q...q...q...q
    bedc:	e091 71a8 e092 71ac e093 71d7 e094 71b9     ...q...q...q...q
    beec:	e095 71be e096 71d2 e097 71c9 e098 71d4     ...q...q...q...q
    befc:	e099 71ce e09a 71e0 e09b 71ec e09c 71e7     ...q...q...q...q
    bf0c:	e09d 71f5 e09e 71fc e09f 71f9 e0a0 71ff     ...q...q...q...q
    bf1c:	e0a1 720d e0a2 7210 e0a3 721b e0a4 7228     ...r...r...r..(r
    bf2c:	e0a5 722d e0a6 722c e0a7 7230 e0a8 7232     ..-r..,r..0r..2r
    bf3c:	e0a9 723b e0aa 723c e0ab 723f e0ac 7240     ..;r..<r..?r..@r
    bf4c:	e0ad 7246 e0ae 724b e0af 7258 e0b0 7274     ..Fr..Kr..Xr..tr
    bf5c:	e0b1 727e e0b2 7282 e0b3 7281 e0b4 7287     ..~r...r...r...r
    bf6c:	e0b5 7292 e0b6 7296 e0b7 72a2 e0b8 72a7     ...r...r...r...r
    bf7c:	e0b9 72b9 e0ba 72b2 e0bb 72c3 e0bc 72c6     ...r...r...r...r
    bf8c:	e0bd 72c4 e0be 72ce e0bf 72d2 e0c0 72e2     ...r...r...r...r
    bf9c:	e0c1 72e0 e0c2 72e1 e0c3 72f9 e0c4 72f7     ...r...r...r...r
    bfac:	e0c5 500f e0c6 7317 e0c7 730a e0c8 731c     ...P...s...s...s
    bfbc:	e0c9 7316 e0ca 731d e0cb 7334 e0cc 732f     ...s...s..4s../s
    bfcc:	e0cd 7329 e0ce 7325 e0cf 733e e0d0 734e     ..)s..%s..>s..Ns
    bfdc:	e0d1 734f e0d2 9ed8 e0d3 7357 e0d4 736a     ..Os......Ws..js
    bfec:	e0d5 7368 e0d6 7370 e0d7 7378 e0d8 7375     ..hs..ps..xs..us
    bffc:	e0d9 737b e0da 737a e0db 73c8 e0dc 73b3     ..{s..zs...s...s
    c00c:	e0dd 73ce e0de 73bb e0df 73c0 e0e0 73e5     ...s...s...s...s
    c01c:	e0e1 73ee e0e2 73de e0e3 74a2 e0e4 7405     ...s...s...t...t
    c02c:	e0e5 746f e0e6 7425 e0e7 73f8 e0e8 7432     ..ot..%t...s..2t
    c03c:	e0e9 743a e0ea 7455 e0eb 743f e0ec 745f     ..:t..Ut..?t.._t
    c04c:	e0ed 7459 e0ee 7441 e0ef 745c e0f0 7469     ..Yt..At..\t..it
    c05c:	e0f1 7470 e0f2 7463 e0f3 746a e0f4 7476     ..pt..ct..jt..vt
    c06c:	e0f5 747e e0f6 748b e0f7 749e e0f8 74a7     ..~t...t...t...t
    c07c:	e0f9 74ca e0fa 74cf e0fb 74d4 e0fc 73f1     ...t...t...t...s
    c08c:	e140 74e0 e141 74e3 e142 74e7 e143 74e9     @..tA..tB..tC..t
    c09c:	e144 74ee e145 74f2 e146 74f0 e147 74f1     D..tE..tF..tG..t
    c0ac:	e148 74f8 e149 74f7 e14a 7504 e14b 7503     H..tI..tJ..uK..u
    c0bc:	e14c 7505 e14d 750c e14e 750e e14f 750d     L..uM..uN..uO..u
    c0cc:	e150 7515 e151 7513 e152 751e e153 7526     P..uQ..uR..uS.&u
    c0dc:	e154 752c e155 753c e156 7544 e157 754d     T.,uU.<uV.DuW.Mu
    c0ec:	e158 754a e159 7549 e15a 755b e15b 7546     X.JuY.IuZ.[u[.Fu
    c0fc:	e15c 755a e15d 7569 e15e 7564 e15f 7567     \.Zu].iu^.du_.gu
    c10c:	e160 756b e161 756d e162 7578 e163 7576     `.kua.mub.xuc.vu
    c11c:	e164 7586 e165 7587 e166 7574 e167 758a     d..ue..uf.tug..u
    c12c:	e168 7589 e169 7582 e16a 7594 e16b 759a     h..ui..uj..uk..u
    c13c:	e16c 759d e16d 75a5 e16e 75a3 e16f 75c2     l..um..un..uo..u
    c14c:	e170 75b3 e171 75c3 e172 75b5 e173 75bd     p..uq..ur..us..u
    c15c:	e174 75b8 e175 75bc e176 75b1 e177 75cd     t..uu..uv..uw..u
    c16c:	e178 75ca e179 75d2 e17a 75d9 e17b 75e3     x..uy..uz..u{..u
    c17c:	e17c 75de e17d 75fe e17e 75ff e180 75fc     |..u}..u~..u...u
    c18c:	e181 7601 e182 75f0 e183 75fa e184 75f2     ...v...u...u...u
    c19c:	e185 75f3 e186 760b e187 760d e188 7609     ...u...v...v...v
    c1ac:	e189 761f e18a 7627 e18b 7620 e18c 7621     ...v..'v.. v..!v
    c1bc:	e18d 7622 e18e 7624 e18f 7634 e190 7630     .."v..$v..4v..0v
    c1cc:	e191 763b e192 7647 e193 7648 e194 7646     ..;v..Gv..Hv..Fv
    c1dc:	e195 765c e196 7658 e197 7661 e198 7662     ..\v..Xv..av..bv
    c1ec:	e199 7668 e19a 7669 e19b 766a e19c 7667     ..hv..iv..jv..gv
    c1fc:	e19d 766c e19e 7670 e19f 7672 e1a0 7676     ..lv..pv..rv..vv
    c20c:	e1a1 7678 e1a2 767c e1a3 7680 e1a4 7683     ..xv..|v...v...v
    c21c:	e1a5 7688 e1a6 768b e1a7 768e e1a8 7696     ...v...v...v...v
    c22c:	e1a9 7693 e1aa 7699 e1ab 769a e1ac 76b0     ...v...v...v...v
    c23c:	e1ad 76b4 e1ae 76b8 e1af 76b9 e1b0 76ba     ...v...v...v...v
    c24c:	e1b1 76c2 e1b2 76cd e1b3 76d6 e1b4 76d2     ...v...v...v...v
    c25c:	e1b5 76de e1b6 76e1 e1b7 76e5 e1b8 76e7     ...v...v...v...v
    c26c:	e1b9 76ea e1ba 862f e1bb 76fb e1bc 7708     ...v../....v...w
    c27c:	e1bd 7707 e1be 7704 e1bf 7729 e1c0 7724     ...w...w..)w..$w
    c28c:	e1c1 771e e1c2 7725 e1c3 7726 e1c4 771b     ...w..%w..&w...w
    c29c:	e1c5 7737 e1c6 7738 e1c7 7747 e1c8 775a     ..7w..8w..Gw..Zw
    c2ac:	e1c9 7768 e1ca 776b e1cb 775b e1cc 7765     ..hw..kw..[w..ew
    c2bc:	e1cd 777f e1ce 777e e1cf 7779 e1d0 778e     ...w..~w..yw...w
    c2cc:	e1d1 778b e1d2 7791 e1d3 77a0 e1d4 779e     ...w...w...w...w
    c2dc:	e1d5 77b0 e1d6 77b6 e1d7 77b9 e1d8 77bf     ...w...w...w...w
    c2ec:	e1d9 77bc e1da 77bd e1db 77bb e1dc 77c7     ...w...w...w...w
    c2fc:	e1dd 77cd e1de 77d7 e1df 77da e1e0 77dc     ...w...w...w...w
    c30c:	e1e1 77e3 e1e2 77ee e1e3 77fc e1e4 780c     ...w...w...w...x
    c31c:	e1e5 7812 e1e6 7926 e1e7 7820 e1e8 792a     ...x..&y.. x..*y
    c32c:	e1e9 7845 e1ea 788e e1eb 7874 e1ec 7886     ..Ex...x..tx...x
    c33c:	e1ed 787c e1ee 789a e1ef 788c e1f0 78a3     ..|x...x...x...x
    c34c:	e1f1 78b5 e1f2 78aa e1f3 78af e1f4 78d1     ...x...x...x...x
    c35c:	e1f5 78c6 e1f6 78cb e1f7 78d4 e1f8 78be     ...x...x...x...x
    c36c:	e1f9 78bc e1fa 78c5 e1fb 78ca e1fc 78ec     ...x...x...x...x
    c37c:	e240 78e7 e241 78da e242 78fd e243 78f4     @..xA..xB..xC..x
    c38c:	e244 7907 e245 7912 e246 7911 e247 7919     D..yE..yF..yG..y
    c39c:	e248 792c e249 792b e24a 7940 e24b 7960     H.,yI.+yJ.@yK.`y
    c3ac:	e24c 7957 e24d 795f e24e 795a e24f 7955     L.WyM._yN.ZyO.Uy
    c3bc:	e250 7953 e251 797a e252 797f e253 798a     P.SyQ.zyR..yS..y
    c3cc:	e254 799d e255 79a7 e256 9f4b e257 79aa     T..yU..yV.K.W..y
    c3dc:	e258 79ae e259 79b3 e25a 79b9 e25b 79ba     X..yY..yZ..y[..y
    c3ec:	e25c 79c9 e25d 79d5 e25e 79e7 e25f 79ec     \..y]..y^..y_..y
    c3fc:	e260 79e1 e261 79e3 e262 7a08 e263 7a0d     `..ya..yb..zc..z
    c40c:	e264 7a18 e265 7a19 e266 7a20 e267 7a1f     d..ze..zf. zg..z
    c41c:	e268 7980 e269 7a31 e26a 7a3b e26b 7a3e     h..yi.1zj.;zk.>z
    c42c:	e26c 7a37 e26d 7a43 e26e 7a57 e26f 7a49     l.7zm.Czn.Wzo.Iz
    c43c:	e270 7a61 e271 7a62 e272 7a69 e273 9f9d     p.azq.bzr.izs...
    c44c:	e274 7a70 e275 7a79 e276 7a7d e277 7a88     t.pzu.yzv.}zw..z
    c45c:	e278 7a97 e279 7a95 e27a 7a98 e27b 7a96     x..zy..zz..z{..z
    c46c:	e27c 7aa9 e27d 7ac8 e27e 7ab0 e280 7ab6     |..z}..z~..z...z
    c47c:	e281 7ac5 e282 7ac4 e283 7abf e284 9083     ...z...z...z....
    c48c:	e285 7ac7 e286 7aca e287 7acd e288 7acf     ...z...z...z...z
    c49c:	e289 7ad5 e28a 7ad3 e28b 7ad9 e28c 7ada     ...z...z...z...z
    c4ac:	e28d 7add e28e 7ae1 e28f 7ae2 e290 7ae6     ...z...z...z...z
    c4bc:	e291 7aed e292 7af0 e293 7b02 e294 7b0f     ...z...z...{...{
    c4cc:	e295 7b0a e296 7b06 e297 7b33 e298 7b18     ...{...{..3{...{
    c4dc:	e299 7b19 e29a 7b1e e29b 7b35 e29c 7b28     ...{...{..5{..({
    c4ec:	e29d 7b36 e29e 7b50 e29f 7b7a e2a0 7b04     ..6{..P{..z{...{
    c4fc:	e2a1 7b4d e2a2 7b0b e2a3 7b4c e2a4 7b45     ..M{...{..L{..E{
    c50c:	e2a5 7b75 e2a6 7b65 e2a7 7b74 e2a8 7b67     ..u{..e{..t{..g{
    c51c:	e2a9 7b70 e2aa 7b71 e2ab 7b6c e2ac 7b6e     ..p{..q{..l{..n{
    c52c:	e2ad 7b9d e2ae 7b98 e2af 7b9f e2b0 7b8d     ...{...{...{...{
    c53c:	e2b1 7b9c e2b2 7b9a e2b3 7b8b e2b4 7b92     ...{...{...{...{
    c54c:	e2b5 7b8f e2b6 7b5d e2b7 7b99 e2b8 7bcb     ...{..]{...{...{
    c55c:	e2b9 7bc1 e2ba 7bcc e2bb 7bcf e2bc 7bb4     ...{...{...{...{
    c56c:	e2bd 7bc6 e2be 7bdd e2bf 7be9 e2c0 7c11     ...{...{...{...|
    c57c:	e2c1 7c14 e2c2 7be6 e2c3 7be5 e2c4 7c60     ...|...{...{..`|
    c58c:	e2c5 7c00 e2c6 7c07 e2c7 7c13 e2c8 7bf3     ...|...|...|...{
    c59c:	e2c9 7bf7 e2ca 7c17 e2cb 7c0d e2cc 7bf6     ...{...|...|...{
    c5ac:	e2cd 7c23 e2ce 7c27 e2cf 7c2a e2d0 7c1f     ..#|..'|..*|...|
    c5bc:	e2d1 7c37 e2d2 7c2b e2d3 7c3d e2d4 7c4c     ..7|..+|..=|..L|
    c5cc:	e2d5 7c43 e2d6 7c54 e2d7 7c4f e2d8 7c40     ..C|..T|..O|..@|
    c5dc:	e2d9 7c50 e2da 7c58 e2db 7c5f e2dc 7c64     ..P|..X|.._|..d|
    c5ec:	e2dd 7c56 e2de 7c65 e2df 7c6c e2e0 7c75     ..V|..e|..l|..u|
    c5fc:	e2e1 7c83 e2e2 7c90 e2e3 7ca4 e2e4 7cad     ...|...|...|...|
    c60c:	e2e5 7ca2 e2e6 7cab e2e7 7ca1 e2e8 7ca8     ...|...|...|...|
    c61c:	e2e9 7cb3 e2ea 7cb2 e2eb 7cb1 e2ec 7cae     ...|...|...|...|
    c62c:	e2ed 7cb9 e2ee 7cbd e2ef 7cc0 e2f0 7cc5     ...|...|...|...|
    c63c:	e2f1 7cc2 e2f2 7cd8 e2f3 7cd2 e2f4 7cdc     ...|...|...|...|
    c64c:	e2f5 7ce2 e2f6 9b3b e2f7 7cef e2f8 7cf2     ...|..;....|...|
    c65c:	e2f9 7cf4 e2fa 7cf6 e2fb 7cfa e2fc 7d06     ...|...|...|...}
    c66c:	e340 7d02 e341 7d1c e342 7d15 e343 7d0a     @..}A..}B..}C..}
    c67c:	e344 7d45 e345 7d4b e346 7d2e e347 7d32     D.E}E.K}F..}G.2}
    c68c:	e348 7d3f e349 7d35 e34a 7d46 e34b 7d73     H.?}I.5}J.F}K.s}
    c69c:	e34c 7d56 e34d 7d4e e34e 7d72 e34f 7d68     L.V}M.N}N.r}O.h}
    c6ac:	e350 7d6e e351 7d4f e352 7d63 e353 7d93     P.n}Q.O}R.c}S..}
    c6bc:	e354 7d89 e355 7d5b e356 7d8f e357 7d7d     T..}U.[}V..}W.}}
    c6cc:	e358 7d9b e359 7dba e35a 7dae e35b 7da3     X..}Y..}Z..}[..}
    c6dc:	e35c 7db5 e35d 7dc7 e35e 7dbd e35f 7dab     \..}]..}^..}_..}
    c6ec:	e360 7e3d e361 7da2 e362 7daf e363 7ddc     `.=~a..}b..}c..}
    c6fc:	e364 7db8 e365 7d9f e366 7db0 e367 7dd8     d..}e..}f..}g..}
    c70c:	e368 7ddd e369 7de4 e36a 7dde e36b 7dfb     h..}i..}j..}k..}
    c71c:	e36c 7df2 e36d 7de1 e36e 7e05 e36f 7e0a     l..}m..}n..~o..~
    c72c:	e370 7e23 e371 7e21 e372 7e12 e373 7e31     p.#~q.!~r..~s.1~
    c73c:	e374 7e1f e375 7e09 e376 7e0b e377 7e22     t..~u..~v..~w."~
    c74c:	e378 7e46 e379 7e66 e37a 7e3b e37b 7e35     x.F~y.f~z.;~{.5~
    c75c:	e37c 7e39 e37d 7e43 e37e 7e37 e380 7e32     |.9~}.C~~.7~..2~
    c76c:	e381 7e3a e382 7e67 e383 7e5d e384 7e56     ..:~..g~..]~..V~
    c77c:	e385 7e5e e386 7e59 e387 7e5a e388 7e79     ..^~..Y~..Z~..y~
    c78c:	e389 7e6a e38a 7e69 e38b 7e7c e38c 7e7b     ..j~..i~..|~..{~
    c79c:	e38d 7e83 e38e 7dd5 e38f 7e7d e390 8fae     ...~...}..}~....
    c7ac:	e391 7e7f e392 7e88 e393 7e89 e394 7e8c     ...~...~...~...~
    c7bc:	e395 7e92 e396 7e90 e397 7e93 e398 7e94     ...~...~...~...~
    c7cc:	e399 7e96 e39a 7e8e e39b 7e9b e39c 7e9c     ...~...~...~...~
    c7dc:	e39d 7f38 e39e 7f3a e39f 7f45 e3a0 7f4c     ..8...:...E...L.
    c7ec:	e3a1 7f4d e3a2 7f4e e3a3 7f50 e3a4 7f51     ..M...N...P...Q.
    c7fc:	e3a5 7f55 e3a6 7f54 e3a7 7f58 e3a8 7f5f     ..U...T...X..._.
    c80c:	e3a9 7f60 e3aa 7f68 e3ab 7f69 e3ac 7f67     ..`...h...i...g.
    c81c:	e3ad 7f78 e3ae 7f82 e3af 7f86 e3b0 7f83     ..x.............
    c82c:	e3b1 7f88 e3b2 7f87 e3b3 7f8c e3b4 7f94     ................
    c83c:	e3b5 7f9e e3b6 7f9d e3b7 7f9a e3b8 7fa3     ................
    c84c:	e3b9 7faf e3ba 7fb2 e3bb 7fb9 e3bc 7fae     ................
    c85c:	e3bd 7fb6 e3be 7fb8 e3bf 8b71 e3c0 7fc5     ..........q.....
    c86c:	e3c1 7fc6 e3c2 7fca e3c3 7fd5 e3c4 7fd4     ................
    c87c:	e3c5 7fe1 e3c6 7fe6 e3c7 7fe9 e3c8 7ff3     ................
    c88c:	e3c9 7ff9 e3ca 98dc e3cb 8006 e3cc 8004     ................
    c89c:	e3cd 800b e3ce 8012 e3cf 8018 e3d0 8019     ................
    c8ac:	e3d1 801c e3d2 8021 e3d3 8028 e3d4 803f     ......!...(...?.
    c8bc:	e3d5 803b e3d6 804a e3d7 8046 e3d8 8052     ..;...J...F...R.
    c8cc:	e3d9 8058 e3da 805a e3db 805f e3dc 8062     ..X...Z..._...b.
    c8dc:	e3dd 8068 e3de 8073 e3df 8072 e3e0 8070     ..h...s...r...p.
    c8ec:	e3e1 8076 e3e2 8079 e3e3 807d e3e4 807f     ..v...y...}.....
    c8fc:	e3e5 8084 e3e6 8086 e3e7 8085 e3e8 809b     ................
    c90c:	e3e9 8093 e3ea 809a e3eb 80ad e3ec 5190     ...............Q
    c91c:	e3ed 80ac e3ee 80db e3ef 80e5 e3f0 80d9     ................
    c92c:	e3f1 80dd e3f2 80c4 e3f3 80da e3f4 80d6     ................
    c93c:	e3f5 8109 e3f6 80ef e3f7 80f1 e3f8 811b     ................
    c94c:	e3f9 8129 e3fa 8123 e3fb 812f e3fc 814b     ..)...#.../...K.
    c95c:	e440 968b e441 8146 e442 813e e443 8153     @...A.F.B.>.C.S.
    c96c:	e444 8151 e445 80fc e446 8171 e447 816e     D.Q.E...F.q.G.n.
    c97c:	e448 8165 e449 8166 e44a 8174 e44b 8183     H.e.I.f.J.t.K...
    c98c:	e44c 8188 e44d 818a e44e 8180 e44f 8182     L...M...N...O...
    c99c:	e450 81a0 e451 8195 e452 81a4 e453 81a3     P...Q...R...S...
    c9ac:	e454 815f e455 8193 e456 81a9 e457 81b0     T._.U...V...W...
    c9bc:	e458 81b5 e459 81be e45a 81b8 e45b 81bd     X...Y...Z...[...
    c9cc:	e45c 81c0 e45d 81c2 e45e 81ba e45f 81c9     \...]...^..._...
    c9dc:	e460 81cd e461 81d1 e462 81d9 e463 81d8     `...a...b...c...
    c9ec:	e464 81c8 e465 81da e466 81df e467 81e0     d...e...f...g...
    c9fc:	e468 81e7 e469 81fa e46a 81fb e46b 81fe     h...i...j...k...
    ca0c:	e46c 8201 e46d 8202 e46e 8205 e46f 8207     l...m...n...o...
    ca1c:	e470 820a e471 820d e472 8210 e473 8216     p...q...r...s...
    ca2c:	e474 8229 e475 822b e476 8238 e477 8233     t.).u.+.v.8.w.3.
    ca3c:	e478 8240 e479 8259 e47a 8258 e47b 825d     x.@.y.Y.z.X.{.].
    ca4c:	e47c 825a e47d 825f e47e 8264 e480 8262     |.Z.}._.~.d...b.
    ca5c:	e481 8268 e482 826a e483 826b e484 822e     ..h...j...k.....
    ca6c:	e485 8271 e486 8277 e487 8278 e488 827e     ..q...w...x...~.
    ca7c:	e489 828d e48a 8292 e48b 82ab e48c 829f     ................
    ca8c:	e48d 82bb e48e 82ac e48f 82e1 e490 82e3     ................
    ca9c:	e491 82df e492 82d2 e493 82f4 e494 82f3     ................
    caac:	e495 82fa e496 8393 e497 8303 e498 82fb     ................
    cabc:	e499 82f9 e49a 82de e49b 8306 e49c 82dc     ................
    cacc:	e49d 8309 e49e 82d9 e49f 8335 e4a0 8334     ..........5...4.
    cadc:	e4a1 8316 e4a2 8332 e4a3 8331 e4a4 8340     ......2...1...@.
    caec:	e4a5 8339 e4a6 8350 e4a7 8345 e4a8 832f     ..9...P...E.../.
    cafc:	e4a9 832b e4aa 8317 e4ab 8318 e4ac 8385     ..+.............
    cb0c:	e4ad 839a e4ae 83aa e4af 839f e4b0 83a2     ................
    cb1c:	e4b1 8396 e4b2 8323 e4b3 838e e4b4 8387     ......#.........
    cb2c:	e4b5 838a e4b6 837c e4b7 83b5 e4b8 8373     ......|.......s.
    cb3c:	e4b9 8375 e4ba 83a0 e4bb 8389 e4bc 83a8     ..u.............
    cb4c:	e4bd 83f4 e4be 8413 e4bf 83eb e4c0 83ce     ................
    cb5c:	e4c1 83fd e4c2 8403 e4c3 83d8 e4c4 840b     ................
    cb6c:	e4c5 83c1 e4c6 83f7 e4c7 8407 e4c8 83e0     ................
    cb7c:	e4c9 83f2 e4ca 840d e4cb 8422 e4cc 8420     .........."... .
    cb8c:	e4cd 83bd e4ce 8438 e4cf 8506 e4d0 83fb     ......8.........
    cb9c:	e4d1 846d e4d2 842a e4d3 843c e4d4 855a     ..m...*...<...Z.
    cbac:	e4d5 8484 e4d6 8477 e4d7 846b e4d8 84ad     ......w...k.....
    cbbc:	e4d9 846e e4da 8482 e4db 8469 e4dc 8446     ..n.......i...F.
    cbcc:	e4dd 842c e4de 846f e4df 8479 e4e0 8435     ..,...o...y...5.
    cbdc:	e4e1 84ca e4e2 8462 e4e3 84b9 e4e4 84bf     ......b.........
    cbec:	e4e5 849f e4e6 84d9 e4e7 84cd e4e8 84bb     ................
    cbfc:	e4e9 84da e4ea 84d0 e4eb 84c1 e4ec 84c6     ................
    cc0c:	e4ed 84d6 e4ee 84a1 e4ef 8521 e4f0 84ff     ..........!.....
    cc1c:	e4f1 84f4 e4f2 8517 e4f3 8518 e4f4 852c     ..............,.
    cc2c:	e4f5 851f e4f6 8515 e4f7 8514 e4f8 84fc     ................
    cc3c:	e4f9 8540 e4fa 8563 e4fb 8558 e4fc 8548     ..@...c...X...H.
    cc4c:	e540 8541 e541 8602 e542 854b e543 8555     @.A.A...B.K.C.U.
    cc5c:	e544 8580 e545 85a4 e546 8588 e547 8591     D...E...F...G...
    cc6c:	e548 858a e549 85a8 e54a 856d e54b 8594     H...I...J.m.K...
    cc7c:	e54c 859b e54d 85ea e54e 8587 e54f 859c     L...M...N...O...
    cc8c:	e550 8577 e551 857e e552 8590 e553 85c9     P.w.Q.~.R...S...
    cc9c:	e554 85ba e555 85cf e556 85b9 e557 85d0     T...U...V...W...
    ccac:	e558 85d5 e559 85dd e55a 85e5 e55b 85dc     X...Y...Z...[...
    ccbc:	e55c 85f9 e55d 860a e55e 8613 e55f 860b     \...]...^..._...
    cccc:	e560 85fe e561 85fa e562 8606 e563 8622     `...a...b...c.".
    ccdc:	e564 861a e565 8630 e566 863f e567 864d     d...e.0.f.?.g.M.
    ccec:	e568 4e55 e569 8654 e56a 865f e56b 8667     h.UNi.T.j._.k.g.
    ccfc:	e56c 8671 e56d 8693 e56e 86a3 e56f 86a9     l.q.m...n...o...
    cd0c:	e570 86aa e571 868b e572 868c e573 86b6     p...q...r...s...
    cd1c:	e574 86af e575 86c4 e576 86c6 e577 86b0     t...u...v...w...
    cd2c:	e578 86c9 e579 8823 e57a 86ab e57b 86d4     x...y.#.z...{...
    cd3c:	e57c 86de e57d 86e9 e57e 86ec e580 86df     |...}...~.......
    cd4c:	e581 86db e582 86ef e583 8712 e584 8706     ................
    cd5c:	e585 8708 e586 8700 e587 8703 e588 86fb     ................
    cd6c:	e589 8711 e58a 8709 e58b 870d e58c 86f9     ................
    cd7c:	e58d 870a e58e 8734 e58f 873f e590 8737     ......4...?...7.
    cd8c:	e591 873b e592 8725 e593 8729 e594 871a     ..;...%...).....
    cd9c:	e595 8760 e596 875f e597 8778 e598 874c     ..`..._...x...L.
    cdac:	e599 874e e59a 8774 e59b 8757 e59c 8768     ..N...t...W...h.
    cdbc:	e59d 876e e59e 8759 e59f 8753 e5a0 8763     ..n...Y...S...c.
    cdcc:	e5a1 876a e5a2 8805 e5a3 87a2 e5a4 879f     ..j.............
    cddc:	e5a5 8782 e5a6 87af e5a7 87cb e5a8 87bd     ................
    cdec:	e5a9 87c0 e5aa 87d0 e5ab 96d6 e5ac 87ab     ................
    cdfc:	e5ad 87c4 e5ae 87b3 e5af 87c7 e5b0 87c6     ................
    ce0c:	e5b1 87bb e5b2 87ef e5b3 87f2 e5b4 87e0     ................
    ce1c:	e5b5 880f e5b6 880d e5b7 87fe e5b8 87f6     ................
    ce2c:	e5b9 87f7 e5ba 880e e5bb 87d2 e5bc 8811     ................
    ce3c:	e5bd 8816 e5be 8815 e5bf 8822 e5c0 8821     .........."...!.
    ce4c:	e5c1 8831 e5c2 8836 e5c3 8839 e5c4 8827     ..1...6...9...'.
    ce5c:	e5c5 883b e5c6 8844 e5c7 8842 e5c8 8852     ..;...D...B...R.
    ce6c:	e5c9 8859 e5ca 885e e5cb 8862 e5cc 886b     ..Y...^...b...k.
    ce7c:	e5cd 8881 e5ce 887e e5cf 889e e5d0 8875     ......~.......u.
    ce8c:	e5d1 887d e5d2 88b5 e5d3 8872 e5d4 8882     ..}.......r.....
    ce9c:	e5d5 8897 e5d6 8892 e5d7 88ae e5d8 8899     ................
    ceac:	e5d9 88a2 e5da 888d e5db 88a4 e5dc 88b0     ................
    cebc:	e5dd 88bf e5de 88b1 e5df 88c3 e5e0 88c4     ................
    cecc:	e5e1 88d4 e5e2 88d8 e5e3 88d9 e5e4 88dd     ................
    cedc:	e5e5 88f9 e5e6 8902 e5e7 88fc e5e8 88f4     ................
    ceec:	e5e9 88e8 e5ea 88f2 e5eb 8904 e5ec 890c     ................
    cefc:	e5ed 890a e5ee 8913 e5ef 8943 e5f0 891e     ..........C.....
    cf0c:	e5f1 8925 e5f2 892a e5f3 892b e5f4 8941     ..%...*...+...A.
    cf1c:	e5f5 8944 e5f6 893b e5f7 8936 e5f8 8938     ..D...;...6...8.
    cf2c:	e5f9 894c e5fa 891d e5fb 8960 e5fc 895e     ..L.......`...^.
    cf3c:	e640 8966 e641 8964 e642 896d e643 896a     @.f.A.d.B.m.C.j.
    cf4c:	e644 896f e645 8974 e646 8977 e647 897e     D.o.E.t.F.w.G.~.
    cf5c:	e648 8983 e649 8988 e64a 898a e64b 8993     H...I...J...K...
    cf6c:	e64c 8998 e64d 89a1 e64e 89a9 e64f 89a6     L...M...N...O...
    cf7c:	e650 89ac e651 89af e652 89b2 e653 89ba     P...Q...R...S...
    cf8c:	e654 89bd e655 89bf e656 89c0 e657 89da     T...U...V...W...
    cf9c:	e658 89dc e659 89dd e65a 89e7 e65b 89f4     X...Y...Z...[...
    cfac:	e65c 89f8 e65d 8a03 e65e 8a16 e65f 8a10     \...]...^..._...
    cfbc:	e660 8a0c e661 8a1b e662 8a1d e663 8a25     `...a...b...c.%.
    cfcc:	e664 8a36 e665 8a41 e666 8a5b e667 8a52     d.6.e.A.f.[.g.R.
    cfdc:	e668 8a46 e669 8a48 e66a 8a7c e66b 8a6d     h.F.i.H.j.|.k.m.
    cfec:	e66c 8a6c e66d 8a62 e66e 8a85 e66f 8a82     l.l.m.b.n...o...
    cffc:	e670 8a84 e671 8aa8 e672 8aa1 e673 8a91     p...q...r...s...
    d00c:	e674 8aa5 e675 8aa6 e676 8a9a e677 8aa3     t...u...v...w...
    d01c:	e678 8ac4 e679 8acd e67a 8ac2 e67b 8ada     x...y...z...{...
    d02c:	e67c 8aeb e67d 8af3 e67e 8ae7 e680 8ae4     |...}...~.......
    d03c:	e681 8af1 e682 8b14 e683 8ae0 e684 8ae2     ................
    d04c:	e685 8af7 e686 8ade e687 8adb e688 8b0c     ................
    d05c:	e689 8b07 e68a 8b1a e68b 8ae1 e68c 8b16     ................
    d06c:	e68d 8b10 e68e 8b17 e68f 8b20 e690 8b33     .......... ...3.
    d07c:	e691 97ab e692 8b26 e693 8b2b e694 8b3e     ......&...+...>.
    d08c:	e695 8b28 e696 8b41 e697 8b4c e698 8b4f     ..(...A...L...O.
    d09c:	e699 8b4e e69a 8b49 e69b 8b56 e69c 8b5b     ..N...I...V...[.
    d0ac:	e69d 8b5a e69e 8b6b e69f 8b5f e6a0 8b6c     ..Z...k..._...l.
    d0bc:	e6a1 8b6f e6a2 8b74 e6a3 8b7d e6a4 8b80     ..o...t...}.....
    d0cc:	e6a5 8b8c e6a6 8b8e e6a7 8b92 e6a8 8b93     ................
    d0dc:	e6a9 8b96 e6aa 8b99 e6ab 8b9a e6ac 8c3a     ..............:.
    d0ec:	e6ad 8c41 e6ae 8c3f e6af 8c48 e6b0 8c4c     ..A...?...H...L.
    d0fc:	e6b1 8c4e e6b2 8c50 e6b3 8c55 e6b4 8c62     ..N...P...U...b.
    d10c:	e6b5 8c6c e6b6 8c78 e6b7 8c7a e6b8 8c82     ..l...x...z.....
    d11c:	e6b9 8c89 e6ba 8c85 e6bb 8c8a e6bc 8c8d     ................
    d12c:	e6bd 8c8e e6be 8c94 e6bf 8c7c e6c0 8c98     ..........|.....
    d13c:	e6c1 621d e6c2 8cad e6c3 8caa e6c4 8cbd     ...b............
    d14c:	e6c5 8cb2 e6c6 8cb3 e6c7 8cae e6c8 8cb6     ................
    d15c:	e6c9 8cc8 e6ca 8cc1 e6cb 8ce4 e6cc 8ce3     ................
    d16c:	e6cd 8cda e6ce 8cfd e6cf 8cfa e6d0 8cfb     ................
    d17c:	e6d1 8d04 e6d2 8d05 e6d3 8d0a e6d4 8d07     ................
    d18c:	e6d5 8d0f e6d6 8d0d e6d7 8d10 e6d8 9f4e     ..............N.
    d19c:	e6d9 8d13 e6da 8ccd e6db 8d14 e6dc 8d16     ................
    d1ac:	e6dd 8d67 e6de 8d6d e6df 8d71 e6e0 8d73     ..g...m...q...s.
    d1bc:	e6e1 8d81 e6e2 8d99 e6e3 8dc2 e6e4 8dbe     ................
    d1cc:	e6e5 8dba e6e6 8dcf e6e7 8dda e6e8 8dd6     ................
    d1dc:	e6e9 8dcc e6ea 8ddb e6eb 8dcb e6ec 8dea     ................
    d1ec:	e6ed 8deb e6ee 8ddf e6ef 8de3 e6f0 8dfc     ................
    d1fc:	e6f1 8e08 e6f2 8e09 e6f3 8dff e6f4 8e1d     ................
    d20c:	e6f5 8e1e e6f6 8e10 e6f7 8e1f e6f8 8e42     ..............B.
    d21c:	e6f9 8e35 e6fa 8e30 e6fb 8e34 e6fc 8e4a     ..5...0...4...J.
    d22c:	e740 8e47 e741 8e49 e742 8e4c e743 8e50     @.G.A.I.B.L.C.P.
    d23c:	e744 8e48 e745 8e59 e746 8e64 e747 8e60     D.H.E.Y.F.d.G.`.
    d24c:	e748 8e2a e749 8e63 e74a 8e55 e74b 8e76     H.*.I.c.J.U.K.v.
    d25c:	e74c 8e72 e74d 8e7c e74e 8e81 e74f 8e87     L.r.M.|.N...O...
    d26c:	e750 8e85 e751 8e84 e752 8e8b e753 8e8a     P...Q...R...S...
    d27c:	e754 8e93 e755 8e91 e756 8e94 e757 8e99     T...U...V...W...
    d28c:	e758 8eaa e759 8ea1 e75a 8eac e75b 8eb0     X...Y...Z...[...
    d29c:	e75c 8ec6 e75d 8eb1 e75e 8ebe e75f 8ec5     \...]...^..._...
    d2ac:	e760 8ec8 e761 8ecb e762 8edb e763 8ee3     `...a...b...c...
    d2bc:	e764 8efc e765 8efb e766 8eeb e767 8efe     d...e...f...g...
    d2cc:	e768 8f0a e769 8f05 e76a 8f15 e76b 8f12     h...i...j...k...
    d2dc:	e76c 8f19 e76d 8f13 e76e 8f1c e76f 8f1f     l...m...n...o...
    d2ec:	e770 8f1b e771 8f0c e772 8f26 e773 8f33     p...q...r.&.s.3.
    d2fc:	e774 8f3b e775 8f39 e776 8f45 e777 8f42     t.;.u.9.v.E.w.B.
    d30c:	e778 8f3e e779 8f4c e77a 8f49 e77b 8f46     x.>.y.L.z.I.{.F.
    d31c:	e77c 8f4e e77d 8f57 e77e 8f5c e780 8f62     |.N.}.W.~.\...b.
    d32c:	e781 8f63 e782 8f64 e783 8f9c e784 8f9f     ..c...d.........
    d33c:	e785 8fa3 e786 8fad e787 8faf e788 8fb7     ................
    d34c:	e789 8fda e78a 8fe5 e78b 8fe2 e78c 8fea     ................
    d35c:	e78d 8fef e78e 9087 e78f 8ff4 e790 9005     ................
    d36c:	e791 8ff9 e792 8ffa e793 9011 e794 9015     ................
    d37c:	e795 9021 e796 900d e797 901e e798 9016     ..!.............
    d38c:	e799 900b e79a 9027 e79b 9036 e79c 9035     ......'...6...5.
    d39c:	e79d 9039 e79e 8ff8 e79f 904f e7a0 9050     ..9.......O...P.
    d3ac:	e7a1 9051 e7a2 9052 e7a3 900e e7a4 9049     ..Q...R.......I.
    d3bc:	e7a5 903e e7a6 9056 e7a7 9058 e7a8 905e     ..>...V...X...^.
    d3cc:	e7a9 9068 e7aa 906f e7ab 9076 e7ac 96a8     ..h...o...v.....
    d3dc:	e7ad 9072 e7ae 9082 e7af 907d e7b0 9081     ..r.......}.....
    d3ec:	e7b1 9080 e7b2 908a e7b3 9089 e7b4 908f     ................
    d3fc:	e7b5 90a8 e7b6 90af e7b7 90b1 e7b8 90b5     ................
    d40c:	e7b9 90e2 e7ba 90e4 e7bb 6248 e7bc 90db     ..........Hb....
    d41c:	e7bd 9102 e7be 9112 e7bf 9119 e7c0 9132     ..............2.
    d42c:	e7c1 9130 e7c2 914a e7c3 9156 e7c4 9158     ..0...J...V...X.
    d43c:	e7c5 9163 e7c6 9165 e7c7 9169 e7c8 9173     ..c...e...i...s.
    d44c:	e7c9 9172 e7ca 918b e7cb 9189 e7cc 9182     ..r.............
    d45c:	e7cd 91a2 e7ce 91ab e7cf 91af e7d0 91aa     ................
    d46c:	e7d1 91b5 e7d2 91b4 e7d3 91ba e7d4 91c0     ................
    d47c:	e7d5 91c1 e7d6 91c9 e7d7 91cb e7d8 91d0     ................
    d48c:	e7d9 91d6 e7da 91df e7db 91e1 e7dc 91db     ................
    d49c:	e7dd 91fc e7de 91f5 e7df 91f6 e7e0 921e     ................
    d4ac:	e7e1 91ff e7e2 9214 e7e3 922c e7e4 9215     ..........,.....
    d4bc:	e7e5 9211 e7e6 925e e7e7 9257 e7e8 9245     ......^...W...E.
    d4cc:	e7e9 9249 e7ea 9264 e7eb 9248 e7ec 9295     ..I...d...H.....
    d4dc:	e7ed 923f e7ee 924b e7ef 9250 e7f0 929c     ..?...K...P.....
    d4ec:	e7f1 9296 e7f2 9293 e7f3 929b e7f4 925a     ..............Z.
    d4fc:	e7f5 92cf e7f6 92b9 e7f7 92b7 e7f8 92e9     ................
    d50c:	e7f9 930f e7fa 92fa e7fb 9344 e7fc 932e     ..........D.....
    d51c:	e840 9319 e841 9322 e842 931a e843 9323     @...A.".B...C.#.
    d52c:	e844 933a e845 9335 e846 933b e847 935c     D.:.E.5.F.;.G.\.
    d53c:	e848 9360 e849 937c e84a 936e e84b 9356     H.`.I.|.J.n.K.V.
    d54c:	e84c 93b0 e84d 93ac e84e 93ad e84f 9394     L...M...N...O...
    d55c:	e850 93b9 e851 93d6 e852 93d7 e853 93e8     P...Q...R...S...
    d56c:	e854 93e5 e855 93d8 e856 93c3 e857 93dd     T...U...V...W...
    d57c:	e858 93d0 e859 93c8 e85a 93e4 e85b 941a     X...Y...Z...[...
    d58c:	e85c 9414 e85d 9413 e85e 9403 e85f 9407     \...]...^..._...
    d59c:	e860 9410 e861 9436 e862 942b e863 9435     `...a.6.b.+.c.5.
    d5ac:	e864 9421 e865 943a e866 9441 e867 9452     d.!.e.:.f.A.g.R.
    d5bc:	e868 9444 e869 945b e86a 9460 e86b 9462     h.D.i.[.j.`.k.b.
    d5cc:	e86c 945e e86d 946a e86e 9229 e86f 9470     l.^.m.j.n.).o.p.
    d5dc:	e870 9475 e871 9477 e872 947d e873 945a     p.u.q.w.r.}.s.Z.
    d5ec:	e874 947c e875 947e e876 9481 e877 947f     t.|.u.~.v...w...
    d5fc:	e878 9582 e879 9587 e87a 958a e87b 9594     x...y...z...{...
    d60c:	e87c 9596 e87d 9598 e87e 9599 e880 95a0     |...}...~.......
    d61c:	e881 95a8 e882 95a7 e883 95ad e884 95bc     ................
    d62c:	e885 95bb e886 95b9 e887 95be e888 95ca     ................
    d63c:	e889 6ff6 e88a 95c3 e88b 95cd e88c 95cc     ...o............
    d64c:	e88d 95d5 e88e 95d4 e88f 95d6 e890 95dc     ................
    d65c:	e891 95e1 e892 95e5 e893 95e2 e894 9621     ..............!.
    d66c:	e895 9628 e896 962e e897 962f e898 9642     ..(......./...B.
    d67c:	e899 964c e89a 964f e89b 964b e89c 9677     ..L...O...K...w.
    d68c:	e89d 965c e89e 965e e89f 965d e8a0 965f     ..\...^...]..._.
    d69c:	e8a1 9666 e8a2 9672 e8a3 966c e8a4 968d     ..f...r...l.....
    d6ac:	e8a5 9698 e8a6 9695 e8a7 9697 e8a8 96aa     ................
    d6bc:	e8a9 96a7 e8aa 96b1 e8ab 96b2 e8ac 96b0     ................
    d6cc:	e8ad 96b4 e8ae 96b6 e8af 96b8 e8b0 96b9     ................
    d6dc:	e8b1 96ce e8b2 96cb e8b3 96c9 e8b4 96cd     ................
    d6ec:	e8b5 894d e8b6 96dc e8b7 970d e8b8 96d5     ..M.............
    d6fc:	e8b9 96f9 e8ba 9704 e8bb 9706 e8bc 9708     ................
    d70c:	e8bd 9713 e8be 970e e8bf 9711 e8c0 970f     ................
    d71c:	e8c1 9716 e8c2 9719 e8c3 9724 e8c4 972a     ..........$...*.
    d72c:	e8c5 9730 e8c6 9739 e8c7 973d e8c8 973e     ..0...9...=...>.
    d73c:	e8c9 9744 e8ca 9746 e8cb 9748 e8cc 9742     ..D...F...H...B.
    d74c:	e8cd 9749 e8ce 975c e8cf 9760 e8d0 9764     ..I...\...`...d.
    d75c:	e8d1 9766 e8d2 9768 e8d3 52d2 e8d4 976b     ..f...h....R..k.
    d76c:	e8d5 9771 e8d6 9779 e8d7 9785 e8d8 977c     ..q...y.......|.
    d77c:	e8d9 9781 e8da 977a e8db 9786 e8dc 978b     ......z.........
    d78c:	e8dd 978f e8de 9790 e8df 979c e8e0 97a8     ................
    d79c:	e8e1 97a6 e8e2 97a3 e8e3 97b3 e8e4 97b4     ................
    d7ac:	e8e5 97c3 e8e6 97c6 e8e7 97c8 e8e8 97cb     ................
    d7bc:	e8e9 97dc e8ea 97ed e8eb 9f4f e8ec 97f2     ..........O.....
    d7cc:	e8ed 7adf e8ee 97f6 e8ef 97f5 e8f0 980f     ...z............
    d7dc:	e8f1 980c e8f2 9838 e8f3 9824 e8f4 9821     ......8...$...!.
    d7ec:	e8f5 9837 e8f6 983d e8f7 9846 e8f8 984f     ..7...=...F...O.
    d7fc:	e8f9 984b e8fa 986b e8fb 986f e8fc 9870     ..K...k...o...p.
    d80c:	e940 9871 e941 9874 e942 9873 e943 98aa     @.q.A.t.B.s.C...
    d81c:	e944 98af e945 98b1 e946 98b6 e947 98c4     D...E...F...G...
    d82c:	e948 98c3 e949 98c6 e94a 98e9 e94b 98eb     H...I...J...K...
    d83c:	e94c 9903 e94d 9909 e94e 9912 e94f 9914     L...M...N...O...
    d84c:	e950 9918 e951 9921 e952 991d e953 991e     P...Q.!.R...S...
    d85c:	e954 9924 e955 9920 e956 992c e957 992e     T.$.U. .V.,.W...
    d86c:	e958 993d e959 993e e95a 9942 e95b 9949     X.=.Y.>.Z.B.[.I.
    d87c:	e95c 9945 e95d 9950 e95e 994b e95f 9951     \.E.].P.^.K._.Q.
    d88c:	e960 9952 e961 994c e962 9955 e963 9997     `.R.a.L.b.U.c...
    d89c:	e964 9998 e965 99a5 e966 99ad e967 99ae     d...e...f...g...
    d8ac:	e968 99bc e969 99df e96a 99db e96b 99dd     h...i...j...k...
    d8bc:	e96c 99d8 e96d 99d1 e96e 99ed e96f 99ee     l...m...n...o...
    d8cc:	e970 99f1 e971 99f2 e972 99fb e973 99f8     p...q...r...s...
    d8dc:	e974 9a01 e975 9a0f e976 9a05 e977 99e2     t...u...v...w...
    d8ec:	e978 9a19 e979 9a2b e97a 9a37 e97b 9a45     x...y.+.z.7.{.E.
    d8fc:	e97c 9a42 e97d 9a40 e97e 9a43 e980 9a3e     |.B.}.@.~.C...>.
    d90c:	e981 9a55 e982 9a4d e983 9a5b e984 9a57     ..U...M...[...W.
    d91c:	e985 9a5f e986 9a62 e987 9a65 e988 9a64     .._...b...e...d.
    d92c:	e989 9a69 e98a 9a6b e98b 9a6a e98c 9aad     ..i...k...j.....
    d93c:	e98d 9ab0 e98e 9abc e98f 9ac0 e990 9acf     ................
    d94c:	e991 9ad1 e992 9ad3 e993 9ad4 e994 9ade     ................
    d95c:	e995 9adf e996 9ae2 e997 9ae3 e998 9ae6     ................
    d96c:	e999 9aef e99a 9aeb e99b 9aee e99c 9af4     ................
    d97c:	e99d 9af1 e99e 9af7 e99f 9afb e9a0 9b06     ................
    d98c:	e9a1 9b18 e9a2 9b1a e9a3 9b1f e9a4 9b22     ..............".
    d99c:	e9a5 9b23 e9a6 9b25 e9a7 9b27 e9a8 9b28     ..#...%...'...(.
    d9ac:	e9a9 9b29 e9aa 9b2a e9ab 9b2e e9ac 9b2f     ..)...*......./.
    d9bc:	e9ad 9b32 e9ae 9b44 e9af 9b43 e9b0 9b4f     ..2...D...C...O.
    d9cc:	e9b1 9b4d e9b2 9b4e e9b3 9b51 e9b4 9b58     ..M...N...Q...X.
    d9dc:	e9b5 9b74 e9b6 9b93 e9b7 9b83 e9b8 9b91     ..t.............
    d9ec:	e9b9 9b96 e9ba 9b97 e9bb 9b9f e9bc 9ba0     ................
    d9fc:	e9bd 9ba8 e9be 9bb4 e9bf 9bc0 e9c0 9bca     ................
    da0c:	e9c1 9bb9 e9c2 9bc6 e9c3 9bcf e9c4 9bd1     ................
    da1c:	e9c5 9bd2 e9c6 9be3 e9c7 9be2 e9c8 9be4     ................
    da2c:	e9c9 9bd4 e9ca 9be1 e9cb 9c3a e9cc 9bf2     ..........:.....
    da3c:	e9cd 9bf1 e9ce 9bf0 e9cf 9c15 e9d0 9c14     ................
    da4c:	e9d1 9c09 e9d2 9c13 e9d3 9c0c e9d4 9c06     ................
    da5c:	e9d5 9c08 e9d6 9c12 e9d7 9c0a e9d8 9c04     ................
    da6c:	e9d9 9c2e e9da 9c1b e9db 9c25 e9dc 9c24     ..........%...$.
    da7c:	e9dd 9c21 e9de 9c30 e9df 9c47 e9e0 9c32     ..!...0...G...2.
    da8c:	e9e1 9c46 e9e2 9c3e e9e3 9c5a e9e4 9c60     ..F...>...Z...`.
    da9c:	e9e5 9c67 e9e6 9c76 e9e7 9c78 e9e8 9ce7     ..g...v...x.....
    daac:	e9e9 9cec e9ea 9cf0 e9eb 9d09 e9ec 9d08     ................
    dabc:	e9ed 9ceb e9ee 9d03 e9ef 9d06 e9f0 9d2a     ..............*.
    dacc:	e9f1 9d26 e9f2 9daf e9f3 9d23 e9f4 9d1f     ..&.......#.....
    dadc:	e9f5 9d44 e9f6 9d15 e9f7 9d12 e9f8 9d41     ..D...........A.
    daec:	e9f9 9d3f e9fa 9d3e e9fb 9d46 e9fc 9d48     ..?...>...F...H.
    dafc:	ea40 9d5d ea41 9d5e ea42 9d64 ea43 9d51     @.].A.^.B.d.C.Q.
    db0c:	ea44 9d50 ea45 9d59 ea46 9d72 ea47 9d89     D.P.E.Y.F.r.G...
    db1c:	ea48 9d87 ea49 9dab ea4a 9d6f ea4b 9d7a     H...I...J.o.K.z.
    db2c:	ea4c 9d9a ea4d 9da4 ea4e 9da9 ea4f 9db2     L...M...N...O...
    db3c:	ea50 9dc4 ea51 9dc1 ea52 9dbb ea53 9db8     P...Q...R...S...
    db4c:	ea54 9dba ea55 9dc6 ea56 9dcf ea57 9dc2     T...U...V...W...
    db5c:	ea58 9dd9 ea59 9dd3 ea5a 9df8 ea5b 9de6     X...Y...Z...[...
    db6c:	ea5c 9ded ea5d 9def ea5e 9dfd ea5f 9e1a     \...]...^..._...
    db7c:	ea60 9e1b ea61 9e1e ea62 9e75 ea63 9e79     `...a...b.u.c.y.
    db8c:	ea64 9e7d ea65 9e81 ea66 9e88 ea67 9e8b     d.}.e...f...g...
    db9c:	ea68 9e8c ea69 9e92 ea6a 9e95 ea6b 9e91     h...i...j...k...
    dbac:	ea6c 9e9d ea6d 9ea5 ea6e 9ea9 ea6f 9eb8     l...m...n...o...
    dbbc:	ea70 9eaa ea71 9ead ea72 9761 ea73 9ecc     p...q...r.a.s...
    dbcc:	ea74 9ece ea75 9ecf ea76 9ed0 ea77 9ed4     t...u...v...w...
    dbdc:	ea78 9edc ea79 9ede ea7a 9edd ea7b 9ee0     x...y...z...{...
    dbec:	ea7c 9ee5 ea7d 9ee8 ea7e 9eef ea80 9ef4     |...}...~.......
    dbfc:	ea81 9ef6 ea82 9ef7 ea83 9ef9 ea84 9efb     ................
    dc0c:	ea85 9efc ea86 9efd ea87 9f07 ea88 9f08     ................
    dc1c:	ea89 76b7 ea8a 9f15 ea8b 9f21 ea8c 9f2c     ...v......!...,.
    dc2c:	ea8d 9f3e ea8e 9f4a ea8f 9f52 ea90 9f54     ..>...J...R...T.
    dc3c:	ea91 9f63 ea92 9f5f ea93 9f60 ea94 9f61     ..c..._...`...a.
    dc4c:	ea95 9f66 ea96 9f67 ea97 9f6c ea98 9f6a     ..f...g...l...j.
    dc5c:	ea99 9f77 ea9a 9f72 ea9b 9f76 ea9c 9f95     ..w...r...v.....
    dc6c:	ea9d 9f9c ea9e 9fa0 ea9f 582f eaa0 69c7     ........../X...i
    dc7c:	eaa1 9059 eaa2 7464 eaa3 51dc eaa4 7199     ..Y...dt...Q...q
    dc8c:	fa40 2170 fa41 2171 fa42 2172 fa43 2173     @.p!A.q!B.r!C.s!
    dc9c:	fa44 2174 fa45 2175 fa46 2176 fa47 2177     D.t!E.u!F.v!G.w!
    dcac:	fa48 2178 fa49 2179 fa55 ffe4 fa56 ff07     H.x!I.y!U...V...
    dcbc:	fa57 ff02 fa5c 7e8a fa5d 891c fa5e 9348     W...\..~]...^.H.
    dccc:	fa5f 9288 fa60 84dc fa61 4fc9 fa62 70bb     _...`...a..Ob..p
    dcdc:	fa63 6631 fa64 68c8 fa65 92f9 fa66 66fb     c.1fd..he...f..f
    dcec:	fa67 5f45 fa68 4e28 fa69 4ee1 fa6a 4efc     g.E_h.(Ni..Nj..N
    dcfc:	fa6b 4f00 fa6c 4f03 fa6d 4f39 fa6e 4f56     k..Ol..Om.9On.VO
    dd0c:	fa6f 4f92 fa70 4f8a fa71 4f9a fa72 4f94     o..Op..Oq..Or..O
    dd1c:	fa73 4fcd fa74 5040 fa75 5022 fa76 4fff     s..Ot.@Pu."Pv..O
    dd2c:	fa77 501e fa78 5046 fa79 5070 fa7a 5042     w..Px.FPy.pPz.BP
    dd3c:	fa7b 5094 fa7c 50f4 fa7d 50d8 fa7e 514a     {..P|..P}..P~.JQ
    dd4c:	fa80 5164 fa81 519d fa82 51be fa83 51ec     ..dQ...Q...Q...Q
    dd5c:	fa84 5215 fa85 529c fa86 52a6 fa87 52c0     ...R...R...R...R
    dd6c:	fa88 52db fa89 5300 fa8a 5307 fa8b 5324     ...R...S...S..$S
    dd7c:	fa8c 5372 fa8d 5393 fa8e 53b2 fa8f 53dd     ..rS...S...S...S
    dd8c:	fa90 fa0e fa91 549c fa92 548a fa93 54a9     .......T...T...T
    dd9c:	fa94 54ff fa95 5586 fa96 5759 fa97 5765     ...T...U..YW..eW
    ddac:	fa98 57ac fa99 57c8 fa9a 57c7 fa9b fa0f     ...W...W...W....
    ddbc:	fa9c fa10 fa9d 589e fa9e 58b2 fa9f 590b     .......X...X...Y
    ddcc:	faa0 5953 faa1 595b faa2 595d faa3 5963     ..SY..[Y..]Y..cY
    dddc:	faa4 59a4 faa5 59ba faa6 5b56 faa7 5bc0     ...Y...Y..V[...[
    ddec:	faa8 752f faa9 5bd8 faaa 5bec faab 5c1e     ../u...[...[...\
    ddfc:	faac 5ca6 faad 5cba faae 5cf5 faaf 5d27     ...\...\...\..']
    de0c:	fab0 5d53 fab1 fa11 fab2 5d42 fab3 5d6d     ..S]......B]..m]
    de1c:	fab4 5db8 fab5 5db9 fab6 5dd0 fab7 5f21     ...]...]...]..!_
    de2c:	fab8 5f34 fab9 5f67 faba 5fb7 fabb 5fde     ..4_..g_..._..._
    de3c:	fabc 605d fabd 6085 fabe 608a fabf 60de     ..]`...`...`...`
    de4c:	fac0 60d5 fac1 6120 fac2 60f2 fac3 6111     ...`.. a...`...a
    de5c:	fac4 6137 fac5 6130 fac6 6198 fac7 6213     ..7a..0a...a...b
    de6c:	fac8 62a6 fac9 63f5 faca 6460 facb 649d     ...b...c..`d...d
    de7c:	facc 64ce facd 654e face 6600 facf 6615     ...d..Ne...f...f
    de8c:	fad0 663b fad1 6609 fad2 662e fad3 661e     ..;f...f...f...f
    de9c:	fad4 6624 fad5 6665 fad6 6657 fad7 6659     ..$f..ef..Wf..Yf
    deac:	fad8 fa12 fad9 6673 fada 6699 fadb 66a0     ......sf...f...f
    debc:	fadc 66b2 fadd 66bf fade 66fa fadf 670e     ...f...f...f...g
    decc:	fae0 f929 fae1 6766 fae2 67bb fae3 6852     ..)...fg...g..Rh
    dedc:	fae4 67c0 fae5 6801 fae6 6844 fae7 68cf     ...g...h..Dh...h
    deec:	fae8 fa13 fae9 6968 faea fa14 faeb 6998     ......hi.......i
    defc:	faec 69e2 faed 6a30 faee 6a6b faef 6a46     ...i..0j..kj..Fj
    df0c:	faf0 6a73 faf1 6a7e faf2 6ae2 faf3 6ae4     ..sj..~j...j...j
    df1c:	faf4 6bd6 faf5 6c3f faf6 6c5c faf7 6c86     ...k..?l..\l...l
    df2c:	faf8 6c6f faf9 6cda fafa 6d04 fafb 6d87     ..ol...l...m...m
    df3c:	fafc 6d6f fb40 6d96 fb41 6dac fb42 6dcf     ..om@..mA..mB..m
    df4c:	fb43 6df8 fb44 6df2 fb45 6dfc fb46 6e39     C..mD..mE..mF.9n
    df5c:	fb47 6e5c fb48 6e27 fb49 6e3c fb4a 6ebf     G.\nH.'nI.<nJ..n
    df6c:	fb4b 6f88 fb4c 6fb5 fb4d 6ff5 fb4e 7005     K..oL..oM..oN..p
    df7c:	fb4f 7007 fb50 7028 fb51 7085 fb52 70ab     O..pP.(pQ..pR..p
    df8c:	fb53 710f fb54 7104 fb55 715c fb56 7146     S..qT..qU.\qV.Fq
    df9c:	fb57 7147 fb58 fa15 fb59 71c1 fb5a 71fe     W.GqX...Y..qZ..q
    dfac:	fb5b 72b1 fb5c 72be fb5d 7324 fb5e fa16     [..r\..r].$s^...
    dfbc:	fb5f 7377 fb60 73bd fb61 73c9 fb62 73d6     _.ws`..sa..sb..s
    dfcc:	fb63 73e3 fb64 73d2 fb65 7407 fb66 73f5     c..sd..se..tf..s
    dfdc:	fb67 7426 fb68 742a fb69 7429 fb6a 742e     g.&th.*ti.)tj..t
    dfec:	fb6b 7462 fb6c 7489 fb6d 749f fb6e 7501     k.btl..tm..tn..u
    dffc:	fb6f 756f fb70 7682 fb71 769c fb72 769e     o.oup..vq..vr..v
    e00c:	fb73 769b fb74 76a6 fb75 fa17 fb76 7746     s..vt..vu...v.Fw
    e01c:	fb77 52af fb78 7821 fb79 784e fb7a 7864     w..Rx.!xy.Nxz.dx
    e02c:	fb7b 787a fb7c 7930 fb7d fa18 fb7e fa19     {.zx|.0y}...~...
    e03c:	fb80 fa1a fb81 7994 fb82 fa1b fb83 799b     .......y.......y
    e04c:	fb84 7ad1 fb85 7ae7 fb86 fa1c fb87 7aeb     ...z...z.......z
    e05c:	fb88 7b9e fb89 fa1d fb8a 7d48 fb8b 7d5c     ...{......H}..\}
    e06c:	fb8c 7db7 fb8d 7da0 fb8e 7dd6 fb8f 7e52     ...}...}...}..R~
    e07c:	fb90 7f47 fb91 7fa1 fb92 fa1e fb93 8301     ..G.............
    e08c:	fb94 8362 fb95 837f fb96 83c7 fb97 83f6     ..b.............
    e09c:	fb98 8448 fb99 84b4 fb9a 8553 fb9b 8559     ..H.......S...Y.
    e0ac:	fb9c 856b fb9d fa1f fb9e 85b0 fb9f fa20     ..k........... .
    e0bc:	fba0 fa21 fba1 8807 fba2 88f5 fba3 8a12     ..!.............
    e0cc:	fba4 8a37 fba5 8a79 fba6 8aa7 fba7 8abe     ..7...y.........
    e0dc:	fba8 8adf fba9 fa22 fbaa 8af6 fbab 8b53     ......".......S.
    e0ec:	fbac 8b7f fbad 8cf0 fbae 8cf4 fbaf 8d12     ................
    e0fc:	fbb0 8d76 fbb1 fa23 fbb2 8ecf fbb3 fa24     ..v...#.......$.
    e10c:	fbb4 fa25 fbb5 9067 fbb6 90de fbb7 fa26     ..%...g.......&.
    e11c:	fbb8 9115 fbb9 9127 fbba 91da fbbb 91d7     ......'.........
    e12c:	fbbc 91de fbbd 91ed fbbe 91ee fbbf 91e4     ................
    e13c:	fbc0 91e5 fbc1 9206 fbc2 9210 fbc3 920a     ................
    e14c:	fbc4 923a fbc5 9240 fbc6 923c fbc7 924e     ..:...@...<...N.
    e15c:	fbc8 9259 fbc9 9251 fbca 9239 fbcb 9267     ..Y...Q...9...g.
    e16c:	fbcc 92a7 fbcd 9277 fbce 9278 fbcf 92e7     ......w...x.....
    e17c:	fbd0 92d7 fbd1 92d9 fbd2 92d0 fbd3 fa27     ..............'.
    e18c:	fbd4 92d5 fbd5 92e0 fbd6 92d3 fbd7 9325     ..............%.
    e19c:	fbd8 9321 fbd9 92fb fbda fa28 fbdb 931e     ..!.......(.....
    e1ac:	fbdc 92ff fbdd 931d fbde 9302 fbdf 9370     ..............p.
    e1bc:	fbe0 9357 fbe1 93a4 fbe2 93c6 fbe3 93de     ..W.............
    e1cc:	fbe4 93f8 fbe5 9431 fbe6 9445 fbe7 9448     ......1...E...H.
    e1dc:	fbe8 9592 fbe9 f9dc fbea fa29 fbeb 969d     ..........).....
    e1ec:	fbec 96af fbed 9733 fbee 973b fbef 9743     ......3...;...C.
    e1fc:	fbf0 974d fbf1 974f fbf2 9751 fbf3 9755     ..M...O...Q...U.
    e20c:	fbf4 9857 fbf5 9865 fbf6 fa2a fbf7 fa2b     ..W...e...*...+.
    e21c:	fbf8 9927 fbf9 fa2c fbfa 999e fbfb 9a4e     ..'...,.......N.
    e22c:	fbfc 9ad9 fc40 9adc fc41 9b75 fc42 9b72     ....@...A.u.B.r.
    e23c:	fc43 9b8f fc44 9bb1 fc45 9bbb fc46 9c00     C...D...E...F...
    e24c:	fc47 9d70 fc48 9d6b fc49 fa2d fc4a 9e19     G.p.H.k.I.-.J...
    e25c:	fc4b 9ed1 0000 0000                         K.......

0000e264 <uni2oem932>:
    e264:	00a7 8198 00a8 814e 00b0 818b 00b1 817d     ......N.......}.
    e274:	00b4 814c 00b6 81f7 00d7 817e 00f7 8180     ..L.......~.....
    e284:	0391 839f 0392 83a0 0393 83a1 0394 83a2     ................
    e294:	0395 83a3 0396 83a4 0397 83a5 0398 83a6     ................
    e2a4:	0399 83a7 039a 83a8 039b 83a9 039c 83aa     ................
    e2b4:	039d 83ab 039e 83ac 039f 83ad 03a0 83ae     ................
    e2c4:	03a1 83af 03a3 83b0 03a4 83b1 03a5 83b2     ................
    e2d4:	03a6 83b3 03a7 83b4 03a8 83b5 03a9 83b6     ................
    e2e4:	03b1 83bf 03b2 83c0 03b3 83c1 03b4 83c2     ................
    e2f4:	03b5 83c3 03b6 83c4 03b7 83c5 03b8 83c6     ................
    e304:	03b9 83c7 03ba 83c8 03bb 83c9 03bc 83ca     ................
    e314:	03bd 83cb 03be 83cc 03bf 83cd 03c0 83ce     ................
    e324:	03c1 83cf 03c3 83d0 03c4 83d1 03c5 83d2     ................
    e334:	03c6 83d3 03c7 83d4 03c8 83d5 03c9 83d6     ................
    e344:	0401 8446 0410 8440 0411 8441 0412 8442     ..F...@...A...B.
    e354:	0413 8443 0414 8444 0415 8445 0416 8447     ..C...D...E...G.
    e364:	0417 8448 0418 8449 0419 844a 041a 844b     ..H...I...J...K.
    e374:	041b 844c 041c 844d 041d 844e 041e 844f     ..L...M...N...O.
    e384:	041f 8450 0420 8451 0421 8452 0422 8453     ..P. .Q.!.R.".S.
    e394:	0423 8454 0424 8455 0425 8456 0426 8457     #.T.$.U.%.V.&.W.
    e3a4:	0427 8458 0428 8459 0429 845a 042a 845b     '.X.(.Y.).Z.*.[.
    e3b4:	042b 845c 042c 845d 042d 845e 042e 845f     +.\.,.].-.^..._.
    e3c4:	042f 8460 0430 8470 0431 8471 0432 8472     /.`.0.p.1.q.2.r.
    e3d4:	0433 8473 0434 8474 0435 8475 0436 8477     3.s.4.t.5.u.6.w.
    e3e4:	0437 8478 0438 8479 0439 847a 043a 847b     7.x.8.y.9.z.:.{.
    e3f4:	043b 847c 043c 847d 043d 847e 043e 8480     ;.|.<.}.=.~.>...
    e404:	043f 8481 0440 8482 0441 8483 0442 8484     ?...@...A...B...
    e414:	0443 8485 0444 8486 0445 8487 0446 8488     C...D...E...F...
    e424:	0447 8489 0448 848a 0449 848b 044a 848c     G...H...I...J...
    e434:	044b 848d 044c 848e 044d 848f 044e 8490     K...L...M...N...
    e444:	044f 8491 0451 8476 2010 815d 2015 815c     O...Q.v.. ].. \.
    e454:	2018 8165 2019 8166 201c 8167 201d 8168     . e.. f.. g.. h.
    e464:	2020 81f5 2021 81f6 2025 8164 2026 8163       ..! ..% d.& c.
    e474:	2030 81f1 2032 818c 2033 818d 203b 81a6     0 ..2 ..3 ..; ..
    e484:	2103 818e 2116 8782 2121 8784 212b 81f0     .!...!..!!..+!..
    e494:	2160 8754 2161 8755 2162 8756 2163 8757     `!T.a!U.b!V.c!W.
    e4a4:	2164 8758 2165 8759 2166 875a 2167 875b     d!X.e!Y.f!Z.g![.
    e4b4:	2168 875c 2169 875d 2170 fa40 2171 fa41     h!\.i!].p!@.q!A.
    e4c4:	2172 fa42 2173 fa43 2174 fa44 2175 fa45     r!B.s!C.t!D.u!E.
    e4d4:	2176 fa46 2177 fa47 2178 fa48 2179 fa49     v!F.w!G.x!H.y!I.
    e4e4:	2190 81a9 2191 81aa 2192 81a8 2193 81ab     .!...!...!...!..
    e4f4:	21d2 81cb 21d4 81cc 2200 81cd 2202 81dd     .!...!..."..."..
    e504:	2203 81ce 2207 81de 2208 81b8 220b 81b9     ."..."..."..."..
    e514:	2211 8794 221a 81e3 221d 81e5 221e 8187     ."..."..."..."..
    e524:	221f 8798 2220 81da 2225 8161 2227 81c8     .".. "..%"a.'"..
    e534:	2228 81c9 2229 81bf 222a 81be 222b 81e7     ("..)"..*"..+"..
    e544:	222c 81e8 222e 8793 2234 8188 2235 81e6     ,"..."..4"..5"..
    e554:	223d 81e4 2252 81e0 2260 8182 2261 81df     ="..R"..`"..a"..
    e564:	2266 8185 2267 8186 226a 81e1 226b 81e2     f"..g"..j"..k"..
    e574:	2282 81bc 2283 81bd 2286 81ba 2287 81bb     ."..."..."..."..
    e584:	22a5 81db 22bf 8799 2312 81dc 2460 8740     ."..."...#..`$@.
    e594:	2461 8741 2462 8742 2463 8743 2464 8744     a$A.b$B.c$C.d$D.
    e5a4:	2465 8745 2466 8746 2467 8747 2468 8748     e$E.f$F.g$G.h$H.
    e5b4:	2469 8749 246a 874a 246b 874b 246c 874c     i$I.j$J.k$K.l$L.
    e5c4:	246d 874d 246e 874e 246f 874f 2470 8750     m$M.n$N.o$O.p$P.
    e5d4:	2471 8751 2472 8752 2473 8753 2500 849f     q$Q.r$R.s$S..%..
    e5e4:	2501 84aa 2502 84a0 2503 84ab 250c 84a1     .%...%...%...%..
    e5f4:	250f 84ac 2510 84a2 2513 84ad 2514 84a4     .%...%...%...%..
    e604:	2517 84af 2518 84a3 251b 84ae 251c 84a5     .%...%...%...%..
    e614:	251d 84ba 2520 84b5 2523 84b0 2524 84a7     .%.. %..#%..$%..
    e624:	2525 84bc 2528 84b7 252b 84b2 252c 84a6     %%..(%..+%..,%..
    e634:	252f 84b6 2530 84bb 2533 84b1 2534 84a8     /%..0%..3%..4%..
    e644:	2537 84b8 2538 84bd 253b 84b3 253c 84a9     7%..8%..;%..<%..
    e654:	253f 84b9 2542 84be 254b 84b4 25a0 81a1     ?%..B%..K%...%..
    e664:	25a1 81a0 25b2 81a3 25b3 81a2 25bc 81a5     .%...%...%...%..
    e674:	25bd 81a4 25c6 819f 25c7 819e 25cb 819b     .%...%...%...%..
    e684:	25ce 819d 25cf 819c 25ef 81fc 2605 819a     .%...%...%...&..
    e694:	2606 8199 2640 818a 2642 8189 266a 81f4     .&..@&..B&..j&..
    e6a4:	266d 81f3 266f 81f2 3000 8140 3001 8141     m&..o&...0@..0A.
    e6b4:	3002 8142 3003 8156 3005 8158 3006 8159     .0B..0V..0X..0Y.
    e6c4:	3007 815a 3008 8171 3009 8172 300a 8173     .0Z..0q..0r..0s.
    e6d4:	300b 8174 300c 8175 300d 8176 300e 8177     .0t..0u..0v..0w.
    e6e4:	300f 8178 3010 8179 3011 817a 3012 81a7     .0x..0y..0z..0..
    e6f4:	3013 81ac 3014 816b 3015 816c 301d 8780     .0...0k..0l..0..
    e704:	301f 8781 3041 829f 3042 82a0 3043 82a1     .0..A0..B0..C0..
    e714:	3044 82a2 3045 82a3 3046 82a4 3047 82a5     D0..E0..F0..G0..
    e724:	3048 82a6 3049 82a7 304a 82a8 304b 82a9     H0..I0..J0..K0..
    e734:	304c 82aa 304d 82ab 304e 82ac 304f 82ad     L0..M0..N0..O0..
    e744:	3050 82ae 3051 82af 3052 82b0 3053 82b1     P0..Q0..R0..S0..
    e754:	3054 82b2 3055 82b3 3056 82b4 3057 82b5     T0..U0..V0..W0..
    e764:	3058 82b6 3059 82b7 305a 82b8 305b 82b9     X0..Y0..Z0..[0..
    e774:	305c 82ba 305d 82bb 305e 82bc 305f 82bd     \0..]0..^0.._0..
    e784:	3060 82be 3061 82bf 3062 82c0 3063 82c1     `0..a0..b0..c0..
    e794:	3064 82c2 3065 82c3 3066 82c4 3067 82c5     d0..e0..f0..g0..
    e7a4:	3068 82c6 3069 82c7 306a 82c8 306b 82c9     h0..i0..j0..k0..
    e7b4:	306c 82ca 306d 82cb 306e 82cc 306f 82cd     l0..m0..n0..o0..
    e7c4:	3070 82ce 3071 82cf 3072 82d0 3073 82d1     p0..q0..r0..s0..
    e7d4:	3074 82d2 3075 82d3 3076 82d4 3077 82d5     t0..u0..v0..w0..
    e7e4:	3078 82d6 3079 82d7 307a 82d8 307b 82d9     x0..y0..z0..{0..
    e7f4:	307c 82da 307d 82db 307e 82dc 307f 82dd     |0..}0..~0...0..
    e804:	3080 82de 3081 82df 3082 82e0 3083 82e1     .0...0...0...0..
    e814:	3084 82e2 3085 82e3 3086 82e4 3087 82e5     .0...0...0...0..
    e824:	3088 82e6 3089 82e7 308a 82e8 308b 82e9     .0...0...0...0..
    e834:	308c 82ea 308d 82eb 308e 82ec 308f 82ed     .0...0...0...0..
    e844:	3090 82ee 3091 82ef 3092 82f0 3093 82f1     .0...0...0...0..
    e854:	309b 814a 309c 814b 309d 8154 309e 8155     .0J..0K..0T..0U.
    e864:	30a1 8340 30a2 8341 30a3 8342 30a4 8343     .0@..0A..0B..0C.
    e874:	30a5 8344 30a6 8345 30a7 8346 30a8 8347     .0D..0E..0F..0G.
    e884:	30a9 8348 30aa 8349 30ab 834a 30ac 834b     .0H..0I..0J..0K.
    e894:	30ad 834c 30ae 834d 30af 834e 30b0 834f     .0L..0M..0N..0O.
    e8a4:	30b1 8350 30b2 8351 30b3 8352 30b4 8353     .0P..0Q..0R..0S.
    e8b4:	30b5 8354 30b6 8355 30b7 8356 30b8 8357     .0T..0U..0V..0W.
    e8c4:	30b9 8358 30ba 8359 30bb 835a 30bc 835b     .0X..0Y..0Z..0[.
    e8d4:	30bd 835c 30be 835d 30bf 835e 30c0 835f     .0\..0]..0^..0_.
    e8e4:	30c1 8360 30c2 8361 30c3 8362 30c4 8363     .0`..0a..0b..0c.
    e8f4:	30c5 8364 30c6 8365 30c7 8366 30c8 8367     .0d..0e..0f..0g.
    e904:	30c9 8368 30ca 8369 30cb 836a 30cc 836b     .0h..0i..0j..0k.
    e914:	30cd 836c 30ce 836d 30cf 836e 30d0 836f     .0l..0m..0n..0o.
    e924:	30d1 8370 30d2 8371 30d3 8372 30d4 8373     .0p..0q..0r..0s.
    e934:	30d5 8374 30d6 8375 30d7 8376 30d8 8377     .0t..0u..0v..0w.
    e944:	30d9 8378 30da 8379 30db 837a 30dc 837b     .0x..0y..0z..0{.
    e954:	30dd 837c 30de 837d 30df 837e 30e0 8380     .0|..0}..0~..0..
    e964:	30e1 8381 30e2 8382 30e3 8383 30e4 8384     .0...0...0...0..
    e974:	30e5 8385 30e6 8386 30e7 8387 30e8 8388     .0...0...0...0..
    e984:	30e9 8389 30ea 838a 30eb 838b 30ec 838c     .0...0...0...0..
    e994:	30ed 838d 30ee 838e 30ef 838f 30f0 8390     .0...0...0...0..
    e9a4:	30f1 8391 30f2 8392 30f3 8393 30f4 8394     .0...0...0...0..
    e9b4:	30f5 8395 30f6 8396 30fb 8145 30fc 815b     .0...0...0E..0[.
    e9c4:	30fd 8152 30fe 8153 3231 878a 3232 878b     .0R..0S.12..22..
    e9d4:	3239 878c 32a4 8785 32a5 8786 32a6 8787     92...2...2...2..
    e9e4:	32a7 8788 32a8 8789 3303 8765 330d 8769     .2...2...3e..3i.
    e9f4:	3314 8760 3318 8763 3322 8761 3323 876b     .3`..3c."3a.#3k.
    ea04:	3326 876a 3327 8764 332b 876c 3336 8766     &3j.'3d.+3l.63f.
    ea14:	333b 876e 3349 875f 334a 876d 334d 8762     ;3n.I3_.J3m.M3b.
    ea24:	3351 8767 3357 8768 337b 877e 337c 878f     Q3g.W3h.{3~.|3..
    ea34:	337d 878e 337e 878d 338e 8772 338f 8773     }3..~3...3r..3s.
    ea44:	339c 876f 339d 8770 339e 8771 33a1 8775     .3o..3p..3q..3u.
    ea54:	33c4 8774 33cd 8783 4e00 88ea 4e01 929a     .3t..3...N...N..
    ea64:	4e03 8eb5 4e07 969c 4e08 8fe4 4e09 8e4f     .N...N...N...NO.
    ea74:	4e0a 8fe3 4e0b 89ba 4e0d 9573 4e0e 975e     .N...N...Ns..N^.
    ea84:	4e10 98a0 4e11 894e 4e14 8a8e 4e15 98a1     .N...NN..N...N..
    ea94:	4e16 90a2 4e17 99c0 4e18 8b75 4e19 95b8     .N...N...Nu..N..
    eaa4:	4e1e 8fe5 4e21 97bc 4e26 95c0 4e28 fa68     .N..!N..&N..(Nh.
    eab4:	4e2a 98a2 4e2d 9286 4e31 98a3 4e32 8bf8     *N..-N..1N..2N..
    eac4:	4e36 98a4 4e38 8adb 4e39 924f 4e3b 8ee5     6N..8N..9NO.;N..
    ead4:	4e3c 98a5 4e3f 98a6 4e42 98a7 4e43 9454     <N..?N..BN..CNT.
    eae4:	4e45 8b76 4e4b 9456 4e4d 93e1 4e4e 8cc1     ENv.KNV.MN..NN..
    eaf4:	4e4f 9652 4e55 e568 4e56 98a8 4e57 8fe6     ONR.UNh.VN..WN..
    eb04:	4e58 98a9 4e59 89b3 4e5d 8be3 4e5e 8cee     XN..YN..]N..^N..
    eb14:	4e5f 96e7 4e62 9ba4 4e71 9790 4e73 93fb     _N..bN..qN..sN..
    eb24:	4e7e 8aa3 4e80 8b54 4e82 98aa 4e85 98ab     ~N...NT..N...N..
    eb34:	4e86 97b9 4e88 975c 4e89 9188 4e8a 98ad     .N...N\..N...N..
    eb44:	4e8b 8e96 4e8c 93f1 4e8e 98b0 4e91 895d     .N...N...N...N].
    eb54:	4e92 8cdd 4e94 8cdc 4e95 88e4 4e98 986a     .N...N...N...Nj.
    eb64:	4e99 9869 4e9b 8db1 4e9c 889f 4e9e 98b1     .Ni..N...N...N..
    eb74:	4e9f 98b2 4ea0 98b3 4ea1 9653 4ea2 98b4     .N...N...NS..N..
    eb84:	4ea4 8cf0 4ea5 88e5 4ea6 9692 4ea8 8b9c     .N...N...N...N..
    eb94:	4eab 8b9d 4eac 8b9e 4ead 92e0 4eae 97ba     .N...N...N...N..
    eba4:	4eb0 98b5 4eb3 98b6 4eb6 98b7 4eba 906c     .N...N...N...Nl.
    ebb4:	4ec0 8f59 4ec1 906d 4ec2 98bc 4ec4 98ba     .NY..Nm..N...N..
    ebc4:	4ec6 98bb 4ec7 8b77 4eca 8da1 4ecb 89ee     .N...Nw..N...N..
    ebd4:	4ecd 98b9 4ece 98b8 4ecf 95a7 4ed4 8e65     .N...N...N...Ne.
    ebe4:	4ed5 8e64 4ed6 91bc 4ed7 98bd 4ed8 9574     .Nd..N...N...Nt.
    ebf4:	4ed9 90e5 4edd 8157 4ede 98be 4edf 98c0     .N...NW..N...N..
    ec04:	4ee1 fa69 4ee3 91e3 4ee4 97df 4ee5 88c8     .Ni..N...N...N..
    ec14:	4eed 98bf 4eee 89bc 4ef0 8bc2 4ef2 9287     .N...N...N...N..
    ec24:	4ef6 8c8f 4ef7 98c1 4efb 9443 4efc fa6a     .N...N...NC..Nj.
    ec34:	4f00 fa6b 4f01 8ae9 4f03 fa6c 4f09 98c2     .Ok..O...Ol..O..
    ec44:	4f0a 88c9 4f0d 8cde 4f0e 8aea 4f0f 959a     .O...O...O...O..
    ec54:	4f10 94b0 4f11 8b78 4f1a 89ef 4f1c 98e5     .O...Ox..O...O..
    ec64:	4f1d 9360 4f2f 948c 4f30 98c4 4f34 94ba     .O`./O..0O..4O..
    ec74:	4f36 97e0 4f38 904c 4f39 fa6d 4f3a 8e66     6O..8OL.9Om.:Of.
    ec84:	4f3c 8e97 4f3d 89be 4f43 92cf 4f46 9241     <O..=O..CO..FOA.
    ec94:	4f47 98c8 4f4d 88ca 4f4e 92e1 4f4f 8f5a     GO..MO..NO..OOZ.
    eca4:	4f50 8db2 4f51 9743 4f53 91cc 4f55 89bd     PO..QOC.SO..UO..
    ecb4:	4f56 fa6e 4f57 98c7 4f59 975d 4f5a 98c3     VOn.WO..YO].ZO..
    ecc4:	4f5b 98c5 4f5c 8dec 4f5d 98c6 4f5e 9b43     [O..\O..]O..^OC.
    ecd4:	4f69 98ce 4f6f 98d1 4f70 98cf 4f73 89c0     iO..oO..pO..sO..
    ece4:	4f75 95b9 4f76 98c9 4f7b 98cd 4f7c 8cf1     uO..vO..{O..|O..
    ecf4:	4f7f 8e67 4f83 8aa4 4f86 98d2 4f88 98ca     .Og..O...O...O..
    ed04:	4f8a fa70 4f8b 97e1 4f8d 8e98 4f8f 98cb     .Op..O...O...O..
    ed14:	4f91 98d0 4f92 fa6f 4f94 fa72 4f96 98d3     .O...Oo..Or..O..
    ed24:	4f98 98cc 4f9a fa71 4f9b 8b9f 4f9d 88cb     .O...Oq..O...O..
    ed34:	4fa0 8ba0 4fa1 89bf 4fab 9b44 4fad 9699     .O...O...OD..O..
    ed44:	4fae 958e 4faf 8cf2 4fb5 904e 4fb6 97b5     .O...O...ON..O..
    ed54:	4fbf 95d6 4fc2 8c57 4fc3 91a3 4fc4 89e2     .O...OW..O...O..
    ed64:	4fc9 fa61 4fca 8f72 4fcd fa73 4fce 98d7     .Oa..Or..Os..O..
    ed74:	4fd0 98dc 4fd1 98da 4fd4 98d5 4fd7 91ad     .O...O...O...O..
    ed84:	4fd8 98d8 4fda 98db 4fdb 98d9 4fdd 95db     .O...O...O...O..
    ed94:	4fdf 98d6 4fe1 904d 4fe3 9693 4fe4 98dd     .O...OM..O...O..
    eda4:	4fe5 98de 4fee 8f43 4fef 98eb 4ff3 946f     .O...OC..O...Oo.
    edb4:	4ff5 9555 4ff6 98e6 4ff8 95ee 4ffa 89b4     .OU..O...O...O..
    edc4:	4ffe 98ea 4fff fa76 5005 98e4 5006 98ed     .O...Ov..P...P..
    edd4:	5009 9171 500b 8cc2 500d 947b 500f e0c5     .Pq..P...P{..P..
    ede4:	5011 98ec 5012 937c 5014 98e1 5016 8cf4     .P...P|..P...P..
    edf4:	5019 8cf3 501a 98df 501e fa77 501f 8ed8     .P...P...Pw..P..
    ee04:	5021 98e7 5022 fa75 5023 95ed 5024 926c     !P.."Pu.#P..$Pl.
    ee14:	5025 98e3 5026 8c91 5028 98e0 5029 98e8     %P..&P..(P..)P..
    ee24:	502a 98e2 502b 97cf 502c 98e9 502d 9860     *P..+P..,P..-P`.
    ee34:	5036 8be4 5039 8c90 5040 fa74 5042 fa7a     6P..9P..@Pt.BPz.
    ee44:	5043 98ee 5046 fa78 5047 98ef 5048 98f3     CP..FPx.GP..HP..
    ee54:	5049 88cc 504f 95ce 5050 98f2 5055 98f1     IP..OP..PP..UP..
    ee64:	5056 98f5 505a 98f4 505c 92e2 5065 8c92     VP..ZP..\P..eP..
    ee74:	506c 98f6 5070 fa79 5072 8ec3 5074 91a4     lP..pPy.rP..tP..
    ee84:	5075 92e3 5076 8bf4 5078 98f7 507d 8b55     uP..vP..xP..}PU.
    ee94:	5080 98f8 5085 98fa 508d 9654 5091 8c86     .P...P...PT..P..
    eea4:	5094 fa7b 5098 8e50 5099 94f5 509a 98f9     .P{..PP..P...P..
    eeb4:	50ac 8dc3 50ad 9762 50b2 98fc 50b3 9942     .P...Pb..P...PB.
    eec4:	50b4 98fb 50b5 8dc2 50b7 8f9d 50be 8c58     .P...P...P...PX.
    eed4:	50c2 9943 50c5 8bcd 50c9 9940 50ca 9941     .PC..P...P@..PA.
    eee4:	50cd 93ad 50cf 919c 50d1 8ba1 50d5 966c     .P...P...P...Pl.
    eef4:	50d6 9944 50d8 fa7d 50da 97bb 50de 9945     .PD..P}..P...PE.
    ef04:	50e3 9948 50e5 9946 50e7 916d 50ed 9947     .PH..PF..Pm..PG.
    ef14:	50ee 9949 50f4 fa7c 50f5 994b 50f9 994a     .PI..P|..PK..PJ.
    ef24:	50fb 95c6 5100 8b56 5101 994d 5102 994e     .P...QV..QM..QN.
    ef34:	5104 89ad 5109 994c 5112 8ef2 5114 9951     .Q...QL..Q...QQ.
    ef44:	5115 9950 5116 994f 5118 98d4 511a 9952     .QP..QO..Q...QR.
    ef54:	511f 8f9e 5121 9953 512a 9744 5132 96d7     .Q..!QS.*QD.2Q..
    ef64:	5137 9955 513a 9954 513b 9957 513c 9956     7QU.:QT.;QW.<QV.
    ef74:	513f 9958 5140 9959 5141 88f2 5143 8cb3     ?QX.@QY.AQ..CQ..
    ef84:	5144 8c5a 5145 8f5b 5146 929b 5147 8ba2     DQZ.EQ[.FQ..GQ..
    ef94:	5148 90e6 5149 8cf5 514a fa7e 514b 8d8e     HQ..IQ..JQ~.KQ..
    efa4:	514c 995b 514d 96c6 514e 9365 5150 8e99     LQ[.MQ..NQe.PQ..
    efb4:	5152 995a 5154 995c 515a 937d 515c 8a95     RQZ.TQ\.ZQ}.\Q..
    efc4:	5162 995d 5164 fa80 5165 93fc 5168 9153     bQ].dQ..eQ..hQS.
    efd4:	5169 995f 516a 9960 516b 94aa 516c 8cf6     iQ_.jQ`.kQ..lQ..
    efe4:	516d 985a 516e 9961 5171 8ba4 5175 95ba     mQZ.nQa.qQ..uQ..
    eff4:	5176 91b4 5177 8bef 5178 9354 517c 8c93     vQ..wQ..xQT.|Q..
    f004:	5180 9962 5182 9963 5185 93e0 5186 897e     .Qb..Qc..Q...Q~.
    f014:	5189 9966 518a 8dfb 518c 9965 518d 8dc4     .Qf..Q...Qe..Q..
    f024:	518f 9967 5190 e3ec 5191 9968 5192 9660     .Qg..Q...Qh..Q`.
    f034:	5193 9969 5195 996a 5196 996b 5197 8fe7     .Qi..Qj..Qk..Q..
    f044:	5199 8eca 519d fa81 51a0 8aa5 51a2 996e     .Q...Q...Q...Qn.
    f054:	51a4 996c 51a5 96bb 51a6 996d 51a8 9579     .Ql..Q...Qm..Qy.
    f064:	51a9 996f 51aa 9970 51ab 9971 51ac 937e     .Qo..Qp..Qq..Q~.
    f074:	51b0 9975 51b1 9973 51b2 9974 51b3 9972     .Qu..Qs..Qt..Qr.
    f084:	51b4 8de1 51b5 9976 51b6 96e8 51b7 97e2     .Q...Qv..Q...Q..
    f094:	51bd 9977 51be fa82 51c4 90a6 51c5 9978     .Qw..Q...Q...Qx.
    f0a4:	51c6 8f79 51c9 9979 51cb 929c 51cc 97bd     .Qy..Qy..Q...Q..
    f0b4:	51cd 9380 51d6 99c3 51db 997a 51dc eaa3     .Q...Q...Qz..Q..
    f0c4:	51dd 8bc3 51e0 997b 51e1 967d 51e6 8f88     .Q...Q{..Q}..Q..
    f0d4:	51e7 91fa 51e9 997d 51ea 93e2 51ec fa83     .Q...Q}..Q...Q..
    f0e4:	51ed 997e 51f0 9980 51f1 8a4d 51f5 9981     .Q~..Q...QM..Q..
    f0f4:	51f6 8ba5 51f8 93ca 51f9 899a 51fa 8f6f     .Q...Q...Q...Qo.
    f104:	51fd 949f 51fe 9982 5200 9381 5203 906e     .Q...Q...R...Rn.
    f114:	5204 9983 5206 95aa 5207 90d8 5208 8aa0     .R...R...R...R..
    f124:	520a 8aa7 520b 9984 520e 9986 5211 8c59     .R...R...R...RY.
    f134:	5214 9985 5215 fa84 5217 97f1 521d 8f89     .R...R...R...R..
    f144:	5224 94bb 5225 95ca 5227 9987 5229 9798     $R..%R..'R..)R..
    f154:	522a 9988 522e 9989 5230 939e 5233 998a     *R...R..0R..3R..
    f164:	5236 90a7 5237 8dfc 5238 8c94 5239 998b     6R..7R..8R..9R..
    f174:	523a 8e68 523b 8d8f 5243 92e4 5244 998d     :Rh.;R..CR..DR..
    f184:	5247 91a5 524a 8ded 524b 998e 524c 998f     GR..JR..KR..LR..
    f194:	524d 914f 524f 998c 5254 9991 5256 9655     MRO.OR..TR..VRU.
    f1a4:	525b 8d84 525e 9990 5263 8c95 5264 8ddc     [R..^R..cR..dR..
    f1b4:	5265 948d 5269 9994 526a 9992 526f 959b     eR..iR..jR..oR..
    f1c4:	5270 8fe8 5271 999b 5272 8a84 5273 9995     pR..qR..rR..sR..
    f1d4:	5274 9993 5275 916e 527d 9997 527f 9996     tR..uRn.}R...R..
    f1e4:	5283 8a63 5287 8c80 5288 999c 5289 97ab     .Rc..R...R...R..
    f1f4:	528d 9998 5291 999d 5292 999a 5294 9999     .R...R...R...R..
    f204:	529b 97cd 529c fa85 529f 8cf7 52a0 89c1     .R...R...R...R..
    f214:	52a3 97f2 52a6 fa86 52a9 8f95 52aa 9377     .R...R...R...Rw.
    f224:	52ab 8d85 52ac 99a0 52ad 99a1 52af fb77     .R...R...R...Rw.
    f234:	52b1 97e3 52b4 984a 52b5 99a3 52b9 8cf8     .R...RJ..R...R..
    f244:	52bc 99a2 52be 8a4e 52c0 fa87 52c1 99a4     .R...RN..R...R..
    f254:	52c3 9675 52c5 92ba 52c7 9745 52c9 95d7     .Ru..R...RE..R..
    f264:	52cd 99a5 52d2 e8d3 52d5 93ae 52d7 99a6     .R...R...R...R..
    f274:	52d8 8aa8 52d9 96b1 52db fa88 52dd 8f9f     .R...R...R...R..
    f284:	52de 99a7 52df 95e5 52e0 99ab 52e2 90a8     .R...R...R...R..
    f294:	52e3 99a8 52e4 8bce 52e6 99a9 52e7 8aa9     .R...R...R...R..
    f2a4:	52f2 8c4d 52f3 99ac 52f5 99ad 52f8 99ae     .RM..R...R...R..
    f2b4:	52f9 99af 52fa 8ed9 52fe 8cf9 52ff 96dc     .R...R...R...R..
    f2c4:	5300 fa89 5301 96e6 5302 93f5 5305 95ef     .S...S...S...S..
    f2d4:	5306 99b0 5307 fa8a 5308 99b1 530d 99b3     .S...S...S...S..
    f2e4:	530f 99b5 5310 99b4 5315 99b6 5316 89bb     .S...S...S...S..
    f2f4:	5317 966b 5319 8dfa 531a 99b7 531d 9178     .Sk..S...S...Sx.
    f304:	5320 8fa0 5321 8ba7 5323 99b8 5324 fa8b      S..!S..#S..$S..
    f314:	532a 94d9 532f 99b9 5331 99ba 5333 99bb     *S../S..1S..3S..
    f324:	5338 99bc 5339 9543 533a 8be6 533b 88e3     8S..9SC.:S..;S..
    f334:	533f 93bd 5340 99bd 5341 8f5c 5343 90e7     ?S..@S..AS\.CS..
    f344:	5345 99bf 5346 99be 5347 8fa1 5348 8cdf     ES..FS..GS..HS..
    f354:	5349 99c1 534a 94bc 534d 99c2 5351 94da     IS..JS..MS..QS..
    f364:	5352 91b2 5353 91ec 5354 8ba6 5357 93ec     RS..SS..TS..WS..
    f374:	5358 9250 535a 948e 535c 966d 535e 99c4     XSP.ZS..\Sm.^S..
    f384:	5360 90e8 5366 8c54 5369 99c5 536e 99c6     `S..fST.iS..nS..
    f394:	536f 894b 5370 88f3 5371 8aeb 5372 fa8c     oSK.pS..qS..rS..
    f3a4:	5373 91a6 5374 8b70 5375 9791 5377 99c9     sS..tSp.uS..wS..
    f3b4:	5378 89b5 537b 99c8 537f 8ba8 5382 99ca     xS..{S...S...S..
    f3c4:	5384 96ef 5393 fa8d 5396 99cb 5398 97d0     .S...S...S...S..
    f3d4:	539a 8cfa 539f 8cb4 53a0 99cc 53a5 99ce     .S...S...S...S..
    f3e4:	53a6 99cd 53a8 907e 53a9 8958 53ad 897d     .S...S~..SX..S}.
    f3f4:	53ae 99cf 53b0 99d0 53b2 fa8e 53b3 8cb5     .S...S...S...S..
    f404:	53b6 99d1 53bb 8b8e 53c2 8e51 53c3 99d2     .S...S...SQ..S..
    f414:	53c8 9694 53c9 8db3 53ca 8b79 53cb 9746     .S...S...Sy..SF.
    f424:	53cc 916f 53cd 94bd 53ce 8efb 53d4 8f66     .So..S...S...Sf.
    f434:	53d6 8ee6 53d7 8ef3 53d9 8f96 53db 94be     .S...S...S...S..
    f444:	53dd fa8f 53df 99d5 53e1 8962 53e2 9170     .S...S...Sb..Sp.
    f454:	53e3 8cfb 53e4 8cc3 53e5 8be5 53e8 99d9     .S...S...S...S..
    f464:	53e9 9240 53ea 91fc 53eb 8ba9 53ec 8fa2     .S@..S...S...S..
    f474:	53ed 99da 53ee 99d8 53ef 89c2 53f0 91e4     .S...S...S...S..
    f484:	53f1 8eb6 53f2 8e6a 53f3 8945 53f6 8a90     .S...Sj..SE..S..
    f494:	53f7 8d86 53f8 8e69 53fa 99db 5401 99dc     .S...Si..S...T..
    f4a4:	5403 8b68 5404 8a65 5408 8d87 5409 8b67     .Th..Te..T...Tg.
    f4b4:	540a 92dd 540b 8944 540c 93af 540d 96bc     .T...TD..T...T..
    f4c4:	540e 8d40 540f 9799 5410 9366 5411 8cfc     .T@..T...Tf..T..
    f4d4:	541b 8c4e 541d 99e5 541f 8be1 5420 9669     .TN..T...T.. Ti.
    f4e4:	5426 94db 5429 99e4 542b 8adc 542c 99df     &T..)T..+T..,T..
    f4f4:	542d 99e0 542e 99e2 5436 99e3 5438 8b7a     -T...T..6T..8Tz.
    f504:	5439 9081 543b 95ab 543c 99e1 543d 99dd     9T..;T..<T..=T..
    f514:	543e 8ce1 5440 99de 5442 9843 5446 95f0     >T..@T..BTC.FT..
    f524:	5448 92e6 5449 8ce0 544a 8d90 544e 99e6     HT..IT..JT..NT..
    f534:	5451 93db 545f 99ea 5468 8efc 546a 8ef4     QT.._T..hT..jT..
    f544:	5470 99ed 5471 99eb 5473 96a1 5475 99e8     pT..qT..sT..uT..
    f554:	5476 99f1 5477 99ec 547b 99ef 547c 8cc4     vT..wT..{T..|T..
    f564:	547d 96bd 5480 99f0 5484 99f2 5486 99f4     }T...T...T...T..
    f574:	548a fa92 548b 8dee 548c 9861 548e 99e9     .T...T...Ta..T..
    f584:	548f 99e7 5490 99f3 5492 99ee 549c fa91     .T...T...T...T..
    f594:	54a2 99f6 54a4 9a42 54a5 99f8 54a8 99fc     .T...TB..T...T..
    f5a4:	54a9 fa93 54ab 9a40 54ac 99f9 54af 9a5d     .T...T@..T...T].
    f5b4:	54b2 8de7 54b3 8a50 54b8 99f7 54bc 9a44     .T...TP..T...TD.
    f5c4:	54bd 88f4 54be 9a43 54c0 88a3 54c1 9569     .T...TC..T...Ti.
    f5d4:	54c2 9a41 54c4 99fa 54c7 99f5 54c8 99fb     .TA..T...T...T..
    f5e4:	54c9 8dc6 54d8 9a45 54e1 88f5 54e2 9a4e     .T...TE..T...TN.
    f5f4:	54e5 9a46 54e6 9a47 54e8 8fa3 54e9 9689     .TF..TG..T...T..
    f604:	54ed 9a4c 54ee 9a4b 54f2 934e 54fa 9a4d     .TL..TK..TN..TM.
    f614:	54fd 9a4a 54ff fa94 5504 8953 5506 8db4     .TJ..T...US..U..
    f624:	5507 904f 550f 9a48 5510 9382 5514 9a49     .UO..UH..U...UI.
    f634:	5516 88a0 552e 9a53 552f 9742 5531 8fa5     .U...US./UB.1U..
    f644:	5533 9a59 5538 9a58 5539 9a4f 553e 91c1     3UY.8UX.9UO.>U..
    f654:	5540 9a50 5544 91ed 5545 9a55 5546 8fa4     @UP.DU..EUU.FU..
    f664:	554c 9a52 554f 96e2 5553 8c5b 5556 9a56     LUR.OU..SU[.VUV.
    f674:	5557 9a57 555c 9a54 555d 9a5a 5563 9a51     WUW.\UT.]UZ.cUQ.
    f684:	557b 9a60 557c 9a65 557e 9a61 5580 9a5c     {U`.|Ue.~Ua..U\.
    f694:	5583 9a66 5584 9150 5586 fa95 5587 9a68     .Uf..UP..U...Uh.
    f6a4:	5589 8d41 558a 9a5e 558b 929d 5598 9a62     .UA..U^..U...Ub.
    f6b4:	5599 9a5b 559a 8aab 559c 8aec 559d 8a85     .U[..U...U...U..
    f6c4:	559e 9a63 559f 9a5f 55a7 8c96 55a8 9a69     .Uc..U_..U...Ui.
    f6d4:	55a9 9a67 55aa 9172 55ab 8b69 55ac 8baa     .Ug..Ur..Ui..U..
    f6e4:	55ae 9a64 55b0 8bf2 55b6 8963 55c4 9a6d     .Ud..U...Uc..Um.
    f6f4:	55c5 9a6b 55c7 9aa5 55d4 9a70 55da 9a6a     .Uk..U...Up..Uj.
    f704:	55dc 9a6e 55df 9a6c 55e3 8e6b 55e4 9a6f     .Un..Ul..Uk..Uo.
    f714:	55f7 9a72 55f9 9a77 55fd 9a75 55fe 9a74     .Ur..Uw..Uu..Ut.
    f724:	5606 9251 5609 89c3 5614 9a71 5616 9a73     .VQ..V...Vq..Vs.
    f734:	5617 8fa6 5618 8952 561b 9a76 5629 89dc     .V...VR..Vv.)V..
    f744:	562f 9a82 5631 8ffa 5632 9a7d 5634 9a7b     /V..1V..2V}.4V{.
    f754:	5636 9a7c 5638 9a7e 5642 895c 564c 9158     6V|.8V~.BV\.LVX.
    f764:	564e 9a78 5650 9a79 565b 8a9a 5664 9a81     NVx.PVy.[V..dV..
    f774:	5668 8aed 566a 9a84 566b 9a80 566c 9a83     hV..jV..kV..lV..
    f784:	5674 95ac 5678 93d3 567a 94b6 5680 9a86     tV..xV..zV...V..
    f794:	5686 9a85 5687 8a64 568a 9a87 568f 9a8a     .V...Vd..V...V..
    f7a4:	5694 9a89 56a0 9a88 56a2 9458 56a5 9a8b     .V...V...VX..V..
    f7b4:	56ae 9a8c 56b4 9a8e 56b6 9a8d 56bc 9a90     .V...V...V...V..
    f7c4:	56c0 9a93 56c1 9a91 56c2 9a8f 56c3 9a92     .V...V...V...V..
    f7d4:	56c8 9a94 56ce 9a95 56d1 9a96 56d3 9a97     .V...V...V...V..
    f7e4:	56d7 9a98 56d8 9964 56da 8efa 56db 8e6c     .V...Vd..V...Vl.
    f7f4:	56de 89f1 56e0 88f6 56e3 9263 56ee 9a99     .V...V...Vc..V..
    f804:	56f0 8da2 56f2 88cd 56f3 907d 56f9 9a9a     .V...V...V}..V..
    f814:	56fa 8cc5 56fd 8d91 56ff 9a9c 5700 9a9b     .V...V...V...W..
    f824:	5703 95de 5704 9a9d 5708 9a9f 5709 9a9e     .W...W...W...W..
    f834:	570b 9aa0 570d 9aa1 570f 8c97 5712 8980     .W...W...W...W..
    f844:	5713 9aa2 5716 9aa4 5718 9aa3 571c 9aa6     .W...W...W...W..
    f854:	571f 9379 5726 9aa7 5727 88b3 5728 8ddd     .Wy.&W..'W..(W..
    f864:	572d 8c5c 5730 926e 5737 9aa8 5738 9aa9     -W\.0Wn.7W..8W..
    f874:	573b 9aab 5740 9aac 5742 8de2 5747 8bcf     ;W..@W..BW..GW..
    f884:	574a 9656 574e 9aaa 574f 9aad 5750 8dbf     JWV.NW..OW..PW..
    f894:	5751 8d42 5759 fa96 5761 9ab1 5764 8da3     QWB.YW..aW..dW..
    f8a4:	5765 fa97 5766 9252 5769 9aae 576a 92d8     eW..fWR.iW..jW..
    f8b4:	577f 9ab2 5782 9082 5788 9ab0 5789 9ab3     .W...W...W...W..
    f8c4:	578b 8c5e 5793 9ab4 57a0 9ab5 57a2 8d43     .W^..W...W...WC.
    f8d4:	57a3 8a5f 57a4 9ab7 57aa 9ab8 57ac fa98     .W_..W...W...W..
    f8e4:	57b0 9ab9 57b3 9ab6 57c0 9aaf 57c3 9aba     .W...W...W...W..
    f8f4:	57c6 9abb 57c7 fa9a 57c8 fa99 57cb 9684     .W...W...W...W..
    f904:	57ce 8fe9 57d2 9abd 57d3 9abe 57d4 9abc     .W...W...W...W..
    f914:	57d6 9ac0 57dc 9457 57df 88e6 57e0 9575     .W...WW..W...Wu.
    f924:	57e3 9ac1 57f4 8ffb 57f7 8eb7 57f9 947c     .W...W...W...W|.
    f934:	57fa 8aee 57fc 8de9 5800 9678 5802 93b0     .W...W...Xx..X..
    f944:	5805 8c98 5806 91cd 580a 9abf 580b 9ac2     .X...X...X...X..
    f954:	5815 91c2 5819 9ac3 581d 9ac4 5821 9ac6     .X...X...X..!X..
    f964:	5824 92e7 582a 8aac 582f ea9f 5830 8981     $X..*X../X..0X..
    f974:	5831 95f1 5834 8fea 5835 9367 583a 8de4     1X..4X..5Xg.:X..
    f984:	583d 9acc 5840 95bb 5841 97db 584a 89f2     =X..@X..AX..JX..
    f994:	584b 9ac8 5851 9159 5852 9acb 5854 9383     KX..QXY.RX..TX..
    f9a4:	5857 9368 5858 9384 5859 94b7 585a 92cb     WXh.XX..YX..ZX..
    f9b4:	585e 8dc7 5862 9ac7 5869 8996 586b 9355     ^X..bX..iX..kXU.
    f9c4:	5870 9ac9 5872 9ac5 5875 906f 5879 9acd     pX..rX..uXo.yX..
    f9d4:	587e 8f6d 5883 8bab 5885 9ace 5893 95e6     ~Xm..X...X...X..
    f9e4:	5897 919d 589c 92c4 589e fa9d 589f 9ad0     .X...X...X...X..
    f9f4:	58a8 966e 58ab 9ad1 58ae 9ad6 58b2 fa9e     .Xn..X...X...X..
    fa04:	58b3 95ad 58b8 9ad5 58b9 9acf 58ba 9ad2     .X...X...X...X..
    fa14:	58bb 9ad4 58be 8da4 58c1 95c7 58c5 9ad7     .X...X...X...X..
    fa24:	58c7 9264 58ca 89f3 58cc 8feb 58d1 9ad9     .Xd..X...X...X..
    fa34:	58d3 9ad8 58d5 8d88 58d7 9ada 58d8 9adc     .X...X...X...X..
    fa44:	58d9 9adb 58dc 9ade 58de 9ad3 58df 9ae0     .X...X...X...X..
    fa54:	58e4 9adf 58e5 9add 58eb 8e6d 58ec 9070     .X...X...Xm..Xp.
    fa64:	58ee 9173 58ef 9ae1 58f0 90ba 58f1 88eb     .Xs..X...X...X..
    fa74:	58f2 9484 58f7 92d9 58f9 9ae3 58fa 9ae2     .X...X...X...X..
    fa84:	58fb 9ae4 58fc 9ae5 58fd 9ae6 5902 9ae7     .X...X...X...Y..
    fa94:	5909 95cf 590a 9ae8 590b fa9f 590f 89c4     .Y...Y...Y...Y..
    faa4:	5910 9ae9 5915 975b 5916 8a4f 5918 99c7     .Y...Y[..YO..Y..
    fab4:	5919 8f67 591a 91bd 591b 9aea 591c 96e9     .Yg..Y...Y...Y..
    fac4:	5922 96b2 5925 9aec 5927 91e5 5929 9356     "Y..%Y..'Y..)YV.
    fad4:	592a 91be 592b 9576 592c 9aed 592d 9aee     *Y..+Yv.,Y..-Y..
    fae4:	592e 899b 5931 8eb8 5932 9aef 5937 88ce     .Y..1Y..2Y..7Y..
    faf4:	5938 9af0 593e 9af1 5944 8982 5947 8aef     8Y..>Y..DY..GY..
    fb04:	5948 93de 5949 95f2 594e 9af5 594f 9174     HY..IY..NY..OYt.
    fb14:	5950 9af4 5951 8c5f 5953 faa0 5954 967a     PY..QY_.SY..TYz.
    fb24:	5955 9af3 5957 9385 5958 9af7 595a 9af6     UY..WY..XY..ZY..
    fb34:	595b faa1 595d faa2 5960 9af9 5962 9af8     [Y..]Y..`Y..bY..
    fb44:	5963 faa3 5965 899c 5967 9afa 5968 8fa7     cY..eY..gY..hY..
    fb54:	5969 9afc 596a 9244 596c 9afb 596e 95b1     iY..jYD.lY..nY..
    fb64:	5973 8f97 5974 937a 5978 9b40 597d 8d44     sY..tYz.xY@.}YD.
    fb74:	5981 9b41 5982 9440 5983 94dc 5984 96cf     .YA..Y@..Y...Y..
    fb84:	598a 9444 598d 9b4a 5993 8b57 5996 9764     .YD..YJ..YW..Yd.
    fb94:	5999 96ad 599b 9baa 599d 9b42 59a3 9b45     .Y...Y...YB..YE.
    fba4:	59a4 faa4 59a5 91c3 59a8 9657 59ac 9369     .Y...Y...YW..Yi.
    fbb4:	59b2 9b46 59b9 9685 59ba faa5 59bb 8dc8     .YF..Y...Y...Y..
    fbc4:	59be 8fa8 59c6 9b47 59c9 8e6f 59cb 8e6e     .Y...YG..Yo..Yn.
    fbd4:	59d0 88b7 59d1 8cc6 59d3 90a9 59d4 88cf     .Y...Y...Y...Y..
    fbe4:	59d9 9b4b 59da 9b4c 59dc 9b49 59e5 8957     .YK..YL..YI..YW.
    fbf4:	59e6 8aad 59e8 9b48 59ea 96c3 59eb 9550     .Y...YH..Y...YP.
    fc04:	59f6 88a6 59fb 88f7 59ff 8e70 5a01 88d0     .Y...Y...Yp..Z..
    fc14:	5a03 88a1 5a09 9b51 5a11 9b4f 5a18 96ba     .Z...ZQ..ZO..Z..
    fc24:	5a1a 9b52 5a1c 9b50 5a1f 9b4e 5a20 9050     .ZR..ZP..ZN. ZP.
    fc34:	5a25 9b4d 5a29 95d8 5a2f 8ce2 5a35 9b56     %ZM.)Z../Z..5ZV.
    fc44:	5a36 9b57 5a3c 8fa9 5a40 9b53 5a41 984b     6ZW.<Z..@ZS.AZK.
    fc54:	5a46 946b 5a49 9b55 5a5a 8da5 5a62 9b58     FZk.IZU.ZZ..bZX.
    fc64:	5a66 9577 5a6a 9b59 5a6c 9b54 5a7f 96b9     fZw.jZY.lZT..Z..
    fc74:	5a92 947d 5a9a 9b5a 5a9b 9551 5abc 9b5b     .Z}..ZZ..ZQ..Z[.
    fc84:	5abd 9b5f 5abe 9b5c 5ac1 89c5 5ac2 9b5e     .Z_..Z\..Z...Z^.
    fc94:	5ac9 8eb9 5acb 9b5d 5acc 8c99 5ad0 9b6b     .Z...Z]..Z...Zk.
    fca4:	5ad6 9b64 5ad7 9b61 5ae1 9284 5ae3 9b60     .Zd..Za..Z...Z`.
    fcb4:	5ae6 9b62 5ae9 9b63 5afa 9b65 5afb 9b66     .Zb..Zc..Ze..Zf.
    fcc4:	5b09 8af0 5b0b 9b68 5b0c 9b67 5b16 9b69     .[...[h..[g..[i.
    fcd4:	5b22 8fec 5b2a 9b6c 5b2c 92da 5b30 8964     "[..*[l.,[..0[d.
    fce4:	5b32 9b6a 5b36 9b6d 5b3e 9b6e 5b40 9b71     2[j.6[m.>[n.@[q.
    fcf4:	5b43 9b6f 5b45 9b70 5b50 8e71 5b51 9b72     C[o.E[p.P[q.Q[r.
    fd04:	5b54 8d45 5b55 9b73 5b56 faa6 5b57 8e9a     T[E.U[s.V[..W[..
    fd14:	5b58 91b6 5b5a 9b74 5b5b 9b75 5b5c 8e79     X[..Z[t.[[u.\[y.
    fd24:	5b5d 8d46 5b5f 96d0 5b63 8b47 5b64 8cc7     ][F._[..c[G.d[..
    fd34:	5b65 9b76 5b66 8a77 5b69 9b77 5b6b 91b7     e[v.f[w.i[w.k[..
    fd44:	5b70 9b78 5b71 9ba1 5b73 9b79 5b75 9b7a     p[x.q[..s[y.u[z.
    fd54:	5b78 9b7b 5b7a 9b7d 5b80 9b7e 5b83 9b80     x[{.z[}..[~..[..
    fd64:	5b85 91ee 5b87 8946 5b88 8ee7 5b89 88c0     .[...[F..[...[..
    fd74:	5b8b 9176 5b8c 8aae 5b8d 8eb3 5b8f 8d47     .[v..[...[...[G.
    fd84:	5b95 9386 5b97 8f40 5b98 8aaf 5b99 9288     .[...[@..[...[..
    fd94:	5b9a 92e8 5b9b 88b6 5b9c 8b58 5b9d 95f3     .[...[...[X..[..
    fda4:	5b9f 8ec0 5ba2 8b71 5ba3 90e9 5ba4 8eba     .[...[q..[...[..
    fdb4:	5ba5 9747 5ba6 9b81 5bae 8b7b 5bb0 8dc9     .[G..[...[{..[..
    fdc4:	5bb3 8a51 5bb4 8983 5bb5 8faa 5bb6 89c6     .[Q..[...[...[..
    fdd4:	5bb8 9b82 5bb9 9765 5bbf 8f68 5bc0 faa7     .[...[e..[h..[..
    fde4:	5bc2 8ee2 5bc3 9b83 5bc4 8af1 5bc5 93d0     .[...[...[...[..
    fdf4:	5bc6 96a7 5bc7 9b84 5bc9 9b85 5bcc 9578     .[...[...[...[x.
    fe04:	5bd0 9b87 5bd2 8aa6 5bd3 8bf5 5bd4 9b86     .[...[...[...[..
    fe14:	5bd8 faa9 5bdb 8ab0 5bdd 9051 5bde 9b8b     .[...[...[Q..[..
    fe24:	5bdf 8e40 5be1 89c7 5be2 9b8a 5be4 9b88     .[@..[...[...[..
    fe34:	5be5 9b8c 5be6 9b89 5be7 944a 5be8 9ecb     .[...[...[J..[..
    fe44:	5be9 9052 5beb 9b8d 5bec faaa 5bee 97be     .[R..[...[...[..
    fe54:	5bf0 9b8e 5bf3 9b90 5bf5 929e 5bf6 9b8f     .[...[...[...[..
    fe64:	5bf8 90a1 5bfa 8e9b 5bfe 91ce 5bff 8ef5     .[...[...[...[..
    fe74:	5c01 9595 5c02 90ea 5c04 8ecb 5c05 9b91     .\...\...\...\..
    fe84:	5c06 8fab 5c07 9b92 5c08 9b93 5c09 88d1     .\...\...\...\..
    fe94:	5c0a 91b8 5c0b 9071 5c0d 9b94 5c0e 93b1     .\...\q..\...\..
    fea4:	5c0f 8fac 5c11 8fad 5c13 9b95 5c16 90eb     .\...\...\...\..
    feb4:	5c1a 8fae 5c1e faab 5c20 9b96 5c22 9b97     .\...\.. \.."\..
    fec4:	5c24 96de 5c28 9b98 5c2d 8bc4 5c31 8f41     $\..(\..-\..1\A.
    fed4:	5c38 9b99 5c39 9b9a 5c3a 8eda 5c3b 904b     8\..9\..:\..;\K.
    fee4:	5c3c 93f2 5c3d 9073 5c3e 94f6 5c3f 9441     <\..=\s.>\..?\A.
    fef4:	5c40 8bc7 5c41 9b9b 5c45 8b8f 5c46 9b9c     @\..A\..E\..F\..
    ff04:	5c48 8bfc 5c4a 93cd 5c4b 89ae 5c4d 8e72     H\..J\..K\..M\r.
    ff14:	5c4e 9b9d 5c4f 9ba0 5c50 9b9f 5c51 8bfb     N\..O\..P\..Q\..
    ff24:	5c53 9b9e 5c55 9357 5c5e 91ae 5c60 936a     S\..U\W.^\..`\j.
    ff34:	5c61 8ec6 5c64 9177 5c65 979a 5c6c 9ba2     a\..d\w.e\..l\..
    ff44:	5c6e 9ba3 5c6f 93d4 5c71 8e52 5c76 9ba5     n\..o\..q\R.v\..
    ff54:	5c79 9ba6 5c8c 9ba7 5c90 8af2 5c91 9ba8     y\...\...\...\..
    ff64:	5c94 9ba9 5ca1 89aa 5ca6 faac 5ca8 915a     .\...\...\...\Z.
    ff74:	5ca9 8ae2 5cab 9bab 5cac 96a6 5cb1 91d0     .\...\...\...\..
    ff84:	5cb3 8a78 5cb6 9bad 5cb7 9baf 5cb8 8add     .\x..\...\...\..
    ff94:	5cba faad 5cbb 9bac 5cbc 9bae 5cbe 9bb1     .\...\...\...\..
    ffa4:	5cc5 9bb0 5cc7 9bb2 5cd9 9bb3 5ce0 93bb     .\...\...\...\..
    ffb4:	5ce1 8bac 5ce8 89e3 5ce9 9bb4 5cea 9bb9     .\...\...\...\..
    ffc4:	5ced 9bb7 5cef 95f5 5cf0 95f4 5cf5 faae     .\...\...\...\..
    ffd4:	5cf6 9387 5cfa 9bb6 5cfb 8f73 5cfd 9bb5     .\...\...\s..\..
    ffe4:	5d07 9092 5d0b 9bba 5d0e 8de8 5d11 9bc0     .]...]...]...]..
    fff4:	5d14 9bc1 5d15 9bbb 5d16 8a52 5d17 9bbc     .]...]...]R..]..
   10004:	5d18 9bc5 5d19 9bc4 5d1a 9bc3 5d1b 9bbf     .]...]...]...]..
   10014:	5d1f 9bbe 5d22 9bc2 5d27 faaf 5d29 95f6     .].."]..']..)]..
   10024:	5d42 fab2 5d4b 9bc9 5d4c 9bc6 5d4e 9bc8     B]..K]..L]..N]..
   10034:	5d50 9792 5d52 9bc7 5d53 fab0 5d5c 9bbd     P]..R]..S]..\]..
   10044:	5d69 9093 5d6c 9bca 5d6d fab3 5d6f 8db5     i]..l]..m]..o]..
   10054:	5d73 9bcb 5d76 9bcc 5d82 9bcf 5d84 9bce     s]..v]...]...]..
   10064:	5d87 9bcd 5d8b 9388 5d8c 9bb8 5d90 9bd5     .]...]...]...]..
   10074:	5d9d 9bd1 5da2 9bd0 5dac 9bd2 5dae 9bd3     .]...]...]...]..
   10084:	5db7 9bd6 5db8 fab4 5db9 fab5 5dba 97e4     .]...]...]...]..
   10094:	5dbc 9bd7 5dbd 9bd4 5dc9 9bd8 5dcc 8ade     .]...]...]...]..
   100a4:	5dcd 9bd9 5dd0 fab6 5dd2 9bdb 5dd3 9bda     .]...]...]...]..
   100b4:	5dd6 9bdc 5ddb 9bdd 5ddd 90ec 5dde 8f42     .]...]...]...]B.
   100c4:	5de1 8f84 5de3 9183 5de5 8d48 5de6 8db6     .]...]...]H..]..
   100d4:	5de7 8d49 5de8 8b90 5deb 9bde 5dee 8db7     .]I..]...]...]..
   100e4:	5df1 8cc8 5df2 9bdf 5df3 96a4 5df4 9462     .]...]...]...]b.
   100f4:	5df5 9be0 5df7 8d4a 5dfb 8aaa 5dfd 9246     .]...]J..]...]F.
   10104:	5dfe 8bd0 5e02 8e73 5e03 957a 5e06 94bf     .]...^s..^z..^..
   10114:	5e0b 9be1 5e0c 8af3 5e11 9be4 5e16 929f     .^...^...^...^..
   10124:	5e19 9be3 5e1a 9be2 5e1b 9be5 5e1d 92e9     .^...^...^...^..
   10134:	5e25 9083 5e2b 8e74 5e2d 90c8 5e2f 91d1     %^..+^t.-^../^..
   10144:	5e30 8b41 5e33 92a0 5e36 9be6 5e37 9be7     0^A.3^..6^..7^..
   10154:	5e38 8fed 5e3d 9658 5e40 9bea 5e43 9be9     8^..=^X.@^..C^..
   10164:	5e44 9be8 5e45 959d 5e47 9bf1 5e4c 9679     D^..E^..G^..L^y.
   10174:	5e4e 9beb 5e54 9bed 5e55 968b 5e57 9bec     N^..T^..U^..W^..
   10184:	5e5f 9bee 5e61 94a6 5e62 9bef 5e63 95bc     _^..a^..b^..c^..
   10194:	5e64 9bf0 5e72 8ab1 5e73 95bd 5e74 944e     d^..r^..s^..t^N.
   101a4:	5e75 9bf2 5e76 9bf3 5e78 8d4b 5e79 8ab2     u^..v^..x^K.y^..
   101b4:	5e7a 9bf4 5e7b 8cb6 5e7c 9763 5e7d 9748     z^..{^..|^c.}^H.
   101c4:	5e7e 8af4 5e7f 9bf6 5e81 92a1 5e83 8d4c     ~^...^...^...^L.
   101d4:	5e84 8faf 5e87 94dd 5e8a 8fb0 5e8f 8f98     .^...^...^...^..
   101e4:	5e95 92ea 5e96 95f7 5e97 9358 5e9a 8d4d     .^...^...^X..^M.
   101f4:	5e9c 957b 5ea0 9bf7 5ea6 9378 5ea7 8dc0     .^{..^...^x..^..
   10204:	5eab 8cc9 5ead 92eb 5eb5 88c1 5eb6 8f8e     .^...^...^...^..
   10214:	5eb7 8d4e 5eb8 9766 5ec1 9bf8 5ec2 9bf9     .^N..^f..^...^..
   10224:	5ec3 9470 5ec8 9bfa 5ec9 97f5 5eca 984c     .^p..^...^...^L.
   10234:	5ecf 9bfc 5ed0 9bfb 5ed3 8a66 5ed6 9c40     .^...^...^f..^@.
   10244:	5eda 9c43 5edb 9c44 5edd 9c42 5edf 955f     .^C..^D..^B..^_.
   10254:	5ee0 8fb1 5ee1 9c46 5ee2 9c45 5ee3 9c41     .^...^F..^E..^A.
   10264:	5ee8 9c47 5ee9 9c48 5eec 9c49 5ef0 9c4c     .^G..^H..^I..^L.
   10274:	5ef1 9c4a 5ef3 9c4b 5ef4 9c4d 5ef6 8984     .^J..^K..^M..^..
   10284:	5ef7 92ec 5ef8 9c4e 5efa 8c9a 5efb 89f4     .^...^N..^...^..
   10294:	5efc 9455 5efe 9c4f 5eff 93f9 5f01 95d9     .^U..^O..^..._..
   102a4:	5f03 9c50 5f04 984d 5f09 9c51 5f0a 95be     ._P.._M.._Q.._..
   102b4:	5f0b 9c54 5f0c 989f 5f0d 98af 5f0f 8eae     ._T.._..._..._..
   102c4:	5f10 93f3 5f11 9c55 5f13 8b7c 5f14 92a2     ._..._U.._|.._..
   102d4:	5f15 88f8 5f16 9c56 5f17 95a4 5f18 8d4f     ._..._V.._..._O.
   102e4:	5f1b 926f 5f1f 92ed 5f21 fab7 5f25 96ed     ._o.._..!_..%_..
   102f4:	5f26 8cb7 5f27 8cca 5f29 9c57 5f2d 9c58     &_..'_..)_W.-_X.
   10304:	5f2f 9c5e 5f31 8ee3 5f34 fab8 5f35 92a3     /_^.1_..4_..5_..
   10314:	5f37 8bad 5f38 9c59 5f3c 954a 5f3e 9265     7_..8_Y.<_J.>_e.
   10324:	5f41 9c5a 5f45 fa67 5f48 9c5b 5f4a 8bae     A_Z.E_g.H_[.J_..
   10334:	5f4c 9c5c 5f4e 9c5d 5f51 9c5f 5f53 9396     L_\.N_].Q__.S_..
   10344:	5f56 9c60 5f57 9c61 5f59 9c62 5f5c 9c53     V_`.W_a.Y_b.\_S.
   10354:	5f5d 9c52 5f61 9c63 5f62 8c60 5f66 9546     ]_R.a_c.b_`.f_F.
   10364:	5f67 fab9 5f69 8dca 5f6a 9556 5f6b 92a4     g_..i_..j_V.k_..
   10374:	5f6c 956a 5f6d 9c64 5f70 8fb2 5f71 8965     l_j.m_d.p_..q_e.
   10384:	5f73 9c65 5f77 9c66 5f79 96f0 5f7c 94de     s_e.w_f.y_..|_..
   10394:	5f7f 9c69 5f80 899d 5f81 90aa 5f82 9c68     ._i.._..._..._h.
   103a4:	5f83 9c67 5f84 8c61 5f85 91d2 5f87 9c6d     ._g.._a.._..._m.
   103b4:	5f88 9c6b 5f8a 9c6a 5f8b 97a5 5f8c 8ce3     ._k.._j.._..._..
   103c4:	5f90 8f99 5f91 9c6c 5f92 936b 5f93 8f5d     ._..._l.._k.._].
   103d4:	5f97 93be 5f98 9c70 5f99 9c6f 5f9e 9c6e     ._..._p.._o.._n.
   103e4:	5fa0 9c71 5fa1 8ce4 5fa8 9c72 5fa9 959c     ._q.._..._r.._..
   103f4:	5faa 8f7a 5fad 9c73 5fae 94f7 5fb3 93bf     ._z.._s.._..._..
   10404:	5fb4 92a5 5fb7 faba 5fb9 934f 5fbc 9c74     ._..._..._O.._t.
   10414:	5fbd 8b4a 5fc3 9053 5fc5 954b 5fcc 8af5     ._J.._S.._K.._..
   10424:	5fcd 9445 5fd6 9c75 5fd7 8e75 5fd8 9659     ._E.._u.._u.._Y.
   10434:	5fd9 965a 5fdc 899e 5fdd 9c7a 5fde fabb     ._Z.._..._z.._..
   10444:	5fe0 9289 5fe4 9c77 5feb 89f5 5ff0 9cab     ._..._w.._..._..
   10454:	5ff1 9c79 5ff5 944f 5ff8 9c78 5ffb 9c76     ._y.._O.._x.._v.
   10464:	5ffd 8d9a 5fff 9c7c 600e 9c83 600f 9c89     ._..._|..`...`..
   10474:	6010 9c81 6012 937b 6015 9c86 6016 957c     .`...`{..`...`|.
   10484:	6019 9c80 601b 9c85 601c 97e5 601d 8e76     .`...`...`...`v.
   10494:	6020 91d3 6021 9c7d 6025 8b7d 6026 9c88      `..!`}.%`}.&`..
   104a4:	6027 90ab 6028 8985 6029 9c82 602a 89f6     '`..(`..)`..*`..
   104b4:	602b 9c87 602f 8baf 6031 9c84 603a 9c8a     +`../`..1`..:`..
   104c4:	6041 9c8c 6042 9c96 6043 9c94 6046 9c91     A`..B`..C`..F`..
   104d4:	604a 9c90 604b 97f6 604d 9c92 6050 8bb0     J`..K`..M`..P`..
   104e4:	6052 8d50 6055 8f9a 6059 9c99 605a 9c8b     R`P.U`..Y`..Z`..
   104f4:	605d fabc 605f 9c8f 6060 9c7e 6062 89f8     ]`.._`..``~.b`..
   10504:	6063 9c93 6064 9c95 6065 9270 6068 8da6     c`..d`..e`p.h`..
   10514:	6069 89b6 606a 9c8d 606b 9c98 606c 9c97     i`..j`..k`..l`..
   10524:	606d 8bb1 606f 91a7 6070 8a86 6075 8c62     m`..o`..p`..u`b.
   10534:	6077 9c8e 6081 9c9a 6083 9c9d 6084 9c9f     w`...`...`...`..
   10544:	6085 fabd 6089 8ebb 608a fabe 608b 9ca5     .`...`...`...`..
   10554:	608c 92ee 608d 9c9b 6092 9ca3 6094 89f7     .`...`...`...`..
   10564:	6096 9ca1 6097 9ca2 609a 9c9e 609b 9ca0     .`...`...`...`..
   10574:	609f 8ce5 60a0 9749 60a3 8ab3 60a6 8978     .`...`I..`...`x.
   10584:	60a7 9ca4 60a9 9459 60aa 88ab 60b2 94df     .`...`Y..`...`..
   10594:	60b3 9c7b 60b4 9caa 60b5 9cae 60b6 96e3     .`{..`...`...`..
   105a4:	60b8 9ca7 60bc 9389 60bd 9cac 60c5 8fee     .`...`...`...`..
   105b4:	60c6 9cad 60c7 93d5 60d1 9866 60d3 9ca9     .`...`...`f..`..
   105c4:	60d5 fac0 60d8 9caf 60da 8d9b 60dc 90c9     .`...`...`...`..
   105d4:	60de fabf 60df 88d2 60e0 9ca8 60e1 9ca6     .`...`...`...`..
   105e4:	60e3 9179 60e7 9c9c 60e8 8e53 60f0 91c4     .`y..`...`S..`..
   105f4:	60f1 9cbb 60f2 fac2 60f3 917a 60f4 9cb6     .`...`...`z..`..
   10604:	60f6 9cb3 60f7 9cb4 60f9 8ee4 60fa 9cb7     .`...`...`...`..
   10614:	60fb 9cba 6100 9cb5 6101 8f44 6103 9cb8     .`...a...aD..a..
   10624:	6106 9cb2 6108 96fa 6109 96f9 610d 9cbc     .a...a...a...a..
   10634:	610e 9cbd 610f 88d3 6111 fac3 6115 9cb1     .a...a...a...a..
   10644:	611a 8bf0 611b 88a4 611f 8ab4 6120 fac1     .a...a...a.. a..
   10654:	6121 9cb9 6127 9cc1 6128 9cc0 612c 9cc5     !a..'a..(a..,a..
   10664:	6130 fac5 6134 9cc6 6137 fac4 613c 9cc4     0a..4a..7a..<a..
   10674:	613d 9cc7 613e 9cbf 613f 9cc3 6142 9cc8     =a..>a..?a..Ba..
   10684:	6144 9cc9 6147 9cbe 6148 8e9c 614a 9cc2     Da..Ga..Ha..Ja..
   10694:	614b 91d4 614c 8d51 614d 9cb0 614e 9054     Ka..LaQ.Ma..NaT.
   106a4:	6153 9cd6 6155 95e7 6158 9ccc 6159 9ccd     Sa..Ua..Xa..Ya..
   106b4:	615a 9cce 615d 9cd5 615f 9cd4 6162 969d     Za..]a.._a..ba..
   106c4:	6163 8ab5 6165 9cd2 6167 8c64 6168 8a53     ca..ea..gad.haS.
   106d4:	616b 9ccf 616e 97b6 616f 9cd1 6170 88d4     ka..na..oa..pa..
   106e4:	6171 9cd3 6173 9cca 6174 9cd0 6175 9cd7     qa..sa..ta..ua..
   106f4:	6176 8c63 6177 9ccb 617e 977c 6182 974a     vac.wa..~a|..aJ.
   10704:	6187 9cda 618a 9cde 618e 919e 6190 97f7     .a...a...a...a..
   10714:	6191 9cdf 6194 9cdc 6196 9cd9 6198 fac6     .a...a...a...a..
   10724:	6199 9cd8 619a 9cdd 61a4 95ae 61a7 93b2     .a...a...a...a..
   10734:	61a9 8c65 61ab 9ce0 61ac 9cdb 61ae 9ce1     .ae..a...a...a..
   10744:	61b2 8c9b 61b6 89af 61ba 9ce9 61be 8ab6     .a...a...a...a..
   10754:	61c3 9ce7 61c6 9ce8 61c7 8da7 61c8 9ce6     .a...a...a...a..
   10764:	61c9 9ce4 61ca 9ce3 61cb 9cea 61cc 9ce2     .a...a...a...a..
   10774:	61cd 9cec 61d0 89f9 61e3 9cee 61e6 9ced     .a...a...a...a..
   10784:	61f2 92a6 61f4 9cf1 61f6 9cef 61f7 9ce5     .a...a...a...a..
   10794:	61f8 8c9c 61fa 9cf0 61fc 9cf4 61fd 9cf3     .a...a...a...a..
   107a4:	61fe 9cf5 61ff 9cf2 6200 9cf6 6208 9cf7     .a...a...b...b..
   107b4:	6209 9cf8 620a 95e8 620c 9cfa 620d 9cf9     .b...b...b...b..
   107c4:	620e 8f5e 6210 90ac 6211 89e4 6212 89fa     .b^..b...b...b..
   107d4:	6213 fac7 6214 9cfb 6216 88bd 621a 90ca     .b...b...b...b..
   107e4:	621b 9cfc 621d e6c1 621e 9d40 621f 8c81     .b...b...b@..b..
   107f4:	6221 9d41 6226 90ed 622a 9d42 622e 9d43     !bA.&b..*bB..bC.
   10804:	622f 8b59 6230 9d44 6232 9d45 6233 9d46     /bY.0bD.2bE.3bF.
   10814:	6234 91d5 6238 8ccb 623b 96df 623f 965b     4b..8b..;b..?b[.
   10824:	6240 8f8a 6241 9d47 6247 90ee 6248 e7bb     @b..AbG.Gb..Hb..
   10834:	6249 94e0 624b 8ee8 624d 8dcb 624e 9d48     Ib..Kb..Mb..NbH.
   10844:	6253 91c5 6255 95a5 6258 91ef 625b 9d4b     Sb..Ub..Xb..[bK.
   10854:	625e 9d49 6260 9d4c 6263 9d4a 6268 9d4d     ^bI.`bL.cbJ.hbM.
   10864:	626e 95af 6271 88b5 6276 957d 6279 94e1     nb..qb..vb}.yb..
   10874:	627c 9d4e 627e 9d51 627f 8fb3 6280 8b5a     |bN.~bQ..b...bZ.
   10884:	6282 9d4f 6283 9d56 6284 8fb4 6289 9d50     .bO..bV..b...bP.
   10894:	628a 9463 6291 977d 6292 9d52 6293 9d53     .bc..b}..bR..bS.
   108a4:	6294 9d57 6295 938a 6296 9d54 6297 8d52     .bW..b...bT..bR.
   108b4:	6298 90dc 629b 9d65 629c 94b2 629e 91f0     .b...be..b...b..
   108c4:	62a6 fac8 62ab 94e2 62ac 9dab 62b1 95f8     .b...b...b...b..
   108d4:	62b5 92ef 62b9 9695 62bb 9d5a 62bc 899f     .b...b...bZ..b..
   108e4:	62bd 928a 62c2 9d63 62c5 9253 62c6 9d5d     .b...bc..bS..b].
   108f4:	62c7 9d64 62c8 9d5f 62c9 9d66 62ca 9d62     .bd..b_..bf..bb.
   10904:	62cc 9d61 62cd 948f 62cf 9d5b 62d0 89fb     .ba..b...b[..b..
   10914:	62d1 9d59 62d2 8b91 62d3 91f1 62d4 9d55     .bY..b...b...bU.
   10924:	62d7 9d58 62d8 8d53 62d9 90d9 62db 8fb5     .bX..bS..b...b..
   10934:	62dc 9d60 62dd 9471 62e0 8b92 62e1 8a67     .b`..bq..b...bg.
   10944:	62ec 8a87 62ed 9040 62ee 9d68 62ef 9d6d     .b...b@..bh..bm.
   10954:	62f1 9d69 62f3 8c9d 62f5 9d6e 62f6 8e41     .bi..b...bn..bA.
   10964:	62f7 8d89 62fe 8f45 62ff 9d5c 6301 8e9d     .b...bE..b\..c..
   10974:	6302 9d6b 6307 8e77 6308 9d6c 6309 88c2     .ck..cw..cl..c..
   10984:	630c 9d67 6311 92a7 6319 8b93 631f 8bb2     .cg..c...c...c..
   10994:	6327 9d6a 6328 88a5 632b 8dc1 632f 9055     'cj.(c..+c../cU.
   109a4:	633a 92f0 633d 94d2 633e 9d70 633f 917d     :c..=c..>cp.?c}.
   109b4:	6349 91a8 634c 8e4a 634d 9d71 634f 9d73     Ic..LcJ.Mcq.Ocs.
   109c4:	6350 9d6f 6355 95df 6357 92bb 635c 917b     Pco.Uc..Wc..\c{.
   109d4:	6367 95f9 6368 8ecc 6369 9d80 636b 9d7e     gc..hc..ic..kc~.
   109e4:	636e 9098 6372 8c9e 6376 9d78 6377 8fb7     nc..rc..vcx.wc..
   109f4:	637a 93e6 637b 9450 6380 9d76 6383 917c     zc..{cP..cv..c|.
   10a04:	6388 8ef6 6389 9d7b 638c 8fb6 638e 9d75     .c...c{..c...cu.
   10a14:	638f 9d7a 6392 9472 6396 9d74 6398 8c40     .cz..cr..ct..c@.
   10a24:	639b 8a7c 639f 9d7c 63a0 97a9 63a1 8dcc     .c|..c|..c...c..
   10a34:	63a2 9254 63a3 9d79 63a5 90da 63a7 8d54     .cT..cy..c...cT.
   10a44:	63a8 9084 63a9 8986 63aa 915b 63ab 9d77     .c...c...c[..cw.
   10a54:	63ac 8b64 63b2 8c66 63b4 92cd 63b5 9d7d     .cd..cf..c...c}.
   10a64:	63bb 917e 63be 9d81 63c0 9d83 63c3 91b5     .c~..c...c...c..
   10a74:	63c4 9d89 63c6 9d84 63c9 9d86 63cf 9560     .c...c...c...c`.
   10a84:	63d0 92f1 63d2 9d87 63d6 974b 63da 9767     .c...c...cK..cg.
   10a94:	63db 8ab7 63e1 88ac 63e3 9d85 63e9 9d82     .c...c...c...c..
   10aa4:	63ee 8af6 63f4 8987 63f5 fac9 63f6 9d88     .c...c...c...c..
   10ab4:	63fa 9768 6406 9d8c 640d 91b9 640f 9d93     .ch..d...d...d..
   10ac4:	6413 9d8d 6416 9d8a 6417 9d91 641c 9d72     .d...d...d...dr.
   10ad4:	6426 9d8e 6428 9d92 642c 94c0 642d 938b     &d..(d..,d..-d..
   10ae4:	6434 9d8b 6436 9d8f 643a 8c67 643e 8def     4d..6d..:dg.>d..
   10af4:	6442 90db 644e 9d97 6458 9345 6460 faca     Bd..Nd..XdE.`d..
   10b04:	6467 9d94 6469 9680 646f 9d95 6476 9d96     gd..id..od..vd..
   10b14:	6478 96cc 647a 90a0 6483 8c82 6488 9d9d     xd..zd...d...d..
   10b24:	6492 8e54 6493 9d9a 6495 9d99 649a 9451     .dT..d...d...dQ.
   10b34:	649d facb 649e 93b3 64a4 9350 64a5 9d9b     .d...d...dP..d..
   10b44:	64a9 9d9c 64ab 958f 64ad 9464 64ae 8e42     .d...d...dd..dB.
   10b54:	64b0 90ef 64b2 966f 64b9 8a68 64bb 9da3     .d...do..dh..d..
   10b64:	64bc 9d9e 64c1 9769 64c2 9da5 64c5 9da1     .d...di..d...d..
   10b74:	64c7 9da2 64cd 9180 64ce facc 64d2 9da0     .d...d...d...d..
   10b84:	64d4 9d5e 64d8 9da4 64da 9d9f 64e0 9da9     .d^..d...d...d..
   10b94:	64e1 9daa 64e2 9346 64e3 9dac 64e6 8e43     .d...dF..d...dC.
   10ba4:	64e7 9da7 64ec 8b5b 64ef 9dad 64f1 9da6     .d...d[..d...d..
   10bb4:	64f2 9db1 64f4 9db0 64f6 9daf 64fa 9db2     .d...d...d...d..
   10bc4:	64fd 9db4 64fe 8fef 6500 9db3 6505 9db7     .d...d...e...e..
   10bd4:	6518 9db5 651c 9db6 651d 9d90 6523 9db9     .e...e...e..#e..
   10be4:	6524 9db8 652a 9d98 652b 9dba 652c 9dae     $e..*e..+e..,e..
   10bf4:	652f 8e78 6534 9dbb 6535 9dbc 6536 9dbe     /ex.4e..5e..6e..
   10c04:	6537 9dbd 6538 9dbf 6539 89fc 653b 8d55     7e..8e..9e..;eU.
   10c14:	653e 95fa 653f 90ad 6545 8ccc 6548 9dc1     >e..?e..Ee..He..
   10c24:	654d 9dc4 654e facd 654f 9571 6551 8b7e     Me..Ne..Oeq.Qe~.
   10c34:	6555 9dc3 6556 9dc2 6557 9473 6558 9dc5     Ue..Ve..Wes.Xe..
   10c44:	6559 8bb3 655d 9dc7 655e 9dc6 6562 8ab8     Ye..]e..^e..be..
   10c54:	6563 8e55 6566 93d6 656c 8c68 6570 9094     ceU.fe..leh.pe..
   10c64:	6572 9dc8 6574 90ae 6575 9347 6577 957e     re..te..ueG.we~.
   10c74:	6578 9dc9 6582 9dca 6583 9dcb 6587 95b6     xe...e...e...e..
   10c84:	6588 9b7c 6589 90c4 658c 956b 658e 8dd6     .e|..e...ek..e..
   10c94:	6590 94e3 6591 94c1 6597 936c 6599 97bf     .e...e...el..e..
   10ca4:	659b 9dcd 659c 8ece 659f 9dce 65a1 88b4     .e...e...e...e..
   10cb4:	65a4 8bd2 65a5 90cb 65a7 9580 65ab 9dcf     .e...e...e...e..
   10cc4:	65ac 8e61 65ad 9266 65af 8e7a 65b0 9056     .ea..ef..ez..eV.
   10cd4:	65b7 9dd0 65b9 95fb 65bc 8997 65bd 8e7b     .e...e...e...e{.
   10ce4:	65c1 9dd3 65c3 9dd1 65c4 9dd4 65c5 97b7     .e...e...e...e..
   10cf4:	65c6 9dd2 65cb 90f9 65cc 9dd5 65cf 91b0     .e...e...e...e..
   10d04:	65d2 9dd6 65d7 8af8 65d9 9dd8 65db 9dd7     .e...e...e...e..
   10d14:	65e0 9dd9 65e1 9dda 65e2 8af9 65e5 93fa     .e...e...e...e..
   10d24:	65e6 9255 65e7 8b8c 65e8 8e7c 65e9 9181     .eU..e...e|..e..
   10d34:	65ec 8f7b 65ed 88ae 65f1 9ddb 65fa 89a0     .e{..e...e...e..
   10d44:	65fb 9ddf 6600 face 6602 8d56 6603 9dde     .e...f...fV..f..
   10d54:	6606 8da9 6607 8fb8 6609 fad1 660a 9ddd     .f...f...f...f..
   10d64:	660c 8fb9 660e 96be 660f 8da8 6613 88d5     .f...f...f...f..
   10d74:	6614 90cc 6615 facf 661c 9de4 661e fad3     .f...f...f...f..
   10d84:	661f 90af 6620 8966 6624 fad4 6625 8f74     .f.. ff.$f..%ft.
   10d94:	6627 9686 6628 8df0 662d 8fba 662e fad2     'f..(f..-f...f..
   10da4:	662f 90a5 6631 fa63 6634 9de3 6635 9de1     /f..1fc.4f..5f..
   10db4:	6636 9de2 663b fad0 663c 928b 663f 9e45     6f..;f..<f..?fE.
   10dc4:	6641 9de8 6642 8e9e 6643 8d57 6644 9de6     Af..Bf..CfW.Df..
   10dd4:	6649 9de7 664b 9057 664f 9de5 6652 8e4e     If..KfW.Of..RfN.
   10de4:	6657 fad6 6659 fad7 665d 9dea 665e 9de9     Wf..Yf..]f..^f..
   10df4:	665f 9dee 6662 9def 6664 9deb 6665 fad5     _f..bf..df..ef..
   10e04:	6666 8a41 6667 9dec 6668 9ded 6669 94d3     ffA.gf..hf..if..
   10e14:	666e 9581 666f 8c69 6670 9df0 6673 fad9     nf..ofi.pf..sf..
   10e24:	6674 90b0 6676 8fbb 667a 9271 6681 8bc5     tf..vf..zfq..f..
   10e34:	6683 9df1 6684 9df5 6687 89c9 6688 9df2     .f...f...f...f..
   10e44:	6689 9df4 668e 9df3 6691 8f8b 6696 9267     .f...f...f...fg.
   10e54:	6697 88c3 6698 9df6 6699 fada 669d 9df7     .f...f...f...f..
   10e64:	66a0 fadb 66a2 92a8 66a6 97ef 66ab 8e62     .f...f...f...fb.
   10e74:	66ae 95e9 66b2 fadc 66b4 965c 66b8 9e41     .f...f...f\..fA.
   10e84:	66b9 9df9 66bc 9dfc 66be 9dfb 66bf fadd     .f...f...f...f..
   10e94:	66c1 9df8 66c4 9e40 66c7 93dc 66c9 9dfa     .f...f@..f...f..
   10ea4:	66d6 9e42 66d9 8f8c 66da 9e43 66dc 976a     .fB..f...fC..fj.
   10eb4:	66dd 9498 66e0 9e44 66e6 9e46 66e9 9e47     .f...fD..fF..fG.
   10ec4:	66f0 9e48 66f2 8bc8 66f3 8967 66f4 8d58     .fH..f...fg..fX.
   10ed4:	66f5 9e49 66f7 9e4a 66f8 8f91 66f9 9182     .fI..fJ..f...f..
   10ee4:	66fa fade 66fb fa66 66fc 99d6 66fd 915d     .f...ff..f...f].
   10ef4:	66fe 915c 66ff 91d6 6700 8dc5 6703 98f0     .f\..f...g...g..
   10f04:	6708 8c8e 6709 974c 670b 95fc 670d 959e     .g...gL..g...g..
   10f14:	670e fadf 670f 9e4b 6714 8df1 6715 92bd     .g...gK..g...g..
   10f24:	6716 9e4c 6717 984e 671b 965d 671d 92a9     .gL..gN..g]..g..
   10f34:	671e 9e4d 671f 8afa 6726 9e4e 6727 9e4f     .gM..g..&gN.'gO.
   10f44:	6728 96d8 672a 96a2 672b 9696 672c 967b     (g..*g..+g..,g{.
   10f54:	672d 8e44 672e 9e51 6731 8ee9 6734 9670     -gD..gQ.1g..4gp.
   10f64:	6736 9e53 6737 9e56 6738 9e55 673a 8af7     6gS.7gV.8gU.:g..
   10f74:	673d 8b80 673f 9e52 6741 9e54 6746 9e57     =g..?gR.AgT.FgW.
   10f84:	6749 9099 674e 979b 674f 88c7 6750 8dde     Ig..Ng..Og..Pg..
   10f94:	6751 91ba 6753 8edb 6756 8ff1 6759 9e5a     Qg..Sg..Vg..YgZ.
   10fa4:	675c 936d 675e 9e58 675f 91a9 6760 9e59     \gm.^gX._g..`gY.
   10fb4:	6761 8ff0 6762 96db 6763 9e5b 6764 9e5c     ag..bg..cg[.dg\.
   10fc4:	6765 9788 6766 fae1 676a 9e61 676d 8d59     eg..fg..jga.mgY.
   10fd4:	676f 9474 6770 9e5e 6771 938c 6772 9ddc     ogt.pg^.qg..rg..
   10fe4:	6773 9de0 6775 8b6e 6777 9466 677c 9e60     sg..ugn.wgf.|g`.
   10ff4:	677e 8fbc 677f 94c2 6785 9e66 6787 94f8     ~g...g...gf..g..
   11004:	6789 9e5d 678b 9e63 678c 9e62 6790 90cd     .g]..gc..gb..g..
   11014:	6795 968d 6797 97d1 679a 9687 679c 89ca     .g...g...g...g..
   11024:	679d 8e7d 67a0 9867 67a1 9e65 67a2 9095     .g}..gg..ge..g..
   11034:	67a6 9e64 67a9 9e5f 67af 8ccd 67b3 9e6b     .gd..g_..g...gk.
   11044:	67b4 9e69 67b6 89cb 67b7 9e67 67b8 9e6d     .gi..g...gg..gm.
   11054:	67b9 9e73 67bb fae2 67c0 fae4 67c1 91c6     .gs..g...g...g..
   11064:	67c4 95bf 67c6 9e75 67ca 9541 67ce 9e74     .g...gu..gA..gt.
   11074:	67cf 9490 67d0 965e 67d1 8ab9 67d3 90f5     .g...g^..g...g..
   11084:	67d4 8f5f 67d8 92d1 67da 974d 67dd 9e70     .g_..g...gM..gp.
   11094:	67de 9e6f 67e2 9e71 67e4 9e6e 67e7 9e76     .go..gq..gn..gv.
   110a4:	67e9 9e6c 67ec 9e6a 67ee 9e72 67ef 9e68     .gl..gj..gr..gh.
   110b4:	67f1 928c 67f3 96f6 67f4 8ec4 67f5 8df2     .g...g...g...g..
   110c4:	67fb 8db8 67fe 968f 67ff 8a60 6801 fae5     .g...g...g`..h..
   110d4:	6802 92cc 6803 93c8 6804 8968 6813 90f0     .h...h...hh..h..
   110e4:	6816 90b2 6817 8c49 681e 9e78 6821 8d5a     .h...hI..hx.!hZ.
   110f4:	6822 8a9c 6829 9e7a 682a 8a94 682b 9e81     "h..)hz.*h..+h..
   11104:	6832 9e7d 6834 90f1 6838 8a6a 6839 8daa     2h}.4h..8hj.9h..
   11114:	683c 8a69 683d 8dcd 6840 9e7b 6841 8c85     <hi.=h..@h{.Ah..
   11124:	6842 8c6a 6843 938d 6844 fae6 6846 9e79     Bhj.Ch..Dh..Fhy.
   11134:	6848 88c4 684d 9e7c 684e 9e7e 6850 8bcb     Hh..Mh|.Nh~.Ph..
   11144:	6851 8c4b 6852 fae3 6853 8aba 6854 8b6a     QhK.Rh..Sh..Thj.
   11154:	6859 9e82 685c 8df7 685d 9691 685f 8e56     Yh..\h..]h.._hV.
   11164:	6863 9e83 6867 954f 6874 9e8f 6876 89b1     ch..ghO.th..vh..
   11174:	6877 9e84 687e 9e95 687f 9e85 6881 97c0     wh..~h...h...h..
   11184:	6883 9e8c 6885 947e 688d 9e94 688f 9e87     .h...h~..h...h..
   11194:	6893 88b2 6894 9e89 6897 8d5b 689b 9e8b     .h...h...h[..h..
   111a4:	689d 9e8a 689f 9e86 68a0 9e91 68a2 8fbd     .h...h...h...h..
   111b4:	68a6 9aeb 68a7 8ce6 68a8 979c 68ad 9e88     .h...h...h...h..
   111c4:	68af 92f2 68b0 8a42 68b1 8dab 68b3 9e80     .h...hB..h...h..
   111d4:	68b5 9e90 68b6 8a81 68b9 9e8e 68ba 9e92     .h...h...h...h..
   111e4:	68bc 938e 68c4 8afc 68c6 9eb0 68c8 fa64     .h...h...h...hd.
   111f4:	68c9 96c7 68ca 9e97 68cb 8afb 68cd 9e9e     .h...h...h...h..
   11204:	68cf fae7 68d2 965f 68d4 9e9f 68d5 9ea1     .h...h_..h...h..
   11214:	68d7 9ea5 68d8 9e99 68da 9249 68df 938f     .h...h...hI..h..
   11224:	68e0 9ea9 68e1 9e9c 68e3 9ea6 68e7 9ea0     .h...h...h...h..
   11234:	68ee 9058 68ef 9eaa 68f2 90b1 68f9 9ea8     .hX..h...h...h..
   11244:	68fa 8abb 6900 986f 6901 9e96 6904 9ea4     .h...io..i...i..
   11254:	6905 88d6 6908 9e98 690b 96b8 690c 9e9d     .i...i...i...i..
   11264:	690d 9041 690e 92c5 690f 9e93 6912 9ea3     .iA..i...i...i..
   11274:	6919 909a 691a 9ead 691b 8a91 691c 8c9f     .i...i...i...i..
   11284:	6921 9eaf 6922 9e9a 6923 9eae 6925 9ea7     !i.."i..#i..%i..
   11294:	6926 9e9b 6928 9eab 692a 9eac 6930 9ebd     &i..(i..*i..0i..
   112a4:	6934 93cc 6936 9ea2 6939 9eb9 693d 9ebb     4i..6i..9i..=i..
   112b4:	693f 92d6 694a 976b 6953 9596 6954 9eb6     ?i..Jik.Si..Ti..
   112c4:	6955 91c8 6959 9ebc 695a 915e 695c 9eb3     Ui..Yi..Zi^.\i..
   112d4:	695d 9ec0 695e 9ebf 6960 93ed 6961 9ebe     ]i..^i..`i..ai..
   112e4:	6962 93e8 6968 fae9 696a 9ec2 696b 9eb5     bi..hi..ji..ki..
   112f4:	696d 8bc6 696e 9eb8 696f 8f7c 6973 9480     mi..ni..oi|.si..
   11304:	6974 9eba 6975 8bc9 6977 9eb2 6978 9eb4     ti..ui..wi..xi..
   11314:	6979 9eb1 697c 984f 697d 8a79 697e 9eb7     yi..|iO.}iy.~i..
   11324:	6981 9ec1 6982 8a54 698a 8de5 698e 897c     .i...iT..i...i|.
   11334:	6991 9ed2 6994 9850 6995 9ed5 6998 faeb     .i...iP..i...i..
   11344:	699b 9059 699c 9ed4 69a0 9ed3 69a7 9ed0     .iY..i...i...i..
   11354:	69ae 9ec4 69b1 9ee1 69b2 9ec3 69b4 9ed6     .i...i...i...i..
   11364:	69bb 9ece 69be 9ec9 69bf 9ec6 69c1 9ec7     .i...i...i...i..
   11374:	69c3 9ecf 69c7 eaa0 69ca 9ecc 69cb 8d5c     .i...i...i...i\.
   11384:	69cc 92c6 69cd 9184 69ce 9eca 69d0 9ec5     .i...i...i...i..
   11394:	69d3 9ec8 69d8 976c 69d9 968a 69dd 9ecd     .i...il..i...i..
   113a4:	69de 9ed7 69e2 faec 69e7 9edf 69e8 9ed8     .i...i...i...i..
   113b4:	69eb 9ee5 69ed 9ee3 69f2 9ede 69f9 9edd     .i...i...i...i..
   113c4:	69fb 92ce 69fd 9185 69ff 9edb 6a02 9ed9     .i...i...i...j..
   113d4:	6a05 9ee0 6a0a 9ee6 6a0b 94f3 6a0c 9eec     .j...j...j...j..
   113e4:	6a12 9ee7 6a13 9eea 6a14 9ee4 6a17 9294     .j...j...j...j..
   113f4:	6a19 9557 6a1b 9eda 6a1e 9ee2 6a1f 8fbe     .jW..j...j...j..
   11404:	6a21 96cd 6a22 9ef6 6a23 9ee9 6a29 8ca0     !j.."j..#j..)j..
   11414:	6a2a 89a1 6a2b 8a7e 6a2e 9ed1 6a30 faed     *j..+j~..j..0j..
   11424:	6a35 8fbf 6a36 9eee 6a38 9ef5 6a39 8ef7     5j..6j..8j..9j..
   11434:	6a3a 8a92 6a3d 924d 6a44 9eeb 6a46 faef     :j..=jM.Dj..Fj..
   11444:	6a47 9ef0 6a48 9ef4 6a4b 8bb4 6a58 8b6b     Gj..Hj..Kj..Xjk.
   11454:	6a59 9ef2 6a5f 8b40 6a61 93c9 6a62 9ef1     Yj.._j@.aj..bj..
   11464:	6a66 9ef3 6a6b faee 6a72 9eed 6a73 faf0     fj..kj..rj..sj..
   11474:	6a78 9eef 6a7e faf1 6a7f 8a80 6a80 9268     xj..~j...j...jh.
   11484:	6a84 9efa 6a8d 9ef8 6a8e 8ce7 6a90 9ef7     .j...j...j...j..
   11494:	6a97 9f40 6a9c 9e77 6aa0 9ef9 6aa2 9efb     .j@..jw..j...j..
   114a4:	6aa3 9efc 6aaa 9f4b 6aac 9f47 6aae 9e8d     .j...jK..jG..j..
   114b4:	6ab3 9f46 6ab8 9f45 6abb 9f42 6ac1 9ee8     .jF..jE..jB..j..
   114c4:	6ac2 9f44 6ac3 9f43 6ad1 9f49 6ad3 9845     .jD..jC..jI..jE.
   114d4:	6ada 9f4c 6adb 8bf9 6ade 9f48 6adf 9f4a     .jL..j...jH..jJ.
   114e4:	6ae2 faf2 6ae4 faf3 6ae8 94a5 6aea 9f4d     .j...j...j...jM.
   114f4:	6afa 9f51 6afb 9f4e 6b04 9793 6b05 9f4f     .jQ..jN..k...kO.
   11504:	6b0a 9edc 6b12 9f52 6b16 9f53 6b1d 8954     .k...kR..kS..kT.
   11514:	6b1f 9f55 6b20 8c87 6b21 8e9f 6b23 8bd3     .kU. k..!k..#k..
   11524:	6b27 89a2 6b32 977e 6b37 9f57 6b38 9f56     'k..2k~.7kW.8kV.
   11534:	6b39 9f59 6b3a 8b5c 6b3d 8bd4 6b3e 8abc     9kY.:k\.=k..>k..
   11544:	6b43 9f5c 6b47 9f5b 6b49 9f5d 6b4c 89cc     Ck\.Gk[.Ik].Lk..
   11554:	6b4e 9256 6b50 9f5e 6b53 8abd 6b54 9f60     NkV.Pk^.Sk..Tk`.
   11564:	6b59 9f5f 6b5b 9f61 6b5f 9f62 6b61 9f63     Yk_.[ka._kb.akc.
   11574:	6b62 8e7e 6b63 90b3 6b64 8d9f 6b66 9590     bk~.ck..dk..fk..
   11584:	6b69 95e0 6b6a 9863 6b6f 8e95 6b73 8dce     ik..jkc.ok..sk..
   11594:	6b74 97f0 6b78 9f64 6b79 9f65 6b7b 8e80     tk..xkd.yke.{k..
   115a4:	6b7f 9f66 6b80 9f67 6b83 9f69 6b84 9f68     .kf..kg..ki..kh.
   115b4:	6b86 9677 6b89 8f7d 6b8a 8eea 6b8b 8e63     .kw..k}..k...kc.
   115c4:	6b8d 9f6a 6b95 9f6c 6b96 9042 6b98 9f6b     .kj..kl..kB..kk.
   115d4:	6b9e 9f6d 6ba4 9f6e 6baa 9f6f 6bab 9f70     .km..kn..ko..kp.
   115e4:	6baf 9f71 6bb1 9f73 6bb2 9f72 6bb3 9f74     .kq..ks..kr..kt.
   115f4:	6bb4 89a3 6bb5 9269 6bb7 9f75 6bba 8e45     .k...ki..ku..kE.
   11604:	6bbb 8a6b 6bbc 9f76 6bbf 9361 6bc0 9aca     .kk..kv..ka..k..
   11614:	6bc5 8b42 6bc6 9f77 6bcb 9f78 6bcd 95ea     .kB..kw..kx..k..
   11624:	6bce 9688 6bd2 93c5 6bd3 9f79 6bd4 94e4     .k...k...ky..k..
   11634:	6bd6 faf4 6bd8 94f9 6bdb 96d1 6bdf 9f7a     .k...k...k...kz.
   11644:	6beb 9f7c 6bec 9f7b 6bef 9f7e 6bf3 9f7d     .k|..k{..k~..k}.
   11654:	6c08 9f81 6c0f 8e81 6c11 96af 6c13 9f82     .l...l...l...l..
   11664:	6c14 9f83 6c17 8b43 6c1b 9f84 6c23 9f86     .l...lC..l..#l..
   11674:	6c24 9f85 6c34 9085 6c37 9558 6c38 8969     $l..4l..7lX.8li.
   11684:	6c3e 94c3 6c3f faf5 6c40 92f3 6c41 8f60     >l..?l..@l..Al`.
   11694:	6c42 8b81 6c4e 94c4 6c50 8eac 6c55 9f88     Bl..Nl..Pl..Ul..
   116a4:	6c57 8abe 6c5a 8998 6c5c faf6 6c5d 93f0     Wl..Zl..\l..]l..
   116b4:	6c5e 9f87 6c5f 8d5d 6c60 9272 6c62 9f89     ^l.._l].`lr.bl..
   116c4:	6c68 9f91 6c6a 9f8a 6c6f faf8 6c70 91bf     hl..jl..ol..pl..
   116d4:	6c72 8b82 6c73 9f92 6c7a 8c88 6c7d 8b44     rl..sl..zl..}lD.
   116e4:	6c7e 9f90 6c81 9f8e 6c82 9f8b 6c83 9780     ~l...l...l...l..
   116f4:	6c86 faf7 6c88 92be 6c8c 93d7 6c8d 9f8c     .l...l...l...l..
   11704:	6c90 9f94 6c92 9f93 6c93 8c42 6c96 89ab     .l...l...lB..l..
   11714:	6c99 8db9 6c9a 9f8d 6c9b 9f8f 6ca1 9676     .l...l...l...lv.
   11724:	6ca2 91f2 6cab 9697 6cae 9f9c 6cb1 9f9d     .l...l...l...l..
   11734:	6cb3 89cd 6cb8 95a6 6cb9 96fb 6cba 9f9f     .l...l...l...l..
   11744:	6cbb 8ea1 6cbc 8fc0 6cbd 9f98 6cbe 9f9e     .l...l...l...l..
   11754:	6cbf 8988 6cc1 8bb5 6cc4 9f95 6cc5 9f9a     .l...l...l...l..
   11764:	6cc9 90f2 6cca 9491 6ccc 94e5 6cd3 9f97     .l...l...l...l..
   11774:	6cd5 9640 6cd7 9f99 6cd9 9fa2 6cda faf9     .l@..l...l...l..
   11784:	6cdb 9fa0 6cdd 9f9b 6ce1 9641 6ce2 9467     .l...l...lA..lg.
   11794:	6ce3 8b83 6ce5 9344 6ce8 928d 6cea 9fa3     .l...lD..l...l..
   117a4:	6cef 9fa1 6cf0 91d7 6cf1 9f96 6cf3 896a     .l...l...l...lj.
   117b4:	6d04 fafa 6d0b 976d 6d0c 9fae 6d12 9fad     .m...mm..m...m..
   117c4:	6d17 90f4 6d19 9faa 6d1b 978c 6d1e 93b4     .m...m...m...m..
   117d4:	6d1f 9fa4 6d25 92c3 6d29 896b 6d2a 8d5e     .m..%m..)mk.*m^.
   117e4:	6d2b 9fa7 6d32 8f46 6d33 9fac 6d35 9fab     +m..2mF.3m..5m..
   117f4:	6d36 9fa6 6d38 9fa9 6d3b 8a88 6d3d 9fa8     6m..8m..;m..=m..
   11804:	6d3e 9468 6d41 97ac 6d44 8ff2 6d45 90f3     >mh.Am..Dm..Em..
   11814:	6d59 9fb4 6d5a 9fb2 6d5c 956c 6d63 9faf     Ym..Zm..\ml.cm..
   11824:	6d64 9fb1 6d66 8959 6d69 8d5f 6d6a 9851     dm..fmY.im_.jmQ.
   11834:	6d6c 8a5c 6d6e 9582 6d6f fafc 6d74 9781     lm\.nm..om..tm..
   11844:	6d77 8a43 6d78 905a 6d79 9fb3 6d85 9fb8     wmC.xmZ.ym...m..
   11854:	6d87 fafb 6d88 8fc1 6d8c 974f 6d8e 9fb5     .m...m...mO..m..
   11864:	6d93 9fb0 6d95 9fb6 6d96 fb40 6d99 97dc     .m...m...m@..m..
   11874:	6d9b 9393 6d9c 93c0 6dac fb41 6daf 8a55     .m...m...mA..mU.
   11884:	6db2 8974 6db5 9fbc 6db8 9fbf 6dbc 97c1     .mt..m...m...m..
   11894:	6dc0 9784 6dc5 9fc6 6dc6 9fc0 6dc7 9fbd     .m...m...m...m..
   118a4:	6dcb 97d2 6dcc 9fc3 6dcf fb42 6dd1 8f69     .m...m...mB..mi.
   118b4:	6dd2 9fc5 6dd5 9fca 6dd8 9391 6dd9 9fc8     .m...m...m...m..
   118c4:	6dde 9fc2 6de1 9257 6de4 9fc9 6de6 9fbe     .m...mW..m...m..
   118d4:	6de8 9fc4 6dea 9fcb 6deb 88fa 6dec 9fc1     .m...m...m...m..
   118e4:	6dee 9fcc 6df1 905b 6df2 fb44 6df3 8f7e     .m...m[..mD..m~.
   118f4:	6df5 95a3 6df7 8dac 6df8 fb43 6df9 9fb9     .m...m...mC..m..
   11904:	6dfa 9fc7 6dfb 9359 6dfc fb45 6e05 90b4     .m...mY..mE..n..
   11914:	6e07 8a89 6e08 8dcf 6e09 8fc2 6e0a 9fbb     .n...n...n...n..
   11924:	6e0b 8f61 6e13 8c6b 6e15 9fba 6e19 9fd0     .na..nk..n...n..
   11934:	6e1a 8f8d 6e1b 8cb8 6e1d 9fdf 6e1f 9fd9     .n...n...n...n..
   11944:	6e20 8b94 6e21 936e 6e23 9fd4 6e24 9fdd      n..!nn.#n..$n..
   11954:	6e25 88ad 6e26 8951 6e27 fb48 6e29 89b7     %n..&nQ.'nH.)n..
   11964:	6e2b 9fd6 6e2c 91aa 6e2d 9fcd 6e2e 9fcf     +n..,n..-n...n..
   11974:	6e2f 8d60 6e38 9fe0 6e39 fb46 6e3a 9fdb     /n`.8n..9nF.:n..
   11984:	6e3c fb49 6e3e 9fd3 6e43 9fda 6e4a 96a9     <nI.>n..Cn..Jn..
   11994:	6e4d 9fd8 6e4e 9fdc 6e56 8cce 6e58 8fc3     Mn..Nn..Vn..Xn..
   119a4:	6e5b 9258 6e5c fb47 6e5f 9fd2 6e67 974e     [nX.\nG._n..gnN.
   119b4:	6e6b 9fd5 6e6e 9fce 6e6f 9392 6e72 9fd1     kn..nn..on..rn..
   119c4:	6e76 9fd7 6e7e 9870 6e7f 8ebc 6e80 969e     vn..~np..n...n..
   119d4:	6e82 9fe1 6e8c 94ac 6e8f 9fed 6e90 8cb9     .n...n...n...n..
   119e4:	6e96 8f80 6e98 9fe3 6e9c 97ad 6e9d 8d61     .n...n...n...na.
   119f4:	6e9f 9ff0 6ea2 88ec 6ea5 9fee 6eaa 9fe2     .n...n...n...n..
   11a04:	6eaf 9fe8 6eb2 9fea 6eb6 976e 6eb7 9fe5     .n...n...nn..n..
   11a14:	6eba 934d 6ebd 9fe7 6ebf fb4a 6ec2 9fef     .nM..n...nJ..n..
   11a24:	6ec4 9fe9 6ec5 96c5 6ec9 9fe4 6ecb 8ea0     .n...n...n...n..
   11a34:	6ecc 9ffc 6ed1 8a8a 6ed3 9fe6 6ed4 9feb     .n...n...n...n..
   11a44:	6ed5 9fec 6edd 91ea 6ede 91d8 6eec 9ff4     .n...n...n...n..
   11a54:	6eef 9ffa 6ef2 9ff8 6ef4 9348 6ef7 e042     .n...n...nH..nB.
   11a64:	6ef8 9ff5 6efe 9ff6 6eff 9fde 6f01 8b99     .n...n...n...o..
   11a74:	6f02 9559 6f06 8ebd 6f09 8d97 6f0f 9852     .oY..o...o...oR.
   11a84:	6f11 9ff2 6f13 e041 6f14 8989 6f15 9186     .o...oA..o...o..
   11a94:	6f20 9499 6f22 8abf 6f23 97f8 6f2b 969f      o.."o..#o..+o..
   11aa4:	6f2c 92d0 6f31 9ff9 6f32 9ffb 6f38 9151     ,o..1o..2o..8oQ.
   11ab4:	6f3e e040 6f3f 9ff7 6f41 9ff1 6f45 8ac1     >o@.?o..Ao..Eo..
   11ac4:	6f54 8c89 6f58 e04e 6f5b e049 6f5c 90f6     To..XoN.[oI.\o..
   11ad4:	6f5f 8a83 6f64 8f81 6f66 e052 6f6d e04b     _o..do..foR.moK.
   11ae4:	6f6e 92aa 6f6f e048 6f70 92d7 6f74 e06b     no..ooH.po..tok.
   11af4:	6f78 e045 6f7a e044 6f7c e04d 6f80 e047     xoE.zoD.|oM..oG.
   11b04:	6f81 e046 6f82 e04c 6f84 909f 6f86 e043     .oF..oL..o...oC.
   11b14:	6f88 fb4b 6f8e e04f 6f91 e050 6f97 8ac0     .oK..oO..oP..o..
   11b24:	6fa1 e055 6fa3 e054 6fa4 e056 6faa e059     .oU..oT..oV..oY.
   11b34:	6fb1 9362 6fb3 e053 6fb5 fb4c 6fb9 e057     .ob..oS..oL..oW.
   11b44:	6fc0 8c83 6fc1 91f7 6fc2 e051 6fc3 945a     .o...o...oQ..oZ.
   11b54:	6fc6 e058 6fd4 e05d 6fd5 e05b 6fd8 e05e     .oX..o]..o[..o^.
   11b64:	6fdb e061 6fdf e05a 6fe0 8d8a 6fe1 9447     .oa..oZ..o...oG.
   11b74:	6fe4 9fb7 6feb 9794 6fec e05c 6fee e060     .o...o...o\..o`.
   11b84:	6fef 91f3 6ff1 e05f 6ff3 e04a 6ff5 fb4d     .o...o_..oJ..oM.
   11b94:	6ff6 e889 6ffa e064 6ffe e068 7001 e066     .o...od..oh..pf.
   11ba4:	7005 fb4e 7007 fb4f 7009 e062 700b e063     .pN..pO..pb..pc.
   11bb4:	700f e067 7011 e065 7015 956d 7018 e06d     .pg..pe..pm..pm.
   11bc4:	701a e06a 701b e069 701d e06c 701e 93d2     .pj..pi..pl..p..
   11bd4:	701f e06e 7026 9295 7027 91eb 7028 fb50     .pn.&p..'p..(pP.
   11be4:	702c 90a3 7030 e06f 7032 e071 703e e070     ,p..0po.2pq.>pp.
   11bf4:	704c 9ff3 7051 e072 7058 93e5 7063 e073     Lp..Qpr.Xp..cps.
   11c04:	706b 89ce 706f 9394 7070 8a44 7078 8b84     kp..op..ppD.xp..
   11c14:	707c 8edc 707d 8dd0 7085 fb51 7089 9846     |p..}p...pQ..pF.
   11c24:	708a 9086 708e 898a 7092 e075 7099 e074     .p...p...pu..pt.
   11c34:	70ab fb52 70ac e078 70ad 9259 70ae e07b     .pR..px..pY..p{.
   11c44:	70af e076 70b3 e07a 70b8 e079 70b9 935f     .pv..pz..py..p_.
   11c54:	70ba 88d7 70bb fa62 70c8 97f3 70cb e07d     .p...pb..p...p}.
   11c64:	70cf 8947 70d9 e080 70dd e07e 70df e07c     .pG..p...p~..p|.
   11c74:	70f1 e077 70f9 9642 70fd e082 7104 fb54     .pw..pB..p...qT.
   11c84:	7109 e081 710f fb53 7114 898b 7119 e084     .q...qS..q...q..
   11c94:	711a 95b0 711c e083 7121 96b3 7126 8fc5     .q...q..!q..&q..
   11ca4:	7136 9152 713c 8fc4 7146 fb56 7147 fb57     6qR.<q..FqV.GqW.
   11cb4:	7149 97f9 714c e08a 714e 90f7 7155 e086     Iq..Lq..Nq..Uq..
   11cc4:	7156 e08b 7159 898c 715c fb55 7162 e089     Vq..Yq..\qU.bq..
   11cd4:	7164 9481 7165 e085 7166 e088 7167 8fc6     dq..eq..fq..gq..
   11ce4:	7169 94cf 716c e08c 716e 8ecf 717d 90f8     iq..lq..nq..}q..
   11cf4:	7184 e08f 7188 e087 718a 8c46 718f e08d     .q...q...qF..q..
   11d04:	7194 976f 7195 e090 7199 eaa4 719f 8f6e     .qo..q...q...qn.
   11d14:	71a8 e091 71ac e092 71b1 944d 71b9 e094     .q...q...qM..q..
   11d24:	71be e095 71c1 fb59 71c3 9452 71c8 9395     .q...qY..qR..q..
   11d34:	71c9 e097 71ce e099 71d0 97d3 71d2 e096     .q...q...q...q..
   11d44:	71d4 e098 71d5 898d 71d7 e093 71df 9a7a     .q...q...q...qz.
   11d54:	71e0 e09a 71e5 9187 71e6 8e57 71e7 e09c     .q...q...qW..q..
   11d64:	71ec e09b 71ed 9043 71ee 99d7 71f5 e09d     .q...qC..q...q..
   11d74:	71f9 e09f 71fb e08e 71fc e09e 71fe fb5a     .q...q...q...qZ.
   11d84:	71ff e0a0 7206 949a 720d e0a1 7210 e0a2     .q...r...r...r..
   11d94:	721b e0a3 7228 e0a4 722a 92dc 722c e0a6     .r..(r..*r..,r..
   11da4:	722d e0a5 7230 e0a7 7232 e0a8 7235 8edd     -r..0r..2r..5r..
   11db4:	7236 9583 723a 96ea 723b e0a9 723c e0aa     6r..:r..;r..<r..
   11dc4:	723d 9175 723e 8ea2 723f e0ab 7240 e0ac     =ru.>r..?r..@r..
   11dd4:	7246 e0ad 7247 95d0 7248 94c5 724b e0ae     Fr..Gr..Hr..Kr..
   11de4:	724c 9476 7252 92ab 7258 e0af 7259 89e5     Lrv.Rr..Xr..Yr..
   11df4:	725b 8b8d 725d 96c4 725f 96b4 7261 89b2     [r..]r.._r..ar..
   11e04:	7262 9853 7267 9671 7269 95a8 7272 90b5     brS.grq.ir..rr..
   11e14:	7274 e0b0 7279 93c1 727d 8ca1 727e e0b1     tr..yr..}r..~r..
   11e24:	7280 8dd2 7281 e0b3 7282 e0b2 7287 e0b4     .r...r...r...r..
   11e34:	7292 e0b5 7296 e0b6 72a0 8b5d 72a2 e0b7     .r...r...r]..r..
   11e44:	72a7 e0b8 72ac 8ca2 72af 94c6 72b1 fb5b     .r...r...r...r[.
   11e54:	72b2 e0ba 72b6 8ff3 72b9 e0b9 72be fb5c     .r...r...r...r\.
   11e64:	72c2 8bb6 72c3 e0bb 72c4 e0bd 72c6 e0bc     .r...r...r...r..
   11e74:	72ce e0be 72d0 8ccf 72d2 e0bf 72d7 8be7     .r...r...r...r..
   11e84:	72d9 915f 72db 8d9d 72e0 e0c1 72e1 e0c2     .r_..r...r...r..
   11e94:	72e2 e0c0 72e9 8eeb 72ec 93c6 72ed 8bb7     .r...r...r...r..
   11ea4:	72f7 e0c4 72f8 924b 72f9 e0c3 72fc 9854     .r...rK..r...rT.
   11eb4:	72fd 9482 730a e0c7 7316 e0c9 7317 e0c6     .r...s...s...s..
   11ec4:	731b 96d2 731c e0c8 731d e0ca 731f 97c2     .s...s...s...s..
   11ed4:	7324 fb5d 7325 e0ce 7329 e0cd 732a 9296     $s].%s..)s..*s..
   11ee4:	732b 944c 732e 8ca3 732f e0cc 7334 e0cb     +sL..s../s..4s..
   11ef4:	7336 9750 7337 9751 733e e0cf 733f 898e     6sP.7sQ.>s..?s..
   11f04:	7344 8d96 7345 8e82 734e e0d0 734f e0d1     Ds..Es..Ns..Os..
   11f14:	7357 e0d3 7363 8f62 7368 e0d5 736a e0d4     Ws..csb.hs..js..
   11f24:	7370 e0d6 7372 8a6c 7375 e0d8 7377 fb5f     ps..rsl.us..ws_.
   11f34:	7378 e0d7 737a e0da 737b e0d9 7384 8cba     xs..zs..{s...s..
   11f44:	7387 97a6 7389 8bca 738b 89a4 7396 8be8     .s...s...s...s..
   11f54:	73a9 8adf 73b2 97e6 73b3 e0dc 73bb e0de     .s...s...s...s..
   11f64:	73bd fb60 73c0 e0df 73c2 89cf 73c8 e0db     .s`..s...s...s..
   11f74:	73c9 fb61 73ca 8e58 73cd 92bf 73ce e0dd     .sa..sX..s...s..
   11f84:	73d2 fb64 73d6 fb62 73de e0e2 73e0 8eec     .sd..sb..s...s..
   11f94:	73e3 fb63 73e5 e0e0 73ea 8c5d 73ed 94c7     .sc..s...s]..s..
   11fa4:	73ee e0e1 73f1 e0fc 73f5 fb66 73f8 e0e7     .s...s...sf..s..
   11fb4:	73fe 8cbb 7403 8b85 7405 e0e4 7406 979d     .s...t...t...t..
   11fc4:	7407 fb65 7409 97ae 7422 91f4 7425 e0e6     .te..t.."t..%t..
   11fd4:	7426 fb67 7429 fb69 742a fb68 742e fb6a     &tg.)ti.*th..tj.
   11fe4:	7432 e0e8 7433 97d4 7434 8bd5 7435 94fa     2t..3t..4t..5t..
   11ff4:	7436 9469 743a e0e9 743f e0eb 7441 e0ee     6ti.:t..?t..At..
   12004:	7455 e0ea 7459 e0ed 745a 8ce8 745b 896c     Ut..Yt..Zt..[tl.
   12014:	745c e0ef 745e 9090 745f e0ec 7460 97da     \t..^t.._t..`t..
   12024:	7462 fb6b 7463 e0f2 7464 eaa2 7469 e0f0     btk.ct..dt..it..
   12034:	746a e0f3 746f e0e5 7470 e0f1 7473 8dba     jt..ot..pt..st..
   12044:	7476 e0f4 747e e0f5 7483 979e 7489 fb6c     vt..~t...t...tl.
   12054:	748b e0f6 749e e0f7 749f fb6d 74a2 e0e3     .t...t...tm..t..
   12064:	74a7 e0f8 74b0 8ac2 74bd 8ea3 74ca e0f9     .t...t...t...t..
   12074:	74cf e0fa 74d4 e0fb 74dc 895a 74e0 e140     .t...t...tZ..t@.
   12084:	74e2 955a 74e3 e141 74e6 8aa2 74e7 e142     .tZ..tA..t...tB.
   12094:	74e9 e143 74ee e144 74f0 e146 74f1 e147     .tC..tD..tF..tG.
   120a4:	74f2 e145 74f6 9572 74f7 e149 74f8 e148     .tE..tr..tI..tH.
   120b4:	7501 fb6e 7503 e14b 7504 e14a 7505 e14c     .un..uK..uJ..uL.
   120c4:	750c e14d 750d e14f 750e e14e 7511 8d99     .uM..uO..uN..u..
   120d4:	7513 e151 7515 e150 7518 8ac3 751a 9072     .uQ..uP..u...ur.
   120e4:	751c 935b 751e e152 751f 90b6 7523 8e59     .u[..uR..u..#uY.
   120f4:	7525 8999 7526 e153 7528 9770 752b 95e1     %u..&uS.(up.+u..
   12104:	752c e154 752f faa8 7530 9363 7531 9752     ,uT./u..0uc.1uR.
   12114:	7532 8d62 7533 905c 7537 926a 7538 99b2     2ub.3u\.7uj.8u..
   12124:	753a 92ac 753b 89e6 753c e155 7544 e156     :u..;u..<uU.DuV.
   12134:	7546 e15b 7549 e159 754a e158 754b 9dc0     Fu[.IuY.JuX.Ku..
   12144:	754c 8a45 754d e157 754f 88d8 7551 94a8     LuE.MuW.Ou..Qu..
   12154:	7554 94c8 7559 97af 755a e15c 755b e15a     Tu..Yu..Zu\.[uZ.
   12164:	755c 927b 755d 90a4 7560 94a9 7562 954c     \u{.]u..`u..buL.
   12174:	7564 e15e 7565 97aa 7566 8c6c 7567 e15f     du^.eu..ful.gu_.
   12184:	7569 e15d 756a 94d4 756b e160 756d e161     iu].ju..ku`.mua.
   12194:	756f fb6f 7570 88d9 7573 8ff4 7574 e166     ouo.pu..su..tuf.
   121a4:	7576 e163 7577 93eb 7578 e162 757f 8b45     vuc.wu..xub..uE.
   121b4:	7582 e169 7586 e164 7587 e165 7589 e168     .ui..ud..ue..uh.
   121c4:	758a e167 758b 9544 758e 9161 758f 9160     .ug..uD..ua..u`.
   121d4:	7591 8b5e 7594 e16a 759a e16b 759d e16c     .u^..uj..uk..ul.
   121e4:	75a3 e16e 75a5 e16d 75ab 8975 75b1 e176     .un..um..uu..uv.
   121f4:	75b2 94e6 75b3 e170 75b5 e172 75b8 e174     .u...up..ur..ut.
   12204:	75b9 905d 75bc e175 75bd e173 75be 8ebe     .u]..uu..us..u..
   12214:	75c2 e16f 75c3 e171 75c5 9561 75c7 8fc7     .uo..uq..ua..u..
   12224:	75ca e178 75cd e177 75d2 e179 75d4 8ea4     .ux..uw..uy..u..
   12234:	75d5 8dad 75d8 9397 75d9 e17a 75db 92c9     .u...u...uz..u..
   12244:	75de e17c 75e2 979f 75e3 e17b 75e9 9189     .u|..u...u{..u..
   12254:	75f0 e182 75f2 e184 75f3 e185 75f4 9273     .u...u...u...us.
   12264:	75fa e183 75fc e180 75fe e17d 75ff e17e     .u...u...u}..u~.
   12274:	7601 e181 7609 e188 760b e186 760d e187     .v...v...v...v..
   12284:	761f e189 7620 e18b 7621 e18c 7622 e18d     .v.. v..!v.."v..
   12294:	7624 e18e 7627 e18a 7630 e190 7634 e18f     $v..'v..0v..4v..
   122a4:	763b e191 7642 97c3 7646 e194 7647 e192     ;v..Bv..Fv..Gv..
   122b4:	7648 e193 764c 8ae0 7652 96fc 7656 95c8     Hv..Lv..Rv..Vv..
   122c4:	7658 e196 765c e195 7661 e197 7662 e198     Xv..\v..av..bv..
   122d4:	7667 e19c 7668 e199 7669 e19a 766a e19b     gv..hv..iv..jv..
   122e4:	766c e19d 7670 e19e 7672 e19f 7676 e1a0     lv..pv..rv..vv..
   122f4:	7678 e1a1 767a 94ad 767b 936f 767c e1a2     xv..zv..{vo.|v..
   12304:	767d 9492 767e 9553 7680 e1a3 7682 fb70     }v..~vS..v...vp.
   12314:	7683 e1a4 7684 9349 7686 8a46 7687 8d63     .v...vI..vF..vc.
   12324:	7688 e1a5 768b e1a6 768e e1a7 7690 8e48     .v...v...v...vH.
   12334:	7693 e1a9 7696 e1a8 7699 e1aa 769a e1ab     .v...v...v...v..
   12344:	769b fb73 769c fb71 769e fb72 76a6 fb74     .vs..vq..vr..vt.
   12354:	76ae 94e7 76b0 e1ac 76b4 e1ad 76b7 ea89     .v...v...v...v..
   12364:	76b8 e1ae 76b9 e1af 76ba e1b0 76bf 8e4d     .v...v...v...vM.
   12374:	76c2 e1b1 76c3 9475 76c6 967e 76c8 896d     .v...vu..v~..vm.
   12384:	76ca 8976 76cd e1b2 76d2 e1b4 76d6 e1b3     .vv..v...v...v..
   12394:	76d7 9390 76db 90b7 76dc 9f58 76de e1b5     .v...v...vX..v..
   123a4:	76df 96bf 76e1 e1b6 76e3 8ac4 76e4 94d5     .v...v...v...v..
   123b4:	76e5 e1b7 76e7 e1b8 76ea e1b9 76ee 96da     .v...v...v...v..
   123c4:	76f2 96d3 76f4 92bc 76f8 918a 76fb e1bb     .v...v...v...v..
   123d4:	76fe 8f82 7701 8fc8 7704 e1be 7707 e1bd     .v...w...w...w..
   123e4:	7708 e1bc 7709 94fb 770b 8ac5 770c 8ca7     .w...w...w...w..
   123f4:	771b e1c4 771e e1c1 771f 905e 7720 96b0     .w...w...w^. w..
   12404:	7724 e1c0 7725 e1c2 7726 e1c3 7729 e1bf     $w..%w..&w..)w..
   12414:	7737 e1c5 7738 e1c6 773a 92ad 773c 8ae1     7w..8w..:w..<w..
   12424:	7740 9285 7746 fb76 7747 e1c7 775a e1c8     @w..Fwv.Gw..Zw..
   12434:	775b e1cb 7761 9087 7763 93c2 7765 e1cc     [w..aw..cw..ew..
   12444:	7766 9672 7768 e1c9 776b e1ca 7779 e1cf     fwr.hw..kw..yw..
   12454:	777e e1ce 777f e1cd 778b e1d1 778e e1d0     ~w...w...w...w..
   12464:	7791 e1d2 779e e1d4 77a0 e1d3 77a5 95cb     .w...w...w...w..
   12474:	77ac 8f75 77ad 97c4 77b0 e1d5 77b3 93b5     .wu..w...w...w..
   12484:	77b6 e1d6 77b9 e1d7 77bb e1db 77bc e1d9     .w...w...w...w..
   12494:	77bd e1da 77bf e1d8 77c7 e1dc 77cd e1dd     .w...w...w...w..
   124a4:	77d7 e1de 77da e1df 77db 96b5 77dc e1e0     .w...w...w...w..
   124b4:	77e2 96ee 77e3 e1e1 77e5 926d 77e7 948a     .w...w...wm..w..
   124c4:	77e9 8be9 77ed 925a 77ee e1e2 77ef 8bb8     .w...wZ..w...w..
   124d4:	77f3 90ce 77fc e1e3 7802 8dbb 780c e1e4     .w...w...x...x..
   124e4:	7812 e1e5 7814 8ca4 7815 8dd3 7820 e1e7     .x...x...x.. x..
   124f4:	7821 fb78 7825 9375 7826 8dd4 7827 8b6d     !xx.%xu.&x..'xm.
   12504:	7832 9643 7834 946a 783a 9376 783f 8d7b     2xC.4xj.:xv.?x{.
   12514:	7845 e1e9 784e fb79 785d 8fc9 7864 fb7a     Ex..Nxy.]x..dxz.
   12524:	786b 97b0 786c 8d64 786f 8ca5 7872 94a1     kx..lxd.ox..rx..
   12534:	7874 e1eb 787a fb7b 787c e1ed 7881 8ce9     tx..zx{.|x...x..
   12544:	7886 e1ec 7887 92f4 788c e1ef 788d 8a56     .x...x...x...xV.
   12554:	788e e1ea 7891 94e8 7893 894f 7895 8dea     .x...x...xO..x..
   12564:	7897 9871 789a e1ee 78a3 e1f0 78a7 95c9     .xq..x...x...x..
   12574:	78a9 90d7 78aa e1f2 78af e1f3 78b5 e1f1     .x...x...x...x..
   12584:	78ba 8a6d 78bc e1f9 78be e1f8 78c1 8ea5     .xm..x...x...x..
   12594:	78c5 e1fa 78c6 e1f5 78ca e1fb 78cb e1f6     .x...x...x...x..
   125a4:	78d0 94d6 78d1 e1f4 78d4 e1f7 78da e241     .x...x...x...xA.
   125b4:	78e7 e240 78e8 9681 78ec e1fc 78ef 88e9     .x@..x...x...x..
   125c4:	78f4 e243 78fd e242 7901 8fca 7907 e244     .xC..xB..y...yD.
   125d4:	790e 9162 7911 e246 7912 e245 7919 e247     .yb..yF..yE..yG.
   125e4:	7926 e1e6 792a e1e8 792b e249 792c e248     &y..*y..+yI.,yH.
   125f4:	7930 fb7c 793a 8ea6 793c 97e7 793e 8ed0     0y|.:y..<y..>y..
   12604:	7940 e24a 7941 8c56 7947 8b5f 7948 8b46     @yJ.AyV.Gy_.HyF.
   12614:	7949 8e83 7950 9753 7953 e250 7955 e24f     Iy..PyS.SyP.UyO.
   12624:	7956 9163 7957 e24c 795a e24e 795d 8f6a     Vyc.WyL.ZyN.]yj.
   12634:	795e 905f 795f e24d 7960 e24b 7962 9449     ^y_._yM.`yK.byI.
   12644:	7965 8fcb 7968 955b 796d 8dd5 7977 9398     ey..hy[.my..wy..
   12654:	797a e251 797f e252 7980 e268 7981 8bd6     zyQ..yR..yh..y..
   12664:	7984 985c 7985 9154 798a e253 798d 89d0     .y\..yT..yS..y..
   12674:	798e 92f5 798f 959f 7994 fb81 799b fb83     .y...y...y...y..
   12684:	799d e254 79a6 8b9a 79a7 e255 79aa e257     .yT..y...yU..yW.
   12694:	79ae e258 79b0 9448 79b3 e259 79b9 e25a     .yX..yH..yY..yZ.
   126a4:	79ba e25b 79bd 8bd7 79be 89d1 79bf 93c3     .y[..y...y...y..
   126b4:	79c0 8f47 79c1 8e84 79c9 e25c 79cb 8f48     .yG..y...y\..yH.
   126c4:	79d1 89c8 79d2 9562 79d5 e25d 79d8 94e9     .y...yb..y]..y..
   126d4:	79df 9164 79e1 e260 79e3 e261 79e4 9489     .yd..y`..ya..y..
   126e4:	79e6 9060 79e7 e25e 79e9 9281 79ec e25f     .y`..y^..y...y_.
   126f4:	79f0 8fcc 79fb 88da 7a00 8b48 7a08 e262     .y...y...zH..zb.
   12704:	7a0b 92f6 7a0d e263 7a0e 90c5 7a14 96ab     .z...zc..z...z..
   12714:	7a17 9542 7a18 e264 7a19 e265 7a1a 9274     .zB..zd..ze..zt.
   12724:	7a1c 97c5 7a1f e267 7a20 e266 7a2e 8eed     .z...zg. zf..z..
   12734:	7a31 e269 7a32 88ee 7a37 e26c 7a3b e26a     1zi.2z..7zl.;zj.
   12744:	7a3c 89d2 7a3d 8c6d 7a3e e26b 7a3f 8d65     <z..=zm.>zk.?ze.
   12754:	7a40 8d92 7a42 95e4 7a43 e26d 7a46 9673     @z..Bz..Czm.Fzs.
   12764:	7a49 e26f 7a4d 90cf 7a4e 896e 7a4f 89b8     Izo.Mz..Nzn.Oz..
   12774:	7a50 88aa 7a57 e26e 7a61 e270 7a62 e271     Pz..Wzn.azp.bzq.
   12784:	7a63 8ff5 7a69 e272 7a6b 8a6e 7a70 e274     cz..izr.kzn.pzt.
   12794:	7a74 8c8a 7a76 8b86 7a79 e275 7a7a 8bf3     tz..vz..yzu.zz..
   127a4:	7a7d e276 7a7f 90fa 7a81 93cb 7a83 90de     }zv..z...z...z..
   127b4:	7a84 8df3 7a88 e277 7a92 9282 7a93 918b     .z...zw..z...z..
   127c4:	7a95 e279 7a96 e27b 7a97 e278 7a98 e27a     .zy..z{..zx..zz.
   127d4:	7a9f 8c41 7aa9 e27c 7aaa 8c45 7aae 8b87     .zA..z|..zE..z..
   127e4:	7aaf 9771 7ab0 e27e 7ab6 e280 7aba 894d     .zq..z~..z...zM.
   127f4:	7abf e283 7ac3 8a96 7ac4 e282 7ac5 e281     .z...z...z...z..
   12804:	7ac7 e285 7ac8 e27d 7aca e286 7acb 97a7     .z...z}..z...z..
   12814:	7acd e287 7acf e288 7ad1 fb84 7ad2 9af2     .z...z...z...z..
   12824:	7ad3 e28a 7ad5 e289 7ad9 e28b 7ada e28c     .z...z...z...z..
   12834:	7adc 97b3 7add e28d 7adf e8ed 7ae0 8fcd     .z...z...z...z..
   12844:	7ae1 e28e 7ae2 e28f 7ae3 8f76 7ae5 93b6     .z...z...zv..z..
   12854:	7ae6 e290 7ae7 fb85 7aea 9247 7aeb fb87     .z...z...zG..z..
   12864:	7aed e291 7aef 925b 7af0 e292 7af6 8ba3     .z...z[..z...z..
   12874:	7af8 995e 7af9 927c 7afa 8eb1 7aff 8ac6     .z^..z|..z...z..
   12884:	7b02 e293 7b04 e2a0 7b06 e296 7b08 8b88     .{...{...{...{..
   12894:	7b0a e295 7b0b e2a2 7b0f e294 7b11 8fce     .{...{...{...{..
   128a4:	7b18 e298 7b19 e299 7b1b 934a 7b1e e29a     .{...{...{J..{..
   128b4:	7b20 8a7d 7b25 9079 7b26 9584 7b28 e29c      {}.%{y.&{..({..
   128c4:	7b2c 91e6 7b33 e297 7b35 e29b 7b36 e29d     ,{..3{..5{..6{..
   128d4:	7b39 8df9 7b45 e2a4 7b46 954d 7b48 94a4     9{..E{..F{M.H{..
   128e4:	7b49 9399 7b4b 8bd8 7b4c e2a3 7b4d e2a1     I{..K{..L{..M{..
   128f4:	7b4f 94b3 7b50 e29e 7b51 927d 7b52 939b     O{..P{..Q{}.R{..
   12904:	7b54 939a 7b56 8df4 7b5d e2b6 7b65 e2a6     T{..V{..]{..e{..
   12914:	7b67 e2a8 7b6c e2ab 7b6e e2ac 7b70 e2a9     g{..l{..n{..p{..
   12924:	7b71 e2aa 7b74 e2a7 7b75 e2a5 7b7a e29f     q{..t{..u{..z{..
   12934:	7b86 95cd 7b87 89d3 7b8b e2b3 7b8d e2b0     .{...{...{...{..
   12944:	7b8f e2b5 7b92 e2b4 7b94 9493 7b95 96a5     .{...{...{...{..
   12954:	7b97 8e5a 7b98 e2ae 7b99 e2b7 7b9a e2b2     .{Z..{...{...{..
   12964:	7b9c e2b1 7b9d e2ad 7b9e fb88 7b9f e2af     .{...{...{...{..
   12974:	7ba1 8ac7 7baa 925c 7bad 90fb 7bb1 94a0     .{...{\..{...{..
   12984:	7bb4 e2bc 7bb8 94a2 7bc0 90df 7bc1 e2b9     .{...{...{...{..
   12994:	7bc4 94cd 7bc6 e2bd 7bc7 95d1 7bc9 927a     .{...{...{...{z.
   129a4:	7bcb e2b8 7bcc e2ba 7bcf e2bb 7bdd e2be     .{...{...{...{..
   129b4:	7be0 8ec2 7be4 93c4 7be5 e2c3 7be6 e2c2     .{...{...{...{..
   129c4:	7be9 e2bf 7bed 9855 7bf3 e2c8 7bf6 e2cc     .{...{U..{...{..
   129d4:	7bf7 e2c9 7c00 e2c5 7c07 e2c6 7c0d e2cb     .{...|...|...|..
   129e4:	7c11 e2c0 7c12 99d3 7c13 e2c7 7c14 e2c1     .|...|...|...|..
   129f4:	7c17 e2ca 7c1f e2d0 7c21 8ac8 7c23 e2cd     .|...|..!|..#|..
   12a04:	7c27 e2ce 7c2a e2cf 7c2b e2d2 7c37 e2d1     '|..*|..+|..7|..
   12a14:	7c38 94f4 7c3d e2d3 7c3e 97fa 7c3f 95eb     8|..=|..>|..?|..
   12a24:	7c40 e2d8 7c43 e2d5 7c4c e2d4 7c4d 90d0     @|..C|..L|..M|..
   12a34:	7c4f e2d7 7c50 e2d9 7c54 e2d6 7c56 e2dd     O|..P|..T|..V|..
   12a44:	7c58 e2da 7c5f e2db 7c60 e2c4 7c64 e2dc     X|.._|..`|..d|..
   12a54:	7c65 e2de 7c6c e2df 7c73 95c4 7c75 e2e0     e|..l|..s|..u|..
   12a64:	7c7e 96e0 7c81 8bcc 7c82 8c48 7c83 e2e1     ~|...|...|H..|..
   12a74:	7c89 95b2 7c8b 9088 7c8d 96ae 7c90 e2e2     .|...|...|...|..
   12a84:	7c92 97b1 7c95 9494 7c97 9165 7c98 9453     .|...|...|e..|S.
   12a94:	7c9b 8f6c 7c9f 88be 7ca1 e2e7 7ca2 e2e5     .|l..|...|...|..
   12aa4:	7ca4 e2e3 7ca5 8a9f 7ca7 8fcf 7ca8 e2e8     .|...|...|...|..
   12ab4:	7cab e2e6 7cad e2e4 7cae e2ec 7cb1 e2eb     .|...|...|...|..
   12ac4:	7cb2 e2ea 7cb3 e2e9 7cb9 e2ed 7cbd e2ee     .|...|...|...|..
   12ad4:	7cbe 90b8 7cc0 e2ef 7cc2 e2f1 7cc5 e2f0     .|...|...|...|..
   12ae4:	7cca 8cd0 7cce 9157 7cd2 e2f3 7cd6 939c     .|...|W..|...|..
   12af4:	7cd8 e2f2 7cdc e2f4 7cde 95b3 7cdf 918c     .|...|...|...|..
   12b04:	7ce0 8d66 7ce2 e2f5 7ce7 97c6 7cef e2f7     .|f..|...|...|..
   12b14:	7cf2 e2f8 7cf4 e2f9 7cf6 e2fa 7cf8 8e85     .|...|...|...|..
   12b24:	7cfa e2fb 7cfb 8c6e 7cfe 8b8a 7d00 8b49     .|...|n..|...}I.
   12b34:	7d02 e340 7d04 96f1 7d05 8d67 7d06 e2fc     .}@..}...}g..}..
   12b44:	7d0a e343 7d0b 96e4 7d0d 945b 7d10 9552     .}C..}...}[..}R.
   12b54:	7d14 8f83 7d15 e342 7d17 8ed1 7d18 8d68     .}...}B..}...}h.
   12b64:	7d19 8e86 7d1a 8b89 7d1b 95b4 7d1c e341     .}...}...}...}A.
   12b74:	7d20 9166 7d21 9661 7d22 8df5 7d2b 8e87      }f.!}a."}..+}..
   12b84:	7d2c 92db 7d2e e346 7d2f 97dd 7d30 8dd7     ,}...}F./}..0}..
   12b94:	7d32 e347 7d33 9061 7d35 e349 7d39 8fd0     2}G.3}a.5}I.9}..
   12ba4:	7d3a 8dae 7d3f e348 7d42 8f49 7d43 8cbc     :}..?}H.B}I.C}..
   12bb4:	7d44 9167 7d45 e344 7d46 e34a 7d48 fb8a     D}g.E}D.F}J.H}..
   12bc4:	7d4b e345 7d4c 8c6f 7d4e e34d 7d4f e351     K}E.L}o.N}M.O}Q.
   12bd4:	7d50 8c8b 7d56 e34c 7d5b e355 7d5c fb8b     P}..V}L.[}U.\}..
   12be4:	7d5e 8d69 7d61 978d 7d62 88ba 7d63 e352     ^}i.a}..b}..c}R.
   12bf4:	7d66 8b8b 7d68 e34f 7d6e e350 7d71 939d     f}..h}O.n}P.q}..
   12c04:	7d72 e34e 7d73 e34b 7d75 8a47 7d76 90e2     r}N.s}K.u}G.v}..
   12c14:	7d79 8ca6 7d7d e357 7d89 e354 7d8f e356     y}..}}W..}T..}V.
   12c24:	7d93 e353 7d99 8c70 7d9a 91b1 7d9b e358     .}S..}p..}...}X.
   12c34:	7d9c 918e 7d9f e365 7da0 fb8d 7da2 e361     .}...}e..}...}a.
   12c44:	7da3 e35b 7dab e35f 7dac 8ef8 7dad 88db     .}[..}_..}...}..
   12c54:	7dae e35a 7daf e362 7db0 e366 7db1 8d6a     .}Z..}b..}f..}j.
   12c64:	7db2 96d4 7db4 92d4 7db5 e35c 7db7 fb8c     .}...}...}\..}..
   12c74:	7db8 e364 7dba e359 7dbb 925d 7dbd e35e     .}d..}Y..}]..}^.
   12c84:	7dbe 88bb 7dbf 96c8 7dc7 e35d 7dca 8bd9     .}...}...}]..}..
   12c94:	7dcb 94ea 7dcf 918d 7dd1 97ce 7dd2 8f8f     .}...}...}...}..
   12ca4:	7dd5 e38e 7dd6 fb8e 7dd8 e367 7dda 90fc     .}...}...}g..}..
   12cb4:	7ddc e363 7ddd e368 7dde e36a 7de0 92f7     .}c..}h..}j..}..
   12cc4:	7de1 e36d 7de4 e369 7de8 95d2 7de9 8ac9     .}m..}i..}...}..
   12cd4:	7dec 96c9 7def 88dc 7df2 e36c 7df4 97fb     .}...}...}l..}..
   12ce4:	7dfb e36b 7e01 898f 7e04 93ea 7e05 e36e     .}k..~...~...~n.
   12cf4:	7e09 e375 7e0a e36f 7e0b e376 7e12 e372     .~u..~o..~v..~r.
   12d04:	7e1b 949b 7e1e 8ec8 7e1f e374 7e21 e371     .~...~...~t.!~q.
   12d14:	7e22 e377 7e23 e370 7e26 8f63 7e2b 9644     "~w.#~p.&~c.+~D.
   12d24:	7e2e 8f6b 7e31 e373 7e32 e380 7e35 e37b     .~k.1~s.2~..5~{.
   12d34:	7e37 e37e 7e39 e37c 7e3a e381 7e3b e37a     7~~.9~|.:~..;~z.
   12d44:	7e3d e360 7e3e 90d1 7e41 94c9 7e43 e37d     =~`.>~..A~..C~}.
   12d54:	7e46 e378 7e4a 9140 7e4b 8c71 7e4d 8f4a     F~x.J~@.K~q.M~J.
   12d64:	7e52 fb8f 7e54 9044 7e55 9155 7e56 e384     R~..T~D.U~U.V~..
   12d74:	7e59 e386 7e5a e387 7e5d e383 7e5e e385     Y~..Z~..]~..^~..
   12d84:	7e66 e379 7e67 e382 7e69 e38a 7e6a e389     f~y.g~..i~..j~..
   12d94:	7e6d 969a 7e70 8c4a 7e79 e388 7e7b e38c     m~..p~J.y~..{~..
   12da4:	7e7c e38b 7e7d e38f 7e7f e391 7e82 8e5b     |~..}~...~...~[.
   12db4:	7e83 e38d 7e88 e392 7e89 e393 7e8a fa5c     .~...~...~...~\.
   12dc4:	7e8c e394 7e8e e39a 7e8f 935a 7e90 e396     .~...~...~Z..~..
   12dd4:	7e92 e395 7e93 e397 7e94 e398 7e96 e399     .~...~...~...~..
   12de4:	7e9b e39b 7e9c e39c 7f36 8aca 7f38 e39d     .~...~..6...8...
   12df4:	7f3a e39e 7f45 e39f 7f47 fb90 7f4c e3a0     :...E...G...L...
   12e04:	7f4d e3a1 7f4e e3a2 7f50 e3a3 7f51 e3a4     M...N...P...Q...
   12e14:	7f54 e3a6 7f55 e3a5 7f58 e3a7 7f5f e3a8     T...U...X..._...
   12e24:	7f60 e3a9 7f67 e3ac 7f68 e3aa 7f69 e3ab     `...g...h...i...
   12e34:	7f6a 8ddf 7f6b 8c72 7f6e 9275 7f70 94b1     j...k.r.n.u.p...
   12e44:	7f72 8f90 7f75 946c 7f77 94eb 7f78 e3ad     r...u.l.w...x...
   12e54:	7f79 9ceb 7f82 e3ae 7f83 e3b0 7f85 9785     y...............
   12e64:	7f86 e3af 7f87 e3b2 7f88 e3b1 7f8a 9772     ..............r.
   12e74:	7f8c e3b3 7f8e 94fc 7f94 e3b4 7f9a e3b7     ................
   12e84:	7f9d e3b6 7f9e e3b5 7fa1 fb91 7fa3 e3b8     ................
   12e94:	7fa4 8c51 7fa8 9141 7fa9 8b60 7fae e3bc     ..Q...A...`.....
   12ea4:	7faf e3b9 7fb2 e3ba 7fb6 e3bd 7fb8 e3be     ................
   12eb4:	7fb9 e3bb 7fbd 8948 7fc1 89a5 7fc5 e3c0     ......H.........
   12ec4:	7fc6 e3c1 7fca e3c2 7fcc 9782 7fd2 8f4b     ..............K.
   12ed4:	7fd4 e3c4 7fd5 e3c3 7fe0 9089 7fe1 e3c5     ................
   12ee4:	7fe6 e3c6 7fe9 e3c7 7feb 8ae3 7ff0 8acb     ................
   12ef4:	7ff3 e3c8 7ff9 e3c9 7ffb 967c 7ffc 9783     ..........|.....
   12f04:	8000 9773 8001 9856 8003 8d6c 8004 e3cc     ..s...V...l.....
   12f14:	8005 8ed2 8006 e3cb 800b e3cd 800c 8ea7     ................
   12f24:	8010 91cf 8012 e3ce 8015 8d6b 8017 96d5     ..........k.....
   12f34:	8018 e3cf 8019 e3d0 801c e3d1 8021 e3d2     ............!...
   12f44:	8028 e3d3 8033 8ea8 8036 96eb 803b e3d5     (...3...6...;...
   12f54:	803d 925e 803f e3d4 8046 e3d7 804a e3d6     =.^.?...F...J...
   12f64:	8052 e3d8 8056 90b9 8058 e3d9 805a e3da     R...V...X...Z...
   12f74:	805e 95b7 805f e3db 8061 918f 8062 e3dc     ^..._...a...b...
   12f84:	8068 e3dd 806f 97fc 8070 e3e0 8072 e3df     h...o...p...r...
   12f94:	8073 e3de 8074 92ae 8076 e3e1 8077 9045     s...t...v...w.E.
   12fa4:	8079 e3e2 807d e3e3 807e 9857 807f e3e4     y...}...~.W.....
   12fb4:	8084 e3e5 8085 e3e7 8086 e3e6 8087 94a3     ................
   12fc4:	8089 93f7 808b 985d 808c 94a7 8093 e3e9     ......].........
   12fd4:	8096 8fd1 8098 9549 809a e3ea 809b e3e8     ......I.........
   12fe4:	809d 8acc 80a1 8cd2 80a2 8e88 80a5 94ec     ................
   12ff4:	80a9 8ca8 80aa 9662 80ac e3ed 80ad e3eb     ......b.........
   13004:	80af 8d6d 80b1 8d6e 80b2 88e7 80b4 8de6     ..m...n.........
   13014:	80ba 9478 80c3 88dd 80c4 e3f2 80c6 925f     ..x..........._.
   13024:	80cc 9477 80ce 91d9 80d6 e3f4 80d9 e3f0     ..w.............
   13034:	80da e3f3 80db e3ee 80dd e3f1 80de 9645     ..............E.
   13044:	80e1 8cd3 80e4 88fb 80e5 e3ef 80ef e3f6     ................
   13054:	80f1 e3f7 80f4 93b7 80f8 8bb9 80fc e445     ..............E.
   13064:	80fd 945c 8102 8e89 8105 8bba 8106 90c6     ..\.............
   13074:	8107 9865 8108 96ac 8109 e3f5 810a 90d2     ..e.............
   13084:	811a 8b72 811b e3f8 8123 e3fa 8129 e3f9     ..r.....#...)...
   13094:	812f e3fb 8131 9245 8133 945d 8139 92af     /...1.E.3.].9...
   130a4:	813e e442 8146 e441 814b e3fc 814e 9074     >.B.F.A.K...N.t.
   130b4:	8150 9585 8151 e444 8153 e443 8154 8d6f     P...Q.D.S.C.T.o.
   130c4:	8155 9872 815f e454 8165 e448 8166 e449     U.r._.T.e.H.f.I.
   130d4:	816b 8eee 816e e447 8170 8d98 8171 e446     k...n.G.p...q.F.
   130e4:	8174 e44a 8178 92b0 8179 95a0 817a 9142     t.J.x...y...z.B.
   130f4:	817f 91da 8180 e44e 8182 e44f 8183 e44b     ......N...O...K.
   13104:	8188 e44c 818a e44d 818f 8d70 8193 e455     ..L...M...p...U.
   13114:	8195 e451 819a 9586 819c 968c 819d 9547     ..Q...........G.
   13124:	81a0 e450 81a3 e453 81a4 e452 81a8 9663     ..P...S...R...c.
   13134:	81a9 e456 81b0 e457 81b3 9156 81b5 e458     ..V...W...V...X.
   13144:	81b8 e45a 81ba e45e 81bd e45b 81be e459     ..Z...^...[...Y.
   13154:	81bf 945e 81c0 e45c 81c2 e45d 81c6 89b0     ..^...\...].....
   13164:	81c8 e464 81c9 e45f 81cd e460 81d1 e461     ..d..._...`...a.
   13174:	81d3 919f 81d8 e463 81d9 e462 81da e465     ......c...b...e.
   13184:	81df e466 81e0 e467 81e3 9062 81e5 89e7     ..f...g...b.....
   13194:	81e7 e468 81e8 97d5 81ea 8ea9 81ed 8f4c     ..h...........L.
   131a4:	81f3 8e8a 81f4 9276 81fa e469 81fb e46a     ......v...i...j.
   131b4:	81fc 8950 81fe e46b 8201 e46c 8202 e46d     ..P...k...l...m.
   131c4:	8205 e46e 8207 e46f 8208 8bbb 8209 9da8     ..n...o.........
   131d4:	820a e470 820c 90e3 820d e471 820e 8ec9     ..p.......q.....
   131e4:	8210 e472 8212 98ae 8216 e473 8217 95dc     ..r.......s.....
   131f4:	8218 8ada 821b 9143 821c 8f77 821e 9591     ......C...w.....
   13204:	821f 8f4d 8229 e474 822a 8d71 822b e475     ..M.).t.*.q.+.u.
   13214:	822c 94ca 822e e484 8233 e477 8235 91c7     ,.......3.w.5...
   13224:	8236 9495 8237 8cbd 8238 e476 8239 9144     6...7...8.v.9.D.
   13234:	8240 e478 8247 92f8 8258 e47a 8259 e479     @.x.G...X.z.Y.y.
   13244:	825a e47c 825d e47b 825f e47d 8262 e480     Z.|.].{._.}.b...
   13254:	8264 e47e 8266 8acd 8268 e481 826a e482     d.~.f...h...j...
   13264:	826b e483 826e 8daf 826f 97c7 8271 e485     k...n...o...q...
   13274:	8272 9046 8276 8990 8277 e486 8278 e487     r.F.v...w...x...
   13284:	827e e488 828b 88f0 828d e489 8292 e48a     ~...............
   13294:	8299 9587 829d 8ec5 829f e48c 82a5 8a48     ..............H.
   132a4:	82a6 88b0 82ab e48b 82ac e48e 82ad 946d     ..............m.
   132b4:	82af 9063 82b1 89d4 82b3 9646 82b8 8c7c     ..c.......F...|.
   132c4:	82b9 8bda 82bb e48d 82bd 89e8 82c5 8aa1     ................
   132d4:	82d1 8991 82d2 e492 82d3 97e8 82d4 91db     ................
   132e4:	82d7 9563 82d9 e49e 82db 89d5 82dc e49c     ..c.............
   132f4:	82de e49a 82df e491 82e1 e48f 82e3 e490     ................
   13304:	82e5 8ee1 82e6 8bea 82e7 9297 82eb 93cf     ................
   13314:	82f1 8970 82f3 e494 82f4 e493 82f9 e499     ..p.............
   13324:	82fa e495 82fb e498 8301 fb93 8302 96ce     ................
   13334:	8303 e497 8304 89d6 8305 8a9d 8306 e49b     ................
   13344:	8309 e49d 830e 8c73 8316 e4a1 8317 e4aa     ......s.........
   13354:	8318 e4ab 831c 88a9 8323 e4b2 8328 88ef     ........#...(...
   13364:	832b e4a9 832f e4a8 8331 e4a3 8332 e4a2     +.../...1...2...
   13374:	8334 e4a0 8335 e49f 8336 9283 8338 91f9     4...5...6...8...
   13384:	8339 e4a5 8340 e4a4 8345 e4a7 8349 9190     9...@...E...I...
   13394:	834a 8c74 834f 8960 8350 e4a6 8352 8d72     J.t.O.`.P...R.r.
   133a4:	8358 9191 8362 fb94 8373 e4b8 8375 e4b9     X...b...s...u...
   133b4:	8377 89d7 837b 89ac 837c e4b6 837f fb95     w...{...|.......
   133c4:	8385 e4ac 8387 e4b4 8389 e4bb 838a e4b5     ................
   133d4:	838e e4b3 8393 e496 8396 e4b1 839a e4ad     ................
   133e4:	839e 8ace 839f e4af 83a0 e4ba 83a2 e4b0     ................
   133f4:	83a8 e4bc 83aa e4ae 83ab 949c 83b1 9789     ................
   13404:	83b5 e4b7 83bd e4cd 83c1 e4c5 83c5 909b     ................
   13414:	83c7 fb96 83ca 8b65 83cc 8bdb 83ce e4c0     ......e.........
   13424:	83d3 89d9 83d6 8fd2 83d8 e4c3 83dc 8dd8     ................
   13434:	83df 9370 83e0 e4c8 83e9 95ec 83eb e4bf     ..p.............
   13444:	83ef 89d8 83f0 8cd4 83f1 9548 83f2 e4c9     ..........H.....
   13454:	83f4 e4bd 83f6 fb97 83f7 e4c6 83fb e4d0     ................
   13464:	83fd e4c1 8403 e4c2 8404 93b8 8407 e4c7     ................
   13474:	840b e4c4 840c 9647 840d e4ca 840e 88de     ......G.........
   13484:	8413 e4be 8420 e4cc 8422 e4cb 8429 948b     .... ..."...)...
   13494:	842a e4d2 842c e4dd 8431 8a9e 8435 e4e0     *...,...1...5...
   134a4:	8438 e4ce 843c e4d3 843d 978e 8446 e4dc     8...<...=...F...
   134b4:	8448 fb98 8449 9774 844e 97a8 8457 9298     H...I.t.N...W...
   134c4:	845b 8a8b 8461 9592 8462 e4e2 8463 939f     [...a...b...c...
   134d4:	8466 88af 8469 e4db 846b e4d7 846c 9192     f...i...k...l...
   134e4:	846d e4d1 846e e4d9 846f e4de 8471 944b     m...n...o...q.K.
   134f4:	8475 88a8 8477 e4d6 8479 e4df 847a 9598     u...w...y...z...
   13504:	8482 e4da 8484 e4d5 848b 8fd3 8490 8f4e     ..............N.
   13514:	8494 8eaa 8499 96d6 849c 9566 849f e4e5     ..........f.....
   13524:	84a1 e4ee 84ad e4d8 84b2 8a97 84b4 fb99     ................
   13534:	84b8 8ff6 84b9 e4e3 84bb e4e8 84bc 9193     ................
   13544:	84bf e4e4 84c1 e4eb 84c4 927e 84c6 e4ec     ..........~.....
   13554:	84c9 9775 84ca e4e1 84cb 8a57 84cd e4e7     ..u.......W.....
   13564:	84d0 e4ea 84d1 96aa 84d6 e4ed 84d9 e4e6     ................
   13574:	84da e4e9 84dc fa60 84ec 9648 84ee 9840     ......`...H...@.
   13584:	84f4 e4f1 84fc e4f8 84ff e4f0 8500 8ec1     ................
   13594:	8506 e4cf 8511 95cc 8513 96a0 8514 e4f7     ................
   135a4:	8515 e4f6 8517 e4f2 8518 e4f3 851a 8955     ..............U.
   135b4:	851f e4f5 8521 e4ef 8526 92d3 852c e4f4     ....!...&...,...
   135c4:	852d 88fc 8535 91a0 853d 95c1 8540 e4f9     -...5...=...@...
   135d4:	8541 e540 8543 94d7 8548 e4fc 8549 8fd4     A.@.C...H...I...
   135e4:	854a 8ec7 854b e542 854e 8bbc 8553 fb9a     J...K.B.N...S...
   135f4:	8555 e543 8557 9599 8558 e4fb 8559 fb9b     U.C.W...X...Y...
   13604:	855a e4d4 8563 e4fa 8568 986e 8569 93a0     Z...c...h.n.i...
   13614:	856a 9593 856b fb9c 856d e54a 8577 e550     j...k...m.J.w.P.
   13624:	857e e551 8580 e544 8584 9496 8587 e54e     ~.Q...D.......N.
   13634:	8588 e546 858a e548 8590 e552 8591 e547     ..F...H...R...G.
   13644:	8594 e54b 8597 8992 8599 93e3 859b e54c     ..K...........L.
   13654:	859c e54f 85a4 e545 85a6 9145 85a8 e549     ..O...E...E...I.
   13664:	85a9 8e46 85aa 9064 85ab 8c4f 85ac 96f2     ..F...d...O.....
   13674:	85ae 96f7 85af 8f92 85b0 fb9e 85b9 e556     ..............V.
   13684:	85ba e554 85c1 986d 85c9 e553 85cd 9795     ..T...m...S.....
   13694:	85cf e555 85d0 e557 85d5 e558 85dc e55b     ..U...W...X...[.
   136a4:	85dd e559 85e4 93a1 85e5 e55a 85e9 94cb     ..Y.......Z.....
   136b4:	85ea e54d 85f7 8f93 85f9 e55c 85fa e561     ..M.......\...a.
   136c4:	85fb 9194 85fe e560 8602 e541 8606 e562     ......`...A...b.
   136d4:	8607 9168 860a e55d 860b e55f 8613 e55e     ..h...]..._...^.
   136e4:	8616 9f50 8617 9f41 861a e564 8622 e563     ..P...A...d.".c.
   136f4:	862d 9796 862f e1ba 8630 e565 863f e566     -.../...0.e.?.f.
   13704:	864d e567 864e 8cd5 8650 8b73 8654 e569     M.g.N...P.s.T.i.
   13714:	8655 997c 865a 8b95 865c 97b8 865e 8bf1     U.|.Z...\...^...
   13724:	865f e56a 8667 e56b 866b 928e 8671 e56c     _.j.g.k.k...q.l.
   13734:	8679 93f8 867b 88b8 868a 89e1 868b e571     y...{.........q.
   13744:	868c e572 8693 e56d 8695 8e5c 86a3 e56e     ..r...m...\...n.
   13754:	86a4 9461 86a9 e56f 86aa e570 86ab e57a     ..a...o...p...z.
   13764:	86af e574 86b0 e577 86b6 e573 86c4 e575     ..t...w...s...u.
   13774:	86c6 e576 86c7 8ed6 86c9 e578 86cb 9260     ..v.......x...`.
   13784:	86cd 8c75 86ce 8a61 86d4 e57b 86d9 8a5e     ..u...a...{...^.
   13794:	86db e581 86de e57c 86df e580 86e4 94b8     ......|.........
   137a4:	86e9 e57d 86ec e57e 86ed 9567 86ee 94d8     ..}...~...g.....
   137b4:	86ef e582 86f8 91fb 86f9 e58c 86fb e588     ................
   137c4:	86fe 89e9 8700 e586 8702 9649 8703 e587     ..........I.....
   137d4:	8706 e584 8708 e585 8709 e58a 870a e58d     ................
   137e4:	870d e58b 8711 e589 8712 e583 8718 9277     ..............w.
   137f4:	871a e594 871c 96a8 8725 e592 8729 e593     ........%...)...
   13804:	8734 e58e 8737 e590 873b e591 873f e58f     4...7...;...?...
   13814:	8749 90e4 874b 9858 874c e598 874e e599     I...K.X.L...N...
   13824:	8753 e59f 8755 9049 8757 e59b 8759 e59e     S...U.I.W...Y...
   13834:	875f e596 8760 e595 8763 e5a0 8766 89da     _...`...c...f...
   13844:	8768 e59c 876a e5a1 876e e59d 8774 e59a     h...j...n...t...
   13854:	8776 92b1 8778 e597 877f 9488 8782 e5a5     v...x...........
   13864:	878d 975a 879f e5a4 87a2 e5a3 87ab e5ac     ..Z.............
   13874:	87af e5a6 87b3 e5ae 87ba 9786 87bb e5b1     ................
   13884:	87bd e5a8 87c0 e5a9 87c4 e5ad 87c6 e5b0     ................
   13894:	87c7 e5af 87cb e5a7 87d0 e5aa 87d2 e5bb     ................
   138a4:	87e0 e5b4 87ef e5b2 87f2 e5b3 87f6 e5b8     ................
   138b4:	87f7 e5b9 87f9 8a49 87fb 8b61 87fe e5b7     ......I...a.....
   138c4:	8805 e5a2 8807 fba1 880d e5b6 880e e5ba     ................
   138d4:	880f e5b5 8811 e5bc 8815 e5be 8816 e5bd     ................
   138e4:	8821 e5c0 8822 e5bf 8823 e579 8827 e5c4     !..."...#.y.'...
   138f4:	8831 e5c1 8836 e5c2 8839 e5c3 883b e5c5     1...6...9...;...
   13904:	8840 8c8c 8842 e5c7 8844 e5c6 8846 8f4f     @...B...D...F.O.
   13914:	884c 8d73 884d 9fa5 8852 e5c8 8853 8f70     L.s.M...R...S.p.
   13924:	8857 8a58 8859 e5c9 885b 8971 885d 8fd5     W.X.Y...[.q.]...
   13934:	885e e5ca 8861 8d74 8862 e5cb 8863 88df     ^...a.t.b...c...
   13944:	8868 955c 886b e5cc 8870 908a 8872 e5d3     h.\.k...p...r...
   13954:	8875 e5d0 8877 928f 887d e5d1 887e e5ce     u...w...}...~...
   13964:	887f 8bdc 8881 e5cd 8882 e5d4 8888 8c55     ..............U.
   13974:	888b 91dc 888d e5da 8892 e5d6 8896 91b3     ................
   13984:	8897 e5d5 8899 e5d8 889e e5cf 88a2 e5d9     ................
   13994:	88a4 e5db 88ab 94ed 88ae e5d7 88b0 e5dc     ................
   139a4:	88b1 e5de 88b4 8cd1 88b5 e5d2 88b7 88bf     ................
   139b4:	88bf e5dd 88c1 8dd9 88c2 97f4 88c3 e5df     ................
   139c4:	88c4 e5e0 88c5 9195 88cf 97a0 88d4 e5e1     ................
   139d4:	88d5 9754 88d8 e5e2 88d9 e5e3 88dc 95e2     ..T.............
   139e4:	88dd e5e4 88df 8dbe 88e1 97a1 88e8 e5e9     ................
   139f4:	88f2 e5ea 88f3 8fd6 88f4 e5e8 88f5 fba2     ................
   13a04:	88f8 9787 88f9 e5e5 88fc e5e7 88fd 90bb     ................
   13a14:	88fe 909e 8902 e5e6 8904 e5eb 8907 95a1     ................
   13a24:	890a e5ed 890c e5ec 8910 8a8c 8912 964a     ..............J.
   13a34:	8913 e5ee 891c fa5d 891d e5fa 891e e5f0     ......].........
   13a44:	8925 e5f1 892a e5f2 892b e5f3 8936 e5f7     %...*...+...6...
   13a54:	8938 e5f8 893b e5f6 8941 e5f4 8943 e5ef     8...;...A...C...
   13a64:	8944 e5f5 894c e5f9 894d e8b5 8956 89a6     D...L...M...V...
   13a74:	895e e5fc 895f 8bdd 8960 e5fb 8964 e641     ^..._...`...d.A.
   13a84:	8966 e640 896a e643 896d e642 896f e644     f.@.j.C.m.B.o.D.
   13a94:	8972 8f50 8974 e645 8977 e646 897e e647     r.P.t.E.w.F.~.G.
   13aa4:	897f 90bc 8981 9776 8983 e648 8986 95a2     ......v...H.....
   13ab4:	8987 9465 8988 e649 898a e64a 898b 8ca9     ..e...I...J.....
   13ac4:	898f 8b4b 8993 e64b 8996 8e8b 8997 9460     ..K...K.......`.
   13ad4:	8998 e64c 899a 8a6f 89a1 e64d 89a6 e64f     ..L...o...M...O.
   13ae4:	89a7 9797 89a9 e64e 89aa 9065 89ac e650     ......N...e...P.
   13af4:	89af e651 89b2 e652 89b3 8acf 89ba e653     ..Q...R.......S.
   13b04:	89bd e654 89bf e655 89c0 e656 89d2 8a70     ..T...U...V...p.
   13b14:	89da e657 89dc e658 89dd e659 89e3 89f0     ..W...X...Y.....
   13b24:	89e6 9047 89e7 e65a 89f4 e65b 89f8 e65c     ..G...Z...[...\.
   13b34:	8a00 8cbe 8a02 92f9 8a03 e65d 8a08 8c76     ..........]...v.
   13b44:	8a0a 9075 8a0c e660 8a0e 93a2 8a10 e65f     ..u...`......._.
   13b54:	8a12 fba3 8a13 8c50 8a16 e65e 8a17 91f5     ......P...^.....
   13b64:	8a18 8b4c 8a1b e661 8a1d e662 8a1f 8fd7     ..L...a...b.....
   13b74:	8a23 8c8d 8a25 e663 8a2a 964b 8a2d 90dd     #...%.c.*.K.-...
   13b84:	8a31 8b96 8a33 96f3 8a34 9169 8a36 e664     1...3...4.i.6.d.
   13b94:	8a37 fba4 8a3a 9066 8a3b 9290 8a3c 8fd8     7...:.f.;...<...
   13ba4:	8a41 e665 8a46 e668 8a48 e669 8a50 8dbc     A.e.F.h.H.i.P...
   13bb4:	8a51 91c0 8a52 e667 8a54 8fd9 8a55 955d     Q...R.g.T...U.].
   13bc4:	8a5b e666 8a5e 8e8c 8a60 8972 8a62 e66d     [.f.^...`.r.b.m.
   13bd4:	8a63 8c77 8a66 8e8e 8a69 8e8d 8a6b 986c     c.w.f...i...k.l.
   13be4:	8a6c e66c 8a6d e66b 8a6e 9146 8a70 8b6c     l.l.m.k.n.F.p.l.
   13bf4:	8a71 9862 8a72 8a59 8a73 8fda 8a79 fba5     q.b.r.Y.s...y...
   13c04:	8a7c e66a 8a82 e66f 8a84 e670 8a85 e66e     |.j...o...p...n.
   13c14:	8a87 8cd6 8a89 975f 8a8c 8e8f 8a8d 9446     ......_.......F.
   13c24:	8a91 e673 8a93 90be 8a95 9261 8a98 9755     ..s.......a...U.
   13c34:	8a9a e676 8a9e 8cea 8aa0 90bd 8aa1 e672     ..v...........r.
   13c44:	8aa3 e677 8aa4 8ceb 8aa5 e674 8aa6 e675     ..w.......t...u.
   13c54:	8aa7 fba6 8aa8 e671 8aac 90e0 8aad 93c7     ......q.........
   13c64:	8ab0 924e 8ab2 89db 8ab9 94ee 8abc 8b62     ..N...........b.
   13c74:	8abe fba7 8abf 92b2 8ac2 e67a 8ac4 e678     ..........z...x.
   13c84:	8ac7 926b 8acb 90bf 8acc 8ad0 8acd e679     ..k...........y.
   13c94:	8acf 907a 8ad2 97c8 8ad6 985f 8ada e67b     ..z......._...{.
   13ca4:	8adb e687 8adc 92b3 8ade e686 8adf fba8     ................
   13cb4:	8ae0 e683 8ae1 e68b 8ae2 e684 8ae4 e680     ................
   13cc4:	8ae6 92fa 8ae7 e67e 8aeb e67c 8aed 9740     ......~...|...@.
   13cd4:	8aee 8e90 8af1 e681 8af3 e67d 8af6 fbaa     ..........}.....
   13ce4:	8af7 e685 8af8 8f94 8afa 8cbf 8afe 91f8     ................
   13cf4:	8b00 9664 8b01 8979 8b02 88e0 8b04 93a3     ..d...y.........
   13d04:	8b07 e689 8b0c e688 8b0e 93e4 8b10 e68d     ................
   13d14:	8b14 e682 8b16 e68c 8b17 e68e 8b19 8caa     ................
   13d24:	8b1a e68a 8b1b 8d75 8b1d 8ed3 8b20 e68f     ......u..... ...
   13d34:	8b21 9777 8b26 e692 8b28 e695 8b2b e693     !.w.&...(...+...
   13d44:	8b2c 9554 8b33 e690 8b39 8bde 8b3e e694     ,.T.3...9...>...
   13d54:	8b41 e696 8b49 e69a 8b4c e697 8b4e e699     A...I...L...N...
   13d64:	8b4f e698 8b53 fbab 8b56 e69b 8b58 8eaf     O...S...V...X...
   13d74:	8b5a e69d 8b5b e69c 8b5c 9588 8b5f e69f     Z...[...\..._...
   13d84:	8b66 8c78 8b6b e69e 8b6c e6a0 8b6f e6a1     f.x.k...l...o...
   13d94:	8b70 8b63 8b71 e3bf 8b72 8ff7 8b74 e6a2     p.c.q...r...t...
   13da4:	8b77 8cec 8b7d e6a3 8b7f fbac 8b80 e6a4     w...}...........
   13db4:	8b83 8e5d 8b8a 9dcc 8b8c e6a5 8b8e e6a6     ..].............
   13dc4:	8b90 8f51 8b92 e6a7 8b93 e6a8 8b96 e6a9     ..Q.............
   13dd4:	8b99 e6aa 8b9a e6ab 8c37 924a 8c3a e6ac     ........7.J.:...
   13de4:	8c3f e6ae 8c41 e6ad 8c46 93a4 8c48 e6af     ?...A...F...H...
   13df4:	8c4a 964c 8c4c e6b0 8c4e e6b1 8c50 e6b2     J.L.L...N...P...
   13e04:	8c55 e6b3 8c5a 93d8 8c61 8fdb 8c62 e6b4     U...Z...a...b...
   13e14:	8c6a 8d8b 8c6b 98ac 8c6c e6b5 8c78 e6b6     j...k...l...x...
   13e24:	8c79 955e 8c7a e6b7 8c7c e6bf 8c82 e6b8     y.^.z...|.......
   13e34:	8c85 e6ba 8c89 e6b9 8c8a e6bb 8c8c 9665     ..............e.
   13e44:	8c8d e6bc 8c8e e6bd 8c94 e6be 8c98 e6c0     ................
   13e54:	8c9d 8a4c 8c9e 92e5 8ca0 9589 8ca1 8de0     ..L.............
   13e64:	8ca2 8d76 8ca7 956e 8ca8 89dd 8ca9 94cc     ..v...n.........
   13e74:	8caa e6c3 8cab 8ad1 8cac 90d3 8cad e6c2     ................
   13e84:	8cae e6c7 8caf 9299 8cb0 96e1 8cb2 e6c5     ................
   13e94:	8cb3 e6c6 8cb4 8b4d 8cb6 e6c8 8cb7 9483     ......M.........
   13ea4:	8cb8 91dd 8cbb 94ef 8cbc 935c 8cbd e6c4     ..........\.....
   13eb4:	8cbf 9666 8cc0 89ea 8cc1 e6ca 8cc2 9847     ..f...........G.
   13ec4:	8cc3 92c0 8cc4 9864 8cc7 8e91 8cc8 e6c9     ......d.........
   13ed4:	8cca 91af 8ccd e6da 8cce 9147 8cd1 93f6     ..........G.....
   13ee4:	8cd3 956f 8cda e6cd 8cdb 8e5e 8cdc 8e92     ..o.......^.....
   13ef4:	8cde 8fdc 8ce0 9485 8ce2 8cab 8ce3 e6cc     ................
   13f04:	8ce4 e6cb 8ce6 958a 8cea 8ebf 8ced 9371     ..............q.
   13f14:	8cf0 fbad 8cf4 fbae 8cfa e6cf 8cfb e6d0     ................
   13f24:	8cfc 8d77 8cfd e6ce 8d04 e6d1 8d05 e6d2     ..w.............
   13f34:	8d07 e6d4 8d08 91a1 8d0a e6d3 8d0b 8ae4     ................
   13f44:	8d0d e6d6 8d0f e6d5 8d10 e6d7 8d12 fbaf     ................
   13f54:	8d13 e6d9 8d14 e6db 8d16 e6dc 8d64 90d4     ............d...
   13f64:	8d66 8ecd 8d67 e6dd 8d6b 8a71 8d6d e6de     f...g...k.q.m...
   13f74:	8d70 9196 8d71 e6df 8d73 e6e0 8d74 958b     p...q...s...t...
   13f84:	8d76 fbb0 8d77 8b4e 8d81 e6e1 8d85 92b4     v...w.N.........
   13f94:	8d8a 897a 8d99 e6e2 8da3 8eef 8da8 9096     ..z.............
   13fa4:	8db3 91ab 8dba e6e5 8dbe e6e4 8dc2 e6e3     ................
   13fb4:	8dcb e6eb 8dcc e6e9 8dcf e6e6 8dd6 e6e8     ................
   13fc4:	8dda e6e7 8ddb e6ea 8ddd 8b97 8ddf e6ee     ................
   13fd4:	8de1 90d5 8de3 e6ef 8de8 8cd7 8dea e6ec     ................
   13fe4:	8deb e6ed 8def 9848 8df3 92b5 8df5 9148     ......H.......H.
   13ff4:	8dfc e6f0 8dff e6f3 8e08 e6f1 8e09 e6f2     ................
   14004:	8e0a 9778 8e0f 93a5 8e10 e6f6 8e1d e6f4     ..x.............
   14014:	8e1e e6f5 8e1f e6f7 8e2a e748 8e30 e6fa     ........*.H.0...
   14024:	8e34 e6fb 8e35 e6f9 8e42 e6f8 8e44 92fb     4...5...B...D...
   14034:	8e47 e740 8e48 e744 8e49 e741 8e4a e6fc     G.@.H.D.I.A.J...
   14044:	8e4c e742 8e50 e743 8e55 e74a 8e59 e745     L.B.P.C.U.J.Y.E.
   14054:	8e5f 90d6 8e60 e747 8e63 e749 8e64 e746     _...`.G.c.I.d.F.
   14064:	8e72 e74c 8e74 8f52 8e76 e74b 8e7c e74d     r.L.t.R.v.K.|.M.
   14074:	8e81 e74e 8e84 e751 8e85 e750 8e87 e74f     ..N...Q...P...O.
   14084:	8e8a e753 8e8b e752 8e8d 96f4 8e91 e755     ..S...R.......U.
   14094:	8e93 e754 8e94 e756 8e99 e757 8ea1 e759     ..T...V...W...Y.
   140a4:	8eaa e758 8eab 9067 8eac e75a 8eaf 8beb     ..X...g...Z.....
   140b4:	8eb0 e75b 8eb1 e75d 8ebe e75e 8ec5 e75f     ..[...]...^..._.
   140c4:	8ec6 e75c 8ec8 e760 8eca 8ed4 8ecb e761     ..\...`.......a.
   140d4:	8ecc 8b4f 8ecd 8c52 8ecf fbb2 8ed2 8cac     ..O...R.........
   140e4:	8edb e762 8edf 93ee 8ee2 935d 8ee3 e763     ..b.......]...c.
   140f4:	8eeb e766 8ef8 8eb2 8efb e765 8efc e764     ..f.......e...d.
   14104:	8efd 8c79 8efe e767 8f03 8a72 8f05 e769     ..y...g...r...i.
   14114:	8f09 8dda 8f0a e768 8f0c e771 8f12 e76b     ......h...q...k.
   14124:	8f13 e76d 8f14 95e3 8f15 e76a 8f19 e76c     ..m.......j...l.
   14134:	8f1b e770 8f1c e76e 8f1d 8b50 8f1f e76f     ..p...n...P...o.
   14144:	8f26 e772 8f29 9479 8f2a 97d6 8f2f 8f53     &.r.).y.*.../.S.
   14154:	8f33 e773 8f38 9741 8f39 e775 8f3b e774     3.s.8.A.9.u.;.t.
   14164:	8f3e e778 8f3f 9760 8f42 e777 8f44 8a8d     >.x.?.`.B.w.D...
   14174:	8f45 e776 8f46 e77b 8f49 e77a 8f4c e779     E.v.F.{.I.z.L.y.
   14184:	8f4d 9351 8f4e e77c 8f57 e77d 8f5c e77e     M.Q.N.|.W.}.\.~.
   14194:	8f5f 8d8c 8f61 8c44 8f62 e780 8f63 e781     _...a.D.b...c...
   141a4:	8f64 e782 8f9b 9068 8f9c e783 8f9e 8eab     d.....h.........
   141b4:	8f9f e784 8fa3 e785 8fa7 999f 8fa8 999e     ................
   141c4:	8fad e786 8fae e390 8faf e787 8fb0 9243     ..............C.
   141d4:	8fb1 904a 8fb2 945f 8fb7 e788 8fba 95d3     ..J..._.........
   141e4:	8fbb 92d2 8fbc 8d9e 8fbf 9248 8fc2 8949     ..........H...I.
   141f4:	8fc4 9698 8fc5 9076 8fce 8c7d 8fd1 8bdf     ......v...}.....
   14204:	8fd4 95d4 8fda e789 8fe2 e78b 8fe5 e78a     ................
   14214:	8fe6 89de 8fe9 93f4 8fea e78c 8feb 9497     ................
   14224:	8fed 9352 8fef e78d 8ff0 8f71 8ff4 e78f     ..R.......q.....
   14234:	8ff7 96c0 8ff8 e79e 8ff9 e791 8ffa e792     ................
   14244:	8ffd 92c7 9000 91de 9001 9197 9003 93a6     ................
   14254:	9005 e790 9006 8b74 900b e799 900d e796     ......t.........
   14264:	900e e7a3 900f 93a7 9010 9280 9011 e793     ................
   14274:	9013 92fc 9014 9372 9015 e794 9016 e798     ......r.........
   14284:	9017 9080 9019 9487 901a 92ca 901d 90c0     ................
   14294:	901e e797 901f 91ac 9020 91a2 9021 e795     ........ ...!...
   142a4:	9022 88a7 9023 9841 9027 e79a 902e 91df     "...#.A.'.......
   142b4:	9031 8f54 9032 9069 9035 e79c 9036 e79b     1.T.2.i.5...6...
   142c4:	9038 88ed 9039 e79d 903c 954e 903e e7a5     8...9...<.N.>...
   142d4:	9041 93d9 9042 908b 9045 9278 9047 8bf6     A...B...E.x.G...
   142e4:	9049 e7a4 904a 9756 904b 895e 904d 95d5     I...J.V.K.^.M...
   142f4:	904e 89df 904f e79f 9050 e7a0 9051 e7a1     N...O...P...Q...
   14304:	9052 e7a2 9053 93b9 9054 9242 9055 88e1     R...S...T.B.U...
   14314:	9056 e7a6 9058 e7a7 9059 eaa1 905c 91bb     V...X...Y...\...
   14324:	905e e7a8 9060 8993 9061 916b 9063 8cad     ^...`...a.k.c...
   14334:	9065 9779 9067 fbb5 9068 e7a9 9069 934b     e.y.g...h...i.K.
   14344:	906d 9198 906e 8ed5 906f e7aa 9072 e7ad     m...n...o...r...
   14354:	9075 8f85 9076 e7ab 9077 914a 9078 9149     u...v...w.J.x.I.
   14364:	907a 88e2 907c 97c9 907d e7af 907f 94f0     z...|...}.......
   14374:	9080 e7b1 9081 e7b0 9082 e7ae 9083 e284     ................
   14384:	9084 8ad2 9087 e78e 9089 e7b3 908a e7b2     ................
   14394:	908f e7b4 9091 9757 90a3 93df 90a6 964d     ......W.......M.
   143a4:	90a8 e7b5 90aa 8ed7 90af e7b6 90b1 e7b7     ................
   143b4:	90b5 e7b8 90b8 9340 90c1 88e8 90ca 8d78     ......@.......x.
   143c4:	90ce 9859 90db e7bc 90de fbb6 90e1 8c53     ..Y...........S.
   143d4:	90e2 e7b9 90e4 e7ba 90e8 9594 90ed 8a73     ..............s.
   143e4:	90f5 9758 90f7 8bbd 90fd 9373 9102 e7bd     ..X.......s.....
   143f4:	9112 e7be 9115 fbb8 9119 e7bf 9127 fbb9     ............'...
   14404:	912d 9341 9130 e7c1 9132 e7c0 9149 93d1     -.A.0...2...I...
   14414:	914a e7c2 914b 8f55 914c 8ede 914d 947a     J...K.U.L...M.z.
   14424:	914e 9291 9152 8ef0 9154 908c 9156 e7c3     N...R...T...V...
   14434:	9158 e7c4 9162 907c 9163 e7c5 9165 e7c6     X...b.|.c...e...
   14444:	9169 e7c7 916a 978f 916c 8f56 9172 e7c9     i...j...l.V.r...
   14454:	9173 e7c8 9175 8d79 9177 8d93 9178 8e5f     s...u.y.w...x._.
   14464:	9182 e7cc 9187 8f86 9189 e7cb 918b e7ca     ................
   14474:	918d 91e7 9190 8ced 9192 90c1 9197 94ae     ................
   14484:	919c 8f58 91a2 e7cd 91a4 8fdd 91aa e7d0     ..X.............
   14494:	91ab e7ce 91af e7cf 91b4 e7d2 91b5 e7d1     ................
   144a4:	91b8 8ff8 91ba e7d3 91c0 e7d4 91c1 e7d5     ................
   144b4:	91c6 94ce 91c7 8dd1 91c8 8edf 91c9 e7d6     ................
   144c4:	91cb e7d7 91cc 97a2 91cd 8f64 91ce 96ec     ..........d.....
   144d4:	91cf 97ca 91d0 e7d8 91d1 8be0 91d6 e7d9     ................
   144e4:	91d7 fbbb 91d8 9342 91da fbba 91db e7dc     ......B.........
   144f4:	91dc 8a98 91dd 906a 91de fbbc 91df e7da     ......j.........
   14504:	91e1 e7db 91e3 92de 91e4 fbbf 91e5 fbc0     ................
   14514:	91e6 9674 91e7 8bfa 91ed fbbd 91ee fbbe     ..t.............
   14524:	91f5 e7de 91f6 e7df 91fc e7dd 91ff e7e1     ................
   14534:	9206 fbc1 920a fbc3 920d 93dd 920e 8a62     ..............b.
   14544:	9210 fbc2 9211 e7e5 9214 e7e2 9215 e7e4     ................
   14554:	921e e7e0 9229 e86e 922c e7e3 9234 97e9     ....).n.,...4...
   14564:	9237 8cd8 9239 fbca 923a fbc4 923c fbc6     7...9...:...<...
   14574:	923f e7ed 9240 fbc5 9244 9353 9245 e7e8     ?...@...D.S.E...
   14584:	9248 e7eb 9249 e7e9 924b e7ee 924e fbc7     H...I...K...N...
   14594:	9250 e7ef 9251 fbc9 9257 e7e7 9259 fbc8     P...Q...W...Y...
   145a4:	925a e7f4 925b 8994 925e e7e6 9262 94ab     Z...[...^...b...
   145b4:	9264 e7ea 9266 8fde 9267 fbcb 9271 8d7a     d...f...g...q.z.
   145c4:	9277 fbcd 9278 fbce 927e 9667 9280 8be2     w...x...~.g.....
   145d4:	9283 8f65 9285 93ba 9288 fa5f 9291 914c     ..e......._...L.
   145e4:	9293 e7f2 9295 e7ec 9296 e7f1 9298 96c1     ................
   145f4:	929a 92b6 929b e7f3 929c e7f0 92a7 fbcc     ................
   14604:	92ad 914b 92b7 e7f7 92b9 e7f6 92cf e7f5     ..K.............
   14614:	92d0 fbd2 92d2 964e 92d3 fbd6 92d5 fbd4     ......N.........
   14624:	92d7 fbd0 92d9 fbd1 92e0 fbd5 92e4 8f9b     ................
   14634:	92e7 fbcf 92e9 e7f8 92ea 95dd 92ed 8973     ..............s.
   14644:	92f2 9565 92f3 9292 92f8 8b98 92f9 fa65     ..e...........e.
   14654:	92fa e7fa 92fb fbd9 92fc 8d7c 92ff fbdc     ..........|.....
   14664:	9302 fbde 9306 8e4b 930f e7f9 9310 908d     ......K.........
   14674:	9318 908e 9319 e840 931a e842 931d fbdd     ......@...B.....
   14684:	931e fbdb 9320 8ff9 9321 fbd8 9322 e841     .... ...!...".A.
   14694:	9323 e843 9325 fbd7 9326 8bd1 9328 9564     #.C.%...&...(.d.
   146a4:	932b 8ee0 932c 9842 932e e7fc 932f 8df6     +...,.B...../...
   146b4:	9332 985e 9335 e845 933a e844 933b e846     2.^.5.E.:.D.;.F.
   146c4:	9344 e7fb 9348 fa5e 934b 93e7 934d 9374     D...H.^.K...M.t.
   146d4:	9354 92d5 9356 e84b 9357 fbe0 935b 9262     T...V.K.W...[.b.
   146e4:	935c e847 9360 e848 936c 8c4c 936e e84a     \.G.`.H.l.L.n.J.
   146f4:	9370 fbdf 9375 8cae 937c e849 937e 8fdf     p...u...|.I.~...
   14704:	938c 8a99 9394 e84f 9396 8dbd 9397 9199     ......O.........
   14714:	939a 92c8 93a4 fbe1 93a7 8a5a 93ac e84d     ..........Z...M.
   14724:	93ad e84e 93ae 92c1 93b0 e84c 93b9 e850     ..N.......L...P.
   14734:	93c3 e856 93c6 fbe2 93c8 e859 93d0 e858     ..V.......Y...X.
   14744:	93d1 934c 93d6 e851 93d7 e852 93d8 e855     ..L...Q...R...U.
   14754:	93dd e857 93de fbe3 93e1 8bbe 93e4 e85a     ..W...........Z.
   14764:	93e5 e854 93e8 e853 93f8 fbe4 9403 e85e     ..T...S.......^.
   14774:	9407 e85f 9410 e860 9413 e85d 9414 e85c     .._...`...]...\.
   14784:	9418 8fe0 9419 93a8 941a e85b 9421 e864     ..........[.!.d.
   14794:	942b e862 9431 fbe5 9435 e863 9436 e861     +.b.1...5.c.6.a.
   147a4:	9438 91f6 943a e865 9441 e866 9444 e868     8...:.e.A.f.D.h.
   147b4:	9445 fbe6 9448 fbe7 9451 8ad3 9452 e867     E...H...Q...R.g.
   147c4:	9453 96f8 945a e873 945b e869 945e e86c     S...Z.s.[.i.^.l.
   147d4:	9460 e86a 9462 e86b 946a e86d 9470 e86f     `.j.b.k.j.m.p.o.
   147e4:	9475 e870 9477 e871 947c e874 947d e872     u.p.w.q.|.t.}.r.
   147f4:	947e e875 947f e877 9481 e876 9577 92b7     ~.u...w...v.w...
   14804:	9580 96e5 9582 e878 9583 914d 9587 e879     ......x...M...y.
   14814:	9589 95c2 958a e87a 958b 8a4a 958f 895b     ......z...J...[.
   14824:	9591 8ad5 9592 fbe8 9593 8ad4 9594 e87b     ..............{.
   14834:	9596 e87c 9598 e87d 9599 e87e 95a0 e880     ..|...}...~.....
   14844:	95a2 8ad6 95a3 8a74 95a4 8d7d 95a5 94b4     ......t...}.....
   14854:	95a7 e882 95a8 e881 95ad e883 95b2 897b     ..............{.
   14864:	95b9 e886 95bb e885 95bc e884 95be e887     ................
   14874:	95c3 e88a 95c7 88c5 95ca e888 95cc e88c     ................
   14884:	95cd e88b 95d4 e88e 95d5 e88d 95d6 e88f     ................
   14894:	95d8 93ac 95dc e890 95e1 e891 95e2 e893     ................
   148a4:	95e5 e892 961c 958c 9621 e894 9628 e895     ........!...(...
   148b4:	962a 8de3 962e e896 962f e897 9632 9668     *......./...2.h.
   148c4:	963b 916a 963f 88a2 9640 91c9 9642 e898     ;.j.?...@...B...
   148d4:	9644 958d 964b e89b 964c e899 964d 8d7e     D...K...L...M.~.
   148e4:	964f e89a 9650 8cc0 965b 95c3 965c e89d     O...P...[...\...
   148f4:	965d e89f 965e e89e 965f e8a0 9662 8940     ]...^..._...b.@.
   14904:	9663 9077 9664 8f9c 9665 8ad7 9666 e8a1     c.w.d...e...f...
   14914:	966a 9486 966c e8a3 9670 8941 9672 e8a2     j...l...p.A.r...
   14924:	9673 92c2 9675 97cb 9676 93a9 9677 e89c     s...u...v...w...
   14934:	9678 97a4 967a 8caf 967d 977a 9685 8bf7     x...z...}.z.....
   14944:	9686 97b2 9688 8c47 968a 91e0 968b e440     ......G.......@.
   14954:	968d e8a4 968e 8a4b 968f 908f 9694 8a75     ......K.......u.
   14964:	9695 e8a6 9697 e8a7 9698 e8a5 9699 8c84     ................
   14974:	969b 8ddb 969c 8fe1 969d fbeb 96a0 8942     ..............B.
   14984:	96a3 97d7 96a7 e8a9 96a8 e7ac 96aa e8a8     ................
   14994:	96af fbec 96b0 e8ac 96b1 e8aa 96b2 e8ab     ................
   149a4:	96b4 e8ad 96b6 e8ae 96b7 97ea 96b8 e8af     ................
   149b4:	96b9 e8b0 96bb 90c7 96bc 94b9 96c0 909d     ................
   149c4:	96c1 8ae5 96c4 9759 96c5 89eb 96c6 8f57     ......Y.......W.
   149d4:	96c7 8cd9 96c9 e8b3 96cb e8b2 96cc 8e93     ................
   149e4:	96cd e8b4 96ce e8b1 96d1 8e47 96d5 e8b8     ..........G.....
   149f4:	96d6 e5ab 96d9 99d4 96db 9097 96dc e8b6     ................
   14a04:	96e2 97a3 96e3 93ef 96e8 894a 96ea 90e1     ..........J.....
   14a14:	96eb 8eb4 96f0 95b5 96f2 895f 96f6 97eb     .........._.....
   14a24:	96f7 978b 96f9 e8b9 96fb 9364 9700 8ef9     ..........d.....
   14a34:	9704 e8ba 9706 e8bb 9707 906b 9708 e8bc     ..........k.....
   14a44:	970a 97ec 970d e8b7 970e e8be 970f e8c0     ................
   14a54:	9711 e8bf 9713 e8bd 9716 e8c1 9719 e8c2     ................
   14a64:	971c 919a 971e 89e0 9724 e8c3 9727 96b6     ........$...'...
   14a74:	972a e8c4 9730 e8c5 9732 9849 9733 fbed     *...0...2.I.3...
   14a84:	9738 9e50 9739 e8c6 973b fbee 973d e8c7     8.P.9...;...=...
   14a94:	973e e8c8 9742 e8cc 9743 fbef 9744 e8c9     >...B...C...D...
   14aa4:	9746 e8ca 9748 e8cb 9749 e8cd 974d fbf0     F...H...I...M...
   14ab4:	974f fbf1 9751 fbf2 9752 90c2 9755 fbf3     O...Q...R...U...
   14ac4:	9756 96f5 9759 90c3 975c e8ce 975e 94f1     V...Y...\...^...
   14ad4:	9760 e8cf 9761 ea72 9762 96ca 9764 e8d0     `...a.r.b...d...
   14ae4:	9766 e8d1 9768 e8d2 9769 8a76 976b e8d4     f...h...i.v.k...
   14af4:	976d 9078 9771 e8d5 9774 8c43 9779 e8d6     m.x.q...t.C.y...
   14b04:	977a e8da 977c e8d8 9781 e8d9 9784 8a93     z...|...........
   14b14:	9785 e8d7 9786 e8db 978b e8dc 978d 88c6     ................
   14b24:	978f e8dd 9790 e8de 9798 8fe2 979c e8df     ................
   14b34:	97a0 8b66 97a3 e8e2 97a6 e8e1 97a8 e8e0     ..f.............
   14b44:	97ab e691 97ad 95da 97b3 e8e3 97b4 e8e4     ................
   14b54:	97c3 e8e5 97c6 e8e6 97c8 e8e7 97cb e8e8     ................
   14b64:	97d3 8ad8 97dc e8e9 97ed e8ea 97ee 9442     ..............B.
   14b74:	97f2 e8ec 97f3 89b9 97f5 e8ef 97f6 e8ee     ................
   14b84:	97fb 8943 97ff 8bbf 9801 95c5 9802 92b8     ..C.............
   14b94:	9803 8da0 9805 8d80 9806 8f87 9808 907b     ..............{.
   14ba4:	980c e8f1 980f e8f0 9810 9761 9811 8ae6     ..........a.....
   14bb4:	9812 94d0 9813 93da 9817 909c 9818 97cc     ................
   14bc4:	981a 8c7a 9821 e8f4 9824 e8f3 982c 966a     ..z.!...$...,.j.
   14bd4:	982d 93aa 9834 896f 9837 e8f5 9838 e8f2     -...4.o.7...8...
   14be4:	983b 9570 983c 978a 983d e8f6 9846 e8f7     ;.p.<...=...F...
   14bf4:	984b e8f9 984c 91e8 984d 8a7a 984e 8a7b     K...L...M.z.N.{.
   14c04:	984f e8f8 9854 8ae7 9855 8cb0 9857 fbf4     O...T...U...W...
   14c14:	9858 8ae8 985b 935e 985e 97de 9865 fbf5     X...[.^.^...e...
   14c24:	9867 8cda 986b e8fa 986f e8fb 9870 e8fc     g...k...o...p...
   14c34:	9871 e940 9873 e942 9874 e941 98a8 9597     q.@.s.B.t.A.....
   14c44:	98aa e943 98af e944 98b1 e945 98b6 e946     ..C...D...E...F.
   14c54:	98c3 e948 98c4 e947 98c6 e949 98db 94f2     ..H...G...I.....
   14c64:	98dc e3ca 98df 9048 98e2 8b51 98e9 e94a     ......H...Q...J.
   14c74:	98eb e94b 98ed 99aa 98ee 9f5a 98ef 94d1     ..K.......Z.....
   14c84:	98f2 88f9 98f4 88b9 98fc 8e94 98fd 964f     ..............O.
   14c94:	98fe 8ffc 9903 e94c 9905 96dd 9909 e94d     ......L.......M.
   14ca4:	990a 977b 990c 8961 9910 8e60 9912 e94e     ..{...a...`...N.
   14cb4:	9913 89ec 9914 e94f 9918 e950 991d e952     ......O...P...R.
   14cc4:	991e e953 9920 e955 9921 e951 9924 e954     ..S. .U.!.Q.$.T.
   14cd4:	9927 fbf8 9928 8ad9 992c e956 992e e957     '...(...,.V...W.
   14ce4:	993d e958 993e e959 9942 e95a 9945 e95c     =.X.>.Y.B.Z.E.\.
   14cf4:	9949 e95b 994b e95e 994c e961 9950 e95d     I.[.K.^.L.a.P.].
   14d04:	9951 e95f 9952 e960 9955 e962 9957 8bc0     Q._.R.`.U.b.W...
   14d14:	9996 8ef1 9997 e963 9998 e964 9999 8d81     ......c...d.....
   14d24:	999e fbfa 99a5 e965 99a8 8a5d 99ac 946e     ......e...]...n.
   14d34:	99ad e966 99ae e967 99b3 9279 99b4 93e9     ..f...g...y.....
   14d44:	99bc e968 99c1 949d 99c4 91ca 99c5 8977     ..h...........w.
   14d54:	99c6 8bec 99c8 8bed 99d0 9293 99d1 e96d     ..............m.
   14d64:	99d2 8bee 99d5 89ed 99d8 e96c 99db e96a     ..........l...j.
   14d74:	99dd e96b 99df e969 99e2 e977 99ed e96e     ..k...i...w...n.
   14d84:	99ee e96f 99f1 e970 99f2 e971 99f8 e973     ..o...p...q...s.
   14d94:	99fb e972 99ff 8f78 9a01 e974 9a05 e976     ..r...x...t...v.
   14da4:	9a0e 8b52 9a0f e975 9a12 919b 9a13 8cb1     ..R...u.........
   14db4:	9a19 e978 9a28 91cb 9a2b e979 9a30 93ab     ..x.(...+.y.0...
   14dc4:	9a37 e97a 9a3e e980 9a40 e97d 9a42 e97c     7.z.>...@.}.B.|.
   14dd4:	9a43 e97e 9a45 e97b 9a4d e982 9a4e fbfb     C.~.E.{.M...N...
   14de4:	9a55 e981 9a57 e984 9a5a 8bc1 9a5b e983     U...W...Z...[...
   14df4:	9a5f e985 9a62 e986 9a64 e988 9a65 e987     _...b...d...e...
   14e04:	9a69 e989 9a6a e98b 9a6b e98a 9aa8 8d9c     i...j...k.......
   14e14:	9aad e98c 9ab0 e98d 9ab8 8a5b 9abc e98e     ..........[.....
   14e24:	9ac0 e98f 9ac4 9091 9acf e990 9ad1 e991     ................
   14e34:	9ad3 e992 9ad4 e993 9ad8 8d82 9ad9 fbfc     ................
   14e44:	9adc fc40 9ade e994 9adf e995 9ae2 e996     ..@.............
   14e54:	9ae3 e997 9ae6 e998 9aea 94af 9aeb e99a     ................
   14e64:	9aed 9545 9aee e99b 9aef e999 9af1 e99d     ..E.............
   14e74:	9af4 e99c 9af7 e99e 9afb e99f 9b06 e9a0     ................
   14e84:	9b18 e9a1 9b1a e9a2 9b1f e9a3 9b22 e9a4     ............"...
   14e94:	9b23 e9a5 9b25 e9a6 9b27 e9a7 9b28 e9a8     #...%...'...(...
   14ea4:	9b29 e9a9 9b2a e9aa 9b2e e9ab 9b2f e9ac     )...*......./...
   14eb4:	9b31 9f54 9b32 e9ad 9b3b e2f6 9b3c 8b53     1.T.2...;...<.S.
   14ec4:	9b41 8a40 9b42 8db0 9b43 e9af 9b44 e9ae     A.@.B...C...D...
   14ed4:	9b45 96a3 9b4d e9b1 9b4e e9b2 9b4f e9b0     E...M...N...O...
   14ee4:	9b51 e9b3 9b54 9682 9b58 e9b4 9b5a 8b9b     Q...T...X...Z...
   14ef4:	9b6f 9844 9b72 fc42 9b74 e9b5 9b75 fc41     o.D.r.B.t...u.A.
   14f04:	9b83 e9b7 9b8e 88bc 9b8f fc43 9b91 e9b8     ..........C.....
   14f14:	9b92 95a9 9b93 e9b6 9b96 e9b9 9b97 e9ba     ................
   14f24:	9b9f e9bb 9ba0 e9bc 9ba8 e9bd 9baa 968e     ................
   14f34:	9bab 8e4c 9bad 8df8 9bae 914e 9bb1 fc44     ..L.......N...D.
   14f44:	9bb4 e9be 9bb9 e9c1 9bbb fc45 9bc0 e9bf     ..........E.....
   14f54:	9bc6 e9c2 9bc9 8cef 9bca e9c0 9bcf e9c3     ................
   14f64:	9bd1 e9c4 9bd2 e9c5 9bd4 e9c9 9bd6 8e49     ..............I.
   14f74:	9bdb 91e2 9be1 e9ca 9be2 e9c7 9be3 e9c6     ................
   14f84:	9be4 e9c8 9be8 8c7e 9bf0 e9ce 9bf1 e9cd     ......~.........
   14f94:	9bf2 e9cc 9bf5 88b1 9c00 fc46 9c04 e9d8     ..........F.....
   14fa4:	9c06 e9d4 9c08 e9d5 9c09 e9d1 9c0a e9d7     ................
   14fb4:	9c0c e9d3 9c0d 8a82 9c10 986b 9c12 e9d6     ..........k.....
   14fc4:	9c13 e9d2 9c14 e9d0 9c15 e9cf 9c1b e9da     ................
   14fd4:	9c21 e9dd 9c24 e9dc 9c25 e9db 9c2d 9568     !...$...%...-.h.
   14fe4:	9c2e e9d9 9c2f 88f1 9c30 e9de 9c32 e9e0     ..../...0...2...
   14ff4:	9c39 8a8f 9c3a e9cb 9c3b 8956 9c3e e9e2     9...:...;.V.>...
   15004:	9c46 e9e1 9c47 e9df 9c48 924c 9c52 9690     F...G...H.L.R...
   15014:	9c57 97d8 9c5a e9e3 9c60 e9e4 9c67 e9e5     W...Z...`...g...
   15024:	9c76 e9e6 9c78 e9e7 9ce5 92b9 9ce7 e9e8     v...x...........
   15034:	9ce9 94b5 9ceb e9ed 9cec e9e9 9cf0 e9ea     ................
   15044:	9cf3 9650 9cf4 96c2 9cf6 93ce 9d03 e9ee     ..P.............
   15054:	9d06 e9ef 9d07 93bc 9d08 e9ec 9d09 e9eb     ................
   15064:	9d0e 89a8 9d12 e9f7 9d15 e9f6 9d1b 8995     ................
   15074:	9d1f e9f4 9d23 e9f3 9d26 e9f1 9d28 8a9b     ....#...&...(...
   15084:	9d2a e9f0 9d2b 8eb0 9d2c 89a7 9d3b 8d83     *...+...,...;...
   15094:	9d3e e9fa 9d3f e9f9 9d41 e9f8 9d44 e9f5     >...?...A...D...
   150a4:	9d46 e9fb 9d48 e9fc 9d50 ea44 9d51 ea43     F...H...P.D.Q.C.
   150b4:	9d59 ea45 9d5c 894c 9d5d ea40 9d5e ea41     Y.E.\.L.].@.^.A.
   150c4:	9d60 8d94 9d61 96b7 9d64 ea42 9d6b fc48     `...a...d.B.k.H.
   150d4:	9d6c 9651 9d6f ea4a 9d70 fc47 9d72 ea46     l.Q.o.J.p.G.r.F.
   150e4:	9d7a ea4b 9d87 ea48 9d89 ea47 9d8f 8c7b     z.K...H...G...{.
   150f4:	9d9a ea4c 9da4 ea4d 9da9 ea4e 9dab ea49     ..L...M...N...I.
   15104:	9daf e9f2 9db2 ea4f 9db4 92df 9db8 ea53     ......O.......S.
   15114:	9dba ea54 9dbb ea52 9dc1 ea51 9dc2 ea57     ..T...R...Q...W.
   15124:	9dc4 ea50 9dc6 ea55 9dcf ea56 9dd3 ea59     ..P...U...V...Y.
   15134:	9dd9 ea58 9de6 ea5b 9ded ea5c 9def ea5d     ..X...[...\...].
   15144:	9df2 9868 9df8 ea5a 9df9 91e9 9dfa 8deb     ..h...Z.........
   15154:	9dfd ea5e 9e19 fc4a 9e1a ea5f 9e1b ea60     ..^...J..._...`.
   15164:	9e1e ea61 9e75 ea62 9e78 8cb2 9e79 ea63     ..a.u.b.x...y.c.
   15174:	9e7d ea64 9e7f 8ead 9e81 ea65 9e88 ea66     }.d.......e...f.
   15184:	9e8b ea67 9e8c ea68 9e91 ea6b 9e92 ea69     ..g...h...k...i.
   15194:	9e93 985b 9e95 ea6a 9e97 97ed 9e9d ea6c     ..[...j.......l.
   151a4:	9e9f 97d9 9ea5 ea6d 9ea6 949e 9ea9 ea6e     ......m.......n.
   151b4:	9eaa ea70 9ead ea71 9eb8 ea6f 9eb9 8d8d     ..p...q...o.....
   151c4:	9eba 96cb 9ebb 9683 9ebc 9bf5 9ebe 9f80     ................
   151d4:	9ebf 969b 9ec4 89a9 9ecc ea73 9ecd 8b6f     ..........s...o.
   151e4:	9ece ea74 9ecf ea75 9ed0 ea76 9ed1 fc4b     ..t...u...v...K.
   151f4:	9ed2 8d95 9ed4 ea77 9ed8 e0d2 9ed9 96d9     ......w.........
   15204:	9edb 91e1 9edc ea78 9edd ea7a 9ede ea79     ......x...z...y.
   15214:	9ee0 ea7b 9ee5 ea7c 9ee8 ea7d 9eef ea7e     ..{...|...}...~.
   15224:	9ef4 ea80 9ef6 ea81 9ef7 ea82 9ef9 ea83     ................
   15234:	9efb ea84 9efc ea85 9efd ea86 9f07 ea87     ................
   15244:	9f08 ea88 9f0e 9343 9f13 8cdb 9f15 ea8a     ......C.........
   15254:	9f20 916c 9f21 ea8b 9f2c ea8c 9f3b 9540      .l.!...,...;.@.
   15264:	9f3e ea8d 9f4a ea8e 9f4b e256 9f4e e6d8     >...J...K.V.N...
   15274:	9f4f e8eb 9f52 ea8f 9f54 ea90 9f5f ea92     O...R...T..._...
   15284:	9f60 ea93 9f61 ea94 9f62 97ee 9f63 ea91     `...a...b...c...
   15294:	9f66 ea95 9f67 ea96 9f6a ea98 9f6c ea97     f...g...j...l...
   152a4:	9f72 ea9a 9f76 ea9b 9f77 ea99 9f8d 97b4     r...v...w.......
   152b4:	9f95 ea9c 9f9c ea9d 9f9d e273 9fa0 ea9e     ..........s.....
   152c4:	f929 fae0 f9dc fbe9 fa0e fa90 fa0f fa9b     )...............
   152d4:	fa10 fa9c fa11 fab1 fa12 fad8 fa13 fae8     ................
   152e4:	fa14 faea fa15 fb58 fa16 fb5e fa17 fb75     ......X...^...u.
   152f4:	fa18 fb7d fa19 fb7e fa1a fb80 fa1b fb82     ..}...~.........
   15304:	fa1c fb86 fa1d fb89 fa1e fb92 fa1f fb9d     ................
   15314:	fa20 fb9f fa21 fba0 fa22 fba9 fa23 fbb1      ...!..."...#...
   15324:	fa24 fbb3 fa25 fbb4 fa26 fbb7 fa27 fbd3     $...%...&...'...
   15334:	fa28 fbda fa29 fbea fa2a fbf6 fa2b fbf7     (...)...*...+...
   15344:	fa2c fbf9 fa2d fc49 ff01 8149 ff02 fa57     ,...-.I...I...W.
   15354:	ff03 8194 ff04 8190 ff05 8193 ff06 8195     ................
   15364:	ff07 fa56 ff08 8169 ff09 816a ff0a 8196     ..V...i...j.....
   15374:	ff0b 817b ff0c 8143 ff0d 817c ff0e 8144     ..{...C...|...D.
   15384:	ff0f 815e ff10 824f ff11 8250 ff12 8251     ..^...O...P...Q.
   15394:	ff13 8252 ff14 8253 ff15 8254 ff16 8255     ..R...S...T...U.
   153a4:	ff17 8256 ff18 8257 ff19 8258 ff1a 8146     ..V...W...X...F.
   153b4:	ff1b 8147 ff1c 8183 ff1d 8181 ff1e 8184     ..G.............
   153c4:	ff1f 8148 ff20 8197 ff21 8260 ff22 8261     ..H. ...!.`.".a.
   153d4:	ff23 8262 ff24 8263 ff25 8264 ff26 8265     #.b.$.c.%.d.&.e.
   153e4:	ff27 8266 ff28 8267 ff29 8268 ff2a 8269     '.f.(.g.).h.*.i.
   153f4:	ff2b 826a ff2c 826b ff2d 826c ff2e 826d     +.j.,.k.-.l...m.
   15404:	ff2f 826e ff30 826f ff31 8270 ff32 8271     /.n.0.o.1.p.2.q.
   15414:	ff33 8272 ff34 8273 ff35 8274 ff36 8275     3.r.4.s.5.t.6.u.
   15424:	ff37 8276 ff38 8277 ff39 8278 ff3a 8279     7.v.8.w.9.x.:.y.
   15434:	ff3b 816d ff3c 815f ff3d 816e ff3e 814f     ;.m.<._.=.n.>.O.
   15444:	ff3f 8151 ff40 814d ff41 8281 ff42 8282     ?.Q.@.M.A...B...
   15454:	ff43 8283 ff44 8284 ff45 8285 ff46 8286     C...D...E...F...
   15464:	ff47 8287 ff48 8288 ff49 8289 ff4a 828a     G...H...I...J...
   15474:	ff4b 828b ff4c 828c ff4d 828d ff4e 828e     K...L...M...N...
   15484:	ff4f 828f ff50 8290 ff51 8291 ff52 8292     O...P...Q...R...
   15494:	ff53 8293 ff54 8294 ff55 8295 ff56 8296     S...T...U...V...
   154a4:	ff57 8297 ff58 8298 ff59 8299 ff5a 829a     W...X...Y...Z...
   154b4:	ff5b 816f ff5c 8162 ff5d 8170 ff5e 8160     [.o.\.b.].p.^.`.
   154c4:	ff61 00a1 ff62 00a2 ff63 00a3 ff64 00a4     a...b...c...d...
   154d4:	ff65 00a5 ff66 00a6 ff67 00a7 ff68 00a8     e...f...g...h...
   154e4:	ff69 00a9 ff6a 00aa ff6b 00ab ff6c 00ac     i...j...k...l...
   154f4:	ff6d 00ad ff6e 00ae ff6f 00af ff70 00b0     m...n...o...p...
   15504:	ff71 00b1 ff72 00b2 ff73 00b3 ff74 00b4     q...r...s...t...
   15514:	ff75 00b5 ff76 00b6 ff77 00b7 ff78 00b8     u...v...w...x...
   15524:	ff79 00b9 ff7a 00ba ff7b 00bb ff7c 00bc     y...z...{...|...
   15534:	ff7d 00bd ff7e 00be ff7f 00bf ff80 00c0     }...~...........
   15544:	ff81 00c1 ff82 00c2 ff83 00c3 ff84 00c4     ................
   15554:	ff85 00c5 ff86 00c6 ff87 00c7 ff88 00c8     ................
   15564:	ff89 00c9 ff8a 00ca ff8b 00cb ff8c 00cc     ................
   15574:	ff8d 00cd ff8e 00ce ff8f 00cf ff90 00d0     ................
   15584:	ff91 00d1 ff92 00d2 ff93 00d3 ff94 00d4     ................
   15594:	ff95 00d5 ff96 00d6 ff97 00d7 ff98 00d8     ................
   155a4:	ff99 00d9 ff9a 00da ff9b 00db ff9c 00dc     ................
   155b4:	ff9d 00dd ff9e 00de ff9f 00df ffe0 8191     ................
   155c4:	ffe1 8192 ffe2 81ca ffe3 8150 ffe4 fa55     ..........P...U.
   155d4:	ffe5 818f 0000 0000                         ........

000155dc <CSWTCH.4>:
   155dc:	1810 0000 0000 0000 0000 0000 0000 0000     ................
   155ec:	0008 0000 3249 5f43 5645 4e45 5f54 414d     ....I2C_EVENT_MA
   155fc:	5453 5245 4d5f 444f 5f45 4553 454c 5443     STER_MODE_SELECT
   1560c:	4520 5252 524f 000d 3249 5f43 5645 4e45      ERROR..I2C_EVEN
   1561c:	5f54 414d 5453 5245 545f 4152 534e 494d     T_MASTER_TRANSMI
   1562c:	5454 5245 4d5f 444f 5f45 4553 454c 5443     TTER_MODE_SELECT
   1563c:	4445 4520 5252 524f 000d 0000 3249 5f43     ED ERROR....I2C_
   1564c:	5645 4e45 5f54 414d 5453 5245 425f 5459     EVENT_MASTER_BYT
   1565c:	5f45 5254 4e41 4d53 5449 4554 2044 5245     E_TRANSMITTED ER
   1566c:	4f52 0d52 0000 0000 d0c5 cfb6 c7ca 6177     ROR...........wa
   1567c:	ce76 bcc4 0dfe 0000 6843 6e75 496b bd44     v.......ChunkID.
   1568c:	cee2 b3f6 b9c9 0da6 0000 0000 6177 7876     ............wavx
   1569c:	3e2d 7561 6964 666f 726f 616d 3a74 6425     ->audioformat:%d
   156ac:	0a0d 0000 6177 7876 3e2d 636e 6168 6e6e     ....wavx->nchann
   156bc:	6c65 3a73 6425 0a0d 0000 0000 6177 7876     els:%d......wavx
   156cc:	3e2d 6173 706d 656c 6172 6574 253a 0d64     ->samplerate:%d.
   156dc:	000a 0000 6177 7876 3e2d 6962 7274 7461     ....wavx->bitrat
   156ec:	3a65 6425 0a0d 0000 6177 7876 3e2d 6c62     e:%d....wavx->bl
   156fc:	636f 616b 696c 6e67 253a 0d64 000a 0000     ockalign:%d.....
   1570c:	6177 7876 3e2d 7062 3a73 6425 0a0d 0000     wavx->bps:%d....
   1571c:	6177 7876 3e2d 6164 6174 6973 657a 253a     wavx->datasize:%
   1572c:	0d64 000a 6177 7876 3e2d 6164 6174 7473     d...wavx->datast
   1573c:	7261 3a74 6425 0a0d 0000 0000 e2bd f6ce     art:%d..........
   1574c:	c4ce febc c9b3 a6b9 000d 0000 f2b4 aabf     ................
   1575c:	c4ce febc c9b3 a6b9 000d 0000 aabf bcca     ................
   1576c:	a5b2 c5b7 000d 0000 a5b2 c5b7 e1bd f8ca     ................
   1577c:	000d 0000 eed7 f3ba bbd2 f6b8 fdca baa3     ................
   1578c:	3025 7834 0a0d 0000                         %04x....

00015794 <__clz_tab>:
   15794:	0100 0202 0303 0303 0404 0404 0404 0404     ................
   157a4:	0505 0505 0505 0505 0505 0505 0505 0505     ................
   157b4:	0606 0606 0606 0606 0606 0606 0606 0606     ................
   157c4:	0606 0606 0606 0606 0606 0606 0606 0606     ................
   157d4:	0707 0707 0707 0707 0707 0707 0707 0707     ................
   157e4:	0707 0707 0707 0707 0707 0707 0707 0707     ................
   157f4:	0707 0707 0707 0707 0707 0707 0707 0707     ................
   15804:	0707 0707 0707 0707 0707 0707 0707 0707     ................
   15814:	0808 0808 0808 0808 0808 0808 0808 0808     ................
   15824:	0808 0808 0808 0808 0808 0808 0808 0808     ................
   15834:	0808 0808 0808 0808 0808 0808 0808 0808     ................
   15844:	0808 0808 0808 0808 0808 0808 0808 0808     ................
   15854:	0808 0808 0808 0808 0808 0808 0808 0808     ................
   15864:	0808 0808 0808 0808 0808 0808 0808 0808     ................
   15874:	0808 0808 0808 0808 0808 0808 0808 0808     ................
   15884:	0808 0808 0808 0808 0808 0808 0808 0808     ................

00015894 <__sf_fake_stderr>:
	...

000158b4 <__sf_fake_stdin>:
	...

000158d4 <__sf_fake_stdout>:
	...
   158f4:	2d23 2b30 0020 0000 6c68 004c 6665 4567     #-0+ ...hlL.efgE
   15904:	4746 0000 3130 3332 3534 3736 3938 4241     FG..0123456789AB
   15914:	4443 4645 0000 0000 3130 3332 3534 3736     CDEF....01234567
   15924:	3938 6261 6463 6665 0000 0000               89abcdef....
