
WCH-CH32V307VCT6-ES8388-FatFs.elf:     file format elf32-littleriscv
WCH-CH32V307VCT6-ES8388-FatFs.elf
architecture: riscv:rv32, flags 0x00000112:
EXEC_P, HAS_SYMS, D_PAGED
start address 0x00000000

Program Header:
    LOAD off    0x00001000 vaddr 0x00000000 paddr 0x00000000 align 2**12
         filesz 0x00005b68 memsz 0x00005b68 flags r-x
    LOAD off    0x00007000 vaddr 0x20000000 paddr 0x00005b68 align 2**12
         filesz 0x000000a0 memsz 0x000009f4 flags rw-
    LOAD off    0x00007800 vaddr 0x20007800 paddr 0x20007800 align 2**12
         filesz 0x00000000 memsz 0x00000800 flags rw-

Sections:
Idx Name          Size      VMA       LMA       File off  Algn
  0 .init         00000004  00000000  00000000  00001000  2**1
                  CONTENTS, ALLOC, LOAD, READONLY, CODE
  1 .vector       000001bc  00000004  00000004  00001004  2**1
                  CONTENTS, ALLOC, LOAD, READONLY, CODE
  2 .text         000059a8  000001c0  000001c0  000011c0  2**2
                  CONTENTS, ALLOC, LOAD, READONLY, CODE
  3 .fini         00000000  00005b68  00005b68  000070a0  2**0
                  CONTENTS, ALLOC, LOAD, CODE
  4 .dalign       00000000  20000000  20000000  000070a0  2**0
                  CONTENTS
  5 .dlalign      00000000  00005b68  00005b68  000070a0  2**0
                  CONTENTS
  6 .data         000000a0  20000000  00005b68  00007000  2**2
                  CONTENTS, ALLOC, LOAD, DATA
  7 .bss          00000954  200000a0  00005c08  000070a0  2**3
                  ALLOC
  8 .stack        00000800  20007800  20007800  00007800  2**0
                  ALLOC
  9 .debug_info   000140cd  00000000  00000000  000070a0  2**0
                  CONTENTS, READONLY, DEBUGGING
 10 .debug_abbrev 00002ceb  00000000  00000000  0001b16d  2**0
                  CONTENTS, READONLY, DEBUGGING
 11 .debug_aranges 000008b8  00000000  00000000  0001de58  2**3
                  CONTENTS, READONLY, DEBUGGING
 12 .debug_ranges 00000be8  00000000  00000000  0001e710  2**3
                  CONTENTS, READONLY, DEBUGGING
 13 .debug_line   0001429e  00000000  00000000  0001f2f8  2**0
                  CONTENTS, READONLY, DEBUGGING
 14 .debug_str    000033e3  00000000  00000000  00033596  2**0
                  CONTENTS, READONLY, DEBUGGING
 15 .comment      00000033  00000000  00000000  00036979  2**0
                  CONTENTS, READONLY
 16 .debug_frame  0000211c  00000000  00000000  000369ac  2**2
                  CONTENTS, READONLY, DEBUGGING
 17 .debug_loc    00007c31  00000000  00000000  00038ac8  2**0
                  CONTENTS, READONLY, DEBUGGING
 18 .stab         00000084  00000000  00000000  000406fc  2**2
                  CONTENTS, READONLY, DEBUGGING
 19 .stabstr      00000117  00000000  00000000  00040780  2**0
                  CONTENTS, READONLY, DEBUGGING
SYMBOL TABLE:
00000000 l    d  .init	00000000 .init
00000004 l    d  .vector	00000000 .vector
000001c0 l    d  .text	00000000 .text
00005b68 l    d  .fini	00000000 .fini
20000000 l    d  .dalign	00000000 .dalign
00005b68 l    d  .dlalign	00000000 .dlalign
20000000 l    d  .data	00000000 .data
200000a0 l    d  .bss	00000000 .bss
20007800 l    d  .stack	00000000 .stack
00000000 l    d  .debug_info	00000000 .debug_info
00000000 l    d  .debug_abbrev	00000000 .debug_abbrev
00000000 l    d  .debug_aranges	00000000 .debug_aranges
00000000 l    d  .debug_ranges	00000000 .debug_ranges
00000000 l    d  .debug_line	00000000 .debug_line
00000000 l    d  .debug_str	00000000 .debug_str
00000000 l    d  .comment	00000000 .comment
00000000 l    d  .debug_frame	00000000 .debug_frame
00000000 l    d  .debug_loc	00000000 .debug_loc
00000000 l    d  .stab	00000000 .stab
00000000 l    d  .stabstr	00000000 .stabstr
00000000 l    df *ABS*	00000000 ./Startup/startup_ch32v30x_D8C.o
00000004 l       .vector	00000000 _vector_base
00000000 l    df *ABS*	00000000 ch32v30x_it.c
00000000 l    df *ABS*	00000000 main.c
00000000 l    df *ABS*	00000000 sdio.c
20000728 l     O .bss	00000010 CID_Tab
20000738 l     O .bss	00000010 CSD_Tab
200000a8 l     O .bss	00000001 CardType
200000a9 l     O .bss	00000001 DeviceMode
200000ac l     O .bss	00000004 RCA
200000b0 l     O .bss	00000001 StopCondition
00000000 l    df *ABS*	00000000 system_ch32v30x.c
00000000 l    df *ABS*	00000000 ch32v30x_dbgmcu.c
00000000 l    df *ABS*	00000000 ch32v30x_dma.c
00000000 l    df *ABS*	00000000 ch32v30x_gpio.c
00000000 l    df *ABS*	00000000 ch32v30x_misc.c
00000000 l    df *ABS*	00000000 ch32v30x_rcc.c
20000010 l     O .data	00000010 APBAHBPrescTable
2000008c l     O .data	00000004 ADCPrescTable
00000000 l    df *ABS*	00000000 ch32v30x_sdio.c
00000000 l    df *ABS*	00000000 ch32v30x_usart.c
00000000 l    df *ABS*	00000000 diskio.c
00000000 l    df *ABS*	00000000 ff.c
00002824 l     F .text	00000016 ld_dword
0000283a l     F .text	00000014 st_dword
0000284e l     F .text	0000001a clst2sect
00002868 l     F .text	00000052 get_ldnumber
000028ba l     F .text	0000003e validate
000028f8 l     F .text	0000001e ld_clust.isra.0
00002916 l     F .text	0000001e st_clust.isra.1
00002934 l     F .text	00000046 sync_window.part.3
0000297a l     F .text	0000003e move_window
000029b8 l     F .text	000000ec check_fs
00002aa4 l     F .text	00000118 put_fat
00002bbc l     F .text	000000ca get_fat.isra.6
00002c86 l     F .text	000000f0 create_chain
00002d76 l     F .text	0000007a remove_chain
00002df0 l     F .text	000002b4 mount_volume
000030a4 l     F .text	00000074 dir_sdi.constprop.13
00003118 l     F .text	000000b4 sync_fs
000031cc l     F .text	00000060 dir_clear
0000322c l     F .text	000000bc dir_next
000032e8 l     F .text	00000214 follow_path
000034fc l     F .text	00000072 dir_register
200009e4 l     O .bss	0000000c FatFs
00005958 l     O .text	0000000e cst.6295
00005968 l     O .text	0000000e cst32.6296
00005978 l     O .text	00000010 defopt.6297
200000c0 l     O .bss	00000002 Fsid
00000000 l    df *ABS*	00000000 debug.c
200000c2 l     O .bss	00000002 p_ms
200000c4 l     O .bss	00000001 p_us
20000090 l     O .data	00000004 curbrk.5274
00000000 l    df *ABS*	00000000 libgcc2.c
00000000 l    df *ABS*	00000000 memcmp.c
00000000 l    df *ABS*	00000000 memcpy.c
00000000 l    df *ABS*	00000000 printf.c
00000000 l    df *ABS*	00000000 puts.c
00000000 l    df *ABS*	00000000 strchr.c
00000000 l    df *ABS*	00000000 wbuf.c
00000000 l    df *ABS*	00000000 wsetup.c
00000000 l    df *ABS*	00000000 fflush.c
00000000 l    df *ABS*	00000000 findfp.c
00004b28 l     F .text	00000066 std
00000000 l    df *ABS*	00000000 fwalk.c
00000000 l    df *ABS*	00000000 makebuf.c
00000000 l    df *ABS*	00000000 nano-mallocr.c
00000000 l    df *ABS*	00000000 nano-mallocr.c
00000000 l    df *ABS*	00000000 nano-vfprintf.c
00004fba l     F .text	00000028 __sfputc_r
00000000 l    df *ABS*	00000000 nano-vfprintf_i.c
00000000 l    df *ABS*	00000000 sbrkr.c
00000000 l    df *ABS*	00000000 stdio.c
00000000 l    df *ABS*	00000000 writer.c
00000000 l    df *ABS*	00000000 closer.c
00000000 l    df *ABS*	00000000 fstatr.c
00000000 l    df *ABS*	00000000 isattyr.c
00000000 l    df *ABS*	00000000 lseekr.c
00000000 l    df *ABS*	00000000 memchr.c
00000000 l    df *ABS*	00000000 mlock.c
00000000 l    df *ABS*	00000000 readr.c
00000000 l    df *ABS*	00000000 close.c
00000000 l    df *ABS*	00000000 fstat.c
00000000 l    df *ABS*	00000000 isatty.c
00000000 l    df *ABS*	00000000 lseek.c
00000000 l    df *ABS*	00000000 read.c
00000000 l    df *ABS*	00000000 libgcc2.c
00000000 l    df *ABS*	00000000 impure.c
20000020 l     O .data	00000060 impure_data
00000000 l    df *ABS*	00000000 reent.c
00002092  w      .text	00000000 EXTI2_IRQHandler
00002092  w      .text	00000000 TIM8_TRG_COM_IRQHandler
00002092  w      .text	00000000 TIM8_CC_IRQHandler
000057ae g     F .text	00000028 _isatty_r
000046e2 g     F .text	000000d4 _puts_r
000057d6 g     F .text	0000002c _lseek_r
000022cc g     F .text	00000014 DMA_Cmd
00002092  w      .text	00000000 UART8_IRQHandler
000041f8 g     F .text	000003d4 .hidden __divdi3
200007a0 g     O .bss	00000014 SDIO_CmdInitStructure
000046a2 g     F .text	00000040 printf
20000880 g       .data	00000000 __global_pointer$
000001c8 g     F .text	00000028 .hidden __riscv_save_8
00002092  w      .text	00000000 TIM1_CC_IRQHandler
000056f8 g     F .text	00000030 __sseek
00004bde g     F .text	0000006c __sinit
000047da g     F .text	000000bc __swbuf_r
000026c4 g     F .text	00000008 SDIO_ClearFlag
000002ca g     F .text	00000010 HardFault_Handler
00004b98 g     F .text	00000046 __sfmoreglue
0000581c g     F .text	00000002 __malloc_unlock
0000262a g     F .text	00000012 SDIO_SetPowerState
00000214 g     F .text	0000000c .hidden __riscv_restore_3
00002092  w      .text	00000000 TIM6_IRQHandler
00002092  w      .text	00000000 SysTick_Handler
000023ba g     F .text	0000004e NVIC_Init
00002092  w      .text	00000000 PVD_IRQHandler
00000986 g     F .text	00000006 SDIO_IRQHandler
00002092  w      .text	00000000 TIM9_BRK_IRQHandler
00000200 g     F .text	00000020 .hidden __riscv_restore_10
00002092  w      .text	00000000 DMA2_Channel8_IRQHandler
000002c8 g     F .text	00000002 NMI_Handler
00002092  w      .text	00000000 CAN2_RX1_IRQHandler
00002092  w      .text	00000000 EXTI3_IRQHandler
000001c8 g     F .text	00000028 .hidden __riscv_save_11
0000211e g     F .text	0000000a DBGMCU_GetCHIPID
00002092  w      .text	00000000 USBHS_IRQHandler
0000277a g     F .text	0000000a USART_GetFlagStatus
00002092  w      .text	00000000 DMA2_Channel9_IRQHandler
00005784 g     F .text	0000002a _fstat_r
00002092  w      .text	00000000 TIM10_CC_IRQHandler
200009f0 g     O .bss	00000004 errno
200000a0 g       .bss	00000000 _sbss
00000800 g       *ABS*	00000000 __stack_size
0000413a g     F .text	0000005a USART_Printf_Init
000016e4 g     F .text	00000334 SD_WriteBlock
00002294 g     F .text	00000038 DMA_Init
200002f8 g     O .bss	00000230 fs
00002092  w      .text	00000000 USBFS_IRQHandler
20000080 g     O .data	00000007 WriteBuffer
00000468 g     F .text	00000010 SDIO_Clock_Set
00000214 g     F .text	0000000c .hidden __riscv_restore_2
000045f0 g     F .text	000000b2 memcpy
00000bac g     F .text	0000007c CmdResp6Error
00000b60 g     F .text	0000004c CmdResp2Error
00004b8e g     F .text	0000000a _cleanup_r
00002092  w      .text	00000000 EXTI0_IRQHandler
00002092  w      .text	00000000 I2C2_EV_IRQHandler
0000278c g     F .text	0000001a disk_initialize
00002092  w      .text	00000000 TIM10_TRG_COM_IRQHandler
000047b6 g     F .text	0000000c puts
20000088 g     O .data	00000004 SystemCoreClock
00000478 g     F .text	000002f6 SD_GetCardInfo
000026b6 g     F .text	0000000e SDIO_GetFlagStatus
00000798 g     F .text	00000042 CmdResp7Error
00005856 g     F .text	0000000c _fstat
00000004 g       .init	00000000 _einit
0000102e g     F .text	00000050 SD_EnableWideBusOperation
0000259c g     F .text	0000001e RCC_APB2PeriphClockCmd
000001c0 g     F .text	00000030 .hidden __riscv_save_12
00002092  w      .text	00000000 CAN2_SCE_IRQHandler
00002092  w      .text	00000000 ADC1_2_IRQHandler
000022e0 g     F .text	000000c0 GPIO_Init
00002784 g     F .text	00000008 disk_status
00002092  w      .text	00000000 Break_Point_Handler
00000200 g     F .text	00000020 .hidden __riscv_restore_11
200000bc g     O .bss	00000004 NVIC_Priority_Group
00002092  w      .text	00000000 SPI1_IRQHandler
0000275c g     F .text	00000016 USART_Cmd
0000565a g     F .text	0000002a _sbrk_r
00002092  w      .text	00000000 TAMPER_IRQHandler
000001f0 g     F .text	0000000c .hidden __riscv_save_1
000002da g     F .text	00000028 LED_GFG
00000214 g     F .text	0000000c .hidden __riscv_restore_0
0000581e g     F .text	0000002c _read_r
000027e6 g     F .text	0000003a disk_ioctl
000001d6 g     F .text	0000001a .hidden __riscv_save_7
200007b4 g     O .bss	00000200 SDIO_DATA_BUFFER
00002092  w      .text	00000000 CAN2_RX0_IRQHandler
200000b1 g     O .bss	00000001 TransferEnd
00002092  w      .text	00000000 TIM8_UP_IRQHandler
00002092  w      .text	00000000 Ecall_M_Mode_Handler
20007800 g       .stack	00000000 _heap_end
00005862 g     F .text	0000000c _isatty
200000b8 g     O .bss	00000004 tempbuff
20000098 g     O .data	00000004 _global_impure_ptr
0000020a g     F .text	00000016 .hidden __riscv_restore_5
00001160 g     F .text	00000076 SD_DMA_Config
00002092  w      .text	00000000 DMA2_Channel2_IRQHandler
0000257e g     F .text	0000001e RCC_AHBPeriphClockCmd
00002092  w      .text	00000000 DMA1_Channel4_IRQHandler
000007da g     F .text	00000050 CmdResp1Error
000041d2 g     F .text	00000026 _sbrk
200000b4 g     O .bss	00000004 TransferError
00002092  w      .text	00000000 TIM9_UP_IRQHandler
0000020a g     F .text	00000016 .hidden __riscv_restore_6
00002092  w      .text	00000000 USART3_IRQHandler
00002092  w      .text	00000000 RTC_IRQHandler
200009f4 g       .bss	00000000 _ebss
00002092  w      .text	00000000 DMA1_Channel7_IRQHandler
00002092  w      .text	00000000 CAN1_RX1_IRQHandler
20000748 g     O .bss	00000058 SDCardInfo
000040de g     F .text	00000026 Delay_Init
200009cc g     O .bss	00000018 SDIO_InitStructure
00002092  w      .text	00000000 DVP_IRQHandler
00002092  w      .text	00000000 UART5_IRQHandler
00000f9a g     F .text	00000094 SDEnWideBus
00002614 g     F .text	00000016 SDIO_ClockCmd
00001a18 g     F .text	00000368 SD_WriteMultiBlocks
0000267c g     F .text	00000026 SDIO_DataConfig
00002092  w      .text	00000000 TIM4_IRQHandler
200000d0 g     O .bss	00000228 fnew
000001c8 g     F .text	00000028 .hidden __riscv_save_9
000023aa g     F .text	0000000a GPIO_WriteBit
00002092  w      .text	00000000 DMA2_Channel1_IRQHandler
00005acc g     O .text	00000020 __sf_fake_stderr
000001d6 g     F .text	0000001a .hidden __riscv_save_4
00002092  w      .text	00000000 I2C1_EV_IRQHandler
00002408 g     F .text	00000176 RCC_GetClocksFreq
00002092  w      .text	00000000 DMA1_Channel6_IRQHandler
00004fe2 g     F .text	00000042 __sfputs_r
00002092  w      .text	00000000 UART4_IRQHandler
00002092  w      .text	00000000 DMA2_Channel4_IRQHandler
00005802 g     F .text	00000018 memchr
000026cc g     F .text	00000090 USART_Init
00004e3e g     F .text	000000a8 _free_r
00002092  w      .text	00000000 TIM3_IRQHandler
00002092  w      .text	00000000 RCC_IRQHandler
000001f0 g     F .text	0000000c .hidden __riscv_save_3
00002092  w      .text	00000000 TIM1_TRG_COM_IRQHandler
200009b4 g     O .bss	00000018 SDIO_DataInitStructure
00002092  w      .text	00000000 DMA1_Channel1_IRQHandler
000039d6 g     F .text	00000022 f_close
00000000 g       .init	00000000 _start
00002092  w      .text	00000000 DMA2_Channel7_IRQHandler
00000856 g     F .text	00000130 SD_ProcessIRQSrc
0000114a g     F .text	00000016 convert_from_bytes_to_power_of_two
20000000 g     O .data	00000010 AHBPrescTable
0000586e g     F .text	0000000c _lseek
00002092  w      .text	00000000 EXTI15_10_IRQHandler
0000098c g     F .text	00000030 CmdResp3Error
0000107e g     F .text	000000cc SD_Init
00002092  w      .text	00000000 TIM7_IRQHandler
0000575c g     F .text	00000028 _close_r
00002092  w      .text	00000000 CAN2_TX_IRQHandler
20000000 g       .dalign	00000000 _data_vma
00002092  w      .text	00000000 TIM5_IRQHandler
0000082a g     F .text	0000002c SD_SelectDeselect
000045cc g     F .text	00000024 memcmp
0000265a g     F .text	00000022 SDIO_SendCommand
00004896 g     F .text	000000fc __swsetup_r
00002092  w      .text	00000000 EXTI9_5_IRQHandler
00004c4a g     F .text	000000a0 __sfp
000001c8 g     F .text	00000028 .hidden __riscv_save_10
00005684 g     F .text	0000002c __sread
00002820 g     F .text	00000004 get_fattime
00002092  w      .text	00000000 ETH_WKUP_IRQHandler
0000581a g     F .text	00000002 __malloc_lock
0000020a g     F .text	00000016 .hidden __riscv_restore_4
00001df8 g     F .text	00000076 SD_WriteDisk
00000200 g     F .text	00000020 .hidden __riscv_restore_8
00004ac2 g     F .text	00000066 _fflush_r
0000076e g     F .text	0000002a CmdError
000001d6 g     F .text	0000001a .hidden __riscv_save_6
000026a2 g     F .text	0000000a SDIO_ReadData
00002092  w      .text	00000000 SPI2_IRQHandler
00005aec g     O .text	00000020 __sf_fake_stdin
00002646 g     F .text	00000014 SDIO_DMACmd
00001d80 g     F .text	00000078 SD_ReadDisk
00000220 g     F .text	000000a8 memset
00000200 g     F .text	00000020 .hidden __riscv_restore_9
0000020a g     F .text	00000016 .hidden __riscv_restore_7
00000302 g     F .text	00000166 main
00002092  w      .text	00000000 TIM10_BRK_IRQHandler
0000393a g     F .text	0000009c f_sync
00002092  w      .text	00000000 TIM9_CC_IRQHandler
00005728 g     F .text	00000006 __sclose
00002092  w      .text	00000000 DMA2_Channel5_IRQHandler
00004ee6 g     F .text	000000d4 _malloc_r
000039f8 g     F .text	000006e6 f_mkfs
0000356e g     F .text	0000005a f_mount
00002092  w      .text	00000000 DMA1_Channel5_IRQHandler
00002092  w      .text	00000000 EXTI4_IRQHandler
00004104 g     F .text	00000036 Delay_Ms
00002092  w      .text	00000000 USB_LP_CAN1_RX0_IRQHandler
00001e6e g     F .text	000000fa SystemInit
00002092  w      .text	00000000 RNG_IRQHandler
000046a2 g     F .text	00000040 iprintf
00002092  w      .text	00000000 USB_HP_CAN1_TX_IRQHandler
000059cc g     O .text	00000100 .hidden __clz_tab
00000000 g       .init	00000000 _sinit
0000572e g     F .text	0000002e _write_r
00002092  w      .text	00000000 DMA1_Channel3_IRQHandler
00002092  w      .text	00000000 ETH_IRQHandler
000052ac g     F .text	0000010c _printf_common
20000094 g     O .data	00000004 _impure_ptr
00002092  w      .text	00000000 TIM1_UP_IRQHandler
00004992 g     F .text	00000130 __sflush_r
000011d6 g     F .text	0000023c SD_ReadBlock
00002092  w      .text	00000000 WWDG_IRQHandler
00002092  w      .text	00000000 USBHSWakeup_IRQHandler
00002092  w      .text	00000000 DMA2_Channel11_IRQHandler
00002092  w      .text	00000000 Ecall_U_Mode_Handler
00002092  w      .text	00000000 DMA2_Channel6_IRQHandler
00002092  w      .text	00000000 TIM2_IRQHandler
20008000 g       .stack	00000000 _eusrstack
00000d5c g     F .text	0000009c IsCardProgramming
000001f0 g     F .text	0000000c .hidden __riscv_save_2
00002092  w      .text	00000000 SW_Handler
00002092  w      .text	00000000 TIM1_BRK_IRQHandler
00004d54 g     F .text	00000058 __swhatbuf_r
00002772 g     F .text	00000008 USART_SendData
00002092  w      .text	00000000 DMA2_Channel10_IRQHandler
00002092  w      .text	00000000 EXTI1_IRQHandler
000001d6 g     F .text	0000001a .hidden __riscv_save_5
00004194 g     F .text	0000003e _write
200000a0 g       .data	00000000 _edata
200009f4 g       .bss	00000000 _end
0000379e g     F .text	0000019c f_write
00002092  w      .text	00000000 RTCAlarm_IRQHandler
00005b68 g       .dlalign	00000000 _data_lma
00002092  w      .text	00000000 TIM10_UP_IRQHandler
00002092  w      .text	00000000 TIM9_TRG_COM_IRQHandler
00002092  w      .text	00000000 UART7_IRQHandler
00002092  w      .text	00000000 USART2_IRQHandler
00002092  w      .text	00000000 UART6_IRQHandler
000056b0 g     F .text	00000048 __swrite
000035c8 g     F .text	000001d6 f_open
000027c6 g     F .text	00000020 disk_write
00005024 g     F .text	00000288 _vfiprintf_r
00004cea g     F .text	0000006a _fwalk_reent
00001f68 g     F .text	0000012a SystemCoreClockUpdate
200000a0 g     O .bss	00000004 fnum
00002092  w      .text	00000000 I2C2_ER_IRQHandler
00002092  w      .text	00000000 DMA1_Channel2_IRQHandler
00005b0c g     O .text	00000020 __sf_fake_stdout
000001fc g     F .text	00000024 .hidden __riscv_restore_12
00002092  w      .text	00000000 TIM8_BRK_IRQHandler
0000587a g     F .text	0000000c _read
000025ea g     F .text	0000002a SDIO_Init
00002094  w      .text	00000000 handle_reset
00002092  w      .text	00000000 CAN1_SCE_IRQHandler
00002092  w      .text	00000000 FLASH_IRQHandler
000001f0 g     F .text	0000000c .hidden __riscv_save_0
000009bc g     F .text	000001a4 SD_PowerON
00002092  w      .text	00000000 USART1_IRQHandler
00004dac g     F .text	00000092 __smakebuf_r
000027a6 g     F .text	00000020 disk_read
000053b8 g     F .text	000002a2 _printf_i
00002092  w      .text	00000000 SPI3_IRQHandler
00001412 g     F .text	000002d2 SD_ReadMultiBlocks
200000cc g     O .bss	00000004 __malloc_sbrk_start
00002092  w      .text	00000000 I2C1_ER_IRQHandler
000047c2 g     F .text	00000018 strchr
000023b4 g     F .text	00000006 NVIC_PriorityGroupConfig
0000263c g     F .text	0000000a SDIO_GetPowerState
00002128 g     F .text	0000016c DMA_DeInit
200000c8 g     O .bss	00000004 __malloc_free_list
00000214 g     F .text	0000000c .hidden __riscv_restore_1
00005024 g     F .text	00000288 _vfprintf_r
00000c28 g     F .text	00000134 SD_InitializeCards
000023a0 g     F .text	0000000a GPIO_ReadInputDataBit
000026ac g     F .text	0000000a SDIO_WriteData
00000df8 g     F .text	000001a2 FindSCR
200000a4 g     O .bss	00000004 res_sd
00002092  w      .text	00000000 USBWakeUp_IRQHandler
20000528 g     O .bss	00000200 work
0000584a g     F .text	0000000c _close
00002092  w      .text	00000000 DMA2_Channel3_IRQHandler
000025ba g     F .text	00000030 SDIO_DeInit



Disassembly of section .init:

00000000 <_sinit>:
   0:	0940206f          	j	2094 <handle_reset>

Disassembly of section .vector:

00000004 <_vector_base>:
	...
   c:	02c8                	addi	a0,sp,324
   e:	0000                	unimp
  10:	02ca                	slli	t0,t0,0x12
  12:	0000                	unimp
  14:	0000                	unimp
  16:	0000                	unimp
  18:	2092                	lhu	a2,0(s1)
	...
  22:	0000                	unimp
  24:	2092                	lhu	a2,0(s1)
  26:	0000                	unimp
  28:	2092                	lhu	a2,0(s1)
	...
  32:	0000                	unimp
  34:	2092                	lhu	a2,0(s1)
  36:	0000                	unimp
  38:	0000                	unimp
  3a:	0000                	unimp
  3c:	2092                	lhu	a2,0(s1)
  3e:	0000                	unimp
  40:	0000                	unimp
  42:	0000                	unimp
  44:	2092                	lhu	a2,0(s1)
  46:	0000                	unimp
  48:	2092                	lhu	a2,0(s1)
  4a:	0000                	unimp
  4c:	2092                	lhu	a2,0(s1)
  4e:	0000                	unimp
  50:	2092                	lhu	a2,0(s1)
  52:	0000                	unimp
  54:	2092                	lhu	a2,0(s1)
  56:	0000                	unimp
  58:	2092                	lhu	a2,0(s1)
  5a:	0000                	unimp
  5c:	2092                	lhu	a2,0(s1)
  5e:	0000                	unimp
  60:	2092                	lhu	a2,0(s1)
  62:	0000                	unimp
  64:	2092                	lhu	a2,0(s1)
  66:	0000                	unimp
  68:	2092                	lhu	a2,0(s1)
  6a:	0000                	unimp
  6c:	2092                	lhu	a2,0(s1)
  6e:	0000                	unimp
  70:	2092                	lhu	a2,0(s1)
  72:	0000                	unimp
  74:	2092                	lhu	a2,0(s1)
  76:	0000                	unimp
  78:	2092                	lhu	a2,0(s1)
  7a:	0000                	unimp
  7c:	2092                	lhu	a2,0(s1)
  7e:	0000                	unimp
  80:	2092                	lhu	a2,0(s1)
  82:	0000                	unimp
  84:	2092                	lhu	a2,0(s1)
  86:	0000                	unimp
  88:	2092                	lhu	a2,0(s1)
  8a:	0000                	unimp
  8c:	2092                	lhu	a2,0(s1)
  8e:	0000                	unimp
  90:	2092                	lhu	a2,0(s1)
  92:	0000                	unimp
  94:	2092                	lhu	a2,0(s1)
  96:	0000                	unimp
  98:	2092                	lhu	a2,0(s1)
  9a:	0000                	unimp
  9c:	2092                	lhu	a2,0(s1)
  9e:	0000                	unimp
  a0:	2092                	lhu	a2,0(s1)
  a2:	0000                	unimp
  a4:	2092                	lhu	a2,0(s1)
  a6:	0000                	unimp
  a8:	2092                	lhu	a2,0(s1)
  aa:	0000                	unimp
  ac:	2092                	lhu	a2,0(s1)
  ae:	0000                	unimp
  b0:	2092                	lhu	a2,0(s1)
  b2:	0000                	unimp
  b4:	2092                	lhu	a2,0(s1)
  b6:	0000                	unimp
  b8:	2092                	lhu	a2,0(s1)
  ba:	0000                	unimp
  bc:	2092                	lhu	a2,0(s1)
  be:	0000                	unimp
  c0:	2092                	lhu	a2,0(s1)
  c2:	0000                	unimp
  c4:	2092                	lhu	a2,0(s1)
  c6:	0000                	unimp
  c8:	2092                	lhu	a2,0(s1)
  ca:	0000                	unimp
  cc:	2092                	lhu	a2,0(s1)
  ce:	0000                	unimp
  d0:	2092                	lhu	a2,0(s1)
  d2:	0000                	unimp
  d4:	2092                	lhu	a2,0(s1)
  d6:	0000                	unimp
  d8:	2092                	lhu	a2,0(s1)
  da:	0000                	unimp
  dc:	2092                	lhu	a2,0(s1)
  de:	0000                	unimp
  e0:	2092                	lhu	a2,0(s1)
  e2:	0000                	unimp
  e4:	2092                	lhu	a2,0(s1)
  e6:	0000                	unimp
  e8:	2092                	lhu	a2,0(s1)
  ea:	0000                	unimp
  ec:	2092                	lhu	a2,0(s1)
  ee:	0000                	unimp
  f0:	2092                	lhu	a2,0(s1)
  f2:	0000                	unimp
  f4:	2092                	lhu	a2,0(s1)
  f6:	0000                	unimp
  f8:	2092                	lhu	a2,0(s1)
  fa:	0000                	unimp
  fc:	2092                	lhu	a2,0(s1)
  fe:	0000                	unimp
 100:	2092                	lhu	a2,0(s1)
 102:	0000                	unimp
 104:	0000                	unimp
 106:	0000                	unimp
 108:	0986                	slli	s3,s3,0x1
 10a:	0000                	unimp
 10c:	2092                	lhu	a2,0(s1)
 10e:	0000                	unimp
 110:	2092                	lhu	a2,0(s1)
 112:	0000                	unimp
 114:	2092                	lhu	a2,0(s1)
 116:	0000                	unimp
 118:	2092                	lhu	a2,0(s1)
 11a:	0000                	unimp
 11c:	2092                	lhu	a2,0(s1)
 11e:	0000                	unimp
 120:	2092                	lhu	a2,0(s1)
 122:	0000                	unimp
 124:	2092                	lhu	a2,0(s1)
 126:	0000                	unimp
 128:	2092                	lhu	a2,0(s1)
 12a:	0000                	unimp
 12c:	2092                	lhu	a2,0(s1)
 12e:	0000                	unimp
 130:	2092                	lhu	a2,0(s1)
 132:	0000                	unimp
 134:	2092                	lhu	a2,0(s1)
 136:	0000                	unimp
 138:	2092                	lhu	a2,0(s1)
 13a:	0000                	unimp
 13c:	2092                	lhu	a2,0(s1)
 13e:	0000                	unimp
 140:	2092                	lhu	a2,0(s1)
 142:	0000                	unimp
 144:	2092                	lhu	a2,0(s1)
 146:	0000                	unimp
 148:	2092                	lhu	a2,0(s1)
 14a:	0000                	unimp
 14c:	2092                	lhu	a2,0(s1)
 14e:	0000                	unimp
 150:	2092                	lhu	a2,0(s1)
 152:	0000                	unimp
 154:	2092                	lhu	a2,0(s1)
 156:	0000                	unimp
 158:	2092                	lhu	a2,0(s1)
 15a:	0000                	unimp
 15c:	2092                	lhu	a2,0(s1)
 15e:	0000                	unimp
 160:	2092                	lhu	a2,0(s1)
 162:	0000                	unimp
 164:	2092                	lhu	a2,0(s1)
 166:	0000                	unimp
 168:	2092                	lhu	a2,0(s1)
 16a:	0000                	unimp
 16c:	2092                	lhu	a2,0(s1)
 16e:	0000                	unimp
 170:	2092                	lhu	a2,0(s1)
 172:	0000                	unimp
 174:	2092                	lhu	a2,0(s1)
 176:	0000                	unimp
 178:	2092                	lhu	a2,0(s1)
 17a:	0000                	unimp
 17c:	2092                	lhu	a2,0(s1)
 17e:	0000                	unimp
 180:	2092                	lhu	a2,0(s1)
 182:	0000                	unimp
 184:	2092                	lhu	a2,0(s1)
 186:	0000                	unimp
 188:	2092                	lhu	a2,0(s1)
 18a:	0000                	unimp
 18c:	2092                	lhu	a2,0(s1)
 18e:	0000                	unimp
 190:	2092                	lhu	a2,0(s1)
 192:	0000                	unimp
 194:	2092                	lhu	a2,0(s1)
 196:	0000                	unimp
 198:	2092                	lhu	a2,0(s1)
 19a:	0000                	unimp
 19c:	2092                	lhu	a2,0(s1)
 19e:	0000                	unimp
 1a0:	2092                	lhu	a2,0(s1)
	...

Disassembly of section .text:

000001c0 <__riscv_save_12>:
     1c0:	7139                	addi	sp,sp,-64
     1c2:	4301                	li	t1,0
     1c4:	c66e                	sw	s11,12(sp)
     1c6:	a019                	j	1cc <__riscv_save_10+0x4>

000001c8 <__riscv_save_10>:
     1c8:	7139                	addi	sp,sp,-64
     1ca:	5341                	li	t1,-16
     1cc:	c86a                	sw	s10,16(sp)
     1ce:	ca66                	sw	s9,20(sp)
     1d0:	cc62                	sw	s8,24(sp)
     1d2:	ce5e                	sw	s7,28(sp)
     1d4:	a019                	j	1da <__riscv_save_4+0x4>

000001d6 <__riscv_save_4>:
     1d6:	7139                	addi	sp,sp,-64
     1d8:	5301                	li	t1,-32
     1da:	d05a                	sw	s6,32(sp)
     1dc:	d256                	sw	s5,36(sp)
     1de:	d452                	sw	s4,40(sp)
     1e0:	d64e                	sw	s3,44(sp)
     1e2:	d84a                	sw	s2,48(sp)
     1e4:	da26                	sw	s1,52(sp)
     1e6:	dc22                	sw	s0,56(sp)
     1e8:	de06                	sw	ra,60(sp)
     1ea:	40610133          	sub	sp,sp,t1
     1ee:	8282                	jr	t0

000001f0 <__riscv_save_0>:
     1f0:	1141                	addi	sp,sp,-16
     1f2:	c04a                	sw	s2,0(sp)
     1f4:	c226                	sw	s1,4(sp)
     1f6:	c422                	sw	s0,8(sp)
     1f8:	c606                	sw	ra,12(sp)
     1fa:	8282                	jr	t0

000001fc <__riscv_restore_12>:
     1fc:	4db2                	lw	s11,12(sp)
     1fe:	0141                	addi	sp,sp,16

00000200 <__riscv_restore_10>:
     200:	4d02                	lw	s10,0(sp)
     202:	4c92                	lw	s9,4(sp)
     204:	4c22                	lw	s8,8(sp)
     206:	4bb2                	lw	s7,12(sp)
     208:	0141                	addi	sp,sp,16

0000020a <__riscv_restore_4>:
     20a:	4b02                	lw	s6,0(sp)
     20c:	4a92                	lw	s5,4(sp)
     20e:	4a22                	lw	s4,8(sp)
     210:	49b2                	lw	s3,12(sp)
     212:	0141                	addi	sp,sp,16

00000214 <__riscv_restore_0>:
     214:	4902                	lw	s2,0(sp)
     216:	4492                	lw	s1,4(sp)
     218:	4422                	lw	s0,8(sp)
     21a:	40b2                	lw	ra,12(sp)
     21c:	0141                	addi	sp,sp,16
     21e:	8082                	ret

00000220 <memset>:
     220:	433d                	li	t1,15
     222:	872a                	mv	a4,a0
     224:	02c37363          	bgeu	t1,a2,24a <memset+0x2a>
     228:	00f77793          	andi	a5,a4,15
     22c:	efbd                	bnez	a5,2aa <memset+0x8a>
     22e:	e5ad                	bnez	a1,298 <memset+0x78>
     230:	ff067693          	andi	a3,a2,-16
     234:	8a3d                	andi	a2,a2,15
     236:	96ba                	add	a3,a3,a4
     238:	c30c                	sw	a1,0(a4)
     23a:	c34c                	sw	a1,4(a4)
     23c:	c70c                	sw	a1,8(a4)
     23e:	c74c                	sw	a1,12(a4)
     240:	0741                	addi	a4,a4,16
     242:	fed76be3          	bltu	a4,a3,238 <memset+0x18>
     246:	e211                	bnez	a2,24a <memset+0x2a>
     248:	8082                	ret
     24a:	40c306b3          	sub	a3,t1,a2
     24e:	068a                	slli	a3,a3,0x2
     250:	00000297          	auipc	t0,0x0
     254:	9696                	add	a3,a3,t0
     256:	00a68067          	jr	10(a3)
     25a:	00b70723          	sb	a1,14(a4)
     25e:	00b706a3          	sb	a1,13(a4)
     262:	00b70623          	sb	a1,12(a4)
     266:	00b705a3          	sb	a1,11(a4)
     26a:	00b70523          	sb	a1,10(a4)
     26e:	00b704a3          	sb	a1,9(a4)
     272:	00b70423          	sb	a1,8(a4)
     276:	00b703a3          	sb	a1,7(a4)
     27a:	00b70323          	sb	a1,6(a4)
     27e:	00b702a3          	sb	a1,5(a4)
     282:	00b70223          	sb	a1,4(a4)
     286:	00b701a3          	sb	a1,3(a4)
     28a:	00b70123          	sb	a1,2(a4)
     28e:	00b700a3          	sb	a1,1(a4)
     292:	00b70023          	sb	a1,0(a4)
     296:	8082                	ret
     298:	0ff5f593          	andi	a1,a1,255
     29c:	00859693          	slli	a3,a1,0x8
     2a0:	8dd5                	or	a1,a1,a3
     2a2:	01059693          	slli	a3,a1,0x10
     2a6:	8dd5                	or	a1,a1,a3
     2a8:	b761                	j	230 <memset+0x10>
     2aa:	00279693          	slli	a3,a5,0x2
     2ae:	00000297          	auipc	t0,0x0
     2b2:	9696                	add	a3,a3,t0
     2b4:	8286                	mv	t0,ra
     2b6:	fa8680e7          	jalr	-88(a3)
     2ba:	8096                	mv	ra,t0
     2bc:	17c1                	addi	a5,a5,-16
     2be:	8f1d                	sub	a4,a4,a5
     2c0:	963e                	add	a2,a2,a5
     2c2:	f8c374e3          	bgeu	t1,a2,24a <memset+0x2a>
     2c6:	b7a5                	j	22e <memset+0xe>

000002c8 <NMI_Handler>:
     2c8:	a001                	j	2c8 <NMI_Handler>

000002ca <HardFault_Handler>:
     2ca:	beef07b7          	lui	a5,0xbeef0
     2ce:	e000e737          	lui	a4,0xe000e
     2d2:	08078793          	addi	a5,a5,128 # beef0080 <_eusrstack+0x9eee8080>
     2d6:	c73c                	sw	a5,72(a4)
     2d8:	a001                	j	2d8 <HardFault_Handler+0xe>

000002da <LED_GFG>:
     2da:	f17ff2ef          	jal	t0,1f0 <__riscv_save_0>
     2de:	1141                	addi	sp,sp,-16
     2e0:	4585                	li	a1,1
     2e2:	4541                	li	a0,16
     2e4:	2b8020ef          	jal	ra,259c <RCC_APB2PeriphClockCmd>
     2e8:	4785                	li	a5,1
     2ea:	827c                	sh	a5,4(sp)
     2ec:	478d                	li	a5,3
     2ee:	c43e                	sw	a5,8(sp)
     2f0:	004c                	addi	a1,sp,4
     2f2:	47c1                	li	a5,16
     2f4:	40011537          	lui	a0,0x40011
     2f8:	c63e                	sw	a5,12(sp)
     2fa:	7e7010ef          	jal	ra,22e0 <GPIO_Init>
     2fe:	0141                	addi	sp,sp,16
     300:	bf11                	j	214 <__riscv_restore_0>

00000302 <main>:
     302:	ed5ff2ef          	jal	t0,1d6 <__riscv_save_4>
     306:	4509                	li	a0,2
     308:	0ac020ef          	jal	ra,23b4 <NVIC_PriorityGroupConfig>
     30c:	45d010ef          	jal	ra,1f68 <SystemCoreClockUpdate>
     310:	5cf030ef          	jal	ra,40de <Delay_Init>
     314:	6571                	lui	a0,0x1c
     316:	20050513          	addi	a0,a0,512 # 1c200 <_data_lma+0x16698>
     31a:	621030ef          	jal	ra,413a <USART_Printf_Init>
     31e:	3f75                	jal	2da <LED_GFG>
     320:	8081a583          	lw	a1,-2040(gp) # 20000088 <SystemCoreClock>
     324:	00006537          	lui	a0,0x6
     328:	88850513          	addi	a0,a0,-1912 # 5888 <_read+0xe>
     32c:	376040ef          	jal	ra,46a2 <iprintf>
     330:	5ef010ef          	jal	ra,211e <DBGMCU_GetCHIPID>
     334:	85aa                	mv	a1,a0
     336:	00006537          	lui	a0,0x6
     33a:	89850513          	addi	a0,a0,-1896 # 5898 <_read+0x1e>
     33e:	364040ef          	jal	ra,46a2 <iprintf>
     342:	00006537          	lui	a0,0x6
     346:	8a850513          	addi	a0,a0,-1880 # 58a8 <_read+0x2e>
     34a:	46c040ef          	jal	ra,47b6 <puts>
     34e:	000064b7          	lui	s1,0x6
     352:	4605                	li	a2,1
     354:	8bc48593          	addi	a1,s1,-1860 # 58bc <_read+0x42>
     358:	a7818513          	addi	a0,gp,-1416 # 200002f8 <fs>
     35c:	212030ef          	jal	ra,356e <f_mount>
     360:	82418993          	addi	s3,gp,-2012 # 200000a4 <res_sd>
     364:	85aa                	mv	a1,a0
     366:	00a9a023          	sw	a0,0(s3)
     36a:	00006537          	lui	a0,0x6
     36e:	8c050513          	addi	a0,a0,-1856 # 58c0 <_read+0x46>
     372:	330040ef          	jal	ra,46a2 <iprintf>
     376:	0009a703          	lw	a4,0(s3)
     37a:	47b5                	li	a5,13
     37c:	82418413          	addi	s0,gp,-2012 # 200000a4 <res_sd>
     380:	04f71163          	bne	a4,a5,3c2 <main+0xc0>
     384:	00006537          	lui	a0,0x6
     388:	8d850513          	addi	a0,a0,-1832 # 58d8 <_read+0x5e>
     38c:	42a040ef          	jal	ra,47b6 <puts>
     390:	20000693          	li	a3,512
     394:	ca818613          	addi	a2,gp,-856 # 20000528 <work>
     398:	4581                	li	a1,0
     39a:	8bc48513          	addi	a0,s1,-1860
     39e:	65a030ef          	jal	ra,39f8 <f_mkfs>
     3a2:	c008                	sw	a0,0(s0)
     3a4:	4605                	li	a2,1
     3a6:	8bc48593          	addi	a1,s1,-1860
     3aa:	4501                	li	a0,0
     3ac:	1c2030ef          	jal	ra,356e <f_mount>
     3b0:	c008                	sw	a0,0(s0)
     3b2:	4605                	li	a2,1
     3b4:	8bc48593          	addi	a1,s1,-1860
     3b8:	a7818513          	addi	a0,gp,-1416 # 200002f8 <fs>
     3bc:	1b2030ef          	jal	ra,356e <f_mount>
     3c0:	c008                	sw	a0,0(s0)
     3c2:	000065b7          	lui	a1,0x6
     3c6:	4629                	li	a2,10
     3c8:	8e458593          	addi	a1,a1,-1820 # 58e4 <_read+0x6a>
     3cc:	85018513          	addi	a0,gp,-1968 # 200000d0 <fnew>
     3d0:	1f8030ef          	jal	ra,35c8 <f_open>
     3d4:	c008                	sw	a0,0(s0)
     3d6:	e151                	bnez	a0,45a <main+0x158>
     3d8:	00006537          	lui	a0,0x6
     3dc:	8f050513          	addi	a0,a0,-1808 # 58f0 <_read+0x76>
     3e0:	3d6040ef          	jal	ra,47b6 <puts>
     3e4:	200005b7          	lui	a1,0x20000
     3e8:	82018913          	addi	s2,gp,-2016 # 200000a0 <_edata>
     3ec:	461d                	li	a2,7
     3ee:	82018693          	addi	a3,gp,-2016 # 200000a0 <_edata>
     3f2:	08058593          	addi	a1,a1,128 # 20000080 <WriteBuffer>
     3f6:	85018513          	addi	a0,gp,-1968 # 200000d0 <fnew>
     3fa:	3a4030ef          	jal	ra,379e <f_write>
     3fe:	c008                	sw	a0,0(s0)
     400:	e531                	bnez	a0,44c <main+0x14a>
     402:	00092583          	lw	a1,0(s2)
     406:	00006537          	lui	a0,0x6
     40a:	90450513          	addi	a0,a0,-1788 # 5904 <_read+0x8a>
     40e:	294040ef          	jal	ra,46a2 <iprintf>
     412:	85018513          	addi	a0,gp,-1968 # 200000d0 <fnew>
     416:	5c0030ef          	jal	ra,39d6 <f_close>
     41a:	400c                	lw	a1,0(s0)
     41c:	00006537          	lui	a0,0x6
     420:	93c50513          	addi	a0,a0,-1732 # 593c <_read+0xc2>
     424:	27e040ef          	jal	ra,46a2 <iprintf>
     428:	3e800513          	li	a0,1000
     42c:	4d9030ef          	jal	ra,4104 <Delay_Ms>
     430:	4585                	li	a1,1
     432:	40011537          	lui	a0,0x40011
     436:	76b010ef          	jal	ra,23a0 <GPIO_ReadInputDataBit>
     43a:	4601                	li	a2,0
     43c:	e111                	bnez	a0,440 <main+0x13e>
     43e:	4605                	li	a2,1
     440:	4585                	li	a1,1
     442:	40011537          	lui	a0,0x40011
     446:	765010ef          	jal	ra,23aa <GPIO_WriteBit>
     44a:	bff9                	j	428 <main+0x126>
     44c:	00006537          	lui	a0,0x6
     450:	91c50513          	addi	a0,a0,-1764 # 591c <_read+0xa2>
     454:	362040ef          	jal	ra,47b6 <puts>
     458:	bf6d                	j	412 <main+0x110>
     45a:	00006537          	lui	a0,0x6
     45e:	92c50513          	addi	a0,a0,-1748 # 592c <_read+0xb2>
     462:	354040ef          	jal	ra,47b6 <puts>
     466:	bf55                	j	41a <main+0x118>

00000468 <SDIO_Clock_Set>:
     468:	40018737          	lui	a4,0x40018
     46c:	435c                	lw	a5,4(a4)
     46e:	f007f793          	andi	a5,a5,-256
     472:	8d5d                	or	a0,a0,a5
     474:	c348                	sw	a0,4(a4)
     476:	8082                	ret

00000478 <SD_GetCardInfo>:
     478:	8281c883          	lbu	a7,-2008(gp) # 200000a8 <CardType>
     47c:	82c1a783          	lw	a5,-2004(gp) # 200000ac <RCA>
     480:	eb818693          	addi	a3,gp,-328 # 20000738 <CSD_Tab>
     484:	04f51a23          	sh	a5,84(a0)
     488:	229e                	lhu	a5,0(a3)
     48a:	4298                	lw	a4,0(a3)
     48c:	05150b23          	sb	a7,86(a0)
     490:	00879813          	slli	a6,a5,0x8
     494:	83a1                	srli	a5,a5,0x8
     496:	00f86833          	or	a6,a6,a5
     49a:	01875793          	srli	a5,a4,0x18
     49e:	0ff7f613          	andi	a2,a5,255
     4a2:	8789                	srai	a5,a5,0x2
     4a4:	8bbd                	andi	a5,a5,15
     4a6:	b11c                	sb	a5,1(a0)
     4a8:	42dc                	lw	a5,4(a3)
     4aa:	8341                	srli	a4,a4,0x10
     4ac:	01051223          	sh	a6,4(a0)
     4b0:	0107d813          	srli	a6,a5,0x10
     4b4:	00665313          	srli	t1,a2,0x6
     4b8:	0ff87813          	andi	a6,a6,255
     4bc:	8a0d                	andi	a2,a2,3
     4be:	b138                	sb	a4,3(a0)
     4c0:	0187d713          	srli	a4,a5,0x18
     4c4:	a130                	sb	a2,2(a0)
     4c6:	0712                	slli	a4,a4,0x4
     4c8:	00485613          	srli	a2,a6,0x4
     4cc:	8f51                	or	a4,a4,a2
     4ce:	0087d613          	srli	a2,a5,0x8
     4d2:	a17a                	sh	a4,6(a0)
     4d4:	0ff67713          	andi	a4,a2,255
     4d8:	00650023          	sb	t1,0(a0)
     4dc:	00775313          	srli	t1,a4,0x7
     4e0:	006504a3          	sb	t1,9(a0)
     4e4:	40665313          	srai	t1,a2,0x6
     4e8:	00137313          	andi	t1,t1,1
     4ec:	00650523          	sb	t1,10(a0)
     4f0:	40565313          	srai	t1,a2,0x5
     4f4:	00137313          	andi	t1,t1,1
     4f8:	006505a3          	sb	t1,11(a0)
     4fc:	40465313          	srai	t1,a2,0x4
     500:	00137313          	andi	t1,t1,1
     504:	00f87813          	andi	a6,a6,15
     508:	00650623          	sb	t1,12(a0)
     50c:	01050423          	sb	a6,8(a0)
     510:	000506a3          	sb	zero,13(a0)
     514:	4305                	li	t1,1
     516:	4694                	lw	a3,8(a3)
     518:	eb818593          	addi	a1,gp,-328 # 20000738 <CSD_Tab>
     51c:	01137563          	bgeu	t1,a7,526 <SD_GetCardInfo+0xae>
     520:	430d                	li	t1,3
     522:	20689763          	bne	a7,t1,730 <SD_GetCardInfo+0x2b8>
     526:	0186d713          	srli	a4,a3,0x18
     52a:	0ff77893          	andi	a7,a4,255
     52e:	078a                	slli	a5,a5,0x2
     530:	0068d313          	srli	t1,a7,0x6
     534:	3fc7f793          	andi	a5,a5,1020
     538:	0067e7b3          	or	a5,a5,t1
     53c:	00040337          	lui	t1,0x40
     540:	c0030313          	addi	t1,t1,-1024 # 3fc00 <_data_lma+0x3a098>
     544:	062a                	slli	a2,a2,0xa
     546:	00667633          	and	a2,a2,t1
     54a:	6305                	lui	t1,0x1
     54c:	c0030313          	addi	t1,t1,-1024 # c00 <CmdResp6Error+0x54>
     550:	00667633          	and	a2,a2,t1
     554:	870d                	srai	a4,a4,0x3
     556:	8fd1                	or	a5,a5,a2
     558:	8b1d                	andi	a4,a4,7
     55a:	0106d613          	srli	a2,a3,0x10
     55e:	a958                	sb	a4,20(a0)
     560:	0ff67713          	andi	a4,a2,255
     564:	8315                	srli	a4,a4,0x5
     566:	a978                	sb	a4,22(a0)
     568:	40265713          	srai	a4,a2,0x2
     56c:	8b1d                	andi	a4,a4,7
     56e:	b978                	sb	a4,23(a0)
     570:	0086d713          	srli	a4,a3,0x8
     574:	0078f893          	andi	a7,a7,7
     578:	0ff77713          	andi	a4,a4,255
     57c:	0606                	slli	a2,a2,0x1
     57e:	01150aa3          	sb	a7,21(a0)
     582:	8a19                	andi	a2,a2,6
     584:	00775893          	srli	a7,a4,0x7
     588:	01166633          	or	a2,a2,a7
     58c:	ad10                	sb	a2,24(a0)
     58e:	4885                	li	a7,1
     590:	0609                	addi	a2,a2,2
     592:	00c89633          	sll	a2,a7,a2
     596:	c91c                	sw	a5,16(a0)
     598:	0785                	addi	a5,a5,1
     59a:	01089833          	sll	a6,a7,a6
     59e:	02c788b3          	mul	a7,a5,a2
     5a2:	05052823          	sw	a6,80(a0)
     5a6:	02f627b3          	mulhsu	a5,a2,a5
     5aa:	41f85613          	srai	a2,a6,0x1f
     5ae:	030787b3          	mul	a5,a5,a6
     5b2:	03160633          	mul	a2,a2,a7
     5b6:	97b2                	add	a5,a5,a2
     5b8:	03088633          	mul	a2,a7,a6
     5bc:	0308b833          	mulhu	a6,a7,a6
     5c0:	c530                	sw	a2,72(a0)
     5c2:	97c2                	add	a5,a5,a6
     5c4:	c57c                	sw	a5,76(a0)
     5c6:	40675793          	srai	a5,a4,0x6
     5ca:	8b85                	andi	a5,a5,1
     5cc:	bd1c                	sb	a5,25(a0)
     5ce:	0706                	slli	a4,a4,0x1
     5d0:	0ff6f793          	andi	a5,a3,255
     5d4:	0077d693          	srli	a3,a5,0x7
     5d8:	07e77713          	andi	a4,a4,126
     5dc:	8f55                	or	a4,a4,a3
     5de:	ad38                	sb	a4,26(a0)
     5e0:	45d8                	lw	a4,12(a1)
     5e2:	07f7f793          	andi	a5,a5,127
     5e6:	bd3c                	sb	a5,27(a0)
     5e8:	01875793          	srli	a5,a4,0x18
     5ec:	0077d693          	srli	a3,a5,0x7
     5f0:	ad54                	sb	a3,28(a0)
     5f2:	4057d693          	srai	a3,a5,0x5
     5f6:	8a8d                	andi	a3,a3,3
     5f8:	bd54                	sb	a3,29(a0)
     5fa:	4027d693          	srai	a3,a5,0x2
     5fe:	8a9d                	andi	a3,a3,7
     600:	ad74                	sb	a3,30(a0)
     602:	01075693          	srli	a3,a4,0x10
     606:	0ff6f613          	andi	a2,a3,255
     60a:	078a                	slli	a5,a5,0x2
     60c:	00665593          	srli	a1,a2,0x6
     610:	8bb1                	andi	a5,a5,12
     612:	8fcd                	or	a5,a5,a1
     614:	8695                	srai	a3,a3,0x5
     616:	bd7c                	sb	a5,31(a0)
     618:	8a85                	andi	a3,a3,1
     61a:	00875793          	srli	a5,a4,0x8
     61e:	02d50023          	sb	a3,32(a0)
     622:	8a05                	andi	a2,a2,1
     624:	0ff7f693          	andi	a3,a5,255
     628:	02c50123          	sb	a2,34(a0)
     62c:	0076d613          	srli	a2,a3,0x7
     630:	02c501a3          	sb	a2,35(a0)
     634:	4067d613          	srai	a2,a5,0x6
     638:	8a05                	andi	a2,a2,1
     63a:	02c50223          	sb	a2,36(a0)
     63e:	4057d613          	srai	a2,a5,0x5
     642:	8a05                	andi	a2,a2,1
     644:	02c502a3          	sb	a2,37(a0)
     648:	4047d613          	srai	a2,a5,0x4
     64c:	8a05                	andi	a2,a2,1
     64e:	02c50323          	sb	a2,38(a0)
     652:	ea818613          	addi	a2,gp,-344 # 20000728 <CID_Tab>
     656:	8a8d                	andi	a3,a3,3
     658:	02d50423          	sb	a3,40(a0)
     65c:	4214                	lw	a3,0(a2)
     65e:	8789                	srai	a5,a5,0x2
     660:	8b8d                	andi	a5,a5,3
     662:	02f503a3          	sb	a5,39(a0)
     666:	0ff77713          	andi	a4,a4,255
     66a:	0186d793          	srli	a5,a3,0x18
     66e:	02f50623          	sb	a5,44(a0)
     672:	8305                	srli	a4,a4,0x1
     674:	0106d793          	srli	a5,a3,0x10
     678:	02e504a3          	sb	a4,41(a0)
     67c:	0ff7f793          	andi	a5,a5,255
     680:	0086d713          	srli	a4,a3,0x8
     684:	0ff77713          	andi	a4,a4,255
     688:	07a2                	slli	a5,a5,0x8
     68a:	8fd9                	or	a5,a5,a4
     68c:	b57e                	sh	a5,46(a0)
     68e:	425c                	lw	a5,4(a2)
     690:	06e2                	slli	a3,a3,0x18
     692:	6841                	lui	a6,0x10
     694:	0087d713          	srli	a4,a5,0x8
     698:	0ff77713          	andi	a4,a4,255
     69c:	8f55                	or	a4,a4,a3
     69e:	0187d693          	srli	a3,a5,0x18
     6a2:	06c2                	slli	a3,a3,0x10
     6a4:	8f55                	or	a4,a4,a3
     6a6:	0107d693          	srli	a3,a5,0x10
     6aa:	187d                	addi	a6,a6,-1
     6ac:	06a2                	slli	a3,a3,0x8
     6ae:	0106f6b3          	and	a3,a3,a6
     6b2:	8f55                	or	a4,a4,a3
     6b4:	4614                	lw	a3,8(a2)
     6b6:	d918                	sw	a4,48(a0)
     6b8:	02f50a23          	sb	a5,52(a0)
     6bc:	4658                	lw	a4,12(a2)
     6be:	0186d793          	srli	a5,a3,0x18
     6c2:	02f50aa3          	sb	a5,53(a0)
     6c6:	00869613          	slli	a2,a3,0x8
     6ca:	0106d793          	srli	a5,a3,0x10
     6ce:	01067833          	and	a6,a2,a6
     6d2:	07e2                	slli	a5,a5,0x18
     6d4:	01875613          	srli	a2,a4,0x18
     6d8:	0107e7b3          	or	a5,a5,a6
     6dc:	8fd1                	or	a5,a5,a2
     6de:	06a2                	slli	a3,a3,0x8
     6e0:	00ff0637          	lui	a2,0xff0
     6e4:	8ef1                	and	a3,a3,a2
     6e6:	8fd5                	or	a5,a5,a3
     6e8:	03c54603          	lbu	a2,60(a0)
     6ec:	dd1c                	sw	a5,56(a0)
     6ee:	01075793          	srli	a5,a4,0x10
     6f2:	0ff7f693          	andi	a3,a5,255
     6f6:	8291                	srli	a3,a3,0x4
     6f8:	8ed1                	or	a3,a3,a2
     6fa:	02d50e23          	sb	a3,60(a0)
     6fe:	6685                	lui	a3,0x1
     700:	f0068693          	addi	a3,a3,-256 # f00 <FindSCR+0x108>
     704:	07a2                	slli	a5,a5,0x8
     706:	8ff5                	and	a5,a5,a3
     708:	00875693          	srli	a3,a4,0x8
     70c:	0ff6f693          	andi	a3,a3,255
     710:	4585                	li	a1,1
     712:	8fd5                	or	a5,a5,a3
     714:	0ff77713          	andi	a4,a4,255
     718:	02b50523          	sb	a1,42(a0)
     71c:	bd7e                	sh	a5,62(a0)
     71e:	020500a3          	sb	zero,33(a0)
     722:	8305                	srli	a4,a4,0x1
     724:	04e50023          	sb	a4,64(a0)
     728:	04b500a3          	sb	a1,65(a0)
     72c:	4501                	li	a0,0
     72e:	8082                	ret
     730:	4609                	li	a2,2
     732:	e8c89ae3          	bne	a7,a2,5c6 <SD_GetCardInfo+0x14e>
     736:	0186d713          	srli	a4,a3,0x18
     73a:	0106d613          	srli	a2,a3,0x10
     73e:	0ff67613          	andi	a2,a2,255
     742:	0722                	slli	a4,a4,0x8
     744:	8f51                	or	a4,a4,a2
     746:	07c2                	slli	a5,a5,0x10
     748:	003f0637          	lui	a2,0x3f0
     74c:	8ff1                	and	a5,a5,a2
     74e:	8fd9                	or	a5,a5,a4
     750:	c91c                	sw	a5,16(a0)
     752:	0785                	addi	a5,a5,1
     754:	00d7d613          	srli	a2,a5,0xd
     758:	07ce                	slli	a5,a5,0x13
     75a:	0086d713          	srli	a4,a3,0x8
     75e:	c53c                	sw	a5,72(a0)
     760:	20000793          	li	a5,512
     764:	0ff77713          	andi	a4,a4,255
     768:	c570                	sw	a2,76(a0)
     76a:	c93c                	sw	a5,80(a0)
     76c:	bda9                	j	5c6 <SD_GetCardInfo+0x14e>

0000076e <CmdError>:
     76e:	a83ff2ef          	jal	t0,1f0 <__riscv_save_0>
     772:	6441                	lui	s0,0x10
     774:	54fd                	li	s1,-1
     776:	147d                	addi	s0,s0,-1
     778:	00941863          	bne	s0,s1,788 <CmdError+0x1a>
     77c:	5ff00513          	li	a0,1535
     780:	745010ef          	jal	ra,26c4 <SDIO_ClearFlag>
     784:	4501                	li	a0,0
     786:	b479                	j	214 <__riscv_restore_0>
     788:	08000513          	li	a0,128
     78c:	72b010ef          	jal	ra,26b6 <SDIO_GetFlagStatus>
     790:	d17d                	beqz	a0,776 <CmdError+0x8>
     792:	f46d                	bnez	s0,77c <CmdError+0xe>
     794:	450d                	li	a0,3
     796:	bfc5                	j	786 <CmdError+0x18>

00000798 <CmdResp7Error>:
     798:	a59ff2ef          	jal	t0,1f0 <__riscv_save_0>
     79c:	6741                	lui	a4,0x10
     79e:	4781                	li	a5,0
     7a0:	56fd                	li	a3,-1
     7a2:	40018637          	lui	a2,0x40018
     7a6:	177d                	addi	a4,a4,-1
     7a8:	00d71e63          	bne	a4,a3,7c4 <CmdResp7Error+0x2c>
     7ac:	0047f713          	andi	a4,a5,4
     7b0:	ef19                	bnez	a4,7ce <CmdResp7Error+0x36>
     7b2:	0407f793          	andi	a5,a5,64
     7b6:	4401                	li	s0,0
     7b8:	cf99                	beqz	a5,7d6 <CmdResp7Error+0x3e>
     7ba:	04000513          	li	a0,64
     7be:	707010ef          	jal	ra,26c4 <SDIO_ClearFlag>
     7c2:	a811                	j	7d6 <CmdResp7Error+0x3e>
     7c4:	5a5c                	lw	a5,52(a2)
     7c6:	0457f593          	andi	a1,a5,69
     7ca:	ddf1                	beqz	a1,7a6 <CmdResp7Error+0xe>
     7cc:	f365                	bnez	a4,7ac <CmdResp7Error+0x14>
     7ce:	4511                	li	a0,4
     7d0:	6f5010ef          	jal	ra,26c4 <SDIO_ClearFlag>
     7d4:	440d                	li	s0,3
     7d6:	8522                	mv	a0,s0
     7d8:	bc35                	j	214 <__riscv_restore_0>

000007da <CmdResp1Error>:
     7da:	a17ff2ef          	jal	t0,1f0 <__riscv_save_0>
     7de:	84aa                	mv	s1,a0
     7e0:	40018437          	lui	s0,0x40018
     7e4:	585c                	lw	a5,52(s0)
     7e6:	0457f793          	andi	a5,a5,69
     7ea:	dfed                	beqz	a5,7e4 <CmdResp1Error+0xa>
     7ec:	4511                	li	a0,4
     7ee:	6c9010ef          	jal	ra,26b6 <SDIO_GetFlagStatus>
     7f2:	c511                	beqz	a0,7fe <CmdResp1Error+0x24>
     7f4:	4511                	li	a0,4
     7f6:	6cf010ef          	jal	ra,26c4 <SDIO_ClearFlag>
     7fa:	450d                	li	a0,3
     7fc:	bc21                	j	214 <__riscv_restore_0>
     7fe:	4505                	li	a0,1
     800:	6b7010ef          	jal	ra,26b6 <SDIO_GetFlagStatus>
     804:	c511                	beqz	a0,810 <__stack_size+0x10>
     806:	4505                	li	a0,1
     808:	6bd010ef          	jal	ra,26c4 <SDIO_ClearFlag>
     80c:	4505                	li	a0,1
     80e:	b7fd                	j	7fc <CmdResp1Error+0x22>
     810:	481c                	lw	a5,16(s0)
     812:	4541                	li	a0,16
     814:	fe9794e3          	bne	a5,s1,7fc <CmdResp1Error+0x22>
     818:	5ff00793          	li	a5,1535
     81c:	dc1c                	sw	a5,56(s0)
     81e:	4848                	lw	a0,20(s0)
     820:	fdffe7b7          	lui	a5,0xfdffe
     824:	07a1                	addi	a5,a5,8
     826:	8d7d                	and	a0,a0,a5
     828:	bfd1                	j	7fc <CmdResp1Error+0x22>

0000082a <SD_SelectDeselect>:
     82a:	9c7ff2ef          	jal	t0,1f0 <__riscv_save_0>
     82e:	f2018793          	addi	a5,gp,-224 # 200007a0 <SDIO_CmdInitStructure>
     832:	469d                	li	a3,7
     834:	c3d4                	sw	a3,4(a5)
     836:	04000693          	li	a3,64
     83a:	c388                	sw	a0,0(a5)
     83c:	c794                	sw	a3,8(a5)
     83e:	f2018513          	addi	a0,gp,-224 # 200007a0 <SDIO_CmdInitStructure>
     842:	40000693          	li	a3,1024
     846:	0007a623          	sw	zero,12(a5) # fdffe00c <_eusrstack+0xddff600c>
     84a:	cb94                	sw	a3,16(a5)
     84c:	60f010ef          	jal	ra,265a <SDIO_SendCommand>
     850:	451d                	li	a0,7
     852:	3761                	jal	7da <CmdResp1Error>
     854:	b2c1                	j	214 <__riscv_restore_0>

00000856 <SD_ProcessIRQSrc>:
     856:	99bff2ef          	jal	t0,1f0 <__riscv_save_0>
     85a:	40018437          	lui	s0,0x40018
     85e:	585c                	lw	a5,52(s0)
     860:	1007f793          	andi	a5,a5,256
     864:	c3b5                	beqz	a5,8c8 <SD_ProcessIRQSrc+0x72>
     866:	8301c703          	lbu	a4,-2000(gp) # 200000b0 <StopCondition>
     86a:	4785                	li	a5,1
     86c:	83418413          	addi	s0,gp,-1996 # 200000b4 <TransferError>
     870:	04f71963          	bne	a4,a5,8c2 <SD_ProcessIRQSrc+0x6c>
     874:	f2018793          	addi	a5,gp,-224 # 200007a0 <SDIO_CmdInitStructure>
     878:	4731                	li	a4,12
     87a:	c3d8                	sw	a4,4(a5)
     87c:	04000713          	li	a4,64
     880:	c798                	sw	a4,8(a5)
     882:	f2018513          	addi	a0,gp,-224 # 200007a0 <SDIO_CmdInitStructure>
     886:	40000713          	li	a4,1024
     88a:	0007a023          	sw	zero,0(a5)
     88e:	0007a623          	sw	zero,12(a5)
     892:	cb98                	sw	a4,16(a5)
     894:	5c7010ef          	jal	ra,265a <SDIO_SendCommand>
     898:	4531                	li	a0,12
     89a:	3781                	jal	7da <CmdResp1Error>
     89c:	c008                	sw	a0,0(s0)
     89e:	400187b7          	lui	a5,0x40018
     8a2:	5f98                	lw	a4,56(a5)
     8a4:	76d1                	lui	a3,0xffff4
     8a6:	cc568693          	addi	a3,a3,-827 # ffff3cc5 <_eusrstack+0xdffebcc5>
     8aa:	10076713          	ori	a4,a4,256
     8ae:	df98                	sw	a4,56(a5)
     8b0:	5fd8                	lw	a4,60(a5)
     8b2:	8f75                	and	a4,a4,a3
     8b4:	dfd8                	sw	a4,60(a5)
     8b6:	4705                	li	a4,1
     8b8:	82e188a3          	sb	a4,-1999(gp) # 200000b1 <TransferEnd>
     8bc:	401c                	lw	a5,0(s0)
     8be:	853e                	mv	a0,a5
     8c0:	ba91                	j	214 <__riscv_restore_0>
     8c2:	00042023          	sw	zero,0(s0) # 40018000 <_eusrstack+0x20010000>
     8c6:	bfe1                	j	89e <SD_ProcessIRQSrc+0x48>
     8c8:	4509                	li	a0,2
     8ca:	5ed010ef          	jal	ra,26b6 <SDIO_GetFlagStatus>
     8ce:	cd19                	beqz	a0,8ec <SD_ProcessIRQSrc+0x96>
     8d0:	4509                	li	a0,2
     8d2:	5f3010ef          	jal	ra,26c4 <SDIO_ClearFlag>
     8d6:	5c5c                	lw	a5,60(s0)
     8d8:	7751                	lui	a4,0xffff4
     8da:	cc570713          	addi	a4,a4,-827 # ffff3cc5 <_eusrstack+0xdffebcc5>
     8de:	8ff9                	and	a5,a5,a4
     8e0:	dc5c                	sw	a5,60(s0)
     8e2:	4709                	li	a4,2
     8e4:	82e1aa23          	sw	a4,-1996(gp) # 200000b4 <TransferError>
     8e8:	4789                	li	a5,2
     8ea:	bfd1                	j	8be <SD_ProcessIRQSrc+0x68>
     8ec:	4521                	li	a0,8
     8ee:	5c9010ef          	jal	ra,26b6 <SDIO_GetFlagStatus>
     8f2:	cd19                	beqz	a0,910 <SD_ProcessIRQSrc+0xba>
     8f4:	4521                	li	a0,8
     8f6:	5cf010ef          	jal	ra,26c4 <SDIO_ClearFlag>
     8fa:	5c5c                	lw	a5,60(s0)
     8fc:	7751                	lui	a4,0xffff4
     8fe:	cc570713          	addi	a4,a4,-827 # ffff3cc5 <_eusrstack+0xdffebcc5>
     902:	8ff9                	and	a5,a5,a4
     904:	dc5c                	sw	a5,60(s0)
     906:	4711                	li	a4,4
     908:	82e1aa23          	sw	a4,-1996(gp) # 200000b4 <TransferError>
     90c:	4791                	li	a5,4
     90e:	bf45                	j	8be <SD_ProcessIRQSrc+0x68>
     910:	02000513          	li	a0,32
     914:	5a3010ef          	jal	ra,26b6 <SDIO_GetFlagStatus>
     918:	c105                	beqz	a0,938 <SD_ProcessIRQSrc+0xe2>
     91a:	02000513          	li	a0,32
     91e:	5a7010ef          	jal	ra,26c4 <SDIO_ClearFlag>
     922:	5c5c                	lw	a5,60(s0)
     924:	7751                	lui	a4,0xffff4
     926:	cc570713          	addi	a4,a4,-827 # ffff3cc5 <_eusrstack+0xdffebcc5>
     92a:	8ff9                	and	a5,a5,a4
     92c:	dc5c                	sw	a5,60(s0)
     92e:	4719                	li	a4,6
     930:	82e1aa23          	sw	a4,-1996(gp) # 200000b4 <TransferError>
     934:	4799                	li	a5,6
     936:	b761                	j	8be <SD_ProcessIRQSrc+0x68>
     938:	4541                	li	a0,16
     93a:	57d010ef          	jal	ra,26b6 <SDIO_GetFlagStatus>
     93e:	cd19                	beqz	a0,95c <SD_ProcessIRQSrc+0x106>
     940:	4541                	li	a0,16
     942:	583010ef          	jal	ra,26c4 <SDIO_ClearFlag>
     946:	5c5c                	lw	a5,60(s0)
     948:	7751                	lui	a4,0xffff4
     94a:	cc570713          	addi	a4,a4,-827 # ffff3cc5 <_eusrstack+0xdffebcc5>
     94e:	8ff9                	and	a5,a5,a4
     950:	dc5c                	sw	a5,60(s0)
     952:	4715                	li	a4,5
     954:	82e1aa23          	sw	a4,-1996(gp) # 200000b4 <TransferError>
     958:	4795                	li	a5,5
     95a:	b795                	j	8be <SD_ProcessIRQSrc+0x68>
     95c:	20000513          	li	a0,512
     960:	557010ef          	jal	ra,26b6 <SDIO_GetFlagStatus>
     964:	4781                	li	a5,0
     966:	dd21                	beqz	a0,8be <SD_ProcessIRQSrc+0x68>
     968:	20000513          	li	a0,512
     96c:	559010ef          	jal	ra,26c4 <SDIO_ClearFlag>
     970:	5c5c                	lw	a5,60(s0)
     972:	7751                	lui	a4,0xffff4
     974:	cc570713          	addi	a4,a4,-827 # ffff3cc5 <_eusrstack+0xdffebcc5>
     978:	8ff9                	and	a5,a5,a4
     97a:	dc5c                	sw	a5,60(s0)
     97c:	471d                	li	a4,7
     97e:	82e1aa23          	sw	a4,-1996(gp) # 200000b4 <TransferError>
     982:	479d                	li	a5,7
     984:	bf2d                	j	8be <SD_ProcessIRQSrc+0x68>

00000986 <SDIO_IRQHandler>:
     986:	3dc1                	jal	856 <SD_ProcessIRQSrc>
     988:	30200073          	mret

0000098c <CmdResp3Error>:
     98c:	865ff2ef          	jal	t0,1f0 <__riscv_save_0>
     990:	40018737          	lui	a4,0x40018
     994:	5b5c                	lw	a5,52(a4)
     996:	0457f793          	andi	a5,a5,69
     99a:	dfed                	beqz	a5,994 <CmdResp3Error+0x8>
     99c:	4511                	li	a0,4
     99e:	519010ef          	jal	ra,26b6 <SDIO_GetFlagStatus>
     9a2:	c519                	beqz	a0,9b0 <CmdResp3Error+0x24>
     9a4:	4511                	li	a0,4
     9a6:	51f010ef          	jal	ra,26c4 <SDIO_ClearFlag>
     9aa:	450d                	li	a0,3
     9ac:	869ff06f          	j	214 <__riscv_restore_0>
     9b0:	5ff00513          	li	a0,1535
     9b4:	511010ef          	jal	ra,26c4 <SDIO_ClearFlag>
     9b8:	4501                	li	a0,0
     9ba:	bfcd                	j	9ac <CmdResp3Error+0x20>

000009bc <SD_PowerON>:
     9bc:	80dff2ef          	jal	t0,1c8 <__riscv_save_10>
     9c0:	14c18793          	addi	a5,gp,332 # 200009cc <SDIO_InitStructure>
     9c4:	fb200713          	li	a4,-78
     9c8:	14c18513          	addi	a0,gp,332 # 200009cc <SDIO_InitStructure>
     9cc:	abd8                	sb	a4,20(a5)
     9ce:	0007a023          	sw	zero,0(a5) # 40018000 <_eusrstack+0x20010000>
     9d2:	0007a223          	sw	zero,4(a5)
     9d6:	0007a423          	sw	zero,8(a5)
     9da:	0007a623          	sw	zero,12(a5)
     9de:	0007a823          	sw	zero,16(a5)
     9e2:	409010ef          	jal	ra,25ea <SDIO_Init>
     9e6:	450d                	li	a0,3
     9e8:	443010ef          	jal	ra,262a <SDIO_SetPowerState>
     9ec:	4505                	li	a0,1
     9ee:	427010ef          	jal	ra,2614 <SDIO_ClockCmd>
     9f2:	04a00493          	li	s1,74
     9f6:	f2018413          	addi	s0,gp,-224 # 200007a0 <SDIO_CmdInitStructure>
     9fa:	40000a13          	li	s4,1024
     9fe:	89ca                	mv	s3,s2
     a00:	8522                	mv	a0,s0
     a02:	00042023          	sw	zero,0(s0)
     a06:	00042223          	sw	zero,4(s0)
     a0a:	00042423          	sw	zero,8(s0)
     a0e:	00042623          	sw	zero,12(s0)
     a12:	01442823          	sw	s4,16(s0)
     a16:	445010ef          	jal	ra,265a <SDIO_SendCommand>
     a1a:	3b91                	jal	76e <CmdError>
     a1c:	c519                	beqz	a0,a2a <SD_PowerON+0x6e>
     a1e:	14fd                	addi	s1,s1,-1
     a20:	0ff4f493          	andi	s1,s1,255
     a24:	fcf1                	bnez	s1,a00 <SD_PowerON+0x44>
     a26:	fdaff06f          	j	200 <__riscv_restore_10>
     a2a:	1aa00793          	li	a5,426
     a2e:	c01c                	sw	a5,0(s0)
     a30:	47a1                	li	a5,8
     a32:	c05c                	sw	a5,4(s0)
     a34:	04000793          	li	a5,64
     a38:	c41c                	sw	a5,8(s0)
     a3a:	f2018513          	addi	a0,gp,-224 # 200007a0 <SDIO_CmdInitStructure>
     a3e:	40000793          	li	a5,1024
     a42:	c81c                	sw	a5,16(s0)
     a44:	00042623          	sw	zero,12(s0)
     a48:	413010ef          	jal	ra,265a <SDIO_SendCommand>
     a4c:	33b1                	jal	798 <CmdResp7Error>
     a4e:	4481                	li	s1,0
     a50:	e511                	bnez	a0,a5c <SD_PowerON+0xa0>
     a52:	4705                	li	a4,1
     a54:	82e18423          	sb	a4,-2008(gp) # 200000a8 <CardType>
     a58:	400004b7          	lui	s1,0x40000
     a5c:	03700793          	li	a5,55
     a60:	c05c                	sw	a5,4(s0)
     a62:	04000793          	li	a5,64
     a66:	c41c                	sw	a5,8(s0)
     a68:	f2018513          	addi	a0,gp,-224 # 200007a0 <SDIO_CmdInitStructure>
     a6c:	40000793          	li	a5,1024
     a70:	c81c                	sw	a5,16(s0)
     a72:	00042023          	sw	zero,0(s0)
     a76:	00042623          	sw	zero,12(s0)
     a7a:	3e1010ef          	jal	ra,265a <SDIO_SendCommand>
     a7e:	03700513          	li	a0,55
     a82:	3ba1                	jal	7da <CmdResp1Error>
     a84:	4901                	li	s2,0
     a86:	e549                	bnez	a0,b10 <SD_PowerON+0x154>
     a88:	80100a37          	lui	s4,0x80100
     a8c:	0144ea33          	or	s4,s1,s4
     a90:	64c1                	lui	s1,0x10
     a92:	03700b93          	li	s7,55
     a96:	04000a93          	li	s5,64
     a9a:	40000b13          	li	s6,1024
     a9e:	02900c13          	li	s8,41
     aa2:	14fd                	addi	s1,s1,-1
     aa4:	f2018513          	addi	a0,gp,-224 # 200007a0 <SDIO_CmdInitStructure>
     aa8:	00042023          	sw	zero,0(s0)
     aac:	01742223          	sw	s7,4(s0)
     ab0:	01542423          	sw	s5,8(s0)
     ab4:	00042623          	sw	zero,12(s0)
     ab8:	01642823          	sw	s6,16(s0)
     abc:	39f010ef          	jal	ra,265a <SDIO_SendCommand>
     ac0:	03700513          	li	a0,55
     ac4:	3b19                	jal	7da <CmdResp1Error>
     ac6:	f125                	bnez	a0,a26 <SD_PowerON+0x6a>
     ac8:	f2018513          	addi	a0,gp,-224 # 200007a0 <SDIO_CmdInitStructure>
     acc:	01442023          	sw	s4,0(s0)
     ad0:	01842223          	sw	s8,4(s0)
     ad4:	01542423          	sw	s5,8(s0)
     ad8:	00042623          	sw	zero,12(s0)
     adc:	01642823          	sw	s6,16(s0)
     ae0:	37b010ef          	jal	ra,265a <SDIO_SendCommand>
     ae4:	3565                	jal	98c <CmdResp3Error>
     ae6:	f121                	bnez	a0,a26 <SD_PowerON+0x6a>
     ae8:	400187b7          	lui	a5,0x40018
     aec:	4bdc                	lw	a5,20(a5)
     aee:	0905                	addi	s2,s2,1
     af0:	0007c663          	bltz	a5,afc <SD_PowerON+0x140>
     af4:	fa9918e3          	bne	s2,s1,aa4 <SD_PowerON+0xe8>
     af8:	456d                	li	a0,27
     afa:	b735                	j	a26 <SD_PowerON+0x6a>
     afc:	fe990ee3          	beq	s2,s1,af8 <SD_PowerON+0x13c>
     b00:	00179713          	slli	a4,a5,0x1
     b04:	f20751e3          	bgez	a4,a26 <SD_PowerON+0x6a>
     b08:	4709                	li	a4,2
     b0a:	82e18423          	sb	a4,-2008(gp) # 200000a8 <CardType>
     b0e:	bf21                	j	a26 <SD_PowerON+0x6a>
     b10:	64c1                	lui	s1,0x10
     b12:	80ff8a37          	lui	s4,0x80ff8
     b16:	4a85                	li	s5,1
     b18:	04000b13          	li	s6,64
     b1c:	40000b93          	li	s7,1024
     b20:	40018c37          	lui	s8,0x40018
     b24:	14fd                	addi	s1,s1,-1
     b26:	f2018513          	addi	a0,gp,-224 # 200007a0 <SDIO_CmdInitStructure>
     b2a:	01442023          	sw	s4,0(s0)
     b2e:	01542223          	sw	s5,4(s0)
     b32:	01642423          	sw	s6,8(s0)
     b36:	00042623          	sw	zero,12(s0)
     b3a:	01742823          	sw	s7,16(s0)
     b3e:	31d010ef          	jal	ra,265a <SDIO_SendCommand>
     b42:	35a9                	jal	98c <CmdResp3Error>
     b44:	ee0511e3          	bnez	a0,a26 <SD_PowerON+0x6a>
     b48:	014c2783          	lw	a5,20(s8) # 40018014 <_eusrstack+0x20010014>
     b4c:	0905                	addi	s2,s2,1
     b4e:	0007c563          	bltz	a5,b58 <SD_PowerON+0x19c>
     b52:	fc991ae3          	bne	s2,s1,b26 <SD_PowerON+0x16a>
     b56:	b74d                	j	af8 <SD_PowerON+0x13c>
     b58:	fa9900e3          	beq	s2,s1,af8 <SD_PowerON+0x13c>
     b5c:	470d                	li	a4,3
     b5e:	b775                	j	b0a <SD_PowerON+0x14e>

00000b60 <CmdResp2Error>:
     b60:	e90ff2ef          	jal	t0,1f0 <__riscv_save_0>
     b64:	6741                	lui	a4,0x10
     b66:	4781                	li	a5,0
     b68:	56fd                	li	a3,-1
     b6a:	40018637          	lui	a2,0x40018
     b6e:	177d                	addi	a4,a4,-1
     b70:	02d71263          	bne	a4,a3,b94 <CmdResp2Error+0x34>
     b74:	8b91                	andi	a5,a5,4
     b76:	e785                	bnez	a5,b9e <CmdResp2Error+0x3e>
     b78:	4505                	li	a0,1
     b7a:	33d010ef          	jal	ra,26b6 <SDIO_GetFlagStatus>
     b7e:	4401                	li	s0,0
     b80:	c509                	beqz	a0,b8a <CmdResp2Error+0x2a>
     b82:	4505                	li	a0,1
     b84:	341010ef          	jal	ra,26c4 <SDIO_ClearFlag>
     b88:	4405                	li	s0,1
     b8a:	5ff00513          	li	a0,1535
     b8e:	337010ef          	jal	ra,26c4 <SDIO_ClearFlag>
     b92:	a811                	j	ba6 <CmdResp2Error+0x46>
     b94:	5a5c                	lw	a5,52(a2)
     b96:	0457f593          	andi	a1,a5,69
     b9a:	d9f1                	beqz	a1,b6e <CmdResp2Error+0xe>
     b9c:	ff61                	bnez	a4,b74 <CmdResp2Error+0x14>
     b9e:	4511                	li	a0,4
     ba0:	325010ef          	jal	ra,26c4 <SDIO_ClearFlag>
     ba4:	440d                	li	s0,3
     ba6:	8522                	mv	a0,s0
     ba8:	e6cff06f          	j	214 <__riscv_restore_0>

00000bac <CmdResp6Error>:
     bac:	e44ff2ef          	jal	t0,1f0 <__riscv_save_0>
     bb0:	892a                	mv	s2,a0
     bb2:	84ae                	mv	s1,a1
     bb4:	40018437          	lui	s0,0x40018
     bb8:	585c                	lw	a5,52(s0)
     bba:	0457f793          	andi	a5,a5,69
     bbe:	dfed                	beqz	a5,bb8 <CmdResp6Error+0xc>
     bc0:	4511                	li	a0,4
     bc2:	2f5010ef          	jal	ra,26b6 <SDIO_GetFlagStatus>
     bc6:	c519                	beqz	a0,bd4 <CmdResp6Error+0x28>
     bc8:	4511                	li	a0,4
     bca:	2fb010ef          	jal	ra,26c4 <SDIO_ClearFlag>
     bce:	450d                	li	a0,3
     bd0:	e44ff06f          	j	214 <__riscv_restore_0>
     bd4:	4505                	li	a0,1
     bd6:	2e1010ef          	jal	ra,26b6 <SDIO_GetFlagStatus>
     bda:	c511                	beqz	a0,be6 <CmdResp6Error+0x3a>
     bdc:	4505                	li	a0,1
     bde:	2e7010ef          	jal	ra,26c4 <SDIO_ClearFlag>
     be2:	4505                	li	a0,1
     be4:	b7f5                	j	bd0 <CmdResp6Error+0x24>
     be6:	481c                	lw	a5,16(s0)
     be8:	01278463          	beq	a5,s2,bf0 <CmdResp6Error+0x44>
     bec:	4541                	li	a0,16
     bee:	b7cd                	j	bd0 <CmdResp6Error+0x24>
     bf0:	5ff00513          	li	a0,1535
     bf4:	2d1010ef          	jal	ra,26c4 <SDIO_ClearFlag>
     bf8:	485c                	lw	a5,20(s0)
     bfa:	6739                	lui	a4,0xe
     bfc:	8f7d                	and	a4,a4,a5
     bfe:	e709                	bnez	a4,c08 <CmdResp6Error+0x5c>
     c00:	83c1                	srli	a5,a5,0x10
     c02:	a09e                	sh	a5,0(s1)
     c04:	4501                	li	a0,0
     c06:	b7e9                	j	bd0 <CmdResp6Error+0x24>
     c08:	01279713          	slli	a4,a5,0x12
     c0c:	454d                	li	a0,19
     c0e:	fc0741e3          	bltz	a4,bd0 <CmdResp6Error+0x24>
     c12:	01179713          	slli	a4,a5,0x11
     c16:	fc074be3          	bltz	a4,bec <CmdResp6Error+0x40>
     c1a:	01079713          	slli	a4,a5,0x10
     c1e:	4501                	li	a0,0
     c20:	fa0758e3          	bgez	a4,bd0 <CmdResp6Error+0x24>
     c24:	453d                	li	a0,15
     c26:	b76d                	j	bd0 <CmdResp6Error+0x24>

00000c28 <SD_InitializeCards>:
     c28:	dc8ff2ef          	jal	t0,1f0 <__riscv_save_0>
     c2c:	4785                	li	a5,1
     c2e:	1141                	addi	sp,sp,-16
     c30:	877c                	sh	a5,14(sp)
     c32:	20b010ef          	jal	ra,263c <SDIO_GetPowerState>
     c36:	02500793          	li	a5,37
     c3a:	0c050863          	beqz	a0,d0a <SD_InitializeCards+0xe2>
     c3e:	8281c703          	lbu	a4,-2008(gp) # 200000a8 <CardType>
     c42:	4791                	li	a5,4
     c44:	82818413          	addi	s0,gp,-2008 # 200000a8 <CardType>
     c48:	04f70363          	beq	a4,a5,c8e <SD_InitializeCards+0x66>
     c4c:	f2018793          	addi	a5,gp,-224 # 200007a0 <SDIO_CmdInitStructure>
     c50:	4709                	li	a4,2
     c52:	c3d8                	sw	a4,4(a5)
     c54:	0c000713          	li	a4,192
     c58:	c798                	sw	a4,8(a5)
     c5a:	f2018513          	addi	a0,gp,-224 # 200007a0 <SDIO_CmdInitStructure>
     c5e:	40000713          	li	a4,1024
     c62:	0007a023          	sw	zero,0(a5) # 40018000 <_eusrstack+0x20010000>
     c66:	0007a623          	sw	zero,12(a5)
     c6a:	cb98                	sw	a4,16(a5)
     c6c:	1ef010ef          	jal	ra,265a <SDIO_SendCommand>
     c70:	3dc5                	jal	b60 <CmdResp2Error>
     c72:	87aa                	mv	a5,a0
     c74:	e959                	bnez	a0,d0a <SD_InitializeCards+0xe2>
     c76:	40018737          	lui	a4,0x40018
     c7a:	4b54                	lw	a3,20(a4)
     c7c:	ea818793          	addi	a5,gp,-344 # 20000728 <CID_Tab>
     c80:	c394                	sw	a3,0(a5)
     c82:	4f14                	lw	a3,24(a4)
     c84:	c3d4                	sw	a3,4(a5)
     c86:	4f54                	lw	a3,28(a4)
     c88:	c794                	sw	a3,8(a5)
     c8a:	5318                	lw	a4,32(a4)
     c8c:	c7d8                	sw	a4,12(a5)
     c8e:	201c                	lbu	a5,0(s0)
     c90:	4709                	li	a4,2
     c92:	04f77463          	bgeu	a4,a5,cda <SD_InitializeCards+0xb2>
     c96:	4719                	li	a4,6
     c98:	04e78163          	beq	a5,a4,cda <SD_InitializeCards+0xb2>
     c9c:	2014                	lbu	a3,0(s0)
     c9e:	478d                	li	a5,3
     ca0:	02f69763          	bne	a3,a5,cce <SD_InitializeCards+0xa6>
     ca4:	8738                	lhu	a4,14(sp)
     ca6:	f2018793          	addi	a5,gp,-224 # 200007a0 <SDIO_CmdInitStructure>
     caa:	0742                	slli	a4,a4,0x10
     cac:	c398                	sw	a4,0(a5)
     cae:	04000713          	li	a4,64
     cb2:	c798                	sw	a4,8(a5)
     cb4:	f2018513          	addi	a0,gp,-224 # 200007a0 <SDIO_CmdInitStructure>
     cb8:	40000713          	li	a4,1024
     cbc:	c3d4                	sw	a3,4(a5)
     cbe:	0007a623          	sw	zero,12(a5)
     cc2:	cb98                	sw	a4,16(a5)
     cc4:	197010ef          	jal	ra,265a <SDIO_SendCommand>
     cc8:	3d61                	jal	b60 <CmdResp2Error>
     cca:	87aa                	mv	a5,a0
     ccc:	ed1d                	bnez	a0,d0a <SD_InitializeCards+0xe2>
     cce:	2018                	lbu	a4,0(s0)
     cd0:	4791                	li	a5,4
     cd2:	04f71063          	bne	a4,a5,d12 <SD_InitializeCards+0xea>
     cd6:	4781                	li	a5,0
     cd8:	a80d                	j	d0a <SD_InitializeCards+0xe2>
     cda:	f2018793          	addi	a5,gp,-224 # 200007a0 <SDIO_CmdInitStructure>
     cde:	470d                	li	a4,3
     ce0:	c3d8                	sw	a4,4(a5)
     ce2:	04000713          	li	a4,64
     ce6:	c798                	sw	a4,8(a5)
     ce8:	f2018513          	addi	a0,gp,-224 # 200007a0 <SDIO_CmdInitStructure>
     cec:	40000713          	li	a4,1024
     cf0:	0007a023          	sw	zero,0(a5)
     cf4:	0007a623          	sw	zero,12(a5)
     cf8:	cb98                	sw	a4,16(a5)
     cfa:	161010ef          	jal	ra,265a <SDIO_SendCommand>
     cfe:	00e10593          	addi	a1,sp,14
     d02:	450d                	li	a0,3
     d04:	3565                	jal	bac <CmdResp6Error>
     d06:	87aa                	mv	a5,a0
     d08:	d951                	beqz	a0,c9c <SD_InitializeCards+0x74>
     d0a:	853e                	mv	a0,a5
     d0c:	0141                	addi	sp,sp,16
     d0e:	d06ff06f          	j	214 <__riscv_restore_0>
     d12:	8738                	lhu	a4,14(sp)
     d14:	82e1a623          	sw	a4,-2004(gp) # 200000ac <RCA>
     d18:	f2018793          	addi	a5,gp,-224 # 200007a0 <SDIO_CmdInitStructure>
     d1c:	0742                	slli	a4,a4,0x10
     d1e:	c398                	sw	a4,0(a5)
     d20:	4725                	li	a4,9
     d22:	c3d8                	sw	a4,4(a5)
     d24:	0c000713          	li	a4,192
     d28:	c798                	sw	a4,8(a5)
     d2a:	f2018513          	addi	a0,gp,-224 # 200007a0 <SDIO_CmdInitStructure>
     d2e:	40000713          	li	a4,1024
     d32:	0007a623          	sw	zero,12(a5)
     d36:	cb98                	sw	a4,16(a5)
     d38:	123010ef          	jal	ra,265a <SDIO_SendCommand>
     d3c:	3515                	jal	b60 <CmdResp2Error>
     d3e:	87aa                	mv	a5,a0
     d40:	f569                	bnez	a0,d0a <SD_InitializeCards+0xe2>
     d42:	400186b7          	lui	a3,0x40018
     d46:	4ad0                	lw	a2,20(a3)
     d48:	eb818713          	addi	a4,gp,-328 # 20000738 <CSD_Tab>
     d4c:	c310                	sw	a2,0(a4)
     d4e:	4e90                	lw	a2,24(a3)
     d50:	c350                	sw	a2,4(a4)
     d52:	4ed0                	lw	a2,28(a3)
     d54:	c710                	sw	a2,8(a4)
     d56:	5294                	lw	a3,32(a3)
     d58:	c754                	sw	a3,12(a4)
     d5a:	bf45                	j	d0a <SD_InitializeCards+0xe2>

00000d5c <IsCardProgramming>:
     d5c:	c94ff2ef          	jal	t0,1f0 <__riscv_save_0>
     d60:	82c1a703          	lw	a4,-2004(gp) # 200000ac <RCA>
     d64:	84aa                	mv	s1,a0
     d66:	f2018793          	addi	a5,gp,-224 # 200007a0 <SDIO_CmdInitStructure>
     d6a:	0742                	slli	a4,a4,0x10
     d6c:	c398                	sw	a4,0(a5)
     d6e:	4735                	li	a4,13
     d70:	1141                	addi	sp,sp,-16
     d72:	c3d8                	sw	a4,4(a5)
     d74:	04000713          	li	a4,64
     d78:	c798                	sw	a4,8(a5)
     d7a:	c402                	sw	zero,8(sp)
     d7c:	40000713          	li	a4,1024
     d80:	f2018513          	addi	a0,gp,-224 # 200007a0 <SDIO_CmdInitStructure>
     d84:	cb98                	sw	a4,16(a5)
     d86:	0007a623          	sw	zero,12(a5)
     d8a:	c602                	sw	zero,12(sp)
     d8c:	0cf010ef          	jal	ra,265a <SDIO_SendCommand>
     d90:	400187b7          	lui	a5,0x40018
     d94:	5bdc                	lw	a5,52(a5)
     d96:	40018737          	lui	a4,0x40018
     d9a:	c63e                	sw	a5,12(sp)
     d9c:	47b2                	lw	a5,12(sp)
     d9e:	0457f793          	andi	a5,a5,69
     da2:	cf81                	beqz	a5,dba <IsCardProgramming+0x5e>
     da4:	4505                	li	a0,1
     da6:	111010ef          	jal	ra,26b6 <SDIO_GetFlagStatus>
     daa:	c919                	beqz	a0,dc0 <IsCardProgramming+0x64>
     dac:	4505                	li	a0,1
     dae:	117010ef          	jal	ra,26c4 <SDIO_ClearFlag>
     db2:	4505                	li	a0,1
     db4:	0141                	addi	sp,sp,16
     db6:	c5eff06f          	j	214 <__riscv_restore_0>
     dba:	5b5c                	lw	a5,52(a4)
     dbc:	c63e                	sw	a5,12(sp)
     dbe:	bff9                	j	d9c <IsCardProgramming+0x40>
     dc0:	4511                	li	a0,4
     dc2:	0f5010ef          	jal	ra,26b6 <SDIO_GetFlagStatus>
     dc6:	c511                	beqz	a0,dd2 <IsCardProgramming+0x76>
     dc8:	4511                	li	a0,4
     dca:	0fb010ef          	jal	ra,26c4 <SDIO_ClearFlag>
     dce:	450d                	li	a0,3
     dd0:	b7d5                	j	db4 <IsCardProgramming+0x58>
     dd2:	40018437          	lui	s0,0x40018
     dd6:	4818                	lw	a4,16(s0)
     dd8:	47b5                	li	a5,13
     dda:	4541                	li	a0,16
     ddc:	fcf71ce3          	bne	a4,a5,db4 <IsCardProgramming+0x58>
     de0:	5ff00513          	li	a0,1535
     de4:	0e1010ef          	jal	ra,26c4 <SDIO_ClearFlag>
     de8:	485c                	lw	a5,20(s0)
     dea:	4501                	li	a0,0
     dec:	c43e                	sw	a5,8(sp)
     dee:	47a2                	lw	a5,8(sp)
     df0:	83a5                	srli	a5,a5,0x9
     df2:	8bbd                	andi	a5,a5,15
     df4:	a09c                	sb	a5,0(s1)
     df6:	bf7d                	j	db4 <IsCardProgramming+0x58>

00000df8 <FindSCR>:
     df8:	bdeff2ef          	jal	t0,1d6 <__riscv_save_4>
     dfc:	f2018413          	addi	s0,gp,-224 # 200007a0 <SDIO_CmdInitStructure>
     e00:	47c1                	li	a5,16
     e02:	f2018513          	addi	a0,gp,-224 # 200007a0 <SDIO_CmdInitStructure>
     e06:	4b21                	li	s6,8
     e08:	04000a93          	li	s5,64
     e0c:	40000a13          	li	s4,1024
     e10:	89ae                	mv	s3,a1
     e12:	c05c                	sw	a5,4(s0)
     e14:	01642023          	sw	s6,0(s0) # 40018000 <_eusrstack+0x20010000>
     e18:	01542423          	sw	s5,8(s0)
     e1c:	00042623          	sw	zero,12(s0)
     e20:	01442823          	sw	s4,16(s0)
     e24:	037010ef          	jal	ra,265a <SDIO_SendCommand>
     e28:	4541                	li	a0,16
     e2a:	9b1ff0ef          	jal	ra,7da <CmdResp1Error>
     e2e:	84aa                	mv	s1,a0
     e30:	0c051763          	bnez	a0,efe <FindSCR+0x106>
     e34:	82c1a783          	lw	a5,-2004(gp) # 200000ac <RCA>
     e38:	f2018513          	addi	a0,gp,-224 # 200007a0 <SDIO_CmdInitStructure>
     e3c:	01542423          	sw	s5,8(s0)
     e40:	07c2                	slli	a5,a5,0x10
     e42:	c01c                	sw	a5,0(s0)
     e44:	03700793          	li	a5,55
     e48:	c05c                	sw	a5,4(s0)
     e4a:	00042623          	sw	zero,12(s0)
     e4e:	01442823          	sw	s4,16(s0)
     e52:	009010ef          	jal	ra,265a <SDIO_SendCommand>
     e56:	03700513          	li	a0,55
     e5a:	981ff0ef          	jal	ra,7da <CmdResp1Error>
     e5e:	84aa                	mv	s1,a0
     e60:	ed59                	bnez	a0,efe <FindSCR+0x106>
     e62:	13418793          	addi	a5,gp,308 # 200009b4 <SDIO_DataInitStructure>
     e66:	577d                	li	a4,-1
     e68:	c398                	sw	a4,0(a5)
     e6a:	03000713          	li	a4,48
     e6e:	c798                	sw	a4,8(a5)
     e70:	4709                	li	a4,2
     e72:	c7d8                	sw	a4,12(a5)
     e74:	13418513          	addi	a0,gp,308 # 200009b4 <SDIO_DataInitStructure>
     e78:	4705                	li	a4,1
     e7a:	cbd8                	sw	a4,20(a5)
     e7c:	0167a223          	sw	s6,4(a5) # 40018004 <_eusrstack+0x20010004>
     e80:	0007a823          	sw	zero,16(a5)
     e84:	7f8010ef          	jal	ra,267c <SDIO_DataConfig>
     e88:	03300793          	li	a5,51
     e8c:	f2018513          	addi	a0,gp,-224 # 200007a0 <SDIO_CmdInitStructure>
     e90:	c05c                	sw	a5,4(s0)
     e92:	00042023          	sw	zero,0(s0)
     e96:	01542423          	sw	s5,8(s0)
     e9a:	00042623          	sw	zero,12(s0)
     e9e:	01442823          	sw	s4,16(s0)
     ea2:	7b8010ef          	jal	ra,265a <SDIO_SendCommand>
     ea6:	03300513          	li	a0,51
     eaa:	931ff0ef          	jal	ra,7da <CmdResp1Error>
     eae:	84aa                	mv	s1,a0
     eb0:	e539                	bnez	a0,efe <FindSCR+0x106>
     eb2:	40018937          	lui	s2,0x40018
     eb6:	03492403          	lw	s0,52(s2) # 40018034 <_eusrstack+0x20010034>
     eba:	62a47413          	andi	s0,s0,1578
     ebe:	e039                	bnez	s0,f04 <FindSCR+0x10c>
     ec0:	00200537          	lui	a0,0x200
     ec4:	7f2010ef          	jal	ra,26b6 <SDIO_GetFlagStatus>
     ec8:	d57d                	beqz	a0,eb6 <FindSCR+0xbe>
     eca:	7d8010ef          	jal	ra,26a2 <SDIO_ReadData>
     ece:	892a                	mv	s2,a0
     ed0:	40018a37          	lui	s4,0x40018
     ed4:	034a2783          	lw	a5,52(s4) # 40018034 <_eusrstack+0x20010034>
     ed8:	62a7f793          	andi	a5,a5,1578
     edc:	eb89                	bnez	a5,eee <FindSCR+0xf6>
     ede:	00200537          	lui	a0,0x200
     ee2:	7d4010ef          	jal	ra,26b6 <SDIO_GetFlagStatus>
     ee6:	d57d                	beqz	a0,ed4 <FindSCR+0xdc>
     ee8:	7ba010ef          	jal	ra,26a2 <SDIO_ReadData>
     eec:	842a                	mv	s0,a0
     eee:	4521                	li	a0,8
     ef0:	7c6010ef          	jal	ra,26b6 <SDIO_GetFlagStatus>
     ef4:	c919                	beqz	a0,f0a <FindSCR+0x112>
     ef6:	4521                	li	a0,8
     ef8:	7cc010ef          	jal	ra,26c4 <SDIO_ClearFlag>
     efc:	4491                	li	s1,4
     efe:	8526                	mv	a0,s1
     f00:	b0aff06f          	j	20a <__riscv_restore_4>
     f04:	4401                	li	s0,0
     f06:	4901                	li	s2,0
     f08:	b7dd                	j	eee <FindSCR+0xf6>
     f0a:	4509                	li	a0,2
     f0c:	7aa010ef          	jal	ra,26b6 <SDIO_GetFlagStatus>
     f10:	c511                	beqz	a0,f1c <FindSCR+0x124>
     f12:	4509                	li	a0,2
     f14:	7b0010ef          	jal	ra,26c4 <SDIO_ClearFlag>
     f18:	4489                	li	s1,2
     f1a:	b7d5                	j	efe <FindSCR+0x106>
     f1c:	02000513          	li	a0,32
     f20:	796010ef          	jal	ra,26b6 <SDIO_GetFlagStatus>
     f24:	c519                	beqz	a0,f32 <FindSCR+0x13a>
     f26:	02000513          	li	a0,32
     f2a:	79a010ef          	jal	ra,26c4 <SDIO_ClearFlag>
     f2e:	4499                	li	s1,6
     f30:	b7f9                	j	efe <FindSCR+0x106>
     f32:	20000513          	li	a0,512
     f36:	780010ef          	jal	ra,26b6 <SDIO_GetFlagStatus>
     f3a:	c519                	beqz	a0,f48 <FindSCR+0x150>
     f3c:	20000513          	li	a0,512
     f40:	784010ef          	jal	ra,26c4 <SDIO_ClearFlag>
     f44:	449d                	li	s1,7
     f46:	bf65                	j	efe <FindSCR+0x106>
     f48:	5ff00513          	li	a0,1535
     f4c:	778010ef          	jal	ra,26c4 <SDIO_ClearFlag>
     f50:	01895793          	srli	a5,s2,0x18
     f54:	01891713          	slli	a4,s2,0x18
     f58:	00891693          	slli	a3,s2,0x8
     f5c:	00ff0637          	lui	a2,0xff0
     f60:	8f5d                	or	a4,a4,a5
     f62:	8ef1                	and	a3,a3,a2
     f64:	8f55                	or	a4,a4,a3
     f66:	66c1                	lui	a3,0x10
     f68:	f0068693          	addi	a3,a3,-256 # ff00 <_data_lma+0xa398>
     f6c:	00895913          	srli	s2,s2,0x8
     f70:	00d97933          	and	s2,s2,a3
     f74:	01276933          	or	s2,a4,s2
     f78:	01841793          	slli	a5,s0,0x18
     f7c:	01845713          	srli	a4,s0,0x18
     f80:	8fd9                	or	a5,a5,a4
     f82:	00841713          	slli	a4,s0,0x8
     f86:	8f71                	and	a4,a4,a2
     f88:	8021                	srli	s0,s0,0x8
     f8a:	8fd9                	or	a5,a5,a4
     f8c:	8c75                	and	s0,s0,a3
     f8e:	8c5d                	or	s0,s0,a5
     f90:	0129a223          	sw	s2,4(s3)
     f94:	0089a023          	sw	s0,0(s3)
     f98:	b79d                	j	efe <FindSCR+0x106>

00000f9a <SDEnWideBus>:
     f9a:	a3cff2ef          	jal	t0,1d6 <__riscv_save_4>
     f9e:	1141                	addi	sp,sp,-16
     fa0:	c402                	sw	zero,8(sp)
     fa2:	c602                	sw	zero,12(sp)
     fa4:	4989                	li	s3,2
     fa6:	e111                	bnez	a0,faa <SDEnWideBus+0x10>
     fa8:	89aa                	mv	s3,a0
     faa:	400187b7          	lui	a5,0x40018
     fae:	4bdc                	lw	a5,20(a5)
     fb0:	4539                	li	a0,14
     fb2:	00679713          	slli	a4,a5,0x6
     fb6:	06074963          	bltz	a4,1028 <SDEnWideBus+0x8e>
     fba:	82c18493          	addi	s1,gp,-2004 # 200000ac <RCA>
     fbe:	208a                	lhu	a0,0(s1)
     fc0:	002c                	addi	a1,sp,8
     fc2:	3d1d                	jal	df8 <FindSCR>
     fc4:	e135                	bnez	a0,1028 <SDEnWideBus+0x8e>
     fc6:	47b2                	lw	a5,12(sp)
     fc8:	02500513          	li	a0,37
     fcc:	00d79713          	slli	a4,a5,0xd
     fd0:	04075c63          	bgez	a4,1028 <SDEnWideBus+0x8e>
     fd4:	409c                	lw	a5,0(s1)
     fd6:	f2018413          	addi	s0,gp,-224 # 200007a0 <SDIO_CmdInitStructure>
     fda:	07c2                	slli	a5,a5,0x10
     fdc:	c01c                	sw	a5,0(s0)
     fde:	f2018513          	addi	a0,gp,-224 # 200007a0 <SDIO_CmdInitStructure>
     fe2:	03700793          	li	a5,55
     fe6:	04000a13          	li	s4,64
     fea:	40000493          	li	s1,1024
     fee:	c05c                	sw	a5,4(s0)
     ff0:	01442423          	sw	s4,8(s0)
     ff4:	00042623          	sw	zero,12(s0)
     ff8:	c804                	sw	s1,16(s0)
     ffa:	660010ef          	jal	ra,265a <SDIO_SendCommand>
     ffe:	03700513          	li	a0,55
    1002:	fd8ff0ef          	jal	ra,7da <CmdResp1Error>
    1006:	e10d                	bnez	a0,1028 <SDEnWideBus+0x8e>
    1008:	4799                	li	a5,6
    100a:	f2018513          	addi	a0,gp,-224 # 200007a0 <SDIO_CmdInitStructure>
    100e:	01342023          	sw	s3,0(s0)
    1012:	c05c                	sw	a5,4(s0)
    1014:	01442423          	sw	s4,8(s0)
    1018:	00042623          	sw	zero,12(s0)
    101c:	c804                	sw	s1,16(s0)
    101e:	63c010ef          	jal	ra,265a <SDIO_SendCommand>
    1022:	4519                	li	a0,6
    1024:	fb6ff0ef          	jal	ra,7da <CmdResp1Error>
    1028:	0141                	addi	sp,sp,16
    102a:	9e0ff06f          	j	20a <__riscv_restore_4>

0000102e <SD_EnableWideBusOperation>:
    102e:	8281c783          	lbu	a5,-2008(gp) # 200000a8 <CardType>
    1032:	470d                	li	a4,3
    1034:	04e78263          	beq	a5,a4,1078 <SD_EnableWideBusOperation+0x4a>
    1038:	9b8ff2ef          	jal	t0,1f0 <__riscv_save_0>
    103c:	4709                	li	a4,2
    103e:	842a                	mv	s0,a0
    1040:	4501                	li	a0,0
    1042:	02f76963          	bltu	a4,a5,1074 <SD_EnableWideBusOperation+0x46>
    1046:	4785                	li	a5,1
    1048:	02700513          	li	a0,39
    104c:	0287e463          	bltu	a5,s0,1074 <SD_EnableWideBusOperation+0x46>
    1050:	0ff47513          	andi	a0,s0,255
    1054:	3799                	jal	f9a <SDEnWideBus>
    1056:	ed19                	bnez	a0,1074 <SD_EnableWideBusOperation+0x46>
    1058:	400187b7          	lui	a5,0x40018
    105c:	43d8                	lw	a4,4(a5)
    105e:	76f9                	lui	a3,0xffffe
    1060:	7ff68693          	addi	a3,a3,2047 # ffffe7ff <_eusrstack+0xdfff67ff>
    1064:	8f75                	and	a4,a4,a3
    1066:	c3d8                	sw	a4,4(a5)
    1068:	43d8                	lw	a4,4(a5)
    106a:	042e                	slli	s0,s0,0xb
    106c:	8c59                	or	s0,s0,a4
    106e:	c3c0                	sw	s0,4(a5)
    1070:	43d8                	lw	a4,4(a5)
    1072:	c3d8                	sw	a4,4(a5)
    1074:	9a0ff06f          	j	214 <__riscv_restore_0>
    1078:	02700513          	li	a0,39
    107c:	8082                	ret

0000107e <SD_Init>:
    107e:	972ff2ef          	jal	t0,1f0 <__riscv_save_0>
    1082:	1101                	addi	sp,sp,-32
    1084:	4585                	li	a1,1
    1086:	03000513          	li	a0,48
    108a:	512010ef          	jal	ra,259c <RCC_APB2PeriphClockCmd>
    108e:	4585                	li	a1,1
    1090:	40200513          	li	a0,1026
    1094:	4ea010ef          	jal	ra,257e <RCC_AHBPeriphClockCmd>
    1098:	6789                	lui	a5,0x2
    109a:	f0078793          	addi	a5,a5,-256 # 1f00 <SystemInit+0x92>
    109e:	440d                	li	s0,3
    10a0:	44e1                	li	s1,24
    10a2:	084c                	addi	a1,sp,20
    10a4:	40011537          	lui	a0,0x40011
    10a8:	82fc                	sh	a5,20(sp)
    10aa:	cc22                	sw	s0,24(sp)
    10ac:	ce26                	sw	s1,28(sp)
    10ae:	232010ef          	jal	ra,22e0 <GPIO_Init>
    10b2:	cc22                	sw	s0,24(sp)
    10b4:	40011437          	lui	s0,0x40011
    10b8:	4791                	li	a5,4
    10ba:	084c                	addi	a1,sp,20
    10bc:	40040513          	addi	a0,s0,1024 # 40011400 <_eusrstack+0x20009400>
    10c0:	82fc                	sh	a5,20(sp)
    10c2:	ce26                	sw	s1,28(sp)
    10c4:	21c010ef          	jal	ra,22e0 <GPIO_Init>
    10c8:	08000793          	li	a5,128
    10cc:	084c                	addi	a1,sp,20
    10ce:	40040513          	addi	a0,s0,1024
    10d2:	82fc                	sh	a5,20(sp)
    10d4:	04800793          	li	a5,72
    10d8:	ce3e                	sw	a5,28(sp)
    10da:	206010ef          	jal	ra,22e0 <GPIO_Init>
    10de:	4dc010ef          	jal	ra,25ba <SDIO_DeInit>
    10e2:	04100793          	li	a5,65
    10e6:	867c                	sh	a5,12(sp)
    10e8:	0068                	addi	a0,sp,12
    10ea:	4785                	li	a5,1
    10ec:	c83e                	sw	a5,16(sp)
    10ee:	00010723          	sb	zero,14(sp)
    10f2:	2c8010ef          	jal	ra,23ba <NVIC_Init>
    10f6:	8c7ff0ef          	jal	ra,9bc <SD_PowerON>
    10fa:	e121                	bnez	a0,113a <SD_Init+0xbc>
    10fc:	3635                	jal	c28 <SD_InitializeCards>
    10fe:	ed15                	bnez	a0,113a <SD_Init+0xbc>
    1100:	ec818413          	addi	s0,gp,-312 # 20000748 <SDCardInfo>
    1104:	ec818513          	addi	a0,gp,-312 # 20000748 <SDCardInfo>
    1108:	b70ff0ef          	jal	ra,478 <SD_GetCardInfo>
    110c:	e51d                	bnez	a0,113a <SD_Init+0xbc>
    110e:	05445503          	lhu	a0,84(s0)
    1112:	0542                	slli	a0,a0,0x10
    1114:	f16ff0ef          	jal	ra,82a <SD_SelectDeselect>
    1118:	e10d                	bnez	a0,113a <SD_Init+0xbc>
    111a:	4505                	li	a0,1
    111c:	3f09                	jal	102e <SD_EnableWideBusOperation>
    111e:	ed11                	bnez	a0,113a <SD_Init+0xbc>
    1120:	f1e1c703          	lbu	a4,-226(gp) # 2000079e <SDCardInfo+0x56>
    1124:	4785                	li	a5,1
    1126:	4519                	li	a0,6
    1128:	00e7f363          	bgeu	a5,a4,112e <SD_Init+0xb0>
    112c:	4505                	li	a0,1
    112e:	b3aff0ef          	jal	ra,468 <SDIO_Clock_Set>
    1132:	820184a3          	sb	zero,-2007(gp) # 200000a9 <DeviceMode>
    1136:	4501                	li	a0,0
    1138:	a031                	j	1144 <SD_Init+0xc6>
    113a:	8281c703          	lbu	a4,-2008(gp) # 200000a8 <CardType>
    113e:	478d                	li	a5,3
    1140:	fef700e3          	beq	a4,a5,1120 <SD_Init+0xa2>
    1144:	6105                	addi	sp,sp,32
    1146:	8ceff06f          	j	214 <__riscv_restore_0>

0000114a <convert_from_bytes_to_power_of_two>:
    114a:	4781                	li	a5,0
    114c:	4705                	li	a4,1
    114e:	00e51463          	bne	a0,a4,1156 <convert_from_bytes_to_power_of_two+0xc>
    1152:	853e                	mv	a0,a5
    1154:	8082                	ret
    1156:	0785                	addi	a5,a5,1
    1158:	8105                	srli	a0,a0,0x1
    115a:	0ff7f793          	andi	a5,a5,255
    115e:	bfc5                	j	114e <convert_from_bytes_to_power_of_two+0x4>

00001160 <SD_DMA_Config>:
    1160:	890ff2ef          	jal	t0,1f0 <__riscv_save_0>
    1164:	7139                	addi	sp,sp,-64
    1166:	892a                	mv	s2,a0
    1168:	84ae                	mv	s1,a1
    116a:	4509                	li	a0,2
    116c:	4585                	li	a1,1
    116e:	40020437          	lui	s0,0x40020
    1172:	c632                	sw	a2,12(sp)
    1174:	40a010ef          	jal	ra,257e <RCC_AHBPeriphClockCmd>
    1178:	44440513          	addi	a0,s0,1092 # 40020444 <_eusrstack+0x20018444>
    117c:	7ad000ef          	jal	ra,2128 <DMA_DeInit>
    1180:	44440513          	addi	a0,s0,1092
    1184:	4581                	li	a1,0
    1186:	146010ef          	jal	ra,22cc <DMA_Cmd>
    118a:	400187b7          	lui	a5,0x40018
    118e:	08078793          	addi	a5,a5,128 # 40018080 <_eusrstack+0x20010080>
    1192:	ca3e                	sw	a5,20(sp)
    1194:	08000793          	li	a5,128
    1198:	d43e                	sw	a5,40(sp)
    119a:	20000793          	li	a5,512
    119e:	4632                	lw	a2,12(sp)
    11a0:	d63e                	sw	a5,44(sp)
    11a2:	6785                	lui	a5,0x1
    11a4:	80078793          	addi	a5,a5,-2048 # 800 <__stack_size>
    11a8:	d83e                	sw	a5,48(sp)
    11aa:	084c                	addi	a1,sp,20
    11ac:	6789                	lui	a5,0x2
    11ae:	44440513          	addi	a0,s0,1092
    11b2:	8089                	srli	s1,s1,0x2
    11b4:	ce32                	sw	a2,28(sp)
    11b6:	dc3e                	sw	a5,56(sp)
    11b8:	cc4a                	sw	s2,24(sp)
    11ba:	d026                	sw	s1,32(sp)
    11bc:	d202                	sw	zero,36(sp)
    11be:	da02                	sw	zero,52(sp)
    11c0:	de02                	sw	zero,60(sp)
    11c2:	0d2010ef          	jal	ra,2294 <DMA_Init>
    11c6:	4585                	li	a1,1
    11c8:	44440513          	addi	a0,s0,1092
    11cc:	100010ef          	jal	ra,22cc <DMA_Cmd>
    11d0:	6121                	addi	sp,sp,64
    11d2:	842ff06f          	j	214 <__riscv_restore_0>

000011d6 <SD_ReadBlock>:
    11d6:	febfe2ef          	jal	t0,1c0 <__riscv_save_12>
    11da:	1141                	addi	sp,sp,-16
    11dc:	e519                	bnez	a0,11ea <SD_ReadBlock+0x14>
    11de:	02600413          	li	s0,38
    11e2:	8522                	mv	a0,s0
    11e4:	0141                	addi	sp,sp,16
    11e6:	816ff06f          	j	1fc <__riscv_restore_12>
    11ea:	400187b7          	lui	a5,0x40018
    11ee:	0207a623          	sw	zero,44(a5) # 4001802c <_eusrstack+0x2001002c>
    11f2:	8281c703          	lbu	a4,-2008(gp) # 200000a8 <CardType>
    11f6:	4789                	li	a5,2
    11f8:	892a                	mv	s2,a0
    11fa:	8aae                	mv	s5,a1
    11fc:	8a36                	mv	s4,a3
    11fe:	00f71963          	bne	a4,a5,1210 <SD_ReadBlock+0x3a>
    1202:	065e                	slli	a2,a2,0x17
    1204:	0095da93          	srli	s5,a1,0x9
    1208:	01566ab3          	or	s5,a2,s5
    120c:	20000a13          	li	s4,512
    1210:	13418493          	addi	s1,gp,308 # 200009b4 <SDIO_DataInitStructure>
    1214:	57fd                	li	a5,-1
    1216:	4b85                	li	s7,1
    1218:	13418513          	addi	a0,gp,308 # 200009b4 <SDIO_DataInitStructure>
    121c:	c09c                	sw	a5,0(s1)
    121e:	0004a423          	sw	zero,8(s1) # 10008 <_data_lma+0xa4a0>
    1222:	0004a223          	sw	zero,4(s1)
    1226:	0174aa23          	sw	s7,20(s1)
    122a:	0004a623          	sw	zero,12(s1)
    122e:	0004a823          	sw	zero,16(s1)
    1232:	40018b37          	lui	s6,0x40018
    1236:	446010ef          	jal	ra,267c <SDIO_DataConfig>
    123a:	014b2783          	lw	a5,20(s6) # 40018014 <_eusrstack+0x20010014>
    123e:	4439                	li	s0,14
    1240:	00679713          	slli	a4,a5,0x6
    1244:	f8074fe3          	bltz	a4,11e2 <SD_ReadBlock+0xc>
    1248:	fffa0793          	addi	a5,s4,-1
    124c:	01079613          	slli	a2,a5,0x10
    1250:	8241                	srli	a2,a2,0x10
    1252:	7ff00693          	li	a3,2047
    1256:	f8c6e4e3          	bltu	a3,a2,11de <SD_ReadBlock+0x8>
    125a:	0147f7b3          	and	a5,a5,s4
    125e:	f3c1                	bnez	a5,11de <SD_ReadBlock+0x8>
    1260:	8552                	mv	a0,s4
    1262:	35e5                	jal	114a <convert_from_bytes_to_power_of_two>
    1264:	f2018993          	addi	s3,gp,-224 # 200007a0 <SDIO_CmdInitStructure>
    1268:	46c1                	li	a3,16
    126a:	c62a                	sw	a0,12(sp)
    126c:	04000d93          	li	s11,64
    1270:	f2018513          	addi	a0,gp,-224 # 200007a0 <SDIO_CmdInitStructure>
    1274:	40000d13          	li	s10,1024
    1278:	00d9a223          	sw	a3,4(s3)
    127c:	0149a023          	sw	s4,0(s3)
    1280:	01b9a423          	sw	s11,8(s3)
    1284:	0009a623          	sw	zero,12(s3)
    1288:	01a9a823          	sw	s10,16(s3)
    128c:	3ce010ef          	jal	ra,265a <SDIO_SendCommand>
    1290:	4541                	li	a0,16
    1292:	d48ff0ef          	jal	ra,7da <CmdResp1Error>
    1296:	842a                	mv	s0,a0
    1298:	f529                	bnez	a0,11e2 <SD_ReadBlock+0xc>
    129a:	47b2                	lw	a5,12(sp)
    129c:	13418513          	addi	a0,gp,308 # 200009b4 <SDIO_DataInitStructure>
    12a0:	0144a223          	sw	s4,4(s1)
    12a4:	0792                	slli	a5,a5,0x4
    12a6:	c49c                	sw	a5,8(s1)
    12a8:	57fd                	li	a5,-1
    12aa:	c09c                	sw	a5,0(s1)
    12ac:	4789                	li	a5,2
    12ae:	c4dc                	sw	a5,12(s1)
    12b0:	0174aa23          	sw	s7,20(s1)
    12b4:	0004a823          	sw	zero,16(s1)
    12b8:	3c4010ef          	jal	ra,267c <SDIO_DataConfig>
    12bc:	47c5                	li	a5,17
    12be:	f2018513          	addi	a0,gp,-224 # 200007a0 <SDIO_CmdInitStructure>
    12c2:	00f9a223          	sw	a5,4(s3)
    12c6:	0159a023          	sw	s5,0(s3)
    12ca:	01b9a423          	sw	s11,8(s3)
    12ce:	0009a623          	sw	zero,12(s3)
    12d2:	01a9a823          	sw	s10,16(s3)
    12d6:	384010ef          	jal	ra,265a <SDIO_SendCommand>
    12da:	4545                	li	a0,17
    12dc:	cfeff0ef          	jal	ra,7da <CmdResp1Error>
    12e0:	842a                	mv	s0,a0
    12e2:	f00510e3          	bnez	a0,11e2 <SD_ReadBlock+0xc>
    12e6:	8291c783          	lbu	a5,-2007(gp) # 200000a9 <DeviceMode>
    12ea:	cbd5                	beqz	a5,139e <SD_ReadBlock+0x1c8>
    12ec:	ef779be3          	bne	a5,s7,11e2 <SD_ReadBlock+0xc>
    12f0:	4601                	li	a2,0
    12f2:	85d2                	mv	a1,s4
    12f4:	854a                	mv	a0,s2
    12f6:	35ad                	jal	1160 <SD_DMA_Config>
    12f8:	83418793          	addi	a5,gp,-1996 # 200000b4 <TransferError>
    12fc:	0007a023          	sw	zero,0(a5)
    1300:	82018823          	sb	zero,-2000(gp) # 200000b0 <StopCondition>
    1304:	83118793          	addi	a5,gp,-1999 # 200000b1 <TransferEnd>
    1308:	00078023          	sb	zero,0(a5)
    130c:	03cb2783          	lw	a5,60(s6)
    1310:	4505                	li	a0,1
    1312:	83118913          	addi	s2,gp,-1999 # 200000b1 <TransferEnd>
    1316:	32a7e793          	ori	a5,a5,810
    131a:	02fb2e23          	sw	a5,60(s6)
    131e:	328010ef          	jal	ra,2646 <SDIO_DMACmd>
    1322:	40020537          	lui	a0,0x40020
    1326:	4585                	li	a1,1
    1328:	44450513          	addi	a0,a0,1092 # 40020444 <_eusrstack+0x20018444>
    132c:	7a1000ef          	jal	ra,22cc <DMA_Cmd>
    1330:	577d                	li	a4,-1
    1332:	83418793          	addi	a5,gp,-1996 # 200000b4 <TransferError>
    1336:	40020637          	lui	a2,0x40020
    133a:	40062683          	lw	a3,1024(a2) # 40020400 <_eusrstack+0x20018400>
    133e:	01269593          	slli	a1,a3,0x12
    1342:	0c05c263          	bltz	a1,1406 <SD_ReadBlock+0x230>
    1346:	00094683          	lbu	a3,0(s2)
    134a:	0ff6f693          	andi	a3,a3,255
    134e:	eec5                	bnez	a3,1406 <SD_ReadBlock+0x230>
    1350:	4394                	lw	a3,0(a5)
    1352:	ead5                	bnez	a3,1406 <SD_ReadBlock+0x230>
    1354:	c329                	beqz	a4,1396 <SD_ReadBlock+0x1c0>
    1356:	177d                	addi	a4,a4,-1
    1358:	b7cd                	j	133a <SD_ReadBlock+0x164>
    135a:	6521                	lui	a0,0x8
    135c:	35a010ef          	jal	ra,26b6 <SDIO_GetFlagStatus>
    1360:	c915                	beqz	a0,1394 <SD_ReadBlock+0x1be>
    1362:	87ca                	mv	a5,s2
    1364:	02090913          	addi	s2,s2,32
    1368:	0809a703          	lw	a4,128(s3)
    136c:	0791                	addi	a5,a5,4
    136e:	fee7ae23          	sw	a4,-4(a5)
    1372:	fef91be3          	bne	s2,a5,1368 <SD_ReadBlock+0x192>
    1376:	fffa0493          	addi	s1,s4,-1
    137a:	0349a783          	lw	a5,52(s3)
    137e:	62a7f793          	andi	a5,a5,1578
    1382:	dfe1                	beqz	a5,135a <SD_ReadBlock+0x184>
    1384:	4521                	li	a0,8
    1386:	330010ef          	jal	ra,26b6 <SDIO_GetFlagStatus>
    138a:	c105                	beqz	a0,13aa <SD_ReadBlock+0x1d4>
    138c:	4521                	li	a0,8
    138e:	336010ef          	jal	ra,26c4 <SDIO_ClearFlag>
    1392:	a011                	j	1396 <SD_ReadBlock+0x1c0>
    1394:	e099                	bnez	s1,139a <SD_ReadBlock+0x1c4>
    1396:	4411                	li	s0,4
    1398:	b5a9                	j	11e2 <SD_ReadBlock+0xc>
    139a:	14fd                	addi	s1,s1,-1
    139c:	bff9                	j	137a <SD_ReadBlock+0x1a4>
    139e:	54fd                	li	s1,-1
    13a0:	400189b7          	lui	s3,0x40018
    13a4:	00800a37          	lui	s4,0x800
    13a8:	bfc9                	j	137a <SD_ReadBlock+0x1a4>
    13aa:	4509                	li	a0,2
    13ac:	30a010ef          	jal	ra,26b6 <SDIO_GetFlagStatus>
    13b0:	c511                	beqz	a0,13bc <SD_ReadBlock+0x1e6>
    13b2:	4509                	li	a0,2
    13b4:	310010ef          	jal	ra,26c4 <SDIO_ClearFlag>
    13b8:	4409                	li	s0,2
    13ba:	b525                	j	11e2 <SD_ReadBlock+0xc>
    13bc:	02000513          	li	a0,32
    13c0:	2f6010ef          	jal	ra,26b6 <SDIO_GetFlagStatus>
    13c4:	c519                	beqz	a0,13d2 <SD_ReadBlock+0x1fc>
    13c6:	02000513          	li	a0,32
    13ca:	2fa010ef          	jal	ra,26c4 <SDIO_ClearFlag>
    13ce:	4419                	li	s0,6
    13d0:	bd09                	j	11e2 <SD_ReadBlock+0xc>
    13d2:	20000513          	li	a0,512
    13d6:	2e0010ef          	jal	ra,26b6 <SDIO_GetFlagStatus>
    13da:	cd01                	beqz	a0,13f2 <SD_ReadBlock+0x21c>
    13dc:	20000513          	li	a0,512
    13e0:	2e4010ef          	jal	ra,26c4 <SDIO_ClearFlag>
    13e4:	441d                	li	s0,7
    13e6:	bbf5                	j	11e2 <SD_ReadBlock+0xc>
    13e8:	2ba010ef          	jal	ra,26a2 <SDIO_ReadData>
    13ec:	00a92023          	sw	a0,0(s2)
    13f0:	0911                	addi	s2,s2,4
    13f2:	00200537          	lui	a0,0x200
    13f6:	2c0010ef          	jal	ra,26b6 <SDIO_GetFlagStatus>
    13fa:	f57d                	bnez	a0,13e8 <SD_ReadBlock+0x212>
    13fc:	5ff00513          	li	a0,1535
    1400:	2c4010ef          	jal	ra,26c4 <SDIO_ClearFlag>
    1404:	bbf9                	j	11e2 <SD_ReadBlock+0xc>
    1406:	db41                	beqz	a4,1396 <SD_ReadBlock+0x1c0>
    1408:	4398                	lw	a4,0(a5)
    140a:	dc070ce3          	beqz	a4,11e2 <SD_ReadBlock+0xc>
    140e:	4380                	lw	s0,0(a5)
    1410:	bbc9                	j	11e2 <SD_ReadBlock+0xc>

00001412 <SD_ReadMultiBlocks>:
    1412:	daffe2ef          	jal	t0,1c0 <__riscv_save_12>
    1416:	1141                	addi	sp,sp,-16
    1418:	82a1ac23          	sw	a0,-1992(gp) # 200000b8 <tempbuff>
    141c:	400187b7          	lui	a5,0x40018
    1420:	c02a                	sw	a0,0(sp)
    1422:	0207a623          	sw	zero,44(a5) # 4001802c <_eusrstack+0x2001002c>
    1426:	8a2e                	mv	s4,a1
    1428:	8281c583          	lbu	a1,-2008(gp) # 200000a8 <CardType>
    142c:	8cb6                	mv	s9,a3
    142e:	82818693          	addi	a3,gp,-2008 # 200000a8 <CardType>
    1432:	4789                	li	a5,2
    1434:	c236                	sw	a3,4(sp)
    1436:	83818913          	addi	s2,gp,-1992 # 200000b8 <tempbuff>
    143a:	00f59963          	bne	a1,a5,144c <SD_ReadMultiBlocks+0x3a>
    143e:	065e                	slli	a2,a2,0x17
    1440:	009a5a13          	srli	s4,s4,0x9
    1444:	01466a33          	or	s4,a2,s4
    1448:	20000c93          	li	s9,512
    144c:	13418493          	addi	s1,gp,308 # 200009b4 <SDIO_DataInitStructure>
    1450:	5d7d                	li	s10,-1
    1452:	4a85                	li	s5,1
    1454:	13418513          	addi	a0,gp,308 # 200009b4 <SDIO_DataInitStructure>
    1458:	c43a                	sw	a4,8(sp)
    145a:	0004a423          	sw	zero,8(s1)
    145e:	0004a223          	sw	zero,4(s1)
    1462:	01a4a023          	sw	s10,0(s1)
    1466:	0154aa23          	sw	s5,20(s1)
    146a:	0004a623          	sw	zero,12(s1)
    146e:	0004a823          	sw	zero,16(s1)
    1472:	40018db7          	lui	s11,0x40018
    1476:	206010ef          	jal	ra,267c <SDIO_DataConfig>
    147a:	014da783          	lw	a5,20(s11) # 40018014 <_eusrstack+0x20010014>
    147e:	4439                	li	s0,14
    1480:	00679713          	slli	a4,a5,0x6
    1484:	00074e63          	bltz	a4,14a0 <SD_ReadMultiBlocks+0x8e>
    1488:	fffc8793          	addi	a5,s9,-1
    148c:	01079593          	slli	a1,a5,0x10
    1490:	81c1                	srli	a1,a1,0x10
    1492:	7ff00613          	li	a2,2047
    1496:	4722                	lw	a4,8(sp)
    1498:	00b67863          	bgeu	a2,a1,14a8 <SD_ReadMultiBlocks+0x96>
    149c:	02600413          	li	s0,38
    14a0:	8522                	mv	a0,s0
    14a2:	0141                	addi	sp,sp,16
    14a4:	d59fe06f          	j	1fc <__riscv_restore_12>
    14a8:	c63a                	sw	a4,12(sp)
    14aa:	0197f7b3          	and	a5,a5,s9
    14ae:	f7fd                	bnez	a5,149c <SD_ReadMultiBlocks+0x8a>
    14b0:	8566                	mv	a0,s9
    14b2:	3961                	jal	114a <convert_from_bytes_to_power_of_two>
    14b4:	f2018b93          	addi	s7,gp,-224 # 200007a0 <SDIO_CmdInitStructure>
    14b8:	45c1                	li	a1,16
    14ba:	04000793          	li	a5,64
    14be:	40000713          	li	a4,1024
    14c2:	c42a                	sw	a0,8(sp)
    14c4:	f2018513          	addi	a0,gp,-224 # 200007a0 <SDIO_CmdInitStructure>
    14c8:	00bba223          	sw	a1,4(s7)
    14cc:	00fba423          	sw	a5,8(s7)
    14d0:	00eba823          	sw	a4,16(s7)
    14d4:	019ba023          	sw	s9,0(s7)
    14d8:	000ba623          	sw	zero,12(s7)
    14dc:	17e010ef          	jal	ra,265a <SDIO_SendCommand>
    14e0:	4541                	li	a0,16
    14e2:	af8ff0ef          	jal	ra,7da <CmdResp1Error>
    14e6:	842a                	mv	s0,a0
    14e8:	f2018993          	addi	s3,gp,-224 # 200007a0 <SDIO_CmdInitStructure>
    14ec:	f955                	bnez	a0,14a0 <SD_ReadMultiBlocks+0x8e>
    14ee:	4732                	lw	a4,12(sp)
    14f0:	faeaf8e3          	bgeu	s5,a4,14a0 <SD_ReadMultiBlocks+0x8e>
    14f4:	02ec85b3          	mul	a1,s9,a4
    14f8:	02000e37          	lui	t3,0x2000
    14fc:	fbc5f0e3          	bgeu	a1,t3,149c <SD_ReadMultiBlocks+0x8a>
    1500:	4322                	lw	t1,8(sp)
    1502:	4709                	li	a4,2
    1504:	13418513          	addi	a0,gp,308 # 200009b4 <SDIO_DataInitStructure>
    1508:	0312                	slli	t1,t1,0x4
    150a:	0064a423          	sw	t1,8(s1)
    150e:	c0cc                	sw	a1,4(s1)
    1510:	c42e                	sw	a1,8(sp)
    1512:	c4d8                	sw	a4,12(s1)
    1514:	01a4a023          	sw	s10,0(s1)
    1518:	0154aa23          	sw	s5,20(s1)
    151c:	0004a823          	sw	zero,16(s1)
    1520:	15c010ef          	jal	ra,267c <SDIO_DataConfig>
    1524:	4749                	li	a4,18
    1526:	00eba223          	sw	a4,4(s7)
    152a:	04000793          	li	a5,64
    152e:	40000713          	li	a4,1024
    1532:	f2018513          	addi	a0,gp,-224 # 200007a0 <SDIO_CmdInitStructure>
    1536:	014ba023          	sw	s4,0(s7)
    153a:	00fba423          	sw	a5,8(s7)
    153e:	000ba623          	sw	zero,12(s7)
    1542:	00eba823          	sw	a4,16(s7)
    1546:	114010ef          	jal	ra,265a <SDIO_SendCommand>
    154a:	4549                	li	a0,18
    154c:	a8eff0ef          	jal	ra,7da <CmdResp1Error>
    1550:	18051863          	bnez	a0,16e0 <SD_ReadMultiBlocks+0x2ce>
    1554:	8291ca03          	lbu	s4,-2007(gp) # 200000a9 <DeviceMode>
    1558:	0a0a0a63          	beqz	s4,160c <SD_ReadMultiBlocks+0x1fa>
    155c:	45a2                	lw	a1,8(sp)
    155e:	f55a11e3          	bne	s4,s5,14a0 <SD_ReadMultiBlocks+0x8e>
    1562:	4502                	lw	a0,0(sp)
    1564:	4601                	li	a2,0
    1566:	bfbff0ef          	jal	ra,1160 <SD_DMA_Config>
    156a:	83418793          	addi	a5,gp,-1996 # 200000b4 <TransferError>
    156e:	0007a023          	sw	zero,0(a5)
    1572:	83418823          	sb	s4,-2000(gp) # 200000b0 <StopCondition>
    1576:	83118793          	addi	a5,gp,-1999 # 200000b1 <TransferEnd>
    157a:	00078023          	sb	zero,0(a5)
    157e:	03cda783          	lw	a5,60(s11)
    1582:	40020537          	lui	a0,0x40020
    1586:	4585                	li	a1,1
    1588:	32a7e793          	ori	a5,a5,810
    158c:	02fdae23          	sw	a5,60(s11)
    1590:	02cda783          	lw	a5,44(s11)
    1594:	44450513          	addi	a0,a0,1092 # 40020444 <_eusrstack+0x20018444>
    1598:	83118913          	addi	s2,gp,-1999 # 200000b1 <TransferEnd>
    159c:	0087e793          	ori	a5,a5,8
    15a0:	02fda623          	sw	a5,44(s11)
    15a4:	529000ef          	jal	ra,22cc <DMA_Cmd>
    15a8:	577d                	li	a4,-1
    15aa:	83418793          	addi	a5,gp,-1996 # 200000b4 <TransferError>
    15ae:	400206b7          	lui	a3,0x40020
    15b2:	4006a603          	lw	a2,1024(a3) # 40020400 <_eusrstack+0x20018400>
    15b6:	01261593          	slli	a1,a2,0x12
    15ba:	1005c663          	bltz	a1,16c6 <SD_ReadMultiBlocks+0x2b4>
    15be:	c339                	beqz	a4,1604 <SD_ReadMultiBlocks+0x1f2>
    15c0:	177d                	addi	a4,a4,-1
    15c2:	bfc5                	j	15b2 <SD_ReadMultiBlocks+0x1a0>
    15c4:	6521                	lui	a0,0x8
    15c6:	0f0010ef          	jal	ra,26b6 <SDIO_GetFlagStatus>
    15ca:	cd05                	beqz	a0,1602 <SD_ReadMultiBlocks+0x1f0>
    15cc:	00092783          	lw	a5,0(s2)
    15d0:	02078713          	addi	a4,a5,32
    15d4:	0804a683          	lw	a3,128(s1)
    15d8:	0791                	addi	a5,a5,4
    15da:	fed7ae23          	sw	a3,-4(a5)
    15de:	fee79be3          	bne	a5,a4,15d4 <SD_ReadMultiBlocks+0x1c2>
    15e2:	00f92023          	sw	a5,0(s2)
    15e6:	fffa0413          	addi	s0,s4,-1 # 7fffff <_data_lma+0x7fa497>
    15ea:	58dc                	lw	a5,52(s1)
    15ec:	32a7f793          	andi	a5,a5,810
    15f0:	dbf1                	beqz	a5,15c4 <SD_ReadMultiBlocks+0x1b2>
    15f2:	4521                	li	a0,8
    15f4:	0c2010ef          	jal	ra,26b6 <SDIO_GetFlagStatus>
    15f8:	c105                	beqz	a0,1618 <SD_ReadMultiBlocks+0x206>
    15fa:	4521                	li	a0,8
    15fc:	0c8010ef          	jal	ra,26c4 <SDIO_ClearFlag>
    1600:	a011                	j	1604 <SD_ReadMultiBlocks+0x1f2>
    1602:	e019                	bnez	s0,1608 <SD_ReadMultiBlocks+0x1f6>
    1604:	4411                	li	s0,4
    1606:	bd69                	j	14a0 <SD_ReadMultiBlocks+0x8e>
    1608:	147d                	addi	s0,s0,-1
    160a:	b7c5                	j	15ea <SD_ReadMultiBlocks+0x1d8>
    160c:	547d                	li	s0,-1
    160e:	400184b7          	lui	s1,0x40018
    1612:	00800a37          	lui	s4,0x800
    1616:	bfd1                	j	15ea <SD_ReadMultiBlocks+0x1d8>
    1618:	4509                	li	a0,2
    161a:	09c010ef          	jal	ra,26b6 <SDIO_GetFlagStatus>
    161e:	c511                	beqz	a0,162a <SD_ReadMultiBlocks+0x218>
    1620:	4509                	li	a0,2
    1622:	0a2010ef          	jal	ra,26c4 <SDIO_ClearFlag>
    1626:	4409                	li	s0,2
    1628:	bda5                	j	14a0 <SD_ReadMultiBlocks+0x8e>
    162a:	02000513          	li	a0,32
    162e:	088010ef          	jal	ra,26b6 <SDIO_GetFlagStatus>
    1632:	c519                	beqz	a0,1640 <SD_ReadMultiBlocks+0x22e>
    1634:	02000513          	li	a0,32
    1638:	08c010ef          	jal	ra,26c4 <SDIO_ClearFlag>
    163c:	4419                	li	s0,6
    163e:	b58d                	j	14a0 <SD_ReadMultiBlocks+0x8e>
    1640:	20000513          	li	a0,512
    1644:	072010ef          	jal	ra,26b6 <SDIO_GetFlagStatus>
    1648:	c10d                	beqz	a0,166a <SD_ReadMultiBlocks+0x258>
    164a:	20000513          	li	a0,512
    164e:	076010ef          	jal	ra,26c4 <SDIO_ClearFlag>
    1652:	441d                	li	s0,7
    1654:	b5b1                	j	14a0 <SD_ReadMultiBlocks+0x8e>
    1656:	00092403          	lw	s0,0(s2)
    165a:	048010ef          	jal	ra,26a2 <SDIO_ReadData>
    165e:	00092783          	lw	a5,0(s2)
    1662:	c008                	sw	a0,0(s0)
    1664:	0791                	addi	a5,a5,4
    1666:	00f92023          	sw	a5,0(s2)
    166a:	00200537          	lui	a0,0x200
    166e:	048010ef          	jal	ra,26b6 <SDIO_GetFlagStatus>
    1672:	f175                	bnez	a0,1656 <SD_ReadMultiBlocks+0x244>
    1674:	10000513          	li	a0,256
    1678:	03e010ef          	jal	ra,26b6 <SDIO_GetFlagStatus>
    167c:	e519                	bnez	a0,168a <SD_ReadMultiBlocks+0x278>
    167e:	5ff00513          	li	a0,1535
    1682:	042010ef          	jal	ra,26c4 <SDIO_ClearFlag>
    1686:	4401                	li	s0,0
    1688:	bd21                	j	14a0 <SD_ReadMultiBlocks+0x8e>
    168a:	4792                	lw	a5,4(sp)
    168c:	2398                	lbu	a4,0(a5)
    168e:	4789                	li	a5,2
    1690:	fee7e7e3          	bltu	a5,a4,167e <SD_ReadMultiBlocks+0x26c>
    1694:	47b1                	li	a5,12
    1696:	00f9a223          	sw	a5,4(s3) # 40018004 <_eusrstack+0x20010004>
    169a:	04000793          	li	a5,64
    169e:	00f9a423          	sw	a5,8(s3)
    16a2:	40000793          	li	a5,1024
    16a6:	00f9a823          	sw	a5,16(s3)
    16aa:	f2018513          	addi	a0,gp,-224 # 200007a0 <SDIO_CmdInitStructure>
    16ae:	0009a023          	sw	zero,0(s3)
    16b2:	0009a623          	sw	zero,12(s3)
    16b6:	7a5000ef          	jal	ra,265a <SDIO_SendCommand>
    16ba:	4531                	li	a0,12
    16bc:	91eff0ef          	jal	ra,7da <CmdResp1Error>
    16c0:	842a                	mv	s0,a0
    16c2:	dd55                	beqz	a0,167e <SD_ReadMultiBlocks+0x26c>
    16c4:	bbf1                	j	14a0 <SD_ReadMultiBlocks+0x8e>
    16c6:	df1d                	beqz	a4,1604 <SD_ReadMultiBlocks+0x1f2>
    16c8:	00094703          	lbu	a4,0(s2)
    16cc:	0ff77713          	andi	a4,a4,255
    16d0:	e319                	bnez	a4,16d6 <SD_ReadMultiBlocks+0x2c4>
    16d2:	4398                	lw	a4,0(a5)
    16d4:	db75                	beqz	a4,16c8 <SD_ReadMultiBlocks+0x2b6>
    16d6:	4398                	lw	a4,0(a5)
    16d8:	dc0704e3          	beqz	a4,14a0 <SD_ReadMultiBlocks+0x8e>
    16dc:	4380                	lw	s0,0(a5)
    16de:	b3c9                	j	14a0 <SD_ReadMultiBlocks+0x8e>
    16e0:	842a                	mv	s0,a0
    16e2:	bb7d                	j	14a0 <SD_ReadMultiBlocks+0x8e>

000016e4 <SD_WriteBlock>:
    16e4:	addfe2ef          	jal	t0,1c0 <__riscv_save_12>
    16e8:	1101                	addi	sp,sp,-32
    16ea:	00010fa3          	sb	zero,31(sp)
    16ee:	e511                	bnez	a0,16fa <SD_WriteBlock+0x16>
    16f0:	02600513          	li	a0,38
    16f4:	6105                	addi	sp,sp,32
    16f6:	b07fe06f          	j	1fc <__riscv_restore_12>
    16fa:	c632                	sw	a2,12(sp)
    16fc:	40018437          	lui	s0,0x40018
    1700:	13418793          	addi	a5,gp,308 # 200009b4 <SDIO_DataInitStructure>
    1704:	02042623          	sw	zero,44(s0) # 4001802c <_eusrstack+0x2001002c>
    1708:	577d                	li	a4,-1
    170a:	c398                	sw	a4,0(a5)
    170c:	84aa                	mv	s1,a0
    170e:	4705                	li	a4,1
    1710:	13418513          	addi	a0,gp,308 # 200009b4 <SDIO_DataInitStructure>
    1714:	cbd8                	sw	a4,20(a5)
    1716:	0007a423          	sw	zero,8(a5)
    171a:	0007a223          	sw	zero,4(a5)
    171e:	0007a623          	sw	zero,12(a5)
    1722:	0007a823          	sw	zero,16(a5)
    1726:	8bae                	mv	s7,a1
    1728:	8b36                	mv	s6,a3
    172a:	753000ef          	jal	ra,267c <SDIO_DataConfig>
    172e:	485c                	lw	a5,20(s0)
    1730:	13418a13          	addi	s4,gp,308 # 200009b4 <SDIO_DataInitStructure>
    1734:	4539                	li	a0,14
    1736:	00679713          	slli	a4,a5,0x6
    173a:	fa074de3          	bltz	a4,16f4 <SD_WriteBlock+0x10>
    173e:	8281c703          	lbu	a4,-2008(gp) # 200000a8 <CardType>
    1742:	4789                	li	a5,2
    1744:	4632                	lw	a2,12(sp)
    1746:	08f71e63          	bne	a4,a5,17e2 <SD_WriteBlock+0xfe>
    174a:	065e                	slli	a2,a2,0x17
    174c:	009bdb93          	srli	s7,s7,0x9
    1750:	01766bb3          	or	s7,a2,s7
    1754:	20000a93          	li	s5,512
    1758:	8556                	mv	a0,s5
    175a:	9f1ff0ef          	jal	ra,114a <convert_from_bytes_to_power_of_two>
    175e:	f2018793          	addi	a5,gp,-224 # 200007a0 <SDIO_CmdInitStructure>
    1762:	4741                	li	a4,16
    1764:	8caa                	mv	s9,a0
    1766:	04000d93          	li	s11,64
    176a:	f2018513          	addi	a0,gp,-224 # 200007a0 <SDIO_CmdInitStructure>
    176e:	40000d13          	li	s10,1024
    1772:	0157a023          	sw	s5,0(a5)
    1776:	c3d8                	sw	a4,4(a5)
    1778:	01b7a423          	sw	s11,8(a5)
    177c:	0007a623          	sw	zero,12(a5)
    1780:	01a7a823          	sw	s10,16(a5)
    1784:	6d7000ef          	jal	ra,265a <SDIO_SendCommand>
    1788:	4541                	li	a0,16
    178a:	850ff0ef          	jal	ra,7da <CmdResp1Error>
    178e:	f2018413          	addi	s0,gp,-224 # 200007a0 <SDIO_CmdInitStructure>
    1792:	f12d                	bnez	a0,16f4 <SD_WriteBlock+0x10>
    1794:	82c1a783          	lw	a5,-2004(gp) # 200000ac <RCA>
    1798:	f2018513          	addi	a0,gp,-224 # 200007a0 <SDIO_CmdInitStructure>
    179c:	01a42823          	sw	s10,16(s0)
    17a0:	07c2                	slli	a5,a5,0x10
    17a2:	c01c                	sw	a5,0(s0)
    17a4:	47b5                	li	a5,13
    17a6:	c05c                	sw	a5,4(s0)
    17a8:	01b42423          	sw	s11,8(s0)
    17ac:	00042623          	sw	zero,12(s0)
    17b0:	6ab000ef          	jal	ra,265a <SDIO_SendCommand>
    17b4:	4535                	li	a0,13
    17b6:	824ff0ef          	jal	ra,7da <CmdResp1Error>
    17ba:	82c18d13          	addi	s10,gp,-2004 # 200000ac <RCA>
    17be:	f91d                	bnez	a0,16f4 <SD_WriteBlock+0x10>
    17c0:	400187b7          	lui	a5,0x40018
    17c4:	4bdc                	lw	a5,20(a5)
    17c6:	5c7d                	li	s8,-1
    17c8:	4db5                	li	s11,13
    17ca:	1007f793          	andi	a5,a5,256
    17ce:	04000713          	li	a4,64
    17d2:	40000693          	li	a3,1024
    17d6:	efa9                	bnez	a5,1830 <SD_WriteBlock+0x14c>
    17d8:	020c1463          	bnez	s8,1800 <SD_WriteBlock+0x11c>
    17dc:	02900513          	li	a0,41
    17e0:	bf11                	j	16f4 <SD_WriteBlock+0x10>
    17e2:	fffb0793          	addi	a5,s6,-1
    17e6:	01079693          	slli	a3,a5,0x10
    17ea:	82c1                	srli	a3,a3,0x10
    17ec:	7ff00713          	li	a4,2047
    17f0:	f0d760e3          	bltu	a4,a3,16f0 <SD_WriteBlock+0xc>
    17f4:	0167f7b3          	and	a5,a5,s6
    17f8:	ee079ce3          	bnez	a5,16f0 <SD_WriteBlock+0xc>
    17fc:	8ada                	mv	s5,s6
    17fe:	bfa9                	j	1758 <SD_WriteBlock+0x74>
    1800:	000d2783          	lw	a5,0(s10)
    1804:	f2018513          	addi	a0,gp,-224 # 200007a0 <SDIO_CmdInitStructure>
    1808:	01b42223          	sw	s11,4(s0)
    180c:	07c2                	slli	a5,a5,0x10
    180e:	c01c                	sw	a5,0(s0)
    1810:	c418                	sw	a4,8(s0)
    1812:	00042623          	sw	zero,12(s0)
    1816:	c814                	sw	a3,16(s0)
    1818:	643000ef          	jal	ra,265a <SDIO_SendCommand>
    181c:	4535                	li	a0,13
    181e:	1c7d                	addi	s8,s8,-1
    1820:	fbbfe0ef          	jal	ra,7da <CmdResp1Error>
    1824:	ec0518e3          	bnez	a0,16f4 <SD_WriteBlock+0x10>
    1828:	40018637          	lui	a2,0x40018
    182c:	4a5c                	lw	a5,20(a2)
    182e:	bf71                	j	17ca <SD_WriteBlock+0xe6>
    1830:	02900513          	li	a0,41
    1834:	ec0c00e3          	beqz	s8,16f4 <SD_WriteBlock+0x10>
    1838:	47e1                	li	a5,24
    183a:	c05c                	sw	a5,4(s0)
    183c:	04000793          	li	a5,64
    1840:	c41c                	sw	a5,8(s0)
    1842:	f2018513          	addi	a0,gp,-224 # 200007a0 <SDIO_CmdInitStructure>
    1846:	40000793          	li	a5,1024
    184a:	01742023          	sw	s7,0(s0)
    184e:	00042623          	sw	zero,12(s0)
    1852:	c81c                	sw	a5,16(s0)
    1854:	607000ef          	jal	ra,265a <SDIO_SendCommand>
    1858:	4561                	li	a0,24
    185a:	f81fe0ef          	jal	ra,7da <CmdResp1Error>
    185e:	e8051be3          	bnez	a0,16f4 <SD_WriteBlock+0x10>
    1862:	57fd                	li	a5,-1
    1864:	83018913          	addi	s2,gp,-2000 # 200000b0 <StopCondition>
    1868:	0c92                	slli	s9,s9,0x4
    186a:	4405                	li	s0,1
    186c:	13418513          	addi	a0,gp,308 # 200009b4 <SDIO_DataInitStructure>
    1870:	00fa2023          	sw	a5,0(s4) # 800000 <_data_lma+0x7fa498>
    1874:	00090023          	sb	zero,0(s2)
    1878:	019a2423          	sw	s9,8(s4)
    187c:	015a2223          	sw	s5,4(s4)
    1880:	008a2a23          	sw	s0,20(s4)
    1884:	000a2623          	sw	zero,12(s4)
    1888:	000a2823          	sw	zero,16(s4)
    188c:	5f1000ef          	jal	ra,267c <SDIO_DataConfig>
    1890:	8291c783          	lbu	a5,-2007(gp) # 200000a9 <DeviceMode>
    1894:	0c078f63          	beqz	a5,1972 <SD_WriteBlock+0x28e>
    1898:	12879663          	bne	a5,s0,19c4 <SD_WriteBlock+0x2e0>
    189c:	8526                	mv	a0,s1
    189e:	4641                	li	a2,16
    18a0:	85d6                	mv	a1,s5
    18a2:	8bfff0ef          	jal	ra,1160 <SD_DMA_Config>
    18a6:	83418793          	addi	a5,gp,-1996 # 200000b4 <TransferError>
    18aa:	0007a023          	sw	zero,0(a5) # 40018000 <_eusrstack+0x20010000>
    18ae:	83118793          	addi	a5,gp,-1999 # 200000b1 <TransferEnd>
    18b2:	00078023          	sb	zero,0(a5)
    18b6:	00090023          	sb	zero,0(s2)
    18ba:	400187b7          	lui	a5,0x40018
    18be:	5fd8                	lw	a4,60(a5)
    18c0:	40020537          	lui	a0,0x40020
    18c4:	4585                	li	a1,1
    18c6:	31a76713          	ori	a4,a4,794
    18ca:	dfd8                	sw	a4,60(a5)
    18cc:	57d8                	lw	a4,44(a5)
    18ce:	44450513          	addi	a0,a0,1092 # 40020444 <_eusrstack+0x20018444>
    18d2:	83118493          	addi	s1,gp,-1999 # 200000b1 <TransferEnd>
    18d6:	00876713          	ori	a4,a4,8
    18da:	d7d8                	sw	a4,44(a5)
    18dc:	1f1000ef          	jal	ra,22cc <DMA_Cmd>
    18e0:	56fd                	li	a3,-1
    18e2:	83418793          	addi	a5,gp,-1996 # 200000b4 <TransferError>
    18e6:	40020737          	lui	a4,0x40020
    18ea:	40072603          	lw	a2,1024(a4) # 40020400 <_eusrstack+0x20018400>
    18ee:	01261593          	slli	a1,a2,0x12
    18f2:	1005c263          	bltz	a1,19f6 <SD_WriteBlock+0x312>
    18f6:	0e069e63          	bnez	a3,19f2 <SD_WriteBlock+0x30e>
    18fa:	f84ff0ef          	jal	ra,107e <SD_Init>
    18fe:	a0b5                	j	196a <SD_WriteBlock+0x286>
    1900:	6511                	lui	a0,0x4
    1902:	5b5000ef          	jal	ra,26b6 <SDIO_GetFlagStatus>
    1906:	c12d                	beqz	a0,1968 <SD_WriteBlock+0x284>
    1908:	412b0733          	sub	a4,s6,s2
    190c:	04eae263          	bltu	s5,a4,1950 <SD_WriteBlock+0x26c>
    1910:	00275793          	srli	a5,a4,0x2
    1914:	8b0d                	andi	a4,a4,3
    1916:	c311                	beqz	a4,191a <SD_WriteBlock+0x236>
    1918:	0785                	addi	a5,a5,1
    191a:	00279413          	slli	s0,a5,0x2
    191e:	00848bb3          	add	s7,s1,s0
    1922:	03749263          	bne	s1,s7,1946 <SD_WriteBlock+0x262>
    1926:	9922                	add	s2,s2,s0
    1928:	fffa0413          	addi	s0,s4,-1
    192c:	0349a783          	lw	a5,52(s3)
    1930:	61a7f793          	andi	a5,a5,1562
    1934:	d7f1                	beqz	a5,1900 <SD_WriteBlock+0x21c>
    1936:	4521                	li	a0,8
    1938:	57f000ef          	jal	ra,26b6 <SDIO_GetFlagStatus>
    193c:	c139                	beqz	a0,1982 <SD_WriteBlock+0x29e>
    193e:	4521                	li	a0,8
    1940:	585000ef          	jal	ra,26c4 <SDIO_ClearFlag>
    1944:	a01d                	j	196a <SD_WriteBlock+0x286>
    1946:	4088                	lw	a0,0(s1)
    1948:	0491                	addi	s1,s1,4
    194a:	563000ef          	jal	ra,26ac <SDIO_WriteData>
    194e:	bfd1                	j	1922 <SD_WriteBlock+0x23e>
    1950:	8426                	mv	s0,s1
    1952:	02048493          	addi	s1,s1,32 # 40018020 <_eusrstack+0x20010020>
    1956:	4008                	lw	a0,0(s0)
    1958:	0411                	addi	s0,s0,4
    195a:	553000ef          	jal	ra,26ac <SDIO_WriteData>
    195e:	fe849ce3          	bne	s1,s0,1956 <SD_WriteBlock+0x272>
    1962:	02090913          	addi	s2,s2,32
    1966:	b7c9                	j	1928 <SD_WriteBlock+0x244>
    1968:	e019                	bnez	s0,196e <SD_WriteBlock+0x28a>
    196a:	4511                	li	a0,4
    196c:	b361                	j	16f4 <SD_WriteBlock+0x10>
    196e:	147d                	addi	s0,s0,-1
    1970:	bf75                	j	192c <SD_WriteBlock+0x248>
    1972:	4901                	li	s2,0
    1974:	547d                	li	s0,-1
    1976:	400189b7          	lui	s3,0x40018
    197a:	4afd                	li	s5,31
    197c:	40000a37          	lui	s4,0x40000
    1980:	b775                	j	192c <SD_WriteBlock+0x248>
    1982:	4509                	li	a0,2
    1984:	533000ef          	jal	ra,26b6 <SDIO_GetFlagStatus>
    1988:	c511                	beqz	a0,1994 <SD_WriteBlock+0x2b0>
    198a:	4509                	li	a0,2
    198c:	539000ef          	jal	ra,26c4 <SDIO_ClearFlag>
    1990:	4509                	li	a0,2
    1992:	b38d                	j	16f4 <SD_WriteBlock+0x10>
    1994:	4541                	li	a0,16
    1996:	521000ef          	jal	ra,26b6 <SDIO_GetFlagStatus>
    199a:	c511                	beqz	a0,19a6 <SD_WriteBlock+0x2c2>
    199c:	4541                	li	a0,16
    199e:	527000ef          	jal	ra,26c4 <SDIO_ClearFlag>
    19a2:	4515                	li	a0,5
    19a4:	bb81                	j	16f4 <SD_WriteBlock+0x10>
    19a6:	20000513          	li	a0,512
    19aa:	50d000ef          	jal	ra,26b6 <SDIO_GetFlagStatus>
    19ae:	c519                	beqz	a0,19bc <SD_WriteBlock+0x2d8>
    19b0:	20000513          	li	a0,512
    19b4:	511000ef          	jal	ra,26c4 <SDIO_ClearFlag>
    19b8:	451d                	li	a0,7
    19ba:	bb2d                	j	16f4 <SD_WriteBlock+0x10>
    19bc:	5ff00793          	li	a5,1535
    19c0:	02f9ac23          	sw	a5,56(s3) # 40018038 <_eusrstack+0x20010038>
    19c4:	5ff00513          	li	a0,1535
    19c8:	4fd000ef          	jal	ra,26c4 <SDIO_ClearFlag>
    19cc:	01f10513          	addi	a0,sp,31
    19d0:	b8cff0ef          	jal	ra,d5c <IsCardProgramming>
    19d4:	4405                	li	s0,1
    19d6:	d0051fe3          	bnez	a0,16f4 <SD_WriteBlock+0x10>
    19da:	01f14783          	lbu	a5,31(sp)
    19de:	17e9                	addi	a5,a5,-6
    19e0:	0ff7f793          	andi	a5,a5,255
    19e4:	d0f468e3          	bltu	s0,a5,16f4 <SD_WriteBlock+0x10>
    19e8:	01f10513          	addi	a0,sp,31
    19ec:	b70ff0ef          	jal	ra,d5c <IsCardProgramming>
    19f0:	b7dd                	j	19d6 <SD_WriteBlock+0x2f2>
    19f2:	16fd                	addi	a3,a3,-1
    19f4:	bddd                	j	18ea <SD_WriteBlock+0x206>
    19f6:	577d                	li	a4,-1
    19f8:	f00681e3          	beqz	a3,18fa <SD_WriteBlock+0x216>
    19fc:	2094                	lbu	a3,0(s1)
    19fe:	0ff6f693          	andi	a3,a3,255
    1a02:	e691                	bnez	a3,1a0e <SD_WriteBlock+0x32a>
    1a04:	4394                	lw	a3,0(a5)
    1a06:	e681                	bnez	a3,1a0e <SD_WriteBlock+0x32a>
    1a08:	d32d                	beqz	a4,196a <SD_WriteBlock+0x286>
    1a0a:	177d                	addi	a4,a4,-1
    1a0c:	bfc5                	j	19fc <SD_WriteBlock+0x318>
    1a0e:	df31                	beqz	a4,196a <SD_WriteBlock+0x286>
    1a10:	4398                	lw	a4,0(a5)
    1a12:	db4d                	beqz	a4,19c4 <SD_WriteBlock+0x2e0>
    1a14:	4388                	lw	a0,0(a5)
    1a16:	b9f9                	j	16f4 <SD_WriteBlock+0x10>

00001a18 <SD_WriteMultiBlocks>:
    1a18:	fa8fe2ef          	jal	t0,1c0 <__riscv_save_12>
    1a1c:	1101                	addi	sp,sp,-32
    1a1e:	00010fa3          	sb	zero,31(sp)
    1a22:	e511                	bnez	a0,1a2e <SD_WriteMultiBlocks+0x16>
    1a24:	02600513          	li	a0,38
    1a28:	6105                	addi	sp,sp,32
    1a2a:	fd2fe06f          	j	1fc <__riscv_restore_12>
    1a2e:	c632                	sw	a2,12(sp)
    1a30:	40018437          	lui	s0,0x40018
    1a34:	13418793          	addi	a5,gp,308 # 200009b4 <SDIO_DataInitStructure>
    1a38:	02042623          	sw	zero,44(s0) # 4001802c <_eusrstack+0x2001002c>
    1a3c:	89ba                	mv	s3,a4
    1a3e:	577d                	li	a4,-1
    1a40:	c398                	sw	a4,0(a5)
    1a42:	84aa                	mv	s1,a0
    1a44:	4705                	li	a4,1
    1a46:	13418513          	addi	a0,gp,308 # 200009b4 <SDIO_DataInitStructure>
    1a4a:	cbd8                	sw	a4,20(a5)
    1a4c:	0007a423          	sw	zero,8(a5) # 40018008 <_eusrstack+0x20010008>
    1a50:	0007a223          	sw	zero,4(a5)
    1a54:	0007a623          	sw	zero,12(a5)
    1a58:	0007a823          	sw	zero,16(a5)
    1a5c:	8bae                	mv	s7,a1
    1a5e:	8c36                	mv	s8,a3
    1a60:	41d000ef          	jal	ra,267c <SDIO_DataConfig>
    1a64:	485c                	lw	a5,20(s0)
    1a66:	13418a93          	addi	s5,gp,308 # 200009b4 <SDIO_DataInitStructure>
    1a6a:	4539                	li	a0,14
    1a6c:	00679713          	slli	a4,a5,0x6
    1a70:	fa074ce3          	bltz	a4,1a28 <SD_WriteMultiBlocks+0x10>
    1a74:	8281c703          	lbu	a4,-2008(gp) # 200000a8 <CardType>
    1a78:	4789                	li	a5,2
    1a7a:	82818b13          	addi	s6,gp,-2008 # 200000a8 <CardType>
    1a7e:	4632                	lw	a2,12(sp)
    1a80:	0ef71963          	bne	a4,a5,1b72 <SD_WriteMultiBlocks+0x15a>
    1a84:	065e                	slli	a2,a2,0x17
    1a86:	009bdb93          	srli	s7,s7,0x9
    1a8a:	01766bb3          	or	s7,a2,s7
    1a8e:	20000d13          	li	s10,512
    1a92:	856a                	mv	a0,s10
    1a94:	eb6ff0ef          	jal	ra,114a <convert_from_bytes_to_power_of_two>
    1a98:	f2018793          	addi	a5,gp,-224 # 200007a0 <SDIO_CmdInitStructure>
    1a9c:	4741                	li	a4,16
    1a9e:	c62a                	sw	a0,12(sp)
    1aa0:	04000c93          	li	s9,64
    1aa4:	f2018513          	addi	a0,gp,-224 # 200007a0 <SDIO_CmdInitStructure>
    1aa8:	40000d93          	li	s11,1024
    1aac:	01a7a023          	sw	s10,0(a5)
    1ab0:	c3d8                	sw	a4,4(a5)
    1ab2:	0197a423          	sw	s9,8(a5)
    1ab6:	0007a623          	sw	zero,12(a5)
    1aba:	01b7a823          	sw	s11,16(a5)
    1abe:	39d000ef          	jal	ra,265a <SDIO_SendCommand>
    1ac2:	4541                	li	a0,16
    1ac4:	d17fe0ef          	jal	ra,7da <CmdResp1Error>
    1ac8:	f2018413          	addi	s0,gp,-224 # 200007a0 <SDIO_CmdInitStructure>
    1acc:	fd31                	bnez	a0,1a28 <SD_WriteMultiBlocks+0x10>
    1ace:	4785                	li	a5,1
    1ad0:	1d37f063          	bgeu	a5,s3,1c90 <SD_WriteMultiBlocks+0x278>
    1ad4:	033d0d33          	mul	s10,s10,s3
    1ad8:	020007b7          	lui	a5,0x2000
    1adc:	f4fd74e3          	bgeu	s10,a5,1a24 <SD_WriteMultiBlocks+0xc>
    1ae0:	000b4683          	lbu	a3,0(s6)
    1ae4:	4789                	li	a5,2
    1ae6:	0ad7f563          	bgeu	a5,a3,1b90 <SD_WriteMultiBlocks+0x178>
    1aea:	47e5                	li	a5,25
    1aec:	c05c                	sw	a5,4(s0)
    1aee:	04000793          	li	a5,64
    1af2:	c41c                	sw	a5,8(s0)
    1af4:	f2018513          	addi	a0,gp,-224 # 200007a0 <SDIO_CmdInitStructure>
    1af8:	40000793          	li	a5,1024
    1afc:	01742023          	sw	s7,0(s0)
    1b00:	00042623          	sw	zero,12(s0)
    1b04:	c81c                	sw	a5,16(s0)
    1b06:	355000ef          	jal	ra,265a <SDIO_SendCommand>
    1b0a:	4565                	li	a0,25
    1b0c:	ccffe0ef          	jal	ra,7da <CmdResp1Error>
    1b10:	f0051ce3          	bnez	a0,1a28 <SD_WriteMultiBlocks+0x10>
    1b14:	47b2                	lw	a5,12(sp)
    1b16:	13418513          	addi	a0,gp,308 # 200009b4 <SDIO_DataInitStructure>
    1b1a:	4b85                	li	s7,1
    1b1c:	00479c93          	slli	s9,a5,0x4
    1b20:	57fd                	li	a5,-1
    1b22:	00faa023          	sw	a5,0(s5)
    1b26:	019aa423          	sw	s9,8(s5)
    1b2a:	01aaa223          	sw	s10,4(s5)
    1b2e:	017aaa23          	sw	s7,20(s5)
    1b32:	000aa623          	sw	zero,12(s5)
    1b36:	000aa823          	sw	zero,16(s5)
    1b3a:	343000ef          	jal	ra,267c <SDIO_DataConfig>
    1b3e:	8291ca03          	lbu	s4,-2007(gp) # 200000a9 <DeviceMode>
    1b42:	1a0a1863          	bnez	s4,1cf2 <SD_WriteMultiBlocks+0x2da>
    1b46:	033c09b3          	mul	s3,s8,s3
    1b4a:	4a81                	li	s5,0
    1b4c:	57fd                	li	a5,-1
    1b4e:	40018bb7          	lui	s7,0x40018
    1b52:	4cfd                	li	s9,31
    1b54:	40000c37          	lui	s8,0x40000
    1b58:	034ba703          	lw	a4,52(s7) # 40018034 <_eusrstack+0x20010034>
    1b5c:	31a77713          	andi	a4,a4,794
    1b60:	c359                	beqz	a4,1be6 <SD_WriteMultiBlocks+0x1ce>
    1b62:	4521                	li	a0,8
    1b64:	353000ef          	jal	ra,26b6 <SDIO_GetFlagStatus>
    1b68:	cd71                	beqz	a0,1c44 <SD_WriteMultiBlocks+0x22c>
    1b6a:	4521                	li	a0,8
    1b6c:	359000ef          	jal	ra,26c4 <SDIO_ClearFlag>
    1b70:	a0f1                	j	1c3c <SD_WriteMultiBlocks+0x224>
    1b72:	fffc0793          	addi	a5,s8,-1 # 3fffffff <_eusrstack+0x1fff7fff>
    1b76:	01079693          	slli	a3,a5,0x10
    1b7a:	82c1                	srli	a3,a3,0x10
    1b7c:	7ff00713          	li	a4,2047
    1b80:	ead762e3          	bltu	a4,a3,1a24 <SD_WriteMultiBlocks+0xc>
    1b84:	0187f7b3          	and	a5,a5,s8
    1b88:	e8079ee3          	bnez	a5,1a24 <SD_WriteMultiBlocks+0xc>
    1b8c:	8d62                	mv	s10,s8
    1b8e:	b711                	j	1a92 <SD_WriteMultiBlocks+0x7a>
    1b90:	82c1a783          	lw	a5,-2004(gp) # 200000ac <RCA>
    1b94:	f2018513          	addi	a0,gp,-224 # 200007a0 <SDIO_CmdInitStructure>
    1b98:	01942423          	sw	s9,8(s0)
    1b9c:	07c2                	slli	a5,a5,0x10
    1b9e:	c01c                	sw	a5,0(s0)
    1ba0:	03700793          	li	a5,55
    1ba4:	c05c                	sw	a5,4(s0)
    1ba6:	00042623          	sw	zero,12(s0)
    1baa:	01b42823          	sw	s11,16(s0)
    1bae:	2ad000ef          	jal	ra,265a <SDIO_SendCommand>
    1bb2:	03700513          	li	a0,55
    1bb6:	c25fe0ef          	jal	ra,7da <CmdResp1Error>
    1bba:	e60517e3          	bnez	a0,1a28 <SD_WriteMultiBlocks+0x10>
    1bbe:	47dd                	li	a5,23
    1bc0:	f2018513          	addi	a0,gp,-224 # 200007a0 <SDIO_CmdInitStructure>
    1bc4:	01342023          	sw	s3,0(s0)
    1bc8:	c05c                	sw	a5,4(s0)
    1bca:	01942423          	sw	s9,8(s0)
    1bce:	00042623          	sw	zero,12(s0)
    1bd2:	01b42823          	sw	s11,16(s0)
    1bd6:	285000ef          	jal	ra,265a <SDIO_SendCommand>
    1bda:	455d                	li	a0,23
    1bdc:	bfffe0ef          	jal	ra,7da <CmdResp1Error>
    1be0:	f00505e3          	beqz	a0,1aea <SD_WriteMultiBlocks+0xd2>
    1be4:	b591                	j	1a28 <SD_WriteMultiBlocks+0x10>
    1be6:	034ba703          	lw	a4,52(s7)
    1bea:	01171693          	slli	a3,a4,0x11
    1bee:	0406d663          	bgez	a3,1c3a <SD_WriteMultiBlocks+0x222>
    1bf2:	41598733          	sub	a4,s3,s5
    1bf6:	02ece663          	bltu	s9,a4,1c22 <SD_WriteMultiBlocks+0x20a>
    1bfa:	00275793          	srli	a5,a4,0x2
    1bfe:	8b0d                	andi	a4,a4,3
    1c00:	c311                	beqz	a4,1c04 <SD_WriteMultiBlocks+0x1ec>
    1c02:	0785                	addi	a5,a5,1
    1c04:	00279a13          	slli	s4,a5,0x2
    1c08:	01448d33          	add	s10,s1,s4
    1c0c:	01a49663          	bne	s1,s10,1c18 <SD_WriteMultiBlocks+0x200>
    1c10:	9ad2                	add	s5,s5,s4
    1c12:	fffc0793          	addi	a5,s8,-1
    1c16:	b789                	j	1b58 <SD_WriteMultiBlocks+0x140>
    1c18:	4088                	lw	a0,0(s1)
    1c1a:	0491                	addi	s1,s1,4
    1c1c:	291000ef          	jal	ra,26ac <SDIO_WriteData>
    1c20:	b7f5                	j	1c0c <SD_WriteMultiBlocks+0x1f4>
    1c22:	02048a13          	addi	s4,s1,32
    1c26:	4088                	lw	a0,0(s1)
    1c28:	0491                	addi	s1,s1,4
    1c2a:	283000ef          	jal	ra,26ac <SDIO_WriteData>
    1c2e:	fe9a1ce3          	bne	s4,s1,1c26 <SD_WriteMultiBlocks+0x20e>
    1c32:	84d2                	mv	s1,s4
    1c34:	020a8a93          	addi	s5,s5,32
    1c38:	bfe9                	j	1c12 <SD_WriteMultiBlocks+0x1fa>
    1c3a:	e399                	bnez	a5,1c40 <SD_WriteMultiBlocks+0x228>
    1c3c:	4511                	li	a0,4
    1c3e:	b3ed                	j	1a28 <SD_WriteMultiBlocks+0x10>
    1c40:	17fd                	addi	a5,a5,-1
    1c42:	bf19                	j	1b58 <SD_WriteMultiBlocks+0x140>
    1c44:	4509                	li	a0,2
    1c46:	271000ef          	jal	ra,26b6 <SDIO_GetFlagStatus>
    1c4a:	c511                	beqz	a0,1c56 <SD_WriteMultiBlocks+0x23e>
    1c4c:	4509                	li	a0,2
    1c4e:	277000ef          	jal	ra,26c4 <SDIO_ClearFlag>
    1c52:	4509                	li	a0,2
    1c54:	bbd1                	j	1a28 <SD_WriteMultiBlocks+0x10>
    1c56:	4541                	li	a0,16
    1c58:	25f000ef          	jal	ra,26b6 <SDIO_GetFlagStatus>
    1c5c:	c511                	beqz	a0,1c68 <SD_WriteMultiBlocks+0x250>
    1c5e:	4541                	li	a0,16
    1c60:	265000ef          	jal	ra,26c4 <SDIO_ClearFlag>
    1c64:	4515                	li	a0,5
    1c66:	b3c9                	j	1a28 <SD_WriteMultiBlocks+0x10>
    1c68:	20000513          	li	a0,512
    1c6c:	24b000ef          	jal	ra,26b6 <SDIO_GetFlagStatus>
    1c70:	c519                	beqz	a0,1c7e <SD_WriteMultiBlocks+0x266>
    1c72:	20000513          	li	a0,512
    1c76:	24f000ef          	jal	ra,26c4 <SDIO_ClearFlag>
    1c7a:	451d                	li	a0,7
    1c7c:	b375                	j	1a28 <SD_WriteMultiBlocks+0x10>
    1c7e:	10000513          	li	a0,256
    1c82:	235000ef          	jal	ra,26b6 <SDIO_GetFlagStatus>
    1c86:	ed05                	bnez	a0,1cbe <SD_WriteMultiBlocks+0x2a6>
    1c88:	5ff00513          	li	a0,1535
    1c8c:	239000ef          	jal	ra,26c4 <SDIO_ClearFlag>
    1c90:	5ff00513          	li	a0,1535
    1c94:	231000ef          	jal	ra,26c4 <SDIO_ClearFlag>
    1c98:	01f10513          	addi	a0,sp,31
    1c9c:	8c0ff0ef          	jal	ra,d5c <IsCardProgramming>
    1ca0:	4405                	li	s0,1
    1ca2:	d80513e3          	bnez	a0,1a28 <SD_WriteMultiBlocks+0x10>
    1ca6:	01f14783          	lbu	a5,31(sp)
    1caa:	17e9                	addi	a5,a5,-6
    1cac:	0ff7f793          	andi	a5,a5,255
    1cb0:	d6f46ce3          	bltu	s0,a5,1a28 <SD_WriteMultiBlocks+0x10>
    1cb4:	01f10513          	addi	a0,sp,31
    1cb8:	8a4ff0ef          	jal	ra,d5c <IsCardProgramming>
    1cbc:	b7dd                	j	1ca2 <SD_WriteMultiBlocks+0x28a>
    1cbe:	000b4703          	lbu	a4,0(s6)
    1cc2:	4789                	li	a5,2
    1cc4:	fce7e2e3          	bltu	a5,a4,1c88 <SD_WriteMultiBlocks+0x270>
    1cc8:	47b1                	li	a5,12
    1cca:	c05c                	sw	a5,4(s0)
    1ccc:	04000793          	li	a5,64
    1cd0:	c41c                	sw	a5,8(s0)
    1cd2:	f2018513          	addi	a0,gp,-224 # 200007a0 <SDIO_CmdInitStructure>
    1cd6:	40000793          	li	a5,1024
    1cda:	00042023          	sw	zero,0(s0)
    1cde:	00042623          	sw	zero,12(s0)
    1ce2:	c81c                	sw	a5,16(s0)
    1ce4:	177000ef          	jal	ra,265a <SDIO_SendCommand>
    1ce8:	4531                	li	a0,12
    1cea:	af1fe0ef          	jal	ra,7da <CmdResp1Error>
    1cee:	dd49                	beqz	a0,1c88 <SD_WriteMultiBlocks+0x270>
    1cf0:	bb25                	j	1a28 <SD_WriteMultiBlocks+0x10>
    1cf2:	f97a1fe3          	bne	s4,s7,1c90 <SD_WriteMultiBlocks+0x278>
    1cf6:	8526                	mv	a0,s1
    1cf8:	4641                	li	a2,16
    1cfa:	85ea                	mv	a1,s10
    1cfc:	c64ff0ef          	jal	ra,1160 <SD_DMA_Config>
    1d00:	83418793          	addi	a5,gp,-1996 # 200000b4 <TransferError>
    1d04:	0007a023          	sw	zero,0(a5) # 2000000 <_data_lma+0x1ffa498>
    1d08:	83418823          	sb	s4,-2000(gp) # 200000b0 <StopCondition>
    1d0c:	83118793          	addi	a5,gp,-1999 # 200000b1 <TransferEnd>
    1d10:	00078023          	sb	zero,0(a5)
    1d14:	400187b7          	lui	a5,0x40018
    1d18:	5fd8                	lw	a4,60(a5)
    1d1a:	40020537          	lui	a0,0x40020
    1d1e:	4585                	li	a1,1
    1d20:	31a76713          	ori	a4,a4,794
    1d24:	dfd8                	sw	a4,60(a5)
    1d26:	57d8                	lw	a4,44(a5)
    1d28:	44450513          	addi	a0,a0,1092 # 40020444 <_eusrstack+0x20018444>
    1d2c:	83118493          	addi	s1,gp,-1999 # 200000b1 <TransferEnd>
    1d30:	00876713          	ori	a4,a4,8
    1d34:	d7d8                	sw	a4,44(a5)
    1d36:	2b59                	jal	22cc <DMA_Cmd>
    1d38:	56fd                	li	a3,-1
    1d3a:	83418793          	addi	a5,gp,-1996 # 200000b4 <TransferError>
    1d3e:	40020737          	lui	a4,0x40020
    1d42:	40072603          	lw	a2,1024(a4) # 40020400 <_eusrstack+0x20018400>
    1d46:	01261593          	slli	a1,a2,0x12
    1d4a:	0005c863          	bltz	a1,1d5a <SD_WriteMultiBlocks+0x342>
    1d4e:	e681                	bnez	a3,1d56 <SD_WriteMultiBlocks+0x33e>
    1d50:	b2eff0ef          	jal	ra,107e <SD_Init>
    1d54:	b5e5                	j	1c3c <SD_WriteMultiBlocks+0x224>
    1d56:	16fd                	addi	a3,a3,-1
    1d58:	b7ed                	j	1d42 <SD_WriteMultiBlocks+0x32a>
    1d5a:	577d                	li	a4,-1
    1d5c:	daf5                	beqz	a3,1d50 <SD_WriteMultiBlocks+0x338>
    1d5e:	2094                	lbu	a3,0(s1)
    1d60:	0ff6f693          	andi	a3,a3,255
    1d64:	e699                	bnez	a3,1d72 <SD_WriteMultiBlocks+0x35a>
    1d66:	4394                	lw	a3,0(a5)
    1d68:	e689                	bnez	a3,1d72 <SD_WriteMultiBlocks+0x35a>
    1d6a:	ec0709e3          	beqz	a4,1c3c <SD_WriteMultiBlocks+0x224>
    1d6e:	177d                	addi	a4,a4,-1
    1d70:	b7fd                	j	1d5e <SD_WriteMultiBlocks+0x346>
    1d72:	ec0705e3          	beqz	a4,1c3c <SD_WriteMultiBlocks+0x224>
    1d76:	4398                	lw	a4,0(a5)
    1d78:	f0070ce3          	beqz	a4,1c90 <SD_WriteMultiBlocks+0x278>
    1d7c:	4388                	lw	a0,0(a5)
    1d7e:	b16d                	j	1a28 <SD_WriteMultiBlocks+0x10>

00001d80 <SD_ReadDisk>:
    1d80:	c56fe2ef          	jal	t0,1d6 <__riscv_save_4>
    1d84:	00357793          	andi	a5,a0,3
    1d88:	8732                	mv	a4,a2
    1d8a:	0175d613          	srli	a2,a1,0x17
    1d8e:	05a6                	slli	a1,a1,0x9
    1d90:	c7b9                	beqz	a5,1dde <SD_ReadDisk+0x5e>
    1d92:	0726                	slli	a4,a4,0x9
    1d94:	89aa                	mv	s3,a0
    1d96:	842e                	mv	s0,a1
    1d98:	84b2                	mv	s1,a2
    1d9a:	00e50933          	add	s2,a0,a4
    1d9e:	4a01                	li	s4,0
    1da0:	01299563          	bne	s3,s2,1daa <SD_ReadDisk+0x2a>
    1da4:	8552                	mv	a0,s4
    1da6:	c64fe06f          	j	20a <__riscv_restore_4>
    1daa:	85a2                	mv	a1,s0
    1dac:	8626                	mv	a2,s1
    1dae:	20000693          	li	a3,512
    1db2:	f3418513          	addi	a0,gp,-204 # 200007b4 <SDIO_DATA_BUFFER>
    1db6:	c20ff0ef          	jal	ra,11d6 <SD_ReadBlock>
    1dba:	0ff57a13          	andi	s4,a0,255
    1dbe:	20000613          	li	a2,512
    1dc2:	854e                	mv	a0,s3
    1dc4:	f3418593          	addi	a1,gp,-204 # 200007b4 <SDIO_DATA_BUFFER>
    1dc8:	029020ef          	jal	ra,45f0 <memcpy>
    1dcc:	20040793          	addi	a5,s0,512
    1dd0:	0087b733          	sltu	a4,a5,s0
    1dd4:	20098993          	addi	s3,s3,512
    1dd8:	843e                	mv	s0,a5
    1dda:	94ba                	add	s1,s1,a4
    1ddc:	b7d1                	j	1da0 <SD_ReadDisk+0x20>
    1dde:	4785                	li	a5,1
    1de0:	20000693          	li	a3,512
    1de4:	00f71763          	bne	a4,a5,1df2 <SD_ReadDisk+0x72>
    1de8:	beeff0ef          	jal	ra,11d6 <SD_ReadBlock>
    1dec:	0ff57a13          	andi	s4,a0,255
    1df0:	bf55                	j	1da4 <SD_ReadDisk+0x24>
    1df2:	e20ff0ef          	jal	ra,1412 <SD_ReadMultiBlocks>
    1df6:	bfdd                	j	1dec <SD_ReadDisk+0x6c>

00001df8 <SD_WriteDisk>:
    1df8:	bdefe2ef          	jal	t0,1d6 <__riscv_save_4>
    1dfc:	00357793          	andi	a5,a0,3
    1e00:	8732                	mv	a4,a2
    1e02:	0175d613          	srli	a2,a1,0x17
    1e06:	05a6                	slli	a1,a1,0x9
    1e08:	c7b1                	beqz	a5,1e54 <SD_WriteDisk+0x5c>
    1e0a:	0726                	slli	a4,a4,0x9
    1e0c:	89aa                	mv	s3,a0
    1e0e:	00e50933          	add	s2,a0,a4
    1e12:	842e                	mv	s0,a1
    1e14:	84b2                	mv	s1,a2
    1e16:	4501                	li	a0,0
    1e18:	01299463          	bne	s3,s2,1e20 <SD_WriteDisk+0x28>
    1e1c:	beefe06f          	j	20a <__riscv_restore_4>
    1e20:	85ce                	mv	a1,s3
    1e22:	20000613          	li	a2,512
    1e26:	f3418513          	addi	a0,gp,-204 # 200007b4 <SDIO_DATA_BUFFER>
    1e2a:	7c6020ef          	jal	ra,45f0 <memcpy>
    1e2e:	85a2                	mv	a1,s0
    1e30:	8626                	mv	a2,s1
    1e32:	20000693          	li	a3,512
    1e36:	f3418513          	addi	a0,gp,-204 # 200007b4 <SDIO_DATA_BUFFER>
    1e3a:	8abff0ef          	jal	ra,16e4 <SD_WriteBlock>
    1e3e:	20040793          	addi	a5,s0,512
    1e42:	0087b733          	sltu	a4,a5,s0
    1e46:	0ff57513          	andi	a0,a0,255
    1e4a:	20098993          	addi	s3,s3,512
    1e4e:	843e                	mv	s0,a5
    1e50:	94ba                	add	s1,s1,a4
    1e52:	b7d9                	j	1e18 <SD_WriteDisk+0x20>
    1e54:	4785                	li	a5,1
    1e56:	20000693          	li	a3,512
    1e5a:	00f71763          	bne	a4,a5,1e68 <SD_WriteDisk+0x70>
    1e5e:	887ff0ef          	jal	ra,16e4 <SD_WriteBlock>
    1e62:	0ff57513          	andi	a0,a0,255
    1e66:	bf5d                	j	1e1c <SD_WriteDisk+0x24>
    1e68:	bb1ff0ef          	jal	ra,1a18 <SD_WriteMultiBlocks>
    1e6c:	bfdd                	j	1e62 <SD_WriteDisk+0x6a>

00001e6e <SystemInit>:
    1e6e:	400217b7          	lui	a5,0x40021
    1e72:	4398                	lw	a4,0(a5)
    1e74:	f0ff06b7          	lui	a3,0xf0ff0
    1e78:	1141                	addi	sp,sp,-16
    1e7a:	00176713          	ori	a4,a4,1
    1e7e:	c398                	sw	a4,0(a5)
    1e80:	43d8                	lw	a4,4(a5)
    1e82:	00020637          	lui	a2,0x20
    1e86:	8f75                	and	a4,a4,a3
    1e88:	c3d8                	sw	a4,4(a5)
    1e8a:	4398                	lw	a4,0(a5)
    1e8c:	fef706b7          	lui	a3,0xfef70
    1e90:	16fd                	addi	a3,a3,-1
    1e92:	8f75                	and	a4,a4,a3
    1e94:	c398                	sw	a4,0(a5)
    1e96:	4398                	lw	a4,0(a5)
    1e98:	fffc06b7          	lui	a3,0xfffc0
    1e9c:	16fd                	addi	a3,a3,-1
    1e9e:	8f75                	and	a4,a4,a3
    1ea0:	c398                	sw	a4,0(a5)
    1ea2:	43d8                	lw	a4,4(a5)
    1ea4:	ff0106b7          	lui	a3,0xff010
    1ea8:	16fd                	addi	a3,a3,-1
    1eaa:	8f75                	and	a4,a4,a3
    1eac:	c3d8                	sw	a4,4(a5)
    1eae:	4398                	lw	a4,0(a5)
    1eb0:	ec0006b7          	lui	a3,0xec000
    1eb4:	16fd                	addi	a3,a3,-1
    1eb6:	8f75                	and	a4,a4,a3
    1eb8:	c398                	sw	a4,0(a5)
    1eba:	00ff0737          	lui	a4,0xff0
    1ebe:	c798                	sw	a4,8(a5)
    1ec0:	0207a623          	sw	zero,44(a5) # 4002102c <_eusrstack+0x2001902c>
    1ec4:	c402                	sw	zero,8(sp)
    1ec6:	c602                	sw	zero,12(sp)
    1ec8:	4398                	lw	a4,0(a5)
    1eca:	66c1                	lui	a3,0x10
    1ecc:	8f55                	or	a4,a4,a3
    1ece:	c398                	sw	a4,0(a5)
    1ed0:	400216b7          	lui	a3,0x40021
    1ed4:	6705                	lui	a4,0x1
    1ed6:	429c                	lw	a5,0(a3)
    1ed8:	8ff1                	and	a5,a5,a2
    1eda:	c63e                	sw	a5,12(sp)
    1edc:	47a2                	lw	a5,8(sp)
    1ede:	0785                	addi	a5,a5,1
    1ee0:	c43e                	sw	a5,8(sp)
    1ee2:	47b2                	lw	a5,12(sp)
    1ee4:	e781                	bnez	a5,1eec <SystemInit+0x7e>
    1ee6:	47a2                	lw	a5,8(sp)
    1ee8:	fee797e3          	bne	a5,a4,1ed6 <SystemInit+0x68>
    1eec:	400217b7          	lui	a5,0x40021
    1ef0:	439c                	lw	a5,0(a5)
    1ef2:	00e79713          	slli	a4,a5,0xe
    1ef6:	06075763          	bgez	a4,1f64 <SystemInit+0xf6>
    1efa:	4785                	li	a5,1
    1efc:	c63e                	sw	a5,12(sp)
    1efe:	4732                	lw	a4,12(sp)
    1f00:	4785                	li	a5,1
    1f02:	04f71f63          	bne	a4,a5,1f60 <SystemInit+0xf2>
    1f06:	400217b7          	lui	a5,0x40021
    1f0a:	43d8                	lw	a4,4(a5)
    1f0c:	ffc106b7          	lui	a3,0xffc10
    1f10:	16fd                	addi	a3,a3,-1
    1f12:	c3d8                	sw	a4,4(a5)
    1f14:	43d8                	lw	a4,4(a5)
    1f16:	c3d8                	sw	a4,4(a5)
    1f18:	43d8                	lw	a4,4(a5)
    1f1a:	40076713          	ori	a4,a4,1024
    1f1e:	c3d8                	sw	a4,4(a5)
    1f20:	43d8                	lw	a4,4(a5)
    1f22:	8f75                	and	a4,a4,a3
    1f24:	c3d8                	sw	a4,4(a5)
    1f26:	43d8                	lw	a4,4(a5)
    1f28:	002906b7          	lui	a3,0x290
    1f2c:	8f55                	or	a4,a4,a3
    1f2e:	c3d8                	sw	a4,4(a5)
    1f30:	4398                	lw	a4,0(a5)
    1f32:	010006b7          	lui	a3,0x1000
    1f36:	8f55                	or	a4,a4,a3
    1f38:	c398                	sw	a4,0(a5)
    1f3a:	4398                	lw	a4,0(a5)
    1f3c:	00671693          	slli	a3,a4,0x6
    1f40:	fe06dde3          	bgez	a3,1f3a <SystemInit+0xcc>
    1f44:	43d8                	lw	a4,4(a5)
    1f46:	400216b7          	lui	a3,0x40021
    1f4a:	9b71                	andi	a4,a4,-4
    1f4c:	c3d8                	sw	a4,4(a5)
    1f4e:	43d8                	lw	a4,4(a5)
    1f50:	00276713          	ori	a4,a4,2
    1f54:	c3d8                	sw	a4,4(a5)
    1f56:	4721                	li	a4,8
    1f58:	42dc                	lw	a5,4(a3)
    1f5a:	8bb1                	andi	a5,a5,12
    1f5c:	fee79ee3          	bne	a5,a4,1f58 <SystemInit+0xea>
    1f60:	0141                	addi	sp,sp,16
    1f62:	8082                	ret
    1f64:	c602                	sw	zero,12(sp)
    1f66:	bf61                	j	1efe <SystemInit+0x90>

00001f68 <SystemCoreClockUpdate>:
    1f68:	400216b7          	lui	a3,0x40021
    1f6c:	42d8                	lw	a4,4(a3)
    1f6e:	4611                	li	a2,4
    1f70:	8b31                	andi	a4,a4,12
    1f72:	80818793          	addi	a5,gp,-2040 # 20000088 <SystemCoreClock>
    1f76:	00c70563          	beq	a4,a2,1f80 <SystemCoreClockUpdate+0x18>
    1f7a:	4621                	li	a2,8
    1f7c:	02c70863          	beq	a4,a2,1fac <SystemCoreClockUpdate+0x44>
    1f80:	007a1737          	lui	a4,0x7a1
    1f84:	20070713          	addi	a4,a4,512 # 7a1200 <_data_lma+0x79b698>
    1f88:	c398                	sw	a4,0(a5)
    1f8a:	40021737          	lui	a4,0x40021
    1f8e:	4358                	lw	a4,4(a4)
    1f90:	8311                	srli	a4,a4,0x4
    1f92:	00f77693          	andi	a3,a4,15
    1f96:	20000737          	lui	a4,0x20000
    1f9a:	00070713          	mv	a4,a4
    1f9e:	9736                	add	a4,a4,a3
    1fa0:	2314                	lbu	a3,0(a4)
    1fa2:	4398                	lw	a4,0(a5)
    1fa4:	00d75733          	srl	a4,a4,a3
    1fa8:	c398                	sw	a4,0(a5)
    1faa:	8082                	ret
    1fac:	42d8                	lw	a4,4(a3)
    1fae:	42d4                	lw	a3,4(a3)
    1fb0:	6641                	lui	a2,0x10
    1fb2:	8349                	srli	a4,a4,0x12
    1fb4:	8b3d                	andi	a4,a4,15
    1fb6:	8ef1                	and	a3,a3,a2
    1fb8:	00270613          	addi	a2,a4,2 # 20000002 <_data_vma+0x2>
    1fbc:	cf15                	beqz	a4,1ff8 <SystemCoreClockUpdate+0x90>
    1fbe:	473d                	li	a4,15
    1fc0:	02e60f63          	beq	a2,a4,1ffe <SystemCoreClockUpdate+0x96>
    1fc4:	4741                	li	a4,16
    1fc6:	02e60f63          	beq	a2,a4,2004 <SystemCoreClockUpdate+0x9c>
    1fca:	4745                	li	a4,17
    1fcc:	4581                	li	a1,0
    1fce:	00e61363          	bne	a2,a4,1fd4 <SystemCoreClockUpdate+0x6c>
    1fd2:	4641                	li	a2,16
    1fd4:	e2a1                	bnez	a3,2014 <SystemCoreClockUpdate+0xac>
    1fd6:	40024737          	lui	a4,0x40024
    1fda:	80072703          	lw	a4,-2048(a4) # 40023800 <_eusrstack+0x2001b800>
    1fde:	8b41                	andi	a4,a4,16
    1fe0:	c70d                	beqz	a4,200a <SystemCoreClockUpdate+0xa2>
    1fe2:	007a1737          	lui	a4,0x7a1
    1fe6:	20070713          	addi	a4,a4,512 # 7a1200 <_data_lma+0x79b698>
    1fea:	02c70633          	mul	a2,a4,a2
    1fee:	c390                	sw	a2,0(a5)
    1ff0:	ddc9                	beqz	a1,1f8a <SystemCoreClockUpdate+0x22>
    1ff2:	4398                	lw	a4,0(a5)
    1ff4:	8305                	srli	a4,a4,0x1
    1ff6:	bf49                	j	1f88 <SystemCoreClockUpdate+0x20>
    1ff8:	4581                	li	a1,0
    1ffa:	4649                	li	a2,18
    1ffc:	bfe1                	j	1fd4 <SystemCoreClockUpdate+0x6c>
    1ffe:	4585                	li	a1,1
    2000:	4635                	li	a2,13
    2002:	bfc9                	j	1fd4 <SystemCoreClockUpdate+0x6c>
    2004:	4581                	li	a1,0
    2006:	463d                	li	a2,15
    2008:	b7f1                	j	1fd4 <SystemCoreClockUpdate+0x6c>
    200a:	003d1737          	lui	a4,0x3d1
    200e:	90070713          	addi	a4,a4,-1792 # 3d0900 <_data_lma+0x3cad98>
    2012:	bfe1                	j	1fea <SystemCoreClockUpdate+0x82>
    2014:	40021537          	lui	a0,0x40021
    2018:	5558                	lw	a4,44(a0)
    201a:	00f71693          	slli	a3,a4,0xf
    201e:	5558                	lw	a4,44(a0)
    2020:	0406df63          	bgez	a3,207e <SystemCoreClockUpdate+0x116>
    2024:	8311                	srli	a4,a4,0x4
    2026:	8b3d                	andi	a4,a4,15
    2028:	00170693          	addi	a3,a4,1
    202c:	007a1737          	lui	a4,0x7a1
    2030:	20070713          	addi	a4,a4,512 # 7a1200 <_data_lma+0x79b698>
    2034:	02d75733          	divu	a4,a4,a3
    2038:	c398                	sw	a4,0(a5)
    203a:	5554                	lw	a3,44(a0)
    203c:	82a1                	srli	a3,a3,0x8
    203e:	8abd                	andi	a3,a3,15
    2040:	e28d                	bnez	a3,2062 <SystemCoreClockUpdate+0xfa>
    2042:	4695                	li	a3,5
    2044:	02d70733          	mul	a4,a4,a3
    2048:	8305                	srli	a4,a4,0x1
    204a:	c398                	sw	a4,0(a5)
    204c:	40021737          	lui	a4,0x40021
    2050:	5758                	lw	a4,44(a4)
    2052:	4394                	lw	a3,0(a5)
    2054:	8b3d                	andi	a4,a4,15
    2056:	0705                	addi	a4,a4,1
    2058:	02e6d733          	divu	a4,a3,a4
    205c:	c398                	sw	a4,0(a5)
    205e:	4398                	lw	a4,0(a5)
    2060:	b769                	j	1fea <SystemCoreClockUpdate+0x82>
    2062:	4505                	li	a0,1
    2064:	00a69463          	bne	a3,a0,206c <SystemCoreClockUpdate+0x104>
    2068:	46e5                	li	a3,25
    206a:	bfe9                	j	2044 <SystemCoreClockUpdate+0xdc>
    206c:	453d                	li	a0,15
    206e:	00a69663          	bne	a3,a0,207a <SystemCoreClockUpdate+0x112>
    2072:	46d1                	li	a3,20
    2074:	02e68733          	mul	a4,a3,a4
    2078:	bfc9                	j	204a <SystemCoreClockUpdate+0xe2>
    207a:	0689                	addi	a3,a3,2
    207c:	bfe5                	j	2074 <SystemCoreClockUpdate+0x10c>
    207e:	8b3d                	andi	a4,a4,15
    2080:	00170693          	addi	a3,a4,1 # 40021001 <_eusrstack+0x20019001>
    2084:	007a1737          	lui	a4,0x7a1
    2088:	20070713          	addi	a4,a4,512 # 7a1200 <_data_lma+0x79b698>
    208c:	02d75733          	divu	a4,a4,a3
    2090:	b7f1                	j	205c <SystemCoreClockUpdate+0xf4>

00002092 <ADC1_2_IRQHandler>:
    2092:	a001                	j	2092 <ADC1_2_IRQHandler>

00002094 <handle_reset>:
    2094:	1fffe197          	auipc	gp,0x1fffe
    2098:	7ec18193          	addi	gp,gp,2028 # 20000880 <__global_pointer$>
    209c:	20006117          	auipc	sp,0x20006
    20a0:	f6410113          	addi	sp,sp,-156 # 20008000 <_eusrstack>
    20a4:	00004517          	auipc	a0,0x4
    20a8:	ac450513          	addi	a0,a0,-1340 # 5b68 <_data_lma>
    20ac:	1fffe597          	auipc	a1,0x1fffe
    20b0:	f5458593          	addi	a1,a1,-172 # 20000000 <_data_vma>
    20b4:	82018613          	addi	a2,gp,-2016 # 200000a0 <_edata>
    20b8:	00c5fa63          	bgeu	a1,a2,20cc <handle_reset+0x38>
    20bc:	00052283          	lw	t0,0(a0)
    20c0:	0055a023          	sw	t0,0(a1)
    20c4:	0511                	addi	a0,a0,4
    20c6:	0591                	addi	a1,a1,4
    20c8:	fec5eae3          	bltu	a1,a2,20bc <handle_reset+0x28>
    20cc:	82018513          	addi	a0,gp,-2016 # 200000a0 <_edata>
    20d0:	17418593          	addi	a1,gp,372 # 200009f4 <_ebss>
    20d4:	00b57763          	bgeu	a0,a1,20e2 <handle_reset+0x4e>
    20d8:	00052023          	sw	zero,0(a0)
    20dc:	0511                	addi	a0,a0,4
    20de:	feb56de3          	bltu	a0,a1,20d8 <handle_reset+0x44>
    20e2:	42fd                	li	t0,31
    20e4:	bc029073          	csrw	0xbc0,t0
    20e8:	42ad                	li	t0,11
    20ea:	80429073          	csrw	0x804,t0
    20ee:	000062b7          	lui	t0,0x6
    20f2:	08828293          	addi	t0,t0,136 # 6088 <_data_lma+0x520>
    20f6:	30029073          	csrw	mstatus,t0
    20fa:	ffffe297          	auipc	t0,0xffffe
    20fe:	f0a28293          	addi	t0,t0,-246 # 4 <_einit>
    2102:	0032e293          	ori	t0,t0,3
    2106:	30529073          	csrw	mtvec,t0
    210a:	d65ff0ef          	jal	ra,1e6e <SystemInit>
    210e:	ffffe297          	auipc	t0,0xffffe
    2112:	1f428293          	addi	t0,t0,500 # 302 <main>
    2116:	34129073          	csrw	mepc,t0
    211a:	30200073          	mret

0000211e <DBGMCU_GetCHIPID>:
    211e:	1ffff7b7          	lui	a5,0x1ffff
    2122:	7047a503          	lw	a0,1796(a5) # 1ffff704 <_data_lma+0x1fff9b9c>
    2126:	8082                	ret

00002128 <DMA_DeInit>:
    2128:	411c                	lw	a5,0(a0)
    212a:	6741                	lui	a4,0x10
    212c:	1779                	addi	a4,a4,-2
    212e:	8ff9                	and	a5,a5,a4
    2130:	c11c                	sw	a5,0(a0)
    2132:	00052023          	sw	zero,0(a0)
    2136:	00052223          	sw	zero,4(a0)
    213a:	00052423          	sw	zero,8(a0)
    213e:	400207b7          	lui	a5,0x40020
    2142:	00052623          	sw	zero,12(a0)
    2146:	00878713          	addi	a4,a5,8 # 40020008 <_eusrstack+0x20018008>
    214a:	00e51763          	bne	a0,a4,2158 <DMA_DeInit+0x30>
    214e:	43d8                	lw	a4,4(a5)
    2150:	00f76713          	ori	a4,a4,15
    2154:	c3d8                	sw	a4,4(a5)
    2156:	8082                	ret
    2158:	01c78713          	addi	a4,a5,28
    215c:	00e51663          	bne	a0,a4,2168 <DMA_DeInit+0x40>
    2160:	43d8                	lw	a4,4(a5)
    2162:	0f076713          	ori	a4,a4,240
    2166:	b7fd                	j	2154 <DMA_DeInit+0x2c>
    2168:	03078713          	addi	a4,a5,48
    216c:	00e51863          	bne	a0,a4,217c <DMA_DeInit+0x54>
    2170:	43d8                	lw	a4,4(a5)
    2172:	6685                	lui	a3,0x1
    2174:	f0068693          	addi	a3,a3,-256 # f00 <FindSCR+0x108>
    2178:	8f55                	or	a4,a4,a3
    217a:	bfe9                	j	2154 <DMA_DeInit+0x2c>
    217c:	04478713          	addi	a4,a5,68
    2180:	00e51563          	bne	a0,a4,218a <DMA_DeInit+0x62>
    2184:	43d8                	lw	a4,4(a5)
    2186:	66bd                	lui	a3,0xf
    2188:	bfc5                	j	2178 <DMA_DeInit+0x50>
    218a:	05878713          	addi	a4,a5,88
    218e:	00e51663          	bne	a0,a4,219a <DMA_DeInit+0x72>
    2192:	43d8                	lw	a4,4(a5)
    2194:	000f06b7          	lui	a3,0xf0
    2198:	b7c5                	j	2178 <DMA_DeInit+0x50>
    219a:	06c78713          	addi	a4,a5,108
    219e:	00e51663          	bne	a0,a4,21aa <DMA_DeInit+0x82>
    21a2:	43d8                	lw	a4,4(a5)
    21a4:	00f006b7          	lui	a3,0xf00
    21a8:	bfc1                	j	2178 <DMA_DeInit+0x50>
    21aa:	08078713          	addi	a4,a5,128
    21ae:	00e51663          	bne	a0,a4,21ba <DMA_DeInit+0x92>
    21b2:	43d8                	lw	a4,4(a5)
    21b4:	0f0006b7          	lui	a3,0xf000
    21b8:	b7c1                	j	2178 <DMA_DeInit+0x50>
    21ba:	40878713          	addi	a4,a5,1032
    21be:	00e51963          	bne	a0,a4,21d0 <DMA_DeInit+0xa8>
    21c2:	4047a703          	lw	a4,1028(a5)
    21c6:	00f76713          	ori	a4,a4,15
    21ca:	40e7a223          	sw	a4,1028(a5)
    21ce:	8082                	ret
    21d0:	41c78713          	addi	a4,a5,1052
    21d4:	00e51763          	bne	a0,a4,21e2 <DMA_DeInit+0xba>
    21d8:	4047a703          	lw	a4,1028(a5)
    21dc:	0f076713          	ori	a4,a4,240
    21e0:	b7ed                	j	21ca <DMA_DeInit+0xa2>
    21e2:	43078793          	addi	a5,a5,1072
    21e6:	00f51b63          	bne	a0,a5,21fc <DMA_DeInit+0xd4>
    21ea:	400207b7          	lui	a5,0x40020
    21ee:	4047a703          	lw	a4,1028(a5) # 40020404 <_eusrstack+0x20018404>
    21f2:	6685                	lui	a3,0x1
    21f4:	f0068693          	addi	a3,a3,-256 # f00 <FindSCR+0x108>
    21f8:	8f55                	or	a4,a4,a3
    21fa:	bfc1                	j	21ca <DMA_DeInit+0xa2>
    21fc:	400207b7          	lui	a5,0x40020
    2200:	44478713          	addi	a4,a5,1092 # 40020444 <_eusrstack+0x20018444>
    2204:	00e51663          	bne	a0,a4,2210 <DMA_DeInit+0xe8>
    2208:	4047a703          	lw	a4,1028(a5)
    220c:	66bd                	lui	a3,0xf
    220e:	b7ed                	j	21f8 <DMA_DeInit+0xd0>
    2210:	45878713          	addi	a4,a5,1112
    2214:	00e51763          	bne	a0,a4,2222 <DMA_DeInit+0xfa>
    2218:	4047a703          	lw	a4,1028(a5)
    221c:	000f06b7          	lui	a3,0xf0
    2220:	bfe1                	j	21f8 <DMA_DeInit+0xd0>
    2222:	46c78713          	addi	a4,a5,1132
    2226:	00e51763          	bne	a0,a4,2234 <DMA_DeInit+0x10c>
    222a:	4047a703          	lw	a4,1028(a5)
    222e:	00f006b7          	lui	a3,0xf00
    2232:	b7d9                	j	21f8 <DMA_DeInit+0xd0>
    2234:	48078713          	addi	a4,a5,1152
    2238:	00e51763          	bne	a0,a4,2246 <DMA_DeInit+0x11e>
    223c:	4047a703          	lw	a4,1028(a5)
    2240:	0f0006b7          	lui	a3,0xf000
    2244:	bf55                	j	21f8 <DMA_DeInit+0xd0>
    2246:	49078713          	addi	a4,a5,1168
    224a:	00e51963          	bne	a0,a4,225c <DMA_DeInit+0x134>
    224e:	4d47a703          	lw	a4,1236(a5)
    2252:	00f76713          	ori	a4,a4,15
    2256:	4ce7aa23          	sw	a4,1236(a5)
    225a:	8082                	ret
    225c:	4a078713          	addi	a4,a5,1184
    2260:	00e51763          	bne	a0,a4,226e <DMA_DeInit+0x146>
    2264:	4d47a703          	lw	a4,1236(a5)
    2268:	0f076713          	ori	a4,a4,240
    226c:	b7ed                	j	2256 <DMA_DeInit+0x12e>
    226e:	4b078713          	addi	a4,a5,1200
    2272:	00e51963          	bne	a0,a4,2284 <DMA_DeInit+0x15c>
    2276:	4d47a703          	lw	a4,1236(a5)
    227a:	6685                	lui	a3,0x1
    227c:	f0068693          	addi	a3,a3,-256 # f00 <FindSCR+0x108>
    2280:	8f55                	or	a4,a4,a3
    2282:	bfd1                	j	2256 <DMA_DeInit+0x12e>
    2284:	4c078713          	addi	a4,a5,1216
    2288:	fce519e3          	bne	a0,a4,225a <DMA_DeInit+0x132>
    228c:	4d47a703          	lw	a4,1236(a5)
    2290:	66bd                	lui	a3,0xf
    2292:	b7fd                	j	2280 <DMA_DeInit+0x158>

00002294 <DMA_Init>:
    2294:	411c                	lw	a5,0(a0)
    2296:	7761                	lui	a4,0xffff8
    2298:	073d                	addi	a4,a4,15
    229a:	5194                	lw	a3,32(a1)
    229c:	8f7d                	and	a4,a4,a5
    229e:	459c                	lw	a5,8(a1)
    22a0:	8fd5                	or	a5,a5,a3
    22a2:	4994                	lw	a3,16(a1)
    22a4:	8fd5                	or	a5,a5,a3
    22a6:	49d4                	lw	a3,20(a1)
    22a8:	8fd5                	or	a5,a5,a3
    22aa:	4d94                	lw	a3,24(a1)
    22ac:	8fd5                	or	a5,a5,a3
    22ae:	4dd4                	lw	a3,28(a1)
    22b0:	8fd5                	or	a5,a5,a3
    22b2:	51d4                	lw	a3,36(a1)
    22b4:	8fd5                	or	a5,a5,a3
    22b6:	5594                	lw	a3,40(a1)
    22b8:	8fd5                	or	a5,a5,a3
    22ba:	8fd9                	or	a5,a5,a4
    22bc:	c11c                	sw	a5,0(a0)
    22be:	45dc                	lw	a5,12(a1)
    22c0:	c15c                	sw	a5,4(a0)
    22c2:	419c                	lw	a5,0(a1)
    22c4:	c51c                	sw	a5,8(a0)
    22c6:	41dc                	lw	a5,4(a1)
    22c8:	c55c                	sw	a5,12(a0)
    22ca:	8082                	ret

000022cc <DMA_Cmd>:
    22cc:	411c                	lw	a5,0(a0)
    22ce:	c589                	beqz	a1,22d8 <DMA_Cmd+0xc>
    22d0:	0017e793          	ori	a5,a5,1
    22d4:	c11c                	sw	a5,0(a0)
    22d6:	8082                	ret
    22d8:	6741                	lui	a4,0x10
    22da:	1779                	addi	a4,a4,-2
    22dc:	8ff9                	and	a5,a5,a4
    22de:	bfdd                	j	22d4 <DMA_Cmd+0x8>

000022e0 <GPIO_Init>:
    22e0:	459c                	lw	a5,8(a1)
    22e2:	0107f713          	andi	a4,a5,16
    22e6:	00f7f813          	andi	a6,a5,15
    22ea:	c701                	beqz	a4,22f2 <GPIO_Init+0x12>
    22ec:	41d8                	lw	a4,4(a1)
    22ee:	00e86833          	or	a6,a6,a4
    22f2:	218e                	lhu	a1,0(a1)
    22f4:	0ff5f713          	andi	a4,a1,255
    22f8:	c339                	beqz	a4,233e <GPIO_Init+0x5e>
    22fa:	4118                	lw	a4,0(a0)
    22fc:	4681                	li	a3,0
    22fe:	4e85                	li	t4,1
    2300:	4f3d                	li	t5,15
    2302:	02800f93          	li	t6,40
    2306:	04800293          	li	t0,72
    230a:	4e21                	li	t3,8
    230c:	00de9633          	sll	a2,t4,a3
    2310:	00c5f8b3          	and	a7,a1,a2
    2314:	03161163          	bne	a2,a7,2336 <GPIO_Init+0x56>
    2318:	00269893          	slli	a7,a3,0x2
    231c:	011f1333          	sll	t1,t5,a7
    2320:	fff34313          	not	t1,t1
    2324:	00e37733          	and	a4,t1,a4
    2328:	011818b3          	sll	a7,a6,a7
    232c:	00e8e733          	or	a4,a7,a4
    2330:	05f79f63          	bne	a5,t6,238e <GPIO_Init+0xae>
    2334:	c950                	sw	a2,20(a0)
    2336:	0685                	addi	a3,a3,1
    2338:	fdc69ae3          	bne	a3,t3,230c <GPIO_Init+0x2c>
    233c:	c118                	sw	a4,0(a0)
    233e:	0ff00713          	li	a4,255
    2342:	04b77563          	bgeu	a4,a1,238c <GPIO_Init+0xac>
    2346:	4154                	lw	a3,4(a0)
    2348:	4621                	li	a2,8
    234a:	4e85                	li	t4,1
    234c:	4f3d                	li	t5,15
    234e:	02800f93          	li	t6,40
    2352:	04800293          	li	t0,72
    2356:	4e41                	li	t3,16
    2358:	00ce98b3          	sll	a7,t4,a2
    235c:	0115f733          	and	a4,a1,a7
    2360:	02e89263          	bne	a7,a4,2384 <GPIO_Init+0xa4>
    2364:	00261713          	slli	a4,a2,0x2
    2368:	1701                	addi	a4,a4,-32
    236a:	00ef1333          	sll	t1,t5,a4
    236e:	fff34313          	not	t1,t1
    2372:	00d376b3          	and	a3,t1,a3
    2376:	00e81733          	sll	a4,a6,a4
    237a:	8ed9                	or	a3,a3,a4
    237c:	01f79d63          	bne	a5,t6,2396 <GPIO_Init+0xb6>
    2380:	01152a23          	sw	a7,20(a0)
    2384:	0605                	addi	a2,a2,1
    2386:	fdc619e3          	bne	a2,t3,2358 <GPIO_Init+0x78>
    238a:	c154                	sw	a3,4(a0)
    238c:	8082                	ret
    238e:	fa5794e3          	bne	a5,t0,2336 <GPIO_Init+0x56>
    2392:	c910                	sw	a2,16(a0)
    2394:	b74d                	j	2336 <GPIO_Init+0x56>
    2396:	fe5797e3          	bne	a5,t0,2384 <GPIO_Init+0xa4>
    239a:	01152823          	sw	a7,16(a0)
    239e:	b7dd                	j	2384 <GPIO_Init+0xa4>

000023a0 <GPIO_ReadInputDataBit>:
    23a0:	4508                	lw	a0,8(a0)
    23a2:	8d6d                	and	a0,a0,a1
    23a4:	00a03533          	snez	a0,a0
    23a8:	8082                	ret

000023aa <GPIO_WriteBit>:
    23aa:	c219                	beqz	a2,23b0 <GPIO_WriteBit+0x6>
    23ac:	c90c                	sw	a1,16(a0)
    23ae:	8082                	ret
    23b0:	c94c                	sw	a1,20(a0)
    23b2:	8082                	ret

000023b4 <NVIC_PriorityGroupConfig>:
    23b4:	82a1ae23          	sw	a0,-1988(gp) # 200000bc <NVIC_Priority_Group>
    23b8:	8082                	ret

000023ba <NVIC_Init>:
    23ba:	83c1a703          	lw	a4,-1988(gp) # 200000bc <NVIC_Priority_Group>
    23be:	4789                	li	a5,2
    23c0:	2110                	lbu	a2,0(a0)
    23c2:	02f71163          	bne	a4,a5,23e4 <NVIC_Init+0x2a>
    23c6:	3114                	lbu	a3,1(a0)
    23c8:	478d                	li	a5,3
    23ca:	00d7ed63          	bltu	a5,a3,23e4 <NVIC_Init+0x2a>
    23ce:	213c                	lbu	a5,2(a0)
    23d0:	069a                	slli	a3,a3,0x6
    23d2:	e000e737          	lui	a4,0xe000e
    23d6:	0796                	slli	a5,a5,0x5
    23d8:	8fd5                	or	a5,a5,a3
    23da:	0ff7f793          	andi	a5,a5,255
    23de:	9732                	add	a4,a4,a2
    23e0:	40f70023          	sb	a5,1024(a4) # e000e400 <_eusrstack+0xc0006400>
    23e4:	4154                	lw	a3,4(a0)
    23e6:	4705                	li	a4,1
    23e8:	00565793          	srli	a5,a2,0x5
    23ec:	00c71733          	sll	a4,a4,a2
    23f0:	ca89                	beqz	a3,2402 <NVIC_Init+0x48>
    23f2:	04078793          	addi	a5,a5,64
    23f6:	078a                	slli	a5,a5,0x2
    23f8:	e000e6b7          	lui	a3,0xe000e
    23fc:	97b6                	add	a5,a5,a3
    23fe:	c398                	sw	a4,0(a5)
    2400:	8082                	ret
    2402:	06078793          	addi	a5,a5,96
    2406:	bfc5                	j	23f6 <NVIC_Init+0x3c>

00002408 <RCC_GetClocksFreq>:
    2408:	40021737          	lui	a4,0x40021
    240c:	435c                	lw	a5,4(a4)
    240e:	4691                	li	a3,4
    2410:	8bb1                	andi	a5,a5,12
    2412:	00d78563          	beq	a5,a3,241c <RCC_GetClocksFreq+0x14>
    2416:	46a1                	li	a3,8
    2418:	06d78263          	beq	a5,a3,247c <RCC_GetClocksFreq+0x74>
    241c:	007a17b7          	lui	a5,0x7a1
    2420:	20078793          	addi	a5,a5,512 # 7a1200 <_data_lma+0x79b698>
    2424:	c11c                	sw	a5,0(a0)
    2426:	40021637          	lui	a2,0x40021
    242a:	425c                	lw	a5,4(a2)
    242c:	20000737          	lui	a4,0x20000
    2430:	01070713          	addi	a4,a4,16 # 20000010 <APBAHBPrescTable>
    2434:	8391                	srli	a5,a5,0x4
    2436:	8bbd                	andi	a5,a5,15
    2438:	97ba                	add	a5,a5,a4
    243a:	2394                	lbu	a3,0(a5)
    243c:	411c                	lw	a5,0(a0)
    243e:	00d7d7b3          	srl	a5,a5,a3
    2442:	c15c                	sw	a5,4(a0)
    2444:	4254                	lw	a3,4(a2)
    2446:	82a1                	srli	a3,a3,0x8
    2448:	8a9d                	andi	a3,a3,7
    244a:	96ba                	add	a3,a3,a4
    244c:	2294                	lbu	a3,0(a3)
    244e:	00d7d6b3          	srl	a3,a5,a3
    2452:	c514                	sw	a3,8(a0)
    2454:	4254                	lw	a3,4(a2)
    2456:	82ad                	srli	a3,a3,0xb
    2458:	8a9d                	andi	a3,a3,7
    245a:	9736                	add	a4,a4,a3
    245c:	2318                	lbu	a4,0(a4)
    245e:	00e7d7b3          	srl	a5,a5,a4
    2462:	c55c                	sw	a5,12(a0)
    2464:	4258                	lw	a4,4(a2)
    2466:	8339                	srli	a4,a4,0xe
    2468:	00377693          	andi	a3,a4,3
    246c:	80c18713          	addi	a4,gp,-2036 # 2000008c <ADCPrescTable>
    2470:	9736                	add	a4,a4,a3
    2472:	2318                	lbu	a4,0(a4)
    2474:	02e7d7b3          	divu	a5,a5,a4
    2478:	c91c                	sw	a5,16(a0)
    247a:	8082                	ret
    247c:	435c                	lw	a5,4(a4)
    247e:	4358                	lw	a4,4(a4)
    2480:	66c1                	lui	a3,0x10
    2482:	83c9                	srli	a5,a5,0x12
    2484:	8f75                	and	a4,a4,a3
    2486:	1ffff6b7          	lui	a3,0x1ffff
    248a:	70c6a683          	lw	a3,1804(a3) # 1ffff70c <_data_lma+0x1fff9ba4>
    248e:	8bbd                	andi	a5,a5,15
    2490:	0789                	addi	a5,a5,2
    2492:	01169613          	slli	a2,a3,0x11
    2496:	00064863          	bltz	a2,24a6 <RCC_GetClocksFreq+0x9e>
    249a:	46c5                	li	a3,17
    249c:	4601                	li	a2,0
    249e:	02d79263          	bne	a5,a3,24c2 <RCC_GetClocksFreq+0xba>
    24a2:	47c9                	li	a5,18
    24a4:	a839                	j	24c2 <RCC_GetClocksFreq+0xba>
    24a6:	4689                	li	a3,2
    24a8:	02d78f63          	beq	a5,a3,24e6 <RCC_GetClocksFreq+0xde>
    24ac:	46bd                	li	a3,15
    24ae:	02d78e63          	beq	a5,a3,24ea <RCC_GetClocksFreq+0xe2>
    24b2:	46c1                	li	a3,16
    24b4:	02d78e63          	beq	a5,a3,24f0 <RCC_GetClocksFreq+0xe8>
    24b8:	46c5                	li	a3,17
    24ba:	4601                	li	a2,0
    24bc:	00d79363          	bne	a5,a3,24c2 <RCC_GetClocksFreq+0xba>
    24c0:	47c1                	li	a5,16
    24c2:	ef1d                	bnez	a4,2500 <RCC_GetClocksFreq+0xf8>
    24c4:	40024737          	lui	a4,0x40024
    24c8:	80072703          	lw	a4,-2048(a4) # 40023800 <_eusrstack+0x2001b800>
    24cc:	8b41                	andi	a4,a4,16
    24ce:	c705                	beqz	a4,24f6 <RCC_GetClocksFreq+0xee>
    24d0:	007a1737          	lui	a4,0x7a1
    24d4:	20070713          	addi	a4,a4,512 # 7a1200 <_data_lma+0x79b698>
    24d8:	02f707b3          	mul	a5,a4,a5
    24dc:	c11c                	sw	a5,0(a0)
    24de:	d621                	beqz	a2,2426 <RCC_GetClocksFreq+0x1e>
    24e0:	411c                	lw	a5,0(a0)
    24e2:	8385                	srli	a5,a5,0x1
    24e4:	b781                	j	2424 <RCC_GetClocksFreq+0x1c>
    24e6:	4601                	li	a2,0
    24e8:	bf6d                	j	24a2 <RCC_GetClocksFreq+0x9a>
    24ea:	4605                	li	a2,1
    24ec:	47b5                	li	a5,13
    24ee:	bfd1                	j	24c2 <RCC_GetClocksFreq+0xba>
    24f0:	4601                	li	a2,0
    24f2:	47bd                	li	a5,15
    24f4:	b7f9                	j	24c2 <RCC_GetClocksFreq+0xba>
    24f6:	003d1737          	lui	a4,0x3d1
    24fa:	90070713          	addi	a4,a4,-1792 # 3d0900 <_data_lma+0x3cad98>
    24fe:	bfe9                	j	24d8 <RCC_GetClocksFreq+0xd0>
    2500:	400215b7          	lui	a1,0x40021
    2504:	55d8                	lw	a4,44(a1)
    2506:	00f71693          	slli	a3,a4,0xf
    250a:	55d8                	lw	a4,44(a1)
    250c:	0406df63          	bgez	a3,256a <RCC_GetClocksFreq+0x162>
    2510:	8311                	srli	a4,a4,0x4
    2512:	8b3d                	andi	a4,a4,15
    2514:	00170693          	addi	a3,a4,1
    2518:	007a1737          	lui	a4,0x7a1
    251c:	20070713          	addi	a4,a4,512 # 7a1200 <_data_lma+0x79b698>
    2520:	02d75733          	divu	a4,a4,a3
    2524:	c118                	sw	a4,0(a0)
    2526:	55d4                	lw	a3,44(a1)
    2528:	82a1                	srli	a3,a3,0x8
    252a:	8abd                	andi	a3,a3,15
    252c:	e28d                	bnez	a3,254e <RCC_GetClocksFreq+0x146>
    252e:	4695                	li	a3,5
    2530:	02d70733          	mul	a4,a4,a3
    2534:	8305                	srli	a4,a4,0x1
    2536:	c118                	sw	a4,0(a0)
    2538:	40021737          	lui	a4,0x40021
    253c:	5758                	lw	a4,44(a4)
    253e:	4114                	lw	a3,0(a0)
    2540:	8b3d                	andi	a4,a4,15
    2542:	0705                	addi	a4,a4,1
    2544:	02e6d733          	divu	a4,a3,a4
    2548:	c118                	sw	a4,0(a0)
    254a:	4118                	lw	a4,0(a0)
    254c:	b771                	j	24d8 <RCC_GetClocksFreq+0xd0>
    254e:	4585                	li	a1,1
    2550:	00b69463          	bne	a3,a1,2558 <RCC_GetClocksFreq+0x150>
    2554:	46e5                	li	a3,25
    2556:	bfe9                	j	2530 <RCC_GetClocksFreq+0x128>
    2558:	45bd                	li	a1,15
    255a:	00b69663          	bne	a3,a1,2566 <RCC_GetClocksFreq+0x15e>
    255e:	46d1                	li	a3,20
    2560:	02e68733          	mul	a4,a3,a4
    2564:	bfc9                	j	2536 <RCC_GetClocksFreq+0x12e>
    2566:	0689                	addi	a3,a3,2
    2568:	bfe5                	j	2560 <RCC_GetClocksFreq+0x158>
    256a:	8b3d                	andi	a4,a4,15
    256c:	00170693          	addi	a3,a4,1 # 40021001 <_eusrstack+0x20019001>
    2570:	007a1737          	lui	a4,0x7a1
    2574:	20070713          	addi	a4,a4,512 # 7a1200 <_data_lma+0x79b698>
    2578:	02d75733          	divu	a4,a4,a3
    257c:	b7f1                	j	2548 <RCC_GetClocksFreq+0x140>

0000257e <RCC_AHBPeriphClockCmd>:
    257e:	c599                	beqz	a1,258c <RCC_AHBPeriphClockCmd+0xe>
    2580:	40021737          	lui	a4,0x40021
    2584:	4b5c                	lw	a5,20(a4)
    2586:	8d5d                	or	a0,a0,a5
    2588:	cb48                	sw	a0,20(a4)
    258a:	8082                	ret
    258c:	400217b7          	lui	a5,0x40021
    2590:	4bd8                	lw	a4,20(a5)
    2592:	fff54513          	not	a0,a0
    2596:	8d79                	and	a0,a0,a4
    2598:	cbc8                	sw	a0,20(a5)
    259a:	8082                	ret

0000259c <RCC_APB2PeriphClockCmd>:
    259c:	c599                	beqz	a1,25aa <RCC_APB2PeriphClockCmd+0xe>
    259e:	40021737          	lui	a4,0x40021
    25a2:	4f1c                	lw	a5,24(a4)
    25a4:	8d5d                	or	a0,a0,a5
    25a6:	cf08                	sw	a0,24(a4)
    25a8:	8082                	ret
    25aa:	400217b7          	lui	a5,0x40021
    25ae:	4f98                	lw	a4,24(a5)
    25b0:	fff54513          	not	a0,a0
    25b4:	8d79                	and	a0,a0,a4
    25b6:	cf88                	sw	a0,24(a5)
    25b8:	8082                	ret

000025ba <SDIO_DeInit>:
    25ba:	400187b7          	lui	a5,0x40018
    25be:	0007a023          	sw	zero,0(a5) # 40018000 <_eusrstack+0x20010000>
    25c2:	0007a223          	sw	zero,4(a5)
    25c6:	0007a423          	sw	zero,8(a5)
    25ca:	0007a623          	sw	zero,12(a5)
    25ce:	0207a223          	sw	zero,36(a5)
    25d2:	0207a423          	sw	zero,40(a5)
    25d6:	00c00737          	lui	a4,0xc00
    25da:	0207a623          	sw	zero,44(a5)
    25de:	7ff70713          	addi	a4,a4,2047 # c007ff <_data_lma+0xbfac97>
    25e2:	df98                	sw	a4,56(a5)
    25e4:	0207ae23          	sw	zero,60(a5)
    25e8:	8082                	ret

000025ea <SDIO_Init>:
    25ea:	4154                	lw	a3,4(a0)
    25ec:	451c                	lw	a5,8(a0)
    25ee:	40018637          	lui	a2,0x40018
    25f2:	4258                	lw	a4,4(a2)
    25f4:	8fd5                	or	a5,a5,a3
    25f6:	76e1                	lui	a3,0xffff8
    25f8:	10068693          	addi	a3,a3,256 # ffff8100 <_eusrstack+0xdfff0100>
    25fc:	8f75                	and	a4,a4,a3
    25fe:	8fd9                	or	a5,a5,a4
    2600:	4558                	lw	a4,12(a0)
    2602:	8fd9                	or	a5,a5,a4
    2604:	4118                	lw	a4,0(a0)
    2606:	8fd9                	or	a5,a5,a4
    2608:	4918                	lw	a4,16(a0)
    260a:	8fd9                	or	a5,a5,a4
    260c:	2958                	lbu	a4,20(a0)
    260e:	8fd9                	or	a5,a5,a4
    2610:	c25c                	sw	a5,4(a2)
    2612:	8082                	ret

00002614 <SDIO_ClockCmd>:
    2614:	40018737          	lui	a4,0x40018
    2618:	435c                	lw	a5,4(a4)
    261a:	c509                	beqz	a0,2624 <SDIO_ClockCmd+0x10>
    261c:	1007e793          	ori	a5,a5,256
    2620:	c35c                	sw	a5,4(a4)
    2622:	8082                	ret
    2624:	eff7f793          	andi	a5,a5,-257
    2628:	bfe5                	j	2620 <SDIO_ClockCmd+0xc>

0000262a <SDIO_SetPowerState>:
    262a:	400187b7          	lui	a5,0x40018
    262e:	4398                	lw	a4,0(a5)
    2630:	9b71                	andi	a4,a4,-4
    2632:	c398                	sw	a4,0(a5)
    2634:	4398                	lw	a4,0(a5)
    2636:	8d59                	or	a0,a0,a4
    2638:	c388                	sw	a0,0(a5)
    263a:	8082                	ret

0000263c <SDIO_GetPowerState>:
    263c:	400187b7          	lui	a5,0x40018
    2640:	4388                	lw	a0,0(a5)
    2642:	890d                	andi	a0,a0,3
    2644:	8082                	ret

00002646 <SDIO_DMACmd>:
    2646:	40018737          	lui	a4,0x40018
    264a:	575c                	lw	a5,44(a4)
    264c:	c509                	beqz	a0,2656 <SDIO_DMACmd+0x10>
    264e:	0087e793          	ori	a5,a5,8
    2652:	d75c                	sw	a5,44(a4)
    2654:	8082                	ret
    2656:	9bdd                	andi	a5,a5,-9
    2658:	bfed                	j	2652 <SDIO_DMACmd+0xc>

0000265a <SDIO_SendCommand>:
    265a:	411c                	lw	a5,0(a0)
    265c:	40018737          	lui	a4,0x40018
    2660:	c71c                	sw	a5,8(a4)
    2662:	4754                	lw	a3,12(a4)
    2664:	415c                	lw	a5,4(a0)
    2666:	4510                	lw	a2,8(a0)
    2668:	8006f693          	andi	a3,a3,-2048
    266c:	8fd1                	or	a5,a5,a2
    266e:	8fd5                	or	a5,a5,a3
    2670:	4554                	lw	a3,12(a0)
    2672:	8fd5                	or	a5,a5,a3
    2674:	4914                	lw	a3,16(a0)
    2676:	8fd5                	or	a5,a5,a3
    2678:	c75c                	sw	a5,12(a4)
    267a:	8082                	ret

0000267c <SDIO_DataConfig>:
    267c:	411c                	lw	a5,0(a0)
    267e:	40018737          	lui	a4,0x40018
    2682:	d35c                	sw	a5,36(a4)
    2684:	415c                	lw	a5,4(a0)
    2686:	d71c                	sw	a5,40(a4)
    2688:	5754                	lw	a3,44(a4)
    268a:	451c                	lw	a5,8(a0)
    268c:	4550                	lw	a2,12(a0)
    268e:	f086f693          	andi	a3,a3,-248
    2692:	8fd1                	or	a5,a5,a2
    2694:	8fd5                	or	a5,a5,a3
    2696:	4914                	lw	a3,16(a0)
    2698:	8fd5                	or	a5,a5,a3
    269a:	4954                	lw	a3,20(a0)
    269c:	8fd5                	or	a5,a5,a3
    269e:	d75c                	sw	a5,44(a4)
    26a0:	8082                	ret

000026a2 <SDIO_ReadData>:
    26a2:	400187b7          	lui	a5,0x40018
    26a6:	0807a503          	lw	a0,128(a5) # 40018080 <_eusrstack+0x20010080>
    26aa:	8082                	ret

000026ac <SDIO_WriteData>:
    26ac:	400187b7          	lui	a5,0x40018
    26b0:	08a7a023          	sw	a0,128(a5) # 40018080 <_eusrstack+0x20010080>
    26b4:	8082                	ret

000026b6 <SDIO_GetFlagStatus>:
    26b6:	400187b7          	lui	a5,0x40018
    26ba:	5bdc                	lw	a5,52(a5)
    26bc:	8d7d                	and	a0,a0,a5
    26be:	00a03533          	snez	a0,a0
    26c2:	8082                	ret

000026c4 <SDIO_ClearFlag>:
    26c4:	400187b7          	lui	a5,0x40018
    26c8:	df88                	sw	a0,56(a5)
    26ca:	8082                	ret

000026cc <USART_Init>:
    26cc:	b25fd2ef          	jal	t0,1f0 <__riscv_save_0>
    26d0:	2916                	lhu	a3,16(a0)
    26d2:	77f5                	lui	a5,0xffffd
    26d4:	17fd                	addi	a5,a5,-1
    26d6:	8ff5                	and	a5,a5,a3
    26d8:	21f6                	lhu	a3,6(a1)
    26da:	25da                	lhu	a4,12(a1)
    26dc:	7179                	addi	sp,sp,-48
    26de:	8fd5                	or	a5,a5,a3
    26e0:	a91e                	sh	a5,16(a0)
    26e2:	2556                	lhu	a3,12(a0)
    26e4:	77fd                	lui	a5,0xfffff
    26e6:	9f378793          	addi	a5,a5,-1549 # ffffe9f3 <_eusrstack+0xdfff69f3>
    26ea:	8ff5                	and	a5,a5,a3
    26ec:	21d6                	lhu	a3,4(a1)
    26ee:	842a                	mv	s0,a0
    26f0:	c62e                	sw	a1,12(sp)
    26f2:	8fd5                	or	a5,a5,a3
    26f4:	2596                	lhu	a3,8(a1)
    26f6:	8fd5                	or	a5,a5,a3
    26f8:	25b6                	lhu	a3,10(a1)
    26fa:	8fd5                	or	a5,a5,a3
    26fc:	a55e                	sh	a5,12(a0)
    26fe:	295e                	lhu	a5,20(a0)
    2700:	07c2                	slli	a5,a5,0x10
    2702:	83c1                	srli	a5,a5,0x10
    2704:	cff7f793          	andi	a5,a5,-769
    2708:	8fd9                	or	a5,a5,a4
    270a:	a95e                	sh	a5,20(a0)
    270c:	0868                	addi	a0,sp,28
    270e:	cfbff0ef          	jal	ra,2408 <RCC_GetClocksFreq>
    2712:	400147b7          	lui	a5,0x40014
    2716:	80078793          	addi	a5,a5,-2048 # 40013800 <_eusrstack+0x2000b800>
    271a:	45b2                	lw	a1,12(sp)
    271c:	02f41e63          	bne	s0,a5,2758 <USART_Init+0x8c>
    2720:	57a2                	lw	a5,40(sp)
    2722:	4765                	li	a4,25
    2724:	02e787b3          	mul	a5,a5,a4
    2728:	4198                	lw	a4,0(a1)
    272a:	06400693          	li	a3,100
    272e:	070a                	slli	a4,a4,0x2
    2730:	02e7d7b3          	divu	a5,a5,a4
    2734:	02d7d733          	divu	a4,a5,a3
    2738:	02d7f7b3          	remu	a5,a5,a3
    273c:	0712                	slli	a4,a4,0x4
    273e:	0792                	slli	a5,a5,0x4
    2740:	03278793          	addi	a5,a5,50
    2744:	02d7d7b3          	divu	a5,a5,a3
    2748:	8bbd                	andi	a5,a5,15
    274a:	8fd9                	or	a5,a5,a4
    274c:	07c2                	slli	a5,a5,0x10
    274e:	83c1                	srli	a5,a5,0x10
    2750:	a41e                	sh	a5,8(s0)
    2752:	6145                	addi	sp,sp,48
    2754:	ac1fd06f          	j	214 <__riscv_restore_0>
    2758:	5792                	lw	a5,36(sp)
    275a:	b7e1                	j	2722 <USART_Init+0x56>

0000275c <USART_Cmd>:
    275c:	c591                	beqz	a1,2768 <USART_Cmd+0xc>
    275e:	255e                	lhu	a5,12(a0)
    2760:	6709                	lui	a4,0x2
    2762:	8fd9                	or	a5,a5,a4
    2764:	a55e                	sh	a5,12(a0)
    2766:	8082                	ret
    2768:	255a                	lhu	a4,12(a0)
    276a:	77f9                	lui	a5,0xffffe
    276c:	17fd                	addi	a5,a5,-1
    276e:	8ff9                	and	a5,a5,a4
    2770:	bfd5                	j	2764 <USART_Cmd+0x8>

00002772 <USART_SendData>:
    2772:	1ff5f593          	andi	a1,a1,511
    2776:	a14e                	sh	a1,4(a0)
    2778:	8082                	ret

0000277a <USART_GetFlagStatus>:
    277a:	210a                	lhu	a0,0(a0)
    277c:	8d6d                	and	a0,a0,a1
    277e:	00a03533          	snez	a0,a0
    2782:	8082                	ret

00002784 <disk_status>:
    2784:	157d                	addi	a0,a0,-1
    2786:	00a03533          	snez	a0,a0
    278a:	8082                	ret

0000278c <disk_initialize>:
    278c:	4785                	li	a5,1
    278e:	00f51a63          	bne	a0,a5,27a2 <disk_initialize+0x16>
    2792:	a5ffd2ef          	jal	t0,1f0 <__riscv_save_0>
    2796:	8e9fe0ef          	jal	ra,107e <SD_Init>
    279a:	0ff57513          	andi	a0,a0,255
    279e:	a77fd06f          	j	214 <__riscv_restore_0>
    27a2:	4505                	li	a0,1
    27a4:	8082                	ret

000027a6 <disk_read>:
    27a6:	4705                	li	a4,1
    27a8:	00e51d63          	bne	a0,a4,27c2 <disk_read+0x1c>
    27ac:	a45fd2ef          	jal	t0,1f0 <__riscv_save_0>
    27b0:	87ae                	mv	a5,a1
    27b2:	853e                	mv	a0,a5
    27b4:	85b2                	mv	a1,a2
    27b6:	0ff6f613          	andi	a2,a3,255
    27ba:	dc6ff0ef          	jal	ra,1d80 <SD_ReadDisk>
    27be:	a57fd06f          	j	214 <__riscv_restore_0>
    27c2:	4511                	li	a0,4
    27c4:	8082                	ret

000027c6 <disk_write>:
    27c6:	4705                	li	a4,1
    27c8:	00e51d63          	bne	a0,a4,27e2 <disk_write+0x1c>
    27cc:	a25fd2ef          	jal	t0,1f0 <__riscv_save_0>
    27d0:	87ae                	mv	a5,a1
    27d2:	853e                	mv	a0,a5
    27d4:	85b2                	mv	a1,a2
    27d6:	0ff6f613          	andi	a2,a3,255
    27da:	e1eff0ef          	jal	ra,1df8 <SD_WriteDisk>
    27de:	a37fd06f          	j	214 <__riscv_restore_0>
    27e2:	4511                	li	a0,4
    27e4:	8082                	ret

000027e6 <disk_ioctl>:
    27e6:	4785                	li	a5,1
    27e8:	00f51b63          	bne	a0,a5,27fe <disk_ioctl+0x18>
    27ec:	00a58b63          	beq	a1,a0,2802 <disk_ioctl+0x1c>
    27f0:	c599                	beqz	a1,27fe <disk_ioctl+0x18>
    27f2:	478d                	li	a5,3
    27f4:	00b7e563          	bltu	a5,a1,27fe <disk_ioctl+0x18>
    27f8:	f181a783          	lw	a5,-232(gp) # 20000798 <SDCardInfo+0x50>
    27fc:	a21e                	sh	a5,0(a2)
    27fe:	4511                	li	a0,4
    2800:	8082                	ret
    2802:	9effd2ef          	jal	t0,1f0 <__riscv_save_0>
    2806:	ec818793          	addi	a5,gp,-312 # 20000748 <SDCardInfo>
    280a:	8432                	mv	s0,a2
    280c:	47a8                	lw	a0,72(a5)
    280e:	4bb0                	lw	a2,80(a5)
    2810:	47ec                	lw	a1,76(a5)
    2812:	4681                	li	a3,0
    2814:	1e5010ef          	jal	ra,41f8 <__divdi3>
    2818:	a00a                	sh	a0,0(s0)
    281a:	4511                	li	a0,4
    281c:	9f9fd06f          	j	214 <__riscv_restore_0>

00002820 <get_fattime>:
    2820:	4501                	li	a0,0
    2822:	8082                	ret

00002824 <ld_dword>:
    2824:	313c                	lbu	a5,3(a0)
    2826:	2138                	lbu	a4,2(a0)
    2828:	07a2                	slli	a5,a5,0x8
    282a:	8fd9                	or	a5,a5,a4
    282c:	3118                	lbu	a4,1(a0)
    282e:	07a2                	slli	a5,a5,0x8
    2830:	2108                	lbu	a0,0(a0)
    2832:	8fd9                	or	a5,a5,a4
    2834:	07a2                	slli	a5,a5,0x8
    2836:	8d5d                	or	a0,a0,a5
    2838:	8082                	ret

0000283a <st_dword>:
    283a:	0085d793          	srli	a5,a1,0x8
    283e:	a10c                	sb	a1,0(a0)
    2840:	b11c                	sb	a5,1(a0)
    2842:	0105d793          	srli	a5,a1,0x10
    2846:	81e1                	srli	a1,a1,0x18
    2848:	a13c                	sb	a5,2(a0)
    284a:	b12c                	sb	a1,3(a0)
    284c:	8082                	ret

0000284e <clst2sect>:
    284e:	4958                	lw	a4,20(a0)
    2850:	15f9                	addi	a1,a1,-2
    2852:	1779                	addi	a4,a4,-2
    2854:	00e5f863          	bgeu	a1,a4,2864 <clst2sect+0x16>
    2858:	253e                	lhu	a5,10(a0)
    285a:	5508                	lw	a0,40(a0)
    285c:	02b787b3          	mul	a5,a5,a1
    2860:	953e                	add	a0,a0,a5
    2862:	8082                	ret
    2864:	4501                	li	a0,0
    2866:	8082                	ret

00002868 <get_ldnumber>:
    2868:	411c                	lw	a5,0(a0)
    286a:	cb85                	beqz	a5,289a <get_ldnumber+0x32>
    286c:	86be                	mv	a3,a5
    286e:	02000593          	li	a1,32
    2872:	03a00613          	li	a2,58
    2876:	0685                	addi	a3,a3,1
    2878:	fff68703          	lb	a4,-1(a3)
    287c:	0ff77813          	andi	a6,a4,255
    2880:	0305fb63          	bgeu	a1,a6,28b6 <get_ldnumber+0x4e>
    2884:	fec719e3          	bne	a4,a2,2876 <get_ldnumber+0xe>
    2888:	00078603          	lb	a2,0(a5) # ffffe000 <_eusrstack+0xdfff6000>
    288c:	4725                	li	a4,9
    288e:	fd060613          	addi	a2,a2,-48 # 40017fd0 <_eusrstack+0x2000ffd0>
    2892:	0ff67593          	andi	a1,a2,255
    2896:	00b77463          	bgeu	a4,a1,289e <get_ldnumber+0x36>
    289a:	57fd                	li	a5,-1
    289c:	a819                	j	28b2 <get_ldnumber+0x4a>
    289e:	00278713          	addi	a4,a5,2
    28a2:	57fd                	li	a5,-1
    28a4:	00e69763          	bne	a3,a4,28b2 <get_ldnumber+0x4a>
    28a8:	4709                	li	a4,2
    28aa:	87b2                	mv	a5,a2
    28ac:	fec747e3          	blt	a4,a2,289a <get_ldnumber+0x32>
    28b0:	c114                	sw	a3,0(a0)
    28b2:	853e                	mv	a0,a5
    28b4:	8082                	ret
    28b6:	4781                	li	a5,0
    28b8:	bfed                	j	28b2 <get_ldnumber+0x4a>

000028ba <validate>:
    28ba:	e919                	bnez	a0,28d0 <validate+0x16>
    28bc:	4781                	li	a5,0
    28be:	4525                	li	a0,9
    28c0:	c19c                	sw	a5,0(a1)
    28c2:	8082                	ret
    28c4:	4525                	li	a0,9
    28c6:	4781                	li	a5,0
    28c8:	c19c                	sw	a5,0(a1)
    28ca:	0141                	addi	sp,sp,16
    28cc:	949fd06f          	j	214 <__riscv_restore_0>
    28d0:	921fd2ef          	jal	t0,1f0 <__riscv_save_0>
    28d4:	411c                	lw	a5,0(a0)
    28d6:	1141                	addi	sp,sp,-16
    28d8:	842a                	mv	s0,a0
    28da:	d7ed                	beqz	a5,28c4 <validate+0xa>
    28dc:	2398                	lbu	a4,0(a5)
    28de:	d37d                	beqz	a4,28c4 <validate+0xa>
    28e0:	2156                	lhu	a3,4(a0)
    28e2:	23fa                	lhu	a4,6(a5)
    28e4:	fee690e3          	bne	a3,a4,28c4 <validate+0xa>
    28e8:	3388                	lbu	a0,1(a5)
    28ea:	c62e                	sw	a1,12(sp)
    28ec:	3d61                	jal	2784 <disk_status>
    28ee:	8905                	andi	a0,a0,1
    28f0:	45b2                	lw	a1,12(sp)
    28f2:	f969                	bnez	a0,28c4 <validate+0xa>
    28f4:	401c                	lw	a5,0(s0)
    28f6:	bfc9                	j	28c8 <validate+0xe>

000028f8 <ld_clust.isra.0>:
    28f8:	3dbc                	lbu	a5,27(a1)
    28fa:	2db8                	lbu	a4,26(a1)
    28fc:	07a2                	slli	a5,a5,0x8
    28fe:	8fd9                	or	a5,a5,a4
    2900:	470d                	li	a4,3
    2902:	00e51863          	bne	a0,a4,2912 <ld_clust.isra.0+0x1a>
    2906:	39d8                	lbu	a4,21(a1)
    2908:	29d4                	lbu	a3,20(a1)
    290a:	0722                	slli	a4,a4,0x8
    290c:	8f55                	or	a4,a4,a3
    290e:	0742                	slli	a4,a4,0x10
    2910:	8fd9                	or	a5,a5,a4
    2912:	853e                	mv	a0,a5
    2914:	8082                	ret

00002916 <st_clust.isra.1>:
    2916:	01061793          	slli	a5,a2,0x10
    291a:	83c1                	srli	a5,a5,0x10
    291c:	83a1                	srli	a5,a5,0x8
    291e:	bdbc                	sb	a5,27(a1)
    2920:	adb0                	sb	a2,26(a1)
    2922:	2118                	lbu	a4,0(a0)
    2924:	478d                	li	a5,3
    2926:	00f71663          	bne	a4,a5,2932 <st_clust.isra.1+0x1c>
    292a:	8241                	srli	a2,a2,0x10
    292c:	a9d0                	sb	a2,20(a1)
    292e:	8221                	srli	a2,a2,0x8
    2930:	b9d0                	sb	a2,21(a1)
    2932:	8082                	ret

00002934 <sync_window.part.3>:
    2934:	8bdfd2ef          	jal	t0,1f0 <__riscv_save_0>
    2938:	03050913          	addi	s2,a0,48
    293c:	5550                	lw	a2,44(a0)
    293e:	842a                	mv	s0,a0
    2940:	3108                	lbu	a0,1(a0)
    2942:	4685                	li	a3,1
    2944:	85ca                	mv	a1,s2
    2946:	3541                	jal	27c6 <disk_write>
    2948:	4485                	li	s1,1
    294a:	e50d                	bnez	a0,2974 <sync_window.part.3+0x40>
    294c:	5450                	lw	a2,44(s0)
    294e:	501c                	lw	a5,32(s0)
    2950:	4c18                	lw	a4,24(s0)
    2952:	00040223          	sb	zero,4(s0)
    2956:	40f607b3          	sub	a5,a2,a5
    295a:	4481                	li	s1,0
    295c:	00e7fc63          	bgeu	a5,a4,2974 <sync_window.part.3+0x40>
    2960:	3034                	lbu	a3,3(s0)
    2962:	4789                	li	a5,2
    2964:	00f69863          	bne	a3,a5,2974 <sync_window.part.3+0x40>
    2968:	3008                	lbu	a0,1(s0)
    296a:	4685                	li	a3,1
    296c:	963a                	add	a2,a2,a4
    296e:	85ca                	mv	a1,s2
    2970:	e57ff0ef          	jal	ra,27c6 <disk_write>
    2974:	8526                	mv	a0,s1
    2976:	89ffd06f          	j	214 <__riscv_restore_0>

0000297a <move_window>:
    297a:	555c                	lw	a5,44(a0)
    297c:	02b78b63          	beq	a5,a1,29b2 <move_window+0x38>
    2980:	871fd2ef          	jal	t0,1f0 <__riscv_save_0>
    2984:	215c                	lbu	a5,4(a0)
    2986:	842a                	mv	s0,a0
    2988:	84ae                	mv	s1,a1
    298a:	ef91                	bnez	a5,29a6 <move_window+0x2c>
    298c:	3008                	lbu	a0,1(s0)
    298e:	4685                	li	a3,1
    2990:	8626                	mv	a2,s1
    2992:	03040593          	addi	a1,s0,48
    2996:	e11ff0ef          	jal	ra,27a6 <disk_read>
    299a:	4781                	li	a5,0
    299c:	c119                	beqz	a0,29a2 <move_window+0x28>
    299e:	4785                	li	a5,1
    29a0:	54fd                	li	s1,-1
    29a2:	d444                	sw	s1,44(s0)
    29a4:	a021                	j	29ac <move_window+0x32>
    29a6:	3779                	jal	2934 <sync_window.part.3>
    29a8:	87aa                	mv	a5,a0
    29aa:	d16d                	beqz	a0,298c <move_window+0x12>
    29ac:	853e                	mv	a0,a5
    29ae:	867fd06f          	j	214 <__riscv_restore_0>
    29b2:	4781                	li	a5,0
    29b4:	853e                	mv	a0,a5
    29b6:	8082                	ret

000029b8 <check_fs>:
    29b8:	839fd2ef          	jal	t0,1f0 <__riscv_save_0>
    29bc:	57fd                	li	a5,-1
    29be:	d55c                	sw	a5,44(a0)
    29c0:	00050223          	sb	zero,4(a0)
    29c4:	842a                	mv	s0,a0
    29c6:	3f55                	jal	297a <move_window>
    29c8:	4791                	li	a5,4
    29ca:	e971                	bnez	a0,2a9e <check_fs+0xe6>
    29cc:	22f44483          	lbu	s1,559(s0)
    29d0:	22e44783          	lbu	a5,558(s0)
    29d4:	0eb00713          	li	a4,235
    29d8:	04a2                	slli	s1,s1,0x8
    29da:	8cdd                	or	s1,s1,a5
    29dc:	03044783          	lbu	a5,48(s0)
    29e0:	00e78863          	beq	a5,a4,29f0 <check_fs+0x38>
    29e4:	07e1                	addi	a5,a5,24
    29e6:	0ff7f793          	andi	a5,a5,255
    29ea:	4705                	li	a4,1
    29ec:	0af76263          	bltu	a4,a5,2a90 <check_fs+0xd8>
    29f0:	67ad                	lui	a5,0xb
    29f2:	a5578793          	addi	a5,a5,-1451 # aa55 <_data_lma+0x4eed>
    29f6:	00f49d63          	bne	s1,a5,2a10 <check_fs+0x58>
    29fa:	000065b7          	lui	a1,0x6
    29fe:	4621                	li	a2,8
    2a00:	94c58593          	addi	a1,a1,-1716 # 594c <_read+0xd2>
    2a04:	08240513          	addi	a0,s0,130
    2a08:	3c5010ef          	jal	ra,45cc <memcmp>
    2a0c:	4781                	li	a5,0
    2a0e:	c941                	beqz	a0,2a9e <check_fs+0xe6>
    2a10:	03c44783          	lbu	a5,60(s0)
    2a14:	03b44703          	lbu	a4,59(s0)
    2a18:	07a2                	slli	a5,a5,0x8
    2a1a:	8fd9                	or	a5,a5,a4
    2a1c:	07c2                	slli	a5,a5,0x10
    2a1e:	87c1                	srai	a5,a5,0x10
    2a20:	20000713          	li	a4,512
    2a24:	06e79663          	bne	a5,a4,2a90 <check_fs+0xd8>
    2a28:	03d44703          	lbu	a4,61(s0)
    2a2c:	c335                	beqz	a4,2a90 <check_fs+0xd8>
    2a2e:	fff70793          	addi	a5,a4,-1 # 1fff <SystemCoreClockUpdate+0x97>
    2a32:	8ff9                	and	a5,a5,a4
    2a34:	efb1                	bnez	a5,2a90 <check_fs+0xd8>
    2a36:	03f44783          	lbu	a5,63(s0)
    2a3a:	03e44703          	lbu	a4,62(s0)
    2a3e:	07a2                	slli	a5,a5,0x8
    2a40:	8fd9                	or	a5,a5,a4
    2a42:	c7b9                	beqz	a5,2a90 <check_fs+0xd8>
    2a44:	04044783          	lbu	a5,64(s0)
    2a48:	4705                	li	a4,1
    2a4a:	17fd                	addi	a5,a5,-1
    2a4c:	04f76263          	bltu	a4,a5,2a90 <check_fs+0xd8>
    2a50:	04244783          	lbu	a5,66(s0)
    2a54:	04144703          	lbu	a4,65(s0)
    2a58:	07a2                	slli	a5,a5,0x8
    2a5a:	8fd9                	or	a5,a5,a4
    2a5c:	cb95                	beqz	a5,2a90 <check_fs+0xd8>
    2a5e:	04444783          	lbu	a5,68(s0)
    2a62:	04344703          	lbu	a4,67(s0)
    2a66:	07a2                	slli	a5,a5,0x8
    2a68:	8fd9                	or	a5,a5,a4
    2a6a:	07f00713          	li	a4,127
    2a6e:	00f76963          	bltu	a4,a5,2a80 <check_fs+0xc8>
    2a72:	05040513          	addi	a0,s0,80
    2a76:	dafff0ef          	jal	ra,2824 <ld_dword>
    2a7a:	67c1                	lui	a5,0x10
    2a7c:	00f56a63          	bltu	a0,a5,2a90 <check_fs+0xd8>
    2a80:	04744703          	lbu	a4,71(s0)
    2a84:	04644783          	lbu	a5,70(s0)
    2a88:	0722                	slli	a4,a4,0x8
    2a8a:	8f5d                	or	a4,a4,a5
    2a8c:	4781                	li	a5,0
    2a8e:	eb01                	bnez	a4,2a9e <check_fs+0xe6>
    2a90:	672d                	lui	a4,0xb
    2a92:	a5570713          	addi	a4,a4,-1451 # aa55 <_data_lma+0x4eed>
    2a96:	4789                	li	a5,2
    2a98:	00e48363          	beq	s1,a4,2a9e <check_fs+0xe6>
    2a9c:	478d                	li	a5,3
    2a9e:	853e                	mv	a0,a5
    2aa0:	f74fd06f          	j	214 <__riscv_restore_0>

00002aa4 <put_fat>:
    2aa4:	f32fd2ef          	jal	t0,1d6 <__riscv_save_4>
    2aa8:	4a05                	li	s4,1
    2aaa:	4989                	li	s3,2
    2aac:	08ba7f63          	bgeu	s4,a1,2b4a <put_fat+0xa6>
    2ab0:	495c                	lw	a5,20(a0)
    2ab2:	892a                	mv	s2,a0
    2ab4:	4989                	li	s3,2
    2ab6:	08f5fa63          	bgeu	a1,a5,2b4a <put_fat+0xa6>
    2aba:	211c                	lbu	a5,0(a0)
    2abc:	4709                	li	a4,2
    2abe:	84b2                	mv	s1,a2
    2ac0:	842e                	mv	s0,a1
    2ac2:	08e78e63          	beq	a5,a4,2b5e <put_fat+0xba>
    2ac6:	470d                	li	a4,3
    2ac8:	0ce78063          	beq	a5,a4,2b88 <put_fat+0xe4>
    2acc:	07479f63          	bne	a5,s4,2b4a <put_fat+0xa6>
    2ad0:	0015da13          	srli	s4,a1,0x1
    2ad4:	511c                	lw	a5,32(a0)
    2ad6:	9a2e                	add	s4,s4,a1
    2ad8:	009a5593          	srli	a1,s4,0x9
    2adc:	95be                	add	a1,a1,a5
    2ade:	e9dff0ef          	jal	ra,297a <move_window>
    2ae2:	89aa                	mv	s3,a0
    2ae4:	e13d                	bnez	a0,2b4a <put_fat+0xa6>
    2ae6:	03090a93          	addi	s5,s2,48
    2aea:	001a0b13          	addi	s6,s4,1 # 40000001 <_eusrstack+0x1fff8001>
    2aee:	8805                	andi	s0,s0,1
    2af0:	1ffa7a13          	andi	s4,s4,511
    2af4:	9a56                	add	s4,s4,s5
    2af6:	0ff4f793          	andi	a5,s1,255
    2afa:	cc09                	beqz	s0,2b14 <put_fat+0x70>
    2afc:	000a4783          	lbu	a5,0(s4)
    2b00:	6685                	lui	a3,0x1
    2b02:	16c1                	addi	a3,a3,-16
    2b04:	00f7f713          	andi	a4,a5,15
    2b08:	00449793          	slli	a5,s1,0x4
    2b0c:	8ff5                	and	a5,a5,a3
    2b0e:	8fd9                	or	a5,a5,a4
    2b10:	0ff7f793          	andi	a5,a5,255
    2b14:	00fa0023          	sb	a5,0(s4)
    2b18:	4785                	li	a5,1
    2b1a:	00f90223          	sb	a5,4(s2)
    2b1e:	02092783          	lw	a5,32(s2)
    2b22:	009b5593          	srli	a1,s6,0x9
    2b26:	854a                	mv	a0,s2
    2b28:	95be                	add	a1,a1,a5
    2b2a:	e51ff0ef          	jal	ra,297a <move_window>
    2b2e:	89aa                	mv	s3,a0
    2b30:	ed09                	bnez	a0,2b4a <put_fat+0xa6>
    2b32:	1ffb7b13          	andi	s6,s6,511
    2b36:	9ada                	add	s5,s5,s6
    2b38:	cc01                	beqz	s0,2b50 <put_fat+0xac>
    2b3a:	8091                	srli	s1,s1,0x4
    2b3c:	0ff4f493          	andi	s1,s1,255
    2b40:	009a8023          	sb	s1,0(s5)
    2b44:	4785                	li	a5,1
    2b46:	00f90223          	sb	a5,4(s2)
    2b4a:	854e                	mv	a0,s3
    2b4c:	ebefd06f          	j	20a <__riscv_restore_4>
    2b50:	000ac783          	lbu	a5,0(s5)
    2b54:	80a1                	srli	s1,s1,0x8
    2b56:	88bd                	andi	s1,s1,15
    2b58:	9bc1                	andi	a5,a5,-16
    2b5a:	8cdd                	or	s1,s1,a5
    2b5c:	b7d5                	j	2b40 <put_fat+0x9c>
    2b5e:	511c                	lw	a5,32(a0)
    2b60:	81a1                	srli	a1,a1,0x8
    2b62:	95be                	add	a1,a1,a5
    2b64:	e17ff0ef          	jal	ra,297a <move_window>
    2b68:	89aa                	mv	s3,a0
    2b6a:	f165                	bnez	a0,2b4a <put_fat+0xa6>
    2b6c:	0406                	slli	s0,s0,0x1
    2b6e:	03090793          	addi	a5,s2,48
    2b72:	1fe47413          	andi	s0,s0,510
    2b76:	943e                	add	s0,s0,a5
    2b78:	a004                	sb	s1,0(s0)
    2b7a:	04c2                	slli	s1,s1,0x10
    2b7c:	80c1                	srli	s1,s1,0x10
    2b7e:	80a1                	srli	s1,s1,0x8
    2b80:	b004                	sb	s1,1(s0)
    2b82:	01490223          	sb	s4,4(s2)
    2b86:	b7d1                	j	2b4a <put_fat+0xa6>
    2b88:	511c                	lw	a5,32(a0)
    2b8a:	819d                	srli	a1,a1,0x7
    2b8c:	95be                	add	a1,a1,a5
    2b8e:	dedff0ef          	jal	ra,297a <move_window>
    2b92:	89aa                	mv	s3,a0
    2b94:	f95d                	bnez	a0,2b4a <put_fat+0xa6>
    2b96:	040a                	slli	s0,s0,0x2
    2b98:	03090793          	addi	a5,s2,48
    2b9c:	1fc47413          	andi	s0,s0,508
    2ba0:	943e                	add	s0,s0,a5
    2ba2:	8522                	mv	a0,s0
    2ba4:	c81ff0ef          	jal	ra,2824 <ld_dword>
    2ba8:	0492                	slli	s1,s1,0x4
    2baa:	f00005b7          	lui	a1,0xf0000
    2bae:	8091                	srli	s1,s1,0x4
    2bb0:	8de9                	and	a1,a1,a0
    2bb2:	8dc5                	or	a1,a1,s1
    2bb4:	8522                	mv	a0,s0
    2bb6:	c85ff0ef          	jal	ra,283a <st_dword>
    2bba:	b7e1                	j	2b82 <put_fat+0xde>

00002bbc <get_fat.isra.6>:
    2bbc:	4785                	li	a5,1
    2bbe:	0cb7f163          	bgeu	a5,a1,2c80 <get_fat.isra.6+0xc4>
    2bc2:	e14fd2ef          	jal	t0,1d6 <__riscv_save_4>
    2bc6:	4958                	lw	a4,20(a0)
    2bc8:	842a                	mv	s0,a0
    2bca:	02e5f763          	bgeu	a1,a4,2bf8 <get_fat.isra.6+0x3c>
    2bce:	2118                	lbu	a4,0(a0)
    2bd0:	4689                	li	a3,2
    2bd2:	84ae                	mv	s1,a1
    2bd4:	06d70363          	beq	a4,a3,2c3a <get_fat.isra.6+0x7e>
    2bd8:	468d                	li	a3,3
    2bda:	08d70163          	beq	a4,a3,2c5c <get_fat.isra.6+0xa0>
    2bde:	00f71d63          	bne	a4,a5,2bf8 <get_fat.isra.6+0x3c>
    2be2:	0015d913          	srli	s2,a1,0x1
    2be6:	511c                	lw	a5,32(a0)
    2be8:	992e                	add	s2,s2,a1
    2bea:	00995593          	srli	a1,s2,0x9
    2bee:	95be                	add	a1,a1,a5
    2bf0:	d8bff0ef          	jal	ra,297a <move_window>
    2bf4:	c509                	beqz	a0,2bfe <get_fat.isra.6+0x42>
    2bf6:	57fd                	li	a5,-1
    2bf8:	853e                	mv	a0,a5
    2bfa:	e10fd06f          	j	20a <__riscv_restore_4>
    2bfe:	501c                	lw	a5,32(s0)
    2c00:	00190993          	addi	s3,s2,1
    2c04:	0099d593          	srli	a1,s3,0x9
    2c08:	1ff97913          	andi	s2,s2,511
    2c0c:	9922                	add	s2,s2,s0
    2c0e:	95be                	add	a1,a1,a5
    2c10:	8522                	mv	a0,s0
    2c12:	03094903          	lbu	s2,48(s2)
    2c16:	d65ff0ef          	jal	ra,297a <move_window>
    2c1a:	fd71                	bnez	a0,2bf6 <get_fat.isra.6+0x3a>
    2c1c:	1ff9f993          	andi	s3,s3,511
    2c20:	944e                	add	s0,s0,s3
    2c22:	03044783          	lbu	a5,48(s0)
    2c26:	8885                	andi	s1,s1,1
    2c28:	07a2                	slli	a5,a5,0x8
    2c2a:	0127e7b3          	or	a5,a5,s2
    2c2e:	c099                	beqz	s1,2c34 <get_fat.isra.6+0x78>
    2c30:	8391                	srli	a5,a5,0x4
    2c32:	b7d9                	j	2bf8 <get_fat.isra.6+0x3c>
    2c34:	07d2                	slli	a5,a5,0x14
    2c36:	83d1                	srli	a5,a5,0x14
    2c38:	b7c1                	j	2bf8 <get_fat.isra.6+0x3c>
    2c3a:	511c                	lw	a5,32(a0)
    2c3c:	81a1                	srli	a1,a1,0x8
    2c3e:	95be                	add	a1,a1,a5
    2c40:	d3bff0ef          	jal	ra,297a <move_window>
    2c44:	f94d                	bnez	a0,2bf6 <get_fat.isra.6+0x3a>
    2c46:	0486                	slli	s1,s1,0x1
    2c48:	03040413          	addi	s0,s0,48
    2c4c:	1fe4f493          	andi	s1,s1,510
    2c50:	9426                	add	s0,s0,s1
    2c52:	301c                	lbu	a5,1(s0)
    2c54:	2018                	lbu	a4,0(s0)
    2c56:	07a2                	slli	a5,a5,0x8
    2c58:	8fd9                	or	a5,a5,a4
    2c5a:	bf79                	j	2bf8 <get_fat.isra.6+0x3c>
    2c5c:	511c                	lw	a5,32(a0)
    2c5e:	819d                	srli	a1,a1,0x7
    2c60:	95be                	add	a1,a1,a5
    2c62:	d19ff0ef          	jal	ra,297a <move_window>
    2c66:	f941                	bnez	a0,2bf6 <get_fat.isra.6+0x3a>
    2c68:	00249513          	slli	a0,s1,0x2
    2c6c:	03040413          	addi	s0,s0,48
    2c70:	1fc57513          	andi	a0,a0,508
    2c74:	9522                	add	a0,a0,s0
    2c76:	bafff0ef          	jal	ra,2824 <ld_dword>
    2c7a:	00451793          	slli	a5,a0,0x4
    2c7e:	bf4d                	j	2c30 <get_fat.isra.6+0x74>
    2c80:	4785                	li	a5,1
    2c82:	853e                	mv	a0,a5
    2c84:	8082                	ret

00002c86 <create_chain>:
    2c86:	d50fd2ef          	jal	t0,1d6 <__riscv_save_4>
    2c8a:	8a2a                	mv	s4,a0
    2c8c:	89ae                	mv	s3,a1
    2c8e:	4104                	lw	s1,0(a0)
    2c90:	e991                	bnez	a1,2ca4 <create_chain+0x1e>
    2c92:	00c4a903          	lw	s2,12(s1)
    2c96:	00090563          	beqz	s2,2ca0 <create_chain+0x1a>
    2c9a:	48dc                	lw	a5,20(s1)
    2c9c:	02f96563          	bltu	s2,a5,2cc6 <create_chain+0x40>
    2ca0:	4905                	li	s2,1
    2ca2:	a015                	j	2cc6 <create_chain+0x40>
    2ca4:	8526                	mv	a0,s1
    2ca6:	3f19                	jal	2bbc <get_fat.isra.6>
    2ca8:	4785                	li	a5,1
    2caa:	842a                	mv	s0,a0
    2cac:	00a7e663          	bltu	a5,a0,2cb8 <create_chain+0x32>
    2cb0:	4405                	li	s0,1
    2cb2:	8522                	mv	a0,s0
    2cb4:	d56fd06f          	j	20a <__riscv_restore_4>
    2cb8:	57fd                	li	a5,-1
    2cba:	0af50c63          	beq	a0,a5,2d72 <create_chain+0xec>
    2cbe:	48dc                	lw	a5,20(s1)
    2cc0:	fef569e3          	bltu	a0,a5,2cb2 <create_chain+0x2c>
    2cc4:	894e                	mv	s2,s3
    2cc6:	489c                	lw	a5,16(s1)
    2cc8:	e399                	bnez	a5,2cce <create_chain+0x48>
    2cca:	4401                	li	s0,0
    2ccc:	b7dd                	j	2cb2 <create_chain+0x2c>
    2cce:	03391b63          	bne	s2,s3,2d04 <create_chain+0x7e>
    2cd2:	48dc                	lw	a5,20(s1)
    2cd4:	00190413          	addi	s0,s2,1
    2cd8:	00f46363          	bltu	s0,a5,2cde <create_chain+0x58>
    2cdc:	4409                	li	s0,2
    2cde:	000a2503          	lw	a0,0(s4)
    2ce2:	85a2                	mv	a1,s0
    2ce4:	ed9ff0ef          	jal	ra,2bbc <get_fat.isra.6>
    2ce8:	4705                	li	a4,1
    2cea:	fce503e3          	beq	a0,a4,2cb0 <create_chain+0x2a>
    2cee:	57fd                	li	a5,-1
    2cf0:	08f50163          	beq	a0,a5,2d72 <create_chain+0xec>
    2cf4:	cd1d                	beqz	a0,2d32 <create_chain+0xac>
    2cf6:	44dc                	lw	a5,12(s1)
    2cf8:	00f77663          	bgeu	a4,a5,2d04 <create_chain+0x7e>
    2cfc:	48d8                	lw	a4,20(s1)
    2cfe:	00e7f363          	bgeu	a5,a4,2d04 <create_chain+0x7e>
    2d02:	893e                	mv	s2,a5
    2d04:	844a                	mv	s0,s2
    2d06:	4a85                	li	s5,1
    2d08:	5b7d                	li	s6,-1
    2d0a:	48dc                	lw	a5,20(s1)
    2d0c:	0405                	addi	s0,s0,1
    2d0e:	00f46563          	bltu	s0,a5,2d18 <create_chain+0x92>
    2d12:	fb2afce3          	bgeu	s5,s2,2cca <create_chain+0x44>
    2d16:	4409                	li	s0,2
    2d18:	000a2503          	lw	a0,0(s4)
    2d1c:	85a2                	mv	a1,s0
    2d1e:	e9fff0ef          	jal	ra,2bbc <get_fat.isra.6>
    2d22:	c909                	beqz	a0,2d34 <create_chain+0xae>
    2d24:	f95506e3          	beq	a0,s5,2cb0 <create_chain+0x2a>
    2d28:	05650563          	beq	a0,s6,2d72 <create_chain+0xec>
    2d2c:	fd241fe3          	bne	s0,s2,2d0a <create_chain+0x84>
    2d30:	bf69                	j	2cca <create_chain+0x44>
    2d32:	d869                	beqz	s0,2d04 <create_chain+0x7e>
    2d34:	567d                	li	a2,-1
    2d36:	85a2                	mv	a1,s0
    2d38:	8526                	mv	a0,s1
    2d3a:	d6bff0ef          	jal	ra,2aa4 <put_fat>
    2d3e:	e51d                	bnez	a0,2d6c <create_chain+0xe6>
    2d40:	02099063          	bnez	s3,2d60 <create_chain+0xda>
    2d44:	489c                	lw	a5,16(s1)
    2d46:	c4c0                	sw	s0,12(s1)
    2d48:	d7ad                	beqz	a5,2cb2 <create_chain+0x2c>
    2d4a:	48d8                	lw	a4,20(s1)
    2d4c:	1779                	addi	a4,a4,-2
    2d4e:	f6f762e3          	bltu	a4,a5,2cb2 <create_chain+0x2c>
    2d52:	17fd                	addi	a5,a5,-1
    2d54:	c89c                	sw	a5,16(s1)
    2d56:	30dc                	lbu	a5,5(s1)
    2d58:	0017e793          	ori	a5,a5,1
    2d5c:	b0dc                	sb	a5,5(s1)
    2d5e:	bf91                	j	2cb2 <create_chain+0x2c>
    2d60:	8622                	mv	a2,s0
    2d62:	85ce                	mv	a1,s3
    2d64:	8526                	mv	a0,s1
    2d66:	d3fff0ef          	jal	ra,2aa4 <put_fat>
    2d6a:	dd69                	beqz	a0,2d44 <create_chain+0xbe>
    2d6c:	4785                	li	a5,1
    2d6e:	f4f511e3          	bne	a0,a5,2cb0 <create_chain+0x2a>
    2d72:	547d                	li	s0,-1
    2d74:	bf3d                	j	2cb2 <create_chain+0x2c>

00002d76 <remove_chain>:
    2d76:	c60fd2ef          	jal	t0,1d6 <__riscv_save_4>
    2d7a:	4785                	li	a5,1
    2d7c:	84ae                	mv	s1,a1
    2d7e:	4100                	lw	s0,0(a0)
    2d80:	06b7f463          	bgeu	a5,a1,2de8 <remove_chain+0x72>
    2d84:	485c                	lw	a5,20(s0)
    2d86:	06f5f163          	bgeu	a1,a5,2de8 <remove_chain+0x72>
    2d8a:	89aa                	mv	s3,a0
    2d8c:	85b2                	mv	a1,a2
    2d8e:	ee01                	bnez	a2,2da6 <remove_chain+0x30>
    2d90:	4a05                	li	s4,1
    2d92:	5afd                	li	s5,-1
    2d94:	0009a503          	lw	a0,0(s3)
    2d98:	85a6                	mv	a1,s1
    2d9a:	e23ff0ef          	jal	ra,2bbc <get_fat.isra.6>
    2d9e:	892a                	mv	s2,a0
    2da0:	e911                	bnez	a0,2db4 <remove_chain+0x3e>
    2da2:	4501                	li	a0,0
    2da4:	a031                	j	2db0 <remove_chain+0x3a>
    2da6:	567d                	li	a2,-1
    2da8:	8522                	mv	a0,s0
    2daa:	cfbff0ef          	jal	ra,2aa4 <put_fat>
    2dae:	d16d                	beqz	a0,2d90 <remove_chain+0x1a>
    2db0:	c5afd06f          	j	20a <__riscv_restore_4>
    2db4:	03450a63          	beq	a0,s4,2de8 <remove_chain+0x72>
    2db8:	03550a63          	beq	a0,s5,2dec <remove_chain+0x76>
    2dbc:	4601                	li	a2,0
    2dbe:	85a6                	mv	a1,s1
    2dc0:	8522                	mv	a0,s0
    2dc2:	ce3ff0ef          	jal	ra,2aa4 <put_fat>
    2dc6:	f56d                	bnez	a0,2db0 <remove_chain+0x3a>
    2dc8:	4858                	lw	a4,20(s0)
    2dca:	481c                	lw	a5,16(s0)
    2dcc:	ffe70693          	addi	a3,a4,-2
    2dd0:	00d7f863          	bgeu	a5,a3,2de0 <remove_chain+0x6a>
    2dd4:	0785                	addi	a5,a5,1
    2dd6:	c81c                	sw	a5,16(s0)
    2dd8:	305c                	lbu	a5,5(s0)
    2dda:	0017e793          	ori	a5,a5,1
    2dde:	b05c                	sb	a5,5(s0)
    2de0:	84ca                	mv	s1,s2
    2de2:	fae969e3          	bltu	s2,a4,2d94 <remove_chain+0x1e>
    2de6:	bf75                	j	2da2 <remove_chain+0x2c>
    2de8:	4509                	li	a0,2
    2dea:	b7d9                	j	2db0 <remove_chain+0x3a>
    2dec:	4505                	li	a0,1
    2dee:	b7c9                	j	2db0 <remove_chain+0x3a>

00002df0 <mount_volume>:
    2df0:	be6fd2ef          	jal	t0,1d6 <__riscv_save_4>
    2df4:	1101                	addi	sp,sp,-32
    2df6:	0005a023          	sw	zero,0(a1) # f0000000 <_eusrstack+0xcfff8000>
    2dfa:	84b2                	mv	s1,a2
    2dfc:	c62e                	sw	a1,12(sp)
    2dfe:	a6bff0ef          	jal	ra,2868 <get_ldnumber>
    2e02:	47ad                	li	a5,11
    2e04:	02054a63          	bltz	a0,2e38 <mount_volume+0x48>
    2e08:	00251793          	slli	a5,a0,0x2
    2e0c:	16418513          	addi	a0,gp,356 # 200009e4 <FatFs>
    2e10:	953e                	add	a0,a0,a5
    2e12:	4100                	lw	s0,0(a0)
    2e14:	47b1                	li	a5,12
    2e16:	c00d                	beqz	s0,2e38 <mount_volume+0x48>
    2e18:	45b2                	lw	a1,12(sp)
    2e1a:	0fe4f493          	andi	s1,s1,254
    2e1e:	c180                	sw	s0,0(a1)
    2e20:	201c                	lbu	a5,0(s0)
    2e22:	cf99                	beqz	a5,2e40 <mount_volume+0x50>
    2e24:	3008                	lbu	a0,1(s0)
    2e26:	95fff0ef          	jal	ra,2784 <disk_status>
    2e2a:	00157793          	andi	a5,a0,1
    2e2e:	eb89                	bnez	a5,2e40 <mount_volume+0x50>
    2e30:	c481                	beqz	s1,2e38 <mount_volume+0x48>
    2e32:	8911                	andi	a0,a0,4
    2e34:	c111                	beqz	a0,2e38 <mount_volume+0x48>
    2e36:	47a9                	li	a5,10
    2e38:	853e                	mv	a0,a5
    2e3a:	6105                	addi	sp,sp,32
    2e3c:	bcefd06f          	j	20a <__riscv_restore_4>
    2e40:	3008                	lbu	a0,1(s0)
    2e42:	00040023          	sb	zero,0(s0)
    2e46:	947ff0ef          	jal	ra,278c <disk_initialize>
    2e4a:	00157713          	andi	a4,a0,1
    2e4e:	478d                	li	a5,3
    2e50:	f765                	bnez	a4,2e38 <mount_volume+0x48>
    2e52:	c099                	beqz	s1,2e58 <mount_volume+0x68>
    2e54:	8911                	andi	a0,a0,4
    2e56:	f165                	bnez	a0,2e36 <mount_volume+0x46>
    2e58:	4581                	li	a1,0
    2e5a:	8522                	mv	a0,s0
    2e5c:	b5dff0ef          	jal	ra,29b8 <check_fs>
    2e60:	4789                	li	a5,2
    2e62:	04f51563          	bne	a0,a5,2eac <mount_volume+0xbc>
    2e66:	0804                	addi	s1,sp,16
    2e68:	1f640913          	addi	s2,s0,502
    2e6c:	23640a13          	addi	s4,s0,566
    2e70:	89a6                	mv	s3,s1
    2e72:	854a                	mv	a0,s2
    2e74:	9b1ff0ef          	jal	ra,2824 <ld_dword>
    2e78:	00a9a023          	sw	a0,0(s3)
    2e7c:	0941                	addi	s2,s2,16
    2e7e:	0991                	addi	s3,s3,4
    2e80:	ff2a19e3          	bne	s4,s2,2e72 <mount_volume+0x82>
    2e84:	01048913          	addi	s2,s1,16
    2e88:	4985                	li	s3,1
    2e8a:	408c                	lw	a1,0(s1)
    2e8c:	450d                	li	a0,3
    2e8e:	c591                	beqz	a1,2e9a <mount_volume+0xaa>
    2e90:	8522                	mv	a0,s0
    2e92:	b27ff0ef          	jal	ra,29b8 <check_fs>
    2e96:	02a9f163          	bgeu	s3,a0,2eb8 <mount_volume+0xc8>
    2e9a:	0491                	addi	s1,s1,4
    2e9c:	fe9917e3          	bne	s2,s1,2e8a <mount_volume+0x9a>
    2ea0:	4711                	li	a4,4
    2ea2:	4785                	li	a5,1
    2ea4:	f8e50ae3          	beq	a0,a4,2e38 <mount_volume+0x48>
    2ea8:	47b5                	li	a5,13
    2eaa:	b779                	j	2e38 <mount_volume+0x48>
    2eac:	4711                	li	a4,4
    2eae:	4785                	li	a5,1
    2eb0:	f8e504e3          	beq	a0,a4,2e38 <mount_volume+0x48>
    2eb4:	fea7eae3          	bltu	a5,a0,2ea8 <mount_volume+0xb8>
    2eb8:	03c44783          	lbu	a5,60(s0)
    2ebc:	03b44703          	lbu	a4,59(s0)
    2ec0:	07a2                	slli	a5,a5,0x8
    2ec2:	8fd9                	or	a5,a5,a4
    2ec4:	07c2                	slli	a5,a5,0x10
    2ec6:	87c1                	srai	a5,a5,0x10
    2ec8:	20000713          	li	a4,512
    2ecc:	fce79ee3          	bne	a5,a4,2ea8 <mount_volume+0xb8>
    2ed0:	04744983          	lbu	s3,71(s0)
    2ed4:	04644783          	lbu	a5,70(s0)
    2ed8:	09a2                	slli	s3,s3,0x8
    2eda:	00f9e9b3          	or	s3,s3,a5
    2ede:	00099763          	bnez	s3,2eec <mount_volume+0xfc>
    2ee2:	05440513          	addi	a0,s0,84
    2ee6:	93fff0ef          	jal	ra,2824 <ld_dword>
    2eea:	89aa                	mv	s3,a0
    2eec:	04044483          	lbu	s1,64(s0)
    2ef0:	01342c23          	sw	s3,24(s0)
    2ef4:	4705                	li	a4,1
    2ef6:	fff48793          	addi	a5,s1,-1
    2efa:	b024                	sb	s1,3(s0)
    2efc:	0ff7f793          	andi	a5,a5,255
    2f00:	02c42a03          	lw	s4,44(s0)
    2f04:	faf762e3          	bltu	a4,a5,2ea8 <mount_volume+0xb8>
    2f08:	03d44903          	lbu	s2,61(s0)
    2f0c:	01091793          	slli	a5,s2,0x10
    2f10:	83c1                	srli	a5,a5,0x10
    2f12:	a43e                	sh	a5,10(s0)
    2f14:	dbd1                	beqz	a5,2ea8 <mount_volume+0xb8>
    2f16:	fff90793          	addi	a5,s2,-1
    2f1a:	0127f7b3          	and	a5,a5,s2
    2f1e:	f7c9                	bnez	a5,2ea8 <mount_volume+0xb8>
    2f20:	04244783          	lbu	a5,66(s0)
    2f24:	04144a83          	lbu	s5,65(s0)
    2f28:	07a2                	slli	a5,a5,0x8
    2f2a:	0157e7b3          	or	a5,a5,s5
    2f2e:	01079a93          	slli	s5,a5,0x10
    2f32:	410ada93          	srai	s5,s5,0x10
    2f36:	010a9b13          	slli	s6,s5,0x10
    2f3a:	010b5b13          	srli	s6,s6,0x10
    2f3e:	01641423          	sh	s6,8(s0)
    2f42:	00fb7793          	andi	a5,s6,15
    2f46:	f3ad                	bnez	a5,2ea8 <mount_volume+0xb8>
    2f48:	04444503          	lbu	a0,68(s0)
    2f4c:	04344783          	lbu	a5,67(s0)
    2f50:	0522                	slli	a0,a0,0x8
    2f52:	8d5d                	or	a0,a0,a5
    2f54:	e509                	bnez	a0,2f5e <mount_volume+0x16e>
    2f56:	05040513          	addi	a0,s0,80
    2f5a:	8cbff0ef          	jal	ra,2824 <ld_dword>
    2f5e:	03f44783          	lbu	a5,63(s0)
    2f62:	03e44703          	lbu	a4,62(s0)
    2f66:	07a2                	slli	a5,a5,0x8
    2f68:	8fd9                	or	a5,a5,a4
    2f6a:	df9d                	beqz	a5,2ea8 <mount_volume+0xb8>
    2f6c:	033486b3          	mul	a3,s1,s3
    2f70:	004b5713          	srli	a4,s6,0x4
    2f74:	973e                	add	a4,a4,a5
    2f76:	9736                	add	a4,a4,a3
    2f78:	f2e568e3          	bltu	a0,a4,2ea8 <mount_volume+0xb8>
    2f7c:	8d19                	sub	a0,a0,a4
    2f7e:	032554b3          	divu	s1,a0,s2
    2f82:	f32563e3          	bltu	a0,s2,2ea8 <mount_volume+0xb8>
    2f86:	10000637          	lui	a2,0x10000
    2f8a:	1655                	addi	a2,a2,-11
    2f8c:	f0966ee3          	bltu	a2,s1,2ea8 <mount_volume+0xb8>
    2f90:	6641                	lui	a2,0x10
    2f92:	1655                	addi	a2,a2,-11
    2f94:	10967263          	bgeu	a2,s1,3098 <mount_volume+0x2a8>
    2f98:	490d                	li	s2,3
    2f9a:	9752                	add	a4,a4,s4
    2f9c:	0489                	addi	s1,s1,2
    2f9e:	97d2                	add	a5,a5,s4
    2fa0:	d418                	sw	a4,40(s0)
    2fa2:	c844                	sw	s1,20(s0)
    2fa4:	01442e23          	sw	s4,28(s0)
    2fa8:	d01c                	sw	a5,32(s0)
    2faa:	470d                	li	a4,3
    2fac:	0ce91763          	bne	s2,a4,307a <mount_volume+0x28a>
    2fb0:	05b44783          	lbu	a5,91(s0)
    2fb4:	05a44703          	lbu	a4,90(s0)
    2fb8:	07a2                	slli	a5,a5,0x8
    2fba:	8fd9                	or	a5,a5,a4
    2fbc:	00fae7b3          	or	a5,s5,a5
    2fc0:	07c2                	slli	a5,a5,0x10
    2fc2:	87c1                	srai	a5,a5,0x10
    2fc4:	ee0792e3          	bnez	a5,2ea8 <mount_volume+0xb8>
    2fc8:	05c40513          	addi	a0,s0,92
    2fcc:	859ff0ef          	jal	ra,2824 <ld_dword>
    2fd0:	d048                	sw	a0,36(s0)
    2fd2:	048a                	slli	s1,s1,0x2
    2fd4:	1ff48493          	addi	s1,s1,511
    2fd8:	80a5                	srli	s1,s1,0x9
    2fda:	ec99e7e3          	bltu	s3,s1,2ea8 <mount_volume+0xb8>
    2fde:	57fd                	li	a5,-1
    2fe0:	c81c                	sw	a5,16(s0)
    2fe2:	c45c                	sw	a5,12(s0)
    2fe4:	f8000793          	li	a5,-128
    2fe8:	b05c                	sb	a5,5(s0)
    2fea:	478d                	li	a5,3
    2fec:	06f91b63          	bne	s2,a5,3062 <mount_volume+0x272>
    2ff0:	06144783          	lbu	a5,97(s0)
    2ff4:	06044703          	lbu	a4,96(s0)
    2ff8:	07a2                	slli	a5,a5,0x8
    2ffa:	8fd9                	or	a5,a5,a4
    2ffc:	07c2                	slli	a5,a5,0x10
    2ffe:	87c1                	srai	a5,a5,0x10
    3000:	4705                	li	a4,1
    3002:	06e79063          	bne	a5,a4,3062 <mount_volume+0x272>
    3006:	001a0593          	addi	a1,s4,1
    300a:	8522                	mv	a0,s0
    300c:	96fff0ef          	jal	ra,297a <move_window>
    3010:	e929                	bnez	a0,3062 <mount_volume+0x272>
    3012:	000402a3          	sb	zero,5(s0)
    3016:	03040513          	addi	a0,s0,48
    301a:	80bff0ef          	jal	ra,2824 <ld_dword>
    301e:	416157b7          	lui	a5,0x41615
    3022:	25278793          	addi	a5,a5,594 # 41615252 <_eusrstack+0x2160d252>
    3026:	02f51e63          	bne	a0,a5,3062 <mount_volume+0x272>
    302a:	21440513          	addi	a0,s0,532
    302e:	ff6ff0ef          	jal	ra,2824 <ld_dword>
    3032:	614177b7          	lui	a5,0x61417
    3036:	27278793          	addi	a5,a5,626 # 61417272 <_eusrstack+0x4140f272>
    303a:	02f51463          	bne	a0,a5,3062 <mount_volume+0x272>
    303e:	22240513          	addi	a0,s0,546
    3042:	fe2ff0ef          	jal	ra,2824 <ld_dword>
    3046:	aa5507b7          	lui	a5,0xaa550
    304a:	00f51c63          	bne	a0,a5,3062 <mount_volume+0x272>
    304e:	21840513          	addi	a0,s0,536
    3052:	fd2ff0ef          	jal	ra,2824 <ld_dword>
    3056:	c808                	sw	a0,16(s0)
    3058:	21c40513          	addi	a0,s0,540
    305c:	fc8ff0ef          	jal	ra,2824 <ld_dword>
    3060:	c448                	sw	a0,12(s0)
    3062:	84018713          	addi	a4,gp,-1984 # 200000c0 <Fsid>
    3066:	231e                	lhu	a5,0(a4)
    3068:	01240023          	sb	s2,0(s0)
    306c:	0785                	addi	a5,a5,1
    306e:	07c2                	slli	a5,a5,0x10
    3070:	83c1                	srli	a5,a5,0x10
    3072:	a31e                	sh	a5,0(a4)
    3074:	a07e                	sh	a5,6(s0)
    3076:	4781                	li	a5,0
    3078:	b3c1                	j	2e38 <mount_volume+0x48>
    307a:	e20b07e3          	beqz	s6,2ea8 <mount_volume+0xb8>
    307e:	97b6                	add	a5,a5,a3
    3080:	d05c                	sw	a5,36(s0)
    3082:	4789                	li	a5,2
    3084:	00f91463          	bne	s2,a5,308c <mount_volume+0x29c>
    3088:	0486                	slli	s1,s1,0x1
    308a:	b7a9                	j	2fd4 <mount_volume+0x1e4>
    308c:	02e48733          	mul	a4,s1,a4
    3090:	8885                	andi	s1,s1,1
    3092:	8305                	srli	a4,a4,0x1
    3094:	94ba                	add	s1,s1,a4
    3096:	bf3d                	j	2fd4 <mount_volume+0x1e4>
    3098:	6905                	lui	s2,0x1
    309a:	1955                	addi	s2,s2,-11
    309c:	00993933          	sltu	s2,s2,s1
    30a0:	0905                	addi	s2,s2,1
    30a2:	bde5                	j	2f9a <mount_volume+0x1aa>

000030a4 <dir_sdi.constprop.13>:
    30a4:	932fd2ef          	jal	t0,1d6 <__riscv_save_4>
    30a8:	00852903          	lw	s2,8(a0)
    30ac:	00052823          	sw	zero,16(a0)
    30b0:	84aa                	mv	s1,a0
    30b2:	4100                	lw	s0,0(a0)
    30b4:	02091963          	bnez	s2,30e6 <dir_sdi.constprop.13+0x42>
    30b8:	2018                	lbu	a4,0(s0)
    30ba:	4789                	li	a5,2
    30bc:	00e7f463          	bgeu	a5,a4,30c4 <dir_sdi.constprop.13+0x20>
    30c0:	505c                	lw	a5,36(s0)
    30c2:	e38d                	bnez	a5,30e4 <dir_sdi.constprop.13+0x40>
    30c4:	241e                	lhu	a5,8(s0)
    30c6:	e781                	bnez	a5,30ce <dir_sdi.constprop.13+0x2a>
    30c8:	4509                	li	a0,2
    30ca:	940fd06f          	j	20a <__riscv_restore_4>
    30ce:	505c                	lw	a5,36(s0)
    30d0:	cc9c                	sw	a5,24(s1)
    30d2:	4c9c                	lw	a5,24(s1)
    30d4:	0124aa23          	sw	s2,20(s1)
    30d8:	dbe5                	beqz	a5,30c8 <dir_sdi.constprop.13+0x24>
    30da:	03040413          	addi	s0,s0,48
    30de:	ccc0                	sw	s0,28(s1)
    30e0:	4501                	li	a0,0
    30e2:	b7e5                	j	30ca <dir_sdi.constprop.13+0x26>
    30e4:	893e                	mv	s2,a5
    30e6:	243e                	lhu	a5,10(s0)
    30e8:	59fd                	li	s3,-1
    30ea:	4a05                	li	s4,1
    30ec:	ef91                	bnez	a5,3108 <dir_sdi.constprop.13+0x64>
    30ee:	4088                	lw	a0,0(s1)
    30f0:	85ca                	mv	a1,s2
    30f2:	acbff0ef          	jal	ra,2bbc <get_fat.isra.6>
    30f6:	892a                	mv	s2,a0
    30f8:	01350e63          	beq	a0,s3,3114 <dir_sdi.constprop.13+0x70>
    30fc:	fcaa76e3          	bgeu	s4,a0,30c8 <dir_sdi.constprop.13+0x24>
    3100:	485c                	lw	a5,20(s0)
    3102:	fef566e3          	bltu	a0,a5,30ee <dir_sdi.constprop.13+0x4a>
    3106:	b7c9                	j	30c8 <dir_sdi.constprop.13+0x24>
    3108:	85ca                	mv	a1,s2
    310a:	8522                	mv	a0,s0
    310c:	f42ff0ef          	jal	ra,284e <clst2sect>
    3110:	cc88                	sw	a0,24(s1)
    3112:	b7c1                	j	30d2 <dir_sdi.constprop.13+0x2e>
    3114:	4505                	li	a0,1
    3116:	bf55                	j	30ca <dir_sdi.constprop.13+0x26>

00003118 <sync_fs>:
    3118:	8d8fd2ef          	jal	t0,1f0 <__riscv_save_0>
    311c:	215c                	lbu	a5,4(a0)
    311e:	842a                	mv	s0,a0
    3120:	e3cd                	bnez	a5,31c2 <sync_fs+0xaa>
    3122:	3058                	lbu	a4,5(s0)
    3124:	4785                	li	a5,1
    3126:	08f71663          	bne	a4,a5,31b2 <sync_fs+0x9a>
    312a:	2018                	lbu	a4,0(s0)
    312c:	000402a3          	sb	zero,5(s0)
    3130:	478d                	li	a5,3
    3132:	08f71063          	bne	a4,a5,31b2 <sync_fs+0x9a>
    3136:	03040493          	addi	s1,s0,48
    313a:	20000613          	li	a2,512
    313e:	4581                	li	a1,0
    3140:	8526                	mv	a0,s1
    3142:	8defd0ef          	jal	ra,220 <memset>
    3146:	05200793          	li	a5,82
    314a:	480c                	lw	a1,16(s0)
    314c:	07200693          	li	a3,114
    3150:	04100713          	li	a4,65
    3154:	02f40823          	sb	a5,48(s0)
    3158:	02f408a3          	sb	a5,49(s0)
    315c:	06100793          	li	a5,97
    3160:	02f40923          	sb	a5,50(s0)
    3164:	20d40a23          	sb	a3,532(s0)
    3168:	20d40aa3          	sb	a3,533(s0)
    316c:	20f40ba3          	sb	a5,535(s0)
    3170:	02e409a3          	sb	a4,51(s0)
    3174:	20e40b23          	sb	a4,534(s0)
    3178:	21840513          	addi	a0,s0,536
    317c:	ebeff0ef          	jal	ra,283a <st_dword>
    3180:	444c                	lw	a1,12(s0)
    3182:	21c40513          	addi	a0,s0,540
    3186:	eb4ff0ef          	jal	ra,283a <st_dword>
    318a:	4c50                	lw	a2,28(s0)
    318c:	05500793          	li	a5,85
    3190:	3008                	lbu	a0,1(s0)
    3192:	22f40223          	sb	a5,548(s0)
    3196:	0605                	addi	a2,a2,1
    3198:	faa00793          	li	a5,-86
    319c:	22040123          	sb	zero,546(s0)
    31a0:	220401a3          	sb	zero,547(s0)
    31a4:	22f402a3          	sb	a5,549(s0)
    31a8:	d450                	sw	a2,44(s0)
    31aa:	4685                	li	a3,1
    31ac:	85a6                	mv	a1,s1
    31ae:	e18ff0ef          	jal	ra,27c6 <disk_write>
    31b2:	3008                	lbu	a0,1(s0)
    31b4:	4601                	li	a2,0
    31b6:	4581                	li	a1,0
    31b8:	e2eff0ef          	jal	ra,27e6 <disk_ioctl>
    31bc:	00a03533          	snez	a0,a0
    31c0:	a021                	j	31c8 <sync_fs+0xb0>
    31c2:	f72ff0ef          	jal	ra,2934 <sync_window.part.3>
    31c6:	dd31                	beqz	a0,3122 <sync_fs+0xa>
    31c8:	84cfd06f          	j	214 <__riscv_restore_0>

000031cc <dir_clear>:
    31cc:	80afd2ef          	jal	t0,1d6 <__riscv_save_4>
    31d0:	215c                	lbu	a5,4(a0)
    31d2:	1141                	addi	sp,sp,-16
    31d4:	842a                	mv	s0,a0
    31d6:	e79d                	bnez	a5,3204 <dir_clear+0x38>
    31d8:	8522                	mv	a0,s0
    31da:	e74ff0ef          	jal	ra,284e <clst2sect>
    31de:	03040913          	addi	s2,s0,48
    31e2:	d448                	sw	a0,44(s0)
    31e4:	89aa                	mv	s3,a0
    31e6:	20000613          	li	a2,512
    31ea:	4581                	li	a1,0
    31ec:	854a                	mv	a0,s2
    31ee:	832fd0ef          	jal	ra,220 <memset>
    31f2:	4481                	li	s1,0
    31f4:	243e                	lhu	a5,10(s0)
    31f6:	02f4e163          	bltu	s1,a5,3218 <dir_clear+0x4c>
    31fa:	243e                	lhu	a5,10(s0)
    31fc:	8f85                	sub	a5,a5,s1
    31fe:	00f037b3          	snez	a5,a5
    3202:	a039                	j	3210 <dir_clear+0x44>
    3204:	c62e                	sw	a1,12(sp)
    3206:	f2eff0ef          	jal	ra,2934 <sync_window.part.3>
    320a:	4785                	li	a5,1
    320c:	45b2                	lw	a1,12(sp)
    320e:	d569                	beqz	a0,31d8 <dir_clear+0xc>
    3210:	853e                	mv	a0,a5
    3212:	0141                	addi	sp,sp,16
    3214:	ff7fc06f          	j	20a <__riscv_restore_4>
    3218:	3008                	lbu	a0,1(s0)
    321a:	4685                	li	a3,1
    321c:	00998633          	add	a2,s3,s1
    3220:	85ca                	mv	a1,s2
    3222:	da4ff0ef          	jal	ra,27c6 <disk_write>
    3226:	f971                	bnez	a0,31fa <dir_clear+0x2e>
    3228:	0485                	addi	s1,s1,1
    322a:	b7e9                	j	31f4 <dir_clear+0x28>

0000322c <dir_next>:
    322c:	fabfc2ef          	jal	t0,1d6 <__riscv_save_4>
    3230:	01052983          	lw	s3,16(a0)
    3234:	002007b7          	lui	a5,0x200
    3238:	842a                	mv	s0,a0
    323a:	02098993          	addi	s3,s3,32
    323e:	4104                	lw	s1,0(a0)
    3240:	00f9e463          	bltu	s3,a5,3248 <dir_next+0x1c>
    3244:	00052c23          	sw	zero,24(a0)
    3248:	4c1c                	lw	a5,24(s0)
    324a:	4511                	li	a0,4
    324c:	c395                	beqz	a5,3270 <dir_next+0x44>
    324e:	1ff9fa13          	andi	s4,s3,511
    3252:	8aae                	mv	s5,a1
    3254:	080a1263          	bnez	s4,32d8 <dir_next+0xac>
    3258:	484c                	lw	a1,20(s0)
    325a:	0785                	addi	a5,a5,1
    325c:	cc1c                	sw	a5,24(s0)
    325e:	e999                	bnez	a1,3274 <dir_next+0x48>
    3260:	249a                	lhu	a4,8(s1)
    3262:	0059d793          	srli	a5,s3,0x5
    3266:	06e7e963          	bltu	a5,a4,32d8 <dir_next+0xac>
    326a:	00042c23          	sw	zero,24(s0)
    326e:	4511                	li	a0,4
    3270:	f9bfc06f          	j	20a <__riscv_restore_4>
    3274:	24be                	lhu	a5,10(s1)
    3276:	0099d713          	srli	a4,s3,0x9
    327a:	17fd                	addi	a5,a5,-1
    327c:	8ff9                	and	a5,a5,a4
    327e:	efa9                	bnez	a5,32d8 <dir_next+0xac>
    3280:	8526                	mv	a0,s1
    3282:	93bff0ef          	jal	ra,2bbc <get_fat.isra.6>
    3286:	4b05                	li	s6,1
    3288:	892a                	mv	s2,a0
    328a:	00ab6463          	bltu	s6,a0,3292 <dir_next+0x66>
    328e:	4509                	li	a0,2
    3290:	b7c5                	j	3270 <dir_next+0x44>
    3292:	57fd                	li	a5,-1
    3294:	00f51463          	bne	a0,a5,329c <dir_next+0x70>
    3298:	4505                	li	a0,1
    329a:	bfd9                	j	3270 <dir_next+0x44>
    329c:	48dc                	lw	a5,20(s1)
    329e:	02f56663          	bltu	a0,a5,32ca <dir_next+0x9e>
    32a2:	fc0a84e3          	beqz	s5,326a <dir_next+0x3e>
    32a6:	484c                	lw	a1,20(s0)
    32a8:	8522                	mv	a0,s0
    32aa:	9ddff0ef          	jal	ra,2c86 <create_chain>
    32ae:	892a                	mv	s2,a0
    32b0:	451d                	li	a0,7
    32b2:	fa090fe3          	beqz	s2,3270 <dir_next+0x44>
    32b6:	fd690ce3          	beq	s2,s6,328e <dir_next+0x62>
    32ba:	57fd                	li	a5,-1
    32bc:	fcf90ee3          	beq	s2,a5,3298 <dir_next+0x6c>
    32c0:	85ca                	mv	a1,s2
    32c2:	8526                	mv	a0,s1
    32c4:	f09ff0ef          	jal	ra,31cc <dir_clear>
    32c8:	f961                	bnez	a0,3298 <dir_next+0x6c>
    32ca:	01242a23          	sw	s2,20(s0)
    32ce:	85ca                	mv	a1,s2
    32d0:	8526                	mv	a0,s1
    32d2:	d7cff0ef          	jal	ra,284e <clst2sect>
    32d6:	cc08                	sw	a0,24(s0)
    32d8:	03048493          	addi	s1,s1,48
    32dc:	94d2                	add	s1,s1,s4
    32de:	01342823          	sw	s3,16(s0)
    32e2:	cc44                	sw	s1,28(s0)
    32e4:	4501                	li	a0,0
    32e6:	b769                	j	3270 <dir_next+0x44>

000032e8 <follow_path>:
    32e8:	ed9fc2ef          	jal	t0,1c0 <__riscv_save_12>
    32ec:	00052b03          	lw	s6,0(a0)
    32f0:	84aa                	mv	s1,a0
    32f2:	89ae                	mv	s3,a1
    32f4:	02f00693          	li	a3,47
    32f8:	05c00713          	li	a4,92
    32fc:	00098783          	lb	a5,0(s3)
    3300:	0ed78c63          	beq	a5,a3,33f8 <follow_path+0x110>
    3304:	0ee78a63          	beq	a5,a4,33f8 <follow_path+0x110>
    3308:	0004a423          	sw	zero,8(s1)
    330c:	0009c703          	lbu	a4,0(s3)
    3310:	47fd                	li	a5,31
    3312:	0ee7f563          	bgeu	a5,a4,33fc <follow_path+0x114>
    3316:	02048a93          	addi	s5,s1,32
    331a:	02f00b93          	li	s7,47
    331e:	05c00c13          	li	s8,92
    3322:	00006cb7          	lui	s9,0x6
    3326:	030b0d13          	addi	s10,s6,48
    332a:	462d                	li	a2,11
    332c:	02000593          	li	a1,32
    3330:	8556                	mv	a0,s5
    3332:	eeffc0ef          	jal	ra,220 <memset>
    3336:	4901                	li	s2,0
    3338:	4781                	li	a5,0
    333a:	4da1                	li	s11,8
    333c:	02000713          	li	a4,32
    3340:	02e00693          	li	a3,46
    3344:	462d                	li	a2,11
    3346:	08000813          	li	a6,128
    334a:	09f00313          	li	t1,159
    334e:	03f00e13          	li	t3,63
    3352:	07e00e93          	li	t4,126
    3356:	0fc00f13          	li	t5,252
    335a:	4ff1                	li	t6,28
    335c:	00f985b3          	add	a1,s3,a5
    3360:	2180                	lbu	s0,0(a1)
    3362:	00178a13          	addi	s4,a5,1 # 200001 <_data_lma+0x1fa499>
    3366:	00877e63          	bgeu	a4,s0,3382 <follow_path+0x9a>
    336a:	01740463          	beq	s0,s7,3372 <follow_path+0x8a>
    336e:	0b841463          	bne	s0,s8,3416 <follow_path+0x12e>
    3372:	014987b3          	add	a5,s3,s4
    3376:	00078783          	lb	a5,0(a5)
    337a:	09778c63          	beq	a5,s7,3412 <follow_path+0x12a>
    337e:	09878a63          	beq	a5,s8,3412 <follow_path+0x12a>
    3382:	99d2                	add	s3,s3,s4
    3384:	16090563          	beqz	s2,34ee <follow_path+0x206>
    3388:	0204c703          	lbu	a4,32(s1)
    338c:	0e500793          	li	a5,229
    3390:	00f71563          	bne	a4,a5,339a <follow_path+0xb2>
    3394:	4795                	li	a5,5
    3396:	02f48023          	sb	a5,32(s1)
    339a:	02000713          	li	a4,32
    339e:	4791                	li	a5,4
    33a0:	00877763          	bgeu	a4,s0,33ae <follow_path+0xc6>
    33a4:	00098683          	lb	a3,0(s3)
    33a8:	00d75363          	bge	a4,a3,33ae <follow_path+0xc6>
    33ac:	4781                	li	a5,0
    33ae:	02f485a3          	sb	a5,43(s1)
    33b2:	8526                	mv	a0,s1
    33b4:	0004a903          	lw	s2,0(s1)
    33b8:	cedff0ef          	jal	ra,30a4 <dir_sdi.constprop.13>
    33bc:	842a                	mv	s0,a0
    33be:	0e051f63          	bnez	a0,34bc <follow_path+0x1d4>
    33c2:	4c8c                	lw	a1,24(s1)
    33c4:	854a                	mv	a0,s2
    33c6:	db4ff0ef          	jal	ra,297a <move_window>
    33ca:	842a                	mv	s0,a0
    33cc:	0e051863          	bnez	a0,34bc <follow_path+0x1d4>
    33d0:	4cc8                	lw	a0,28(s1)
    33d2:	211c                	lbu	a5,0(a0)
    33d4:	c3fd                	beqz	a5,34ba <follow_path+0x1d2>
    33d6:	353c                	lbu	a5,11(a0)
    33d8:	03f7f793          	andi	a5,a5,63
    33dc:	a0fc                	sb	a5,6(s1)
    33de:	353c                	lbu	a5,11(a0)
    33e0:	8ba1                	andi	a5,a5,8
    33e2:	e791                	bnez	a5,33ee <follow_path+0x106>
    33e4:	462d                	li	a2,11
    33e6:	85d6                	mv	a1,s5
    33e8:	1e4010ef          	jal	ra,45cc <memcmp>
    33ec:	c961                	beqz	a0,34bc <follow_path+0x1d4>
    33ee:	4581                	li	a1,0
    33f0:	8526                	mv	a0,s1
    33f2:	e3bff0ef          	jal	ra,322c <dir_next>
    33f6:	b7d9                	j	33bc <follow_path+0xd4>
    33f8:	0985                	addi	s3,s3,1
    33fa:	b709                	j	32fc <follow_path+0x14>
    33fc:	f8000793          	li	a5,-128
    3400:	02f485a3          	sb	a5,43(s1)
    3404:	8526                	mv	a0,s1
    3406:	c9fff0ef          	jal	ra,30a4 <dir_sdi.constprop.13>
    340a:	842a                	mv	s0,a0
    340c:	8522                	mv	a0,s0
    340e:	deffc06f          	j	1fc <__riscv_restore_12>
    3412:	0a05                	addi	s4,s4,1
    3414:	bfb9                	j	3372 <follow_path+0x8a>
    3416:	0cd40e63          	beq	s0,a3,34f2 <follow_path+0x20a>
    341a:	0db97a63          	bgeu	s2,s11,34ee <follow_path+0x206>
    341e:	04887963          	bgeu	a6,s0,3470 <follow_path+0x188>
    3422:	00837863          	bgeu	t1,s0,3432 <follow_path+0x14a>
    3426:	02040593          	addi	a1,s0,32
    342a:	0ff5f593          	andi	a1,a1,255
    342e:	04bfe163          	bltu	t6,a1,3470 <follow_path+0x188>
    3432:	9a4e                	add	s4,s4,s3
    3434:	00278513          	addi	a0,a5,2
    3438:	000a0783          	lb	a5,0(s4)
    343c:	0ff7f593          	andi	a1,a5,255
    3440:	0abe7763          	bgeu	t3,a1,34ee <follow_path+0x206>
    3444:	00bef663          	bgeu	t4,a1,3450 <follow_path+0x168>
    3448:	0a07d363          	bgez	a5,34ee <follow_path+0x206>
    344c:	0abf6163          	bltu	t5,a1,34ee <follow_path+0x206>
    3450:	fffd8793          	addi	a5,s11,-1
    3454:	08f97d63          	bgeu	s2,a5,34ee <follow_path+0x206>
    3458:	00190793          	addi	a5,s2,1 # 1001 <SDEnWideBus+0x67>
    345c:	012a82b3          	add	t0,s5,s2
    3460:	00828023          	sb	s0,0(t0)
    3464:	97d6                	add	a5,a5,s5
    3466:	0909                	addi	s2,s2,2
    3468:	a38c                	sb	a1,0(a5)
    346a:	8a2a                	mv	s4,a0
    346c:	87d2                	mv	a5,s4
    346e:	b5fd                	j	335c <follow_path+0x74>
    3470:	85a2                	mv	a1,s0
    3472:	9bcc8513          	addi	a0,s9,-1604 # 59bc <defopt.6297+0x44>
    3476:	34c010ef          	jal	ra,47c2 <strchr>
    347a:	e935                	bnez	a0,34ee <follow_path+0x206>
    347c:	f9f40793          	addi	a5,s0,-97
    3480:	0ff7f793          	andi	a5,a5,255
    3484:	48e5                	li	a7,25
    3486:	02000713          	li	a4,32
    348a:	02e00693          	li	a3,46
    348e:	462d                	li	a2,11
    3490:	08000813          	li	a6,128
    3494:	09f00313          	li	t1,159
    3498:	03f00e13          	li	t3,63
    349c:	07e00e93          	li	t4,126
    34a0:	0fc00f13          	li	t5,252
    34a4:	4ff1                	li	t6,28
    34a6:	00f8e563          	bltu	a7,a5,34b0 <follow_path+0x1c8>
    34aa:	1401                	addi	s0,s0,-32
    34ac:	0ff47413          	andi	s0,s0,255
    34b0:	012a87b3          	add	a5,s5,s2
    34b4:	a380                	sb	s0,0(a5)
    34b6:	0905                	addi	s2,s2,1
    34b8:	bf55                	j	346c <follow_path+0x184>
    34ba:	4411                	li	s0,4
    34bc:	02b4c783          	lbu	a5,43(s1)
    34c0:	c801                	beqz	s0,34d0 <follow_path+0x1e8>
    34c2:	4711                	li	a4,4
    34c4:	f4e414e3          	bne	s0,a4,340c <follow_path+0x124>
    34c8:	8b91                	andi	a5,a5,4
    34ca:	f3a9                	bnez	a5,340c <follow_path+0x124>
    34cc:	4415                	li	s0,5
    34ce:	bf3d                	j	340c <follow_path+0x124>
    34d0:	8b91                	andi	a5,a5,4
    34d2:	ff8d                	bnez	a5,340c <follow_path+0x124>
    34d4:	20fc                	lbu	a5,6(s1)
    34d6:	8bc1                	andi	a5,a5,16
    34d8:	dbf5                	beqz	a5,34cc <follow_path+0x1e4>
    34da:	488c                	lw	a1,16(s1)
    34dc:	000b4503          	lbu	a0,0(s6)
    34e0:	1ff5f593          	andi	a1,a1,511
    34e4:	95ea                	add	a1,a1,s10
    34e6:	c12ff0ef          	jal	ra,28f8 <ld_clust.isra.0>
    34ea:	c488                	sw	a0,8(s1)
    34ec:	bd3d                	j	332a <follow_path+0x42>
    34ee:	4419                	li	s0,6
    34f0:	bf31                	j	340c <follow_path+0x124>
    34f2:	fecd8ee3          	beq	s11,a2,34ee <follow_path+0x206>
    34f6:	4921                	li	s2,8
    34f8:	4dad                	li	s11,11
    34fa:	bf8d                	j	346c <follow_path+0x184>

000034fc <dir_register>:
    34fc:	cdbfc2ef          	jal	t0,1d6 <__riscv_save_4>
    3500:	84aa                	mv	s1,a0
    3502:	00052903          	lw	s2,0(a0)
    3506:	b9fff0ef          	jal	ra,30a4 <dir_sdi.constprop.13>
    350a:	842a                	mv	s0,a0
    350c:	ed21                	bnez	a0,3564 <dir_register+0x68>
    350e:	0e500993          	li	s3,229
    3512:	4c8c                	lw	a1,24(s1)
    3514:	854a                	mv	a0,s2
    3516:	c64ff0ef          	jal	ra,297a <move_window>
    351a:	842a                	mv	s0,a0
    351c:	e521                	bnez	a0,3564 <dir_register+0x68>
    351e:	4cdc                	lw	a5,28(s1)
    3520:	239c                	lbu	a5,0(a5)
    3522:	03379a63          	bne	a5,s3,3556 <dir_register+0x5a>
    3526:	4c8c                	lw	a1,24(s1)
    3528:	854a                	mv	a0,s2
    352a:	c50ff0ef          	jal	ra,297a <move_window>
    352e:	842a                	mv	s0,a0
    3530:	e105                	bnez	a0,3550 <dir_register+0x54>
    3532:	4cc8                	lw	a0,28(s1)
    3534:	02000613          	li	a2,32
    3538:	4581                	li	a1,0
    353a:	ce7fc0ef          	jal	ra,220 <memset>
    353e:	4cc8                	lw	a0,28(s1)
    3540:	462d                	li	a2,11
    3542:	02048593          	addi	a1,s1,32
    3546:	0aa010ef          	jal	ra,45f0 <memcpy>
    354a:	4785                	li	a5,1
    354c:	00f90223          	sb	a5,4(s2)
    3550:	8522                	mv	a0,s0
    3552:	cb9fc06f          	j	20a <__riscv_restore_4>
    3556:	dbe1                	beqz	a5,3526 <dir_register+0x2a>
    3558:	4585                	li	a1,1
    355a:	8526                	mv	a0,s1
    355c:	cd1ff0ef          	jal	ra,322c <dir_next>
    3560:	842a                	mv	s0,a0
    3562:	d945                	beqz	a0,3512 <dir_register+0x16>
    3564:	4791                	li	a5,4
    3566:	fef415e3          	bne	s0,a5,3550 <dir_register+0x54>
    356a:	441d                	li	s0,7
    356c:	b7d5                	j	3550 <dir_register+0x54>

0000356e <f_mount>:
    356e:	c83fc2ef          	jal	t0,1f0 <__riscv_save_0>
    3572:	1101                	addi	sp,sp,-32
    3574:	c62a                	sw	a0,12(sp)
    3576:	0868                	addi	a0,sp,28
    3578:	c42e                	sw	a1,8(sp)
    357a:	c232                	sw	a2,4(sp)
    357c:	ce2e                	sw	a1,28(sp)
    357e:	aeaff0ef          	jal	ra,2868 <get_ldnumber>
    3582:	04054163          	bltz	a0,35c4 <f_mount+0x56>
    3586:	16418713          	addi	a4,gp,356 # 200009e4 <FatFs>
    358a:	00251693          	slli	a3,a0,0x2
    358e:	9736                	add	a4,a4,a3
    3590:	430c                	lw	a1,0(a4)
    3592:	16418793          	addi	a5,gp,356 # 200009e4 <FatFs>
    3596:	4612                	lw	a2,4(sp)
    3598:	c589                	beqz	a1,35a2 <f_mount+0x34>
    359a:	00072023          	sw	zero,0(a4)
    359e:	00058023          	sb	zero,0(a1)
    35a2:	4732                	lw	a4,12(sp)
    35a4:	c711                	beqz	a4,35b0 <f_mount+0x42>
    35a6:	97b6                	add	a5,a5,a3
    35a8:	b308                	sb	a0,1(a4)
    35aa:	00070023          	sb	zero,0(a4)
    35ae:	c398                	sw	a4,0(a5)
    35b0:	4501                	li	a0,0
    35b2:	c611                	beqz	a2,35be <f_mount+0x50>
    35b4:	4601                	li	a2,0
    35b6:	006c                	addi	a1,sp,12
    35b8:	0028                	addi	a0,sp,8
    35ba:	837ff0ef          	jal	ra,2df0 <mount_volume>
    35be:	6105                	addi	sp,sp,32
    35c0:	c55fc06f          	j	214 <__riscv_restore_0>
    35c4:	452d                	li	a0,11
    35c6:	bfe5                	j	35be <f_mount+0x50>

000035c8 <f_open>:
    35c8:	c01fc2ef          	jal	t0,1c8 <__riscv_save_10>
    35cc:	7139                	addi	sp,sp,-64
    35ce:	c62e                	sw	a1,12(sp)
    35d0:	4a25                	li	s4,9
    35d2:	c561                	beqz	a0,369a <f_open+0xd2>
    35d4:	03f67913          	andi	s2,a2,63
    35d8:	84b2                	mv	s1,a2
    35da:	842a                	mv	s0,a0
    35dc:	864a                	mv	a2,s2
    35de:	080c                	addi	a1,sp,16
    35e0:	0068                	addi	a0,sp,12
    35e2:	80fff0ef          	jal	ra,2df0 <mount_volume>
    35e6:	8a2a                	mv	s4,a0
    35e8:	e555                	bnez	a0,3694 <f_open+0xcc>
    35ea:	47c2                	lw	a5,16(sp)
    35ec:	45b2                	lw	a1,12(sp)
    35ee:	0848                	addi	a0,sp,20
    35f0:	ca3e                	sw	a5,20(sp)
    35f2:	cf7ff0ef          	jal	ra,32e8 <follow_path>
    35f6:	e511                	bnez	a0,3602 <f_open+0x3a>
    35f8:	03f10783          	lb	a5,63(sp)
    35fc:	0007d363          	bgez	a5,3602 <f_open+0x3a>
    3600:	4519                	li	a0,6
    3602:	01c4f793          	andi	a5,s1,28
    3606:	14078d63          	beqz	a5,3760 <f_open+0x198>
    360a:	cd41                	beqz	a0,36a2 <f_open+0xda>
    360c:	4791                	li	a5,4
    360e:	08f51363          	bne	a0,a5,3694 <f_open+0xcc>
    3612:	0848                	addi	a0,sp,20
    3614:	ee9ff0ef          	jal	ra,34fc <dir_register>
    3618:	ed35                	bnez	a0,3694 <f_open+0xcc>
    361a:	00896913          	ori	s2,s2,8
    361e:	a02ff0ef          	jal	ra,2820 <get_fattime>
    3622:	84aa                	mv	s1,a0
    3624:	85aa                	mv	a1,a0
    3626:	5542                	lw	a0,48(sp)
    3628:	0539                	addi	a0,a0,14
    362a:	a10ff0ef          	jal	ra,283a <st_dword>
    362e:	5542                	lw	a0,48(sp)
    3630:	85a6                	mv	a1,s1
    3632:	0559                	addi	a0,a0,22
    3634:	a06ff0ef          	jal	ra,283a <st_dword>
    3638:	49c2                	lw	s3,16(sp)
    363a:	5ac2                	lw	s5,48(sp)
    363c:	0009c503          	lbu	a0,0(s3)
    3640:	85d6                	mv	a1,s5
    3642:	ab6ff0ef          	jal	ra,28f8 <ld_clust.isra.0>
    3646:	02000793          	li	a5,32
    364a:	00fa85a3          	sb	a5,11(s5)
    364e:	55c2                	lw	a1,48(sp)
    3650:	84aa                	mv	s1,a0
    3652:	4601                	li	a2,0
    3654:	854e                	mv	a0,s3
    3656:	ac0ff0ef          	jal	ra,2916 <st_clust.isra.1>
    365a:	57c2                	lw	a5,48(sp)
    365c:	4705                	li	a4,1
    365e:	00078e23          	sb	zero,28(a5)
    3662:	00078ea3          	sb	zero,29(a5)
    3666:	00078f23          	sb	zero,30(a5)
    366a:	00078fa3          	sb	zero,31(a5)
    366e:	47c2                	lw	a5,16(sp)
    3670:	a3d8                	sb	a4,4(a5)
    3672:	c0b1                	beqz	s1,36b6 <f_open+0xee>
    3674:	4601                	li	a2,0
    3676:	85a6                	mv	a1,s1
    3678:	0848                	addi	a0,sp,20
    367a:	02c7a983          	lw	s3,44(a5)
    367e:	ef8ff0ef          	jal	ra,2d76 <remove_chain>
    3682:	e909                	bnez	a0,3694 <f_open+0xcc>
    3684:	4542                	lw	a0,16(sp)
    3686:	85ce                	mv	a1,s3
    3688:	14fd                	addi	s1,s1,-1
    368a:	af0ff0ef          	jal	ra,297a <move_window>
    368e:	47c2                	lw	a5,16(sp)
    3690:	c7c4                	sw	s1,12(a5)
    3692:	c115                	beqz	a0,36b6 <f_open+0xee>
    3694:	00042023          	sw	zero,0(s0)
    3698:	8a2a                	mv	s4,a0
    369a:	8552                	mv	a0,s4
    369c:	6121                	addi	sp,sp,64
    369e:	b63fc06f          	j	200 <__riscv_restore_10>
    36a2:	01a14783          	lbu	a5,26(sp)
    36a6:	8bc5                	andi	a5,a5,17
    36a8:	e7f1                	bnez	a5,3774 <f_open+0x1ac>
    36aa:	0044f793          	andi	a5,s1,4
    36ae:	0e079463          	bnez	a5,3796 <f_open+0x1ce>
    36b2:	88a1                	andi	s1,s1,8
    36b4:	f4ad                	bnez	s1,361e <f_open+0x56>
    36b6:	00897793          	andi	a5,s2,8
    36ba:	c399                	beqz	a5,36c0 <f_open+0xf8>
    36bc:	04096913          	ori	s2,s2,64
    36c0:	4ac2                	lw	s5,16(sp)
    36c2:	54c2                	lw	s1,48(sp)
    36c4:	02840b13          	addi	s6,s0,40
    36c8:	02caa783          	lw	a5,44(s5)
    36cc:	d044                	sw	s1,36(s0)
    36ce:	85a6                	mv	a1,s1
    36d0:	d01c                	sw	a5,32(s0)
    36d2:	000ac503          	lbu	a0,0(s5)
    36d6:	a22ff0ef          	jal	ra,28f8 <ld_clust.isra.0>
    36da:	c408                	sw	a0,8(s0)
    36dc:	89aa                	mv	s3,a0
    36de:	01c48513          	addi	a0,s1,28
    36e2:	942ff0ef          	jal	ra,2824 <ld_dword>
    36e6:	006ad783          	lhu	a5,6(s5)
    36ea:	c448                	sw	a0,12(s0)
    36ec:	01240823          	sb	s2,16(s0)
    36f0:	84aa                	mv	s1,a0
    36f2:	01542023          	sw	s5,0(s0)
    36f6:	a05e                	sh	a5,4(s0)
    36f8:	000408a3          	sb	zero,17(s0)
    36fc:	00042e23          	sw	zero,28(s0)
    3700:	00042a23          	sw	zero,20(s0)
    3704:	20000613          	li	a2,512
    3708:	4581                	li	a1,0
    370a:	855a                	mv	a0,s6
    370c:	02097913          	andi	s2,s2,32
    3710:	b11fc0ef          	jal	ra,220 <memset>
    3714:	f80903e3          	beqz	s2,369a <f_open+0xd2>
    3718:	d0c9                	beqz	s1,369a <f_open+0xd2>
    371a:	00aad903          	lhu	s2,10(s5)
    371e:	c844                	sw	s1,20(s0)
    3720:	4a85                	li	s5,1
    3722:	0926                	slli	s2,s2,0x9
    3724:	5bfd                	li	s7,-1
    3726:	04996963          	bltu	s2,s1,3778 <f_open+0x1b0>
    372a:	4501                	li	a0,0
    372c:	01342c23          	sw	s3,24(s0)
    3730:	f135                	bnez	a0,3694 <f_open+0xcc>
    3732:	1ff4f793          	andi	a5,s1,511
    3736:	d3b5                	beqz	a5,369a <f_open+0xd2>
    3738:	4942                	lw	s2,16(sp)
    373a:	85ce                	mv	a1,s3
    373c:	854a                	mv	a0,s2
    373e:	910ff0ef          	jal	ra,284e <clst2sect>
    3742:	862a                	mv	a2,a0
    3744:	4509                	li	a0,2
    3746:	d639                	beqz	a2,3694 <f_open+0xcc>
    3748:	80a5                	srli	s1,s1,0x9
    374a:	9626                	add	a2,a2,s1
    374c:	cc50                	sw	a2,28(s0)
    374e:	00194503          	lbu	a0,1(s2)
    3752:	4685                	li	a3,1
    3754:	85da                	mv	a1,s6
    3756:	850ff0ef          	jal	ra,27a6 <disk_read>
    375a:	d121                	beqz	a0,369a <f_open+0xd2>
    375c:	4505                	li	a0,1
    375e:	bf1d                	j	3694 <f_open+0xcc>
    3760:	f915                	bnez	a0,3694 <f_open+0xcc>
    3762:	01a14783          	lbu	a5,26(sp)
    3766:	0107f713          	andi	a4,a5,16
    376a:	eb05                	bnez	a4,379a <f_open+0x1d2>
    376c:	8889                	andi	s1,s1,2
    376e:	d4a1                	beqz	s1,36b6 <f_open+0xee>
    3770:	8b85                	andi	a5,a5,1
    3772:	d3b1                	beqz	a5,36b6 <f_open+0xee>
    3774:	451d                	li	a0,7
    3776:	bf39                	j	3694 <f_open+0xcc>
    3778:	4008                	lw	a0,0(s0)
    377a:	85ce                	mv	a1,s3
    377c:	412484b3          	sub	s1,s1,s2
    3780:	c3cff0ef          	jal	ra,2bbc <get_fat.isra.6>
    3784:	89aa                	mv	s3,a0
    3786:	00aaf663          	bgeu	s5,a0,3792 <f_open+0x1ca>
    378a:	f9751ee3          	bne	a0,s7,3726 <f_open+0x15e>
    378e:	4505                	li	a0,1
    3790:	bf71                	j	372c <f_open+0x164>
    3792:	4509                	li	a0,2
    3794:	bf61                	j	372c <f_open+0x164>
    3796:	4521                	li	a0,8
    3798:	bdf5                	j	3694 <f_open+0xcc>
    379a:	4511                	li	a0,4
    379c:	bde5                	j	3694 <f_open+0xcc>

0000379e <f_write>:
    379e:	a23fc2ef          	jal	t0,1c0 <__riscv_save_12>
    37a2:	1101                	addi	sp,sp,-32
    37a4:	8a2e                	mv	s4,a1
    37a6:	0006a023          	sw	zero,0(a3) # 1000 <SDEnWideBus+0x66>
    37aa:	086c                	addi	a1,sp,28
    37ac:	842a                	mv	s0,a0
    37ae:	8932                	mv	s2,a2
    37b0:	8b36                	mv	s6,a3
    37b2:	908ff0ef          	jal	ra,28ba <validate>
    37b6:	89aa                	mv	s3,a0
    37b8:	e131                	bnez	a0,37fc <f_write+0x5e>
    37ba:	01144983          	lbu	s3,17(s0)
    37be:	02099f63          	bnez	s3,37fc <f_write+0x5e>
    37c2:	281c                	lbu	a5,16(s0)
    37c4:	8b89                	andi	a5,a5,2
    37c6:	16078863          	beqz	a5,3936 <f_write+0x198>
    37ca:	485c                	lw	a5,20(s0)
    37cc:	01278733          	add	a4,a5,s2
    37d0:	00f77463          	bgeu	a4,a5,37d8 <f_write+0x3a>
    37d4:	fff7c913          	not	s2,a5
    37d8:	20000b93          	li	s7,512
    37dc:	02840a93          	addi	s5,s0,40
    37e0:	1ff00c13          	li	s8,511
    37e4:	5cfd                	li	s9,-1
    37e6:	a0f9                	j	38b4 <f_write+0x116>
    37e8:	4c0c                	lw	a1,24(s0)
    37ea:	8522                	mv	a0,s0
    37ec:	c9aff0ef          	jal	ra,2c86 <create_chain>
    37f0:	0e051863          	bnez	a0,38e0 <f_write+0x142>
    37f4:	281c                	lbu	a5,16(s0)
    37f6:	0407e793          	ori	a5,a5,64
    37fa:	a81c                	sb	a5,16(s0)
    37fc:	854e                	mv	a0,s3
    37fe:	6105                	addi	sp,sp,32
    3800:	9fdfc06f          	j	1fc <__riscv_restore_12>
    3804:	01951663          	bne	a0,s9,3810 <f_write+0x72>
    3808:	4785                	li	a5,1
    380a:	b81c                	sb	a5,17(s0)
    380c:	4985                	li	s3,1
    380e:	b7fd                	j	37fc <f_write+0x5e>
    3810:	441c                	lw	a5,8(s0)
    3812:	cc08                	sw	a0,24(s0)
    3814:	e391                	bnez	a5,3818 <f_write+0x7a>
    3816:	c408                	sw	a0,8(s0)
    3818:	01040783          	lb	a5,16(s0)
    381c:	0007de63          	bgez	a5,3838 <f_write+0x9a>
    3820:	47f2                	lw	a5,28(sp)
    3822:	4c50                	lw	a2,28(s0)
    3824:	4685                	li	a3,1
    3826:	3388                	lbu	a0,1(a5)
    3828:	85d6                	mv	a1,s5
    382a:	f9dfe0ef          	jal	ra,27c6 <disk_write>
    382e:	fd69                	bnez	a0,3808 <f_write+0x6a>
    3830:	281c                	lbu	a5,16(s0)
    3832:	07f7f793          	andi	a5,a5,127
    3836:	a81c                	sb	a5,16(s0)
    3838:	47f2                	lw	a5,28(sp)
    383a:	4c0c                	lw	a1,24(s0)
    383c:	853e                	mv	a0,a5
    383e:	c63e                	sw	a5,12(sp)
    3840:	80eff0ef          	jal	ra,284e <clst2sect>
    3844:	c14d                	beqz	a0,38e6 <f_write+0x148>
    3846:	00ad8d33          	add	s10,s11,a0
    384a:	47b2                	lw	a5,12(sp)
    384c:	0b2c7163          	bgeu	s8,s2,38ee <f_write+0x150>
    3850:	27ba                	lhu	a4,10(a5)
    3852:	00995493          	srli	s1,s2,0x9
    3856:	009d86b3          	add	a3,s11,s1
    385a:	00d77463          	bgeu	a4,a3,3862 <f_write+0xc4>
    385e:	41b704b3          	sub	s1,a4,s11
    3862:	3388                	lbu	a0,1(a5)
    3864:	86a6                	mv	a3,s1
    3866:	866a                	mv	a2,s10
    3868:	85d2                	mv	a1,s4
    386a:	f5dfe0ef          	jal	ra,27c6 <disk_write>
    386e:	fd49                	bnez	a0,3808 <f_write+0x6a>
    3870:	4c4c                	lw	a1,28(s0)
    3872:	41a58d33          	sub	s10,a1,s10
    3876:	009d7e63          	bgeu	s10,s1,3892 <f_write+0xf4>
    387a:	0d26                	slli	s10,s10,0x9
    387c:	20000613          	li	a2,512
    3880:	01aa05b3          	add	a1,s4,s10
    3884:	8556                	mv	a0,s5
    3886:	56b000ef          	jal	ra,45f0 <memcpy>
    388a:	281c                	lbu	a5,16(s0)
    388c:	07f7f793          	andi	a5,a5,127
    3890:	a81c                	sb	a5,16(s0)
    3892:	04a6                	slli	s1,s1,0x9
    3894:	000b2783          	lw	a5,0(s6)
    3898:	40990933          	sub	s2,s2,s1
    389c:	9a26                	add	s4,s4,s1
    389e:	97a6                	add	a5,a5,s1
    38a0:	00fb2023          	sw	a5,0(s6)
    38a4:	485c                	lw	a5,20(s0)
    38a6:	94be                	add	s1,s1,a5
    38a8:	445c                	lw	a5,12(s0)
    38aa:	c844                	sw	s1,20(s0)
    38ac:	0097f363          	bgeu	a5,s1,38b2 <f_write+0x114>
    38b0:	87a6                	mv	a5,s1
    38b2:	c45c                	sw	a5,12(s0)
    38b4:	f40900e3          	beqz	s2,37f4 <f_write+0x56>
    38b8:	485c                	lw	a5,20(s0)
    38ba:	1ff7f713          	andi	a4,a5,511
    38be:	eb29                	bnez	a4,3910 <f_write+0x172>
    38c0:	4772                	lw	a4,28(sp)
    38c2:	00a75d83          	lhu	s11,10(a4)
    38c6:	0097d713          	srli	a4,a5,0x9
    38ca:	1dfd                	addi	s11,s11,-1
    38cc:	00edfdb3          	and	s11,s11,a4
    38d0:	f40d94e3          	bnez	s11,3818 <f_write+0x7a>
    38d4:	f0079ae3          	bnez	a5,37e8 <f_write+0x4a>
    38d8:	4408                	lw	a0,8(s0)
    38da:	4581                	li	a1,0
    38dc:	f00507e3          	beqz	a0,37ea <f_write+0x4c>
    38e0:	4785                	li	a5,1
    38e2:	f2f511e3          	bne	a0,a5,3804 <f_write+0x66>
    38e6:	4789                	li	a5,2
    38e8:	b81c                	sb	a5,17(s0)
    38ea:	4989                	li	s3,2
    38ec:	bf01                	j	37fc <f_write+0x5e>
    38ee:	4c58                	lw	a4,28(s0)
    38f0:	01a70e63          	beq	a4,s10,390c <f_write+0x16e>
    38f4:	4454                	lw	a3,12(s0)
    38f6:	4858                	lw	a4,20(s0)
    38f8:	00d77a63          	bgeu	a4,a3,390c <f_write+0x16e>
    38fc:	3388                	lbu	a0,1(a5)
    38fe:	4685                	li	a3,1
    3900:	866a                	mv	a2,s10
    3902:	85d6                	mv	a1,s5
    3904:	ea3fe0ef          	jal	ra,27a6 <disk_read>
    3908:	f00510e3          	bnez	a0,3808 <f_write+0x6a>
    390c:	01a42e23          	sw	s10,28(s0)
    3910:	4848                	lw	a0,20(s0)
    3912:	84ca                	mv	s1,s2
    3914:	1ff57513          	andi	a0,a0,511
    3918:	40ab87b3          	sub	a5,s7,a0
    391c:	0127f363          	bgeu	a5,s2,3922 <f_write+0x184>
    3920:	84be                	mv	s1,a5
    3922:	8626                	mv	a2,s1
    3924:	85d2                	mv	a1,s4
    3926:	9556                	add	a0,a0,s5
    3928:	4c9000ef          	jal	ra,45f0 <memcpy>
    392c:	281c                	lbu	a5,16(s0)
    392e:	f807e793          	ori	a5,a5,-128
    3932:	a81c                	sb	a5,16(s0)
    3934:	b785                	j	3894 <f_write+0xf6>
    3936:	499d                	li	s3,7
    3938:	b5d1                	j	37fc <f_write+0x5e>

0000393a <f_sync>:
    393a:	8b7fc2ef          	jal	t0,1f0 <__riscv_save_0>
    393e:	1141                	addi	sp,sp,-16
    3940:	006c                	addi	a1,sp,12
    3942:	842a                	mv	s0,a0
    3944:	f77fe0ef          	jal	ra,28ba <validate>
    3948:	87aa                	mv	a5,a0
    394a:	e151                	bnez	a0,39ce <f_sync+0x94>
    394c:	2818                	lbu	a4,16(s0)
    394e:	04077693          	andi	a3,a4,64
    3952:	ceb5                	beqz	a3,39ce <f_sync+0x94>
    3954:	0762                	slli	a4,a4,0x18
    3956:	8761                	srai	a4,a4,0x18
    3958:	02075063          	bgez	a4,3978 <f_sync+0x3e>
    395c:	47b2                	lw	a5,12(sp)
    395e:	4c50                	lw	a2,28(s0)
    3960:	4685                	li	a3,1
    3962:	3388                	lbu	a0,1(a5)
    3964:	02840593          	addi	a1,s0,40
    3968:	e5ffe0ef          	jal	ra,27c6 <disk_write>
    396c:	4785                	li	a5,1
    396e:	e125                	bnez	a0,39ce <f_sync+0x94>
    3970:	281c                	lbu	a5,16(s0)
    3972:	07f7f793          	andi	a5,a5,127
    3976:	a81c                	sb	a5,16(s0)
    3978:	ea9fe0ef          	jal	ra,2820 <get_fattime>
    397c:	892a                	mv	s2,a0
    397e:	500c                	lw	a1,32(s0)
    3980:	4532                	lw	a0,12(sp)
    3982:	ff9fe0ef          	jal	ra,297a <move_window>
    3986:	87aa                	mv	a5,a0
    3988:	e139                	bnez	a0,39ce <f_sync+0x94>
    398a:	5044                	lw	s1,36(s0)
    398c:	34bc                	lbu	a5,11(s1)
    398e:	85a6                	mv	a1,s1
    3990:	0207e793          	ori	a5,a5,32
    3994:	b4bc                	sb	a5,11(s1)
    3996:	4410                	lw	a2,8(s0)
    3998:	4008                	lw	a0,0(s0)
    399a:	f7dfe0ef          	jal	ra,2916 <st_clust.isra.1>
    399e:	444c                	lw	a1,12(s0)
    39a0:	01c48513          	addi	a0,s1,28
    39a4:	e97fe0ef          	jal	ra,283a <st_dword>
    39a8:	85ca                	mv	a1,s2
    39aa:	01648513          	addi	a0,s1,22
    39ae:	e8dfe0ef          	jal	ra,283a <st_dword>
    39b2:	4532                	lw	a0,12(sp)
    39b4:	4785                	li	a5,1
    39b6:	00048923          	sb	zero,18(s1)
    39ba:	000489a3          	sb	zero,19(s1)
    39be:	a15c                	sb	a5,4(a0)
    39c0:	f58ff0ef          	jal	ra,3118 <sync_fs>
    39c4:	2818                	lbu	a4,16(s0)
    39c6:	87aa                	mv	a5,a0
    39c8:	fbf77713          	andi	a4,a4,-65
    39cc:	a818                	sb	a4,16(s0)
    39ce:	853e                	mv	a0,a5
    39d0:	0141                	addi	sp,sp,16
    39d2:	843fc06f          	j	214 <__riscv_restore_0>

000039d6 <f_close>:
    39d6:	81bfc2ef          	jal	t0,1f0 <__riscv_save_0>
    39da:	1141                	addi	sp,sp,-16
    39dc:	842a                	mv	s0,a0
    39de:	f5dff0ef          	jal	ra,393a <f_sync>
    39e2:	e901                	bnez	a0,39f2 <f_close+0x1c>
    39e4:	006c                	addi	a1,sp,12
    39e6:	8522                	mv	a0,s0
    39e8:	ed3fe0ef          	jal	ra,28ba <validate>
    39ec:	e119                	bnez	a0,39f2 <f_close+0x1c>
    39ee:	00042023          	sw	zero,0(s0)
    39f2:	0141                	addi	sp,sp,16
    39f4:	821fc06f          	j	214 <__riscv_restore_0>

000039f8 <f_mkfs>:
    39f8:	fc8fc2ef          	jal	t0,1c0 <__riscv_save_12>
    39fc:	7139                	addi	sp,sp,-64
    39fe:	ce2a                	sw	a0,28(sp)
    3a00:	0868                	addi	a0,sp,28
    3a02:	8d36                	mv	s10,a3
    3a04:	842e                	mv	s0,a1
    3a06:	8cb2                	mv	s9,a2
    3a08:	e61fe0ef          	jal	ra,2868 <get_ldnumber>
    3a0c:	46ad                	li	a3,11
    3a0e:	0e054263          	bltz	a0,3af2 <f_mkfs+0xfa>
    3a12:	00251713          	slli	a4,a0,0x2
    3a16:	16418693          	addi	a3,gp,356 # 200009e4 <FatFs>
    3a1a:	9736                	add	a4,a4,a3
    3a1c:	4318                	lw	a4,0(a4)
    3a1e:	c319                	beqz	a4,3a24 <f_mkfs+0x2c>
    3a20:	00070023          	sb	zero,0(a4)
    3a24:	0ff57913          	andi	s2,a0,255
    3a28:	854a                	mv	a0,s2
    3a2a:	d63fe0ef          	jal	ra,278c <disk_initialize>
    3a2e:	00157713          	andi	a4,a0,1
    3a32:	468d                	li	a3,3
    3a34:	ef5d                	bnez	a4,3af2 <f_mkfs+0xfa>
    3a36:	8911                	andi	a0,a0,4
    3a38:	46a9                	li	a3,10
    3a3a:	ed45                	bnez	a0,3af2 <f_mkfs+0xfa>
    3a3c:	e401                	bnez	s0,3a44 <f_mkfs+0x4c>
    3a3e:	6419                	lui	s0,0x6
    3a40:	97840413          	addi	s0,s0,-1672 # 5978 <defopt.6297>
    3a44:	4058                	lw	a4,4(s0)
    3a46:	d63a                	sw	a4,44(sp)
    3a48:	e711                	bnez	a4,3a54 <f_mkfs+0x5c>
    3a4a:	1070                	addi	a2,sp,44
    3a4c:	458d                	li	a1,3
    3a4e:	854a                	mv	a0,s2
    3a50:	d97fe0ef          	jal	ra,27e6 <disk_ioctl>
    3a54:	5732                	lw	a4,44(sp)
    3a56:	6621                	lui	a2,0x8
    3a58:	fff70693          	addi	a3,a4,-1
    3a5c:	00c6f463          	bgeu	a3,a2,3a64 <f_mkfs+0x6c>
    3a60:	8f75                	and	a4,a4,a3
    3a62:	c319                	beqz	a4,3a68 <f_mkfs+0x70>
    3a64:	4705                	li	a4,1
    3a66:	d63a                	sw	a4,44(sp)
    3a68:	00144b83          	lbu	s7,1(s0)
    3a6c:	4685                	li	a3,1
    3a6e:	fffb8713          	addi	a4,s7,-1
    3a72:	0ff77713          	andi	a4,a4,255
    3a76:	00e6f363          	bgeu	a3,a4,3a7c <f_mkfs+0x84>
    3a7a:	4b85                	li	s7,1
    3a7c:	00842d83          	lw	s11,8(s0)
    3a80:	6721                	lui	a4,0x8
    3a82:	fffd8693          	addi	a3,s11,-1
    3a86:	00e6f563          	bgeu	a3,a4,3a90 <f_mkfs+0x98>
    3a8a:	00fdf713          	andi	a4,s11,15
    3a8e:	c319                	beqz	a4,3a94 <f_mkfs+0x9c>
    3a90:	20000d93          	li	s11,512
    3a94:	4444                	lw	s1,12(s0)
    3a96:	01000737          	lui	a4,0x1000
    3a9a:	06976063          	bltu	a4,s1,3afa <f_mkfs+0x102>
    3a9e:	fff48713          	addi	a4,s1,-1
    3aa2:	8f65                	and	a4,a4,s1
    3aa4:	eb39                	bnez	a4,3afa <f_mkfs+0x102>
    3aa6:	1ff00713          	li	a4,511
    3aaa:	46c5                	li	a3,17
    3aac:	05a77363          	bgeu	a4,s10,3af2 <f_mkfs+0xfa>
    3ab0:	040c8163          	beqz	s9,3af2 <f_mkfs+0xfa>
    3ab4:	1810                	addi	a2,sp,48
    3ab6:	4585                	li	a1,1
    3ab8:	854a                	mv	a0,s2
    3aba:	2000                	lbu	s0,0(s0)
    3abc:	d802                	sw	zero,48(sp)
    3abe:	d29fe0ef          	jal	ra,27e6 <disk_ioctl>
    3ac2:	4685                	li	a3,1
    3ac4:	e51d                	bnez	a0,3af2 <f_mkfs+0xfa>
    3ac6:	00847793          	andi	a5,s0,8
    3aca:	ca3e                	sw	a5,20(sp)
    3acc:	4b01                	li	s6,0
    3ace:	ef81                	bnez	a5,3ae6 <f_mkfs+0xee>
    3ad0:	5742                	lw	a4,48(sp)
    3ad2:	03f00693          	li	a3,63
    3ad6:	8b3e                	mv	s6,a5
    3ad8:	00e6f763          	bgeu	a3,a4,3ae6 <f_mkfs+0xee>
    3adc:	fc170713          	addi	a4,a4,-63 # ffffc1 <_data_lma+0xffa459>
    3ae0:	d83a                	sw	a4,48(sp)
    3ae2:	03f00b13          	li	s6,63
    3ae6:	56c2                	lw	a3,48(sp)
    3ae8:	07f00713          	li	a4,127
    3aec:	00d76963          	bltu	a4,a3,3afe <f_mkfs+0x106>
    3af0:	46b9                	li	a3,14
    3af2:	8536                	mv	a0,a3
    3af4:	6121                	addi	sp,sp,64
    3af6:	f06fc06f          	j	1fc <__riscv_restore_12>
    3afa:	4481                	li	s1,0
    3afc:	b76d                	j	3aa6 <f_mkfs+0xae>
    3afe:	66c1                	lui	a3,0x10
    3b00:	1ff68693          	addi	a3,a3,511 # 101ff <_data_lma+0xa697>
    3b04:	08000713          	li	a4,128
    3b08:	0096e463          	bltu	a3,s1,3b10 <f_mkfs+0x118>
    3b0c:	0094d713          	srli	a4,s1,0x9
    3b10:	00247593          	andi	a1,s0,2
    3b14:	8805                	andi	s0,s0,1
    3b16:	c5e1                	beqz	a1,3bde <f_mkfs+0x1e6>
    3b18:	00143413          	seqz	s0,s0
    3b1c:	0409                	addi	s0,s0,2
    3b1e:	cc2e                	sw	a1,24(sp)
    3b20:	c83a                	sw	a4,16(sp)
    3b22:	cfffe0ef          	jal	ra,2820 <get_fattime>
    3b26:	c62a                	sw	a0,12(sp)
    3b28:	460d                	li	a2,3
    3b2a:	56c2                	lw	a3,48(sp)
    3b2c:	4742                	lw	a4,16(sp)
    3b2e:	45e2                	lw	a1,24(sp)
    3b30:	10c41163          	bne	s0,a2,3c32 <f_mkfs+0x23a>
    3b34:	853a                	mv	a0,a4
    3b36:	ef09                	bnez	a4,3b50 <f_mkfs+0x158>
    3b38:	6619                	lui	a2,0x6
    3b3a:	0116d893          	srli	a7,a3,0x11
    3b3e:	96860613          	addi	a2,a2,-1688 # 5968 <cst32.6296>
    3b42:	4705                	li	a4,1
    3b44:	220a                	lhu	a0,0(a2)
    3b46:	c501                	beqz	a0,3b4e <f_mkfs+0x156>
    3b48:	0609                	addi	a2,a2,2
    3b4a:	08a8fe63          	bgeu	a7,a0,3be6 <f_mkfs+0x1ee>
    3b4e:	4501                	li	a0,0
    3b50:	02e6d633          	divu	a2,a3,a4
    3b54:	78c1                	lui	a7,0xffff0
    3b56:	08a9                	addi	a7,a7,10
    3b58:	00261413          	slli	s0,a2,0x2
    3b5c:	20740413          	addi	s0,s0,519
    3b60:	9646                	add	a2,a2,a7
    3b62:	0fff08b7          	lui	a7,0xfff0
    3b66:	8025                	srli	s0,s0,0x9
    3b68:	f91674e3          	bgeu	a2,a7,3af0 <f_mkfs+0xf8>
    3b6c:	84ba                	mv	s1,a4
    3b6e:	4c01                	li	s8,0
    3b70:	872a                	mv	a4,a0
    3b72:	02000893          	li	a7,32
    3b76:	498d                	li	s3,3
    3b78:	03740533          	mul	a0,s0,s7
    3b7c:	5332                	lw	t1,44(sp)
    3b7e:	011b0a33          	add	s4,s6,a7
    3b82:	fff30613          	addi	a2,t1,-1
    3b86:	40600333          	neg	t1,t1
    3b8a:	9552                	add	a0,a0,s4
    3b8c:	9562                	add	a0,a0,s8
    3b8e:	962a                	add	a2,a2,a0
    3b90:	00667633          	and	a2,a2,t1
    3b94:	430d                	li	t1,3
    3b96:	8e09                	sub	a2,a2,a0
    3b98:	06699363          	bne	s3,t1,3bfe <f_mkfs+0x206>
    3b9c:	98b2                	add	a7,a7,a2
    3b9e:	9a32                	add	s4,s4,a2
    3ba0:	00449613          	slli	a2,s1,0x4
    3ba4:	41660633          	sub	a2,a2,s6
    3ba8:	9532                	add	a0,a0,a2
    3baa:	f4a6e3e3          	bltu	a3,a0,3af0 <f_mkfs+0xf8>
    3bae:	03740633          	mul	a2,s0,s7
    3bb2:	41868ab3          	sub	s5,a3,s8
    3bb6:	411a8ab3          	sub	s5,s5,a7
    3bba:	40ca8ab3          	sub	s5,s5,a2
    3bbe:	460d                	li	a2,3
    3bc0:	029adab3          	divu	s5,s5,s1
    3bc4:	04c99863          	bne	s3,a2,3c14 <f_mkfs+0x21c>
    3bc8:	6641                	lui	a2,0x10
    3bca:	1655                	addi	a2,a2,-11
    3bcc:	0d566463          	bltu	a2,s5,3c94 <f_mkfs+0x29c>
    3bd0:	f305                	bnez	a4,3af0 <f_mkfs+0xf8>
    3bd2:	4705                	li	a4,1
    3bd4:	f0977ee3          	bgeu	a4,s1,3af0 <f_mkfs+0xf8>
    3bd8:	0014d713          	srli	a4,s1,0x1
    3bdc:	bfa1                	j	3b34 <f_mkfs+0x13c>
    3bde:	46cd                	li	a3,19
    3be0:	d809                	beqz	s0,3af2 <f_mkfs+0xfa>
    3be2:	4409                	li	s0,2
    3be4:	bf2d                	j	3b1e <f_mkfs+0x126>
    3be6:	0706                	slli	a4,a4,0x1
    3be8:	bfb1                	j	3b44 <f_mkfs+0x14c>
    3bea:	0486                	slli	s1,s1,0x1
    3bec:	a899                	j	3c42 <f_mkfs+0x24a>
    3bee:	460d                	li	a2,3
    3bf0:	02c40433          	mul	s0,s0,a2
    3bf4:	4985                	li	s3,1
    3bf6:	0405                	addi	s0,s0,1
    3bf8:	8005                	srli	s0,s0,0x1
    3bfa:	040d                	addi	s0,s0,3
    3bfc:	a08d                	j	3c5e <f_mkfs+0x266>
    3bfe:	03767333          	remu	t1,a2,s7
    3c02:	00030563          	beqz	t1,3c0c <f_mkfs+0x214>
    3c06:	167d                	addi	a2,a2,-1
    3c08:	0885                	addi	a7,a7,1
    3c0a:	0a05                	addi	s4,s4,1
    3c0c:	03765633          	divu	a2,a2,s7
    3c10:	9432                	add	s0,s0,a2
    3c12:	b779                	j	3ba0 <f_mkfs+0x1a8>
    3c14:	4609                	li	a2,2
    3c16:	06c99a63          	bne	s3,a2,3c8a <f_mkfs+0x292>
    3c1a:	6641                	lui	a2,0x10
    3c1c:	1655                	addi	a2,a2,-11
    3c1e:	05567963          	bgeu	a2,s5,3c70 <f_mkfs+0x278>
    3c22:	4a071363          	bnez	a4,40c8 <f_mkfs+0x6d0>
    3c26:	00149713          	slli	a4,s1,0x1
    3c2a:	04000613          	li	a2,64
    3c2e:	4ae66063          	bltu	a2,a4,40ce <f_mkfs+0x6d6>
    3c32:	84ba                	mv	s1,a4
    3c34:	ef01                	bnez	a4,3c4c <f_mkfs+0x254>
    3c36:	6619                	lui	a2,0x6
    3c38:	00c6d893          	srli	a7,a3,0xc
    3c3c:	95860613          	addi	a2,a2,-1704 # 5958 <cst.6295>
    3c40:	4485                	li	s1,1
    3c42:	220a                	lhu	a0,0(a2)
    3c44:	c501                	beqz	a0,3c4c <f_mkfs+0x254>
    3c46:	0609                	addi	a2,a2,2
    3c48:	faa8f1e3          	bgeu	a7,a0,3bea <f_mkfs+0x1f2>
    3c4c:	0296d433          	divu	s0,a3,s1
    3c50:	6605                	lui	a2,0x1
    3c52:	1655                	addi	a2,a2,-11
    3c54:	f8867de3          	bgeu	a2,s0,3bee <f_mkfs+0x1f6>
    3c58:	0409                	addi	s0,s0,2
    3c5a:	0406                	slli	s0,s0,0x1
    3c5c:	4989                	li	s3,2
    3c5e:	1ff40413          	addi	s0,s0,511
    3c62:	005d9c13          	slli	s8,s11,0x5
    3c66:	8025                	srli	s0,s0,0x9
    3c68:	009c5c13          	srli	s8,s8,0x9
    3c6c:	4885                	li	a7,1
    3c6e:	b729                	j	3b78 <f_mkfs+0x180>
    3c70:	6605                	lui	a2,0x1
    3c72:	1655                	addi	a2,a2,-11
    3c74:	03566063          	bltu	a2,s5,3c94 <f_mkfs+0x29c>
    3c78:	e6071ce3          	bnez	a4,3af0 <f_mkfs+0xf8>
    3c7c:	00149713          	slli	a4,s1,0x1
    3c80:	08000613          	li	a2,128
    3c84:	fae677e3          	bgeu	a2,a4,3c32 <f_mkfs+0x23a>
    3c88:	b5a5                	j	3af0 <f_mkfs+0xf8>
    3c8a:	6705                	lui	a4,0x1
    3c8c:	1755                	addi	a4,a4,-11
    3c8e:	e75761e3          	bltu	a4,s5,3af0 <f_mkfs+0xf8>
    3c92:	4985                	li	s3,1
    3c94:	20000613          	li	a2,512
    3c98:	4581                	li	a1,0
    3c9a:	8566                	mv	a0,s9
    3c9c:	cc36                	sw	a3,24(sp)
    3c9e:	c846                	sw	a7,16(sp)
    3ca0:	d80fc0ef          	jal	ra,220 <memset>
    3ca4:	000065b7          	lui	a1,0x6
    3ca8:	462d                	li	a2,11
    3caa:	98858593          	addi	a1,a1,-1656 # 5988 <defopt.6297+0x10>
    3cae:	8566                	mv	a0,s9
    3cb0:	141000ef          	jal	ra,45f0 <memcpy>
    3cb4:	48c2                	lw	a7,16(sp)
    3cb6:	4709                	li	a4,2
    3cb8:	00ec8623          	sb	a4,12(s9)
    3cbc:	011c8723          	sb	a7,14(s9)
    3cc0:	08c2                	slli	a7,a7,0x10
    3cc2:	0108d893          	srli	a7,a7,0x10
    3cc6:	0088d893          	srli	a7,a7,0x8
    3cca:	000c85a3          	sb	zero,11(s9)
    3cce:	009c86a3          	sb	s1,13(s9)
    3cd2:	011c87a3          	sb	a7,15(s9)
    3cd6:	017c8823          	sb	s7,16(s9)
    3cda:	470d                	li	a4,3
    3cdc:	46e2                	lw	a3,24(sp)
    3cde:	00e99363          	bne	s3,a4,3ce4 <f_mkfs+0x2ec>
    3ce2:	4d81                	li	s11,0
    3ce4:	010d9813          	slli	a6,s11,0x10
    3ce8:	01085813          	srli	a6,a6,0x10
    3cec:	00885813          	srli	a6,a6,0x8
    3cf0:	01bc88a3          	sb	s11,17(s9)
    3cf4:	010c8923          	sb	a6,18(s9)
    3cf8:	6741                	lui	a4,0x10
    3cfa:	0ce6f263          	bgeu	a3,a4,3dbe <f_mkfs+0x3c6>
    3cfe:	01069713          	slli	a4,a3,0x10
    3d02:	8341                	srli	a4,a4,0x10
    3d04:	8321                	srli	a4,a4,0x8
    3d06:	00dc89a3          	sb	a3,19(s9)
    3d0a:	00ec8a23          	sb	a4,20(s9)
    3d0e:	5761                	li	a4,-8
    3d10:	47b2                	lw	a5,12(sp)
    3d12:	00ec8aa3          	sb	a4,21(s9)
    3d16:	03f00713          	li	a4,63
    3d1a:	00ec8c23          	sb	a4,24(s9)
    3d1e:	577d                	li	a4,-1
    3d20:	00ec8d23          	sb	a4,26(s9)
    3d24:	85da                	mv	a1,s6
    3d26:	000c8ca3          	sb	zero,25(s9)
    3d2a:	000c8da3          	sb	zero,27(s9)
    3d2e:	01cc8513          	addi	a0,s9,28
    3d32:	00d78db3          	add	s11,a5,a3
    3d36:	b05fe0ef          	jal	ra,283a <st_dword>
    3d3a:	470d                	li	a4,3
    3d3c:	85ee                	mv	a1,s11
    3d3e:	08e99863          	bne	s3,a4,3dce <f_mkfs+0x3d6>
    3d42:	043c8513          	addi	a0,s9,67
    3d46:	af5fe0ef          	jal	ra,283a <st_dword>
    3d4a:	85a2                	mv	a1,s0
    3d4c:	024c8513          	addi	a0,s9,36
    3d50:	aebfe0ef          	jal	ra,283a <st_dword>
    3d54:	4709                	li	a4,2
    3d56:	02ec8623          	sb	a4,44(s9)
    3d5a:	4705                	li	a4,1
    3d5c:	02ec8823          	sb	a4,48(s9)
    3d60:	4719                	li	a4,6
    3d62:	02ec8923          	sb	a4,50(s9)
    3d66:	f8000713          	li	a4,-128
    3d6a:	04ec8023          	sb	a4,64(s9)
    3d6e:	000065b7          	lui	a1,0x6
    3d72:	02900713          	li	a4,41
    3d76:	020c86a3          	sb	zero,45(s9)
    3d7a:	020c8723          	sb	zero,46(s9)
    3d7e:	020c87a3          	sb	zero,47(s9)
    3d82:	020c88a3          	sb	zero,49(s9)
    3d86:	020c89a3          	sb	zero,51(s9)
    3d8a:	04ec8123          	sb	a4,66(s9)
    3d8e:	464d                	li	a2,19
    3d90:	99458593          	addi	a1,a1,-1644 # 5994 <defopt.6297+0x1c>
    3d94:	047c8513          	addi	a0,s9,71
    3d98:	059000ef          	jal	ra,45f0 <memcpy>
    3d9c:	05500d93          	li	s11,85
    3da0:	faa00793          	li	a5,-86
    3da4:	1fbc8f23          	sb	s11,510(s9)
    3da8:	1efc8fa3          	sb	a5,511(s9)
    3dac:	4685                	li	a3,1
    3dae:	865a                	mv	a2,s6
    3db0:	85e6                	mv	a1,s9
    3db2:	854a                	mv	a0,s2
    3db4:	a13fe0ef          	jal	ra,27c6 <disk_write>
    3db8:	c539                	beqz	a0,3e06 <f_mkfs+0x40e>
    3dba:	4685                	li	a3,1
    3dbc:	bb1d                	j	3af2 <f_mkfs+0xfa>
    3dbe:	85b6                	mv	a1,a3
    3dc0:	020c8513          	addi	a0,s9,32
    3dc4:	c836                	sw	a3,16(sp)
    3dc6:	a75fe0ef          	jal	ra,283a <st_dword>
    3dca:	46c2                	lw	a3,16(sp)
    3dcc:	b789                	j	3d0e <f_mkfs+0x316>
    3dce:	027c8513          	addi	a0,s9,39
    3dd2:	a69fe0ef          	jal	ra,283a <st_dword>
    3dd6:	01041713          	slli	a4,s0,0x10
    3dda:	8341                	srli	a4,a4,0x10
    3ddc:	8321                	srli	a4,a4,0x8
    3dde:	00ec8ba3          	sb	a4,23(s9)
    3de2:	f8000713          	li	a4,-128
    3de6:	02ec8223          	sb	a4,36(s9)
    3dea:	000065b7          	lui	a1,0x6
    3dee:	02900713          	li	a4,41
    3df2:	008c8b23          	sb	s0,22(s9)
    3df6:	02ec8323          	sb	a4,38(s9)
    3dfa:	464d                	li	a2,19
    3dfc:	9a858593          	addi	a1,a1,-1624 # 59a8 <defopt.6297+0x30>
    3e00:	02bc8513          	addi	a0,s9,43
    3e04:	bf51                	j	3d98 <f_mkfs+0x3a0>
    3e06:	470d                	li	a4,3
    3e08:	08e99a63          	bne	s3,a4,3e9c <f_mkfs+0x4a4>
    3e0c:	4685                	li	a3,1
    3e0e:	006b0613          	addi	a2,s6,6
    3e12:	85e6                	mv	a1,s9
    3e14:	854a                	mv	a0,s2
    3e16:	9b1fe0ef          	jal	ra,27c6 <disk_write>
    3e1a:	20000613          	li	a2,512
    3e1e:	4581                	li	a1,0
    3e20:	8566                	mv	a0,s9
    3e22:	bfefc0ef          	jal	ra,220 <memset>
    3e26:	05200713          	li	a4,82
    3e2a:	04100693          	li	a3,65
    3e2e:	07200613          	li	a2,114
    3e32:	00ec8023          	sb	a4,0(s9)
    3e36:	00ec80a3          	sb	a4,1(s9)
    3e3a:	06100713          	li	a4,97
    3e3e:	00ec8123          	sb	a4,2(s9)
    3e42:	00dc81a3          	sb	a3,3(s9)
    3e46:	1ecc8223          	sb	a2,484(s9)
    3e4a:	1ecc82a3          	sb	a2,485(s9)
    3e4e:	1edc8323          	sb	a3,486(s9)
    3e52:	1eec83a3          	sb	a4,487(s9)
    3e56:	fffa8593          	addi	a1,s5,-1
    3e5a:	1e8c8513          	addi	a0,s9,488
    3e5e:	9ddfe0ef          	jal	ra,283a <st_dword>
    3e62:	4709                	li	a4,2
    3e64:	faa00793          	li	a5,-86
    3e68:	4685                	li	a3,1
    3e6a:	007b0613          	addi	a2,s6,7
    3e6e:	85e6                	mv	a1,s9
    3e70:	1eec8623          	sb	a4,492(s9)
    3e74:	1e0c86a3          	sb	zero,493(s9)
    3e78:	1e0c8723          	sb	zero,494(s9)
    3e7c:	1e0c87a3          	sb	zero,495(s9)
    3e80:	1fbc8f23          	sb	s11,510(s9)
    3e84:	1efc8fa3          	sb	a5,511(s9)
    3e88:	854a                	mv	a0,s2
    3e8a:	93dfe0ef          	jal	ra,27c6 <disk_write>
    3e8e:	4685                	li	a3,1
    3e90:	001b0613          	addi	a2,s6,1
    3e94:	85e6                	mv	a1,s9
    3e96:	854a                	mv	a0,s2
    3e98:	92ffe0ef          	jal	ra,27c6 <disk_write>
    3e9c:	e00d7613          	andi	a2,s10,-512
    3ea0:	4581                	li	a1,0
    3ea2:	8566                	mv	a0,s9
    3ea4:	b7cfc0ef          	jal	ra,220 <memset>
    3ea8:	57e1                	li	a5,-8
    3eaa:	4705                	li	a4,1
    3eac:	c83e                	sw	a5,16(sp)
    3eae:	009d5a93          	srli	s5,s10,0x9
    3eb2:	00e99763          	bne	s3,a4,3ec0 <f_mkfs+0x4c8>
    3eb6:	01000b37          	lui	s6,0x1000
    3eba:	ff8b0793          	addi	a5,s6,-8 # fffff8 <_data_lma+0xffa490>
    3ebe:	c83e                	sw	a5,16(sp)
    3ec0:	c602                	sw	zero,12(sp)
    3ec2:	5dfd                	li	s11,-1
    3ec4:	478d                	li	a5,3
    3ec6:	1af99863          	bne	s3,a5,4076 <f_mkfs+0x67e>
    3eca:	57e1                	li	a5,-8
    3ecc:	00fc8023          	sb	a5,0(s9)
    3ed0:	47bd                	li	a5,15
    3ed2:	01bc80a3          	sb	s11,1(s9)
    3ed6:	01bc8123          	sb	s11,2(s9)
    3eda:	01bc81a3          	sb	s11,3(s9)
    3ede:	01bc8223          	sb	s11,4(s9)
    3ee2:	01bc82a3          	sb	s11,5(s9)
    3ee6:	01bc8323          	sb	s11,6(s9)
    3eea:	01bc83a3          	sb	s11,7(s9)
    3eee:	01bc8423          	sb	s11,8(s9)
    3ef2:	01bc84a3          	sb	s11,9(s9)
    3ef6:	01bc8523          	sb	s11,10(s9)
    3efa:	00fc85a3          	sb	a5,11(s9)
    3efe:	8d22                	mv	s10,s0
    3f00:	8b6a                	mv	s6,s10
    3f02:	01aaf363          	bgeu	s5,s10,3f08 <f_mkfs+0x510>
    3f06:	8b56                	mv	s6,s5
    3f08:	86da                	mv	a3,s6
    3f0a:	8652                	mv	a2,s4
    3f0c:	85e6                	mv	a1,s9
    3f0e:	854a                	mv	a0,s2
    3f10:	8b7fe0ef          	jal	ra,27c6 <disk_write>
    3f14:	ea0513e3          	bnez	a0,3dba <f_mkfs+0x3c2>
    3f18:	20000613          	li	a2,512
    3f1c:	4581                	li	a1,0
    3f1e:	8566                	mv	a0,s9
    3f20:	416d0d33          	sub	s10,s10,s6
    3f24:	afcfc0ef          	jal	ra,220 <memset>
    3f28:	9a5a                	add	s4,s4,s6
    3f2a:	fc0d1be3          	bnez	s10,3f00 <f_mkfs+0x508>
    3f2e:	47b2                	lw	a5,12(sp)
    3f30:	00178693          	addi	a3,a5,1
    3f34:	4785                	li	a5,1
    3f36:	c63e                	sw	a5,12(sp)
    3f38:	f976e6e3          	bltu	a3,s7,3ec4 <f_mkfs+0x4cc>
    3f3c:	470d                	li	a4,3
    3f3e:	00e98363          	beq	s3,a4,3f44 <f_mkfs+0x54c>
    3f42:	84e2                	mv	s1,s8
    3f44:	8426                	mv	s0,s1
    3f46:	009af363          	bgeu	s5,s1,3f4c <f_mkfs+0x554>
    3f4a:	8456                	mv	s0,s5
    3f4c:	86a2                	mv	a3,s0
    3f4e:	8652                	mv	a2,s4
    3f50:	85e6                	mv	a1,s9
    3f52:	854a                	mv	a0,s2
    3f54:	873fe0ef          	jal	ra,27c6 <disk_write>
    3f58:	e60511e3          	bnez	a0,3dba <f_mkfs+0x3c2>
    3f5c:	8c81                	sub	s1,s1,s0
    3f5e:	9a22                	add	s4,s4,s0
    3f60:	f0f5                	bnez	s1,3f44 <f_mkfs+0x54c>
    3f62:	470d                	li	a4,3
    3f64:	4ab1                	li	s5,12
    3f66:	00e98c63          	beq	s3,a4,3f7e <f_mkfs+0x586>
    3f6a:	56c2                	lw	a3,48(sp)
    3f6c:	6741                	lui	a4,0x10
    3f6e:	4a99                	li	s5,6
    3f70:	00e6f763          	bgeu	a3,a4,3f7e <f_mkfs+0x586>
    3f74:	4709                	li	a4,2
    3f76:	4a91                	li	s5,4
    3f78:	00e98363          	beq	s3,a4,3f7e <f_mkfs+0x586>
    3f7c:	4a85                	li	s5,1
    3f7e:	47d2                	lw	a5,20(sp)
    3f80:	12079c63          	bnez	a5,40b8 <f_mkfs+0x6c0>
    3f84:	5742                	lw	a4,48(sp)
    3f86:	1850                	addi	a2,sp,52
    3f88:	4585                	li	a1,1
    3f8a:	854a                	mv	a0,s2
    3f8c:	dc3a                	sw	a4,56(sp)
    3f8e:	de02                	sw	zero,60(sp)
    3f90:	857fe0ef          	jal	ra,27e6 <disk_ioctl>
    3f94:	e20513e3          	bnez	a0,3dba <f_mkfs+0x3c2>
    3f98:	5b52                	lw	s6,52(sp)
    3f9a:	6741                	lui	a4,0x10
    3f9c:	4695                	li	a3,5
    3f9e:	49a1                	li	s3,8
    3fa0:	c3e70713          	addi	a4,a4,-962 # fc3e <_data_lma+0xa0d6>
    3fa4:	033b5633          	divu	a2,s6,s3
    3fa8:	0cc76c63          	bltu	a4,a2,4080 <f_mkfs+0x688>
    3fac:	06400c13          	li	s8,100
    3fb0:	038b5c33          	divu	s8,s6,s8
    3fb4:	20000613          	li	a2,512
    3fb8:	4581                	li	a1,0
    3fba:	8566                	mv	a0,s9
    3fbc:	a64fc0ef          	jal	ra,220 <memset>
    3fc0:	1c6c8413          	addi	s0,s9,454
    3fc4:	183c                	addi	a5,sp,56
    3fc6:	1f6c8d93          	addi	s11,s9,502
    3fca:	03f00493          	li	s1,63
    3fce:	06400d13          	li	s10,100
    3fd2:	03f00b93          	li	s7,63
    3fd6:	0d64f163          	bgeu	s1,s6,4098 <f_mkfs+0x6a0>
    3fda:	0007aa03          	lw	s4,0(a5)
    3fde:	014d6663          	bltu	s10,s4,3fea <f_mkfs+0x5f2>
    3fe2:	0baa0763          	beq	s4,s10,4090 <f_mkfs+0x698>
    3fe6:	038a0a33          	mul	s4,s4,s8
    3fea:	009a0733          	add	a4,s4,s1
    3fee:	00eb6463          	bltu	s6,a4,3ff6 <f_mkfs+0x5fe>
    3ff2:	0a977163          	bgeu	a4,s1,4094 <f_mkfs+0x69c>
    3ff6:	409b0a33          	sub	s4,s6,s1
    3ffa:	85a6                	mv	a1,s1
    3ffc:	8522                	mv	a0,s0
    3ffe:	c63e                	sw	a5,12(sp)
    4000:	83bfe0ef          	jal	ra,283a <st_dword>
    4004:	85d2                	mv	a1,s4
    4006:	00440513          	addi	a0,s0,4
    400a:	831fe0ef          	jal	ra,283a <st_dword>
    400e:	0374d733          	divu	a4,s1,s7
    4012:	ff540e23          	sb	s5,-4(s0)
    4016:	03375633          	divu	a2,a4,s3
    401a:	03377733          	remu	a4,a4,s3
    401e:	00265693          	srli	a3,a2,0x2
    4022:	fc06f693          	andi	a3,a3,-64
    4026:	fec40da3          	sb	a2,-5(s0)
    402a:	fee40ca3          	sb	a4,-7(s0)
    402e:	0374f733          	remu	a4,s1,s7
    4032:	94d2                	add	s1,s1,s4
    4034:	0705                	addi	a4,a4,1
    4036:	8f55                	or	a4,a4,a3
    4038:	fee40d23          	sb	a4,-6(s0)
    403c:	fff48713          	addi	a4,s1,-1
    4040:	037756b3          	divu	a3,a4,s7
    4044:	0336d633          	divu	a2,a3,s3
    4048:	0336f6b3          	remu	a3,a3,s3
    404c:	fec40fa3          	sb	a2,-1(s0)
    4050:	03777733          	remu	a4,a4,s7
    4054:	fed40ea3          	sb	a3,-3(s0)
    4058:	00265693          	srli	a3,a2,0x2
    405c:	fc06f693          	andi	a3,a3,-64
    4060:	0705                	addi	a4,a4,1
    4062:	8f55                	or	a4,a4,a3
    4064:	fee40f23          	sb	a4,-2(s0)
    4068:	028d8863          	beq	s11,s0,4098 <f_mkfs+0x6a0>
    406c:	47b2                	lw	a5,12(sp)
    406e:	0441                	addi	s0,s0,16
    4070:	0791                	addi	a5,a5,4
    4072:	f0b5                	bnez	s1,3fd6 <f_mkfs+0x5de>
    4074:	a015                	j	4098 <f_mkfs+0x6a0>
    4076:	45c2                	lw	a1,16(sp)
    4078:	8566                	mv	a0,s9
    407a:	fc0fe0ef          	jal	ra,283a <st_dword>
    407e:	b541                	j	3efe <f_mkfs+0x506>
    4080:	0986                	slli	s3,s3,0x1
    4082:	16fd                	addi	a3,a3,-1
    4084:	0ff9f993          	andi	s3,s3,255
    4088:	fe91                	bnez	a3,3fa4 <f_mkfs+0x5ac>
    408a:	0ff00993          	li	s3,255
    408e:	bf39                	j	3fac <f_mkfs+0x5b4>
    4090:	8a5a                	mv	s4,s6
    4092:	bfa1                	j	3fea <f_mkfs+0x5f2>
    4094:	f60a13e3          	bnez	s4,3ffa <f_mkfs+0x602>
    4098:	05500713          	li	a4,85
    409c:	1eec8f23          	sb	a4,510(s9)
    40a0:	faa00713          	li	a4,-86
    40a4:	1eec8fa3          	sb	a4,511(s9)
    40a8:	4685                	li	a3,1
    40aa:	4601                	li	a2,0
    40ac:	85e6                	mv	a1,s9
    40ae:	854a                	mv	a0,s2
    40b0:	f16fe0ef          	jal	ra,27c6 <disk_write>
    40b4:	d00513e3          	bnez	a0,3dba <f_mkfs+0x3c2>
    40b8:	4601                	li	a2,0
    40ba:	4581                	li	a1,0
    40bc:	854a                	mv	a0,s2
    40be:	f28fe0ef          	jal	ra,27e6 <disk_ioctl>
    40c2:	00a036b3          	snez	a3,a0
    40c6:	b435                	j	3af2 <f_mkfs+0xfa>
    40c8:	a60596e3          	bnez	a1,3b34 <f_mkfs+0x13c>
    40cc:	b415                	j	3af0 <f_mkfs+0xf8>
    40ce:	a60595e3          	bnez	a1,3b38 <f_mkfs+0x140>
    40d2:	08000613          	li	a2,128
    40d6:	84ba                	mv	s1,a4
    40d8:	b6e67ae3          	bgeu	a2,a4,3c4c <f_mkfs+0x254>
    40dc:	bc11                	j	3af0 <f_mkfs+0xf8>

000040de <Delay_Init>:
    40de:	8081a783          	lw	a5,-2040(gp) # 20000088 <SystemCoreClock>
    40e2:	007a1737          	lui	a4,0x7a1
    40e6:	20070713          	addi	a4,a4,512 # 7a1200 <_data_lma+0x79b698>
    40ea:	02e7d7b3          	divu	a5,a5,a4
    40ee:	0ff7f793          	andi	a5,a5,255
    40f2:	84f18223          	sb	a5,-1980(gp) # 200000c4 <p_us>
    40f6:	3e800713          	li	a4,1000
    40fa:	02e787b3          	mul	a5,a5,a4
    40fe:	84f19123          	sh	a5,-1982(gp) # 200000c2 <p_ms>
    4102:	8082                	ret

00004104 <Delay_Ms>:
    4104:	e000f7b7          	lui	a5,0xe000f
    4108:	43d8                	lw	a4,4(a5)
    410a:	4681                	li	a3,0
    410c:	9b79                	andi	a4,a4,-2
    410e:	c3d8                	sw	a4,4(a5)
    4110:	8421d703          	lhu	a4,-1982(gp) # 200000c2 <p_ms>
    4114:	02a70633          	mul	a2,a4,a0
    4118:	cb90                	sw	a2,16(a5)
    411a:	cbd4                	sw	a3,20(a5)
    411c:	4398                	lw	a4,0(a5)
    411e:	01076713          	ori	a4,a4,16
    4122:	c398                	sw	a4,0(a5)
    4124:	4398                	lw	a4,0(a5)
    4126:	02176713          	ori	a4,a4,33
    412a:	c398                	sw	a4,0(a5)
    412c:	43d8                	lw	a4,4(a5)
    412e:	8b05                	andi	a4,a4,1
    4130:	df75                	beqz	a4,412c <Delay_Ms+0x28>
    4132:	4398                	lw	a4,0(a5)
    4134:	9b79                	andi	a4,a4,-2
    4136:	c398                	sw	a4,0(a5)
    4138:	8082                	ret

0000413a <USART_Printf_Init>:
    413a:	8b6fc2ef          	jal	t0,1f0 <__riscv_save_0>
    413e:	842a                	mv	s0,a0
    4140:	6511                	lui	a0,0x4
    4142:	1101                	addi	sp,sp,-32
    4144:	4585                	li	a1,1
    4146:	0511                	addi	a0,a0,4
    4148:	c54fe0ef          	jal	ra,259c <RCC_APB2PeriphClockCmd>
    414c:	20000793          	li	a5,512
    4150:	827c                	sh	a5,4(sp)
    4152:	40011537          	lui	a0,0x40011
    4156:	478d                	li	a5,3
    4158:	c43e                	sw	a5,8(sp)
    415a:	004c                	addi	a1,sp,4
    415c:	47e1                	li	a5,24
    415e:	80050513          	addi	a0,a0,-2048 # 40010800 <_eusrstack+0x20008800>
    4162:	c63e                	sw	a5,12(sp)
    4164:	97cfe0ef          	jal	ra,22e0 <GPIO_Init>
    4168:	c822                	sw	s0,16(sp)
    416a:	40014437          	lui	s0,0x40014
    416e:	000807b7          	lui	a5,0x80
    4172:	080c                	addi	a1,sp,16
    4174:	80040513          	addi	a0,s0,-2048 # 40013800 <_eusrstack+0x2000b800>
    4178:	cc3e                	sw	a5,24(sp)
    417a:	ca02                	sw	zero,20(sp)
    417c:	00011e23          	sh	zero,28(sp)
    4180:	d4cfe0ef          	jal	ra,26cc <USART_Init>
    4184:	4585                	li	a1,1
    4186:	80040513          	addi	a0,s0,-2048
    418a:	dd2fe0ef          	jal	ra,275c <USART_Cmd>
    418e:	6105                	addi	sp,sp,32
    4190:	884fc06f          	j	214 <__riscv_restore_0>

00004194 <_write>:
    4194:	842fc2ef          	jal	t0,1d6 <__riscv_save_4>
    4198:	400144b7          	lui	s1,0x40014
    419c:	89ae                	mv	s3,a1
    419e:	8932                	mv	s2,a2
    41a0:	4401                	li	s0,0
    41a2:	80048493          	addi	s1,s1,-2048 # 40013800 <_eusrstack+0x2000b800>
    41a6:	01244563          	blt	s0,s2,41b0 <_write+0x1c>
    41aa:	854a                	mv	a0,s2
    41ac:	85efc06f          	j	20a <__riscv_restore_4>
    41b0:	04000593          	li	a1,64
    41b4:	8526                	mv	a0,s1
    41b6:	dc4fe0ef          	jal	ra,277a <USART_GetFlagStatus>
    41ba:	d97d                	beqz	a0,41b0 <_write+0x1c>
    41bc:	008987b3          	add	a5,s3,s0
    41c0:	00078583          	lb	a1,0(a5) # 80000 <_data_lma+0x7a498>
    41c4:	8526                	mv	a0,s1
    41c6:	0405                	addi	s0,s0,1
    41c8:	05c2                	slli	a1,a1,0x10
    41ca:	81c1                	srli	a1,a1,0x10
    41cc:	da6fe0ef          	jal	ra,2772 <USART_SendData>
    41d0:	bfd9                	j	41a6 <_write+0x12>

000041d2 <_sbrk>:
    41d2:	81018713          	addi	a4,gp,-2032 # 20000090 <curbrk.5274>
    41d6:	431c                	lw	a5,0(a4)
    41d8:	17418693          	addi	a3,gp,372 # 200009f4 <_ebss>
    41dc:	953e                	add	a0,a0,a5
    41de:	00d56b63          	bltu	a0,a3,41f4 <_sbrk+0x22>
    41e2:	200086b7          	lui	a3,0x20008
    41e6:	80068693          	addi	a3,a3,-2048 # 20007800 <_heap_end>
    41ea:	00a6e563          	bltu	a3,a0,41f4 <_sbrk+0x22>
    41ee:	c308                	sw	a0,0(a4)
    41f0:	853e                	mv	a0,a5
    41f2:	8082                	ret
    41f4:	57fd                	li	a5,-1
    41f6:	bfed                	j	41f0 <_sbrk+0x1e>

000041f8 <__divdi3>:
    41f8:	4801                	li	a6,0
    41fa:	0e05c563          	bltz	a1,42e4 <__divdi3+0xec>
    41fe:	0006db63          	bgez	a3,4214 <__divdi3+0x1c>
    4202:	40c00633          	neg	a2,a2
    4206:	00c037b3          	snez	a5,a2
    420a:	40d006b3          	neg	a3,a3
    420e:	fff84813          	not	a6,a6
    4212:	8e9d                	sub	a3,a3,a5
    4214:	87b6                	mv	a5,a3
    4216:	8332                	mv	t1,a2
    4218:	8eaa                	mv	t4,a0
    421a:	88ae                	mv	a7,a1
    421c:	16069f63          	bnez	a3,439a <__divdi3+0x1a2>
    4220:	0cc5fb63          	bgeu	a1,a2,42f6 <__divdi3+0xfe>
    4224:	6741                	lui	a4,0x10
    4226:	1ce66f63          	bltu	a2,a4,4404 <__divdi3+0x20c>
    422a:	010007b7          	lui	a5,0x1000
    422e:	36f66363          	bltu	a2,a5,4594 <__divdi3+0x39c>
    4232:	01865693          	srli	a3,a2,0x18
    4236:	47e1                	li	a5,24
    4238:	00001717          	auipc	a4,0x1
    423c:	79470713          	addi	a4,a4,1940 # 59cc <__clz_tab>
    4240:	9736                	add	a4,a4,a3
    4242:	2318                	lbu	a4,0(a4)
    4244:	97ba                	add	a5,a5,a4
    4246:	02000713          	li	a4,32
    424a:	8f1d                	sub	a4,a4,a5
    424c:	cb19                	beqz	a4,4262 <__divdi3+0x6a>
    424e:	00e595b3          	sll	a1,a1,a4
    4252:	00f557b3          	srl	a5,a0,a5
    4256:	00e61333          	sll	t1,a2,a4
    425a:	00b7e8b3          	or	a7,a5,a1
    425e:	00e51eb3          	sll	t4,a0,a4
    4262:	01035613          	srli	a2,t1,0x10
    4266:	02c8d7b3          	divu	a5,a7,a2
    426a:	01031693          	slli	a3,t1,0x10
    426e:	82c1                	srli	a3,a3,0x10
    4270:	010ed713          	srli	a4,t4,0x10
    4274:	02c8f5b3          	remu	a1,a7,a2
    4278:	02f68533          	mul	a0,a3,a5
    427c:	05c2                	slli	a1,a1,0x10
    427e:	00e5e8b3          	or	a7,a1,a4
    4282:	00a8fa63          	bgeu	a7,a0,4296 <__divdi3+0x9e>
    4286:	989a                	add	a7,a7,t1
    4288:	fff78713          	addi	a4,a5,-1 # ffffff <_data_lma+0xffa497>
    428c:	0068e463          	bltu	a7,t1,4294 <__divdi3+0x9c>
    4290:	32a8e863          	bltu	a7,a0,45c0 <__divdi3+0x3c8>
    4294:	87ba                	mv	a5,a4
    4296:	40a888b3          	sub	a7,a7,a0
    429a:	02c8d5b3          	divu	a1,a7,a2
    429e:	0ec2                	slli	t4,t4,0x10
    42a0:	010ede93          	srli	t4,t4,0x10
    42a4:	02c8f8b3          	remu	a7,a7,a2
    42a8:	02b686b3          	mul	a3,a3,a1
    42ac:	08c2                	slli	a7,a7,0x10
    42ae:	01d8e8b3          	or	a7,a7,t4
    42b2:	00d8fb63          	bgeu	a7,a3,42c8 <__divdi3+0xd0>
    42b6:	989a                	add	a7,a7,t1
    42b8:	fff58713          	addi	a4,a1,-1
    42bc:	0068e563          	bltu	a7,t1,42c6 <__divdi3+0xce>
    42c0:	15f9                	addi	a1,a1,-2
    42c2:	00d8e363          	bltu	a7,a3,42c8 <__divdi3+0xd0>
    42c6:	85ba                	mv	a1,a4
    42c8:	01079513          	slli	a0,a5,0x10
    42cc:	8d4d                	or	a0,a0,a1
    42ce:	4581                	li	a1,0
    42d0:	00080963          	beqz	a6,42e2 <__divdi3+0xea>
    42d4:	40a00533          	neg	a0,a0
    42d8:	00a037b3          	snez	a5,a0
    42dc:	40b005b3          	neg	a1,a1
    42e0:	8d9d                	sub	a1,a1,a5
    42e2:	8082                	ret
    42e4:	40a00533          	neg	a0,a0
    42e8:	00a037b3          	snez	a5,a0
    42ec:	40b005b3          	neg	a1,a1
    42f0:	8d9d                	sub	a1,a1,a5
    42f2:	587d                	li	a6,-1
    42f4:	b729                	j	41fe <__divdi3+0x6>
    42f6:	e601                	bnez	a2,42fe <__divdi3+0x106>
    42f8:	4305                	li	t1,1
    42fa:	02d35333          	divu	t1,t1,a3
    42fe:	6741                	lui	a4,0x10
    4300:	0ee36963          	bltu	t1,a4,43f2 <__divdi3+0x1fa>
    4304:	010007b7          	lui	a5,0x1000
    4308:	28f36a63          	bltu	t1,a5,459c <__divdi3+0x3a4>
    430c:	01835693          	srli	a3,t1,0x18
    4310:	47e1                	li	a5,24
    4312:	00001717          	auipc	a4,0x1
    4316:	6ba70713          	addi	a4,a4,1722 # 59cc <__clz_tab>
    431a:	9736                	add	a4,a4,a3
    431c:	2318                	lbu	a4,0(a4)
    431e:	97ba                	add	a5,a5,a4
    4320:	02000713          	li	a4,32
    4324:	8f1d                	sub	a4,a4,a5
    4326:	eb65                	bnez	a4,4416 <__divdi3+0x21e>
    4328:	01031893          	slli	a7,t1,0x10
    432c:	406586b3          	sub	a3,a1,t1
    4330:	01035f13          	srli	t5,t1,0x10
    4334:	0108d893          	srli	a7,a7,0x10
    4338:	4585                	li	a1,1
    433a:	010ed713          	srli	a4,t4,0x10
    433e:	03e6d7b3          	divu	a5,a3,t5
    4342:	03e6f6b3          	remu	a3,a3,t5
    4346:	03178633          	mul	a2,a5,a7
    434a:	06c2                	slli	a3,a3,0x10
    434c:	8f55                	or	a4,a4,a3
    434e:	00c77a63          	bgeu	a4,a2,4362 <__divdi3+0x16a>
    4352:	971a                	add	a4,a4,t1
    4354:	fff78693          	addi	a3,a5,-1 # ffffff <_data_lma+0xffa497>
    4358:	00676463          	bltu	a4,t1,4360 <__divdi3+0x168>
    435c:	26c76563          	bltu	a4,a2,45c6 <__divdi3+0x3ce>
    4360:	87b6                	mv	a5,a3
    4362:	8f11                	sub	a4,a4,a2
    4364:	03e756b3          	divu	a3,a4,t5
    4368:	0ec2                	slli	t4,t4,0x10
    436a:	010ede93          	srli	t4,t4,0x10
    436e:	03e77733          	remu	a4,a4,t5
    4372:	031688b3          	mul	a7,a3,a7
    4376:	0742                	slli	a4,a4,0x10
    4378:	01d76733          	or	a4,a4,t4
    437c:	01177b63          	bgeu	a4,a7,4392 <__divdi3+0x19a>
    4380:	971a                	add	a4,a4,t1
    4382:	fff68613          	addi	a2,a3,-1
    4386:	00676563          	bltu	a4,t1,4390 <__divdi3+0x198>
    438a:	16f9                	addi	a3,a3,-2
    438c:	01176363          	bltu	a4,a7,4392 <__divdi3+0x19a>
    4390:	86b2                	mv	a3,a2
    4392:	01079513          	slli	a0,a5,0x10
    4396:	8d55                	or	a0,a0,a3
    4398:	bf25                	j	42d0 <__divdi3+0xd8>
    439a:	04d5e163          	bltu	a1,a3,43dc <__divdi3+0x1e4>
    439e:	67c1                	lui	a5,0x10
    43a0:	04f6e163          	bltu	a3,a5,43e2 <__divdi3+0x1ea>
    43a4:	010007b7          	lui	a5,0x1000
    43a8:	1ef6e263          	bltu	a3,a5,458c <__divdi3+0x394>
    43ac:	0186d893          	srli	a7,a3,0x18
    43b0:	4761                	li	a4,24
    43b2:	00001797          	auipc	a5,0x1
    43b6:	61a78793          	addi	a5,a5,1562 # 59cc <__clz_tab>
    43ba:	97c6                	add	a5,a5,a7
    43bc:	0007c303          	lbu	t1,0(a5)
    43c0:	02000793          	li	a5,32
    43c4:	933a                	add	t1,t1,a4
    43c6:	406787b3          	sub	a5,a5,t1
    43ca:	ebe9                	bnez	a5,449c <__divdi3+0x2a4>
    43cc:	1cb6ec63          	bltu	a3,a1,45a4 <__divdi3+0x3ac>
    43d0:	00c53533          	sltu	a0,a0,a2
    43d4:	00154513          	xori	a0,a0,1
    43d8:	4581                	li	a1,0
    43da:	bddd                	j	42d0 <__divdi3+0xd8>
    43dc:	4581                	li	a1,0
    43de:	4501                	li	a0,0
    43e0:	bdc5                	j	42d0 <__divdi3+0xd8>
    43e2:	0ff00793          	li	a5,255
    43e6:	1cd7f263          	bgeu	a5,a3,45aa <__divdi3+0x3b2>
    43ea:	0086d893          	srli	a7,a3,0x8
    43ee:	4721                	li	a4,8
    43f0:	b7c9                	j	43b2 <__divdi3+0x1ba>
    43f2:	0ff00713          	li	a4,255
    43f6:	869a                	mv	a3,t1
    43f8:	f0677de3          	bgeu	a4,t1,4312 <__divdi3+0x11a>
    43fc:	00835693          	srli	a3,t1,0x8
    4400:	47a1                	li	a5,8
    4402:	bf01                	j	4312 <__divdi3+0x11a>
    4404:	0ff00713          	li	a4,255
    4408:	86b2                	mv	a3,a2
    440a:	e2c777e3          	bgeu	a4,a2,4238 <__divdi3+0x40>
    440e:	00865693          	srli	a3,a2,0x8
    4412:	47a1                	li	a5,8
    4414:	b515                	j	4238 <__divdi3+0x40>
    4416:	00e31333          	sll	t1,t1,a4
    441a:	00f5d633          	srl	a2,a1,a5
    441e:	01035f13          	srli	t5,t1,0x10
    4422:	03e65e33          	divu	t3,a2,t5
    4426:	00e596b3          	sll	a3,a1,a4
    442a:	00f557b3          	srl	a5,a0,a5
    442e:	8edd                	or	a3,a3,a5
    4430:	01031893          	slli	a7,t1,0x10
    4434:	0108d893          	srli	a7,a7,0x10
    4438:	00e51eb3          	sll	t4,a0,a4
    443c:	0106d593          	srli	a1,a3,0x10
    4440:	03e677b3          	remu	a5,a2,t5
    4444:	03c88733          	mul	a4,a7,t3
    4448:	07c2                	slli	a5,a5,0x10
    444a:	8fcd                	or	a5,a5,a1
    444c:	00e7fb63          	bgeu	a5,a4,4462 <__divdi3+0x26a>
    4450:	979a                	add	a5,a5,t1
    4452:	fffe0613          	addi	a2,t3,-1 # 1ffffff <_data_lma+0x1ffa497>
    4456:	1667e363          	bltu	a5,t1,45bc <__divdi3+0x3c4>
    445a:	16e7f163          	bgeu	a5,a4,45bc <__divdi3+0x3c4>
    445e:	1e79                	addi	t3,t3,-2
    4460:	979a                	add	a5,a5,t1
    4462:	8f99                	sub	a5,a5,a4
    4464:	03e7d633          	divu	a2,a5,t5
    4468:	01069713          	slli	a4,a3,0x10
    446c:	8341                	srli	a4,a4,0x10
    446e:	03e7f7b3          	remu	a5,a5,t5
    4472:	02c88533          	mul	a0,a7,a2
    4476:	01079693          	slli	a3,a5,0x10
    447a:	8ed9                	or	a3,a3,a4
    447c:	00a6fb63          	bgeu	a3,a0,4492 <__divdi3+0x29a>
    4480:	969a                	add	a3,a3,t1
    4482:	fff60793          	addi	a5,a2,-1 # fff <SDEnWideBus+0x65>
    4486:	1266e763          	bltu	a3,t1,45b4 <__divdi3+0x3bc>
    448a:	12a6f563          	bgeu	a3,a0,45b4 <__divdi3+0x3bc>
    448e:	1679                	addi	a2,a2,-2
    4490:	969a                	add	a3,a3,t1
    4492:	010e1593          	slli	a1,t3,0x10
    4496:	8e89                	sub	a3,a3,a0
    4498:	8dd1                	or	a1,a1,a2
    449a:	b545                	j	433a <__divdi3+0x142>
    449c:	00665733          	srl	a4,a2,t1
    44a0:	00f696b3          	sll	a3,a3,a5
    44a4:	8ed9                	or	a3,a3,a4
    44a6:	0065d8b3          	srl	a7,a1,t1
    44aa:	0106df13          	srli	t5,a3,0x10
    44ae:	03e8deb3          	divu	t4,a7,t5
    44b2:	01069e13          	slli	t3,a3,0x10
    44b6:	00655333          	srl	t1,a0,t1
    44ba:	010e5e13          	srli	t3,t3,0x10
    44be:	00f595b3          	sll	a1,a1,a5
    44c2:	00b365b3          	or	a1,t1,a1
    44c6:	0105d713          	srli	a4,a1,0x10
    44ca:	00f61633          	sll	a2,a2,a5
    44ce:	03e8f8b3          	remu	a7,a7,t5
    44d2:	03de0333          	mul	t1,t3,t4
    44d6:	08c2                	slli	a7,a7,0x10
    44d8:	00e8e733          	or	a4,a7,a4
    44dc:	00677b63          	bgeu	a4,t1,44f2 <__divdi3+0x2fa>
    44e0:	9736                	add	a4,a4,a3
    44e2:	fffe8893          	addi	a7,t4,-1
    44e6:	0cd76963          	bltu	a4,a3,45b8 <__divdi3+0x3c0>
    44ea:	0c677763          	bgeu	a4,t1,45b8 <__divdi3+0x3c0>
    44ee:	1ef9                	addi	t4,t4,-2
    44f0:	9736                	add	a4,a4,a3
    44f2:	40670733          	sub	a4,a4,t1
    44f6:	03e75333          	divu	t1,a4,t5
    44fa:	05c2                	slli	a1,a1,0x10
    44fc:	81c1                	srli	a1,a1,0x10
    44fe:	03e77733          	remu	a4,a4,t5
    4502:	026e08b3          	mul	a7,t3,t1
    4506:	0742                	slli	a4,a4,0x10
    4508:	8dd9                	or	a1,a1,a4
    450a:	0115fb63          	bgeu	a1,a7,4520 <__divdi3+0x328>
    450e:	95b6                	add	a1,a1,a3
    4510:	fff30713          	addi	a4,t1,-1
    4514:	08d5ee63          	bltu	a1,a3,45b0 <__divdi3+0x3b8>
    4518:	0915fc63          	bgeu	a1,a7,45b0 <__divdi3+0x3b8>
    451c:	1379                	addi	t1,t1,-2
    451e:	95b6                	add	a1,a1,a3
    4520:	0ec2                	slli	t4,t4,0x10
    4522:	6f41                	lui	t5,0x10
    4524:	006eeeb3          	or	t4,t4,t1
    4528:	ffff0713          	addi	a4,t5,-1 # ffff <_data_lma+0xa497>
    452c:	00eef6b3          	and	a3,t4,a4
    4530:	010ed313          	srli	t1,t4,0x10
    4534:	8f71                	and	a4,a4,a2
    4536:	8241                	srli	a2,a2,0x10
    4538:	02e68e33          	mul	t3,a3,a4
    453c:	411585b3          	sub	a1,a1,a7
    4540:	02c686b3          	mul	a3,a3,a2
    4544:	010e5893          	srli	a7,t3,0x10
    4548:	02e30733          	mul	a4,t1,a4
    454c:	96ba                	add	a3,a3,a4
    454e:	96c6                	add	a3,a3,a7
    4550:	02c30633          	mul	a2,t1,a2
    4554:	00e6f363          	bgeu	a3,a4,455a <__divdi3+0x362>
    4558:	967a                	add	a2,a2,t5
    455a:	0106d313          	srli	t1,a3,0x10
    455e:	961a                	add	a2,a2,t1
    4560:	02c5e263          	bltu	a1,a2,4584 <__divdi3+0x38c>
    4564:	00c58563          	beq	a1,a2,456e <__divdi3+0x376>
    4568:	8576                	mv	a0,t4
    456a:	4581                	li	a1,0
    456c:	b395                	j	42d0 <__divdi3+0xd8>
    456e:	6741                	lui	a4,0x10
    4570:	177d                	addi	a4,a4,-1
    4572:	8ef9                	and	a3,a3,a4
    4574:	06c2                	slli	a3,a3,0x10
    4576:	00ee7e33          	and	t3,t3,a4
    457a:	00f517b3          	sll	a5,a0,a5
    457e:	96f2                	add	a3,a3,t3
    4580:	fed7f4e3          	bgeu	a5,a3,4568 <__divdi3+0x370>
    4584:	fffe8513          	addi	a0,t4,-1
    4588:	4581                	li	a1,0
    458a:	b399                	j	42d0 <__divdi3+0xd8>
    458c:	0106d893          	srli	a7,a3,0x10
    4590:	4741                	li	a4,16
    4592:	b505                	j	43b2 <__divdi3+0x1ba>
    4594:	01065693          	srli	a3,a2,0x10
    4598:	47c1                	li	a5,16
    459a:	b979                	j	4238 <__divdi3+0x40>
    459c:	01035693          	srli	a3,t1,0x10
    45a0:	47c1                	li	a5,16
    45a2:	bb85                	j	4312 <__divdi3+0x11a>
    45a4:	4581                	li	a1,0
    45a6:	4505                	li	a0,1
    45a8:	b325                	j	42d0 <__divdi3+0xd8>
    45aa:	88b6                	mv	a7,a3
    45ac:	4701                	li	a4,0
    45ae:	b511                	j	43b2 <__divdi3+0x1ba>
    45b0:	833a                	mv	t1,a4
    45b2:	b7bd                	j	4520 <__divdi3+0x328>
    45b4:	863e                	mv	a2,a5
    45b6:	bdf1                	j	4492 <__divdi3+0x29a>
    45b8:	8ec6                	mv	t4,a7
    45ba:	bf25                	j	44f2 <__divdi3+0x2fa>
    45bc:	8e32                	mv	t3,a2
    45be:	b555                	j	4462 <__divdi3+0x26a>
    45c0:	17f9                	addi	a5,a5,-2
    45c2:	989a                	add	a7,a7,t1
    45c4:	b9c9                	j	4296 <__divdi3+0x9e>
    45c6:	17f9                	addi	a5,a5,-2
    45c8:	971a                	add	a4,a4,t1
    45ca:	bb61                	j	4362 <__divdi3+0x16a>

000045cc <memcmp>:
    45cc:	4701                	li	a4,0
    45ce:	00e61463          	bne	a2,a4,45d6 <memcmp+0xa>
    45d2:	4501                	li	a0,0
    45d4:	8082                	ret
    45d6:	00e507b3          	add	a5,a0,a4
    45da:	0705                	addi	a4,a4,1
    45dc:	00e586b3          	add	a3,a1,a4
    45e0:	239c                	lbu	a5,0(a5)
    45e2:	fff6c683          	lbu	a3,-1(a3)
    45e6:	fed784e3          	beq	a5,a3,45ce <memcmp+0x2>
    45ea:	40d78533          	sub	a0,a5,a3
    45ee:	8082                	ret

000045f0 <memcpy>:
    45f0:	00a5c7b3          	xor	a5,a1,a0
    45f4:	8b8d                	andi	a5,a5,3
    45f6:	00c50733          	add	a4,a0,a2
    45fa:	e781                	bnez	a5,4602 <memcpy+0x12>
    45fc:	478d                	li	a5,3
    45fe:	00c7ed63          	bltu	a5,a2,4618 <memcpy+0x28>
    4602:	87aa                	mv	a5,a0
    4604:	08e57e63          	bgeu	a0,a4,46a0 <memcpy+0xb0>
    4608:	2194                	lbu	a3,0(a1)
    460a:	0785                	addi	a5,a5,1
    460c:	0585                	addi	a1,a1,1
    460e:	fed78fa3          	sb	a3,-1(a5)
    4612:	fee7ebe3          	bltu	a5,a4,4608 <memcpy+0x18>
    4616:	8082                	ret
    4618:	00357693          	andi	a3,a0,3
    461c:	87aa                	mv	a5,a0
    461e:	ca89                	beqz	a3,4630 <memcpy+0x40>
    4620:	2194                	lbu	a3,0(a1)
    4622:	0785                	addi	a5,a5,1
    4624:	0585                	addi	a1,a1,1
    4626:	fed78fa3          	sb	a3,-1(a5)
    462a:	0037f693          	andi	a3,a5,3
    462e:	bfc5                	j	461e <memcpy+0x2e>
    4630:	ffc77693          	andi	a3,a4,-4
    4634:	fe068613          	addi	a2,a3,-32
    4638:	06c7f063          	bgeu	a5,a2,4698 <memcpy+0xa8>
    463c:	0005a383          	lw	t2,0(a1)
    4640:	0045a283          	lw	t0,4(a1)
    4644:	0085af83          	lw	t6,8(a1)
    4648:	00c5af03          	lw	t5,12(a1)
    464c:	0105ae83          	lw	t4,16(a1)
    4650:	0145ae03          	lw	t3,20(a1)
    4654:	0185a303          	lw	t1,24(a1)
    4658:	01c5a883          	lw	a7,28(a1)
    465c:	02458593          	addi	a1,a1,36
    4660:	0077a023          	sw	t2,0(a5)
    4664:	ffc5a803          	lw	a6,-4(a1)
    4668:	0057a223          	sw	t0,4(a5)
    466c:	01f7a423          	sw	t6,8(a5)
    4670:	01e7a623          	sw	t5,12(a5)
    4674:	01d7a823          	sw	t4,16(a5)
    4678:	01c7aa23          	sw	t3,20(a5)
    467c:	0067ac23          	sw	t1,24(a5)
    4680:	0117ae23          	sw	a7,28(a5)
    4684:	02478793          	addi	a5,a5,36
    4688:	ff07ae23          	sw	a6,-4(a5)
    468c:	b775                	j	4638 <memcpy+0x48>
    468e:	4190                	lw	a2,0(a1)
    4690:	0791                	addi	a5,a5,4
    4692:	0591                	addi	a1,a1,4
    4694:	fec7ae23          	sw	a2,-4(a5)
    4698:	fed7ebe3          	bltu	a5,a3,468e <memcpy+0x9e>
    469c:	f6e7e6e3          	bltu	a5,a4,4608 <memcpy+0x18>
    46a0:	8082                	ret

000046a2 <iprintf>:
    46a2:	7139                	addi	sp,sp,-64
    46a4:	da3e                	sw	a5,52(sp)
    46a6:	d22e                	sw	a1,36(sp)
    46a8:	d432                	sw	a2,40(sp)
    46aa:	d636                	sw	a3,44(sp)
    46ac:	d83a                	sw	a4,48(sp)
    46ae:	dc42                	sw	a6,56(sp)
    46b0:	de46                	sw	a7,60(sp)
    46b2:	81418793          	addi	a5,gp,-2028 # 20000094 <_impure_ptr>
    46b6:	cc22                	sw	s0,24(sp)
    46b8:	4380                	lw	s0,0(a5)
    46ba:	ca26                	sw	s1,20(sp)
    46bc:	ce06                	sw	ra,28(sp)
    46be:	84aa                	mv	s1,a0
    46c0:	c409                	beqz	s0,46ca <iprintf+0x28>
    46c2:	4c1c                	lw	a5,24(s0)
    46c4:	e399                	bnez	a5,46ca <iprintf+0x28>
    46c6:	8522                	mv	a0,s0
    46c8:	2b19                	jal	4bde <__sinit>
    46ca:	440c                	lw	a1,8(s0)
    46cc:	1054                	addi	a3,sp,36
    46ce:	8626                	mv	a2,s1
    46d0:	8522                	mv	a0,s0
    46d2:	c636                	sw	a3,12(sp)
    46d4:	151000ef          	jal	ra,5024 <_vfiprintf_r>
    46d8:	40f2                	lw	ra,28(sp)
    46da:	4462                	lw	s0,24(sp)
    46dc:	44d2                	lw	s1,20(sp)
    46de:	6121                	addi	sp,sp,64
    46e0:	8082                	ret

000046e2 <_puts_r>:
    46e2:	1101                	addi	sp,sp,-32
    46e4:	ca26                	sw	s1,20(sp)
    46e6:	c84a                	sw	s2,16(sp)
    46e8:	ce06                	sw	ra,28(sp)
    46ea:	cc22                	sw	s0,24(sp)
    46ec:	c64e                	sw	s3,12(sp)
    46ee:	c452                	sw	s4,8(sp)
    46f0:	84aa                	mv	s1,a0
    46f2:	892e                	mv	s2,a1
    46f4:	c501                	beqz	a0,46fc <_puts_r+0x1a>
    46f6:	4d1c                	lw	a5,24(a0)
    46f8:	e391                	bnez	a5,46fc <_puts_r+0x1a>
    46fa:	21d5                	jal	4bde <__sinit>
    46fc:	4c9c                	lw	a5,24(s1)
    46fe:	4480                	lw	s0,8(s1)
    4700:	e399                	bnez	a5,4706 <_puts_r+0x24>
    4702:	8526                	mv	a0,s1
    4704:	29e9                	jal	4bde <__sinit>
    4706:	00001797          	auipc	a5,0x1
    470a:	3e678793          	addi	a5,a5,998 # 5aec <__sf_fake_stdin>
    470e:	02f41b63          	bne	s0,a5,4744 <_puts_r+0x62>
    4712:	40c0                	lw	s0,4(s1)
    4714:	245e                	lhu	a5,12(s0)
    4716:	8ba1                	andi	a5,a5,8
    4718:	c7b1                	beqz	a5,4764 <_puts_r+0x82>
    471a:	481c                	lw	a5,16(s0)
    471c:	c7a1                	beqz	a5,4764 <_puts_r+0x82>
    471e:	59fd                	li	s3,-1
    4720:	4a29                	li	s4,10
    4722:	441c                	lw	a5,8(s0)
    4724:	00094583          	lbu	a1,0(s2)
    4728:	17fd                	addi	a5,a5,-1
    472a:	e9b1                	bnez	a1,477e <_puts_r+0x9c>
    472c:	c41c                	sw	a5,8(s0)
    472e:	0607dd63          	bgez	a5,47a8 <_puts_r+0xc6>
    4732:	8622                	mv	a2,s0
    4734:	45a9                	li	a1,10
    4736:	8526                	mv	a0,s1
    4738:	204d                	jal	47da <__swbuf_r>
    473a:	57fd                	li	a5,-1
    473c:	02f50863          	beq	a0,a5,476c <_puts_r+0x8a>
    4740:	4529                	li	a0,10
    4742:	a035                	j	476e <_puts_r+0x8c>
    4744:	00001797          	auipc	a5,0x1
    4748:	3c878793          	addi	a5,a5,968 # 5b0c <__sf_fake_stdout>
    474c:	00f41463          	bne	s0,a5,4754 <_puts_r+0x72>
    4750:	4480                	lw	s0,8(s1)
    4752:	b7c9                	j	4714 <_puts_r+0x32>
    4754:	00001797          	auipc	a5,0x1
    4758:	37878793          	addi	a5,a5,888 # 5acc <__sf_fake_stderr>
    475c:	faf41ce3          	bne	s0,a5,4714 <_puts_r+0x32>
    4760:	44c0                	lw	s0,12(s1)
    4762:	bf4d                	j	4714 <_puts_r+0x32>
    4764:	85a2                	mv	a1,s0
    4766:	8526                	mv	a0,s1
    4768:	223d                	jal	4896 <__swsetup_r>
    476a:	d955                	beqz	a0,471e <_puts_r+0x3c>
    476c:	557d                	li	a0,-1
    476e:	40f2                	lw	ra,28(sp)
    4770:	4462                	lw	s0,24(sp)
    4772:	44d2                	lw	s1,20(sp)
    4774:	4942                	lw	s2,16(sp)
    4776:	49b2                	lw	s3,12(sp)
    4778:	4a22                	lw	s4,8(sp)
    477a:	6105                	addi	sp,sp,32
    477c:	8082                	ret
    477e:	c41c                	sw	a5,8(s0)
    4780:	0905                	addi	s2,s2,1
    4782:	0007d763          	bgez	a5,4790 <_puts_r+0xae>
    4786:	4c18                	lw	a4,24(s0)
    4788:	00e7ca63          	blt	a5,a4,479c <_puts_r+0xba>
    478c:	01458863          	beq	a1,s4,479c <_puts_r+0xba>
    4790:	401c                	lw	a5,0(s0)
    4792:	00178713          	addi	a4,a5,1
    4796:	c018                	sw	a4,0(s0)
    4798:	a38c                	sb	a1,0(a5)
    479a:	b761                	j	4722 <_puts_r+0x40>
    479c:	8622                	mv	a2,s0
    479e:	8526                	mv	a0,s1
    47a0:	282d                	jal	47da <__swbuf_r>
    47a2:	f93510e3          	bne	a0,s3,4722 <_puts_r+0x40>
    47a6:	b7d9                	j	476c <_puts_r+0x8a>
    47a8:	401c                	lw	a5,0(s0)
    47aa:	00178713          	addi	a4,a5,1
    47ae:	c018                	sw	a4,0(s0)
    47b0:	4729                	li	a4,10
    47b2:	a398                	sb	a4,0(a5)
    47b4:	b771                	j	4740 <_puts_r+0x5e>

000047b6 <puts>:
    47b6:	81418793          	addi	a5,gp,-2028 # 20000094 <_impure_ptr>
    47ba:	85aa                	mv	a1,a0
    47bc:	4388                	lw	a0,0(a5)
    47be:	f25ff06f          	j	46e2 <_puts_r>

000047c2 <strchr>:
    47c2:	0ff5f593          	andi	a1,a1,255
    47c6:	211c                	lbu	a5,0(a0)
    47c8:	c791                	beqz	a5,47d4 <strchr+0x12>
    47ca:	00b79363          	bne	a5,a1,47d0 <strchr+0xe>
    47ce:	8082                	ret
    47d0:	0505                	addi	a0,a0,1
    47d2:	bfd5                	j	47c6 <strchr+0x4>
    47d4:	c191                	beqz	a1,47d8 <strchr+0x16>
    47d6:	4501                	li	a0,0
    47d8:	8082                	ret

000047da <__swbuf_r>:
    47da:	1101                	addi	sp,sp,-32
    47dc:	cc22                	sw	s0,24(sp)
    47de:	ca26                	sw	s1,20(sp)
    47e0:	c84a                	sw	s2,16(sp)
    47e2:	ce06                	sw	ra,28(sp)
    47e4:	c64e                	sw	s3,12(sp)
    47e6:	84aa                	mv	s1,a0
    47e8:	892e                	mv	s2,a1
    47ea:	8432                	mv	s0,a2
    47ec:	c501                	beqz	a0,47f4 <__swbuf_r+0x1a>
    47ee:	4d1c                	lw	a5,24(a0)
    47f0:	e391                	bnez	a5,47f4 <__swbuf_r+0x1a>
    47f2:	26f5                	jal	4bde <__sinit>
    47f4:	00001797          	auipc	a5,0x1
    47f8:	2f878793          	addi	a5,a5,760 # 5aec <__sf_fake_stdin>
    47fc:	06f41763          	bne	s0,a5,486a <__swbuf_r+0x90>
    4800:	40c0                	lw	s0,4(s1)
    4802:	4c1c                	lw	a5,24(s0)
    4804:	c41c                	sw	a5,8(s0)
    4806:	245e                	lhu	a5,12(s0)
    4808:	8ba1                	andi	a5,a5,8
    480a:	c3c1                	beqz	a5,488a <__swbuf_r+0xb0>
    480c:	481c                	lw	a5,16(s0)
    480e:	cfb5                	beqz	a5,488a <__swbuf_r+0xb0>
    4810:	481c                	lw	a5,16(s0)
    4812:	4008                	lw	a0,0(s0)
    4814:	0ff97993          	andi	s3,s2,255
    4818:	0ff97913          	andi	s2,s2,255
    481c:	8d1d                	sub	a0,a0,a5
    481e:	485c                	lw	a5,20(s0)
    4820:	00f54663          	blt	a0,a5,482c <__swbuf_r+0x52>
    4824:	85a2                	mv	a1,s0
    4826:	8526                	mv	a0,s1
    4828:	2c69                	jal	4ac2 <_fflush_r>
    482a:	e525                	bnez	a0,4892 <__swbuf_r+0xb8>
    482c:	441c                	lw	a5,8(s0)
    482e:	0505                	addi	a0,a0,1
    4830:	17fd                	addi	a5,a5,-1
    4832:	c41c                	sw	a5,8(s0)
    4834:	401c                	lw	a5,0(s0)
    4836:	00178713          	addi	a4,a5,1
    483a:	c018                	sw	a4,0(s0)
    483c:	01378023          	sb	s3,0(a5)
    4840:	485c                	lw	a5,20(s0)
    4842:	00a78863          	beq	a5,a0,4852 <__swbuf_r+0x78>
    4846:	245e                	lhu	a5,12(s0)
    4848:	8b85                	andi	a5,a5,1
    484a:	cb81                	beqz	a5,485a <__swbuf_r+0x80>
    484c:	47a9                	li	a5,10
    484e:	00f91663          	bne	s2,a5,485a <__swbuf_r+0x80>
    4852:	85a2                	mv	a1,s0
    4854:	8526                	mv	a0,s1
    4856:	24b5                	jal	4ac2 <_fflush_r>
    4858:	ed0d                	bnez	a0,4892 <__swbuf_r+0xb8>
    485a:	40f2                	lw	ra,28(sp)
    485c:	4462                	lw	s0,24(sp)
    485e:	854a                	mv	a0,s2
    4860:	44d2                	lw	s1,20(sp)
    4862:	4942                	lw	s2,16(sp)
    4864:	49b2                	lw	s3,12(sp)
    4866:	6105                	addi	sp,sp,32
    4868:	8082                	ret
    486a:	00001797          	auipc	a5,0x1
    486e:	2a278793          	addi	a5,a5,674 # 5b0c <__sf_fake_stdout>
    4872:	00f41463          	bne	s0,a5,487a <__swbuf_r+0xa0>
    4876:	4480                	lw	s0,8(s1)
    4878:	b769                	j	4802 <__swbuf_r+0x28>
    487a:	00001797          	auipc	a5,0x1
    487e:	25278793          	addi	a5,a5,594 # 5acc <__sf_fake_stderr>
    4882:	f8f410e3          	bne	s0,a5,4802 <__swbuf_r+0x28>
    4886:	44c0                	lw	s0,12(s1)
    4888:	bfad                	j	4802 <__swbuf_r+0x28>
    488a:	85a2                	mv	a1,s0
    488c:	8526                	mv	a0,s1
    488e:	2021                	jal	4896 <__swsetup_r>
    4890:	d141                	beqz	a0,4810 <__swbuf_r+0x36>
    4892:	597d                	li	s2,-1
    4894:	b7d9                	j	485a <__swbuf_r+0x80>

00004896 <__swsetup_r>:
    4896:	1141                	addi	sp,sp,-16
    4898:	81418793          	addi	a5,gp,-2028 # 20000094 <_impure_ptr>
    489c:	c226                	sw	s1,4(sp)
    489e:	4384                	lw	s1,0(a5)
    48a0:	c422                	sw	s0,8(sp)
    48a2:	c04a                	sw	s2,0(sp)
    48a4:	c606                	sw	ra,12(sp)
    48a6:	892a                	mv	s2,a0
    48a8:	842e                	mv	s0,a1
    48aa:	c489                	beqz	s1,48b4 <__swsetup_r+0x1e>
    48ac:	4c9c                	lw	a5,24(s1)
    48ae:	e399                	bnez	a5,48b4 <__swsetup_r+0x1e>
    48b0:	8526                	mv	a0,s1
    48b2:	2635                	jal	4bde <__sinit>
    48b4:	00001797          	auipc	a5,0x1
    48b8:	23878793          	addi	a5,a5,568 # 5aec <__sf_fake_stdin>
    48bc:	02f41b63          	bne	s0,a5,48f2 <__swsetup_r+0x5c>
    48c0:	40c0                	lw	s0,4(s1)
    48c2:	00c41703          	lh	a4,12(s0)
    48c6:	01071793          	slli	a5,a4,0x10
    48ca:	83c1                	srli	a5,a5,0x10
    48cc:	0087f693          	andi	a3,a5,8
    48d0:	eaad                	bnez	a3,4942 <__swsetup_r+0xac>
    48d2:	0107f693          	andi	a3,a5,16
    48d6:	ee95                	bnez	a3,4912 <__swsetup_r+0x7c>
    48d8:	47a5                	li	a5,9
    48da:	00f92023          	sw	a5,0(s2)
    48de:	04076713          	ori	a4,a4,64
    48e2:	a45a                	sh	a4,12(s0)
    48e4:	557d                	li	a0,-1
    48e6:	40b2                	lw	ra,12(sp)
    48e8:	4422                	lw	s0,8(sp)
    48ea:	4492                	lw	s1,4(sp)
    48ec:	4902                	lw	s2,0(sp)
    48ee:	0141                	addi	sp,sp,16
    48f0:	8082                	ret
    48f2:	00001797          	auipc	a5,0x1
    48f6:	21a78793          	addi	a5,a5,538 # 5b0c <__sf_fake_stdout>
    48fa:	00f41463          	bne	s0,a5,4902 <__swsetup_r+0x6c>
    48fe:	4480                	lw	s0,8(s1)
    4900:	b7c9                	j	48c2 <__swsetup_r+0x2c>
    4902:	00001797          	auipc	a5,0x1
    4906:	1ca78793          	addi	a5,a5,458 # 5acc <__sf_fake_stderr>
    490a:	faf41ce3          	bne	s0,a5,48c2 <__swsetup_r+0x2c>
    490e:	44c0                	lw	s0,12(s1)
    4910:	bf4d                	j	48c2 <__swsetup_r+0x2c>
    4912:	8b91                	andi	a5,a5,4
    4914:	c39d                	beqz	a5,493a <__swsetup_r+0xa4>
    4916:	584c                	lw	a1,52(s0)
    4918:	c989                	beqz	a1,492a <__swsetup_r+0x94>
    491a:	04440793          	addi	a5,s0,68
    491e:	00f58463          	beq	a1,a5,4926 <__swsetup_r+0x90>
    4922:	854a                	mv	a0,s2
    4924:	2b29                	jal	4e3e <_free_r>
    4926:	02042a23          	sw	zero,52(s0)
    492a:	245e                	lhu	a5,12(s0)
    492c:	00042223          	sw	zero,4(s0)
    4930:	fdb7f793          	andi	a5,a5,-37
    4934:	a45e                	sh	a5,12(s0)
    4936:	481c                	lw	a5,16(s0)
    4938:	c01c                	sw	a5,0(s0)
    493a:	245e                	lhu	a5,12(s0)
    493c:	0087e793          	ori	a5,a5,8
    4940:	a45e                	sh	a5,12(s0)
    4942:	481c                	lw	a5,16(s0)
    4944:	eb99                	bnez	a5,495a <__swsetup_r+0xc4>
    4946:	245e                	lhu	a5,12(s0)
    4948:	20000713          	li	a4,512
    494c:	2807f793          	andi	a5,a5,640
    4950:	00e78563          	beq	a5,a4,495a <__swsetup_r+0xc4>
    4954:	85a2                	mv	a1,s0
    4956:	854a                	mv	a0,s2
    4958:	2991                	jal	4dac <__smakebuf_r>
    495a:	245e                	lhu	a5,12(s0)
    495c:	0017f713          	andi	a4,a5,1
    4960:	c31d                	beqz	a4,4986 <__swsetup_r+0xf0>
    4962:	485c                	lw	a5,20(s0)
    4964:	00042423          	sw	zero,8(s0)
    4968:	40f007b3          	neg	a5,a5
    496c:	cc1c                	sw	a5,24(s0)
    496e:	481c                	lw	a5,16(s0)
    4970:	4501                	li	a0,0
    4972:	fbb5                	bnez	a5,48e6 <__swsetup_r+0x50>
    4974:	00c41783          	lh	a5,12(s0)
    4978:	0807f713          	andi	a4,a5,128
    497c:	d72d                	beqz	a4,48e6 <__swsetup_r+0x50>
    497e:	0407e793          	ori	a5,a5,64
    4982:	a45e                	sh	a5,12(s0)
    4984:	b785                	j	48e4 <__swsetup_r+0x4e>
    4986:	8b89                	andi	a5,a5,2
    4988:	4701                	li	a4,0
    498a:	e391                	bnez	a5,498e <__swsetup_r+0xf8>
    498c:	4858                	lw	a4,20(s0)
    498e:	c418                	sw	a4,8(s0)
    4990:	bff9                	j	496e <__swsetup_r+0xd8>

00004992 <__sflush_r>:
    4992:	25de                	lhu	a5,12(a1)
    4994:	1101                	addi	sp,sp,-32
    4996:	cc22                	sw	s0,24(sp)
    4998:	ca26                	sw	s1,20(sp)
    499a:	ce06                	sw	ra,28(sp)
    499c:	c84a                	sw	s2,16(sp)
    499e:	c64e                	sw	s3,12(sp)
    49a0:	0087f713          	andi	a4,a5,8
    49a4:	84aa                	mv	s1,a0
    49a6:	842e                	mv	s0,a1
    49a8:	eb79                	bnez	a4,4a7e <__sflush_r+0xec>
    49aa:	41d8                	lw	a4,4(a1)
    49ac:	00e04d63          	bgtz	a4,49c6 <__sflush_r+0x34>
    49b0:	41b8                	lw	a4,64(a1)
    49b2:	00e04a63          	bgtz	a4,49c6 <__sflush_r+0x34>
    49b6:	4501                	li	a0,0
    49b8:	40f2                	lw	ra,28(sp)
    49ba:	4462                	lw	s0,24(sp)
    49bc:	44d2                	lw	s1,20(sp)
    49be:	4942                	lw	s2,16(sp)
    49c0:	49b2                	lw	s3,12(sp)
    49c2:	6105                	addi	sp,sp,32
    49c4:	8082                	ret
    49c6:	5458                	lw	a4,44(s0)
    49c8:	d77d                	beqz	a4,49b6 <__sflush_r+0x24>
    49ca:	0004a903          	lw	s2,0(s1)
    49ce:	01379693          	slli	a3,a5,0x13
    49d2:	0004a023          	sw	zero,0(s1)
    49d6:	0606db63          	bgez	a3,4a4c <__sflush_r+0xba>
    49da:	4870                	lw	a2,84(s0)
    49dc:	245e                	lhu	a5,12(s0)
    49de:	8b91                	andi	a5,a5,4
    49e0:	c799                	beqz	a5,49ee <__sflush_r+0x5c>
    49e2:	405c                	lw	a5,4(s0)
    49e4:	8e1d                	sub	a2,a2,a5
    49e6:	585c                	lw	a5,52(s0)
    49e8:	c399                	beqz	a5,49ee <__sflush_r+0x5c>
    49ea:	403c                	lw	a5,64(s0)
    49ec:	8e1d                	sub	a2,a2,a5
    49ee:	545c                	lw	a5,44(s0)
    49f0:	500c                	lw	a1,32(s0)
    49f2:	4681                	li	a3,0
    49f4:	8526                	mv	a0,s1
    49f6:	9782                	jalr	a5
    49f8:	57fd                	li	a5,-1
    49fa:	245a                	lhu	a4,12(s0)
    49fc:	00f51d63          	bne	a0,a5,4a16 <__sflush_r+0x84>
    4a00:	4094                	lw	a3,0(s1)
    4a02:	47f5                	li	a5,29
    4a04:	06d7e863          	bltu	a5,a3,4a74 <__sflush_r+0xe2>
    4a08:	204007b7          	lui	a5,0x20400
    4a0c:	0785                	addi	a5,a5,1
    4a0e:	00d7d7b3          	srl	a5,a5,a3
    4a12:	8b85                	andi	a5,a5,1
    4a14:	c3a5                	beqz	a5,4a74 <__sflush_r+0xe2>
    4a16:	481c                	lw	a5,16(s0)
    4a18:	00042223          	sw	zero,4(s0)
    4a1c:	c01c                	sw	a5,0(s0)
    4a1e:	01371793          	slli	a5,a4,0x13
    4a22:	0007d863          	bgez	a5,4a32 <__sflush_r+0xa0>
    4a26:	57fd                	li	a5,-1
    4a28:	00f51463          	bne	a0,a5,4a30 <__sflush_r+0x9e>
    4a2c:	409c                	lw	a5,0(s1)
    4a2e:	e391                	bnez	a5,4a32 <__sflush_r+0xa0>
    4a30:	c868                	sw	a0,84(s0)
    4a32:	584c                	lw	a1,52(s0)
    4a34:	0124a023          	sw	s2,0(s1)
    4a38:	ddbd                	beqz	a1,49b6 <__sflush_r+0x24>
    4a3a:	04440793          	addi	a5,s0,68
    4a3e:	00f58463          	beq	a1,a5,4a46 <__sflush_r+0xb4>
    4a42:	8526                	mv	a0,s1
    4a44:	2eed                	jal	4e3e <_free_r>
    4a46:	02042a23          	sw	zero,52(s0)
    4a4a:	b7b5                	j	49b6 <__sflush_r+0x24>
    4a4c:	500c                	lw	a1,32(s0)
    4a4e:	4601                	li	a2,0
    4a50:	4685                	li	a3,1
    4a52:	8526                	mv	a0,s1
    4a54:	9702                	jalr	a4
    4a56:	57fd                	li	a5,-1
    4a58:	862a                	mv	a2,a0
    4a5a:	f8f511e3          	bne	a0,a5,49dc <__sflush_r+0x4a>
    4a5e:	409c                	lw	a5,0(s1)
    4a60:	dfb5                	beqz	a5,49dc <__sflush_r+0x4a>
    4a62:	4775                	li	a4,29
    4a64:	00e78563          	beq	a5,a4,4a6e <__sflush_r+0xdc>
    4a68:	4759                	li	a4,22
    4a6a:	04e79363          	bne	a5,a4,4ab0 <__sflush_r+0x11e>
    4a6e:	0124a023          	sw	s2,0(s1)
    4a72:	b791                	j	49b6 <__sflush_r+0x24>
    4a74:	04076713          	ori	a4,a4,64
    4a78:	a45a                	sh	a4,12(s0)
    4a7a:	557d                	li	a0,-1
    4a7c:	bf35                	j	49b8 <__sflush_r+0x26>
    4a7e:	0105a983          	lw	s3,16(a1)
    4a82:	f2098ae3          	beqz	s3,49b6 <__sflush_r+0x24>
    4a86:	0005a903          	lw	s2,0(a1)
    4a8a:	8b8d                	andi	a5,a5,3
    4a8c:	0135a023          	sw	s3,0(a1)
    4a90:	41390933          	sub	s2,s2,s3
    4a94:	4701                	li	a4,0
    4a96:	e391                	bnez	a5,4a9a <__sflush_r+0x108>
    4a98:	49d8                	lw	a4,20(a1)
    4a9a:	c418                	sw	a4,8(s0)
    4a9c:	f1205de3          	blez	s2,49b6 <__sflush_r+0x24>
    4aa0:	541c                	lw	a5,40(s0)
    4aa2:	500c                	lw	a1,32(s0)
    4aa4:	86ca                	mv	a3,s2
    4aa6:	864e                	mv	a2,s3
    4aa8:	8526                	mv	a0,s1
    4aaa:	9782                	jalr	a5
    4aac:	00a04763          	bgtz	a0,4aba <__sflush_r+0x128>
    4ab0:	245e                	lhu	a5,12(s0)
    4ab2:	0407e793          	ori	a5,a5,64
    4ab6:	a45e                	sh	a5,12(s0)
    4ab8:	b7c9                	j	4a7a <__sflush_r+0xe8>
    4aba:	99aa                	add	s3,s3,a0
    4abc:	40a90933          	sub	s2,s2,a0
    4ac0:	bff1                	j	4a9c <__sflush_r+0x10a>

00004ac2 <_fflush_r>:
    4ac2:	499c                	lw	a5,16(a1)
    4ac4:	c3a5                	beqz	a5,4b24 <_fflush_r+0x62>
    4ac6:	1101                	addi	sp,sp,-32
    4ac8:	cc22                	sw	s0,24(sp)
    4aca:	ce06                	sw	ra,28(sp)
    4acc:	842a                	mv	s0,a0
    4ace:	c511                	beqz	a0,4ada <_fflush_r+0x18>
    4ad0:	4d1c                	lw	a5,24(a0)
    4ad2:	e781                	bnez	a5,4ada <_fflush_r+0x18>
    4ad4:	c62e                	sw	a1,12(sp)
    4ad6:	2221                	jal	4bde <__sinit>
    4ad8:	45b2                	lw	a1,12(sp)
    4ada:	00001797          	auipc	a5,0x1
    4ade:	01278793          	addi	a5,a5,18 # 5aec <__sf_fake_stdin>
    4ae2:	00f59c63          	bne	a1,a5,4afa <_fflush_r+0x38>
    4ae6:	404c                	lw	a1,4(s0)
    4ae8:	00c59783          	lh	a5,12(a1)
    4aec:	c79d                	beqz	a5,4b1a <_fflush_r+0x58>
    4aee:	8522                	mv	a0,s0
    4af0:	4462                	lw	s0,24(sp)
    4af2:	40f2                	lw	ra,28(sp)
    4af4:	6105                	addi	sp,sp,32
    4af6:	e9dff06f          	j	4992 <__sflush_r>
    4afa:	00001797          	auipc	a5,0x1
    4afe:	01278793          	addi	a5,a5,18 # 5b0c <__sf_fake_stdout>
    4b02:	00f59463          	bne	a1,a5,4b0a <_fflush_r+0x48>
    4b06:	440c                	lw	a1,8(s0)
    4b08:	b7c5                	j	4ae8 <_fflush_r+0x26>
    4b0a:	00001797          	auipc	a5,0x1
    4b0e:	fc278793          	addi	a5,a5,-62 # 5acc <__sf_fake_stderr>
    4b12:	fcf59be3          	bne	a1,a5,4ae8 <_fflush_r+0x26>
    4b16:	444c                	lw	a1,12(s0)
    4b18:	bfc1                	j	4ae8 <_fflush_r+0x26>
    4b1a:	40f2                	lw	ra,28(sp)
    4b1c:	4462                	lw	s0,24(sp)
    4b1e:	4501                	li	a0,0
    4b20:	6105                	addi	sp,sp,32
    4b22:	8082                	ret
    4b24:	4501                	li	a0,0
    4b26:	8082                	ret

00004b28 <std>:
    4b28:	1141                	addi	sp,sp,-16
    4b2a:	c422                	sw	s0,8(sp)
    4b2c:	c606                	sw	ra,12(sp)
    4b2e:	842a                	mv	s0,a0
    4b30:	a54e                	sh	a1,12(a0)
    4b32:	a572                	sh	a2,14(a0)
    4b34:	00052023          	sw	zero,0(a0)
    4b38:	00052223          	sw	zero,4(a0)
    4b3c:	00052423          	sw	zero,8(a0)
    4b40:	06052223          	sw	zero,100(a0)
    4b44:	00052823          	sw	zero,16(a0)
    4b48:	00052a23          	sw	zero,20(a0)
    4b4c:	00052c23          	sw	zero,24(a0)
    4b50:	4621                	li	a2,8
    4b52:	4581                	li	a1,0
    4b54:	05c50513          	addi	a0,a0,92
    4b58:	ec8fb0ef          	jal	ra,220 <memset>
    4b5c:	00001797          	auipc	a5,0x1
    4b60:	b2878793          	addi	a5,a5,-1240 # 5684 <__sread>
    4b64:	d05c                	sw	a5,36(s0)
    4b66:	00001797          	auipc	a5,0x1
    4b6a:	b4a78793          	addi	a5,a5,-1206 # 56b0 <__swrite>
    4b6e:	d41c                	sw	a5,40(s0)
    4b70:	00001797          	auipc	a5,0x1
    4b74:	b8878793          	addi	a5,a5,-1144 # 56f8 <__sseek>
    4b78:	d45c                	sw	a5,44(s0)
    4b7a:	00001797          	auipc	a5,0x1
    4b7e:	bae78793          	addi	a5,a5,-1106 # 5728 <__sclose>
    4b82:	d000                	sw	s0,32(s0)
    4b84:	d81c                	sw	a5,48(s0)
    4b86:	40b2                	lw	ra,12(sp)
    4b88:	4422                	lw	s0,8(sp)
    4b8a:	0141                	addi	sp,sp,16
    4b8c:	8082                	ret

00004b8e <_cleanup_r>:
    4b8e:	00000597          	auipc	a1,0x0
    4b92:	f3458593          	addi	a1,a1,-204 # 4ac2 <_fflush_r>
    4b96:	aa91                	j	4cea <_fwalk_reent>

00004b98 <__sfmoreglue>:
    4b98:	1141                	addi	sp,sp,-16
    4b9a:	c226                	sw	s1,4(sp)
    4b9c:	06800613          	li	a2,104
    4ba0:	fff58493          	addi	s1,a1,-1
    4ba4:	02c484b3          	mul	s1,s1,a2
    4ba8:	c04a                	sw	s2,0(sp)
    4baa:	892e                	mv	s2,a1
    4bac:	c422                	sw	s0,8(sp)
    4bae:	c606                	sw	ra,12(sp)
    4bb0:	07448593          	addi	a1,s1,116
    4bb4:	2e0d                	jal	4ee6 <_malloc_r>
    4bb6:	842a                	mv	s0,a0
    4bb8:	cd01                	beqz	a0,4bd0 <__sfmoreglue+0x38>
    4bba:	00052023          	sw	zero,0(a0)
    4bbe:	01252223          	sw	s2,4(a0)
    4bc2:	0531                	addi	a0,a0,12
    4bc4:	c408                	sw	a0,8(s0)
    4bc6:	06848613          	addi	a2,s1,104
    4bca:	4581                	li	a1,0
    4bcc:	e54fb0ef          	jal	ra,220 <memset>
    4bd0:	8522                	mv	a0,s0
    4bd2:	40b2                	lw	ra,12(sp)
    4bd4:	4422                	lw	s0,8(sp)
    4bd6:	4492                	lw	s1,4(sp)
    4bd8:	4902                	lw	s2,0(sp)
    4bda:	0141                	addi	sp,sp,16
    4bdc:	8082                	ret

00004bde <__sinit>:
    4bde:	4d1c                	lw	a5,24(a0)
    4be0:	e7a5                	bnez	a5,4c48 <__sinit+0x6a>
    4be2:	1141                	addi	sp,sp,-16
    4be4:	c606                	sw	ra,12(sp)
    4be6:	c422                	sw	s0,8(sp)
    4be8:	00000797          	auipc	a5,0x0
    4bec:	fa678793          	addi	a5,a5,-90 # 4b8e <_cleanup_r>
    4bf0:	d51c                	sw	a5,40(a0)
    4bf2:	81818793          	addi	a5,gp,-2024 # 20000098 <_global_impure_ptr>
    4bf6:	439c                	lw	a5,0(a5)
    4bf8:	04052423          	sw	zero,72(a0)
    4bfc:	04052623          	sw	zero,76(a0)
    4c00:	04052823          	sw	zero,80(a0)
    4c04:	00f51463          	bne	a0,a5,4c0c <__sinit+0x2e>
    4c08:	4785                	li	a5,1
    4c0a:	cd1c                	sw	a5,24(a0)
    4c0c:	842a                	mv	s0,a0
    4c0e:	2835                	jal	4c4a <__sfp>
    4c10:	c048                	sw	a0,4(s0)
    4c12:	8522                	mv	a0,s0
    4c14:	281d                	jal	4c4a <__sfp>
    4c16:	c408                	sw	a0,8(s0)
    4c18:	8522                	mv	a0,s0
    4c1a:	2805                	jal	4c4a <__sfp>
    4c1c:	c448                	sw	a0,12(s0)
    4c1e:	4048                	lw	a0,4(s0)
    4c20:	4601                	li	a2,0
    4c22:	4591                	li	a1,4
    4c24:	f05ff0ef          	jal	ra,4b28 <std>
    4c28:	4408                	lw	a0,8(s0)
    4c2a:	4605                	li	a2,1
    4c2c:	45a5                	li	a1,9
    4c2e:	efbff0ef          	jal	ra,4b28 <std>
    4c32:	4448                	lw	a0,12(s0)
    4c34:	4609                	li	a2,2
    4c36:	45c9                	li	a1,18
    4c38:	ef1ff0ef          	jal	ra,4b28 <std>
    4c3c:	4785                	li	a5,1
    4c3e:	cc1c                	sw	a5,24(s0)
    4c40:	40b2                	lw	ra,12(sp)
    4c42:	4422                	lw	s0,8(sp)
    4c44:	0141                	addi	sp,sp,16
    4c46:	8082                	ret
    4c48:	8082                	ret

00004c4a <__sfp>:
    4c4a:	1141                	addi	sp,sp,-16
    4c4c:	81818793          	addi	a5,gp,-2024 # 20000098 <_global_impure_ptr>
    4c50:	c226                	sw	s1,4(sp)
    4c52:	4384                	lw	s1,0(a5)
    4c54:	c04a                	sw	s2,0(sp)
    4c56:	c606                	sw	ra,12(sp)
    4c58:	4c9c                	lw	a5,24(s1)
    4c5a:	c422                	sw	s0,8(sp)
    4c5c:	892a                	mv	s2,a0
    4c5e:	e781                	bnez	a5,4c66 <__sfp+0x1c>
    4c60:	8526                	mv	a0,s1
    4c62:	f7dff0ef          	jal	ra,4bde <__sinit>
    4c66:	04848493          	addi	s1,s1,72
    4c6a:	4480                	lw	s0,8(s1)
    4c6c:	40dc                	lw	a5,4(s1)
    4c6e:	17fd                	addi	a5,a5,-1
    4c70:	0007d663          	bgez	a5,4c7c <__sfp+0x32>
    4c74:	409c                	lw	a5,0(s1)
    4c76:	cfb9                	beqz	a5,4cd4 <__sfp+0x8a>
    4c78:	4084                	lw	s1,0(s1)
    4c7a:	bfc5                	j	4c6a <__sfp+0x20>
    4c7c:	00c41703          	lh	a4,12(s0)
    4c80:	e739                	bnez	a4,4cce <__sfp+0x84>
    4c82:	77c1                	lui	a5,0xffff0
    4c84:	0785                	addi	a5,a5,1
    4c86:	06042223          	sw	zero,100(s0)
    4c8a:	00042023          	sw	zero,0(s0)
    4c8e:	00042223          	sw	zero,4(s0)
    4c92:	00042423          	sw	zero,8(s0)
    4c96:	c45c                	sw	a5,12(s0)
    4c98:	00042823          	sw	zero,16(s0)
    4c9c:	00042a23          	sw	zero,20(s0)
    4ca0:	00042c23          	sw	zero,24(s0)
    4ca4:	4621                	li	a2,8
    4ca6:	4581                	li	a1,0
    4ca8:	05c40513          	addi	a0,s0,92
    4cac:	d74fb0ef          	jal	ra,220 <memset>
    4cb0:	02042a23          	sw	zero,52(s0)
    4cb4:	02042c23          	sw	zero,56(s0)
    4cb8:	04042423          	sw	zero,72(s0)
    4cbc:	04042623          	sw	zero,76(s0)
    4cc0:	8522                	mv	a0,s0
    4cc2:	40b2                	lw	ra,12(sp)
    4cc4:	4422                	lw	s0,8(sp)
    4cc6:	4492                	lw	s1,4(sp)
    4cc8:	4902                	lw	s2,0(sp)
    4cca:	0141                	addi	sp,sp,16
    4ccc:	8082                	ret
    4cce:	06840413          	addi	s0,s0,104
    4cd2:	bf71                	j	4c6e <__sfp+0x24>
    4cd4:	4591                	li	a1,4
    4cd6:	854a                	mv	a0,s2
    4cd8:	ec1ff0ef          	jal	ra,4b98 <__sfmoreglue>
    4cdc:	c088                	sw	a0,0(s1)
    4cde:	fd49                	bnez	a0,4c78 <__sfp+0x2e>
    4ce0:	47b1                	li	a5,12
    4ce2:	00f92023          	sw	a5,0(s2)
    4ce6:	4401                	li	s0,0
    4ce8:	bfe1                	j	4cc0 <__sfp+0x76>

00004cea <_fwalk_reent>:
    4cea:	7179                	addi	sp,sp,-48
    4cec:	d422                	sw	s0,40(sp)
    4cee:	d04a                	sw	s2,32(sp)
    4cf0:	cc52                	sw	s4,24(sp)
    4cf2:	ca56                	sw	s5,20(sp)
    4cf4:	c85a                	sw	s6,16(sp)
    4cf6:	c65e                	sw	s7,12(sp)
    4cf8:	d606                	sw	ra,44(sp)
    4cfa:	d226                	sw	s1,36(sp)
    4cfc:	ce4e                	sw	s3,28(sp)
    4cfe:	8a2a                	mv	s4,a0
    4d00:	8aae                	mv	s5,a1
    4d02:	04850413          	addi	s0,a0,72
    4d06:	4901                	li	s2,0
    4d08:	4b05                	li	s6,1
    4d0a:	5bfd                	li	s7,-1
    4d0c:	ec09                	bnez	s0,4d26 <_fwalk_reent+0x3c>
    4d0e:	50b2                	lw	ra,44(sp)
    4d10:	5422                	lw	s0,40(sp)
    4d12:	854a                	mv	a0,s2
    4d14:	5492                	lw	s1,36(sp)
    4d16:	5902                	lw	s2,32(sp)
    4d18:	49f2                	lw	s3,28(sp)
    4d1a:	4a62                	lw	s4,24(sp)
    4d1c:	4ad2                	lw	s5,20(sp)
    4d1e:	4b42                	lw	s6,16(sp)
    4d20:	4bb2                	lw	s7,12(sp)
    4d22:	6145                	addi	sp,sp,48
    4d24:	8082                	ret
    4d26:	4404                	lw	s1,8(s0)
    4d28:	00442983          	lw	s3,4(s0)
    4d2c:	19fd                	addi	s3,s3,-1
    4d2e:	0009d463          	bgez	s3,4d36 <_fwalk_reent+0x4c>
    4d32:	4000                	lw	s0,0(s0)
    4d34:	bfe1                	j	4d0c <_fwalk_reent+0x22>
    4d36:	24de                	lhu	a5,12(s1)
    4d38:	00fb7b63          	bgeu	s6,a5,4d4e <_fwalk_reent+0x64>
    4d3c:	00e49783          	lh	a5,14(s1)
    4d40:	01778763          	beq	a5,s7,4d4e <_fwalk_reent+0x64>
    4d44:	85a6                	mv	a1,s1
    4d46:	8552                	mv	a0,s4
    4d48:	9a82                	jalr	s5
    4d4a:	00a96933          	or	s2,s2,a0
    4d4e:	06848493          	addi	s1,s1,104
    4d52:	bfe9                	j	4d2c <_fwalk_reent+0x42>

00004d54 <__swhatbuf_r>:
    4d54:	7119                	addi	sp,sp,-128
    4d56:	daa6                	sw	s1,116(sp)
    4d58:	84ae                	mv	s1,a1
    4d5a:	00e59583          	lh	a1,14(a1)
    4d5e:	dca2                	sw	s0,120(sp)
    4d60:	de86                	sw	ra,124(sp)
    4d62:	8432                	mv	s0,a2
    4d64:	0005db63          	bgez	a1,4d7a <__swhatbuf_r+0x26>
    4d68:	24de                	lhu	a5,12(s1)
    4d6a:	0006a023          	sw	zero,0(a3)
    4d6e:	0807f793          	andi	a5,a5,128
    4d72:	e785                	bnez	a5,4d9a <__swhatbuf_r+0x46>
    4d74:	40000793          	li	a5,1024
    4d78:	a01d                	j	4d9e <__swhatbuf_r+0x4a>
    4d7a:	0830                	addi	a2,sp,24
    4d7c:	c636                	sw	a3,12(sp)
    4d7e:	207000ef          	jal	ra,5784 <_fstat_r>
    4d82:	46b2                	lw	a3,12(sp)
    4d84:	fe0542e3          	bltz	a0,4d68 <__swhatbuf_r+0x14>
    4d88:	4772                	lw	a4,28(sp)
    4d8a:	67bd                	lui	a5,0xf
    4d8c:	8ff9                	and	a5,a5,a4
    4d8e:	7779                	lui	a4,0xffffe
    4d90:	97ba                	add	a5,a5,a4
    4d92:	0017b793          	seqz	a5,a5
    4d96:	c29c                	sw	a5,0(a3)
    4d98:	bff1                	j	4d74 <__swhatbuf_r+0x20>
    4d9a:	04000793          	li	a5,64
    4d9e:	c01c                	sw	a5,0(s0)
    4da0:	50f6                	lw	ra,124(sp)
    4da2:	5466                	lw	s0,120(sp)
    4da4:	54d6                	lw	s1,116(sp)
    4da6:	4501                	li	a0,0
    4da8:	6109                	addi	sp,sp,128
    4daa:	8082                	ret

00004dac <__smakebuf_r>:
    4dac:	25de                	lhu	a5,12(a1)
    4dae:	1101                	addi	sp,sp,-32
    4db0:	cc22                	sw	s0,24(sp)
    4db2:	ce06                	sw	ra,28(sp)
    4db4:	ca26                	sw	s1,20(sp)
    4db6:	c84a                	sw	s2,16(sp)
    4db8:	8b89                	andi	a5,a5,2
    4dba:	842e                	mv	s0,a1
    4dbc:	cf89                	beqz	a5,4dd6 <__smakebuf_r+0x2a>
    4dbe:	04740793          	addi	a5,s0,71
    4dc2:	c01c                	sw	a5,0(s0)
    4dc4:	c81c                	sw	a5,16(s0)
    4dc6:	4785                	li	a5,1
    4dc8:	c85c                	sw	a5,20(s0)
    4dca:	40f2                	lw	ra,28(sp)
    4dcc:	4462                	lw	s0,24(sp)
    4dce:	44d2                	lw	s1,20(sp)
    4dd0:	4942                	lw	s2,16(sp)
    4dd2:	6105                	addi	sp,sp,32
    4dd4:	8082                	ret
    4dd6:	0074                	addi	a3,sp,12
    4dd8:	0030                	addi	a2,sp,8
    4dda:	84aa                	mv	s1,a0
    4ddc:	f79ff0ef          	jal	ra,4d54 <__swhatbuf_r>
    4de0:	45a2                	lw	a1,8(sp)
    4de2:	892a                	mv	s2,a0
    4de4:	8526                	mv	a0,s1
    4de6:	2201                	jal	4ee6 <_malloc_r>
    4de8:	e919                	bnez	a0,4dfe <__smakebuf_r+0x52>
    4dea:	00c41783          	lh	a5,12(s0)
    4dee:	2007f713          	andi	a4,a5,512
    4df2:	ff61                	bnez	a4,4dca <__smakebuf_r+0x1e>
    4df4:	9bf1                	andi	a5,a5,-4
    4df6:	0027e793          	ori	a5,a5,2
    4dfa:	a45e                	sh	a5,12(s0)
    4dfc:	b7c9                	j	4dbe <__smakebuf_r+0x12>
    4dfe:	00000797          	auipc	a5,0x0
    4e02:	d9078793          	addi	a5,a5,-624 # 4b8e <_cleanup_r>
    4e06:	d49c                	sw	a5,40(s1)
    4e08:	245e                	lhu	a5,12(s0)
    4e0a:	c008                	sw	a0,0(s0)
    4e0c:	c808                	sw	a0,16(s0)
    4e0e:	0807e793          	ori	a5,a5,128
    4e12:	a45e                	sh	a5,12(s0)
    4e14:	47a2                	lw	a5,8(sp)
    4e16:	c85c                	sw	a5,20(s0)
    4e18:	47b2                	lw	a5,12(sp)
    4e1a:	cf81                	beqz	a5,4e32 <__smakebuf_r+0x86>
    4e1c:	00e41583          	lh	a1,14(s0)
    4e20:	8526                	mv	a0,s1
    4e22:	18d000ef          	jal	ra,57ae <_isatty_r>
    4e26:	c511                	beqz	a0,4e32 <__smakebuf_r+0x86>
    4e28:	245e                	lhu	a5,12(s0)
    4e2a:	9bf1                	andi	a5,a5,-4
    4e2c:	0017e793          	ori	a5,a5,1
    4e30:	a45e                	sh	a5,12(s0)
    4e32:	245e                	lhu	a5,12(s0)
    4e34:	00f96933          	or	s2,s2,a5
    4e38:	01241623          	sh	s2,12(s0)
    4e3c:	b779                	j	4dca <__smakebuf_r+0x1e>

00004e3e <_free_r>:
    4e3e:	c1dd                	beqz	a1,4ee4 <_free_r+0xa6>
    4e40:	ffc5a783          	lw	a5,-4(a1)
    4e44:	1141                	addi	sp,sp,-16
    4e46:	c422                	sw	s0,8(sp)
    4e48:	c606                	sw	ra,12(sp)
    4e4a:	c226                	sw	s1,4(sp)
    4e4c:	ffc58413          	addi	s0,a1,-4
    4e50:	0007d363          	bgez	a5,4e56 <_free_r+0x18>
    4e54:	943e                	add	s0,s0,a5
    4e56:	84aa                	mv	s1,a0
    4e58:	1c3000ef          	jal	ra,581a <__malloc_lock>
    4e5c:	84818793          	addi	a5,gp,-1976 # 200000c8 <__malloc_free_list>
    4e60:	439c                	lw	a5,0(a5)
    4e62:	ef81                	bnez	a5,4e7a <_free_r+0x3c>
    4e64:	00042223          	sw	zero,4(s0)
    4e68:	8481a423          	sw	s0,-1976(gp) # 200000c8 <__malloc_free_list>
    4e6c:	4422                	lw	s0,8(sp)
    4e6e:	40b2                	lw	ra,12(sp)
    4e70:	8526                	mv	a0,s1
    4e72:	4492                	lw	s1,4(sp)
    4e74:	0141                	addi	sp,sp,16
    4e76:	1a70006f          	j	581c <__malloc_unlock>
    4e7a:	00f47e63          	bgeu	s0,a5,4e96 <_free_r+0x58>
    4e7e:	4014                	lw	a3,0(s0)
    4e80:	00d40733          	add	a4,s0,a3
    4e84:	00e79663          	bne	a5,a4,4e90 <_free_r+0x52>
    4e88:	4398                	lw	a4,0(a5)
    4e8a:	43dc                	lw	a5,4(a5)
    4e8c:	9736                	add	a4,a4,a3
    4e8e:	c018                	sw	a4,0(s0)
    4e90:	c05c                	sw	a5,4(s0)
    4e92:	bfd9                	j	4e68 <_free_r+0x2a>
    4e94:	87ba                	mv	a5,a4
    4e96:	43d8                	lw	a4,4(a5)
    4e98:	c319                	beqz	a4,4e9e <_free_r+0x60>
    4e9a:	fee47de3          	bgeu	s0,a4,4e94 <_free_r+0x56>
    4e9e:	4394                	lw	a3,0(a5)
    4ea0:	00d78633          	add	a2,a5,a3
    4ea4:	00861f63          	bne	a2,s0,4ec2 <_free_r+0x84>
    4ea8:	4010                	lw	a2,0(s0)
    4eaa:	96b2                	add	a3,a3,a2
    4eac:	c394                	sw	a3,0(a5)
    4eae:	00d78633          	add	a2,a5,a3
    4eb2:	fac71de3          	bne	a4,a2,4e6c <_free_r+0x2e>
    4eb6:	4310                	lw	a2,0(a4)
    4eb8:	4358                	lw	a4,4(a4)
    4eba:	96b2                	add	a3,a3,a2
    4ebc:	c394                	sw	a3,0(a5)
    4ebe:	c3d8                	sw	a4,4(a5)
    4ec0:	b775                	j	4e6c <_free_r+0x2e>
    4ec2:	00c47563          	bgeu	s0,a2,4ecc <_free_r+0x8e>
    4ec6:	47b1                	li	a5,12
    4ec8:	c09c                	sw	a5,0(s1)
    4eca:	b74d                	j	4e6c <_free_r+0x2e>
    4ecc:	4010                	lw	a2,0(s0)
    4ece:	00c406b3          	add	a3,s0,a2
    4ed2:	00d71663          	bne	a4,a3,4ede <_free_r+0xa0>
    4ed6:	4314                	lw	a3,0(a4)
    4ed8:	4358                	lw	a4,4(a4)
    4eda:	96b2                	add	a3,a3,a2
    4edc:	c014                	sw	a3,0(s0)
    4ede:	c058                	sw	a4,4(s0)
    4ee0:	c3c0                	sw	s0,4(a5)
    4ee2:	b769                	j	4e6c <_free_r+0x2e>
    4ee4:	8082                	ret

00004ee6 <_malloc_r>:
    4ee6:	1101                	addi	sp,sp,-32
    4ee8:	ca26                	sw	s1,20(sp)
    4eea:	00358493          	addi	s1,a1,3
    4eee:	98f1                	andi	s1,s1,-4
    4ef0:	ce06                	sw	ra,28(sp)
    4ef2:	cc22                	sw	s0,24(sp)
    4ef4:	c84a                	sw	s2,16(sp)
    4ef6:	c64e                	sw	s3,12(sp)
    4ef8:	04a1                	addi	s1,s1,8
    4efa:	47b1                	li	a5,12
    4efc:	04f4f363          	bgeu	s1,a5,4f42 <_malloc_r+0x5c>
    4f00:	44b1                	li	s1,12
    4f02:	04b4e263          	bltu	s1,a1,4f46 <_malloc_r+0x60>
    4f06:	892a                	mv	s2,a0
    4f08:	113000ef          	jal	ra,581a <__malloc_lock>
    4f0c:	84818793          	addi	a5,gp,-1976 # 200000c8 <__malloc_free_list>
    4f10:	4398                	lw	a4,0(a5)
    4f12:	843a                	mv	s0,a4
    4f14:	e039                	bnez	s0,4f5a <_malloc_r+0x74>
    4f16:	84c18793          	addi	a5,gp,-1972 # 200000cc <__malloc_sbrk_start>
    4f1a:	439c                	lw	a5,0(a5)
    4f1c:	e791                	bnez	a5,4f28 <_malloc_r+0x42>
    4f1e:	4581                	li	a1,0
    4f20:	854a                	mv	a0,s2
    4f22:	2f25                	jal	565a <_sbrk_r>
    4f24:	84a1a623          	sw	a0,-1972(gp) # 200000cc <__malloc_sbrk_start>
    4f28:	85a6                	mv	a1,s1
    4f2a:	854a                	mv	a0,s2
    4f2c:	273d                	jal	565a <_sbrk_r>
    4f2e:	59fd                	li	s3,-1
    4f30:	07351963          	bne	a0,s3,4fa2 <_malloc_r+0xbc>
    4f34:	47b1                	li	a5,12
    4f36:	00f92023          	sw	a5,0(s2)
    4f3a:	854a                	mv	a0,s2
    4f3c:	0e1000ef          	jal	ra,581c <__malloc_unlock>
    4f40:	a029                	j	4f4a <_malloc_r+0x64>
    4f42:	fc04d0e3          	bgez	s1,4f02 <_malloc_r+0x1c>
    4f46:	47b1                	li	a5,12
    4f48:	c11c                	sw	a5,0(a0)
    4f4a:	4501                	li	a0,0
    4f4c:	40f2                	lw	ra,28(sp)
    4f4e:	4462                	lw	s0,24(sp)
    4f50:	44d2                	lw	s1,20(sp)
    4f52:	4942                	lw	s2,16(sp)
    4f54:	49b2                	lw	s3,12(sp)
    4f56:	6105                	addi	sp,sp,32
    4f58:	8082                	ret
    4f5a:	401c                	lw	a5,0(s0)
    4f5c:	8f85                	sub	a5,a5,s1
    4f5e:	0207cf63          	bltz	a5,4f9c <_malloc_r+0xb6>
    4f62:	46ad                	li	a3,11
    4f64:	00f6f663          	bgeu	a3,a5,4f70 <_malloc_r+0x8a>
    4f68:	c01c                	sw	a5,0(s0)
    4f6a:	943e                	add	s0,s0,a5
    4f6c:	c004                	sw	s1,0(s0)
    4f6e:	a031                	j	4f7a <_malloc_r+0x94>
    4f70:	405c                	lw	a5,4(s0)
    4f72:	02871363          	bne	a4,s0,4f98 <_malloc_r+0xb2>
    4f76:	84f1a423          	sw	a5,-1976(gp) # 200000c8 <__malloc_free_list>
    4f7a:	854a                	mv	a0,s2
    4f7c:	0a1000ef          	jal	ra,581c <__malloc_unlock>
    4f80:	00b40513          	addi	a0,s0,11
    4f84:	00440793          	addi	a5,s0,4
    4f88:	9961                	andi	a0,a0,-8
    4f8a:	40f50733          	sub	a4,a0,a5
    4f8e:	df5d                	beqz	a4,4f4c <_malloc_r+0x66>
    4f90:	943a                	add	s0,s0,a4
    4f92:	8f89                	sub	a5,a5,a0
    4f94:	c01c                	sw	a5,0(s0)
    4f96:	bf5d                	j	4f4c <_malloc_r+0x66>
    4f98:	c35c                	sw	a5,4(a4)
    4f9a:	b7c5                	j	4f7a <_malloc_r+0x94>
    4f9c:	8722                	mv	a4,s0
    4f9e:	4040                	lw	s0,4(s0)
    4fa0:	bf95                	j	4f14 <_malloc_r+0x2e>
    4fa2:	00350413          	addi	s0,a0,3
    4fa6:	9871                	andi	s0,s0,-4
    4fa8:	fc8502e3          	beq	a0,s0,4f6c <_malloc_r+0x86>
    4fac:	40a405b3          	sub	a1,s0,a0
    4fb0:	854a                	mv	a0,s2
    4fb2:	2565                	jal	565a <_sbrk_r>
    4fb4:	fb351ce3          	bne	a0,s3,4f6c <_malloc_r+0x86>
    4fb8:	bfb5                	j	4f34 <_malloc_r+0x4e>

00004fba <__sfputc_r>:
    4fba:	461c                	lw	a5,8(a2)
    4fbc:	17fd                	addi	a5,a5,-1
    4fbe:	c61c                	sw	a5,8(a2)
    4fc0:	0007da63          	bgez	a5,4fd4 <__sfputc_r+0x1a>
    4fc4:	4e18                	lw	a4,24(a2)
    4fc6:	00e7c563          	blt	a5,a4,4fd0 <__sfputc_r+0x16>
    4fca:	47a9                	li	a5,10
    4fcc:	00f59463          	bne	a1,a5,4fd4 <__sfputc_r+0x1a>
    4fd0:	80bff06f          	j	47da <__swbuf_r>
    4fd4:	421c                	lw	a5,0(a2)
    4fd6:	852e                	mv	a0,a1
    4fd8:	00178713          	addi	a4,a5,1
    4fdc:	c218                	sw	a4,0(a2)
    4fde:	a38c                	sb	a1,0(a5)
    4fe0:	8082                	ret

00004fe2 <__sfputs_r>:
    4fe2:	1101                	addi	sp,sp,-32
    4fe4:	cc22                	sw	s0,24(sp)
    4fe6:	ca26                	sw	s1,20(sp)
    4fe8:	c84a                	sw	s2,16(sp)
    4fea:	c64e                	sw	s3,12(sp)
    4fec:	c452                	sw	s4,8(sp)
    4fee:	ce06                	sw	ra,28(sp)
    4ff0:	892a                	mv	s2,a0
    4ff2:	89ae                	mv	s3,a1
    4ff4:	8432                	mv	s0,a2
    4ff6:	00d604b3          	add	s1,a2,a3
    4ffa:	5a7d                	li	s4,-1
    4ffc:	00941463          	bne	s0,s1,5004 <__sfputs_r+0x22>
    5000:	4501                	li	a0,0
    5002:	a809                	j	5014 <__sfputs_r+0x32>
    5004:	200c                	lbu	a1,0(s0)
    5006:	864e                	mv	a2,s3
    5008:	854a                	mv	a0,s2
    500a:	fb1ff0ef          	jal	ra,4fba <__sfputc_r>
    500e:	0405                	addi	s0,s0,1
    5010:	ff4516e3          	bne	a0,s4,4ffc <__sfputs_r+0x1a>
    5014:	40f2                	lw	ra,28(sp)
    5016:	4462                	lw	s0,24(sp)
    5018:	44d2                	lw	s1,20(sp)
    501a:	4942                	lw	s2,16(sp)
    501c:	49b2                	lw	s3,12(sp)
    501e:	4a22                	lw	s4,8(sp)
    5020:	6105                	addi	sp,sp,32
    5022:	8082                	ret

00005024 <_vfiprintf_r>:
    5024:	7135                	addi	sp,sp,-160
    5026:	cd22                	sw	s0,152(sp)
    5028:	cb26                	sw	s1,148(sp)
    502a:	c94a                	sw	s2,144(sp)
    502c:	c74e                	sw	s3,140(sp)
    502e:	cf06                	sw	ra,156(sp)
    5030:	c552                	sw	s4,136(sp)
    5032:	c356                	sw	s5,132(sp)
    5034:	c15a                	sw	s6,128(sp)
    5036:	dede                	sw	s7,124(sp)
    5038:	dce2                	sw	s8,120(sp)
    503a:	dae6                	sw	s9,116(sp)
    503c:	89aa                	mv	s3,a0
    503e:	84ae                	mv	s1,a1
    5040:	8932                	mv	s2,a2
    5042:	8436                	mv	s0,a3
    5044:	c509                	beqz	a0,504e <_vfiprintf_r+0x2a>
    5046:	4d1c                	lw	a5,24(a0)
    5048:	e399                	bnez	a5,504e <_vfiprintf_r+0x2a>
    504a:	b95ff0ef          	jal	ra,4bde <__sinit>
    504e:	00001797          	auipc	a5,0x1
    5052:	a9e78793          	addi	a5,a5,-1378 # 5aec <__sf_fake_stdin>
    5056:	0cf49863          	bne	s1,a5,5126 <_vfiprintf_r+0x102>
    505a:	0049a483          	lw	s1,4(s3)
    505e:	24de                	lhu	a5,12(s1)
    5060:	8ba1                	andi	a5,a5,8
    5062:	c7e5                	beqz	a5,514a <_vfiprintf_r+0x126>
    5064:	489c                	lw	a5,16(s1)
    5066:	c3f5                	beqz	a5,514a <_vfiprintf_r+0x126>
    5068:	02000793          	li	a5,32
    506c:	02f104a3          	sb	a5,41(sp)
    5070:	03000793          	li	a5,48
    5074:	d202                	sw	zero,36(sp)
    5076:	02f10523          	sb	a5,42(sp)
    507a:	c622                	sw	s0,12(sp)
    507c:	02500b93          	li	s7,37
    5080:	00001a97          	auipc	s5,0x1
    5084:	aaca8a93          	addi	s5,s5,-1364 # 5b2c <__sf_fake_stdout+0x20>
    5088:	4c05                	li	s8,1
    508a:	4b29                	li	s6,10
    508c:	844a                	mv	s0,s2
    508e:	201c                	lbu	a5,0(s0)
    5090:	c399                	beqz	a5,5096 <_vfiprintf_r+0x72>
    5092:	0d779f63          	bne	a5,s7,5170 <_vfiprintf_r+0x14c>
    5096:	41240cb3          	sub	s9,s0,s2
    509a:	000c8e63          	beqz	s9,50b6 <_vfiprintf_r+0x92>
    509e:	86e6                	mv	a3,s9
    50a0:	864a                	mv	a2,s2
    50a2:	85a6                	mv	a1,s1
    50a4:	854e                	mv	a0,s3
    50a6:	f3dff0ef          	jal	ra,4fe2 <__sfputs_r>
    50aa:	57fd                	li	a5,-1
    50ac:	1cf50f63          	beq	a0,a5,528a <_vfiprintf_r+0x266>
    50b0:	5692                	lw	a3,36(sp)
    50b2:	96e6                	add	a3,a3,s9
    50b4:	d236                	sw	a3,36(sp)
    50b6:	201c                	lbu	a5,0(s0)
    50b8:	1c078963          	beqz	a5,528a <_vfiprintf_r+0x266>
    50bc:	57fd                	li	a5,-1
    50be:	00140913          	addi	s2,s0,1
    50c2:	c802                	sw	zero,16(sp)
    50c4:	ce02                	sw	zero,28(sp)
    50c6:	ca3e                	sw	a5,20(sp)
    50c8:	cc02                	sw	zero,24(sp)
    50ca:	040109a3          	sb	zero,83(sp)
    50ce:	d482                	sw	zero,104(sp)
    50d0:	00094583          	lbu	a1,0(s2)
    50d4:	4615                	li	a2,5
    50d6:	8556                	mv	a0,s5
    50d8:	272d                	jal	5802 <memchr>
    50da:	00190413          	addi	s0,s2,1
    50de:	47c2                	lw	a5,16(sp)
    50e0:	e951                	bnez	a0,5174 <_vfiprintf_r+0x150>
    50e2:	0107f713          	andi	a4,a5,16
    50e6:	c709                	beqz	a4,50f0 <_vfiprintf_r+0xcc>
    50e8:	02000713          	li	a4,32
    50ec:	04e109a3          	sb	a4,83(sp)
    50f0:	0087f713          	andi	a4,a5,8
    50f4:	c709                	beqz	a4,50fe <_vfiprintf_r+0xda>
    50f6:	02b00713          	li	a4,43
    50fa:	04e109a3          	sb	a4,83(sp)
    50fe:	00094683          	lbu	a3,0(s2)
    5102:	02a00713          	li	a4,42
    5106:	06e68f63          	beq	a3,a4,5184 <_vfiprintf_r+0x160>
    510a:	47f2                	lw	a5,28(sp)
    510c:	844a                	mv	s0,s2
    510e:	4681                	li	a3,0
    5110:	4625                	li	a2,9
    5112:	2018                	lbu	a4,0(s0)
    5114:	00140593          	addi	a1,s0,1
    5118:	fd070713          	addi	a4,a4,-48 # ffffdfd0 <_eusrstack+0xdfff5fd0>
    511c:	0ae67763          	bgeu	a2,a4,51ca <_vfiprintf_r+0x1a6>
    5120:	cab5                	beqz	a3,5194 <_vfiprintf_r+0x170>
    5122:	ce3e                	sw	a5,28(sp)
    5124:	a885                	j	5194 <_vfiprintf_r+0x170>
    5126:	00001797          	auipc	a5,0x1
    512a:	9e678793          	addi	a5,a5,-1562 # 5b0c <__sf_fake_stdout>
    512e:	00f49563          	bne	s1,a5,5138 <_vfiprintf_r+0x114>
    5132:	0089a483          	lw	s1,8(s3)
    5136:	b725                	j	505e <_vfiprintf_r+0x3a>
    5138:	00001797          	auipc	a5,0x1
    513c:	99478793          	addi	a5,a5,-1644 # 5acc <__sf_fake_stderr>
    5140:	f0f49fe3          	bne	s1,a5,505e <_vfiprintf_r+0x3a>
    5144:	00c9a483          	lw	s1,12(s3)
    5148:	bf19                	j	505e <_vfiprintf_r+0x3a>
    514a:	85a6                	mv	a1,s1
    514c:	854e                	mv	a0,s3
    514e:	f48ff0ef          	jal	ra,4896 <__swsetup_r>
    5152:	d919                	beqz	a0,5068 <_vfiprintf_r+0x44>
    5154:	557d                	li	a0,-1
    5156:	40fa                	lw	ra,156(sp)
    5158:	446a                	lw	s0,152(sp)
    515a:	44da                	lw	s1,148(sp)
    515c:	494a                	lw	s2,144(sp)
    515e:	49ba                	lw	s3,140(sp)
    5160:	4a2a                	lw	s4,136(sp)
    5162:	4a9a                	lw	s5,132(sp)
    5164:	4b0a                	lw	s6,128(sp)
    5166:	5bf6                	lw	s7,124(sp)
    5168:	5c66                	lw	s8,120(sp)
    516a:	5cd6                	lw	s9,116(sp)
    516c:	610d                	addi	sp,sp,160
    516e:	8082                	ret
    5170:	0405                	addi	s0,s0,1
    5172:	bf31                	j	508e <_vfiprintf_r+0x6a>
    5174:	41550533          	sub	a0,a0,s5
    5178:	00ac1533          	sll	a0,s8,a0
    517c:	8fc9                	or	a5,a5,a0
    517e:	c83e                	sw	a5,16(sp)
    5180:	8922                	mv	s2,s0
    5182:	b7b9                	j	50d0 <_vfiprintf_r+0xac>
    5184:	4732                	lw	a4,12(sp)
    5186:	00470693          	addi	a3,a4,4
    518a:	4318                	lw	a4,0(a4)
    518c:	c636                	sw	a3,12(sp)
    518e:	02074763          	bltz	a4,51bc <_vfiprintf_r+0x198>
    5192:	ce3a                	sw	a4,28(sp)
    5194:	2018                	lbu	a4,0(s0)
    5196:	02e00793          	li	a5,46
    519a:	04f71d63          	bne	a4,a5,51f4 <_vfiprintf_r+0x1d0>
    519e:	3018                	lbu	a4,1(s0)
    51a0:	02a00793          	li	a5,42
    51a4:	02f71b63          	bne	a4,a5,51da <_vfiprintf_r+0x1b6>
    51a8:	47b2                	lw	a5,12(sp)
    51aa:	0409                	addi	s0,s0,2
    51ac:	00478713          	addi	a4,a5,4
    51b0:	439c                	lw	a5,0(a5)
    51b2:	c63a                	sw	a4,12(sp)
    51b4:	0207c163          	bltz	a5,51d6 <_vfiprintf_r+0x1b2>
    51b8:	ca3e                	sw	a5,20(sp)
    51ba:	a82d                	j	51f4 <_vfiprintf_r+0x1d0>
    51bc:	40e00733          	neg	a4,a4
    51c0:	0027e793          	ori	a5,a5,2
    51c4:	ce3a                	sw	a4,28(sp)
    51c6:	c83e                	sw	a5,16(sp)
    51c8:	b7f1                	j	5194 <_vfiprintf_r+0x170>
    51ca:	036787b3          	mul	a5,a5,s6
    51ce:	4685                	li	a3,1
    51d0:	842e                	mv	s0,a1
    51d2:	97ba                	add	a5,a5,a4
    51d4:	bf3d                	j	5112 <_vfiprintf_r+0xee>
    51d6:	57fd                	li	a5,-1
    51d8:	b7c5                	j	51b8 <_vfiprintf_r+0x194>
    51da:	0405                	addi	s0,s0,1
    51dc:	ca02                	sw	zero,20(sp)
    51de:	4681                	li	a3,0
    51e0:	4781                	li	a5,0
    51e2:	4625                	li	a2,9
    51e4:	2018                	lbu	a4,0(s0)
    51e6:	00140593          	addi	a1,s0,1
    51ea:	fd070713          	addi	a4,a4,-48
    51ee:	06e67463          	bgeu	a2,a4,5256 <_vfiprintf_r+0x232>
    51f2:	f2f9                	bnez	a3,51b8 <_vfiprintf_r+0x194>
    51f4:	200c                	lbu	a1,0(s0)
    51f6:	460d                	li	a2,3
    51f8:	00001517          	auipc	a0,0x1
    51fc:	93c50513          	addi	a0,a0,-1732 # 5b34 <__sf_fake_stdout+0x28>
    5200:	2509                	jal	5802 <memchr>
    5202:	cd11                	beqz	a0,521e <_vfiprintf_r+0x1fa>
    5204:	00001797          	auipc	a5,0x1
    5208:	93078793          	addi	a5,a5,-1744 # 5b34 <__sf_fake_stdout+0x28>
    520c:	8d1d                	sub	a0,a0,a5
    520e:	04000793          	li	a5,64
    5212:	00a797b3          	sll	a5,a5,a0
    5216:	4542                	lw	a0,16(sp)
    5218:	0405                	addi	s0,s0,1
    521a:	8d5d                	or	a0,a0,a5
    521c:	c82a                	sw	a0,16(sp)
    521e:	200c                	lbu	a1,0(s0)
    5220:	4619                	li	a2,6
    5222:	00001517          	auipc	a0,0x1
    5226:	91650513          	addi	a0,a0,-1770 # 5b38 <__sf_fake_stdout+0x2c>
    522a:	00140913          	addi	s2,s0,1
    522e:	02b10423          	sb	a1,40(sp)
    5232:	2bc1                	jal	5802 <memchr>
    5234:	c135                	beqz	a0,5298 <_vfiprintf_r+0x274>
    5236:	ffffb797          	auipc	a5,0xffffb
    523a:	dca78793          	addi	a5,a5,-566 # 0 <_sinit>
    523e:	e795                	bnez	a5,526a <_vfiprintf_r+0x246>
    5240:	4742                	lw	a4,16(sp)
    5242:	47b2                	lw	a5,12(sp)
    5244:	10077713          	andi	a4,a4,256
    5248:	cf09                	beqz	a4,5262 <_vfiprintf_r+0x23e>
    524a:	0791                	addi	a5,a5,4
    524c:	c63e                	sw	a5,12(sp)
    524e:	5792                	lw	a5,36(sp)
    5250:	97d2                	add	a5,a5,s4
    5252:	d23e                	sw	a5,36(sp)
    5254:	bd25                	j	508c <_vfiprintf_r+0x68>
    5256:	036787b3          	mul	a5,a5,s6
    525a:	4685                	li	a3,1
    525c:	842e                	mv	s0,a1
    525e:	97ba                	add	a5,a5,a4
    5260:	b751                	j	51e4 <_vfiprintf_r+0x1c0>
    5262:	079d                	addi	a5,a5,7
    5264:	9be1                	andi	a5,a5,-8
    5266:	07a1                	addi	a5,a5,8
    5268:	b7d5                	j	524c <_vfiprintf_r+0x228>
    526a:	0078                	addi	a4,sp,12
    526c:	00000697          	auipc	a3,0x0
    5270:	d7668693          	addi	a3,a3,-650 # 4fe2 <__sfputs_r>
    5274:	8626                	mv	a2,s1
    5276:	080c                	addi	a1,sp,16
    5278:	854e                	mv	a0,s3
    527a:	00000097          	auipc	ra,0x0
    527e:	000000e7          	jalr	zero # 0 <_sinit>
    5282:	57fd                	li	a5,-1
    5284:	8a2a                	mv	s4,a0
    5286:	fcf514e3          	bne	a0,a5,524e <_vfiprintf_r+0x22a>
    528a:	24de                	lhu	a5,12(s1)
    528c:	0407f793          	andi	a5,a5,64
    5290:	ec0792e3          	bnez	a5,5154 <_vfiprintf_r+0x130>
    5294:	5512                	lw	a0,36(sp)
    5296:	b5c1                	j	5156 <_vfiprintf_r+0x132>
    5298:	0078                	addi	a4,sp,12
    529a:	00000697          	auipc	a3,0x0
    529e:	d4868693          	addi	a3,a3,-696 # 4fe2 <__sfputs_r>
    52a2:	8626                	mv	a2,s1
    52a4:	080c                	addi	a1,sp,16
    52a6:	854e                	mv	a0,s3
    52a8:	2a01                	jal	53b8 <_printf_i>
    52aa:	bfe1                	j	5282 <_vfiprintf_r+0x25e>

000052ac <_printf_common>:
    52ac:	7179                	addi	sp,sp,-48
    52ae:	ca56                	sw	s5,20(sp)
    52b0:	499c                	lw	a5,16(a1)
    52b2:	8aba                	mv	s5,a4
    52b4:	4598                	lw	a4,8(a1)
    52b6:	d422                	sw	s0,40(sp)
    52b8:	d226                	sw	s1,36(sp)
    52ba:	ce4e                	sw	s3,28(sp)
    52bc:	cc52                	sw	s4,24(sp)
    52be:	d606                	sw	ra,44(sp)
    52c0:	d04a                	sw	s2,32(sp)
    52c2:	c85a                	sw	s6,16(sp)
    52c4:	c65e                	sw	s7,12(sp)
    52c6:	89aa                	mv	s3,a0
    52c8:	842e                	mv	s0,a1
    52ca:	84b2                	mv	s1,a2
    52cc:	8a36                	mv	s4,a3
    52ce:	00e7d363          	bge	a5,a4,52d4 <_printf_common+0x28>
    52d2:	87ba                	mv	a5,a4
    52d4:	c09c                	sw	a5,0(s1)
    52d6:	04344703          	lbu	a4,67(s0)
    52da:	c319                	beqz	a4,52e0 <_printf_common+0x34>
    52dc:	0785                	addi	a5,a5,1
    52de:	c09c                	sw	a5,0(s1)
    52e0:	401c                	lw	a5,0(s0)
    52e2:	0207f793          	andi	a5,a5,32
    52e6:	c781                	beqz	a5,52ee <_printf_common+0x42>
    52e8:	409c                	lw	a5,0(s1)
    52ea:	0789                	addi	a5,a5,2
    52ec:	c09c                	sw	a5,0(s1)
    52ee:	00042903          	lw	s2,0(s0)
    52f2:	00697913          	andi	s2,s2,6
    52f6:	00091a63          	bnez	s2,530a <_printf_common+0x5e>
    52fa:	01940b13          	addi	s6,s0,25
    52fe:	5bfd                	li	s7,-1
    5300:	445c                	lw	a5,12(s0)
    5302:	4098                	lw	a4,0(s1)
    5304:	8f99                	sub	a5,a5,a4
    5306:	04f94c63          	blt	s2,a5,535e <_printf_common+0xb2>
    530a:	401c                	lw	a5,0(s0)
    530c:	04344683          	lbu	a3,67(s0)
    5310:	0207f793          	andi	a5,a5,32
    5314:	00d036b3          	snez	a3,a3
    5318:	eba5                	bnez	a5,5388 <_printf_common+0xdc>
    531a:	04340613          	addi	a2,s0,67
    531e:	85d2                	mv	a1,s4
    5320:	854e                	mv	a0,s3
    5322:	9a82                	jalr	s5
    5324:	57fd                	li	a5,-1
    5326:	04f50363          	beq	a0,a5,536c <_printf_common+0xc0>
    532a:	401c                	lw	a5,0(s0)
    532c:	4611                	li	a2,4
    532e:	4098                	lw	a4,0(s1)
    5330:	8b99                	andi	a5,a5,6
    5332:	4454                	lw	a3,12(s0)
    5334:	4481                	li	s1,0
    5336:	00c79763          	bne	a5,a2,5344 <_printf_common+0x98>
    533a:	40e684b3          	sub	s1,a3,a4
    533e:	0004d363          	bgez	s1,5344 <_printf_common+0x98>
    5342:	4481                	li	s1,0
    5344:	441c                	lw	a5,8(s0)
    5346:	4818                	lw	a4,16(s0)
    5348:	00f75463          	bge	a4,a5,5350 <_printf_common+0xa4>
    534c:	8f99                	sub	a5,a5,a4
    534e:	94be                	add	s1,s1,a5
    5350:	4901                	li	s2,0
    5352:	0469                	addi	s0,s0,26
    5354:	5b7d                	li	s6,-1
    5356:	05249863          	bne	s1,s2,53a6 <_printf_common+0xfa>
    535a:	4501                	li	a0,0
    535c:	a809                	j	536e <_printf_common+0xc2>
    535e:	4685                	li	a3,1
    5360:	865a                	mv	a2,s6
    5362:	85d2                	mv	a1,s4
    5364:	854e                	mv	a0,s3
    5366:	9a82                	jalr	s5
    5368:	01751e63          	bne	a0,s7,5384 <_printf_common+0xd8>
    536c:	557d                	li	a0,-1
    536e:	50b2                	lw	ra,44(sp)
    5370:	5422                	lw	s0,40(sp)
    5372:	5492                	lw	s1,36(sp)
    5374:	5902                	lw	s2,32(sp)
    5376:	49f2                	lw	s3,28(sp)
    5378:	4a62                	lw	s4,24(sp)
    537a:	4ad2                	lw	s5,20(sp)
    537c:	4b42                	lw	s6,16(sp)
    537e:	4bb2                	lw	s7,12(sp)
    5380:	6145                	addi	sp,sp,48
    5382:	8082                	ret
    5384:	0905                	addi	s2,s2,1
    5386:	bfad                	j	5300 <_printf_common+0x54>
    5388:	00d40733          	add	a4,s0,a3
    538c:	03000613          	li	a2,48
    5390:	04c701a3          	sb	a2,67(a4)
    5394:	04544703          	lbu	a4,69(s0)
    5398:	00168793          	addi	a5,a3,1
    539c:	97a2                	add	a5,a5,s0
    539e:	0689                	addi	a3,a3,2
    53a0:	04e781a3          	sb	a4,67(a5)
    53a4:	bf9d                	j	531a <_printf_common+0x6e>
    53a6:	4685                	li	a3,1
    53a8:	8622                	mv	a2,s0
    53aa:	85d2                	mv	a1,s4
    53ac:	854e                	mv	a0,s3
    53ae:	9a82                	jalr	s5
    53b0:	fb650ee3          	beq	a0,s6,536c <_printf_common+0xc0>
    53b4:	0905                	addi	s2,s2,1
    53b6:	b745                	j	5356 <_printf_common+0xaa>

000053b8 <_printf_i>:
    53b8:	7179                	addi	sp,sp,-48
    53ba:	d422                	sw	s0,40(sp)
    53bc:	d226                	sw	s1,36(sp)
    53be:	d04a                	sw	s2,32(sp)
    53c0:	ce4e                	sw	s3,28(sp)
    53c2:	d606                	sw	ra,44(sp)
    53c4:	cc52                	sw	s4,24(sp)
    53c6:	ca56                	sw	s5,20(sp)
    53c8:	c85a                	sw	s6,16(sp)
    53ca:	89b6                	mv	s3,a3
    53cc:	2d94                	lbu	a3,24(a1)
    53ce:	06900793          	li	a5,105
    53d2:	8932                	mv	s2,a2
    53d4:	84aa                	mv	s1,a0
    53d6:	842e                	mv	s0,a1
    53d8:	04358613          	addi	a2,a1,67
    53dc:	02f68d63          	beq	a3,a5,5416 <_printf_i+0x5e>
    53e0:	06d7e263          	bltu	a5,a3,5444 <_printf_i+0x8c>
    53e4:	05800793          	li	a5,88
    53e8:	18f68663          	beq	a3,a5,5574 <_printf_i+0x1bc>
    53ec:	00d7ed63          	bltu	a5,a3,5406 <_printf_i+0x4e>
    53f0:	20068e63          	beqz	a3,560c <_printf_i+0x254>
    53f4:	04300793          	li	a5,67
    53f8:	0af68e63          	beq	a3,a5,54b4 <_printf_i+0xfc>
    53fc:	04240a93          	addi	s5,s0,66
    5400:	04d40123          	sb	a3,66(s0)
    5404:	a0c9                	j	54c6 <_printf_i+0x10e>
    5406:	06300793          	li	a5,99
    540a:	0af68563          	beq	a3,a5,54b4 <_printf_i+0xfc>
    540e:	06400793          	li	a5,100
    5412:	fef695e3          	bne	a3,a5,53fc <_printf_i+0x44>
    5416:	401c                	lw	a5,0(s0)
    5418:	4308                	lw	a0,0(a4)
    541a:	0807f693          	andi	a3,a5,128
    541e:	00450593          	addi	a1,a0,4
    5422:	c6c5                	beqz	a3,54ca <_printf_i+0x112>
    5424:	411c                	lw	a5,0(a0)
    5426:	c30c                	sw	a1,0(a4)
    5428:	0007d863          	bgez	a5,5438 <_printf_i+0x80>
    542c:	02d00713          	li	a4,45
    5430:	40f007b3          	neg	a5,a5
    5434:	04e401a3          	sb	a4,67(s0)
    5438:	00000697          	auipc	a3,0x0
    543c:	70868693          	addi	a3,a3,1800 # 5b40 <__sf_fake_stdout+0x34>
    5440:	4729                	li	a4,10
    5442:	a865                	j	54fa <_printf_i+0x142>
    5444:	07000793          	li	a5,112
    5448:	16f68263          	beq	a3,a5,55ac <_printf_i+0x1f4>
    544c:	02d7e563          	bltu	a5,a3,5476 <_printf_i+0xbe>
    5450:	06e00793          	li	a5,110
    5454:	18f68963          	beq	a3,a5,55e6 <_printf_i+0x22e>
    5458:	06f00793          	li	a5,111
    545c:	faf690e3          	bne	a3,a5,53fc <_printf_i+0x44>
    5460:	400c                	lw	a1,0(s0)
    5462:	431c                	lw	a5,0(a4)
    5464:	0805f813          	andi	a6,a1,128
    5468:	00478513          	addi	a0,a5,4
    546c:	06080763          	beqz	a6,54da <_printf_i+0x122>
    5470:	c308                	sw	a0,0(a4)
    5472:	439c                	lw	a5,0(a5)
    5474:	a885                	j	54e4 <_printf_i+0x12c>
    5476:	07500793          	li	a5,117
    547a:	fef683e3          	beq	a3,a5,5460 <_printf_i+0xa8>
    547e:	07800793          	li	a5,120
    5482:	12f68963          	beq	a3,a5,55b4 <_printf_i+0x1fc>
    5486:	07300793          	li	a5,115
    548a:	f6f699e3          	bne	a3,a5,53fc <_printf_i+0x44>
    548e:	431c                	lw	a5,0(a4)
    5490:	41d0                	lw	a2,4(a1)
    5492:	4581                	li	a1,0
    5494:	00478693          	addi	a3,a5,4
    5498:	c314                	sw	a3,0(a4)
    549a:	0007aa83          	lw	s5,0(a5)
    549e:	8556                	mv	a0,s5
    54a0:	268d                	jal	5802 <memchr>
    54a2:	c501                	beqz	a0,54aa <_printf_i+0xf2>
    54a4:	41550533          	sub	a0,a0,s5
    54a8:	c048                	sw	a0,4(s0)
    54aa:	405c                	lw	a5,4(s0)
    54ac:	c81c                	sw	a5,16(s0)
    54ae:	040401a3          	sb	zero,67(s0)
    54b2:	a861                	j	554a <_printf_i+0x192>
    54b4:	431c                	lw	a5,0(a4)
    54b6:	04240a93          	addi	s5,s0,66
    54ba:	00478693          	addi	a3,a5,4
    54be:	439c                	lw	a5,0(a5)
    54c0:	c314                	sw	a3,0(a4)
    54c2:	04f40123          	sb	a5,66(s0)
    54c6:	4785                	li	a5,1
    54c8:	b7d5                	j	54ac <_printf_i+0xf4>
    54ca:	0407f693          	andi	a3,a5,64
    54ce:	411c                	lw	a5,0(a0)
    54d0:	c30c                	sw	a1,0(a4)
    54d2:	dab9                	beqz	a3,5428 <_printf_i+0x70>
    54d4:	07c2                	slli	a5,a5,0x10
    54d6:	87c1                	srai	a5,a5,0x10
    54d8:	bf81                	j	5428 <_printf_i+0x70>
    54da:	0405f593          	andi	a1,a1,64
    54de:	c308                	sw	a0,0(a4)
    54e0:	d9c9                	beqz	a1,5472 <_printf_i+0xba>
    54e2:	239e                	lhu	a5,0(a5)
    54e4:	06f00713          	li	a4,111
    54e8:	0ee68763          	beq	a3,a4,55d6 <_printf_i+0x21e>
    54ec:	00000697          	auipc	a3,0x0
    54f0:	65468693          	addi	a3,a3,1620 # 5b40 <__sf_fake_stdout+0x34>
    54f4:	4729                	li	a4,10
    54f6:	040401a3          	sb	zero,67(s0)
    54fa:	404c                	lw	a1,4(s0)
    54fc:	c40c                	sw	a1,8(s0)
    54fe:	0005c563          	bltz	a1,5508 <_printf_i+0x150>
    5502:	4008                	lw	a0,0(s0)
    5504:	996d                	andi	a0,a0,-5
    5506:	c008                	sw	a0,0(s0)
    5508:	e399                	bnez	a5,550e <_printf_i+0x156>
    550a:	8ab2                	mv	s5,a2
    550c:	cd89                	beqz	a1,5526 <_printf_i+0x16e>
    550e:	8ab2                	mv	s5,a2
    5510:	02e7f5b3          	remu	a1,a5,a4
    5514:	1afd                	addi	s5,s5,-1
    5516:	95b6                	add	a1,a1,a3
    5518:	218c                	lbu	a1,0(a1)
    551a:	00ba8023          	sb	a1,0(s5)
    551e:	02e7d5b3          	divu	a1,a5,a4
    5522:	0ce7f063          	bgeu	a5,a4,55e2 <_printf_i+0x22a>
    5526:	47a1                	li	a5,8
    5528:	00f71e63          	bne	a4,a5,5544 <_printf_i+0x18c>
    552c:	401c                	lw	a5,0(s0)
    552e:	8b85                	andi	a5,a5,1
    5530:	cb91                	beqz	a5,5544 <_printf_i+0x18c>
    5532:	4058                	lw	a4,4(s0)
    5534:	481c                	lw	a5,16(s0)
    5536:	00e7c763          	blt	a5,a4,5544 <_printf_i+0x18c>
    553a:	03000793          	li	a5,48
    553e:	fefa8fa3          	sb	a5,-1(s5)
    5542:	1afd                	addi	s5,s5,-1
    5544:	41560633          	sub	a2,a2,s5
    5548:	c810                	sw	a2,16(s0)
    554a:	874e                	mv	a4,s3
    554c:	86ca                	mv	a3,s2
    554e:	0070                	addi	a2,sp,12
    5550:	85a2                	mv	a1,s0
    5552:	8526                	mv	a0,s1
    5554:	d59ff0ef          	jal	ra,52ac <_printf_common>
    5558:	5a7d                	li	s4,-1
    555a:	0b451d63          	bne	a0,s4,5614 <_printf_i+0x25c>
    555e:	557d                	li	a0,-1
    5560:	50b2                	lw	ra,44(sp)
    5562:	5422                	lw	s0,40(sp)
    5564:	5492                	lw	s1,36(sp)
    5566:	5902                	lw	s2,32(sp)
    5568:	49f2                	lw	s3,28(sp)
    556a:	4a62                	lw	s4,24(sp)
    556c:	4ad2                	lw	s5,20(sp)
    556e:	4b42                	lw	s6,16(sp)
    5570:	6145                	addi	sp,sp,48
    5572:	8082                	ret
    5574:	04d582a3          	sb	a3,69(a1)
    5578:	00000697          	auipc	a3,0x0
    557c:	5c868693          	addi	a3,a3,1480 # 5b40 <__sf_fake_stdout+0x34>
    5580:	400c                	lw	a1,0(s0)
    5582:	4308                	lw	a0,0(a4)
    5584:	0805f813          	andi	a6,a1,128
    5588:	411c                	lw	a5,0(a0)
    558a:	0511                	addi	a0,a0,4
    558c:	02080d63          	beqz	a6,55c6 <_printf_i+0x20e>
    5590:	c308                	sw	a0,0(a4)
    5592:	0015f713          	andi	a4,a1,1
    5596:	c701                	beqz	a4,559e <_printf_i+0x1e6>
    5598:	0205e593          	ori	a1,a1,32
    559c:	c00c                	sw	a1,0(s0)
    559e:	4741                	li	a4,16
    55a0:	fbb9                	bnez	a5,54f6 <_printf_i+0x13e>
    55a2:	400c                	lw	a1,0(s0)
    55a4:	fdf5f593          	andi	a1,a1,-33
    55a8:	c00c                	sw	a1,0(s0)
    55aa:	b7b1                	j	54f6 <_printf_i+0x13e>
    55ac:	419c                	lw	a5,0(a1)
    55ae:	0207e793          	ori	a5,a5,32
    55b2:	c19c                	sw	a5,0(a1)
    55b4:	07800793          	li	a5,120
    55b8:	04f402a3          	sb	a5,69(s0)
    55bc:	00000697          	auipc	a3,0x0
    55c0:	59868693          	addi	a3,a3,1432 # 5b54 <__sf_fake_stdout+0x48>
    55c4:	bf75                	j	5580 <_printf_i+0x1c8>
    55c6:	0405f813          	andi	a6,a1,64
    55ca:	c308                	sw	a0,0(a4)
    55cc:	fc0803e3          	beqz	a6,5592 <_printf_i+0x1da>
    55d0:	07c2                	slli	a5,a5,0x10
    55d2:	83c1                	srli	a5,a5,0x10
    55d4:	bf7d                	j	5592 <_printf_i+0x1da>
    55d6:	00000697          	auipc	a3,0x0
    55da:	56a68693          	addi	a3,a3,1386 # 5b40 <__sf_fake_stdout+0x34>
    55de:	4721                	li	a4,8
    55e0:	bf19                	j	54f6 <_printf_i+0x13e>
    55e2:	87ae                	mv	a5,a1
    55e4:	b735                	j	5510 <_printf_i+0x158>
    55e6:	4194                	lw	a3,0(a1)
    55e8:	431c                	lw	a5,0(a4)
    55ea:	49cc                	lw	a1,20(a1)
    55ec:	0806f813          	andi	a6,a3,128
    55f0:	00478513          	addi	a0,a5,4
    55f4:	00080663          	beqz	a6,5600 <_printf_i+0x248>
    55f8:	c308                	sw	a0,0(a4)
    55fa:	439c                	lw	a5,0(a5)
    55fc:	c38c                	sw	a1,0(a5)
    55fe:	a039                	j	560c <_printf_i+0x254>
    5600:	c308                	sw	a0,0(a4)
    5602:	0406f693          	andi	a3,a3,64
    5606:	439c                	lw	a5,0(a5)
    5608:	daf5                	beqz	a3,55fc <_printf_i+0x244>
    560a:	a38e                	sh	a1,0(a5)
    560c:	00042823          	sw	zero,16(s0)
    5610:	8ab2                	mv	s5,a2
    5612:	bf25                	j	554a <_printf_i+0x192>
    5614:	4814                	lw	a3,16(s0)
    5616:	8656                	mv	a2,s5
    5618:	85ca                	mv	a1,s2
    561a:	8526                	mv	a0,s1
    561c:	9982                	jalr	s3
    561e:	f54500e3          	beq	a0,s4,555e <_printf_i+0x1a6>
    5622:	401c                	lw	a5,0(s0)
    5624:	8b89                	andi	a5,a5,2
    5626:	e78d                	bnez	a5,5650 <_printf_i+0x298>
    5628:	47b2                	lw	a5,12(sp)
    562a:	4448                	lw	a0,12(s0)
    562c:	f2f55ae3          	bge	a0,a5,5560 <_printf_i+0x1a8>
    5630:	853e                	mv	a0,a5
    5632:	b73d                	j	5560 <_printf_i+0x1a8>
    5634:	4685                	li	a3,1
    5636:	8656                	mv	a2,s5
    5638:	85ca                	mv	a1,s2
    563a:	8526                	mv	a0,s1
    563c:	9982                	jalr	s3
    563e:	f36500e3          	beq	a0,s6,555e <_printf_i+0x1a6>
    5642:	0a05                	addi	s4,s4,1
    5644:	445c                	lw	a5,12(s0)
    5646:	4732                	lw	a4,12(sp)
    5648:	8f99                	sub	a5,a5,a4
    564a:	fefa45e3          	blt	s4,a5,5634 <_printf_i+0x27c>
    564e:	bfe9                	j	5628 <_printf_i+0x270>
    5650:	4a01                	li	s4,0
    5652:	01940a93          	addi	s5,s0,25
    5656:	5b7d                	li	s6,-1
    5658:	b7f5                	j	5644 <_printf_i+0x28c>

0000565a <_sbrk_r>:
    565a:	1141                	addi	sp,sp,-16
    565c:	c422                	sw	s0,8(sp)
    565e:	842a                	mv	s0,a0
    5660:	852e                	mv	a0,a1
    5662:	1601a823          	sw	zero,368(gp) # 200009f0 <errno>
    5666:	c606                	sw	ra,12(sp)
    5668:	b6bfe0ef          	jal	ra,41d2 <_sbrk>
    566c:	57fd                	li	a5,-1
    566e:	00f51763          	bne	a0,a5,567c <_sbrk_r+0x22>
    5672:	17018793          	addi	a5,gp,368 # 200009f0 <errno>
    5676:	439c                	lw	a5,0(a5)
    5678:	c391                	beqz	a5,567c <_sbrk_r+0x22>
    567a:	c01c                	sw	a5,0(s0)
    567c:	40b2                	lw	ra,12(sp)
    567e:	4422                	lw	s0,8(sp)
    5680:	0141                	addi	sp,sp,16
    5682:	8082                	ret

00005684 <__sread>:
    5684:	1141                	addi	sp,sp,-16
    5686:	c422                	sw	s0,8(sp)
    5688:	842e                	mv	s0,a1
    568a:	00e59583          	lh	a1,14(a1)
    568e:	c606                	sw	ra,12(sp)
    5690:	2279                	jal	581e <_read_r>
    5692:	00054963          	bltz	a0,56a4 <__sread+0x20>
    5696:	487c                	lw	a5,84(s0)
    5698:	97aa                	add	a5,a5,a0
    569a:	c87c                	sw	a5,84(s0)
    569c:	40b2                	lw	ra,12(sp)
    569e:	4422                	lw	s0,8(sp)
    56a0:	0141                	addi	sp,sp,16
    56a2:	8082                	ret
    56a4:	245e                	lhu	a5,12(s0)
    56a6:	777d                	lui	a4,0xfffff
    56a8:	177d                	addi	a4,a4,-1
    56aa:	8ff9                	and	a5,a5,a4
    56ac:	a45e                	sh	a5,12(s0)
    56ae:	b7fd                	j	569c <__sread+0x18>

000056b0 <__swrite>:
    56b0:	25de                	lhu	a5,12(a1)
    56b2:	1101                	addi	sp,sp,-32
    56b4:	cc22                	sw	s0,24(sp)
    56b6:	ca26                	sw	s1,20(sp)
    56b8:	c84a                	sw	s2,16(sp)
    56ba:	c64e                	sw	s3,12(sp)
    56bc:	ce06                	sw	ra,28(sp)
    56be:	1007f793          	andi	a5,a5,256
    56c2:	84aa                	mv	s1,a0
    56c4:	842e                	mv	s0,a1
    56c6:	8932                	mv	s2,a2
    56c8:	89b6                	mv	s3,a3
    56ca:	c791                	beqz	a5,56d6 <__swrite+0x26>
    56cc:	00e59583          	lh	a1,14(a1)
    56d0:	4689                	li	a3,2
    56d2:	4601                	li	a2,0
    56d4:	2209                	jal	57d6 <_lseek_r>
    56d6:	245e                	lhu	a5,12(s0)
    56d8:	777d                	lui	a4,0xfffff
    56da:	177d                	addi	a4,a4,-1
    56dc:	8ff9                	and	a5,a5,a4
    56de:	a45e                	sh	a5,12(s0)
    56e0:	00e41583          	lh	a1,14(s0)
    56e4:	4462                	lw	s0,24(sp)
    56e6:	40f2                	lw	ra,28(sp)
    56e8:	86ce                	mv	a3,s3
    56ea:	864a                	mv	a2,s2
    56ec:	49b2                	lw	s3,12(sp)
    56ee:	4942                	lw	s2,16(sp)
    56f0:	8526                	mv	a0,s1
    56f2:	44d2                	lw	s1,20(sp)
    56f4:	6105                	addi	sp,sp,32
    56f6:	a825                	j	572e <_write_r>

000056f8 <__sseek>:
    56f8:	1141                	addi	sp,sp,-16
    56fa:	c422                	sw	s0,8(sp)
    56fc:	842e                	mv	s0,a1
    56fe:	00e59583          	lh	a1,14(a1)
    5702:	c606                	sw	ra,12(sp)
    5704:	28c9                	jal	57d6 <_lseek_r>
    5706:	57fd                	li	a5,-1
    5708:	245a                	lhu	a4,12(s0)
    570a:	00f51a63          	bne	a0,a5,571e <__sseek+0x26>
    570e:	77fd                	lui	a5,0xfffff
    5710:	17fd                	addi	a5,a5,-1
    5712:	8ff9                	and	a5,a5,a4
    5714:	a45e                	sh	a5,12(s0)
    5716:	40b2                	lw	ra,12(sp)
    5718:	4422                	lw	s0,8(sp)
    571a:	0141                	addi	sp,sp,16
    571c:	8082                	ret
    571e:	6785                	lui	a5,0x1
    5720:	8fd9                	or	a5,a5,a4
    5722:	a45e                	sh	a5,12(s0)
    5724:	c868                	sw	a0,84(s0)
    5726:	bfc5                	j	5716 <__sseek+0x1e>

00005728 <__sclose>:
    5728:	00e59583          	lh	a1,14(a1)
    572c:	a805                	j	575c <_close_r>

0000572e <_write_r>:
    572e:	1141                	addi	sp,sp,-16
    5730:	c422                	sw	s0,8(sp)
    5732:	842a                	mv	s0,a0
    5734:	852e                	mv	a0,a1
    5736:	85b2                	mv	a1,a2
    5738:	8636                	mv	a2,a3
    573a:	1601a823          	sw	zero,368(gp) # 200009f0 <errno>
    573e:	c606                	sw	ra,12(sp)
    5740:	a55fe0ef          	jal	ra,4194 <_write>
    5744:	57fd                	li	a5,-1
    5746:	00f51763          	bne	a0,a5,5754 <_write_r+0x26>
    574a:	17018793          	addi	a5,gp,368 # 200009f0 <errno>
    574e:	439c                	lw	a5,0(a5)
    5750:	c391                	beqz	a5,5754 <_write_r+0x26>
    5752:	c01c                	sw	a5,0(s0)
    5754:	40b2                	lw	ra,12(sp)
    5756:	4422                	lw	s0,8(sp)
    5758:	0141                	addi	sp,sp,16
    575a:	8082                	ret

0000575c <_close_r>:
    575c:	1141                	addi	sp,sp,-16
    575e:	c422                	sw	s0,8(sp)
    5760:	842a                	mv	s0,a0
    5762:	852e                	mv	a0,a1
    5764:	1601a823          	sw	zero,368(gp) # 200009f0 <errno>
    5768:	c606                	sw	ra,12(sp)
    576a:	20c5                	jal	584a <_close>
    576c:	57fd                	li	a5,-1
    576e:	00f51763          	bne	a0,a5,577c <_close_r+0x20>
    5772:	17018793          	addi	a5,gp,368 # 200009f0 <errno>
    5776:	439c                	lw	a5,0(a5)
    5778:	c391                	beqz	a5,577c <_close_r+0x20>
    577a:	c01c                	sw	a5,0(s0)
    577c:	40b2                	lw	ra,12(sp)
    577e:	4422                	lw	s0,8(sp)
    5780:	0141                	addi	sp,sp,16
    5782:	8082                	ret

00005784 <_fstat_r>:
    5784:	1141                	addi	sp,sp,-16
    5786:	c422                	sw	s0,8(sp)
    5788:	842a                	mv	s0,a0
    578a:	852e                	mv	a0,a1
    578c:	85b2                	mv	a1,a2
    578e:	1601a823          	sw	zero,368(gp) # 200009f0 <errno>
    5792:	c606                	sw	ra,12(sp)
    5794:	20c9                	jal	5856 <_fstat>
    5796:	57fd                	li	a5,-1
    5798:	00f51763          	bne	a0,a5,57a6 <_fstat_r+0x22>
    579c:	17018793          	addi	a5,gp,368 # 200009f0 <errno>
    57a0:	439c                	lw	a5,0(a5)
    57a2:	c391                	beqz	a5,57a6 <_fstat_r+0x22>
    57a4:	c01c                	sw	a5,0(s0)
    57a6:	40b2                	lw	ra,12(sp)
    57a8:	4422                	lw	s0,8(sp)
    57aa:	0141                	addi	sp,sp,16
    57ac:	8082                	ret

000057ae <_isatty_r>:
    57ae:	1141                	addi	sp,sp,-16
    57b0:	c422                	sw	s0,8(sp)
    57b2:	842a                	mv	s0,a0
    57b4:	852e                	mv	a0,a1
    57b6:	1601a823          	sw	zero,368(gp) # 200009f0 <errno>
    57ba:	c606                	sw	ra,12(sp)
    57bc:	205d                	jal	5862 <_isatty>
    57be:	57fd                	li	a5,-1
    57c0:	00f51763          	bne	a0,a5,57ce <_isatty_r+0x20>
    57c4:	17018793          	addi	a5,gp,368 # 200009f0 <errno>
    57c8:	439c                	lw	a5,0(a5)
    57ca:	c391                	beqz	a5,57ce <_isatty_r+0x20>
    57cc:	c01c                	sw	a5,0(s0)
    57ce:	40b2                	lw	ra,12(sp)
    57d0:	4422                	lw	s0,8(sp)
    57d2:	0141                	addi	sp,sp,16
    57d4:	8082                	ret

000057d6 <_lseek_r>:
    57d6:	1141                	addi	sp,sp,-16
    57d8:	c422                	sw	s0,8(sp)
    57da:	842a                	mv	s0,a0
    57dc:	852e                	mv	a0,a1
    57de:	85b2                	mv	a1,a2
    57e0:	8636                	mv	a2,a3
    57e2:	1601a823          	sw	zero,368(gp) # 200009f0 <errno>
    57e6:	c606                	sw	ra,12(sp)
    57e8:	2059                	jal	586e <_lseek>
    57ea:	57fd                	li	a5,-1
    57ec:	00f51763          	bne	a0,a5,57fa <_lseek_r+0x24>
    57f0:	17018793          	addi	a5,gp,368 # 200009f0 <errno>
    57f4:	439c                	lw	a5,0(a5)
    57f6:	c391                	beqz	a5,57fa <_lseek_r+0x24>
    57f8:	c01c                	sw	a5,0(s0)
    57fa:	40b2                	lw	ra,12(sp)
    57fc:	4422                	lw	s0,8(sp)
    57fe:	0141                	addi	sp,sp,16
    5800:	8082                	ret

00005802 <memchr>:
    5802:	0ff5f593          	andi	a1,a1,255
    5806:	962a                	add	a2,a2,a0
    5808:	00c51463          	bne	a0,a2,5810 <memchr+0xe>
    580c:	4501                	li	a0,0
    580e:	8082                	ret
    5810:	211c                	lbu	a5,0(a0)
    5812:	feb78ee3          	beq	a5,a1,580e <memchr+0xc>
    5816:	0505                	addi	a0,a0,1
    5818:	bfc5                	j	5808 <memchr+0x6>

0000581a <__malloc_lock>:
    581a:	8082                	ret

0000581c <__malloc_unlock>:
    581c:	8082                	ret

0000581e <_read_r>:
    581e:	1141                	addi	sp,sp,-16
    5820:	c422                	sw	s0,8(sp)
    5822:	842a                	mv	s0,a0
    5824:	852e                	mv	a0,a1
    5826:	85b2                	mv	a1,a2
    5828:	8636                	mv	a2,a3
    582a:	1601a823          	sw	zero,368(gp) # 200009f0 <errno>
    582e:	c606                	sw	ra,12(sp)
    5830:	20a9                	jal	587a <_read>
    5832:	57fd                	li	a5,-1
    5834:	00f51763          	bne	a0,a5,5842 <_read_r+0x24>
    5838:	17018793          	addi	a5,gp,368 # 200009f0 <errno>
    583c:	439c                	lw	a5,0(a5)
    583e:	c391                	beqz	a5,5842 <_read_r+0x24>
    5840:	c01c                	sw	a5,0(s0)
    5842:	40b2                	lw	ra,12(sp)
    5844:	4422                	lw	s0,8(sp)
    5846:	0141                	addi	sp,sp,16
    5848:	8082                	ret

0000584a <_close>:
    584a:	05800793          	li	a5,88
    584e:	16f1a823          	sw	a5,368(gp) # 200009f0 <errno>
    5852:	557d                	li	a0,-1
    5854:	8082                	ret

00005856 <_fstat>:
    5856:	05800793          	li	a5,88
    585a:	16f1a823          	sw	a5,368(gp) # 200009f0 <errno>
    585e:	557d                	li	a0,-1
    5860:	8082                	ret

00005862 <_isatty>:
    5862:	05800793          	li	a5,88
    5866:	16f1a823          	sw	a5,368(gp) # 200009f0 <errno>
    586a:	4501                	li	a0,0
    586c:	8082                	ret

0000586e <_lseek>:
    586e:	05800793          	li	a5,88
    5872:	16f1a823          	sw	a5,368(gp) # 200009f0 <errno>
    5876:	557d                	li	a0,-1
    5878:	8082                	ret

0000587a <_read>:
    587a:	05800793          	li	a5,88
    587e:	16f1a823          	sw	a5,368(gp) # 200009f0 <errno>
    5882:	557d                	li	a0,-1
    5884:	8082                	ret
    5886:	0000                	unimp
    5888:	74737953          	0x74737953
    588c:	6d65                	lui	s10,0x19
    588e:	3a6b6c43          	fmadd.d	fs8,fs6,ft6,ft7,unknown
    5892:	6425                	lui	s0,0x9
    5894:	0a0d                	addi	s4,s4,3
    5896:	0000                	unimp
    5898:	70696843          	fmadd.s	fa6,fs2,ft6,fa4,unknown
    589c:	4449                	li	s0,18
    589e:	253a                	lhu	a4,10(a0)
    58a0:	3830                	lbu	a2,19(s0)
    58a2:	0d78                	addi	a4,sp,668
    58a4:	000a                	c.slli	zero,0x2
    58a6:	0000                	unimp
    58a8:	bccaaabf d8d4d2b9 	0xd8d4d2b9bccaaabf
    58b0:	c4ce                	sw	s3,72(sp)
    58b2:	febc                	fsw	fa5,120(a3)
    58b4:	b3cdb5cf          	fnmadd.d	fa1,fs11,ft8,fs6,rup
    58b8:	000d                	c.nop	3
    58ba:	0000                	unimp
    58bc:	3a31                	jal	51d8 <_vfiprintf_r+0x1b4>
    58be:	0000                	unimp
    58c0:	c4ce                	sw	s3,72(sp)
    58c2:	febc                	fsw	fa5,120(a3)
    58c4:	b3cdb5cf          	fnmadd.d	fa1,fs11,ft8,fs6,rup
    58c8:	d2b9                	beqz	a3,580e <memchr+0xc>
    58ca:	d8d4                	sw	a3,52(s1)
    58cc:	e1bd                	bnez	a1,5932 <_read+0xb8>
    58ce:	fbb9                	bnez	a5,5824 <_read_r+0x6>
    58d0:	6425                	lui	s0,0x9
    58d2:	0a0d                	addi	s4,s4,3
    58d4:	0000                	unimp
    58d6:	0000                	unimp
    58d8:	6f66                	flw	ft10,88(sp)
    58da:	6d72                	flw	fs10,28(sp)
    58dc:	7461                	lui	s0,0xffff8
    58de:	6974                	flw	fa3,84(a0)
    58e0:	676e                	flw	fa4,216(sp)
    58e2:	000d                	c.nop	3
    58e4:	3a31                	jal	5200 <_vfiprintf_r+0x1dc>
    58e6:	4144                	lw	s1,4(a0)
    58e8:	4154                	lw	a3,4(a0)
    58ea:	2e31                	jal	5c06 <_data_lma+0x9e>
    58ec:	7874                	flw	fa3,116(s0)
    58ee:	0074                	addi	a3,sp,12
    58f0:	b4b4                	sb	a3,11(s1)
    58f2:	a8bd                	j	5970 <cst32.6296+0x8>
    58f4:	e2b2                	fsw	fa2,68(sp)
    58f6:	d4ca                	sw	s2,104(sp)
    58f8:	c4ce                	sw	s3,72(sp)
    58fa:	febc                	fsw	fa5,120(a3)
    58fc:	a6b9c9b3          	0xa6b9c9b3
    5900:	000d                	c.nop	3
    5902:	0000                	unimp
    5904:	a6b9c9b3          	0xa6b9c9b3
    5908:	b4d0                	sb	a2,13(s1)
    590a:	ebc8                	fsw	fa0,20(a5)
    590c:	6425                	lui	s0,0x9
    590e:	dabdd6d7          	0xdabdd6d7
    5912:	fdca                	fsw	fs2,248(sp)
    5914:	ddbe                	sw	a5,248(sp)
    5916:	0a0d                	addi	s4,s4,3
    5918:	0000                	unimp
    591a:	0000                	unimp
    591c:	c4ce                	sw	s3,72(sp)
    591e:	febc                	fsw	fa5,120(a3)
    5920:	b4d0                	sb	a2,13(s1)
    5922:	ebc8                	fsw	fa0,20(a5)
    5924:	a7ca                	sh	a0,12(a5)
    5926:	dcb0                	sw	a2,120(s1)
    5928:	000d                	c.nop	3
    592a:	0000                	unimp
    592c:	b4b4                	sb	a3,11(s1)
    592e:	a8bd                	j	59ac <defopt.6297+0x34>
    5930:	c4ce                	sw	s3,72(sp)
    5932:	febc                	fsw	fa5,120(a3)
    5934:	a7ca                	sh	a0,12(a5)
    5936:	dcb0                	sw	a2,120(s1)
    5938:	000d                	c.nop	3
    593a:	0000                	unimp
    593c:	d2b9                	beqz	a3,5882 <_read+0x8>
    593e:	d8d4                	sw	a3,52(s1)
    5940:	e1bd                	bnez	a1,59a6 <defopt.6297+0x2e>
    5942:	fbb9                	bnez	a5,5898 <_read+0x1e>
    5944:	6425baa3          	0x6425baa3
    5948:	0a0d                	addi	s4,s4,3
    594a:	0000                	unimp
    594c:	4146                	lw	sp,80(sp)
    594e:	3354                	lbu	a3,5(a4)
    5950:	2032                	lhu	a2,2(s0)
    5952:	2020                	lbu	s0,2(s0)
    5954:	0000                	unimp
	...

00005958 <cst.6295>:
    5958:	0001 0004 0010 0040 0100 0200 0000 0000     ......@.........

00005968 <cst32.6296>:
    5968:	0001 0002 0004 0008 0010 0020 0000 0000     .......... .....

00005978 <defopt.6297>:
    5978:	0007 0000 0000 0000 0000 0000 0000 0000     ................
    5988:	feeb 4d90 4453 534f 2e35 0030 4f4e 4e20     ...MSDOS5.0.NO N
    5998:	4d41 2045 2020 4620 5441 3233 2020 0020     AME    FAT32   .
    59a8:	4f4e 4e20 4d41 2045 2020 4620 5441 2020     NO NAME    FAT  
    59b8:	2020 0020 2b2a 3a2c 3c3b 3e3d 5d5b 227c        .*+,:;<=>[]|"
    59c8:	7f3f 0000                                   ?...

000059cc <__clz_tab>:
    59cc:	0100 0202 0303 0303 0404 0404 0404 0404     ................
    59dc:	0505 0505 0505 0505 0505 0505 0505 0505     ................
    59ec:	0606 0606 0606 0606 0606 0606 0606 0606     ................
    59fc:	0606 0606 0606 0606 0606 0606 0606 0606     ................
    5a0c:	0707 0707 0707 0707 0707 0707 0707 0707     ................
    5a1c:	0707 0707 0707 0707 0707 0707 0707 0707     ................
    5a2c:	0707 0707 0707 0707 0707 0707 0707 0707     ................
    5a3c:	0707 0707 0707 0707 0707 0707 0707 0707     ................
    5a4c:	0808 0808 0808 0808 0808 0808 0808 0808     ................
    5a5c:	0808 0808 0808 0808 0808 0808 0808 0808     ................
    5a6c:	0808 0808 0808 0808 0808 0808 0808 0808     ................
    5a7c:	0808 0808 0808 0808 0808 0808 0808 0808     ................
    5a8c:	0808 0808 0808 0808 0808 0808 0808 0808     ................
    5a9c:	0808 0808 0808 0808 0808 0808 0808 0808     ................
    5aac:	0808 0808 0808 0808 0808 0808 0808 0808     ................
    5abc:	0808 0808 0808 0808 0808 0808 0808 0808     ................

00005acc <__sf_fake_stderr>:
	...

00005aec <__sf_fake_stdin>:
	...

00005b0c <__sf_fake_stdout>:
	...
    5b2c:	2d23 2b30 0020 0000 6c68 004c 6665 4567     #-0+ ...hlL.efgE
    5b3c:	4746 0000 3130 3332 3534 3736 3938 4241     FG..0123456789AB
    5b4c:	4443 4645 0000 0000 3130 3332 3534 3736     CDEF....01234567
    5b5c:	3938 6261 6463 6665 0000 0000               89abcdef....
